   1              		.syntax unified
   2              		.cpu cortex-m3
   3              		.fpu softvfp
   4              		.eabi_attribute 20, 1
   5              		.eabi_attribute 21, 1
   6              		.eabi_attribute 23, 3
   7              		.eabi_attribute 24, 1
   8              		.eabi_attribute 25, 1
   9              		.eabi_attribute 26, 1
  10              		.eabi_attribute 30, 6
  11              		.eabi_attribute 18, 4
  12              		.thumb
  13              		.file	"adc.c"
  23              	.Ltext0:
  24              		.file 1 "/home/cuil/workspace/arm/lm3s811/TI_Stellaris/driverlib/adc.c"
 9991              		.align	2
 9992              	g_pucOversampleFactor:
 9993 0000 000000   		.space	3
 9994 0003 00       		.section	.text.ADCIntRegister,"ax",%progbits
 9995              		.align	2
 9996              		.global	ADCIntRegister
 9997              		.thumb
 9998              		.thumb_func
 10000              	ADCIntRegister:
 10001              	.LFB0:
   1:/home/cuil/workspace/arm/lm3s811/TI_Stellaris/driverlib/adc.c **** //*****************************************************************************
   2:/home/cuil/workspace/arm/lm3s811/TI_Stellaris/driverlib/adc.c **** //
   3:/home/cuil/workspace/arm/lm3s811/TI_Stellaris/driverlib/adc.c **** // adc.c - Driver for the ADC.
   4:/home/cuil/workspace/arm/lm3s811/TI_Stellaris/driverlib/adc.c **** //
   5:/home/cuil/workspace/arm/lm3s811/TI_Stellaris/driverlib/adc.c **** // Copyright (c) 2005-2011 Texas Instruments Incorporated.  All rights reserved.
   6:/home/cuil/workspace/arm/lm3s811/TI_Stellaris/driverlib/adc.c **** // Software License Agreement
   7:/home/cuil/workspace/arm/lm3s811/TI_Stellaris/driverlib/adc.c **** // 
   8:/home/cuil/workspace/arm/lm3s811/TI_Stellaris/driverlib/adc.c **** // Texas Instruments (TI) is supplying this software for use solely and
   9:/home/cuil/workspace/arm/lm3s811/TI_Stellaris/driverlib/adc.c **** // exclusively on TI's microcontroller products. The software is owned by
  10:/home/cuil/workspace/arm/lm3s811/TI_Stellaris/driverlib/adc.c **** // TI and/or its suppliers, and is protected under applicable copyright
  11:/home/cuil/workspace/arm/lm3s811/TI_Stellaris/driverlib/adc.c **** // laws. You may not combine this software with "viral" open-source
  12:/home/cuil/workspace/arm/lm3s811/TI_Stellaris/driverlib/adc.c **** // software in order to form a larger program.
  13:/home/cuil/workspace/arm/lm3s811/TI_Stellaris/driverlib/adc.c **** // 
  14:/home/cuil/workspace/arm/lm3s811/TI_Stellaris/driverlib/adc.c **** // THIS SOFTWARE IS PROVIDED "AS IS" AND WITH ALL FAULTS.
  15:/home/cuil/workspace/arm/lm3s811/TI_Stellaris/driverlib/adc.c **** // NO WARRANTIES, WHETHER EXPRESS, IMPLIED OR STATUTORY, INCLUDING, BUT
  16:/home/cuil/workspace/arm/lm3s811/TI_Stellaris/driverlib/adc.c **** // NOT LIMITED TO, IMPLIED WARRANTIES OF MERCHANTABILITY AND FITNESS FOR
  17:/home/cuil/workspace/arm/lm3s811/TI_Stellaris/driverlib/adc.c **** // A PARTICULAR PURPOSE APPLY TO THIS SOFTWARE. TI SHALL NOT, UNDER ANY
  18:/home/cuil/workspace/arm/lm3s811/TI_Stellaris/driverlib/adc.c **** // CIRCUMSTANCES, BE LIABLE FOR SPECIAL, INCIDENTAL, OR CONSEQUENTIAL
  19:/home/cuil/workspace/arm/lm3s811/TI_Stellaris/driverlib/adc.c **** // DAMAGES, FOR ANY REASON WHATSOEVER.
  20:/home/cuil/workspace/arm/lm3s811/TI_Stellaris/driverlib/adc.c **** // 
  21:/home/cuil/workspace/arm/lm3s811/TI_Stellaris/driverlib/adc.c **** // This is part of revision 8264 of the Stellaris Peripheral Driver Library.
  22:/home/cuil/workspace/arm/lm3s811/TI_Stellaris/driverlib/adc.c **** //
  23:/home/cuil/workspace/arm/lm3s811/TI_Stellaris/driverlib/adc.c **** //*****************************************************************************
  24:/home/cuil/workspace/arm/lm3s811/TI_Stellaris/driverlib/adc.c **** 
  25:/home/cuil/workspace/arm/lm3s811/TI_Stellaris/driverlib/adc.c **** //*****************************************************************************
  26:/home/cuil/workspace/arm/lm3s811/TI_Stellaris/driverlib/adc.c **** //
  27:/home/cuil/workspace/arm/lm3s811/TI_Stellaris/driverlib/adc.c **** //! \addtogroup adc_api
  28:/home/cuil/workspace/arm/lm3s811/TI_Stellaris/driverlib/adc.c **** //! @{
  29:/home/cuil/workspace/arm/lm3s811/TI_Stellaris/driverlib/adc.c **** //
  30:/home/cuil/workspace/arm/lm3s811/TI_Stellaris/driverlib/adc.c **** //*****************************************************************************
  31:/home/cuil/workspace/arm/lm3s811/TI_Stellaris/driverlib/adc.c **** 
  32:/home/cuil/workspace/arm/lm3s811/TI_Stellaris/driverlib/adc.c **** #include "inc/hw_adc.h"
  33:/home/cuil/workspace/arm/lm3s811/TI_Stellaris/driverlib/adc.c **** #include "inc/hw_ints.h"
  34:/home/cuil/workspace/arm/lm3s811/TI_Stellaris/driverlib/adc.c **** #include "inc/hw_memmap.h"
  35:/home/cuil/workspace/arm/lm3s811/TI_Stellaris/driverlib/adc.c **** #include "inc/hw_types.h"
  36:/home/cuil/workspace/arm/lm3s811/TI_Stellaris/driverlib/adc.c **** #include "inc/hw_sysctl.h"
  37:/home/cuil/workspace/arm/lm3s811/TI_Stellaris/driverlib/adc.c **** #include "driverlib/adc.h"
  38:/home/cuil/workspace/arm/lm3s811/TI_Stellaris/driverlib/adc.c **** #include "driverlib/debug.h"
  39:/home/cuil/workspace/arm/lm3s811/TI_Stellaris/driverlib/adc.c **** #include "driverlib/interrupt.h"
  40:/home/cuil/workspace/arm/lm3s811/TI_Stellaris/driverlib/adc.c **** 
  41:/home/cuil/workspace/arm/lm3s811/TI_Stellaris/driverlib/adc.c **** //*****************************************************************************
  42:/home/cuil/workspace/arm/lm3s811/TI_Stellaris/driverlib/adc.c **** //
  43:/home/cuil/workspace/arm/lm3s811/TI_Stellaris/driverlib/adc.c **** // These defines are used by the ADC driver to simplify access to the ADC
  44:/home/cuil/workspace/arm/lm3s811/TI_Stellaris/driverlib/adc.c **** // sequencer's registers.
  45:/home/cuil/workspace/arm/lm3s811/TI_Stellaris/driverlib/adc.c **** //
  46:/home/cuil/workspace/arm/lm3s811/TI_Stellaris/driverlib/adc.c **** //*****************************************************************************
  47:/home/cuil/workspace/arm/lm3s811/TI_Stellaris/driverlib/adc.c **** #define ADC_SEQ                 (ADC_O_SSMUX0)
  48:/home/cuil/workspace/arm/lm3s811/TI_Stellaris/driverlib/adc.c **** #define ADC_SEQ_STEP            (ADC_O_SSMUX1 - ADC_O_SSMUX0)
  49:/home/cuil/workspace/arm/lm3s811/TI_Stellaris/driverlib/adc.c **** #define ADC_SSMUX               (ADC_O_SSMUX0 - ADC_O_SSMUX0)
  50:/home/cuil/workspace/arm/lm3s811/TI_Stellaris/driverlib/adc.c **** #define ADC_SSEMUX              (ADC_O_SSEMUX0 - ADC_O_SSMUX0)
  51:/home/cuil/workspace/arm/lm3s811/TI_Stellaris/driverlib/adc.c **** #define ADC_SSCTL               (ADC_O_SSCTL0 - ADC_O_SSMUX0)
  52:/home/cuil/workspace/arm/lm3s811/TI_Stellaris/driverlib/adc.c **** #define ADC_SSFIFO              (ADC_O_SSFIFO0 - ADC_O_SSMUX0)
  53:/home/cuil/workspace/arm/lm3s811/TI_Stellaris/driverlib/adc.c **** #define ADC_SSFSTAT             (ADC_O_SSFSTAT0 - ADC_O_SSMUX0)
  54:/home/cuil/workspace/arm/lm3s811/TI_Stellaris/driverlib/adc.c **** #define ADC_SSOP                (ADC_O_SSOP0 - ADC_O_SSMUX0)
  55:/home/cuil/workspace/arm/lm3s811/TI_Stellaris/driverlib/adc.c **** #define ADC_SSDC                (ADC_O_SSDC0 - ADC_O_SSMUX0)
  56:/home/cuil/workspace/arm/lm3s811/TI_Stellaris/driverlib/adc.c **** 
  57:/home/cuil/workspace/arm/lm3s811/TI_Stellaris/driverlib/adc.c **** //*****************************************************************************
  58:/home/cuil/workspace/arm/lm3s811/TI_Stellaris/driverlib/adc.c **** //
  59:/home/cuil/workspace/arm/lm3s811/TI_Stellaris/driverlib/adc.c **** // The currently configured software oversampling factor for each of the ADC
  60:/home/cuil/workspace/arm/lm3s811/TI_Stellaris/driverlib/adc.c **** // sequencers.
  61:/home/cuil/workspace/arm/lm3s811/TI_Stellaris/driverlib/adc.c **** //
  62:/home/cuil/workspace/arm/lm3s811/TI_Stellaris/driverlib/adc.c **** //*****************************************************************************
  63:/home/cuil/workspace/arm/lm3s811/TI_Stellaris/driverlib/adc.c **** static unsigned char g_pucOversampleFactor[3];
  64:/home/cuil/workspace/arm/lm3s811/TI_Stellaris/driverlib/adc.c **** 
  65:/home/cuil/workspace/arm/lm3s811/TI_Stellaris/driverlib/adc.c **** //*****************************************************************************
  66:/home/cuil/workspace/arm/lm3s811/TI_Stellaris/driverlib/adc.c **** //
  67:/home/cuil/workspace/arm/lm3s811/TI_Stellaris/driverlib/adc.c **** //! Registers an interrupt handler for an ADC interrupt.
  68:/home/cuil/workspace/arm/lm3s811/TI_Stellaris/driverlib/adc.c **** //!
  69:/home/cuil/workspace/arm/lm3s811/TI_Stellaris/driverlib/adc.c **** //! \param ulBase is the base address of the ADC module.
  70:/home/cuil/workspace/arm/lm3s811/TI_Stellaris/driverlib/adc.c **** //! \param ulSequenceNum is the sample sequence number.
  71:/home/cuil/workspace/arm/lm3s811/TI_Stellaris/driverlib/adc.c **** //! \param pfnHandler is a pointer to the function to be called when the
  72:/home/cuil/workspace/arm/lm3s811/TI_Stellaris/driverlib/adc.c **** //! ADC sample sequence interrupt occurs.
  73:/home/cuil/workspace/arm/lm3s811/TI_Stellaris/driverlib/adc.c **** //!
  74:/home/cuil/workspace/arm/lm3s811/TI_Stellaris/driverlib/adc.c **** //! This function sets the handler to be called when a sample sequence
  75:/home/cuil/workspace/arm/lm3s811/TI_Stellaris/driverlib/adc.c **** //! interrupt occurs.  This function enables the global interrupt in the
  76:/home/cuil/workspace/arm/lm3s811/TI_Stellaris/driverlib/adc.c **** //! interrupt controller; the sequence interrupt must be enabled with
  77:/home/cuil/workspace/arm/lm3s811/TI_Stellaris/driverlib/adc.c **** //! ADCIntEnable().  It is the interrupt handler's responsibility to clear the
  78:/home/cuil/workspace/arm/lm3s811/TI_Stellaris/driverlib/adc.c **** //! interrupt source via ADCIntClear().
  79:/home/cuil/workspace/arm/lm3s811/TI_Stellaris/driverlib/adc.c **** //!
  80:/home/cuil/workspace/arm/lm3s811/TI_Stellaris/driverlib/adc.c **** //! \sa IntRegister() for important information about registering interrupt
  81:/home/cuil/workspace/arm/lm3s811/TI_Stellaris/driverlib/adc.c **** //! handlers.
  82:/home/cuil/workspace/arm/lm3s811/TI_Stellaris/driverlib/adc.c **** //!
  83:/home/cuil/workspace/arm/lm3s811/TI_Stellaris/driverlib/adc.c **** //! \return None.
  84:/home/cuil/workspace/arm/lm3s811/TI_Stellaris/driverlib/adc.c **** //
  85:/home/cuil/workspace/arm/lm3s811/TI_Stellaris/driverlib/adc.c **** //*****************************************************************************
  86:/home/cuil/workspace/arm/lm3s811/TI_Stellaris/driverlib/adc.c **** void
  87:/home/cuil/workspace/arm/lm3s811/TI_Stellaris/driverlib/adc.c **** ADCIntRegister(unsigned long ulBase, unsigned long ulSequenceNum,
  88:/home/cuil/workspace/arm/lm3s811/TI_Stellaris/driverlib/adc.c ****                void (*pfnHandler)(void))
  89:/home/cuil/workspace/arm/lm3s811/TI_Stellaris/driverlib/adc.c **** {
 10002              		.loc 1 89 0
 10003              		.cfi_startproc
 10004              		@ args = 0, pretend = 0, frame = 24
 10005              		@ frame_needed = 1, uses_anonymous_args = 0
 10006 0000 80B5     		push	{r7, lr}
 10007              	.LCFI0:
 10008              		.cfi_def_cfa_offset 8
 10009 0002 86B0     		sub	sp, sp, #24
 10010              	.LCFI1:
 10011              		.cfi_def_cfa_offset 32
 10012 0004 00AF     		add	r7, sp, #0
 10013              		.cfi_offset 14, -4
 10014              		.cfi_offset 7, -8
 10015              	.LCFI2:
 10016              		.cfi_def_cfa_register 7
 10017 0006 F860     		str	r0, [r7, #12]
 10018 0008 B960     		str	r1, [r7, #8]
 10019 000a 7A60     		str	r2, [r7, #4]
  90:/home/cuil/workspace/arm/lm3s811/TI_Stellaris/driverlib/adc.c ****     unsigned long ulInt;
  91:/home/cuil/workspace/arm/lm3s811/TI_Stellaris/driverlib/adc.c **** 
  92:/home/cuil/workspace/arm/lm3s811/TI_Stellaris/driverlib/adc.c ****     //
  93:/home/cuil/workspace/arm/lm3s811/TI_Stellaris/driverlib/adc.c ****     // Check the arguments.
  94:/home/cuil/workspace/arm/lm3s811/TI_Stellaris/driverlib/adc.c ****     //
  95:/home/cuil/workspace/arm/lm3s811/TI_Stellaris/driverlib/adc.c ****     ASSERT((ulBase == ADC0_BASE) || (ulBase == ADC1_BASE));
  96:/home/cuil/workspace/arm/lm3s811/TI_Stellaris/driverlib/adc.c ****     ASSERT(ulSequenceNum < 4);
  97:/home/cuil/workspace/arm/lm3s811/TI_Stellaris/driverlib/adc.c **** 
  98:/home/cuil/workspace/arm/lm3s811/TI_Stellaris/driverlib/adc.c ****     //
  99:/home/cuil/workspace/arm/lm3s811/TI_Stellaris/driverlib/adc.c ****     // Determine the interrupt to register based on the sequence number.
 100:/home/cuil/workspace/arm/lm3s811/TI_Stellaris/driverlib/adc.c ****     //
 101:/home/cuil/workspace/arm/lm3s811/TI_Stellaris/driverlib/adc.c ****     ulInt = ((ulBase == ADC0_BASE) ? (INT_ADC0SS0 + ulSequenceNum) :
 10020              		.loc 1 101 0
 10021 000c FA68     		ldr	r2, [r7, #12]
 10022 000e 0B4B     		ldr	r3, .L4
 10023 0010 9A42     		cmp	r2, r3
 10024 0012 03D1     		bne	.L2
 10025              		.loc 1 101 0 is_stmt 0 discriminator 1
 10026 0014 BB68     		ldr	r3, [r7, #8]
 10027 0016 03F11E03 		add	r3, r3, #30
 10028 001a 02E0     		b	.L3
 10029              	.L2:
 10030              		.loc 1 101 0 discriminator 2
 10031 001c BB68     		ldr	r3, [r7, #8]
 10032 001e 03F14003 		add	r3, r3, #64
 10033              	.L3:
 10034              		.loc 1 101 0 discriminator 3
 10035 0022 7B61     		str	r3, [r7, #20]
 102:/home/cuil/workspace/arm/lm3s811/TI_Stellaris/driverlib/adc.c ****              (INT_ADC1SS0 + ulSequenceNum));
 103:/home/cuil/workspace/arm/lm3s811/TI_Stellaris/driverlib/adc.c **** 
 104:/home/cuil/workspace/arm/lm3s811/TI_Stellaris/driverlib/adc.c ****     //
 105:/home/cuil/workspace/arm/lm3s811/TI_Stellaris/driverlib/adc.c ****     // Register the interrupt handler.
 106:/home/cuil/workspace/arm/lm3s811/TI_Stellaris/driverlib/adc.c ****     //
 107:/home/cuil/workspace/arm/lm3s811/TI_Stellaris/driverlib/adc.c ****     IntRegister(ulInt, pfnHandler);
 10036              		.loc 1 107 0 is_stmt 1 discriminator 3
 10037 0024 7869     		ldr	r0, [r7, #20]
 10038 0026 7968     		ldr	r1, [r7, #4]
 10039 0028 FFF7FEFF 		bl	IntRegister
 108:/home/cuil/workspace/arm/lm3s811/TI_Stellaris/driverlib/adc.c **** 
 109:/home/cuil/workspace/arm/lm3s811/TI_Stellaris/driverlib/adc.c ****     //
 110:/home/cuil/workspace/arm/lm3s811/TI_Stellaris/driverlib/adc.c ****     // Enable the timer interrupt.
 111:/home/cuil/workspace/arm/lm3s811/TI_Stellaris/driverlib/adc.c ****     //
 112:/home/cuil/workspace/arm/lm3s811/TI_Stellaris/driverlib/adc.c ****     IntEnable(ulInt);
 10040              		.loc 1 112 0 discriminator 3
 10041 002c 7869     		ldr	r0, [r7, #20]
 10042 002e FFF7FEFF 		bl	IntEnable
 113:/home/cuil/workspace/arm/lm3s811/TI_Stellaris/driverlib/adc.c **** }
 10043              		.loc 1 113 0 discriminator 3
 10044 0032 07F11807 		add	r7, r7, #24
 10045 0036 BD46     		mov	sp, r7
 10046 0038 80BD     		pop	{r7, pc}
 10047              	.L5:
 10048 003a 00BF     		.align	2
 10049              	.L4:
 10050 003c 00800340 		.word	1073971200
 10051              		.cfi_endproc
 10052              	.LFE0:
 10054              		.section	.text.ADCIntUnregister,"ax",%progbits
 10055              		.align	2
 10056              		.global	ADCIntUnregister
 10057              		.thumb
 10058              		.thumb_func
 10060              	ADCIntUnregister:
 10061              	.LFB1:
 114:/home/cuil/workspace/arm/lm3s811/TI_Stellaris/driverlib/adc.c **** 
 115:/home/cuil/workspace/arm/lm3s811/TI_Stellaris/driverlib/adc.c **** //*****************************************************************************
 116:/home/cuil/workspace/arm/lm3s811/TI_Stellaris/driverlib/adc.c **** //
 117:/home/cuil/workspace/arm/lm3s811/TI_Stellaris/driverlib/adc.c **** //! Unregisters the interrupt handler for an ADC interrupt.
 118:/home/cuil/workspace/arm/lm3s811/TI_Stellaris/driverlib/adc.c **** //!
 119:/home/cuil/workspace/arm/lm3s811/TI_Stellaris/driverlib/adc.c **** //! \param ulBase is the base address of the ADC module.
 120:/home/cuil/workspace/arm/lm3s811/TI_Stellaris/driverlib/adc.c **** //! \param ulSequenceNum is the sample sequence number.
 121:/home/cuil/workspace/arm/lm3s811/TI_Stellaris/driverlib/adc.c **** //!
 122:/home/cuil/workspace/arm/lm3s811/TI_Stellaris/driverlib/adc.c **** //! This function unregisters the interrupt handler.  This function disables
 123:/home/cuil/workspace/arm/lm3s811/TI_Stellaris/driverlib/adc.c **** //! the global interrupt in the interrupt controller; the sequence interrupt
 124:/home/cuil/workspace/arm/lm3s811/TI_Stellaris/driverlib/adc.c **** //! must be disabled via ADCIntDisable().
 125:/home/cuil/workspace/arm/lm3s811/TI_Stellaris/driverlib/adc.c **** //!
 126:/home/cuil/workspace/arm/lm3s811/TI_Stellaris/driverlib/adc.c **** //! \sa IntRegister() for important information about registering interrupt
 127:/home/cuil/workspace/arm/lm3s811/TI_Stellaris/driverlib/adc.c **** //! handlers.
 128:/home/cuil/workspace/arm/lm3s811/TI_Stellaris/driverlib/adc.c **** //!
 129:/home/cuil/workspace/arm/lm3s811/TI_Stellaris/driverlib/adc.c **** //! \return None.
 130:/home/cuil/workspace/arm/lm3s811/TI_Stellaris/driverlib/adc.c **** //
 131:/home/cuil/workspace/arm/lm3s811/TI_Stellaris/driverlib/adc.c **** //*****************************************************************************
 132:/home/cuil/workspace/arm/lm3s811/TI_Stellaris/driverlib/adc.c **** void
 133:/home/cuil/workspace/arm/lm3s811/TI_Stellaris/driverlib/adc.c **** ADCIntUnregister(unsigned long ulBase, unsigned long ulSequenceNum)
 134:/home/cuil/workspace/arm/lm3s811/TI_Stellaris/driverlib/adc.c **** {
 10062              		.loc 1 134 0
 10063              		.cfi_startproc
 10064              		@ args = 0, pretend = 0, frame = 16
 10065              		@ frame_needed = 1, uses_anonymous_args = 0
 10066 0000 80B5     		push	{r7, lr}
 10067              	.LCFI3:
 10068              		.cfi_def_cfa_offset 8
 10069 0002 84B0     		sub	sp, sp, #16
 10070              	.LCFI4:
 10071              		.cfi_def_cfa_offset 24
 10072 0004 00AF     		add	r7, sp, #0
 10073              		.cfi_offset 14, -4
 10074              		.cfi_offset 7, -8
 10075              	.LCFI5:
 10076              		.cfi_def_cfa_register 7
 10077 0006 7860     		str	r0, [r7, #4]
 10078 0008 3960     		str	r1, [r7, #0]
 135:/home/cuil/workspace/arm/lm3s811/TI_Stellaris/driverlib/adc.c ****     unsigned long ulInt;
 136:/home/cuil/workspace/arm/lm3s811/TI_Stellaris/driverlib/adc.c **** 
 137:/home/cuil/workspace/arm/lm3s811/TI_Stellaris/driverlib/adc.c ****     //
 138:/home/cuil/workspace/arm/lm3s811/TI_Stellaris/driverlib/adc.c ****     // Check the arguments.
 139:/home/cuil/workspace/arm/lm3s811/TI_Stellaris/driverlib/adc.c ****     //
 140:/home/cuil/workspace/arm/lm3s811/TI_Stellaris/driverlib/adc.c ****     ASSERT((ulBase == ADC0_BASE) || (ulBase == ADC1_BASE));
 141:/home/cuil/workspace/arm/lm3s811/TI_Stellaris/driverlib/adc.c ****     ASSERT(ulSequenceNum < 4);
 142:/home/cuil/workspace/arm/lm3s811/TI_Stellaris/driverlib/adc.c **** 
 143:/home/cuil/workspace/arm/lm3s811/TI_Stellaris/driverlib/adc.c ****     //
 144:/home/cuil/workspace/arm/lm3s811/TI_Stellaris/driverlib/adc.c ****     // Determine the interrupt to unregister based on the sequence number.
 145:/home/cuil/workspace/arm/lm3s811/TI_Stellaris/driverlib/adc.c ****     //
 146:/home/cuil/workspace/arm/lm3s811/TI_Stellaris/driverlib/adc.c ****     ulInt = ((ulBase == ADC0_BASE) ? (INT_ADC0SS0 + ulSequenceNum) :
 10079              		.loc 1 146 0
 10080 000a 7A68     		ldr	r2, [r7, #4]
 10081 000c 0A4B     		ldr	r3, .L9
 10082 000e 9A42     		cmp	r2, r3
 10083 0010 03D1     		bne	.L7
 10084              		.loc 1 146 0 is_stmt 0 discriminator 1
 10085 0012 3B68     		ldr	r3, [r7, #0]
 10086 0014 03F11E03 		add	r3, r3, #30
 10087 0018 02E0     		b	.L8
 10088              	.L7:
 10089              		.loc 1 146 0 discriminator 2
 10090 001a 3B68     		ldr	r3, [r7, #0]
 10091 001c 03F14003 		add	r3, r3, #64
 10092              	.L8:
 10093              		.loc 1 146 0 discriminator 3
 10094 0020 FB60     		str	r3, [r7, #12]
 147:/home/cuil/workspace/arm/lm3s811/TI_Stellaris/driverlib/adc.c ****              (INT_ADC1SS0 + ulSequenceNum));
 148:/home/cuil/workspace/arm/lm3s811/TI_Stellaris/driverlib/adc.c **** 
 149:/home/cuil/workspace/arm/lm3s811/TI_Stellaris/driverlib/adc.c ****     //
 150:/home/cuil/workspace/arm/lm3s811/TI_Stellaris/driverlib/adc.c ****     // Disable the interrupt.
 151:/home/cuil/workspace/arm/lm3s811/TI_Stellaris/driverlib/adc.c ****     //
 152:/home/cuil/workspace/arm/lm3s811/TI_Stellaris/driverlib/adc.c ****     IntDisable(ulInt);
 10095              		.loc 1 152 0 is_stmt 1 discriminator 3
 10096 0022 F868     		ldr	r0, [r7, #12]
 10097 0024 FFF7FEFF 		bl	IntDisable
 153:/home/cuil/workspace/arm/lm3s811/TI_Stellaris/driverlib/adc.c **** 
 154:/home/cuil/workspace/arm/lm3s811/TI_Stellaris/driverlib/adc.c ****     //
 155:/home/cuil/workspace/arm/lm3s811/TI_Stellaris/driverlib/adc.c ****     // Unregister the interrupt handler.
 156:/home/cuil/workspace/arm/lm3s811/TI_Stellaris/driverlib/adc.c ****     //
 157:/home/cuil/workspace/arm/lm3s811/TI_Stellaris/driverlib/adc.c ****     IntUnregister(ulInt);
 10098              		.loc 1 157 0 discriminator 3
 10099 0028 F868     		ldr	r0, [r7, #12]
 10100 002a FFF7FEFF 		bl	IntUnregister
 158:/home/cuil/workspace/arm/lm3s811/TI_Stellaris/driverlib/adc.c **** }
 10101              		.loc 1 158 0 discriminator 3
 10102 002e 07F11007 		add	r7, r7, #16
 10103 0032 BD46     		mov	sp, r7
 10104 0034 80BD     		pop	{r7, pc}
 10105              	.L10:
 10106 0036 00BF     		.align	2
 10107              	.L9:
 10108 0038 00800340 		.word	1073971200
 10109              		.cfi_endproc
 10110              	.LFE1:
 10112              		.section	.text.ADCIntDisable,"ax",%progbits
 10113              		.align	2
 10114              		.global	ADCIntDisable
 10115              		.thumb
 10116              		.thumb_func
 10118              	ADCIntDisable:
 10119              	.LFB2:
 159:/home/cuil/workspace/arm/lm3s811/TI_Stellaris/driverlib/adc.c **** 
 160:/home/cuil/workspace/arm/lm3s811/TI_Stellaris/driverlib/adc.c **** //*****************************************************************************
 161:/home/cuil/workspace/arm/lm3s811/TI_Stellaris/driverlib/adc.c **** //
 162:/home/cuil/workspace/arm/lm3s811/TI_Stellaris/driverlib/adc.c **** //! Disables a sample sequence interrupt.
 163:/home/cuil/workspace/arm/lm3s811/TI_Stellaris/driverlib/adc.c **** //!
 164:/home/cuil/workspace/arm/lm3s811/TI_Stellaris/driverlib/adc.c **** //! \param ulBase is the base address of the ADC module.
 165:/home/cuil/workspace/arm/lm3s811/TI_Stellaris/driverlib/adc.c **** //! \param ulSequenceNum is the sample sequence number.
 166:/home/cuil/workspace/arm/lm3s811/TI_Stellaris/driverlib/adc.c **** //!
 167:/home/cuil/workspace/arm/lm3s811/TI_Stellaris/driverlib/adc.c **** //! This function disables the requested sample sequence interrupt.
 168:/home/cuil/workspace/arm/lm3s811/TI_Stellaris/driverlib/adc.c **** //!
 169:/home/cuil/workspace/arm/lm3s811/TI_Stellaris/driverlib/adc.c **** //! \return None.
 170:/home/cuil/workspace/arm/lm3s811/TI_Stellaris/driverlib/adc.c **** //
 171:/home/cuil/workspace/arm/lm3s811/TI_Stellaris/driverlib/adc.c **** //*****************************************************************************
 172:/home/cuil/workspace/arm/lm3s811/TI_Stellaris/driverlib/adc.c **** void
 173:/home/cuil/workspace/arm/lm3s811/TI_Stellaris/driverlib/adc.c **** ADCIntDisable(unsigned long ulBase, unsigned long ulSequenceNum)
 174:/home/cuil/workspace/arm/lm3s811/TI_Stellaris/driverlib/adc.c **** {
 10120              		.loc 1 174 0
 10121              		.cfi_startproc
 10122              		@ args = 0, pretend = 0, frame = 8
 10123              		@ frame_needed = 1, uses_anonymous_args = 0
 10124              		@ link register save eliminated.
 10125 0000 80B4     		push	{r7}
 10126              	.LCFI6:
 10127              		.cfi_def_cfa_offset 4
 10128 0002 83B0     		sub	sp, sp, #12
 10129              	.LCFI7:
 10130              		.cfi_def_cfa_offset 16
 10131 0004 00AF     		add	r7, sp, #0
 10132              		.cfi_offset 7, -4
 10133              	.LCFI8:
 10134              		.cfi_def_cfa_register 7
 10135 0006 7860     		str	r0, [r7, #4]
 10136 0008 3960     		str	r1, [r7, #0]
 175:/home/cuil/workspace/arm/lm3s811/TI_Stellaris/driverlib/adc.c ****     //
 176:/home/cuil/workspace/arm/lm3s811/TI_Stellaris/driverlib/adc.c ****     // Check the arguments.
 177:/home/cuil/workspace/arm/lm3s811/TI_Stellaris/driverlib/adc.c ****     //
 178:/home/cuil/workspace/arm/lm3s811/TI_Stellaris/driverlib/adc.c ****     ASSERT((ulBase == ADC0_BASE) || (ulBase == ADC1_BASE));
 179:/home/cuil/workspace/arm/lm3s811/TI_Stellaris/driverlib/adc.c ****     ASSERT(ulSequenceNum < 4);
 180:/home/cuil/workspace/arm/lm3s811/TI_Stellaris/driverlib/adc.c **** 
 181:/home/cuil/workspace/arm/lm3s811/TI_Stellaris/driverlib/adc.c ****     //
 182:/home/cuil/workspace/arm/lm3s811/TI_Stellaris/driverlib/adc.c ****     // Disable this sample sequence interrupt.
 183:/home/cuil/workspace/arm/lm3s811/TI_Stellaris/driverlib/adc.c ****     //
 184:/home/cuil/workspace/arm/lm3s811/TI_Stellaris/driverlib/adc.c ****     HWREG(ulBase + ADC_O_IM) &= ~(1 << ulSequenceNum);
 10137              		.loc 1 184 0
 10138 000a 7B68     		ldr	r3, [r7, #4]
 10139 000c 03F10803 		add	r3, r3, #8
 10140 0010 7A68     		ldr	r2, [r7, #4]
 10141 0012 02F10802 		add	r2, r2, #8
 10142 0016 1168     		ldr	r1, [r2, #0]
 10143 0018 3A68     		ldr	r2, [r7, #0]
 10144 001a 4FF00100 		mov	r0, #1
 10145 001e 00FA02F2 		lsl	r2, r0, r2
 10146 0022 6FEA0202 		mvn	r2, r2
 10147 0026 01EA0202 		and	r2, r1, r2
 10148 002a 1A60     		str	r2, [r3, #0]
 185:/home/cuil/workspace/arm/lm3s811/TI_Stellaris/driverlib/adc.c **** }
 10149              		.loc 1 185 0
 10150 002c 07F10C07 		add	r7, r7, #12
 10151 0030 BD46     		mov	sp, r7
 10152 0032 80BC     		pop	{r7}
 10153 0034 7047     		bx	lr
 10154              		.cfi_endproc
 10155              	.LFE2:
 10157 0036 00BF     		.section	.text.ADCIntEnable,"ax",%progbits
 10158              		.align	2
 10159              		.global	ADCIntEnable
 10160              		.thumb
 10161              		.thumb_func
 10163              	ADCIntEnable:
 10164              	.LFB3:
 186:/home/cuil/workspace/arm/lm3s811/TI_Stellaris/driverlib/adc.c **** 
 187:/home/cuil/workspace/arm/lm3s811/TI_Stellaris/driverlib/adc.c **** //*****************************************************************************
 188:/home/cuil/workspace/arm/lm3s811/TI_Stellaris/driverlib/adc.c **** //
 189:/home/cuil/workspace/arm/lm3s811/TI_Stellaris/driverlib/adc.c **** //! Enables a sample sequence interrupt.
 190:/home/cuil/workspace/arm/lm3s811/TI_Stellaris/driverlib/adc.c **** //!
 191:/home/cuil/workspace/arm/lm3s811/TI_Stellaris/driverlib/adc.c **** //! \param ulBase is the base address of the ADC module.
 192:/home/cuil/workspace/arm/lm3s811/TI_Stellaris/driverlib/adc.c **** //! \param ulSequenceNum is the sample sequence number.
 193:/home/cuil/workspace/arm/lm3s811/TI_Stellaris/driverlib/adc.c **** //!
 194:/home/cuil/workspace/arm/lm3s811/TI_Stellaris/driverlib/adc.c **** //! This function enables the requested sample sequence interrupt.  Any
 195:/home/cuil/workspace/arm/lm3s811/TI_Stellaris/driverlib/adc.c **** //! outstanding interrupts are cleared before enabling the sample sequence
 196:/home/cuil/workspace/arm/lm3s811/TI_Stellaris/driverlib/adc.c **** //! interrupt.
 197:/home/cuil/workspace/arm/lm3s811/TI_Stellaris/driverlib/adc.c **** //!
 198:/home/cuil/workspace/arm/lm3s811/TI_Stellaris/driverlib/adc.c **** //! \return None.
 199:/home/cuil/workspace/arm/lm3s811/TI_Stellaris/driverlib/adc.c **** //
 200:/home/cuil/workspace/arm/lm3s811/TI_Stellaris/driverlib/adc.c **** //*****************************************************************************
 201:/home/cuil/workspace/arm/lm3s811/TI_Stellaris/driverlib/adc.c **** void
 202:/home/cuil/workspace/arm/lm3s811/TI_Stellaris/driverlib/adc.c **** ADCIntEnable(unsigned long ulBase, unsigned long ulSequenceNum)
 203:/home/cuil/workspace/arm/lm3s811/TI_Stellaris/driverlib/adc.c **** {
 10165              		.loc 1 203 0
 10166              		.cfi_startproc
 10167              		@ args = 0, pretend = 0, frame = 8
 10168              		@ frame_needed = 1, uses_anonymous_args = 0
 10169              		@ link register save eliminated.
 10170 0000 80B4     		push	{r7}
 10171              	.LCFI9:
 10172              		.cfi_def_cfa_offset 4
 10173 0002 83B0     		sub	sp, sp, #12
 10174              	.LCFI10:
 10175              		.cfi_def_cfa_offset 16
 10176 0004 00AF     		add	r7, sp, #0
 10177              		.cfi_offset 7, -4
 10178              	.LCFI11:
 10179              		.cfi_def_cfa_register 7
 10180 0006 7860     		str	r0, [r7, #4]
 10181 0008 3960     		str	r1, [r7, #0]
 204:/home/cuil/workspace/arm/lm3s811/TI_Stellaris/driverlib/adc.c ****     //
 205:/home/cuil/workspace/arm/lm3s811/TI_Stellaris/driverlib/adc.c ****     // Check the arguments.
 206:/home/cuil/workspace/arm/lm3s811/TI_Stellaris/driverlib/adc.c ****     //
 207:/home/cuil/workspace/arm/lm3s811/TI_Stellaris/driverlib/adc.c ****     ASSERT((ulBase == ADC0_BASE) || (ulBase == ADC1_BASE));
 208:/home/cuil/workspace/arm/lm3s811/TI_Stellaris/driverlib/adc.c ****     ASSERT(ulSequenceNum < 4);
 209:/home/cuil/workspace/arm/lm3s811/TI_Stellaris/driverlib/adc.c **** 
 210:/home/cuil/workspace/arm/lm3s811/TI_Stellaris/driverlib/adc.c ****     //
 211:/home/cuil/workspace/arm/lm3s811/TI_Stellaris/driverlib/adc.c ****     // Clear any outstanding interrupts on this sample sequence.
 212:/home/cuil/workspace/arm/lm3s811/TI_Stellaris/driverlib/adc.c ****     //
 213:/home/cuil/workspace/arm/lm3s811/TI_Stellaris/driverlib/adc.c ****     HWREG(ulBase + ADC_O_ISC) = 1 << ulSequenceNum;
 10182              		.loc 1 213 0
 10183 000a 7B68     		ldr	r3, [r7, #4]
 10184 000c 03F10C03 		add	r3, r3, #12
 10185 0010 3A68     		ldr	r2, [r7, #0]
 10186 0012 4FF00101 		mov	r1, #1
 10187 0016 01FA02F2 		lsl	r2, r1, r2
 10188 001a 1A60     		str	r2, [r3, #0]
 214:/home/cuil/workspace/arm/lm3s811/TI_Stellaris/driverlib/adc.c **** 
 215:/home/cuil/workspace/arm/lm3s811/TI_Stellaris/driverlib/adc.c ****     //
 216:/home/cuil/workspace/arm/lm3s811/TI_Stellaris/driverlib/adc.c ****     // Enable this sample sequence interrupt.
 217:/home/cuil/workspace/arm/lm3s811/TI_Stellaris/driverlib/adc.c ****     //
 218:/home/cuil/workspace/arm/lm3s811/TI_Stellaris/driverlib/adc.c ****     HWREG(ulBase + ADC_O_IM) |= 1 << ulSequenceNum;
 10189              		.loc 1 218 0
 10190 001c 7B68     		ldr	r3, [r7, #4]
 10191 001e 03F10803 		add	r3, r3, #8
 10192 0022 7A68     		ldr	r2, [r7, #4]
 10193 0024 02F10802 		add	r2, r2, #8
 10194 0028 1168     		ldr	r1, [r2, #0]
 10195 002a 3A68     		ldr	r2, [r7, #0]
 10196 002c 4FF00100 		mov	r0, #1
 10197 0030 00FA02F2 		lsl	r2, r0, r2
 10198 0034 41EA0202 		orr	r2, r1, r2
 10199 0038 1A60     		str	r2, [r3, #0]
 219:/home/cuil/workspace/arm/lm3s811/TI_Stellaris/driverlib/adc.c **** }
 10200              		.loc 1 219 0
 10201 003a 07F10C07 		add	r7, r7, #12
 10202 003e BD46     		mov	sp, r7
 10203 0040 80BC     		pop	{r7}
 10204 0042 7047     		bx	lr
 10205              		.cfi_endproc
 10206              	.LFE3:
 10208              		.section	.text.ADCIntStatus,"ax",%progbits
 10209              		.align	2
 10210              		.global	ADCIntStatus
 10211              		.thumb
 10212              		.thumb_func
 10214              	ADCIntStatus:
 10215              	.LFB4:
 220:/home/cuil/workspace/arm/lm3s811/TI_Stellaris/driverlib/adc.c **** 
 221:/home/cuil/workspace/arm/lm3s811/TI_Stellaris/driverlib/adc.c **** //*****************************************************************************
 222:/home/cuil/workspace/arm/lm3s811/TI_Stellaris/driverlib/adc.c **** //
 223:/home/cuil/workspace/arm/lm3s811/TI_Stellaris/driverlib/adc.c **** //! Gets the current interrupt status.
 224:/home/cuil/workspace/arm/lm3s811/TI_Stellaris/driverlib/adc.c **** //!
 225:/home/cuil/workspace/arm/lm3s811/TI_Stellaris/driverlib/adc.c **** //! \param ulBase is the base address of the ADC module.
 226:/home/cuil/workspace/arm/lm3s811/TI_Stellaris/driverlib/adc.c **** //! \param ulSequenceNum is the sample sequence number.
 227:/home/cuil/workspace/arm/lm3s811/TI_Stellaris/driverlib/adc.c **** //! \param bMasked is false if the raw interrupt status is required and true if
 228:/home/cuil/workspace/arm/lm3s811/TI_Stellaris/driverlib/adc.c **** //! the masked interrupt status is required.
 229:/home/cuil/workspace/arm/lm3s811/TI_Stellaris/driverlib/adc.c **** //!
 230:/home/cuil/workspace/arm/lm3s811/TI_Stellaris/driverlib/adc.c **** //! This function returns the interrupt status for the specified sample
 231:/home/cuil/workspace/arm/lm3s811/TI_Stellaris/driverlib/adc.c **** //! sequence. Either the raw interrupt status or the status of interrupts that
 232:/home/cuil/workspace/arm/lm3s811/TI_Stellaris/driverlib/adc.c **** //! are allowed to reflect to the processor can be returned.
 233:/home/cuil/workspace/arm/lm3s811/TI_Stellaris/driverlib/adc.c **** //!
 234:/home/cuil/workspace/arm/lm3s811/TI_Stellaris/driverlib/adc.c **** //! \return The current raw or masked interrupt status.
 235:/home/cuil/workspace/arm/lm3s811/TI_Stellaris/driverlib/adc.c **** //
 236:/home/cuil/workspace/arm/lm3s811/TI_Stellaris/driverlib/adc.c **** //*****************************************************************************
 237:/home/cuil/workspace/arm/lm3s811/TI_Stellaris/driverlib/adc.c **** unsigned long
 238:/home/cuil/workspace/arm/lm3s811/TI_Stellaris/driverlib/adc.c **** ADCIntStatus(unsigned long ulBase, unsigned long ulSequenceNum,
 239:/home/cuil/workspace/arm/lm3s811/TI_Stellaris/driverlib/adc.c ****              tBoolean bMasked)
 240:/home/cuil/workspace/arm/lm3s811/TI_Stellaris/driverlib/adc.c **** {
 10216              		.loc 1 240 0
 10217              		.cfi_startproc
 10218              		@ args = 0, pretend = 0, frame = 24
 10219              		@ frame_needed = 1, uses_anonymous_args = 0
 10220              		@ link register save eliminated.
 10221 0000 80B4     		push	{r7}
 10222              	.LCFI12:
 10223              		.cfi_def_cfa_offset 4
 10224 0002 87B0     		sub	sp, sp, #28
 10225              	.LCFI13:
 10226              		.cfi_def_cfa_offset 32
 10227 0004 00AF     		add	r7, sp, #0
 10228              		.cfi_offset 7, -4
 10229              	.LCFI14:
 10230              		.cfi_def_cfa_register 7
 10231 0006 F860     		str	r0, [r7, #12]
 10232 0008 B960     		str	r1, [r7, #8]
 10233 000a 1346     		mov	r3, r2
 10234 000c FB71     		strb	r3, [r7, #7]
 241:/home/cuil/workspace/arm/lm3s811/TI_Stellaris/driverlib/adc.c ****     unsigned long ulTemp;
 242:/home/cuil/workspace/arm/lm3s811/TI_Stellaris/driverlib/adc.c **** 
 243:/home/cuil/workspace/arm/lm3s811/TI_Stellaris/driverlib/adc.c ****     //
 244:/home/cuil/workspace/arm/lm3s811/TI_Stellaris/driverlib/adc.c ****     // Check the arguments.
 245:/home/cuil/workspace/arm/lm3s811/TI_Stellaris/driverlib/adc.c ****     //
 246:/home/cuil/workspace/arm/lm3s811/TI_Stellaris/driverlib/adc.c ****     ASSERT((ulBase == ADC0_BASE) || (ulBase == ADC1_BASE));
 247:/home/cuil/workspace/arm/lm3s811/TI_Stellaris/driverlib/adc.c ****     ASSERT(ulSequenceNum < 4);
 248:/home/cuil/workspace/arm/lm3s811/TI_Stellaris/driverlib/adc.c **** 
 249:/home/cuil/workspace/arm/lm3s811/TI_Stellaris/driverlib/adc.c ****     //
 250:/home/cuil/workspace/arm/lm3s811/TI_Stellaris/driverlib/adc.c ****     // Return either the interrupt status or the raw interrupt status as
 251:/home/cuil/workspace/arm/lm3s811/TI_Stellaris/driverlib/adc.c ****     // requested.
 252:/home/cuil/workspace/arm/lm3s811/TI_Stellaris/driverlib/adc.c ****     //
 253:/home/cuil/workspace/arm/lm3s811/TI_Stellaris/driverlib/adc.c ****     if(bMasked)
 10235              		.loc 1 253 0
 10236 000e FB79     		ldrb	r3, [r7, #7]	@ zero_extendqisi2
 10237 0010 002B     		cmp	r3, #0
 10238 0012 0CD0     		beq	.L14
 254:/home/cuil/workspace/arm/lm3s811/TI_Stellaris/driverlib/adc.c ****     {
 255:/home/cuil/workspace/arm/lm3s811/TI_Stellaris/driverlib/adc.c ****         ulTemp = HWREG(ulBase + ADC_O_ISC) & (0x10001 << ulSequenceNum);
 10239              		.loc 1 255 0
 10240 0014 FB68     		ldr	r3, [r7, #12]
 10241 0016 03F10C03 		add	r3, r3, #12
 10242 001a 1A68     		ldr	r2, [r3, #0]
 10243 001c BB68     		ldr	r3, [r7, #8]
 10244 001e 4FF00111 		mov	r1, #65537
 10245 0022 01FA03F3 		lsl	r3, r1, r3
 10246 0026 02EA0303 		and	r3, r2, r3
 10247 002a 7B61     		str	r3, [r7, #20]
 10248 002c 21E0     		b	.L15
 10249              	.L14:
 256:/home/cuil/workspace/arm/lm3s811/TI_Stellaris/driverlib/adc.c ****     }
 257:/home/cuil/workspace/arm/lm3s811/TI_Stellaris/driverlib/adc.c ****     else
 258:/home/cuil/workspace/arm/lm3s811/TI_Stellaris/driverlib/adc.c ****     {
 259:/home/cuil/workspace/arm/lm3s811/TI_Stellaris/driverlib/adc.c ****         ulTemp = HWREG(ulBase + ADC_O_RIS) & (0x10000 | (1 << ulSequenceNum));
 10250              		.loc 1 259 0
 10251 002e FB68     		ldr	r3, [r7, #12]
 10252 0030 03F10403 		add	r3, r3, #4
 10253 0034 1A68     		ldr	r2, [r3, #0]
 10254 0036 BB68     		ldr	r3, [r7, #8]
 10255 0038 4FF00101 		mov	r1, #1
 10256 003c 01FA03F3 		lsl	r3, r1, r3
 10257 0040 43F48033 		orr	r3, r3, #65536
 10258 0044 02EA0303 		and	r3, r2, r3
 10259 0048 7B61     		str	r3, [r7, #20]
 260:/home/cuil/workspace/arm/lm3s811/TI_Stellaris/driverlib/adc.c **** 
 261:/home/cuil/workspace/arm/lm3s811/TI_Stellaris/driverlib/adc.c ****         //
 262:/home/cuil/workspace/arm/lm3s811/TI_Stellaris/driverlib/adc.c ****         // If the digital comparator status bit is set, reflect it to the
 263:/home/cuil/workspace/arm/lm3s811/TI_Stellaris/driverlib/adc.c ****         // appropriate sequence bit.
 264:/home/cuil/workspace/arm/lm3s811/TI_Stellaris/driverlib/adc.c ****         //
 265:/home/cuil/workspace/arm/lm3s811/TI_Stellaris/driverlib/adc.c ****         if(ulTemp & 0x10000)
 10260              		.loc 1 265 0
 10261 004a 7B69     		ldr	r3, [r7, #20]
 10262 004c 03F48033 		and	r3, r3, #65536
 10263 0050 002B     		cmp	r3, #0
 10264 0052 0ED0     		beq	.L15
 266:/home/cuil/workspace/arm/lm3s811/TI_Stellaris/driverlib/adc.c ****         {
 267:/home/cuil/workspace/arm/lm3s811/TI_Stellaris/driverlib/adc.c ****             ulTemp |= 0xF0000;
 10265              		.loc 1 267 0
 10266 0054 7B69     		ldr	r3, [r7, #20]
 10267 0056 43F47023 		orr	r3, r3, #983040
 10268 005a 7B61     		str	r3, [r7, #20]
 268:/home/cuil/workspace/arm/lm3s811/TI_Stellaris/driverlib/adc.c ****             ulTemp &= ~(0x10000 << ulSequenceNum);
 10269              		.loc 1 268 0
 10270 005c BB68     		ldr	r3, [r7, #8]
 10271 005e 4FF48032 		mov	r2, #65536
 10272 0062 02FA03F3 		lsl	r3, r2, r3
 10273 0066 6FEA0303 		mvn	r3, r3
 10274 006a 7A69     		ldr	r2, [r7, #20]
 10275 006c 02EA0303 		and	r3, r2, r3
 10276 0070 7B61     		str	r3, [r7, #20]
 10277              	.L15:
 269:/home/cuil/workspace/arm/lm3s811/TI_Stellaris/driverlib/adc.c ****         }
 270:/home/cuil/workspace/arm/lm3s811/TI_Stellaris/driverlib/adc.c ****     }
 271:/home/cuil/workspace/arm/lm3s811/TI_Stellaris/driverlib/adc.c **** 
 272:/home/cuil/workspace/arm/lm3s811/TI_Stellaris/driverlib/adc.c ****     //
 273:/home/cuil/workspace/arm/lm3s811/TI_Stellaris/driverlib/adc.c ****     // Return the interrupt status
 274:/home/cuil/workspace/arm/lm3s811/TI_Stellaris/driverlib/adc.c ****     //
 275:/home/cuil/workspace/arm/lm3s811/TI_Stellaris/driverlib/adc.c ****     return(ulTemp);
 10278              		.loc 1 275 0
 10279 0072 7B69     		ldr	r3, [r7, #20]
 276:/home/cuil/workspace/arm/lm3s811/TI_Stellaris/driverlib/adc.c **** }
 10280              		.loc 1 276 0
 10281 0074 1846     		mov	r0, r3
 10282 0076 07F11C07 		add	r7, r7, #28
 10283 007a BD46     		mov	sp, r7
 10284 007c 80BC     		pop	{r7}
 10285 007e 7047     		bx	lr
 10286              		.cfi_endproc
 10287              	.LFE4:
 10289              		.section	.text.ADCIntClear,"ax",%progbits
 10290              		.align	2
 10291              		.global	ADCIntClear
 10292              		.thumb
 10293              		.thumb_func
 10295              	ADCIntClear:
 10296              	.LFB5:
 277:/home/cuil/workspace/arm/lm3s811/TI_Stellaris/driverlib/adc.c **** 
 278:/home/cuil/workspace/arm/lm3s811/TI_Stellaris/driverlib/adc.c **** //*****************************************************************************
 279:/home/cuil/workspace/arm/lm3s811/TI_Stellaris/driverlib/adc.c **** //
 280:/home/cuil/workspace/arm/lm3s811/TI_Stellaris/driverlib/adc.c **** //! Clears sample sequence interrupt source.
 281:/home/cuil/workspace/arm/lm3s811/TI_Stellaris/driverlib/adc.c **** //!
 282:/home/cuil/workspace/arm/lm3s811/TI_Stellaris/driverlib/adc.c **** //! \param ulBase is the base address of the ADC module.
 283:/home/cuil/workspace/arm/lm3s811/TI_Stellaris/driverlib/adc.c **** //! \param ulSequenceNum is the sample sequence number.
 284:/home/cuil/workspace/arm/lm3s811/TI_Stellaris/driverlib/adc.c **** //!
 285:/home/cuil/workspace/arm/lm3s811/TI_Stellaris/driverlib/adc.c **** //! The specified sample sequence interrupt is cleared, so that it no longer
 286:/home/cuil/workspace/arm/lm3s811/TI_Stellaris/driverlib/adc.c **** //! asserts.  This function must be called in the interrupt handler to keep
 287:/home/cuil/workspace/arm/lm3s811/TI_Stellaris/driverlib/adc.c **** //! the interrupt from being triggered again immediately upon exit.
 288:/home/cuil/workspace/arm/lm3s811/TI_Stellaris/driverlib/adc.c **** //!
 289:/home/cuil/workspace/arm/lm3s811/TI_Stellaris/driverlib/adc.c **** //! \note Because there is a write buffer in the Cortex-M processor, it may
 290:/home/cuil/workspace/arm/lm3s811/TI_Stellaris/driverlib/adc.c **** //! take several clock cycles before the interrupt source is actually cleared.
 291:/home/cuil/workspace/arm/lm3s811/TI_Stellaris/driverlib/adc.c **** //! Therefore, it is recommended that the interrupt source be cleared early in
 292:/home/cuil/workspace/arm/lm3s811/TI_Stellaris/driverlib/adc.c **** //! the interrupt handler (as opposed to the very last action) to avoid
 293:/home/cuil/workspace/arm/lm3s811/TI_Stellaris/driverlib/adc.c **** //! returning from the interrupt handler before the interrupt source is
 294:/home/cuil/workspace/arm/lm3s811/TI_Stellaris/driverlib/adc.c **** //! actually cleared.  Failure to do so may result in the interrupt handler
 295:/home/cuil/workspace/arm/lm3s811/TI_Stellaris/driverlib/adc.c **** //! being immediately reentered (because the interrupt controller still sees
 296:/home/cuil/workspace/arm/lm3s811/TI_Stellaris/driverlib/adc.c **** //! the interrupt source asserted).
 297:/home/cuil/workspace/arm/lm3s811/TI_Stellaris/driverlib/adc.c **** //!
 298:/home/cuil/workspace/arm/lm3s811/TI_Stellaris/driverlib/adc.c **** //! \return None.
 299:/home/cuil/workspace/arm/lm3s811/TI_Stellaris/driverlib/adc.c **** //
 300:/home/cuil/workspace/arm/lm3s811/TI_Stellaris/driverlib/adc.c **** //*****************************************************************************
 301:/home/cuil/workspace/arm/lm3s811/TI_Stellaris/driverlib/adc.c **** void
 302:/home/cuil/workspace/arm/lm3s811/TI_Stellaris/driverlib/adc.c **** ADCIntClear(unsigned long ulBase, unsigned long ulSequenceNum)
 303:/home/cuil/workspace/arm/lm3s811/TI_Stellaris/driverlib/adc.c **** {
 10297              		.loc 1 303 0
 10298              		.cfi_startproc
 10299              		@ args = 0, pretend = 0, frame = 8
 10300              		@ frame_needed = 1, uses_anonymous_args = 0
 10301              		@ link register save eliminated.
 10302 0000 80B4     		push	{r7}
 10303              	.LCFI15:
 10304              		.cfi_def_cfa_offset 4
 10305 0002 83B0     		sub	sp, sp, #12
 10306              	.LCFI16:
 10307              		.cfi_def_cfa_offset 16
 10308 0004 00AF     		add	r7, sp, #0
 10309              		.cfi_offset 7, -4
 10310              	.LCFI17:
 10311              		.cfi_def_cfa_register 7
 10312 0006 7860     		str	r0, [r7, #4]
 10313 0008 3960     		str	r1, [r7, #0]
 304:/home/cuil/workspace/arm/lm3s811/TI_Stellaris/driverlib/adc.c ****     //
 305:/home/cuil/workspace/arm/lm3s811/TI_Stellaris/driverlib/adc.c ****     // Check the arugments.
 306:/home/cuil/workspace/arm/lm3s811/TI_Stellaris/driverlib/adc.c ****     //
 307:/home/cuil/workspace/arm/lm3s811/TI_Stellaris/driverlib/adc.c ****     ASSERT((ulBase == ADC0_BASE) || (ulBase == ADC1_BASE));
 308:/home/cuil/workspace/arm/lm3s811/TI_Stellaris/driverlib/adc.c ****     ASSERT(ulSequenceNum < 4);
 309:/home/cuil/workspace/arm/lm3s811/TI_Stellaris/driverlib/adc.c **** 
 310:/home/cuil/workspace/arm/lm3s811/TI_Stellaris/driverlib/adc.c ****     //
 311:/home/cuil/workspace/arm/lm3s811/TI_Stellaris/driverlib/adc.c ****     // Clear the interrupt.
 312:/home/cuil/workspace/arm/lm3s811/TI_Stellaris/driverlib/adc.c ****     //
 313:/home/cuil/workspace/arm/lm3s811/TI_Stellaris/driverlib/adc.c ****     HWREG(ulBase + ADC_O_ISC) = 1 << ulSequenceNum;
 10314              		.loc 1 313 0
 10315 000a 7B68     		ldr	r3, [r7, #4]
 10316 000c 03F10C03 		add	r3, r3, #12
 10317 0010 3A68     		ldr	r2, [r7, #0]
 10318 0012 4FF00101 		mov	r1, #1
 10319 0016 01FA02F2 		lsl	r2, r1, r2
 10320 001a 1A60     		str	r2, [r3, #0]
 314:/home/cuil/workspace/arm/lm3s811/TI_Stellaris/driverlib/adc.c **** }
 10321              		.loc 1 314 0
 10322 001c 07F10C07 		add	r7, r7, #12
 10323 0020 BD46     		mov	sp, r7
 10324 0022 80BC     		pop	{r7}
 10325 0024 7047     		bx	lr
 10326              		.cfi_endproc
 10327              	.LFE5:
 10329 0026 00BF     		.section	.text.ADCSequenceEnable,"ax",%progbits
 10330              		.align	2
 10331              		.global	ADCSequenceEnable
 10332              		.thumb
 10333              		.thumb_func
 10335              	ADCSequenceEnable:
 10336              	.LFB6:
 315:/home/cuil/workspace/arm/lm3s811/TI_Stellaris/driverlib/adc.c **** 
 316:/home/cuil/workspace/arm/lm3s811/TI_Stellaris/driverlib/adc.c **** //*****************************************************************************
 317:/home/cuil/workspace/arm/lm3s811/TI_Stellaris/driverlib/adc.c **** //
 318:/home/cuil/workspace/arm/lm3s811/TI_Stellaris/driverlib/adc.c **** //! Enables a sample sequence.
 319:/home/cuil/workspace/arm/lm3s811/TI_Stellaris/driverlib/adc.c **** //!
 320:/home/cuil/workspace/arm/lm3s811/TI_Stellaris/driverlib/adc.c **** //! \param ulBase is the base address of the ADC module.
 321:/home/cuil/workspace/arm/lm3s811/TI_Stellaris/driverlib/adc.c **** //! \param ulSequenceNum is the sample sequence number.
 322:/home/cuil/workspace/arm/lm3s811/TI_Stellaris/driverlib/adc.c **** //!
 323:/home/cuil/workspace/arm/lm3s811/TI_Stellaris/driverlib/adc.c **** //! Allows the specified sample sequence to be captured when its trigger is
 324:/home/cuil/workspace/arm/lm3s811/TI_Stellaris/driverlib/adc.c **** //! detected.  A sample sequence must be configured before it is enabled.
 325:/home/cuil/workspace/arm/lm3s811/TI_Stellaris/driverlib/adc.c **** //!
 326:/home/cuil/workspace/arm/lm3s811/TI_Stellaris/driverlib/adc.c **** //! \return None.
 327:/home/cuil/workspace/arm/lm3s811/TI_Stellaris/driverlib/adc.c **** //
 328:/home/cuil/workspace/arm/lm3s811/TI_Stellaris/driverlib/adc.c **** //*****************************************************************************
 329:/home/cuil/workspace/arm/lm3s811/TI_Stellaris/driverlib/adc.c **** void
 330:/home/cuil/workspace/arm/lm3s811/TI_Stellaris/driverlib/adc.c **** ADCSequenceEnable(unsigned long ulBase, unsigned long ulSequenceNum)
 331:/home/cuil/workspace/arm/lm3s811/TI_Stellaris/driverlib/adc.c **** {
 10337              		.loc 1 331 0
 10338              		.cfi_startproc
 10339              		@ args = 0, pretend = 0, frame = 8
 10340              		@ frame_needed = 1, uses_anonymous_args = 0
 10341              		@ link register save eliminated.
 10342 0000 80B4     		push	{r7}
 10343              	.LCFI18:
 10344              		.cfi_def_cfa_offset 4
 10345 0002 83B0     		sub	sp, sp, #12
 10346              	.LCFI19:
 10347              		.cfi_def_cfa_offset 16
 10348 0004 00AF     		add	r7, sp, #0
 10349              		.cfi_offset 7, -4
 10350              	.LCFI20:
 10351              		.cfi_def_cfa_register 7
 10352 0006 7860     		str	r0, [r7, #4]
 10353 0008 3960     		str	r1, [r7, #0]
 332:/home/cuil/workspace/arm/lm3s811/TI_Stellaris/driverlib/adc.c ****     //
 333:/home/cuil/workspace/arm/lm3s811/TI_Stellaris/driverlib/adc.c ****     // Check the arugments.
 334:/home/cuil/workspace/arm/lm3s811/TI_Stellaris/driverlib/adc.c ****     //
 335:/home/cuil/workspace/arm/lm3s811/TI_Stellaris/driverlib/adc.c ****     ASSERT((ulBase == ADC0_BASE) || (ulBase == ADC1_BASE));
 336:/home/cuil/workspace/arm/lm3s811/TI_Stellaris/driverlib/adc.c ****     ASSERT(ulSequenceNum < 4);
 337:/home/cuil/workspace/arm/lm3s811/TI_Stellaris/driverlib/adc.c **** 
 338:/home/cuil/workspace/arm/lm3s811/TI_Stellaris/driverlib/adc.c ****     //
 339:/home/cuil/workspace/arm/lm3s811/TI_Stellaris/driverlib/adc.c ****     // Enable the specified sequence.
 340:/home/cuil/workspace/arm/lm3s811/TI_Stellaris/driverlib/adc.c ****     //
 341:/home/cuil/workspace/arm/lm3s811/TI_Stellaris/driverlib/adc.c ****     HWREG(ulBase + ADC_O_ACTSS) |= 1 << ulSequenceNum;
 10354              		.loc 1 341 0
 10355 000a 7B68     		ldr	r3, [r7, #4]
 10356 000c 7A68     		ldr	r2, [r7, #4]
 10357 000e 1168     		ldr	r1, [r2, #0]
 10358 0010 3A68     		ldr	r2, [r7, #0]
 10359 0012 4FF00100 		mov	r0, #1
 10360 0016 00FA02F2 		lsl	r2, r0, r2
 10361 001a 41EA0202 		orr	r2, r1, r2
 10362 001e 1A60     		str	r2, [r3, #0]
 342:/home/cuil/workspace/arm/lm3s811/TI_Stellaris/driverlib/adc.c **** }
 10363              		.loc 1 342 0
 10364 0020 07F10C07 		add	r7, r7, #12
 10365 0024 BD46     		mov	sp, r7
 10366 0026 80BC     		pop	{r7}
 10367 0028 7047     		bx	lr
 10368              		.cfi_endproc
 10369              	.LFE6:
 10371 002a 00BF     		.section	.text.ADCSequenceDisable,"ax",%progbits
 10372              		.align	2
 10373              		.global	ADCSequenceDisable
 10374              		.thumb
 10375              		.thumb_func
 10377              	ADCSequenceDisable:
 10378              	.LFB7:
 343:/home/cuil/workspace/arm/lm3s811/TI_Stellaris/driverlib/adc.c **** 
 344:/home/cuil/workspace/arm/lm3s811/TI_Stellaris/driverlib/adc.c **** //*****************************************************************************
 345:/home/cuil/workspace/arm/lm3s811/TI_Stellaris/driverlib/adc.c **** //
 346:/home/cuil/workspace/arm/lm3s811/TI_Stellaris/driverlib/adc.c **** //! Disables a sample sequence.
 347:/home/cuil/workspace/arm/lm3s811/TI_Stellaris/driverlib/adc.c **** //!
 348:/home/cuil/workspace/arm/lm3s811/TI_Stellaris/driverlib/adc.c **** //! \param ulBase is the base address of the ADC module.
 349:/home/cuil/workspace/arm/lm3s811/TI_Stellaris/driverlib/adc.c **** //! \param ulSequenceNum is the sample sequence number.
 350:/home/cuil/workspace/arm/lm3s811/TI_Stellaris/driverlib/adc.c **** //!
 351:/home/cuil/workspace/arm/lm3s811/TI_Stellaris/driverlib/adc.c **** //! Prevents the specified sample sequence from being captured when its trigger
 352:/home/cuil/workspace/arm/lm3s811/TI_Stellaris/driverlib/adc.c **** //! is detected.  A sample sequence should be disabled before it is configured.
 353:/home/cuil/workspace/arm/lm3s811/TI_Stellaris/driverlib/adc.c **** //!
 354:/home/cuil/workspace/arm/lm3s811/TI_Stellaris/driverlib/adc.c **** //! \return None.
 355:/home/cuil/workspace/arm/lm3s811/TI_Stellaris/driverlib/adc.c **** //
 356:/home/cuil/workspace/arm/lm3s811/TI_Stellaris/driverlib/adc.c **** //*****************************************************************************
 357:/home/cuil/workspace/arm/lm3s811/TI_Stellaris/driverlib/adc.c **** void
 358:/home/cuil/workspace/arm/lm3s811/TI_Stellaris/driverlib/adc.c **** ADCSequenceDisable(unsigned long ulBase, unsigned long ulSequenceNum)
 359:/home/cuil/workspace/arm/lm3s811/TI_Stellaris/driverlib/adc.c **** {
 10379              		.loc 1 359 0
 10380              		.cfi_startproc
 10381              		@ args = 0, pretend = 0, frame = 8
 10382              		@ frame_needed = 1, uses_anonymous_args = 0
 10383              		@ link register save eliminated.
 10384 0000 80B4     		push	{r7}
 10385              	.LCFI21:
 10386              		.cfi_def_cfa_offset 4
 10387 0002 83B0     		sub	sp, sp, #12
 10388              	.LCFI22:
 10389              		.cfi_def_cfa_offset 16
 10390 0004 00AF     		add	r7, sp, #0
 10391              		.cfi_offset 7, -4
 10392              	.LCFI23:
 10393              		.cfi_def_cfa_register 7
 10394 0006 7860     		str	r0, [r7, #4]
 10395 0008 3960     		str	r1, [r7, #0]
 360:/home/cuil/workspace/arm/lm3s811/TI_Stellaris/driverlib/adc.c ****     //
 361:/home/cuil/workspace/arm/lm3s811/TI_Stellaris/driverlib/adc.c ****     // Check the arugments.
 362:/home/cuil/workspace/arm/lm3s811/TI_Stellaris/driverlib/adc.c ****     //
 363:/home/cuil/workspace/arm/lm3s811/TI_Stellaris/driverlib/adc.c ****     ASSERT((ulBase == ADC0_BASE) || (ulBase == ADC1_BASE));
 364:/home/cuil/workspace/arm/lm3s811/TI_Stellaris/driverlib/adc.c ****     ASSERT(ulSequenceNum < 4);
 365:/home/cuil/workspace/arm/lm3s811/TI_Stellaris/driverlib/adc.c **** 
 366:/home/cuil/workspace/arm/lm3s811/TI_Stellaris/driverlib/adc.c ****     //
 367:/home/cuil/workspace/arm/lm3s811/TI_Stellaris/driverlib/adc.c ****     // Disable the specified sequences.
 368:/home/cuil/workspace/arm/lm3s811/TI_Stellaris/driverlib/adc.c ****     //
 369:/home/cuil/workspace/arm/lm3s811/TI_Stellaris/driverlib/adc.c ****     HWREG(ulBase + ADC_O_ACTSS) &= ~(1 << ulSequenceNum);
 10396              		.loc 1 369 0
 10397 000a 7B68     		ldr	r3, [r7, #4]
 10398 000c 7A68     		ldr	r2, [r7, #4]
 10399 000e 1168     		ldr	r1, [r2, #0]
 10400 0010 3A68     		ldr	r2, [r7, #0]
 10401 0012 4FF00100 		mov	r0, #1
 10402 0016 00FA02F2 		lsl	r2, r0, r2
 10403 001a 6FEA0202 		mvn	r2, r2
 10404 001e 01EA0202 		and	r2, r1, r2
 10405 0022 1A60     		str	r2, [r3, #0]
 370:/home/cuil/workspace/arm/lm3s811/TI_Stellaris/driverlib/adc.c **** }
 10406              		.loc 1 370 0
 10407 0024 07F10C07 		add	r7, r7, #12
 10408 0028 BD46     		mov	sp, r7
 10409 002a 80BC     		pop	{r7}
 10410 002c 7047     		bx	lr
 10411              		.cfi_endproc
 10412              	.LFE7:
 10414 002e 00BF     		.section	.text.ADCSequenceConfigure,"ax",%progbits
 10415              		.align	2
 10416              		.global	ADCSequenceConfigure
 10417              		.thumb
 10418              		.thumb_func
 10420              	ADCSequenceConfigure:
 10421              	.LFB8:
 371:/home/cuil/workspace/arm/lm3s811/TI_Stellaris/driverlib/adc.c **** 
 372:/home/cuil/workspace/arm/lm3s811/TI_Stellaris/driverlib/adc.c **** //*****************************************************************************
 373:/home/cuil/workspace/arm/lm3s811/TI_Stellaris/driverlib/adc.c **** //
 374:/home/cuil/workspace/arm/lm3s811/TI_Stellaris/driverlib/adc.c **** //! Configures the trigger source and priority of a sample sequence.
 375:/home/cuil/workspace/arm/lm3s811/TI_Stellaris/driverlib/adc.c **** //!
 376:/home/cuil/workspace/arm/lm3s811/TI_Stellaris/driverlib/adc.c **** //! \param ulBase is the base address of the ADC module.
 377:/home/cuil/workspace/arm/lm3s811/TI_Stellaris/driverlib/adc.c **** //! \param ulSequenceNum is the sample sequence number.
 378:/home/cuil/workspace/arm/lm3s811/TI_Stellaris/driverlib/adc.c **** //! \param ulTrigger is the trigger source that initiates the sample sequence;
 379:/home/cuil/workspace/arm/lm3s811/TI_Stellaris/driverlib/adc.c **** //! must be one of the \b ADC_TRIGGER_* values.
 380:/home/cuil/workspace/arm/lm3s811/TI_Stellaris/driverlib/adc.c **** //! \param ulPriority is the relative priority of the sample sequence with
 381:/home/cuil/workspace/arm/lm3s811/TI_Stellaris/driverlib/adc.c **** //! respect to the other sample sequences.
 382:/home/cuil/workspace/arm/lm3s811/TI_Stellaris/driverlib/adc.c **** //!
 383:/home/cuil/workspace/arm/lm3s811/TI_Stellaris/driverlib/adc.c **** //! This function configures the initiation criteria for a sample sequence.
 384:/home/cuil/workspace/arm/lm3s811/TI_Stellaris/driverlib/adc.c **** //! Valid sample sequencers range from zero to three; sequencer zero captures
 385:/home/cuil/workspace/arm/lm3s811/TI_Stellaris/driverlib/adc.c **** //! up to eight samples, sequencers one and two capture up to four samples,
 386:/home/cuil/workspace/arm/lm3s811/TI_Stellaris/driverlib/adc.c **** //! and sequencer three captures a single sample.  The trigger condition and
 387:/home/cuil/workspace/arm/lm3s811/TI_Stellaris/driverlib/adc.c **** //! priority (with respect to other sample sequencer execution) are set.
 388:/home/cuil/workspace/arm/lm3s811/TI_Stellaris/driverlib/adc.c **** //!
 389:/home/cuil/workspace/arm/lm3s811/TI_Stellaris/driverlib/adc.c **** //! The \e ulTrigger parameter can take on the following values:
 390:/home/cuil/workspace/arm/lm3s811/TI_Stellaris/driverlib/adc.c **** //!
 391:/home/cuil/workspace/arm/lm3s811/TI_Stellaris/driverlib/adc.c **** //! - \b ADC_TRIGGER_PROCESSOR - A trigger generated by the processor, via the
 392:/home/cuil/workspace/arm/lm3s811/TI_Stellaris/driverlib/adc.c **** //!                              ADCProcessorTrigger() function.
 393:/home/cuil/workspace/arm/lm3s811/TI_Stellaris/driverlib/adc.c **** //! - \b ADC_TRIGGER_COMP0 - A trigger generated by the first analog
 394:/home/cuil/workspace/arm/lm3s811/TI_Stellaris/driverlib/adc.c **** //!                          comparator; configured with ComparatorConfigure().
 395:/home/cuil/workspace/arm/lm3s811/TI_Stellaris/driverlib/adc.c **** //! - \b ADC_TRIGGER_COMP1 - A trigger generated by the second analog
 396:/home/cuil/workspace/arm/lm3s811/TI_Stellaris/driverlib/adc.c **** //!                          comparator; configured with ComparatorConfigure().
 397:/home/cuil/workspace/arm/lm3s811/TI_Stellaris/driverlib/adc.c **** //! - \b ADC_TRIGGER_COMP2 - A trigger generated by the third analog
 398:/home/cuil/workspace/arm/lm3s811/TI_Stellaris/driverlib/adc.c **** //!                          comparator; configured with ComparatorConfigure().
 399:/home/cuil/workspace/arm/lm3s811/TI_Stellaris/driverlib/adc.c **** //! - \b ADC_TRIGGER_EXTERNAL - A trigger generated by an input from the Port
 400:/home/cuil/workspace/arm/lm3s811/TI_Stellaris/driverlib/adc.c **** //!                             B4 pin. Note that some microcontrollers can
 401:/home/cuil/workspace/arm/lm3s811/TI_Stellaris/driverlib/adc.c **** //!                             select from any GPIO using the
 402:/home/cuil/workspace/arm/lm3s811/TI_Stellaris/driverlib/adc.c **** //!                             GPIOADCTriggerEnable() function.
 403:/home/cuil/workspace/arm/lm3s811/TI_Stellaris/driverlib/adc.c **** //! - \b ADC_TRIGGER_TIMER - A trigger generated by a timer; configured with
 404:/home/cuil/workspace/arm/lm3s811/TI_Stellaris/driverlib/adc.c **** //!                          TimerControlTrigger().
 405:/home/cuil/workspace/arm/lm3s811/TI_Stellaris/driverlib/adc.c **** //! - \b ADC_TRIGGER_PWM0 - A trigger generated by the first PWM generator;
 406:/home/cuil/workspace/arm/lm3s811/TI_Stellaris/driverlib/adc.c **** //!                         configured with PWMGenIntTrigEnable().
 407:/home/cuil/workspace/arm/lm3s811/TI_Stellaris/driverlib/adc.c **** //! - \b ADC_TRIGGER_PWM1 - A trigger generated by the second PWM generator;
 408:/home/cuil/workspace/arm/lm3s811/TI_Stellaris/driverlib/adc.c **** //!                         configured with PWMGenIntTrigEnable().
 409:/home/cuil/workspace/arm/lm3s811/TI_Stellaris/driverlib/adc.c **** //! - \b ADC_TRIGGER_PWM2 - A trigger generated by the third PWM generator;
 410:/home/cuil/workspace/arm/lm3s811/TI_Stellaris/driverlib/adc.c **** //!                         configured with PWMGenIntTrigEnable().
 411:/home/cuil/workspace/arm/lm3s811/TI_Stellaris/driverlib/adc.c **** //! - \b ADC_TRIGGER_PWM3 - A trigger generated by the fourth PWM generator;
 412:/home/cuil/workspace/arm/lm3s811/TI_Stellaris/driverlib/adc.c **** //!                         configured with PWMGenIntTrigEnable().
 413:/home/cuil/workspace/arm/lm3s811/TI_Stellaris/driverlib/adc.c **** //! - \b ADC_TRIGGER_ALWAYS - A trigger that is always asserted, causing the
 414:/home/cuil/workspace/arm/lm3s811/TI_Stellaris/driverlib/adc.c **** //!                           sample sequence to capture repeatedly (so long as
 415:/home/cuil/workspace/arm/lm3s811/TI_Stellaris/driverlib/adc.c **** //!                           there is not a higher priority source active).
 416:/home/cuil/workspace/arm/lm3s811/TI_Stellaris/driverlib/adc.c **** //!
 417:/home/cuil/workspace/arm/lm3s811/TI_Stellaris/driverlib/adc.c **** //! Note that not all trigger sources are available on all Stellaris family
 418:/home/cuil/workspace/arm/lm3s811/TI_Stellaris/driverlib/adc.c **** //! members; consult the data sheet for the device in question to determine the
 419:/home/cuil/workspace/arm/lm3s811/TI_Stellaris/driverlib/adc.c **** //! availability of triggers.
 420:/home/cuil/workspace/arm/lm3s811/TI_Stellaris/driverlib/adc.c **** //!
 421:/home/cuil/workspace/arm/lm3s811/TI_Stellaris/driverlib/adc.c **** //! The \e ulPriority parameter is a value between 0 and 3, where 0 represents
 422:/home/cuil/workspace/arm/lm3s811/TI_Stellaris/driverlib/adc.c **** //! the highest priority and 3 the lowest.  Note that when programming the
 423:/home/cuil/workspace/arm/lm3s811/TI_Stellaris/driverlib/adc.c **** //! priority among a set of sample sequences, each must have unique priority;
 424:/home/cuil/workspace/arm/lm3s811/TI_Stellaris/driverlib/adc.c **** //! it is up to the caller to guarantee the uniqueness of the priorities.
 425:/home/cuil/workspace/arm/lm3s811/TI_Stellaris/driverlib/adc.c **** //!
 426:/home/cuil/workspace/arm/lm3s811/TI_Stellaris/driverlib/adc.c **** //! \return None.
 427:/home/cuil/workspace/arm/lm3s811/TI_Stellaris/driverlib/adc.c **** //
 428:/home/cuil/workspace/arm/lm3s811/TI_Stellaris/driverlib/adc.c **** //*****************************************************************************
 429:/home/cuil/workspace/arm/lm3s811/TI_Stellaris/driverlib/adc.c **** void
 430:/home/cuil/workspace/arm/lm3s811/TI_Stellaris/driverlib/adc.c **** ADCSequenceConfigure(unsigned long ulBase, unsigned long ulSequenceNum,
 431:/home/cuil/workspace/arm/lm3s811/TI_Stellaris/driverlib/adc.c ****                      unsigned long ulTrigger, unsigned long ulPriority)
 432:/home/cuil/workspace/arm/lm3s811/TI_Stellaris/driverlib/adc.c **** {
 10422              		.loc 1 432 0
 10423              		.cfi_startproc
 10424              		@ args = 0, pretend = 0, frame = 16
 10425              		@ frame_needed = 1, uses_anonymous_args = 0
 10426              		@ link register save eliminated.
 10427 0000 80B4     		push	{r7}
 10428              	.LCFI24:
 10429              		.cfi_def_cfa_offset 4
 10430 0002 85B0     		sub	sp, sp, #20
 10431              	.LCFI25:
 10432              		.cfi_def_cfa_offset 24
 10433 0004 00AF     		add	r7, sp, #0
 10434              		.cfi_offset 7, -4
 10435              	.LCFI26:
 10436              		.cfi_def_cfa_register 7
 10437 0006 F860     		str	r0, [r7, #12]
 10438 0008 B960     		str	r1, [r7, #8]
 10439 000a 7A60     		str	r2, [r7, #4]
 10440 000c 3B60     		str	r3, [r7, #0]
 433:/home/cuil/workspace/arm/lm3s811/TI_Stellaris/driverlib/adc.c ****     //
 434:/home/cuil/workspace/arm/lm3s811/TI_Stellaris/driverlib/adc.c ****     // Check the arugments.
 435:/home/cuil/workspace/arm/lm3s811/TI_Stellaris/driverlib/adc.c ****     //
 436:/home/cuil/workspace/arm/lm3s811/TI_Stellaris/driverlib/adc.c ****     ASSERT((ulBase == ADC0_BASE) || (ulBase == ADC1_BASE));
 437:/home/cuil/workspace/arm/lm3s811/TI_Stellaris/driverlib/adc.c ****     ASSERT(ulSequenceNum < 4);
 438:/home/cuil/workspace/arm/lm3s811/TI_Stellaris/driverlib/adc.c ****     ASSERT((ulTrigger == ADC_TRIGGER_PROCESSOR) ||
 439:/home/cuil/workspace/arm/lm3s811/TI_Stellaris/driverlib/adc.c ****            (ulTrigger == ADC_TRIGGER_COMP0) ||
 440:/home/cuil/workspace/arm/lm3s811/TI_Stellaris/driverlib/adc.c ****            (ulTrigger == ADC_TRIGGER_COMP1) ||
 441:/home/cuil/workspace/arm/lm3s811/TI_Stellaris/driverlib/adc.c ****            (ulTrigger == ADC_TRIGGER_COMP2) ||
 442:/home/cuil/workspace/arm/lm3s811/TI_Stellaris/driverlib/adc.c ****            (ulTrigger == ADC_TRIGGER_EXTERNAL) ||
 443:/home/cuil/workspace/arm/lm3s811/TI_Stellaris/driverlib/adc.c ****            (ulTrigger == ADC_TRIGGER_TIMER) ||
 444:/home/cuil/workspace/arm/lm3s811/TI_Stellaris/driverlib/adc.c ****            (ulTrigger == ADC_TRIGGER_PWM0) ||
 445:/home/cuil/workspace/arm/lm3s811/TI_Stellaris/driverlib/adc.c ****            (ulTrigger == ADC_TRIGGER_PWM1) ||
 446:/home/cuil/workspace/arm/lm3s811/TI_Stellaris/driverlib/adc.c ****            (ulTrigger == ADC_TRIGGER_PWM2) ||
 447:/home/cuil/workspace/arm/lm3s811/TI_Stellaris/driverlib/adc.c ****            (ulTrigger == ADC_TRIGGER_PWM3) ||
 448:/home/cuil/workspace/arm/lm3s811/TI_Stellaris/driverlib/adc.c ****            (ulTrigger == ADC_TRIGGER_ALWAYS));
 449:/home/cuil/workspace/arm/lm3s811/TI_Stellaris/driverlib/adc.c ****     ASSERT(ulPriority < 4);
 450:/home/cuil/workspace/arm/lm3s811/TI_Stellaris/driverlib/adc.c **** 
 451:/home/cuil/workspace/arm/lm3s811/TI_Stellaris/driverlib/adc.c ****     //
 452:/home/cuil/workspace/arm/lm3s811/TI_Stellaris/driverlib/adc.c ****     // Compute the shift for the bits that control this sample sequence.
 453:/home/cuil/workspace/arm/lm3s811/TI_Stellaris/driverlib/adc.c ****     //
 454:/home/cuil/workspace/arm/lm3s811/TI_Stellaris/driverlib/adc.c ****     ulSequenceNum *= 4;
 10441              		.loc 1 454 0
 10442 000e BB68     		ldr	r3, [r7, #8]
 10443 0010 4FEA8303 		lsl	r3, r3, #2
 10444 0014 BB60     		str	r3, [r7, #8]
 455:/home/cuil/workspace/arm/lm3s811/TI_Stellaris/driverlib/adc.c **** 
 456:/home/cuil/workspace/arm/lm3s811/TI_Stellaris/driverlib/adc.c ****     //
 457:/home/cuil/workspace/arm/lm3s811/TI_Stellaris/driverlib/adc.c ****     // Set the trigger event for this sample sequence.
 458:/home/cuil/workspace/arm/lm3s811/TI_Stellaris/driverlib/adc.c ****     //
 459:/home/cuil/workspace/arm/lm3s811/TI_Stellaris/driverlib/adc.c ****     HWREG(ulBase + ADC_O_EMUX) = ((HWREG(ulBase + ADC_O_EMUX) &
 10445              		.loc 1 459 0
 10446 0016 FB68     		ldr	r3, [r7, #12]
 10447 0018 03F11403 		add	r3, r3, #20
 10448 001c FA68     		ldr	r2, [r7, #12]
 10449 001e 02F11402 		add	r2, r2, #20
 10450 0022 1168     		ldr	r1, [r2, #0]
 460:/home/cuil/workspace/arm/lm3s811/TI_Stellaris/driverlib/adc.c ****                                    ~(0xf << ulSequenceNum)) |
 10451              		.loc 1 460 0
 10452 0024 BA68     		ldr	r2, [r7, #8]
 10453 0026 4FF00F00 		mov	r0, #15
 10454 002a 00FA02F2 		lsl	r2, r0, r2
 10455 002e 6FEA0202 		mvn	r2, r2
 459:/home/cuil/workspace/arm/lm3s811/TI_Stellaris/driverlib/adc.c ****     HWREG(ulBase + ADC_O_EMUX) = ((HWREG(ulBase + ADC_O_EMUX) &
 10456              		.loc 1 459 0
 10457 0032 1140     		ands	r1, r1, r2
 461:/home/cuil/workspace/arm/lm3s811/TI_Stellaris/driverlib/adc.c ****                                   ((ulTrigger & 0xf) << ulSequenceNum));
 10458              		.loc 1 461 0
 10459 0034 7A68     		ldr	r2, [r7, #4]
 10460 0036 02F00F00 		and	r0, r2, #15
 10461 003a BA68     		ldr	r2, [r7, #8]
 10462 003c 00FA02F2 		lsl	r2, r0, r2
 460:/home/cuil/workspace/arm/lm3s811/TI_Stellaris/driverlib/adc.c ****                                    ~(0xf << ulSequenceNum)) |
 10463              		.loc 1 460 0
 10464 0040 41EA0202 		orr	r2, r1, r2
 459:/home/cuil/workspace/arm/lm3s811/TI_Stellaris/driverlib/adc.c ****     HWREG(ulBase + ADC_O_EMUX) = ((HWREG(ulBase + ADC_O_EMUX) &
 10465              		.loc 1 459 0
 10466 0044 1A60     		str	r2, [r3, #0]
 462:/home/cuil/workspace/arm/lm3s811/TI_Stellaris/driverlib/adc.c **** 
 463:/home/cuil/workspace/arm/lm3s811/TI_Stellaris/driverlib/adc.c ****     //
 464:/home/cuil/workspace/arm/lm3s811/TI_Stellaris/driverlib/adc.c ****     // Set the priority for this sample sequence.
 465:/home/cuil/workspace/arm/lm3s811/TI_Stellaris/driverlib/adc.c ****     //
 466:/home/cuil/workspace/arm/lm3s811/TI_Stellaris/driverlib/adc.c ****     HWREG(ulBase + ADC_O_SSPRI) = ((HWREG(ulBase + ADC_O_SSPRI) &
 10467              		.loc 1 466 0
 10468 0046 FB68     		ldr	r3, [r7, #12]
 10469 0048 03F12003 		add	r3, r3, #32
 10470 004c FA68     		ldr	r2, [r7, #12]
 10471 004e 02F12002 		add	r2, r2, #32
 10472 0052 1168     		ldr	r1, [r2, #0]
 467:/home/cuil/workspace/arm/lm3s811/TI_Stellaris/driverlib/adc.c ****                                     ~(0xf << ulSequenceNum)) |
 10473              		.loc 1 467 0
 10474 0054 BA68     		ldr	r2, [r7, #8]
 10475 0056 4FF00F00 		mov	r0, #15
 10476 005a 00FA02F2 		lsl	r2, r0, r2
 10477 005e 6FEA0202 		mvn	r2, r2
 466:/home/cuil/workspace/arm/lm3s811/TI_Stellaris/driverlib/adc.c ****     HWREG(ulBase + ADC_O_SSPRI) = ((HWREG(ulBase + ADC_O_SSPRI) &
 10478              		.loc 1 466 0
 10479 0062 1140     		ands	r1, r1, r2
 468:/home/cuil/workspace/arm/lm3s811/TI_Stellaris/driverlib/adc.c ****                                    ((ulPriority & 0x3) << ulSequenceNum));
 10480              		.loc 1 468 0
 10481 0064 3A68     		ldr	r2, [r7, #0]
 10482 0066 02F00300 		and	r0, r2, #3
 10483 006a BA68     		ldr	r2, [r7, #8]
 10484 006c 00FA02F2 		lsl	r2, r0, r2
 467:/home/cuil/workspace/arm/lm3s811/TI_Stellaris/driverlib/adc.c ****                                     ~(0xf << ulSequenceNum)) |
 10485              		.loc 1 467 0
 10486 0070 41EA0202 		orr	r2, r1, r2
 466:/home/cuil/workspace/arm/lm3s811/TI_Stellaris/driverlib/adc.c ****     HWREG(ulBase + ADC_O_SSPRI) = ((HWREG(ulBase + ADC_O_SSPRI) &
 10487              		.loc 1 466 0
 10488 0074 1A60     		str	r2, [r3, #0]
 469:/home/cuil/workspace/arm/lm3s811/TI_Stellaris/driverlib/adc.c **** }
 10489              		.loc 1 469 0
 10490 0076 07F11407 		add	r7, r7, #20
 10491 007a BD46     		mov	sp, r7
 10492 007c 80BC     		pop	{r7}
 10493 007e 7047     		bx	lr
 10494              		.cfi_endproc
 10495              	.LFE8:
 10497              		.section	.text.ADCSequenceStepConfigure,"ax",%progbits
 10498              		.align	2
 10499              		.global	ADCSequenceStepConfigure
 10500              		.thumb
 10501              		.thumb_func
 10503              	ADCSequenceStepConfigure:
 10504              	.LFB9:
 470:/home/cuil/workspace/arm/lm3s811/TI_Stellaris/driverlib/adc.c **** 
 471:/home/cuil/workspace/arm/lm3s811/TI_Stellaris/driverlib/adc.c **** //*****************************************************************************
 472:/home/cuil/workspace/arm/lm3s811/TI_Stellaris/driverlib/adc.c **** //
 473:/home/cuil/workspace/arm/lm3s811/TI_Stellaris/driverlib/adc.c **** //! Configure a step of the sample sequencer.
 474:/home/cuil/workspace/arm/lm3s811/TI_Stellaris/driverlib/adc.c **** //!
 475:/home/cuil/workspace/arm/lm3s811/TI_Stellaris/driverlib/adc.c **** //! \param ulBase is the base address of the ADC module.
 476:/home/cuil/workspace/arm/lm3s811/TI_Stellaris/driverlib/adc.c **** //! \param ulSequenceNum is the sample sequence number.
 477:/home/cuil/workspace/arm/lm3s811/TI_Stellaris/driverlib/adc.c **** //! \param ulStep is the step to be configured.
 478:/home/cuil/workspace/arm/lm3s811/TI_Stellaris/driverlib/adc.c **** //! \param ulConfig is the configuration of this step; must be a logical OR of
 479:/home/cuil/workspace/arm/lm3s811/TI_Stellaris/driverlib/adc.c **** //! \b ADC_CTL_TS, \b ADC_CTL_IE, \b ADC_CTL_END, \b ADC_CTL_D, one of the
 480:/home/cuil/workspace/arm/lm3s811/TI_Stellaris/driverlib/adc.c **** //! input channel selects (\b ADC_CTL_CH0 through \b ADC_CTL_CH23), and one of
 481:/home/cuil/workspace/arm/lm3s811/TI_Stellaris/driverlib/adc.c **** //! the digital comparator selects (\b ADC_CTL_CMP0 through \b ADC_CTL_CMP7).
 482:/home/cuil/workspace/arm/lm3s811/TI_Stellaris/driverlib/adc.c **** //!
 483:/home/cuil/workspace/arm/lm3s811/TI_Stellaris/driverlib/adc.c **** //! This function configures the ADC for one step of a sample sequence.  The
 484:/home/cuil/workspace/arm/lm3s811/TI_Stellaris/driverlib/adc.c **** //! ADC can be configured for single-ended or differential operation
 485:/home/cuil/workspace/arm/lm3s811/TI_Stellaris/driverlib/adc.c **** //! (the \b ADC_CTL_D bit selects differential operation when set), the
 486:/home/cuil/workspace/arm/lm3s811/TI_Stellaris/driverlib/adc.c **** //! channel to be sampled can be chosen (the \b ADC_CTL_CH0 through
 487:/home/cuil/workspace/arm/lm3s811/TI_Stellaris/driverlib/adc.c **** //! \b ADC_CTL_CH23 values), and the internal temperature sensor can be
 488:/home/cuil/workspace/arm/lm3s811/TI_Stellaris/driverlib/adc.c **** //! selected (the \b ADC_CTL_TS bit).  Additionally, this step can be defined
 489:/home/cuil/workspace/arm/lm3s811/TI_Stellaris/driverlib/adc.c **** //! as the last in the sequence (the \b ADC_CTL_END bit) and it can be
 490:/home/cuil/workspace/arm/lm3s811/TI_Stellaris/driverlib/adc.c **** //! configured to cause an interrupt when the step is complete (the
 491:/home/cuil/workspace/arm/lm3s811/TI_Stellaris/driverlib/adc.c **** //! \b ADC_CTL_IE bit).  If the digital comparators are present on the device,
 492:/home/cuil/workspace/arm/lm3s811/TI_Stellaris/driverlib/adc.c **** //! this step may also be configured to send the ADC sample to the selected
 493:/home/cuil/workspace/arm/lm3s811/TI_Stellaris/driverlib/adc.c **** //! comparator using \b ADC_CTL_CMP0 through \b ADC_CTL_CMP7. The configuration
 494:/home/cuil/workspace/arm/lm3s811/TI_Stellaris/driverlib/adc.c **** //! is used by the ADC at the appropriate time when the trigger for
 495:/home/cuil/workspace/arm/lm3s811/TI_Stellaris/driverlib/adc.c **** //! this sequence occurs.
 496:/home/cuil/workspace/arm/lm3s811/TI_Stellaris/driverlib/adc.c **** //!
 497:/home/cuil/workspace/arm/lm3s811/TI_Stellaris/driverlib/adc.c **** //! \note If the Digitial Comparator is present and enabled using the
 498:/home/cuil/workspace/arm/lm3s811/TI_Stellaris/driverlib/adc.c **** //! \b ADC_CTL_CMP0 through \b ADC_CTL_CMP7 selects, the ADC sample is NOT
 499:/home/cuil/workspace/arm/lm3s811/TI_Stellaris/driverlib/adc.c **** //! written into the ADC sequence data FIFO.
 500:/home/cuil/workspace/arm/lm3s811/TI_Stellaris/driverlib/adc.c **** //!
 501:/home/cuil/workspace/arm/lm3s811/TI_Stellaris/driverlib/adc.c **** //! The \e ulStep parameter determines the order in which the samples are
 502:/home/cuil/workspace/arm/lm3s811/TI_Stellaris/driverlib/adc.c **** //! captured by the ADC when the trigger occurs.  It can range from zero to
 503:/home/cuil/workspace/arm/lm3s811/TI_Stellaris/driverlib/adc.c **** //! seven for the first sample sequencer, from zero to three for the second and
 504:/home/cuil/workspace/arm/lm3s811/TI_Stellaris/driverlib/adc.c **** //! third sample sequencer, and can only be zero for the fourth sample
 505:/home/cuil/workspace/arm/lm3s811/TI_Stellaris/driverlib/adc.c **** //! sequencer.
 506:/home/cuil/workspace/arm/lm3s811/TI_Stellaris/driverlib/adc.c **** //!
 507:/home/cuil/workspace/arm/lm3s811/TI_Stellaris/driverlib/adc.c **** //! Differential mode only works with adjacent channel pairs (for example, 0
 508:/home/cuil/workspace/arm/lm3s811/TI_Stellaris/driverlib/adc.c **** //! and 1).  The channel select must be the number of the channel pair to
 509:/home/cuil/workspace/arm/lm3s811/TI_Stellaris/driverlib/adc.c **** //! sample (for example, \b ADC_CTL_CH0 for 0 and 1, or \b ADC_CTL_CH1 for 2
 510:/home/cuil/workspace/arm/lm3s811/TI_Stellaris/driverlib/adc.c **** //! and 3) or undefined results are returned by the ADC.  Additionally, if
 511:/home/cuil/workspace/arm/lm3s811/TI_Stellaris/driverlib/adc.c **** //! differential mode is selected when the temperature sensor is being sampled,
 512:/home/cuil/workspace/arm/lm3s811/TI_Stellaris/driverlib/adc.c **** //! undefined results are returned by the ADC.
 513:/home/cuil/workspace/arm/lm3s811/TI_Stellaris/driverlib/adc.c **** //!
 514:/home/cuil/workspace/arm/lm3s811/TI_Stellaris/driverlib/adc.c **** //! It is the responsibility of the caller to ensure that a valid configuration
 515:/home/cuil/workspace/arm/lm3s811/TI_Stellaris/driverlib/adc.c **** //! is specified; this function does not check the validity of the specified
 516:/home/cuil/workspace/arm/lm3s811/TI_Stellaris/driverlib/adc.c **** //! configuration.
 517:/home/cuil/workspace/arm/lm3s811/TI_Stellaris/driverlib/adc.c **** //!
 518:/home/cuil/workspace/arm/lm3s811/TI_Stellaris/driverlib/adc.c **** //! \return None.
 519:/home/cuil/workspace/arm/lm3s811/TI_Stellaris/driverlib/adc.c **** //
 520:/home/cuil/workspace/arm/lm3s811/TI_Stellaris/driverlib/adc.c **** //*****************************************************************************
 521:/home/cuil/workspace/arm/lm3s811/TI_Stellaris/driverlib/adc.c **** void
 522:/home/cuil/workspace/arm/lm3s811/TI_Stellaris/driverlib/adc.c **** ADCSequenceStepConfigure(unsigned long ulBase, unsigned long ulSequenceNum,
 523:/home/cuil/workspace/arm/lm3s811/TI_Stellaris/driverlib/adc.c ****                          unsigned long ulStep, unsigned long ulConfig)
 524:/home/cuil/workspace/arm/lm3s811/TI_Stellaris/driverlib/adc.c **** {
 10505              		.loc 1 524 0
 10506              		.cfi_startproc
 10507              		@ args = 0, pretend = 0, frame = 24
 10508              		@ frame_needed = 1, uses_anonymous_args = 0
 10509              		@ link register save eliminated.
 10510 0000 80B4     		push	{r7}
 10511              	.LCFI27:
 10512              		.cfi_def_cfa_offset 4
 10513 0002 87B0     		sub	sp, sp, #28
 10514              	.LCFI28:
 10515              		.cfi_def_cfa_offset 32
 10516 0004 00AF     		add	r7, sp, #0
 10517              		.cfi_offset 7, -4
 10518              	.LCFI29:
 10519              		.cfi_def_cfa_register 7
 10520 0006 F860     		str	r0, [r7, #12]
 10521 0008 B960     		str	r1, [r7, #8]
 10522 000a 7A60     		str	r2, [r7, #4]
 10523 000c 3B60     		str	r3, [r7, #0]
 525:/home/cuil/workspace/arm/lm3s811/TI_Stellaris/driverlib/adc.c ****     unsigned long ulTemp;
 526:/home/cuil/workspace/arm/lm3s811/TI_Stellaris/driverlib/adc.c **** 
 527:/home/cuil/workspace/arm/lm3s811/TI_Stellaris/driverlib/adc.c ****     //
 528:/home/cuil/workspace/arm/lm3s811/TI_Stellaris/driverlib/adc.c ****     // Check the arugments.
 529:/home/cuil/workspace/arm/lm3s811/TI_Stellaris/driverlib/adc.c ****     //
 530:/home/cuil/workspace/arm/lm3s811/TI_Stellaris/driverlib/adc.c ****     ASSERT((ulBase == ADC0_BASE) || (ulBase == ADC1_BASE));
 531:/home/cuil/workspace/arm/lm3s811/TI_Stellaris/driverlib/adc.c ****     ASSERT(ulSequenceNum < 4);
 532:/home/cuil/workspace/arm/lm3s811/TI_Stellaris/driverlib/adc.c ****     ASSERT(((ulSequenceNum == 0) && (ulStep < 8)) ||
 533:/home/cuil/workspace/arm/lm3s811/TI_Stellaris/driverlib/adc.c ****            ((ulSequenceNum == 1) && (ulStep < 4)) ||
 534:/home/cuil/workspace/arm/lm3s811/TI_Stellaris/driverlib/adc.c ****            ((ulSequenceNum == 2) && (ulStep < 4)) ||
 535:/home/cuil/workspace/arm/lm3s811/TI_Stellaris/driverlib/adc.c ****            ((ulSequenceNum == 3) && (ulStep < 1)));
 536:/home/cuil/workspace/arm/lm3s811/TI_Stellaris/driverlib/adc.c **** 
 537:/home/cuil/workspace/arm/lm3s811/TI_Stellaris/driverlib/adc.c ****     //
 538:/home/cuil/workspace/arm/lm3s811/TI_Stellaris/driverlib/adc.c ****     // Get the offset of the sequence to be configured.
 539:/home/cuil/workspace/arm/lm3s811/TI_Stellaris/driverlib/adc.c ****     //
 540:/home/cuil/workspace/arm/lm3s811/TI_Stellaris/driverlib/adc.c ****     ulBase += ADC_SEQ + (ADC_SEQ_STEP * ulSequenceNum);
 10524              		.loc 1 540 0
 10525 000e BB68     		ldr	r3, [r7, #8]
 10526 0010 03F10203 		add	r3, r3, #2
 10527 0014 4FEA4313 		lsl	r3, r3, #5
 10528 0018 FA68     		ldr	r2, [r7, #12]
 10529 001a D318     		adds	r3, r2, r3
 10530 001c FB60     		str	r3, [r7, #12]
 541:/home/cuil/workspace/arm/lm3s811/TI_Stellaris/driverlib/adc.c **** 
 542:/home/cuil/workspace/arm/lm3s811/TI_Stellaris/driverlib/adc.c ****     //
 543:/home/cuil/workspace/arm/lm3s811/TI_Stellaris/driverlib/adc.c ****     // Compute the shift for the bits that control this step.
 544:/home/cuil/workspace/arm/lm3s811/TI_Stellaris/driverlib/adc.c ****     //
 545:/home/cuil/workspace/arm/lm3s811/TI_Stellaris/driverlib/adc.c ****     ulStep *= 4;
 10531              		.loc 1 545 0
 10532 001e 7B68     		ldr	r3, [r7, #4]
 10533 0020 4FEA8303 		lsl	r3, r3, #2
 10534 0024 7B60     		str	r3, [r7, #4]
 546:/home/cuil/workspace/arm/lm3s811/TI_Stellaris/driverlib/adc.c **** 
 547:/home/cuil/workspace/arm/lm3s811/TI_Stellaris/driverlib/adc.c ****     //
 548:/home/cuil/workspace/arm/lm3s811/TI_Stellaris/driverlib/adc.c ****     // Set the analog mux value for this step.
 549:/home/cuil/workspace/arm/lm3s811/TI_Stellaris/driverlib/adc.c ****     //
 550:/home/cuil/workspace/arm/lm3s811/TI_Stellaris/driverlib/adc.c ****     HWREG(ulBase + ADC_SSMUX) = ((HWREG(ulBase + ADC_SSMUX) &
 10535              		.loc 1 550 0
 10536 0026 FB68     		ldr	r3, [r7, #12]
 10537 0028 FA68     		ldr	r2, [r7, #12]
 10538 002a 1168     		ldr	r1, [r2, #0]
 551:/home/cuil/workspace/arm/lm3s811/TI_Stellaris/driverlib/adc.c ****                                   ~(0x0000000f << ulStep)) |
 10539              		.loc 1 551 0
 10540 002c 7A68     		ldr	r2, [r7, #4]
 10541 002e 4FF00F00 		mov	r0, #15
 10542 0032 00FA02F2 		lsl	r2, r0, r2
 10543 0036 6FEA0202 		mvn	r2, r2
 550:/home/cuil/workspace/arm/lm3s811/TI_Stellaris/driverlib/adc.c ****     HWREG(ulBase + ADC_SSMUX) = ((HWREG(ulBase + ADC_SSMUX) &
 10544              		.loc 1 550 0
 10545 003a 1140     		ands	r1, r1, r2
 552:/home/cuil/workspace/arm/lm3s811/TI_Stellaris/driverlib/adc.c ****                                  ((ulConfig & 0x0f) << ulStep));
 10546              		.loc 1 552 0
 10547 003c 3A68     		ldr	r2, [r7, #0]
 10548 003e 02F00F00 		and	r0, r2, #15
 10549 0042 7A68     		ldr	r2, [r7, #4]
 10550 0044 00FA02F2 		lsl	r2, r0, r2
 551:/home/cuil/workspace/arm/lm3s811/TI_Stellaris/driverlib/adc.c ****                                   ~(0x0000000f << ulStep)) |
 10551              		.loc 1 551 0
 10552 0048 41EA0202 		orr	r2, r1, r2
 550:/home/cuil/workspace/arm/lm3s811/TI_Stellaris/driverlib/adc.c ****     HWREG(ulBase + ADC_SSMUX) = ((HWREG(ulBase + ADC_SSMUX) &
 10553              		.loc 1 550 0
 10554 004c 1A60     		str	r2, [r3, #0]
 553:/home/cuil/workspace/arm/lm3s811/TI_Stellaris/driverlib/adc.c **** 
 554:/home/cuil/workspace/arm/lm3s811/TI_Stellaris/driverlib/adc.c ****     //
 555:/home/cuil/workspace/arm/lm3s811/TI_Stellaris/driverlib/adc.c ****     // Set the upper bits of the analog mux value for this step.
 556:/home/cuil/workspace/arm/lm3s811/TI_Stellaris/driverlib/adc.c ****     //
 557:/home/cuil/workspace/arm/lm3s811/TI_Stellaris/driverlib/adc.c ****     HWREG(ulBase + ADC_SSEMUX) = ((HWREG(ulBase + ADC_SSEMUX) &
 10555              		.loc 1 557 0
 10556 004e FB68     		ldr	r3, [r7, #12]
 10557 0050 03F11803 		add	r3, r3, #24
 10558 0054 FA68     		ldr	r2, [r7, #12]
 10559 0056 02F11802 		add	r2, r2, #24
 10560 005a 1168     		ldr	r1, [r2, #0]
 558:/home/cuil/workspace/arm/lm3s811/TI_Stellaris/driverlib/adc.c ****                                   ~(0x0000000f << ulStep)) |
 10561              		.loc 1 558 0
 10562 005c 7A68     		ldr	r2, [r7, #4]
 10563 005e 4FF00F00 		mov	r0, #15
 10564 0062 00FA02F2 		lsl	r2, r0, r2
 10565 0066 6FEA0202 		mvn	r2, r2
 557:/home/cuil/workspace/arm/lm3s811/TI_Stellaris/driverlib/adc.c ****     HWREG(ulBase + ADC_SSEMUX) = ((HWREG(ulBase + ADC_SSEMUX) &
 10566              		.loc 1 557 0
 10567 006a 1140     		ands	r1, r1, r2
 559:/home/cuil/workspace/arm/lm3s811/TI_Stellaris/driverlib/adc.c ****                                   (((ulConfig & 0xf00) >> 8) << ulStep));
 10568              		.loc 1 559 0
 10569 006c 3A68     		ldr	r2, [r7, #0]
 10570 006e 02F47062 		and	r2, r2, #3840
 10571 0072 4FEA1220 		lsr	r0, r2, #8
 10572 0076 7A68     		ldr	r2, [r7, #4]
 10573 0078 00FA02F2 		lsl	r2, r0, r2
 558:/home/cuil/workspace/arm/lm3s811/TI_Stellaris/driverlib/adc.c ****                                   ~(0x0000000f << ulStep)) |
 10574              		.loc 1 558 0
 10575 007c 41EA0202 		orr	r2, r1, r2
 557:/home/cuil/workspace/arm/lm3s811/TI_Stellaris/driverlib/adc.c ****     HWREG(ulBase + ADC_SSEMUX) = ((HWREG(ulBase + ADC_SSEMUX) &
 10576              		.loc 1 557 0
 10577 0080 1A60     		str	r2, [r3, #0]
 560:/home/cuil/workspace/arm/lm3s811/TI_Stellaris/driverlib/adc.c **** 
 561:/home/cuil/workspace/arm/lm3s811/TI_Stellaris/driverlib/adc.c ****     //
 562:/home/cuil/workspace/arm/lm3s811/TI_Stellaris/driverlib/adc.c ****     // Set the control value for this step.
 563:/home/cuil/workspace/arm/lm3s811/TI_Stellaris/driverlib/adc.c ****     //
 564:/home/cuil/workspace/arm/lm3s811/TI_Stellaris/driverlib/adc.c ****     HWREG(ulBase + ADC_SSCTL) = ((HWREG(ulBase + ADC_SSCTL) &
 10578              		.loc 1 564 0
 10579 0082 FB68     		ldr	r3, [r7, #12]
 10580 0084 03F10403 		add	r3, r3, #4
 10581 0088 FA68     		ldr	r2, [r7, #12]
 10582 008a 02F10402 		add	r2, r2, #4
 10583 008e 1168     		ldr	r1, [r2, #0]
 565:/home/cuil/workspace/arm/lm3s811/TI_Stellaris/driverlib/adc.c ****                                   ~(0x0000000f << ulStep)) |
 10584              		.loc 1 565 0
 10585 0090 7A68     		ldr	r2, [r7, #4]
 10586 0092 4FF00F00 		mov	r0, #15
 10587 0096 00FA02F2 		lsl	r2, r0, r2
 10588 009a 6FEA0202 		mvn	r2, r2
 564:/home/cuil/workspace/arm/lm3s811/TI_Stellaris/driverlib/adc.c ****     HWREG(ulBase + ADC_SSCTL) = ((HWREG(ulBase + ADC_SSCTL) &
 10589              		.loc 1 564 0
 10590 009e 1140     		ands	r1, r1, r2
 566:/home/cuil/workspace/arm/lm3s811/TI_Stellaris/driverlib/adc.c ****                                  (((ulConfig & 0xf0) >> 4) << ulStep));
 10591              		.loc 1 566 0
 10592 00a0 3A68     		ldr	r2, [r7, #0]
 10593 00a2 02F0F002 		and	r2, r2, #240
 10594 00a6 4FEA1210 		lsr	r0, r2, #4
 10595 00aa 7A68     		ldr	r2, [r7, #4]
 10596 00ac 00FA02F2 		lsl	r2, r0, r2
 565:/home/cuil/workspace/arm/lm3s811/TI_Stellaris/driverlib/adc.c ****                                   ~(0x0000000f << ulStep)) |
 10597              		.loc 1 565 0
 10598 00b0 41EA0202 		orr	r2, r1, r2
 564:/home/cuil/workspace/arm/lm3s811/TI_Stellaris/driverlib/adc.c ****     HWREG(ulBase + ADC_SSCTL) = ((HWREG(ulBase + ADC_SSCTL) &
 10599              		.loc 1 564 0
 10600 00b4 1A60     		str	r2, [r3, #0]
 567:/home/cuil/workspace/arm/lm3s811/TI_Stellaris/driverlib/adc.c **** 
 568:/home/cuil/workspace/arm/lm3s811/TI_Stellaris/driverlib/adc.c ****     //
 569:/home/cuil/workspace/arm/lm3s811/TI_Stellaris/driverlib/adc.c ****     // Enable digital comparator if specified in the ulConfig bit-fields.
 570:/home/cuil/workspace/arm/lm3s811/TI_Stellaris/driverlib/adc.c ****     //
 571:/home/cuil/workspace/arm/lm3s811/TI_Stellaris/driverlib/adc.c ****     if(ulConfig & 0x000F0000)
 10601              		.loc 1 571 0
 10602 00b6 3B68     		ldr	r3, [r7, #0]
 10603 00b8 03F47023 		and	r3, r3, #983040
 10604 00bc 002B     		cmp	r3, #0
 10605 00be 34D0     		beq	.L21
 572:/home/cuil/workspace/arm/lm3s811/TI_Stellaris/driverlib/adc.c ****     {
 573:/home/cuil/workspace/arm/lm3s811/TI_Stellaris/driverlib/adc.c ****         //
 574:/home/cuil/workspace/arm/lm3s811/TI_Stellaris/driverlib/adc.c ****         // Program the comparator for the specified step.
 575:/home/cuil/workspace/arm/lm3s811/TI_Stellaris/driverlib/adc.c ****         //
 576:/home/cuil/workspace/arm/lm3s811/TI_Stellaris/driverlib/adc.c ****         ulTemp = HWREG(ulBase + ADC_SSDC);
 10606              		.loc 1 576 0
 10607 00c0 FB68     		ldr	r3, [r7, #12]
 10608 00c2 03F11403 		add	r3, r3, #20
 10609 00c6 1B68     		ldr	r3, [r3, #0]
 10610 00c8 7B61     		str	r3, [r7, #20]
 577:/home/cuil/workspace/arm/lm3s811/TI_Stellaris/driverlib/adc.c ****         ulTemp &= ~(0xF << ulStep);
 10611              		.loc 1 577 0
 10612 00ca 7B68     		ldr	r3, [r7, #4]
 10613 00cc 4FF00F02 		mov	r2, #15
 10614 00d0 02FA03F3 		lsl	r3, r2, r3
 10615 00d4 6FEA0303 		mvn	r3, r3
 10616 00d8 7A69     		ldr	r2, [r7, #20]
 10617 00da 02EA0303 		and	r3, r2, r3
 10618 00de 7B61     		str	r3, [r7, #20]
 578:/home/cuil/workspace/arm/lm3s811/TI_Stellaris/driverlib/adc.c ****         ulTemp |= (((ulConfig & 0x00070000) >> 16) << ulStep);
 10619              		.loc 1 578 0
 10620 00e0 3B68     		ldr	r3, [r7, #0]
 10621 00e2 03F4E023 		and	r3, r3, #458752
 10622 00e6 4FEA1342 		lsr	r2, r3, #16
 10623 00ea 7B68     		ldr	r3, [r7, #4]
 10624 00ec 02FA03F3 		lsl	r3, r2, r3
 10625 00f0 7A69     		ldr	r2, [r7, #20]
 10626 00f2 42EA0303 		orr	r3, r2, r3
 10627 00f6 7B61     		str	r3, [r7, #20]
 579:/home/cuil/workspace/arm/lm3s811/TI_Stellaris/driverlib/adc.c ****         HWREG(ulBase + ADC_SSDC) = ulTemp;
 10628              		.loc 1 579 0
 10629 00f8 FB68     		ldr	r3, [r7, #12]
 10630 00fa 03F11403 		add	r3, r3, #20
 10631 00fe 7A69     		ldr	r2, [r7, #20]
 10632 0100 1A60     		str	r2, [r3, #0]
 580:/home/cuil/workspace/arm/lm3s811/TI_Stellaris/driverlib/adc.c **** 
 581:/home/cuil/workspace/arm/lm3s811/TI_Stellaris/driverlib/adc.c ****         //
 582:/home/cuil/workspace/arm/lm3s811/TI_Stellaris/driverlib/adc.c ****         // Enable the comparator.
 583:/home/cuil/workspace/arm/lm3s811/TI_Stellaris/driverlib/adc.c ****         //
 584:/home/cuil/workspace/arm/lm3s811/TI_Stellaris/driverlib/adc.c ****         ulTemp = HWREG(ulBase + ADC_SSOP);
 10633              		.loc 1 584 0
 10634 0102 FB68     		ldr	r3, [r7, #12]
 10635 0104 03F11003 		add	r3, r3, #16
 10636 0108 1B68     		ldr	r3, [r3, #0]
 10637 010a 7B61     		str	r3, [r7, #20]
 585:/home/cuil/workspace/arm/lm3s811/TI_Stellaris/driverlib/adc.c ****         ulTemp |= (1 << ulStep);
 10638              		.loc 1 585 0
 10639 010c 7B68     		ldr	r3, [r7, #4]
 10640 010e 4FF00102 		mov	r2, #1
 10641 0112 02FA03F3 		lsl	r3, r2, r3
 10642 0116 7A69     		ldr	r2, [r7, #20]
 10643 0118 42EA0303 		orr	r3, r2, r3
 10644 011c 7B61     		str	r3, [r7, #20]
 586:/home/cuil/workspace/arm/lm3s811/TI_Stellaris/driverlib/adc.c ****         HWREG(ulBase + ADC_SSOP) = ulTemp;
 10645              		.loc 1 586 0
 10646 011e FB68     		ldr	r3, [r7, #12]
 10647 0120 03F11003 		add	r3, r3, #16
 10648 0124 7A69     		ldr	r2, [r7, #20]
 10649 0126 1A60     		str	r2, [r3, #0]
 10650 0128 14E0     		b	.L20
 10651              	.L21:
 587:/home/cuil/workspace/arm/lm3s811/TI_Stellaris/driverlib/adc.c ****     }
 588:/home/cuil/workspace/arm/lm3s811/TI_Stellaris/driverlib/adc.c **** 
 589:/home/cuil/workspace/arm/lm3s811/TI_Stellaris/driverlib/adc.c ****     //
 590:/home/cuil/workspace/arm/lm3s811/TI_Stellaris/driverlib/adc.c ****     // Disable digital comparator if not specified.
 591:/home/cuil/workspace/arm/lm3s811/TI_Stellaris/driverlib/adc.c ****     //
 592:/home/cuil/workspace/arm/lm3s811/TI_Stellaris/driverlib/adc.c ****     else
 593:/home/cuil/workspace/arm/lm3s811/TI_Stellaris/driverlib/adc.c ****     {
 594:/home/cuil/workspace/arm/lm3s811/TI_Stellaris/driverlib/adc.c ****         ulTemp = HWREG(ulBase + ADC_SSOP);
 10652              		.loc 1 594 0
 10653 012a FB68     		ldr	r3, [r7, #12]
 10654 012c 03F11003 		add	r3, r3, #16
 10655 0130 1B68     		ldr	r3, [r3, #0]
 10656 0132 7B61     		str	r3, [r7, #20]
 595:/home/cuil/workspace/arm/lm3s811/TI_Stellaris/driverlib/adc.c ****         ulTemp &= ~(1 << ulStep);
 10657              		.loc 1 595 0
 10658 0134 7B68     		ldr	r3, [r7, #4]
 10659 0136 4FF00102 		mov	r2, #1
 10660 013a 02FA03F3 		lsl	r3, r2, r3
 10661 013e 6FEA0303 		mvn	r3, r3
 10662 0142 7A69     		ldr	r2, [r7, #20]
 10663 0144 02EA0303 		and	r3, r2, r3
 10664 0148 7B61     		str	r3, [r7, #20]
 596:/home/cuil/workspace/arm/lm3s811/TI_Stellaris/driverlib/adc.c ****         HWREG(ulBase + ADC_SSOP) = ulTemp;
 10665              		.loc 1 596 0
 10666 014a FB68     		ldr	r3, [r7, #12]
 10667 014c 03F11003 		add	r3, r3, #16
 10668 0150 7A69     		ldr	r2, [r7, #20]
 10669 0152 1A60     		str	r2, [r3, #0]
 10670              	.L20:
 597:/home/cuil/workspace/arm/lm3s811/TI_Stellaris/driverlib/adc.c ****     }
 598:/home/cuil/workspace/arm/lm3s811/TI_Stellaris/driverlib/adc.c **** }
 10671              		.loc 1 598 0
 10672 0154 07F11C07 		add	r7, r7, #28
 10673 0158 BD46     		mov	sp, r7
 10674 015a 80BC     		pop	{r7}
 10675 015c 7047     		bx	lr
 10676              		.cfi_endproc
 10677              	.LFE9:
 10679 015e 00BF     		.section	.text.ADCSequenceOverflow,"ax",%progbits
 10680              		.align	2
 10681              		.global	ADCSequenceOverflow
 10682              		.thumb
 10683              		.thumb_func
 10685              	ADCSequenceOverflow:
 10686              	.LFB10:
 599:/home/cuil/workspace/arm/lm3s811/TI_Stellaris/driverlib/adc.c **** 
 600:/home/cuil/workspace/arm/lm3s811/TI_Stellaris/driverlib/adc.c **** //*****************************************************************************
 601:/home/cuil/workspace/arm/lm3s811/TI_Stellaris/driverlib/adc.c **** //
 602:/home/cuil/workspace/arm/lm3s811/TI_Stellaris/driverlib/adc.c **** //! Determines if a sample sequence overflow occurred.
 603:/home/cuil/workspace/arm/lm3s811/TI_Stellaris/driverlib/adc.c **** //!
 604:/home/cuil/workspace/arm/lm3s811/TI_Stellaris/driverlib/adc.c **** //! \param ulBase is the base address of the ADC module.
 605:/home/cuil/workspace/arm/lm3s811/TI_Stellaris/driverlib/adc.c **** //! \param ulSequenceNum is the sample sequence number.
 606:/home/cuil/workspace/arm/lm3s811/TI_Stellaris/driverlib/adc.c **** //!
 607:/home/cuil/workspace/arm/lm3s811/TI_Stellaris/driverlib/adc.c **** //! This function determines if a sample sequence overflow has occurred.
 608:/home/cuil/workspace/arm/lm3s811/TI_Stellaris/driverlib/adc.c **** //! Overflow happens if the captured samples are not read from the FIFO before
 609:/home/cuil/workspace/arm/lm3s811/TI_Stellaris/driverlib/adc.c **** //! the next trigger occurs.
 610:/home/cuil/workspace/arm/lm3s811/TI_Stellaris/driverlib/adc.c **** //!
 611:/home/cuil/workspace/arm/lm3s811/TI_Stellaris/driverlib/adc.c **** //! \return Returns zero if there was not an overflow, and non-zero if there
 612:/home/cuil/workspace/arm/lm3s811/TI_Stellaris/driverlib/adc.c **** //! was.
 613:/home/cuil/workspace/arm/lm3s811/TI_Stellaris/driverlib/adc.c **** //
 614:/home/cuil/workspace/arm/lm3s811/TI_Stellaris/driverlib/adc.c **** //*****************************************************************************
 615:/home/cuil/workspace/arm/lm3s811/TI_Stellaris/driverlib/adc.c **** long
 616:/home/cuil/workspace/arm/lm3s811/TI_Stellaris/driverlib/adc.c **** ADCSequenceOverflow(unsigned long ulBase, unsigned long ulSequenceNum)
 617:/home/cuil/workspace/arm/lm3s811/TI_Stellaris/driverlib/adc.c **** {
 10687              		.loc 1 617 0
 10688              		.cfi_startproc
 10689              		@ args = 0, pretend = 0, frame = 8
 10690              		@ frame_needed = 1, uses_anonymous_args = 0
 10691              		@ link register save eliminated.
 10692 0000 80B4     		push	{r7}
 10693              	.LCFI30:
 10694              		.cfi_def_cfa_offset 4
 10695 0002 83B0     		sub	sp, sp, #12
 10696              	.LCFI31:
 10697              		.cfi_def_cfa_offset 16
 10698 0004 00AF     		add	r7, sp, #0
 10699              		.cfi_offset 7, -4
 10700              	.LCFI32:
 10701              		.cfi_def_cfa_register 7
 10702 0006 7860     		str	r0, [r7, #4]
 10703 0008 3960     		str	r1, [r7, #0]
 618:/home/cuil/workspace/arm/lm3s811/TI_Stellaris/driverlib/adc.c ****     //
 619:/home/cuil/workspace/arm/lm3s811/TI_Stellaris/driverlib/adc.c ****     // Check the arguments.
 620:/home/cuil/workspace/arm/lm3s811/TI_Stellaris/driverlib/adc.c ****     //
 621:/home/cuil/workspace/arm/lm3s811/TI_Stellaris/driverlib/adc.c ****     ASSERT((ulBase == ADC0_BASE) || (ulBase == ADC1_BASE));
 622:/home/cuil/workspace/arm/lm3s811/TI_Stellaris/driverlib/adc.c ****     ASSERT(ulSequenceNum < 4);
 623:/home/cuil/workspace/arm/lm3s811/TI_Stellaris/driverlib/adc.c **** 
 624:/home/cuil/workspace/arm/lm3s811/TI_Stellaris/driverlib/adc.c ****     //
 625:/home/cuil/workspace/arm/lm3s811/TI_Stellaris/driverlib/adc.c ****     // Determine if there was an overflow on this sequence.
 626:/home/cuil/workspace/arm/lm3s811/TI_Stellaris/driverlib/adc.c ****     //
 627:/home/cuil/workspace/arm/lm3s811/TI_Stellaris/driverlib/adc.c ****     return(HWREG(ulBase + ADC_O_OSTAT) & (1 << ulSequenceNum));
 10704              		.loc 1 627 0
 10705 000a 7B68     		ldr	r3, [r7, #4]
 10706 000c 03F11003 		add	r3, r3, #16
 10707 0010 1A68     		ldr	r2, [r3, #0]
 10708 0012 3B68     		ldr	r3, [r7, #0]
 10709 0014 4FF00101 		mov	r1, #1
 10710 0018 01FA03F3 		lsl	r3, r1, r3
 10711 001c 02EA0303 		and	r3, r2, r3
 628:/home/cuil/workspace/arm/lm3s811/TI_Stellaris/driverlib/adc.c **** }
 10712              		.loc 1 628 0
 10713 0020 1846     		mov	r0, r3
 10714 0022 07F10C07 		add	r7, r7, #12
 10715 0026 BD46     		mov	sp, r7
 10716 0028 80BC     		pop	{r7}
 10717 002a 7047     		bx	lr
 10718              		.cfi_endproc
 10719              	.LFE10:
 10721              		.section	.text.ADCSequenceOverflowClear,"ax",%progbits
 10722              		.align	2
 10723              		.global	ADCSequenceOverflowClear
 10724              		.thumb
 10725              		.thumb_func
 10727              	ADCSequenceOverflowClear:
 10728              	.LFB11:
 629:/home/cuil/workspace/arm/lm3s811/TI_Stellaris/driverlib/adc.c **** 
 630:/home/cuil/workspace/arm/lm3s811/TI_Stellaris/driverlib/adc.c **** //*****************************************************************************
 631:/home/cuil/workspace/arm/lm3s811/TI_Stellaris/driverlib/adc.c **** //
 632:/home/cuil/workspace/arm/lm3s811/TI_Stellaris/driverlib/adc.c **** //! Clears the overflow condition on a sample sequence.
 633:/home/cuil/workspace/arm/lm3s811/TI_Stellaris/driverlib/adc.c **** //!
 634:/home/cuil/workspace/arm/lm3s811/TI_Stellaris/driverlib/adc.c **** //! \param ulBase is the base address of the ADC module.
 635:/home/cuil/workspace/arm/lm3s811/TI_Stellaris/driverlib/adc.c **** //! \param ulSequenceNum is the sample sequence number.
 636:/home/cuil/workspace/arm/lm3s811/TI_Stellaris/driverlib/adc.c **** //!
 637:/home/cuil/workspace/arm/lm3s811/TI_Stellaris/driverlib/adc.c **** //! This function clears an overflow condition on one of the sample sequences.
 638:/home/cuil/workspace/arm/lm3s811/TI_Stellaris/driverlib/adc.c **** //! The overflow condition must be cleared in order to detect a subsequent
 639:/home/cuil/workspace/arm/lm3s811/TI_Stellaris/driverlib/adc.c **** //! overflow condition (it otherwise causes no harm).
 640:/home/cuil/workspace/arm/lm3s811/TI_Stellaris/driverlib/adc.c **** //!
 641:/home/cuil/workspace/arm/lm3s811/TI_Stellaris/driverlib/adc.c **** //! \return None.
 642:/home/cuil/workspace/arm/lm3s811/TI_Stellaris/driverlib/adc.c **** //
 643:/home/cuil/workspace/arm/lm3s811/TI_Stellaris/driverlib/adc.c **** //*****************************************************************************
 644:/home/cuil/workspace/arm/lm3s811/TI_Stellaris/driverlib/adc.c **** void
 645:/home/cuil/workspace/arm/lm3s811/TI_Stellaris/driverlib/adc.c **** ADCSequenceOverflowClear(unsigned long ulBase, unsigned long ulSequenceNum)
 646:/home/cuil/workspace/arm/lm3s811/TI_Stellaris/driverlib/adc.c **** {
 10729              		.loc 1 646 0
 10730              		.cfi_startproc
 10731              		@ args = 0, pretend = 0, frame = 8
 10732              		@ frame_needed = 1, uses_anonymous_args = 0
 10733              		@ link register save eliminated.
 10734 0000 80B4     		push	{r7}
 10735              	.LCFI33:
 10736              		.cfi_def_cfa_offset 4
 10737 0002 83B0     		sub	sp, sp, #12
 10738              	.LCFI34:
 10739              		.cfi_def_cfa_offset 16
 10740 0004 00AF     		add	r7, sp, #0
 10741              		.cfi_offset 7, -4
 10742              	.LCFI35:
 10743              		.cfi_def_cfa_register 7
 10744 0006 7860     		str	r0, [r7, #4]
 10745 0008 3960     		str	r1, [r7, #0]
 647:/home/cuil/workspace/arm/lm3s811/TI_Stellaris/driverlib/adc.c ****     //
 648:/home/cuil/workspace/arm/lm3s811/TI_Stellaris/driverlib/adc.c ****     // Check the arguments.
 649:/home/cuil/workspace/arm/lm3s811/TI_Stellaris/driverlib/adc.c ****     //
 650:/home/cuil/workspace/arm/lm3s811/TI_Stellaris/driverlib/adc.c ****     ASSERT((ulBase == ADC0_BASE) || (ulBase == ADC1_BASE));
 651:/home/cuil/workspace/arm/lm3s811/TI_Stellaris/driverlib/adc.c ****     ASSERT(ulSequenceNum < 4);
 652:/home/cuil/workspace/arm/lm3s811/TI_Stellaris/driverlib/adc.c **** 
 653:/home/cuil/workspace/arm/lm3s811/TI_Stellaris/driverlib/adc.c ****     //
 654:/home/cuil/workspace/arm/lm3s811/TI_Stellaris/driverlib/adc.c ****     // Clear the overflow condition for this sequence.
 655:/home/cuil/workspace/arm/lm3s811/TI_Stellaris/driverlib/adc.c ****     //
 656:/home/cuil/workspace/arm/lm3s811/TI_Stellaris/driverlib/adc.c ****     HWREG(ulBase + ADC_O_OSTAT) = 1 << ulSequenceNum;
 10746              		.loc 1 656 0
 10747 000a 7B68     		ldr	r3, [r7, #4]
 10748 000c 03F11003 		add	r3, r3, #16
 10749 0010 3A68     		ldr	r2, [r7, #0]
 10750 0012 4FF00101 		mov	r1, #1
 10751 0016 01FA02F2 		lsl	r2, r1, r2
 10752 001a 1A60     		str	r2, [r3, #0]
 657:/home/cuil/workspace/arm/lm3s811/TI_Stellaris/driverlib/adc.c **** }
 10753              		.loc 1 657 0
 10754 001c 07F10C07 		add	r7, r7, #12
 10755 0020 BD46     		mov	sp, r7
 10756 0022 80BC     		pop	{r7}
 10757 0024 7047     		bx	lr
 10758              		.cfi_endproc
 10759              	.LFE11:
 10761 0026 00BF     		.section	.text.ADCSequenceUnderflow,"ax",%progbits
 10762              		.align	2
 10763              		.global	ADCSequenceUnderflow
 10764              		.thumb
 10765              		.thumb_func
 10767              	ADCSequenceUnderflow:
 10768              	.LFB12:
 658:/home/cuil/workspace/arm/lm3s811/TI_Stellaris/driverlib/adc.c **** 
 659:/home/cuil/workspace/arm/lm3s811/TI_Stellaris/driverlib/adc.c **** //*****************************************************************************
 660:/home/cuil/workspace/arm/lm3s811/TI_Stellaris/driverlib/adc.c **** //
 661:/home/cuil/workspace/arm/lm3s811/TI_Stellaris/driverlib/adc.c **** //! Determines if a sample sequence underflow occurred.
 662:/home/cuil/workspace/arm/lm3s811/TI_Stellaris/driverlib/adc.c **** //!
 663:/home/cuil/workspace/arm/lm3s811/TI_Stellaris/driverlib/adc.c **** //! \param ulBase is the base address of the ADC module.
 664:/home/cuil/workspace/arm/lm3s811/TI_Stellaris/driverlib/adc.c **** //! \param ulSequenceNum is the sample sequence number.
 665:/home/cuil/workspace/arm/lm3s811/TI_Stellaris/driverlib/adc.c **** //!
 666:/home/cuil/workspace/arm/lm3s811/TI_Stellaris/driverlib/adc.c **** //! This function determines if a sample sequence underflow has occurred.
 667:/home/cuil/workspace/arm/lm3s811/TI_Stellaris/driverlib/adc.c **** //! Underflow happens if too many samples are read from the FIFO.
 668:/home/cuil/workspace/arm/lm3s811/TI_Stellaris/driverlib/adc.c **** //!
 669:/home/cuil/workspace/arm/lm3s811/TI_Stellaris/driverlib/adc.c **** //! \return Returns zero if there was not an underflow, and non-zero if there
 670:/home/cuil/workspace/arm/lm3s811/TI_Stellaris/driverlib/adc.c **** //! was.
 671:/home/cuil/workspace/arm/lm3s811/TI_Stellaris/driverlib/adc.c **** //
 672:/home/cuil/workspace/arm/lm3s811/TI_Stellaris/driverlib/adc.c **** //*****************************************************************************
 673:/home/cuil/workspace/arm/lm3s811/TI_Stellaris/driverlib/adc.c **** long
 674:/home/cuil/workspace/arm/lm3s811/TI_Stellaris/driverlib/adc.c **** ADCSequenceUnderflow(unsigned long ulBase, unsigned long ulSequenceNum)
 675:/home/cuil/workspace/arm/lm3s811/TI_Stellaris/driverlib/adc.c **** {
 10769              		.loc 1 675 0
 10770              		.cfi_startproc
 10771              		@ args = 0, pretend = 0, frame = 8
 10772              		@ frame_needed = 1, uses_anonymous_args = 0
 10773              		@ link register save eliminated.
 10774 0000 80B4     		push	{r7}
 10775              	.LCFI36:
 10776              		.cfi_def_cfa_offset 4
 10777 0002 83B0     		sub	sp, sp, #12
 10778              	.LCFI37:
 10779              		.cfi_def_cfa_offset 16
 10780 0004 00AF     		add	r7, sp, #0
 10781              		.cfi_offset 7, -4
 10782              	.LCFI38:
 10783              		.cfi_def_cfa_register 7
 10784 0006 7860     		str	r0, [r7, #4]
 10785 0008 3960     		str	r1, [r7, #0]
 676:/home/cuil/workspace/arm/lm3s811/TI_Stellaris/driverlib/adc.c ****     //
 677:/home/cuil/workspace/arm/lm3s811/TI_Stellaris/driverlib/adc.c ****     // Check the arguments.
 678:/home/cuil/workspace/arm/lm3s811/TI_Stellaris/driverlib/adc.c ****     //
 679:/home/cuil/workspace/arm/lm3s811/TI_Stellaris/driverlib/adc.c ****     ASSERT((ulBase == ADC0_BASE) || (ulBase == ADC1_BASE));
 680:/home/cuil/workspace/arm/lm3s811/TI_Stellaris/driverlib/adc.c ****     ASSERT(ulSequenceNum < 4);
 681:/home/cuil/workspace/arm/lm3s811/TI_Stellaris/driverlib/adc.c **** 
 682:/home/cuil/workspace/arm/lm3s811/TI_Stellaris/driverlib/adc.c ****     //
 683:/home/cuil/workspace/arm/lm3s811/TI_Stellaris/driverlib/adc.c ****     // Determine if there was an underflow on this sequence.
 684:/home/cuil/workspace/arm/lm3s811/TI_Stellaris/driverlib/adc.c ****     //
 685:/home/cuil/workspace/arm/lm3s811/TI_Stellaris/driverlib/adc.c ****     return(HWREG(ulBase + ADC_O_USTAT) & (1 << ulSequenceNum));
 10786              		.loc 1 685 0
 10787 000a 7B68     		ldr	r3, [r7, #4]
 10788 000c 03F11803 		add	r3, r3, #24
 10789 0010 1A68     		ldr	r2, [r3, #0]
 10790 0012 3B68     		ldr	r3, [r7, #0]
 10791 0014 4FF00101 		mov	r1, #1
 10792 0018 01FA03F3 		lsl	r3, r1, r3
 10793 001c 02EA0303 		and	r3, r2, r3
 686:/home/cuil/workspace/arm/lm3s811/TI_Stellaris/driverlib/adc.c **** }
 10794              		.loc 1 686 0
 10795 0020 1846     		mov	r0, r3
 10796 0022 07F10C07 		add	r7, r7, #12
 10797 0026 BD46     		mov	sp, r7
 10798 0028 80BC     		pop	{r7}
 10799 002a 7047     		bx	lr
 10800              		.cfi_endproc
 10801              	.LFE12:
 10803              		.section	.text.ADCSequenceUnderflowClear,"ax",%progbits
 10804              		.align	2
 10805              		.global	ADCSequenceUnderflowClear
 10806              		.thumb
 10807              		.thumb_func
 10809              	ADCSequenceUnderflowClear:
 10810              	.LFB13:
 687:/home/cuil/workspace/arm/lm3s811/TI_Stellaris/driverlib/adc.c **** 
 688:/home/cuil/workspace/arm/lm3s811/TI_Stellaris/driverlib/adc.c **** //*****************************************************************************
 689:/home/cuil/workspace/arm/lm3s811/TI_Stellaris/driverlib/adc.c **** //
 690:/home/cuil/workspace/arm/lm3s811/TI_Stellaris/driverlib/adc.c **** //! Clears the underflow condition on a sample sequence.
 691:/home/cuil/workspace/arm/lm3s811/TI_Stellaris/driverlib/adc.c **** //!
 692:/home/cuil/workspace/arm/lm3s811/TI_Stellaris/driverlib/adc.c **** //! \param ulBase is the base address of the ADC module.
 693:/home/cuil/workspace/arm/lm3s811/TI_Stellaris/driverlib/adc.c **** //! \param ulSequenceNum is the sample sequence number.
 694:/home/cuil/workspace/arm/lm3s811/TI_Stellaris/driverlib/adc.c **** //!
 695:/home/cuil/workspace/arm/lm3s811/TI_Stellaris/driverlib/adc.c **** //! This function clears an underflow condition on one of the sample sequencers.
 696:/home/cuil/workspace/arm/lm3s811/TI_Stellaris/driverlib/adc.c **** //! The underflow condition must be cleared in order to detect a subsequent
 697:/home/cuil/workspace/arm/lm3s811/TI_Stellaris/driverlib/adc.c **** //! underflow condition (it otherwise causes no harm).
 698:/home/cuil/workspace/arm/lm3s811/TI_Stellaris/driverlib/adc.c **** //!
 699:/home/cuil/workspace/arm/lm3s811/TI_Stellaris/driverlib/adc.c **** //! \return None.
 700:/home/cuil/workspace/arm/lm3s811/TI_Stellaris/driverlib/adc.c **** //
 701:/home/cuil/workspace/arm/lm3s811/TI_Stellaris/driverlib/adc.c **** //*****************************************************************************
 702:/home/cuil/workspace/arm/lm3s811/TI_Stellaris/driverlib/adc.c **** void
 703:/home/cuil/workspace/arm/lm3s811/TI_Stellaris/driverlib/adc.c **** ADCSequenceUnderflowClear(unsigned long ulBase, unsigned long ulSequenceNum)
 704:/home/cuil/workspace/arm/lm3s811/TI_Stellaris/driverlib/adc.c **** {
 10811              		.loc 1 704 0
 10812              		.cfi_startproc
 10813              		@ args = 0, pretend = 0, frame = 8
 10814              		@ frame_needed = 1, uses_anonymous_args = 0
 10815              		@ link register save eliminated.
 10816 0000 80B4     		push	{r7}
 10817              	.LCFI39:
 10818              		.cfi_def_cfa_offset 4
 10819 0002 83B0     		sub	sp, sp, #12
 10820              	.LCFI40:
 10821              		.cfi_def_cfa_offset 16
 10822 0004 00AF     		add	r7, sp, #0
 10823              		.cfi_offset 7, -4
 10824              	.LCFI41:
 10825              		.cfi_def_cfa_register 7
 10826 0006 7860     		str	r0, [r7, #4]
 10827 0008 3960     		str	r1, [r7, #0]
 705:/home/cuil/workspace/arm/lm3s811/TI_Stellaris/driverlib/adc.c ****     //
 706:/home/cuil/workspace/arm/lm3s811/TI_Stellaris/driverlib/adc.c ****     // Check the arguments.
 707:/home/cuil/workspace/arm/lm3s811/TI_Stellaris/driverlib/adc.c ****     //
 708:/home/cuil/workspace/arm/lm3s811/TI_Stellaris/driverlib/adc.c ****     ASSERT((ulBase == ADC0_BASE) || (ulBase == ADC1_BASE));
 709:/home/cuil/workspace/arm/lm3s811/TI_Stellaris/driverlib/adc.c ****     ASSERT(ulSequenceNum < 4);
 710:/home/cuil/workspace/arm/lm3s811/TI_Stellaris/driverlib/adc.c **** 
 711:/home/cuil/workspace/arm/lm3s811/TI_Stellaris/driverlib/adc.c ****     //
 712:/home/cuil/workspace/arm/lm3s811/TI_Stellaris/driverlib/adc.c ****     // Clear the underflow condition for this sequence.
 713:/home/cuil/workspace/arm/lm3s811/TI_Stellaris/driverlib/adc.c ****     //
 714:/home/cuil/workspace/arm/lm3s811/TI_Stellaris/driverlib/adc.c ****     HWREG(ulBase + ADC_O_USTAT) = 1 << ulSequenceNum;
 10828              		.loc 1 714 0
 10829 000a 7B68     		ldr	r3, [r7, #4]
 10830 000c 03F11803 		add	r3, r3, #24
 10831 0010 3A68     		ldr	r2, [r7, #0]
 10832 0012 4FF00101 		mov	r1, #1
 10833 0016 01FA02F2 		lsl	r2, r1, r2
 10834 001a 1A60     		str	r2, [r3, #0]
 715:/home/cuil/workspace/arm/lm3s811/TI_Stellaris/driverlib/adc.c **** }
 10835              		.loc 1 715 0
 10836 001c 07F10C07 		add	r7, r7, #12
 10837 0020 BD46     		mov	sp, r7
 10838 0022 80BC     		pop	{r7}
 10839 0024 7047     		bx	lr
 10840              		.cfi_endproc
 10841              	.LFE13:
 10843 0026 00BF     		.section	.text.ADCSequenceDataGet,"ax",%progbits
 10844              		.align	2
 10845              		.global	ADCSequenceDataGet
 10846              		.thumb
 10847              		.thumb_func
 10849              	ADCSequenceDataGet:
 10850              	.LFB14:
 716:/home/cuil/workspace/arm/lm3s811/TI_Stellaris/driverlib/adc.c **** 
 717:/home/cuil/workspace/arm/lm3s811/TI_Stellaris/driverlib/adc.c **** //*****************************************************************************
 718:/home/cuil/workspace/arm/lm3s811/TI_Stellaris/driverlib/adc.c **** //
 719:/home/cuil/workspace/arm/lm3s811/TI_Stellaris/driverlib/adc.c **** //! Gets the captured data for a sample sequence.
 720:/home/cuil/workspace/arm/lm3s811/TI_Stellaris/driverlib/adc.c **** //!
 721:/home/cuil/workspace/arm/lm3s811/TI_Stellaris/driverlib/adc.c **** //! \param ulBase is the base address of the ADC module.
 722:/home/cuil/workspace/arm/lm3s811/TI_Stellaris/driverlib/adc.c **** //! \param ulSequenceNum is the sample sequence number.
 723:/home/cuil/workspace/arm/lm3s811/TI_Stellaris/driverlib/adc.c **** //! \param pulBuffer is the address where the data is stored.
 724:/home/cuil/workspace/arm/lm3s811/TI_Stellaris/driverlib/adc.c **** //!
 725:/home/cuil/workspace/arm/lm3s811/TI_Stellaris/driverlib/adc.c **** //! This function copies data from the specified sample sequencer output FIFO
 726:/home/cuil/workspace/arm/lm3s811/TI_Stellaris/driverlib/adc.c **** //! to a memory resident buffer.  The number of samples available in the
 727:/home/cuil/workspace/arm/lm3s811/TI_Stellaris/driverlib/adc.c **** //! hardware FIFO are copied into the buffer, which is assumed to be large
 728:/home/cuil/workspace/arm/lm3s811/TI_Stellaris/driverlib/adc.c **** //! enough to hold that many samples.  This function only returns the samples
 729:/home/cuil/workspace/arm/lm3s811/TI_Stellaris/driverlib/adc.c **** //! that are presently available, which may not be the entire sample sequence
 730:/home/cuil/workspace/arm/lm3s811/TI_Stellaris/driverlib/adc.c **** //! if it is in the process of being executed.
 731:/home/cuil/workspace/arm/lm3s811/TI_Stellaris/driverlib/adc.c **** //!
 732:/home/cuil/workspace/arm/lm3s811/TI_Stellaris/driverlib/adc.c **** //! \return Returns the number of samples copied to the buffer.
 733:/home/cuil/workspace/arm/lm3s811/TI_Stellaris/driverlib/adc.c **** //
 734:/home/cuil/workspace/arm/lm3s811/TI_Stellaris/driverlib/adc.c **** //*****************************************************************************
 735:/home/cuil/workspace/arm/lm3s811/TI_Stellaris/driverlib/adc.c **** long
 736:/home/cuil/workspace/arm/lm3s811/TI_Stellaris/driverlib/adc.c **** ADCSequenceDataGet(unsigned long ulBase, unsigned long ulSequenceNum,
 737:/home/cuil/workspace/arm/lm3s811/TI_Stellaris/driverlib/adc.c ****                    unsigned long *pulBuffer)
 738:/home/cuil/workspace/arm/lm3s811/TI_Stellaris/driverlib/adc.c **** {
 10851              		.loc 1 738 0
 10852              		.cfi_startproc
 10853              		@ args = 0, pretend = 0, frame = 24
 10854              		@ frame_needed = 1, uses_anonymous_args = 0
 10855              		@ link register save eliminated.
 10856 0000 80B4     		push	{r7}
 10857              	.LCFI42:
 10858              		.cfi_def_cfa_offset 4
 10859 0002 87B0     		sub	sp, sp, #28
 10860              	.LCFI43:
 10861              		.cfi_def_cfa_offset 32
 10862 0004 00AF     		add	r7, sp, #0
 10863              		.cfi_offset 7, -4
 10864              	.LCFI44:
 10865              		.cfi_def_cfa_register 7
 10866 0006 F860     		str	r0, [r7, #12]
 10867 0008 B960     		str	r1, [r7, #8]
 10868 000a 7A60     		str	r2, [r7, #4]
 739:/home/cuil/workspace/arm/lm3s811/TI_Stellaris/driverlib/adc.c ****     unsigned long ulCount;
 740:/home/cuil/workspace/arm/lm3s811/TI_Stellaris/driverlib/adc.c **** 
 741:/home/cuil/workspace/arm/lm3s811/TI_Stellaris/driverlib/adc.c ****     //
 742:/home/cuil/workspace/arm/lm3s811/TI_Stellaris/driverlib/adc.c ****     // Check the arguments.
 743:/home/cuil/workspace/arm/lm3s811/TI_Stellaris/driverlib/adc.c ****     //
 744:/home/cuil/workspace/arm/lm3s811/TI_Stellaris/driverlib/adc.c ****     ASSERT((ulBase == ADC0_BASE) || (ulBase == ADC1_BASE));
 745:/home/cuil/workspace/arm/lm3s811/TI_Stellaris/driverlib/adc.c ****     ASSERT(ulSequenceNum < 4);
 746:/home/cuil/workspace/arm/lm3s811/TI_Stellaris/driverlib/adc.c **** 
 747:/home/cuil/workspace/arm/lm3s811/TI_Stellaris/driverlib/adc.c ****     //
 748:/home/cuil/workspace/arm/lm3s811/TI_Stellaris/driverlib/adc.c ****     // Get the offset of the sequence to be read.
 749:/home/cuil/workspace/arm/lm3s811/TI_Stellaris/driverlib/adc.c ****     //
 750:/home/cuil/workspace/arm/lm3s811/TI_Stellaris/driverlib/adc.c ****     ulBase += ADC_SEQ + (ADC_SEQ_STEP * ulSequenceNum);
 10869              		.loc 1 750 0
 10870 000c BB68     		ldr	r3, [r7, #8]
 10871 000e 03F10203 		add	r3, r3, #2
 10872 0012 4FEA4313 		lsl	r3, r3, #5
 10873 0016 FA68     		ldr	r2, [r7, #12]
 10874 0018 D318     		adds	r3, r2, r3
 10875 001a FB60     		str	r3, [r7, #12]
 751:/home/cuil/workspace/arm/lm3s811/TI_Stellaris/driverlib/adc.c **** 
 752:/home/cuil/workspace/arm/lm3s811/TI_Stellaris/driverlib/adc.c ****     //
 753:/home/cuil/workspace/arm/lm3s811/TI_Stellaris/driverlib/adc.c ****     // Read samples from the FIFO until it is empty.
 754:/home/cuil/workspace/arm/lm3s811/TI_Stellaris/driverlib/adc.c ****     //
 755:/home/cuil/workspace/arm/lm3s811/TI_Stellaris/driverlib/adc.c ****     ulCount = 0;
 10876              		.loc 1 755 0
 10877 001c 4FF00003 		mov	r3, #0
 10878 0020 7B61     		str	r3, [r7, #20]
 756:/home/cuil/workspace/arm/lm3s811/TI_Stellaris/driverlib/adc.c ****     while(!(HWREG(ulBase + ADC_SSFSTAT) & ADC_SSFSTAT0_EMPTY) && (ulCount < 8))
 10879              		.loc 1 756 0
 10880 0022 0DE0     		b	.L28
 10881              	.L30:
 757:/home/cuil/workspace/arm/lm3s811/TI_Stellaris/driverlib/adc.c ****     {
 758:/home/cuil/workspace/arm/lm3s811/TI_Stellaris/driverlib/adc.c ****         //
 759:/home/cuil/workspace/arm/lm3s811/TI_Stellaris/driverlib/adc.c ****         // Read the FIFO and copy it to the destination.
 760:/home/cuil/workspace/arm/lm3s811/TI_Stellaris/driverlib/adc.c ****         //
 761:/home/cuil/workspace/arm/lm3s811/TI_Stellaris/driverlib/adc.c ****         *pulBuffer++ = HWREG(ulBase + ADC_SSFIFO);
 10882              		.loc 1 761 0
 10883 0024 FB68     		ldr	r3, [r7, #12]
 10884 0026 03F10803 		add	r3, r3, #8
 10885 002a 1A68     		ldr	r2, [r3, #0]
 10886 002c 7B68     		ldr	r3, [r7, #4]
 10887 002e 1A60     		str	r2, [r3, #0]
 10888 0030 7B68     		ldr	r3, [r7, #4]
 10889 0032 03F10403 		add	r3, r3, #4
 10890 0036 7B60     		str	r3, [r7, #4]
 762:/home/cuil/workspace/arm/lm3s811/TI_Stellaris/driverlib/adc.c **** 
 763:/home/cuil/workspace/arm/lm3s811/TI_Stellaris/driverlib/adc.c ****         //
 764:/home/cuil/workspace/arm/lm3s811/TI_Stellaris/driverlib/adc.c ****         // Increment the count of samples read.
 765:/home/cuil/workspace/arm/lm3s811/TI_Stellaris/driverlib/adc.c ****         //
 766:/home/cuil/workspace/arm/lm3s811/TI_Stellaris/driverlib/adc.c ****         ulCount++;
 10891              		.loc 1 766 0
 10892 0038 7B69     		ldr	r3, [r7, #20]
 10893 003a 03F10103 		add	r3, r3, #1
 10894 003e 7B61     		str	r3, [r7, #20]
 10895              	.L28:
 756:/home/cuil/workspace/arm/lm3s811/TI_Stellaris/driverlib/adc.c ****     while(!(HWREG(ulBase + ADC_SSFSTAT) & ADC_SSFSTAT0_EMPTY) && (ulCount < 8))
 10896              		.loc 1 756 0 discriminator 1
 10897 0040 FB68     		ldr	r3, [r7, #12]
 10898 0042 03F10C03 		add	r3, r3, #12
 10899 0046 1B68     		ldr	r3, [r3, #0]
 10900 0048 03F48073 		and	r3, r3, #256
 10901 004c 002B     		cmp	r3, #0
 10902 004e 02D1     		bne	.L29
 756:/home/cuil/workspace/arm/lm3s811/TI_Stellaris/driverlib/adc.c ****     while(!(HWREG(ulBase + ADC_SSFSTAT) & ADC_SSFSTAT0_EMPTY) && (ulCount < 8))
 10903              		.loc 1 756 0 is_stmt 0 discriminator 2
 10904 0050 7B69     		ldr	r3, [r7, #20]
 10905 0052 072B     		cmp	r3, #7
 10906 0054 E6D9     		bls	.L30
 10907              	.L29:
 767:/home/cuil/workspace/arm/lm3s811/TI_Stellaris/driverlib/adc.c ****     }
 768:/home/cuil/workspace/arm/lm3s811/TI_Stellaris/driverlib/adc.c **** 
 769:/home/cuil/workspace/arm/lm3s811/TI_Stellaris/driverlib/adc.c ****     //
 770:/home/cuil/workspace/arm/lm3s811/TI_Stellaris/driverlib/adc.c ****     // Return the number of samples read.
 771:/home/cuil/workspace/arm/lm3s811/TI_Stellaris/driverlib/adc.c ****     //
 772:/home/cuil/workspace/arm/lm3s811/TI_Stellaris/driverlib/adc.c ****     return(ulCount);
 10908              		.loc 1 772 0 is_stmt 1
 10909 0056 7B69     		ldr	r3, [r7, #20]
 773:/home/cuil/workspace/arm/lm3s811/TI_Stellaris/driverlib/adc.c **** }
 10910              		.loc 1 773 0
 10911 0058 1846     		mov	r0, r3
 10912 005a 07F11C07 		add	r7, r7, #28
 10913 005e BD46     		mov	sp, r7
 10914 0060 80BC     		pop	{r7}
 10915 0062 7047     		bx	lr
 10916              		.cfi_endproc
 10917              	.LFE14:
 10919              		.section	.text.ADCProcessorTrigger,"ax",%progbits
 10920              		.align	2
 10921              		.global	ADCProcessorTrigger
 10922              		.thumb
 10923              		.thumb_func
 10925              	ADCProcessorTrigger:
 10926              	.LFB15:
 774:/home/cuil/workspace/arm/lm3s811/TI_Stellaris/driverlib/adc.c **** 
 775:/home/cuil/workspace/arm/lm3s811/TI_Stellaris/driverlib/adc.c **** //*****************************************************************************
 776:/home/cuil/workspace/arm/lm3s811/TI_Stellaris/driverlib/adc.c **** //
 777:/home/cuil/workspace/arm/lm3s811/TI_Stellaris/driverlib/adc.c **** //! Causes a processor trigger for a sample sequence.
 778:/home/cuil/workspace/arm/lm3s811/TI_Stellaris/driverlib/adc.c **** //!
 779:/home/cuil/workspace/arm/lm3s811/TI_Stellaris/driverlib/adc.c **** //! \param ulBase is the base address of the ADC module.
 780:/home/cuil/workspace/arm/lm3s811/TI_Stellaris/driverlib/adc.c **** //! \param ulSequenceNum is the sample sequence number, with
 781:/home/cuil/workspace/arm/lm3s811/TI_Stellaris/driverlib/adc.c **** //! \b ADC_TRIGGER_WAIT or \b ADC_TRIGGER_SIGNAL optionally ORed into it.
 782:/home/cuil/workspace/arm/lm3s811/TI_Stellaris/driverlib/adc.c **** //!
 783:/home/cuil/workspace/arm/lm3s811/TI_Stellaris/driverlib/adc.c **** //! This function triggers a processor-initiated sample sequence if the sample
 784:/home/cuil/workspace/arm/lm3s811/TI_Stellaris/driverlib/adc.c **** //! sequence trigger is configured to \b ADC_TRIGGER_PROCESSOR.  If
 785:/home/cuil/workspace/arm/lm3s811/TI_Stellaris/driverlib/adc.c **** //! \b ADC_TRIGGER_WAIT is ORed into the sequence number, the
 786:/home/cuil/workspace/arm/lm3s811/TI_Stellaris/driverlib/adc.c **** //! processor-initiated trigger is delayed until a later processor-initiated
 787:/home/cuil/workspace/arm/lm3s811/TI_Stellaris/driverlib/adc.c **** //! trigger to a different ADC module that specifies \b ADC_TRIGGER_SIGNAL,
 788:/home/cuil/workspace/arm/lm3s811/TI_Stellaris/driverlib/adc.c **** //! allowing multiple ADCs to start from a processor-initiated trigger in a
 789:/home/cuil/workspace/arm/lm3s811/TI_Stellaris/driverlib/adc.c **** //! synchronous manner.
 790:/home/cuil/workspace/arm/lm3s811/TI_Stellaris/driverlib/adc.c **** //!
 791:/home/cuil/workspace/arm/lm3s811/TI_Stellaris/driverlib/adc.c **** //! \return None.
 792:/home/cuil/workspace/arm/lm3s811/TI_Stellaris/driverlib/adc.c **** //
 793:/home/cuil/workspace/arm/lm3s811/TI_Stellaris/driverlib/adc.c **** //*****************************************************************************
 794:/home/cuil/workspace/arm/lm3s811/TI_Stellaris/driverlib/adc.c **** void
 795:/home/cuil/workspace/arm/lm3s811/TI_Stellaris/driverlib/adc.c **** ADCProcessorTrigger(unsigned long ulBase, unsigned long ulSequenceNum)
 796:/home/cuil/workspace/arm/lm3s811/TI_Stellaris/driverlib/adc.c **** {
 10927              		.loc 1 796 0
 10928              		.cfi_startproc
 10929              		@ args = 0, pretend = 0, frame = 8
 10930              		@ frame_needed = 1, uses_anonymous_args = 0
 10931              		@ link register save eliminated.
 10932 0000 90B4     		push	{r4, r7}
 10933              	.LCFI45:
 10934              		.cfi_def_cfa_offset 8
 10935 0002 82B0     		sub	sp, sp, #8
 10936              	.LCFI46:
 10937              		.cfi_def_cfa_offset 16
 10938 0004 00AF     		add	r7, sp, #0
 10939              		.cfi_offset 7, -4
 10940              		.cfi_offset 4, -8
 10941              	.LCFI47:
 10942              		.cfi_def_cfa_register 7
 10943 0006 7860     		str	r0, [r7, #4]
 10944 0008 3960     		str	r1, [r7, #0]
 797:/home/cuil/workspace/arm/lm3s811/TI_Stellaris/driverlib/adc.c ****     //
 798:/home/cuil/workspace/arm/lm3s811/TI_Stellaris/driverlib/adc.c ****     // Check the arguments.
 799:/home/cuil/workspace/arm/lm3s811/TI_Stellaris/driverlib/adc.c ****     //
 800:/home/cuil/workspace/arm/lm3s811/TI_Stellaris/driverlib/adc.c ****     ASSERT((ulBase == ADC0_BASE) || (ulBase == ADC1_BASE));
 801:/home/cuil/workspace/arm/lm3s811/TI_Stellaris/driverlib/adc.c ****     ASSERT((ulSequenceNum & 0xf) < 4);
 802:/home/cuil/workspace/arm/lm3s811/TI_Stellaris/driverlib/adc.c **** 
 803:/home/cuil/workspace/arm/lm3s811/TI_Stellaris/driverlib/adc.c ****     //
 804:/home/cuil/workspace/arm/lm3s811/TI_Stellaris/driverlib/adc.c ****     // Generate a processor trigger for this sample sequence.
 805:/home/cuil/workspace/arm/lm3s811/TI_Stellaris/driverlib/adc.c ****     //
 806:/home/cuil/workspace/arm/lm3s811/TI_Stellaris/driverlib/adc.c ****     HWREG(ulBase + ADC_O_PSSI) |= ((ulSequenceNum & 0xffff0000) |
 10945              		.loc 1 806 0
 10946 000a 7B68     		ldr	r3, [r7, #4]
 10947 000c 03F12803 		add	r3, r3, #40
 10948 0010 1A46     		mov	r2, r3
 10949 0012 7B68     		ldr	r3, [r7, #4]
 10950 0014 03F12803 		add	r3, r3, #40
 10951 0018 1968     		ldr	r1, [r3, #0]
 10952 001a 3B68     		ldr	r3, [r7, #0]
 10953 001c 4FEA1343 		lsr	r3, r3, #16
 10954 0020 4FEA0343 		lsl	r3, r3, #16
 807:/home/cuil/workspace/arm/lm3s811/TI_Stellaris/driverlib/adc.c ****                                    (1 << (ulSequenceNum & 0xf)));
 10955              		.loc 1 807 0
 10956 0024 3868     		ldr	r0, [r7, #0]
 10957 0026 00F00F00 		and	r0, r0, #15
 10958 002a 4FF00104 		mov	r4, #1
 10959 002e 04FA00F0 		lsl	r0, r4, r0
 806:/home/cuil/workspace/arm/lm3s811/TI_Stellaris/driverlib/adc.c ****     HWREG(ulBase + ADC_O_PSSI) |= ((ulSequenceNum & 0xffff0000) |
 10960              		.loc 1 806 0
 10961 0032 0343     		orrs	r3, r3, r0
 10962 0034 41EA0303 		orr	r3, r1, r3
 10963 0038 1360     		str	r3, [r2, #0]
 808:/home/cuil/workspace/arm/lm3s811/TI_Stellaris/driverlib/adc.c **** }
 10964              		.loc 1 808 0
 10965 003a 07F10807 		add	r7, r7, #8
 10966 003e BD46     		mov	sp, r7
 10967 0040 90BC     		pop	{r4, r7}
 10968 0042 7047     		bx	lr
 10969              		.cfi_endproc
 10970              	.LFE15:
 10972              		.section	.text.ADCSoftwareOversampleConfigure,"ax",%progbits
 10973              		.align	2
 10974              		.global	ADCSoftwareOversampleConfigure
 10975              		.thumb
 10976              		.thumb_func
 10978              	ADCSoftwareOversampleConfigure:
 10979              	.LFB16:
 809:/home/cuil/workspace/arm/lm3s811/TI_Stellaris/driverlib/adc.c **** 
 810:/home/cuil/workspace/arm/lm3s811/TI_Stellaris/driverlib/adc.c **** //*****************************************************************************
 811:/home/cuil/workspace/arm/lm3s811/TI_Stellaris/driverlib/adc.c **** //
 812:/home/cuil/workspace/arm/lm3s811/TI_Stellaris/driverlib/adc.c **** //! Configures the software oversampling factor of the ADC.
 813:/home/cuil/workspace/arm/lm3s811/TI_Stellaris/driverlib/adc.c **** //!
 814:/home/cuil/workspace/arm/lm3s811/TI_Stellaris/driverlib/adc.c **** //! \param ulBase is the base address of the ADC module.
 815:/home/cuil/workspace/arm/lm3s811/TI_Stellaris/driverlib/adc.c **** //! \param ulSequenceNum is the sample sequence number.
 816:/home/cuil/workspace/arm/lm3s811/TI_Stellaris/driverlib/adc.c **** //! \param ulFactor is the number of samples to be averaged.
 817:/home/cuil/workspace/arm/lm3s811/TI_Stellaris/driverlib/adc.c **** //!
 818:/home/cuil/workspace/arm/lm3s811/TI_Stellaris/driverlib/adc.c **** //! This function configures the software oversampling for the ADC, which can
 819:/home/cuil/workspace/arm/lm3s811/TI_Stellaris/driverlib/adc.c **** //! be used to provide better resolution on the sampled data.  Oversampling is
 820:/home/cuil/workspace/arm/lm3s811/TI_Stellaris/driverlib/adc.c **** //! accomplished by averaging multiple samples from the same analog input.
 821:/home/cuil/workspace/arm/lm3s811/TI_Stellaris/driverlib/adc.c **** //! Three different oversampling rates are supported; 2x, 4x, and 8x.
 822:/home/cuil/workspace/arm/lm3s811/TI_Stellaris/driverlib/adc.c **** //!
 823:/home/cuil/workspace/arm/lm3s811/TI_Stellaris/driverlib/adc.c **** //! Oversampling is only supported on the sample sequencers that are more than
 824:/home/cuil/workspace/arm/lm3s811/TI_Stellaris/driverlib/adc.c **** //! one sample in depth (that is, the fourth sample sequencer is not
 825:/home/cuil/workspace/arm/lm3s811/TI_Stellaris/driverlib/adc.c **** //! supported).  Oversampling by 2x (for example) divides the depth of the
 826:/home/cuil/workspace/arm/lm3s811/TI_Stellaris/driverlib/adc.c **** //! sample sequencer by two; so 2x oversampling on the first sample sequencer
 827:/home/cuil/workspace/arm/lm3s811/TI_Stellaris/driverlib/adc.c **** //! can only provide four samples per trigger.  This also means that 8x
 828:/home/cuil/workspace/arm/lm3s811/TI_Stellaris/driverlib/adc.c **** //! oversampling is only available on the first sample sequencer.
 829:/home/cuil/workspace/arm/lm3s811/TI_Stellaris/driverlib/adc.c **** //!
 830:/home/cuil/workspace/arm/lm3s811/TI_Stellaris/driverlib/adc.c **** //! \return None.
 831:/home/cuil/workspace/arm/lm3s811/TI_Stellaris/driverlib/adc.c **** //
 832:/home/cuil/workspace/arm/lm3s811/TI_Stellaris/driverlib/adc.c **** //*****************************************************************************
 833:/home/cuil/workspace/arm/lm3s811/TI_Stellaris/driverlib/adc.c **** void
 834:/home/cuil/workspace/arm/lm3s811/TI_Stellaris/driverlib/adc.c **** ADCSoftwareOversampleConfigure(unsigned long ulBase,
 835:/home/cuil/workspace/arm/lm3s811/TI_Stellaris/driverlib/adc.c ****                                unsigned long ulSequenceNum,
 836:/home/cuil/workspace/arm/lm3s811/TI_Stellaris/driverlib/adc.c ****                                unsigned long ulFactor)
 837:/home/cuil/workspace/arm/lm3s811/TI_Stellaris/driverlib/adc.c **** {
 10980              		.loc 1 837 0
 10981              		.cfi_startproc
 10982              		@ args = 0, pretend = 0, frame = 24
 10983              		@ frame_needed = 1, uses_anonymous_args = 0
 10984              		@ link register save eliminated.
 10985 0000 80B4     		push	{r7}
 10986              	.LCFI48:
 10987              		.cfi_def_cfa_offset 4
 10988 0002 87B0     		sub	sp, sp, #28
 10989              	.LCFI49:
 10990              		.cfi_def_cfa_offset 32
 10991 0004 00AF     		add	r7, sp, #0
 10992              		.cfi_offset 7, -4
 10993              	.LCFI50:
 10994              		.cfi_def_cfa_register 7
 10995 0006 F860     		str	r0, [r7, #12]
 10996 0008 B960     		str	r1, [r7, #8]
 10997 000a 7A60     		str	r2, [r7, #4]
 838:/home/cuil/workspace/arm/lm3s811/TI_Stellaris/driverlib/adc.c ****     unsigned long ulValue;
 839:/home/cuil/workspace/arm/lm3s811/TI_Stellaris/driverlib/adc.c **** 
 840:/home/cuil/workspace/arm/lm3s811/TI_Stellaris/driverlib/adc.c ****     //
 841:/home/cuil/workspace/arm/lm3s811/TI_Stellaris/driverlib/adc.c ****     // Check the arguments.
 842:/home/cuil/workspace/arm/lm3s811/TI_Stellaris/driverlib/adc.c ****     //
 843:/home/cuil/workspace/arm/lm3s811/TI_Stellaris/driverlib/adc.c ****     ASSERT((ulBase == ADC0_BASE) || (ulBase == ADC1_BASE));
 844:/home/cuil/workspace/arm/lm3s811/TI_Stellaris/driverlib/adc.c ****     ASSERT(ulSequenceNum < 3);
 845:/home/cuil/workspace/arm/lm3s811/TI_Stellaris/driverlib/adc.c ****     ASSERT(((ulFactor == 2) || (ulFactor == 4) || (ulFactor == 8)) &&
 846:/home/cuil/workspace/arm/lm3s811/TI_Stellaris/driverlib/adc.c ****            ((ulSequenceNum == 0) || (ulFactor != 8)));
 847:/home/cuil/workspace/arm/lm3s811/TI_Stellaris/driverlib/adc.c **** 
 848:/home/cuil/workspace/arm/lm3s811/TI_Stellaris/driverlib/adc.c ****     //
 849:/home/cuil/workspace/arm/lm3s811/TI_Stellaris/driverlib/adc.c ****     // Convert the oversampling factor to a shift factor.
 850:/home/cuil/workspace/arm/lm3s811/TI_Stellaris/driverlib/adc.c ****     //
 851:/home/cuil/workspace/arm/lm3s811/TI_Stellaris/driverlib/adc.c ****     for(ulValue = 0, ulFactor >>= 1; ulFactor; ulValue++, ulFactor >>= 1)
 10998              		.loc 1 851 0
 10999 000c 4FF00003 		mov	r3, #0
 11000 0010 7B61     		str	r3, [r7, #20]
 11001 0012 7B68     		ldr	r3, [r7, #4]
 11002 0014 4FEA5303 		lsr	r3, r3, #1
 11003 0018 7B60     		str	r3, [r7, #4]
 11004 001a 07E0     		b	.L33
 11005              	.L34:
 11006              		.loc 1 851 0 is_stmt 0 discriminator 2
 11007 001c 7B69     		ldr	r3, [r7, #20]
 11008 001e 03F10103 		add	r3, r3, #1
 11009 0022 7B61     		str	r3, [r7, #20]
 11010 0024 7B68     		ldr	r3, [r7, #4]
 11011 0026 4FEA5303 		lsr	r3, r3, #1
 11012 002a 7B60     		str	r3, [r7, #4]
 11013              	.L33:
 11014              		.loc 1 851 0 discriminator 1
 11015 002c 7B68     		ldr	r3, [r7, #4]
 11016 002e 002B     		cmp	r3, #0
 11017 0030 F4D1     		bne	.L34
 852:/home/cuil/workspace/arm/lm3s811/TI_Stellaris/driverlib/adc.c ****     {
 853:/home/cuil/workspace/arm/lm3s811/TI_Stellaris/driverlib/adc.c ****     }
 854:/home/cuil/workspace/arm/lm3s811/TI_Stellaris/driverlib/adc.c **** 
 855:/home/cuil/workspace/arm/lm3s811/TI_Stellaris/driverlib/adc.c ****     //
 856:/home/cuil/workspace/arm/lm3s811/TI_Stellaris/driverlib/adc.c ****     // Save the sfiht factor.
 857:/home/cuil/workspace/arm/lm3s811/TI_Stellaris/driverlib/adc.c ****     //
 858:/home/cuil/workspace/arm/lm3s811/TI_Stellaris/driverlib/adc.c ****     g_pucOversampleFactor[ulSequenceNum] = ulValue;
 11018              		.loc 1 858 0 is_stmt 1
 11019 0032 7B69     		ldr	r3, [r7, #20]
 11020 0034 DAB2     		uxtb	r2, r3
 11021 0036 0449     		ldr	r1, .L35
 11022 0038 BB68     		ldr	r3, [r7, #8]
 11023 003a CB18     		adds	r3, r1, r3
 11024 003c 1A70     		strb	r2, [r3, #0]
 859:/home/cuil/workspace/arm/lm3s811/TI_Stellaris/driverlib/adc.c **** }
 11025              		.loc 1 859 0
 11026 003e 07F11C07 		add	r7, r7, #28
 11027 0042 BD46     		mov	sp, r7
 11028 0044 80BC     		pop	{r7}
 11029 0046 7047     		bx	lr
 11030              	.L36:
 11031              		.align	2
 11032              	.L35:
 11033 0048 00000000 		.word	g_pucOversampleFactor
 11034              		.cfi_endproc
 11035              	.LFE16:
 11037              		.section	.text.ADCSoftwareOversampleStepConfigure,"ax",%progbits
 11038              		.align	2
 11039              		.global	ADCSoftwareOversampleStepConfigure
 11040              		.thumb
 11041              		.thumb_func
 11043              	ADCSoftwareOversampleStepConfigure:
 11044              	.LFB17:
 860:/home/cuil/workspace/arm/lm3s811/TI_Stellaris/driverlib/adc.c **** 
 861:/home/cuil/workspace/arm/lm3s811/TI_Stellaris/driverlib/adc.c **** //*****************************************************************************
 862:/home/cuil/workspace/arm/lm3s811/TI_Stellaris/driverlib/adc.c **** //
 863:/home/cuil/workspace/arm/lm3s811/TI_Stellaris/driverlib/adc.c **** //! Configures a step of the software oversampled sequencer.
 864:/home/cuil/workspace/arm/lm3s811/TI_Stellaris/driverlib/adc.c **** //!
 865:/home/cuil/workspace/arm/lm3s811/TI_Stellaris/driverlib/adc.c **** //! \param ulBase is the base address of the ADC module.
 866:/home/cuil/workspace/arm/lm3s811/TI_Stellaris/driverlib/adc.c **** //! \param ulSequenceNum is the sample sequence number.
 867:/home/cuil/workspace/arm/lm3s811/TI_Stellaris/driverlib/adc.c **** //! \param ulStep is the step to be configured.
 868:/home/cuil/workspace/arm/lm3s811/TI_Stellaris/driverlib/adc.c **** //! \param ulConfig is the configuration of this step.
 869:/home/cuil/workspace/arm/lm3s811/TI_Stellaris/driverlib/adc.c **** //!
 870:/home/cuil/workspace/arm/lm3s811/TI_Stellaris/driverlib/adc.c **** //! This function configures a step of the sample sequencer when using the
 871:/home/cuil/workspace/arm/lm3s811/TI_Stellaris/driverlib/adc.c **** //! software oversampling feature.  The number of steps available depends on
 872:/home/cuil/workspace/arm/lm3s811/TI_Stellaris/driverlib/adc.c **** //! the oversampling factor set by ADCSoftwareOversampleConfigure().  The value
 873:/home/cuil/workspace/arm/lm3s811/TI_Stellaris/driverlib/adc.c **** //! of \e ulConfig is the same as defined for ADCSequenceStepConfigure().
 874:/home/cuil/workspace/arm/lm3s811/TI_Stellaris/driverlib/adc.c **** //!
 875:/home/cuil/workspace/arm/lm3s811/TI_Stellaris/driverlib/adc.c **** //! \return None.
 876:/home/cuil/workspace/arm/lm3s811/TI_Stellaris/driverlib/adc.c **** //
 877:/home/cuil/workspace/arm/lm3s811/TI_Stellaris/driverlib/adc.c **** //*****************************************************************************
 878:/home/cuil/workspace/arm/lm3s811/TI_Stellaris/driverlib/adc.c **** void
 879:/home/cuil/workspace/arm/lm3s811/TI_Stellaris/driverlib/adc.c **** ADCSoftwareOversampleStepConfigure(unsigned long ulBase,
 880:/home/cuil/workspace/arm/lm3s811/TI_Stellaris/driverlib/adc.c ****                                    unsigned long ulSequenceNum,
 881:/home/cuil/workspace/arm/lm3s811/TI_Stellaris/driverlib/adc.c ****                                    unsigned long ulStep,
 882:/home/cuil/workspace/arm/lm3s811/TI_Stellaris/driverlib/adc.c ****                                    unsigned long ulConfig)
 883:/home/cuil/workspace/arm/lm3s811/TI_Stellaris/driverlib/adc.c **** {
 11045              		.loc 1 883 0
 11046              		.cfi_startproc
 11047              		@ args = 0, pretend = 0, frame = 16
 11048              		@ frame_needed = 1, uses_anonymous_args = 0
 11049              		@ link register save eliminated.
 11050 0000 80B4     		push	{r7}
 11051              	.LCFI51:
 11052              		.cfi_def_cfa_offset 4
 11053 0002 85B0     		sub	sp, sp, #20
 11054              	.LCFI52:
 11055              		.cfi_def_cfa_offset 24
 11056 0004 00AF     		add	r7, sp, #0
 11057              		.cfi_offset 7, -4
 11058              	.LCFI53:
 11059              		.cfi_def_cfa_register 7
 11060 0006 F860     		str	r0, [r7, #12]
 11061 0008 B960     		str	r1, [r7, #8]
 11062 000a 7A60     		str	r2, [r7, #4]
 11063 000c 3B60     		str	r3, [r7, #0]
 884:/home/cuil/workspace/arm/lm3s811/TI_Stellaris/driverlib/adc.c ****     //
 885:/home/cuil/workspace/arm/lm3s811/TI_Stellaris/driverlib/adc.c ****     // Check the arguments.
 886:/home/cuil/workspace/arm/lm3s811/TI_Stellaris/driverlib/adc.c ****     //
 887:/home/cuil/workspace/arm/lm3s811/TI_Stellaris/driverlib/adc.c ****     ASSERT((ulBase == ADC0_BASE) || (ulBase == ADC1_BASE));
 888:/home/cuil/workspace/arm/lm3s811/TI_Stellaris/driverlib/adc.c ****     ASSERT(ulSequenceNum < 3);
 889:/home/cuil/workspace/arm/lm3s811/TI_Stellaris/driverlib/adc.c ****     ASSERT(((ulSequenceNum == 0) &&
 890:/home/cuil/workspace/arm/lm3s811/TI_Stellaris/driverlib/adc.c ****             (ulStep < (8 >> g_pucOversampleFactor[ulSequenceNum]))) ||
 891:/home/cuil/workspace/arm/lm3s811/TI_Stellaris/driverlib/adc.c ****            (ulStep < (4 >> g_pucOversampleFactor[ulSequenceNum])));
 892:/home/cuil/workspace/arm/lm3s811/TI_Stellaris/driverlib/adc.c **** 
 893:/home/cuil/workspace/arm/lm3s811/TI_Stellaris/driverlib/adc.c ****     //
 894:/home/cuil/workspace/arm/lm3s811/TI_Stellaris/driverlib/adc.c ****     // Get the offset of the sequence to be configured.
 895:/home/cuil/workspace/arm/lm3s811/TI_Stellaris/driverlib/adc.c ****     //
 896:/home/cuil/workspace/arm/lm3s811/TI_Stellaris/driverlib/adc.c ****     ulBase += ADC_SEQ + (ADC_SEQ_STEP * ulSequenceNum);
 11064              		.loc 1 896 0
 11065 000e BB68     		ldr	r3, [r7, #8]
 11066 0010 03F10203 		add	r3, r3, #2
 11067 0014 4FEA4313 		lsl	r3, r3, #5
 11068 0018 FA68     		ldr	r2, [r7, #12]
 11069 001a D318     		adds	r3, r2, r3
 11070 001c FB60     		str	r3, [r7, #12]
 897:/home/cuil/workspace/arm/lm3s811/TI_Stellaris/driverlib/adc.c **** 
 898:/home/cuil/workspace/arm/lm3s811/TI_Stellaris/driverlib/adc.c ****     //
 899:/home/cuil/workspace/arm/lm3s811/TI_Stellaris/driverlib/adc.c ****     // Compute the shift for the bits that control this step.
 900:/home/cuil/workspace/arm/lm3s811/TI_Stellaris/driverlib/adc.c ****     //
 901:/home/cuil/workspace/arm/lm3s811/TI_Stellaris/driverlib/adc.c ****     ulStep *= 4 << g_pucOversampleFactor[ulSequenceNum];
 11071              		.loc 1 901 0
 11072 001e 414A     		ldr	r2, .L41
 11073 0020 BB68     		ldr	r3, [r7, #8]
 11074 0022 D318     		adds	r3, r2, r3
 11075 0024 1B78     		ldrb	r3, [r3, #0]	@ zero_extendqisi2
 11076 0026 4FF00402 		mov	r2, #4
 11077 002a 02FA03F3 		lsl	r3, r2, r3
 11078 002e 1A46     		mov	r2, r3
 11079 0030 7B68     		ldr	r3, [r7, #4]
 11080 0032 02FB03F3 		mul	r3, r2, r3
 11081 0036 7B60     		str	r3, [r7, #4]
 902:/home/cuil/workspace/arm/lm3s811/TI_Stellaris/driverlib/adc.c **** 
 903:/home/cuil/workspace/arm/lm3s811/TI_Stellaris/driverlib/adc.c ****     //
 904:/home/cuil/workspace/arm/lm3s811/TI_Stellaris/driverlib/adc.c ****     // Loop through the hardware steps that make up this step of the software
 905:/home/cuil/workspace/arm/lm3s811/TI_Stellaris/driverlib/adc.c ****     // oversampled sequence.
 906:/home/cuil/workspace/arm/lm3s811/TI_Stellaris/driverlib/adc.c ****     //
 907:/home/cuil/workspace/arm/lm3s811/TI_Stellaris/driverlib/adc.c ****     for(ulSequenceNum = 1 << g_pucOversampleFactor[ulSequenceNum];
 11082              		.loc 1 907 0
 11083 0038 3A4A     		ldr	r2, .L41
 11084 003a BB68     		ldr	r3, [r7, #8]
 11085 003c D318     		adds	r3, r2, r3
 11086 003e 1B78     		ldrb	r3, [r3, #0]	@ zero_extendqisi2
 11087 0040 4FF00102 		mov	r2, #1
 11088 0044 02FA03F3 		lsl	r3, r2, r3
 11089 0048 BB60     		str	r3, [r7, #8]
 11090 004a 63E0     		b	.L38
 11091              	.L40:
 908:/home/cuil/workspace/arm/lm3s811/TI_Stellaris/driverlib/adc.c ****         ulSequenceNum; ulSequenceNum--)
 909:/home/cuil/workspace/arm/lm3s811/TI_Stellaris/driverlib/adc.c ****     {
 910:/home/cuil/workspace/arm/lm3s811/TI_Stellaris/driverlib/adc.c ****         //
 911:/home/cuil/workspace/arm/lm3s811/TI_Stellaris/driverlib/adc.c ****         // Set the analog mux value for this step.
 912:/home/cuil/workspace/arm/lm3s811/TI_Stellaris/driverlib/adc.c ****         //
 913:/home/cuil/workspace/arm/lm3s811/TI_Stellaris/driverlib/adc.c ****         HWREG(ulBase + ADC_SSMUX) = ((HWREG(ulBase + ADC_SSMUX) &
 11092              		.loc 1 913 0
 11093 004c FB68     		ldr	r3, [r7, #12]
 11094 004e FA68     		ldr	r2, [r7, #12]
 11095 0050 1168     		ldr	r1, [r2, #0]
 914:/home/cuil/workspace/arm/lm3s811/TI_Stellaris/driverlib/adc.c ****                                       ~(0x0000000f << ulStep)) |
 11096              		.loc 1 914 0
 11097 0052 7A68     		ldr	r2, [r7, #4]
 11098 0054 4FF00F00 		mov	r0, #15
 11099 0058 00FA02F2 		lsl	r2, r0, r2
 11100 005c 6FEA0202 		mvn	r2, r2
 913:/home/cuil/workspace/arm/lm3s811/TI_Stellaris/driverlib/adc.c ****         HWREG(ulBase + ADC_SSMUX) = ((HWREG(ulBase + ADC_SSMUX) &
 11101              		.loc 1 913 0
 11102 0060 1140     		ands	r1, r1, r2
 915:/home/cuil/workspace/arm/lm3s811/TI_Stellaris/driverlib/adc.c ****                                      ((ulConfig & 0x0f) << ulStep));
 11103              		.loc 1 915 0
 11104 0062 3A68     		ldr	r2, [r7, #0]
 11105 0064 02F00F00 		and	r0, r2, #15
 11106 0068 7A68     		ldr	r2, [r7, #4]
 11107 006a 00FA02F2 		lsl	r2, r0, r2
 914:/home/cuil/workspace/arm/lm3s811/TI_Stellaris/driverlib/adc.c ****                                       ~(0x0000000f << ulStep)) |
 11108              		.loc 1 914 0
 11109 006e 41EA0202 		orr	r2, r1, r2
 913:/home/cuil/workspace/arm/lm3s811/TI_Stellaris/driverlib/adc.c ****         HWREG(ulBase + ADC_SSMUX) = ((HWREG(ulBase + ADC_SSMUX) &
 11110              		.loc 1 913 0
 11111 0072 1A60     		str	r2, [r3, #0]
 916:/home/cuil/workspace/arm/lm3s811/TI_Stellaris/driverlib/adc.c **** 
 917:/home/cuil/workspace/arm/lm3s811/TI_Stellaris/driverlib/adc.c ****         //
 918:/home/cuil/workspace/arm/lm3s811/TI_Stellaris/driverlib/adc.c ****         // Set the upper bits of the analog mux value for this step.
 919:/home/cuil/workspace/arm/lm3s811/TI_Stellaris/driverlib/adc.c ****         //
 920:/home/cuil/workspace/arm/lm3s811/TI_Stellaris/driverlib/adc.c ****         HWREG(ulBase + ADC_SSEMUX) = ((HWREG(ulBase + ADC_SSEMUX) &
 11112              		.loc 1 920 0
 11113 0074 FB68     		ldr	r3, [r7, #12]
 11114 0076 03F11803 		add	r3, r3, #24
 11115 007a FA68     		ldr	r2, [r7, #12]
 11116 007c 02F11802 		add	r2, r2, #24
 11117 0080 1168     		ldr	r1, [r2, #0]
 921:/home/cuil/workspace/arm/lm3s811/TI_Stellaris/driverlib/adc.c ****                                       ~(0x0000000f << ulStep)) |
 11118              		.loc 1 921 0
 11119 0082 7A68     		ldr	r2, [r7, #4]
 11120 0084 4FF00F00 		mov	r0, #15
 11121 0088 00FA02F2 		lsl	r2, r0, r2
 11122 008c 6FEA0202 		mvn	r2, r2
 920:/home/cuil/workspace/arm/lm3s811/TI_Stellaris/driverlib/adc.c ****         HWREG(ulBase + ADC_SSEMUX) = ((HWREG(ulBase + ADC_SSEMUX) &
 11123              		.loc 1 920 0
 11124 0090 1140     		ands	r1, r1, r2
 922:/home/cuil/workspace/arm/lm3s811/TI_Stellaris/driverlib/adc.c ****                                       (((ulConfig & 0xf00) >> 8) << ulStep));
 11125              		.loc 1 922 0
 11126 0092 3A68     		ldr	r2, [r7, #0]
 11127 0094 02F47062 		and	r2, r2, #3840
 11128 0098 4FEA1220 		lsr	r0, r2, #8
 11129 009c 7A68     		ldr	r2, [r7, #4]
 11130 009e 00FA02F2 		lsl	r2, r0, r2
 921:/home/cuil/workspace/arm/lm3s811/TI_Stellaris/driverlib/adc.c ****                                       ~(0x0000000f << ulStep)) |
 11131              		.loc 1 921 0
 11132 00a2 41EA0202 		orr	r2, r1, r2
 920:/home/cuil/workspace/arm/lm3s811/TI_Stellaris/driverlib/adc.c ****         HWREG(ulBase + ADC_SSEMUX) = ((HWREG(ulBase + ADC_SSEMUX) &
 11133              		.loc 1 920 0
 11134 00a6 1A60     		str	r2, [r3, #0]
 923:/home/cuil/workspace/arm/lm3s811/TI_Stellaris/driverlib/adc.c **** 
 924:/home/cuil/workspace/arm/lm3s811/TI_Stellaris/driverlib/adc.c ****         //
 925:/home/cuil/workspace/arm/lm3s811/TI_Stellaris/driverlib/adc.c ****         // Set the control value for this step.
 926:/home/cuil/workspace/arm/lm3s811/TI_Stellaris/driverlib/adc.c ****         //
 927:/home/cuil/workspace/arm/lm3s811/TI_Stellaris/driverlib/adc.c ****         HWREG(ulBase + ADC_SSCTL) = ((HWREG(ulBase + ADC_SSCTL) &
 11135              		.loc 1 927 0
 11136 00a8 FB68     		ldr	r3, [r7, #12]
 11137 00aa 03F10403 		add	r3, r3, #4
 11138 00ae FA68     		ldr	r2, [r7, #12]
 11139 00b0 02F10402 		add	r2, r2, #4
 11140 00b4 1168     		ldr	r1, [r2, #0]
 928:/home/cuil/workspace/arm/lm3s811/TI_Stellaris/driverlib/adc.c ****                                       ~(0x0000000f << ulStep)) |
 11141              		.loc 1 928 0
 11142 00b6 7A68     		ldr	r2, [r7, #4]
 11143 00b8 4FF00F00 		mov	r0, #15
 11144 00bc 00FA02F2 		lsl	r2, r0, r2
 11145 00c0 6FEA0202 		mvn	r2, r2
 927:/home/cuil/workspace/arm/lm3s811/TI_Stellaris/driverlib/adc.c ****         HWREG(ulBase + ADC_SSCTL) = ((HWREG(ulBase + ADC_SSCTL) &
 11146              		.loc 1 927 0
 11147 00c4 1140     		ands	r1, r1, r2
 929:/home/cuil/workspace/arm/lm3s811/TI_Stellaris/driverlib/adc.c ****                                      (((ulConfig & 0xf0) >> 4) << ulStep));
 11148              		.loc 1 929 0
 11149 00c6 3A68     		ldr	r2, [r7, #0]
 11150 00c8 02F0F002 		and	r2, r2, #240
 11151 00cc 4FEA1210 		lsr	r0, r2, #4
 11152 00d0 7A68     		ldr	r2, [r7, #4]
 11153 00d2 00FA02F2 		lsl	r2, r0, r2
 928:/home/cuil/workspace/arm/lm3s811/TI_Stellaris/driverlib/adc.c ****                                       ~(0x0000000f << ulStep)) |
 11154              		.loc 1 928 0
 11155 00d6 41EA0202 		orr	r2, r1, r2
 927:/home/cuil/workspace/arm/lm3s811/TI_Stellaris/driverlib/adc.c ****         HWREG(ulBase + ADC_SSCTL) = ((HWREG(ulBase + ADC_SSCTL) &
 11156              		.loc 1 927 0
 11157 00da 1A60     		str	r2, [r3, #0]
 930:/home/cuil/workspace/arm/lm3s811/TI_Stellaris/driverlib/adc.c ****         if(ulSequenceNum != 1)
 11158              		.loc 1 930 0
 11159 00dc BB68     		ldr	r3, [r7, #8]
 11160 00de 012B     		cmp	r3, #1
 11161 00e0 10D0     		beq	.L39
 931:/home/cuil/workspace/arm/lm3s811/TI_Stellaris/driverlib/adc.c ****         {
 932:/home/cuil/workspace/arm/lm3s811/TI_Stellaris/driverlib/adc.c ****             HWREG(ulBase + ADC_SSCTL) &= ~((ADC_SSCTL0_IE0 |
 11162              		.loc 1 932 0
 11163 00e2 FB68     		ldr	r3, [r7, #12]
 11164 00e4 03F10403 		add	r3, r3, #4
 11165 00e8 FA68     		ldr	r2, [r7, #12]
 11166 00ea 02F10402 		add	r2, r2, #4
 11167 00ee 1168     		ldr	r1, [r2, #0]
 933:/home/cuil/workspace/arm/lm3s811/TI_Stellaris/driverlib/adc.c ****                                             ADC_SSCTL0_END0) << ulStep);
 11168              		.loc 1 933 0
 11169 00f0 7A68     		ldr	r2, [r7, #4]
 11170 00f2 4FF00600 		mov	r0, #6
 11171 00f6 00FA02F2 		lsl	r2, r0, r2
 932:/home/cuil/workspace/arm/lm3s811/TI_Stellaris/driverlib/adc.c ****             HWREG(ulBase + ADC_SSCTL) &= ~((ADC_SSCTL0_IE0 |
 11172              		.loc 1 932 0
 11173 00fa 6FEA0202 		mvn	r2, r2
 11174 00fe 01EA0202 		and	r2, r1, r2
 11175 0102 1A60     		str	r2, [r3, #0]
 11176              	.L39:
 934:/home/cuil/workspace/arm/lm3s811/TI_Stellaris/driverlib/adc.c ****         }
 935:/home/cuil/workspace/arm/lm3s811/TI_Stellaris/driverlib/adc.c **** 
 936:/home/cuil/workspace/arm/lm3s811/TI_Stellaris/driverlib/adc.c ****         //
 937:/home/cuil/workspace/arm/lm3s811/TI_Stellaris/driverlib/adc.c ****         // Go to the next hardware step.
 938:/home/cuil/workspace/arm/lm3s811/TI_Stellaris/driverlib/adc.c ****         //
 939:/home/cuil/workspace/arm/lm3s811/TI_Stellaris/driverlib/adc.c ****         ulStep += 4;
 11177              		.loc 1 939 0
 11178 0104 7B68     		ldr	r3, [r7, #4]
 11179 0106 03F10403 		add	r3, r3, #4
 11180 010a 7B60     		str	r3, [r7, #4]
 908:/home/cuil/workspace/arm/lm3s811/TI_Stellaris/driverlib/adc.c ****         ulSequenceNum; ulSequenceNum--)
 11181              		.loc 1 908 0
 11182 010c BB68     		ldr	r3, [r7, #8]
 11183 010e 03F1FF33 		add	r3, r3, #-1
 11184 0112 BB60     		str	r3, [r7, #8]
 11185              	.L38:
 907:/home/cuil/workspace/arm/lm3s811/TI_Stellaris/driverlib/adc.c ****     for(ulSequenceNum = 1 << g_pucOversampleFactor[ulSequenceNum];
 11186              		.loc 1 907 0 discriminator 1
 11187 0114 BB68     		ldr	r3, [r7, #8]
 11188 0116 002B     		cmp	r3, #0
 11189 0118 98D1     		bne	.L40
 940:/home/cuil/workspace/arm/lm3s811/TI_Stellaris/driverlib/adc.c ****     }
 941:/home/cuil/workspace/arm/lm3s811/TI_Stellaris/driverlib/adc.c **** }
 11190              		.loc 1 941 0
 11191 011a 07F11407 		add	r7, r7, #20
 11192 011e BD46     		mov	sp, r7
 11193 0120 80BC     		pop	{r7}
 11194 0122 7047     		bx	lr
 11195              	.L42:
 11196              		.align	2
 11197              	.L41:
 11198 0124 00000000 		.word	g_pucOversampleFactor
 11199              		.cfi_endproc
 11200              	.LFE17:
 11202              		.section	.text.ADCSoftwareOversampleDataGet,"ax",%progbits
 11203              		.align	2
 11204              		.global	ADCSoftwareOversampleDataGet
 11205              		.thumb
 11206              		.thumb_func
 11208              	ADCSoftwareOversampleDataGet:
 11209              	.LFB18:
 942:/home/cuil/workspace/arm/lm3s811/TI_Stellaris/driverlib/adc.c **** 
 943:/home/cuil/workspace/arm/lm3s811/TI_Stellaris/driverlib/adc.c **** //*****************************************************************************
 944:/home/cuil/workspace/arm/lm3s811/TI_Stellaris/driverlib/adc.c **** //
 945:/home/cuil/workspace/arm/lm3s811/TI_Stellaris/driverlib/adc.c **** //! Gets the captured data for a sample sequence using software oversampling.
 946:/home/cuil/workspace/arm/lm3s811/TI_Stellaris/driverlib/adc.c **** //!
 947:/home/cuil/workspace/arm/lm3s811/TI_Stellaris/driverlib/adc.c **** //! \param ulBase is the base address of the ADC module.
 948:/home/cuil/workspace/arm/lm3s811/TI_Stellaris/driverlib/adc.c **** //! \param ulSequenceNum is the sample sequence number.
 949:/home/cuil/workspace/arm/lm3s811/TI_Stellaris/driverlib/adc.c **** //! \param pulBuffer is the address where the data is stored.
 950:/home/cuil/workspace/arm/lm3s811/TI_Stellaris/driverlib/adc.c **** //! \param ulCount is the number of samples to be read.
 951:/home/cuil/workspace/arm/lm3s811/TI_Stellaris/driverlib/adc.c **** //!
 952:/home/cuil/workspace/arm/lm3s811/TI_Stellaris/driverlib/adc.c **** //! This function copies data from the specified sample sequence output FIFO to
 953:/home/cuil/workspace/arm/lm3s811/TI_Stellaris/driverlib/adc.c **** //! a memory resident buffer with software oversampling applied.  The requested
 954:/home/cuil/workspace/arm/lm3s811/TI_Stellaris/driverlib/adc.c **** //! number of samples are copied into the data buffer; if there are not enough
 955:/home/cuil/workspace/arm/lm3s811/TI_Stellaris/driverlib/adc.c **** //! samples in the hardware FIFO to satisfy this many oversampled data items,
 956:/home/cuil/workspace/arm/lm3s811/TI_Stellaris/driverlib/adc.c **** //! then incorrect results are returned.  It is the caller's responsibility to
 957:/home/cuil/workspace/arm/lm3s811/TI_Stellaris/driverlib/adc.c **** //! read only the samples that are available and wait until enough data is
 958:/home/cuil/workspace/arm/lm3s811/TI_Stellaris/driverlib/adc.c **** //! available, for example as a result of receiving an interrupt.
 959:/home/cuil/workspace/arm/lm3s811/TI_Stellaris/driverlib/adc.c **** //!
 960:/home/cuil/workspace/arm/lm3s811/TI_Stellaris/driverlib/adc.c **** //! \return None.
 961:/home/cuil/workspace/arm/lm3s811/TI_Stellaris/driverlib/adc.c **** //
 962:/home/cuil/workspace/arm/lm3s811/TI_Stellaris/driverlib/adc.c **** //*****************************************************************************
 963:/home/cuil/workspace/arm/lm3s811/TI_Stellaris/driverlib/adc.c **** void
 964:/home/cuil/workspace/arm/lm3s811/TI_Stellaris/driverlib/adc.c **** ADCSoftwareOversampleDataGet(unsigned long ulBase, unsigned long ulSequenceNum,
 965:/home/cuil/workspace/arm/lm3s811/TI_Stellaris/driverlib/adc.c ****                              unsigned long *pulBuffer, unsigned long ulCount)
 966:/home/cuil/workspace/arm/lm3s811/TI_Stellaris/driverlib/adc.c **** {
 11210              		.loc 1 966 0
 11211              		.cfi_startproc
 11212              		@ args = 0, pretend = 0, frame = 24
 11213              		@ frame_needed = 1, uses_anonymous_args = 0
 11214              		@ link register save eliminated.
 11215 0000 80B4     		push	{r7}
 11216              	.LCFI54:
 11217              		.cfi_def_cfa_offset 4
 11218 0002 87B0     		sub	sp, sp, #28
 11219              	.LCFI55:
 11220              		.cfi_def_cfa_offset 32
 11221 0004 00AF     		add	r7, sp, #0
 11222              		.cfi_offset 7, -4
 11223              	.LCFI56:
 11224              		.cfi_def_cfa_register 7
 11225 0006 F860     		str	r0, [r7, #12]
 11226 0008 B960     		str	r1, [r7, #8]
 11227 000a 7A60     		str	r2, [r7, #4]
 11228 000c 3B60     		str	r3, [r7, #0]
 967:/home/cuil/workspace/arm/lm3s811/TI_Stellaris/driverlib/adc.c ****     unsigned long ulIdx, ulAccum;
 968:/home/cuil/workspace/arm/lm3s811/TI_Stellaris/driverlib/adc.c **** 
 969:/home/cuil/workspace/arm/lm3s811/TI_Stellaris/driverlib/adc.c ****     //
 970:/home/cuil/workspace/arm/lm3s811/TI_Stellaris/driverlib/adc.c ****     // Check the arguments.
 971:/home/cuil/workspace/arm/lm3s811/TI_Stellaris/driverlib/adc.c ****     //
 972:/home/cuil/workspace/arm/lm3s811/TI_Stellaris/driverlib/adc.c ****     ASSERT((ulBase == ADC0_BASE) || (ulBase == ADC1_BASE));
 973:/home/cuil/workspace/arm/lm3s811/TI_Stellaris/driverlib/adc.c ****     ASSERT(ulSequenceNum < 3);
 974:/home/cuil/workspace/arm/lm3s811/TI_Stellaris/driverlib/adc.c ****     ASSERT(((ulSequenceNum == 0) &&
 975:/home/cuil/workspace/arm/lm3s811/TI_Stellaris/driverlib/adc.c ****             (ulCount < (8 >> g_pucOversampleFactor[ulSequenceNum]))) ||
 976:/home/cuil/workspace/arm/lm3s811/TI_Stellaris/driverlib/adc.c ****            (ulCount < (4 >> g_pucOversampleFactor[ulSequenceNum])));
 977:/home/cuil/workspace/arm/lm3s811/TI_Stellaris/driverlib/adc.c **** 
 978:/home/cuil/workspace/arm/lm3s811/TI_Stellaris/driverlib/adc.c ****     //
 979:/home/cuil/workspace/arm/lm3s811/TI_Stellaris/driverlib/adc.c ****     // Get the offset of the sequence to be read.
 980:/home/cuil/workspace/arm/lm3s811/TI_Stellaris/driverlib/adc.c ****     //
 981:/home/cuil/workspace/arm/lm3s811/TI_Stellaris/driverlib/adc.c ****     ulBase += ADC_SEQ + (ADC_SEQ_STEP * ulSequenceNum);
 11229              		.loc 1 981 0
 11230 000e BB68     		ldr	r3, [r7, #8]
 11231 0010 03F10203 		add	r3, r3, #2
 11232 0014 4FEA4313 		lsl	r3, r3, #5
 11233 0018 FA68     		ldr	r2, [r7, #12]
 11234 001a D318     		adds	r3, r2, r3
 11235 001c FB60     		str	r3, [r7, #12]
 982:/home/cuil/workspace/arm/lm3s811/TI_Stellaris/driverlib/adc.c **** 
 983:/home/cuil/workspace/arm/lm3s811/TI_Stellaris/driverlib/adc.c ****     //
 984:/home/cuil/workspace/arm/lm3s811/TI_Stellaris/driverlib/adc.c ****     // Read the samples from the FIFO until it is empty.
 985:/home/cuil/workspace/arm/lm3s811/TI_Stellaris/driverlib/adc.c ****     //
 986:/home/cuil/workspace/arm/lm3s811/TI_Stellaris/driverlib/adc.c ****     while(ulCount--)
 11236              		.loc 1 986 0
 11237 001e 27E0     		b	.L44
 11238              	.L47:
 987:/home/cuil/workspace/arm/lm3s811/TI_Stellaris/driverlib/adc.c ****     {
 988:/home/cuil/workspace/arm/lm3s811/TI_Stellaris/driverlib/adc.c ****         //
 989:/home/cuil/workspace/arm/lm3s811/TI_Stellaris/driverlib/adc.c ****         // Compute the sum of the samples.
 990:/home/cuil/workspace/arm/lm3s811/TI_Stellaris/driverlib/adc.c ****         //
 991:/home/cuil/workspace/arm/lm3s811/TI_Stellaris/driverlib/adc.c ****         ulAccum = 0;
 11239              		.loc 1 991 0
 11240 0020 4FF00003 		mov	r3, #0
 11241 0024 3B61     		str	r3, [r7, #16]
 992:/home/cuil/workspace/arm/lm3s811/TI_Stellaris/driverlib/adc.c ****         for(ulIdx = 1 << g_pucOversampleFactor[ulSequenceNum]; ulIdx; ulIdx--)
 11242              		.loc 1 992 0
 11243 0026 1B4A     		ldr	r2, .L48
 11244 0028 BB68     		ldr	r3, [r7, #8]
 11245 002a D318     		adds	r3, r2, r3
 11246 002c 1B78     		ldrb	r3, [r3, #0]	@ zero_extendqisi2
 11247 002e 4FF00102 		mov	r2, #1
 11248 0032 02FA03F3 		lsl	r3, r2, r3
 11249 0036 7B61     		str	r3, [r7, #20]
 11250 0038 0AE0     		b	.L45
 11251              	.L46:
 993:/home/cuil/workspace/arm/lm3s811/TI_Stellaris/driverlib/adc.c ****         {
 994:/home/cuil/workspace/arm/lm3s811/TI_Stellaris/driverlib/adc.c ****             //
 995:/home/cuil/workspace/arm/lm3s811/TI_Stellaris/driverlib/adc.c ****             // Read the FIFO and add it to the accumulator.
 996:/home/cuil/workspace/arm/lm3s811/TI_Stellaris/driverlib/adc.c ****             //
 997:/home/cuil/workspace/arm/lm3s811/TI_Stellaris/driverlib/adc.c ****             ulAccum += HWREG(ulBase + ADC_SSFIFO);
 11252              		.loc 1 997 0 discriminator 2
 11253 003a FB68     		ldr	r3, [r7, #12]
 11254 003c 03F10803 		add	r3, r3, #8
 11255 0040 1B68     		ldr	r3, [r3, #0]
 11256 0042 3A69     		ldr	r2, [r7, #16]
 11257 0044 D318     		adds	r3, r2, r3
 11258 0046 3B61     		str	r3, [r7, #16]
 992:/home/cuil/workspace/arm/lm3s811/TI_Stellaris/driverlib/adc.c ****         for(ulIdx = 1 << g_pucOversampleFactor[ulSequenceNum]; ulIdx; ulIdx--)
 11259              		.loc 1 992 0 discriminator 2
 11260 0048 7B69     		ldr	r3, [r7, #20]
 11261 004a 03F1FF33 		add	r3, r3, #-1
 11262 004e 7B61     		str	r3, [r7, #20]
 11263              	.L45:
 992:/home/cuil/workspace/arm/lm3s811/TI_Stellaris/driverlib/adc.c ****         for(ulIdx = 1 << g_pucOversampleFactor[ulSequenceNum]; ulIdx; ulIdx--)
 11264              		.loc 1 992 0 is_stmt 0 discriminator 1
 11265 0050 7B69     		ldr	r3, [r7, #20]
 11266 0052 002B     		cmp	r3, #0
 11267 0054 F1D1     		bne	.L46
 998:/home/cuil/workspace/arm/lm3s811/TI_Stellaris/driverlib/adc.c ****         }
 999:/home/cuil/workspace/arm/lm3s811/TI_Stellaris/driverlib/adc.c **** 
1000:/home/cuil/workspace/arm/lm3s811/TI_Stellaris/driverlib/adc.c ****         //
1001:/home/cuil/workspace/arm/lm3s811/TI_Stellaris/driverlib/adc.c ****         // Write the averaged sample to the output buffer.
1002:/home/cuil/workspace/arm/lm3s811/TI_Stellaris/driverlib/adc.c ****         //
1003:/home/cuil/workspace/arm/lm3s811/TI_Stellaris/driverlib/adc.c ****         *pulBuffer++ = ulAccum >> g_pucOversampleFactor[ulSequenceNum];
 11268              		.loc 1 1003 0 is_stmt 1
 11269 0056 0F4A     		ldr	r2, .L48
 11270 0058 BB68     		ldr	r3, [r7, #8]
 11271 005a D318     		adds	r3, r2, r3
 11272 005c 1B78     		ldrb	r3, [r3, #0]	@ zero_extendqisi2
 11273 005e 3A69     		ldr	r2, [r7, #16]
 11274 0060 22FA03F2 		lsr	r2, r2, r3
 11275 0064 7B68     		ldr	r3, [r7, #4]
 11276 0066 1A60     		str	r2, [r3, #0]
 11277 0068 7B68     		ldr	r3, [r7, #4]
 11278 006a 03F10403 		add	r3, r3, #4
 11279 006e 7B60     		str	r3, [r7, #4]
 11280              	.L44:
 986:/home/cuil/workspace/arm/lm3s811/TI_Stellaris/driverlib/adc.c ****     while(ulCount--)
 11281              		.loc 1 986 0 discriminator 1
 11282 0070 3B68     		ldr	r3, [r7, #0]
 11283 0072 002B     		cmp	r3, #0
 11284 0074 0CBF     		ite	eq
 11285 0076 0023     		moveq	r3, #0
 11286 0078 0123     		movne	r3, #1
 11287 007a DBB2     		uxtb	r3, r3
 11288 007c 3A68     		ldr	r2, [r7, #0]
 11289 007e 02F1FF32 		add	r2, r2, #-1
 11290 0082 3A60     		str	r2, [r7, #0]
 11291 0084 002B     		cmp	r3, #0
 11292 0086 CBD1     		bne	.L47
1004:/home/cuil/workspace/arm/lm3s811/TI_Stellaris/driverlib/adc.c ****     }
1005:/home/cuil/workspace/arm/lm3s811/TI_Stellaris/driverlib/adc.c **** }
 11293              		.loc 1 1005 0
 11294 0088 07F11C07 		add	r7, r7, #28
 11295 008c BD46     		mov	sp, r7
 11296 008e 80BC     		pop	{r7}
 11297 0090 7047     		bx	lr
 11298              	.L49:
 11299 0092 00BF     		.align	2
 11300              	.L48:
 11301 0094 00000000 		.word	g_pucOversampleFactor
 11302              		.cfi_endproc
 11303              	.LFE18:
 11305              		.section	.text.ADCHardwareOversampleConfigure,"ax",%progbits
 11306              		.align	2
 11307              		.global	ADCHardwareOversampleConfigure
 11308              		.thumb
 11309              		.thumb_func
 11311              	ADCHardwareOversampleConfigure:
 11312              	.LFB19:
1006:/home/cuil/workspace/arm/lm3s811/TI_Stellaris/driverlib/adc.c **** 
1007:/home/cuil/workspace/arm/lm3s811/TI_Stellaris/driverlib/adc.c **** //*****************************************************************************
1008:/home/cuil/workspace/arm/lm3s811/TI_Stellaris/driverlib/adc.c **** //
1009:/home/cuil/workspace/arm/lm3s811/TI_Stellaris/driverlib/adc.c **** //! Configures the hardware oversampling factor of the ADC.
1010:/home/cuil/workspace/arm/lm3s811/TI_Stellaris/driverlib/adc.c **** //!
1011:/home/cuil/workspace/arm/lm3s811/TI_Stellaris/driverlib/adc.c **** //! \param ulBase is the base address of the ADC module.
1012:/home/cuil/workspace/arm/lm3s811/TI_Stellaris/driverlib/adc.c **** //! \param ulFactor is the number of samples to be averaged.
1013:/home/cuil/workspace/arm/lm3s811/TI_Stellaris/driverlib/adc.c **** //!
1014:/home/cuil/workspace/arm/lm3s811/TI_Stellaris/driverlib/adc.c **** //! This function configures the hardware oversampling for the ADC, which can
1015:/home/cuil/workspace/arm/lm3s811/TI_Stellaris/driverlib/adc.c **** //! be used to provide better resolution on the sampled data.  Oversampling is
1016:/home/cuil/workspace/arm/lm3s811/TI_Stellaris/driverlib/adc.c **** //! accomplished by averaging multiple samples from the same analog input.  Six
1017:/home/cuil/workspace/arm/lm3s811/TI_Stellaris/driverlib/adc.c **** //! different oversampling rates are supported; 2x, 4x, 8x, 16x, 32x, and 64x.
1018:/home/cuil/workspace/arm/lm3s811/TI_Stellaris/driverlib/adc.c **** //! Specifying an oversampling factor of zero disables hardware
1019:/home/cuil/workspace/arm/lm3s811/TI_Stellaris/driverlib/adc.c **** //! oversampling.
1020:/home/cuil/workspace/arm/lm3s811/TI_Stellaris/driverlib/adc.c **** //!
1021:/home/cuil/workspace/arm/lm3s811/TI_Stellaris/driverlib/adc.c **** //! Hardware oversampling applies uniformly to all sample sequencers.  It does
1022:/home/cuil/workspace/arm/lm3s811/TI_Stellaris/driverlib/adc.c **** //! not reduce the depth of the sample sequencers like the software
1023:/home/cuil/workspace/arm/lm3s811/TI_Stellaris/driverlib/adc.c **** //! oversampling APIs; each sample written into the sample sequencer FIFO is a
1024:/home/cuil/workspace/arm/lm3s811/TI_Stellaris/driverlib/adc.c **** //! fully oversampled analog input reading.
1025:/home/cuil/workspace/arm/lm3s811/TI_Stellaris/driverlib/adc.c **** //!
1026:/home/cuil/workspace/arm/lm3s811/TI_Stellaris/driverlib/adc.c **** //! Enabling hardware averaging increases the precision of the ADC at the cost
1027:/home/cuil/workspace/arm/lm3s811/TI_Stellaris/driverlib/adc.c **** //! of throughput.  For example, enabling 4x oversampling reduces the
1028:/home/cuil/workspace/arm/lm3s811/TI_Stellaris/driverlib/adc.c **** //! throughput of a 250 Ksps ADC to 62.5 Ksps.
1029:/home/cuil/workspace/arm/lm3s811/TI_Stellaris/driverlib/adc.c **** //!
1030:/home/cuil/workspace/arm/lm3s811/TI_Stellaris/driverlib/adc.c **** //! \return None.
1031:/home/cuil/workspace/arm/lm3s811/TI_Stellaris/driverlib/adc.c **** //
1032:/home/cuil/workspace/arm/lm3s811/TI_Stellaris/driverlib/adc.c **** //*****************************************************************************
1033:/home/cuil/workspace/arm/lm3s811/TI_Stellaris/driverlib/adc.c **** void
1034:/home/cuil/workspace/arm/lm3s811/TI_Stellaris/driverlib/adc.c **** ADCHardwareOversampleConfigure(unsigned long ulBase, unsigned long ulFactor)
1035:/home/cuil/workspace/arm/lm3s811/TI_Stellaris/driverlib/adc.c **** {
 11313              		.loc 1 1035 0
 11314              		.cfi_startproc
 11315              		@ args = 0, pretend = 0, frame = 16
 11316              		@ frame_needed = 1, uses_anonymous_args = 0
 11317              		@ link register save eliminated.
 11318 0000 80B4     		push	{r7}
 11319              	.LCFI57:
 11320              		.cfi_def_cfa_offset 4
 11321 0002 85B0     		sub	sp, sp, #20
 11322              	.LCFI58:
 11323              		.cfi_def_cfa_offset 24
 11324 0004 00AF     		add	r7, sp, #0
 11325              		.cfi_offset 7, -4
 11326              	.LCFI59:
 11327              		.cfi_def_cfa_register 7
 11328 0006 7860     		str	r0, [r7, #4]
 11329 0008 3960     		str	r1, [r7, #0]
1036:/home/cuil/workspace/arm/lm3s811/TI_Stellaris/driverlib/adc.c ****     unsigned long ulValue;
1037:/home/cuil/workspace/arm/lm3s811/TI_Stellaris/driverlib/adc.c **** 
1038:/home/cuil/workspace/arm/lm3s811/TI_Stellaris/driverlib/adc.c ****     //
1039:/home/cuil/workspace/arm/lm3s811/TI_Stellaris/driverlib/adc.c ****     // Check the arguments.
1040:/home/cuil/workspace/arm/lm3s811/TI_Stellaris/driverlib/adc.c ****     //
1041:/home/cuil/workspace/arm/lm3s811/TI_Stellaris/driverlib/adc.c ****     ASSERT((ulBase == ADC0_BASE) || (ulBase == ADC1_BASE));
1042:/home/cuil/workspace/arm/lm3s811/TI_Stellaris/driverlib/adc.c ****     ASSERT(((ulFactor == 0) || (ulFactor == 2) || (ulFactor == 4) ||
1043:/home/cuil/workspace/arm/lm3s811/TI_Stellaris/driverlib/adc.c ****            (ulFactor == 8) || (ulFactor == 16) || (ulFactor == 32) ||
1044:/home/cuil/workspace/arm/lm3s811/TI_Stellaris/driverlib/adc.c ****            (ulFactor == 64)));
1045:/home/cuil/workspace/arm/lm3s811/TI_Stellaris/driverlib/adc.c **** 
1046:/home/cuil/workspace/arm/lm3s811/TI_Stellaris/driverlib/adc.c ****     //
1047:/home/cuil/workspace/arm/lm3s811/TI_Stellaris/driverlib/adc.c ****     // Convert the oversampling factor to a shift factor.
1048:/home/cuil/workspace/arm/lm3s811/TI_Stellaris/driverlib/adc.c ****     //
1049:/home/cuil/workspace/arm/lm3s811/TI_Stellaris/driverlib/adc.c ****     for(ulValue = 0, ulFactor >>= 1; ulFactor; ulValue++, ulFactor >>= 1)
 11330              		.loc 1 1049 0
 11331 000a 4FF00003 		mov	r3, #0
 11332 000e FB60     		str	r3, [r7, #12]
 11333 0010 3B68     		ldr	r3, [r7, #0]
 11334 0012 4FEA5303 		lsr	r3, r3, #1
 11335 0016 3B60     		str	r3, [r7, #0]
 11336 0018 07E0     		b	.L51
 11337              	.L52:
 11338              		.loc 1 1049 0 is_stmt 0 discriminator 2
 11339 001a FB68     		ldr	r3, [r7, #12]
 11340 001c 03F10103 		add	r3, r3, #1
 11341 0020 FB60     		str	r3, [r7, #12]
 11342 0022 3B68     		ldr	r3, [r7, #0]
 11343 0024 4FEA5303 		lsr	r3, r3, #1
 11344 0028 3B60     		str	r3, [r7, #0]
 11345              	.L51:
 11346              		.loc 1 1049 0 discriminator 1
 11347 002a 3B68     		ldr	r3, [r7, #0]
 11348 002c 002B     		cmp	r3, #0
 11349 002e F4D1     		bne	.L52
1050:/home/cuil/workspace/arm/lm3s811/TI_Stellaris/driverlib/adc.c ****     {
1051:/home/cuil/workspace/arm/lm3s811/TI_Stellaris/driverlib/adc.c ****     }
1052:/home/cuil/workspace/arm/lm3s811/TI_Stellaris/driverlib/adc.c **** 
1053:/home/cuil/workspace/arm/lm3s811/TI_Stellaris/driverlib/adc.c ****     //
1054:/home/cuil/workspace/arm/lm3s811/TI_Stellaris/driverlib/adc.c ****     // Write the shift factor to the ADC to configure the hardware oversampler.
1055:/home/cuil/workspace/arm/lm3s811/TI_Stellaris/driverlib/adc.c ****     //
1056:/home/cuil/workspace/arm/lm3s811/TI_Stellaris/driverlib/adc.c ****     HWREG(ulBase + ADC_O_SAC) = ulValue;
 11350              		.loc 1 1056 0 is_stmt 1
 11351 0030 7B68     		ldr	r3, [r7, #4]
 11352 0032 03F13003 		add	r3, r3, #48
 11353 0036 FA68     		ldr	r2, [r7, #12]
 11354 0038 1A60     		str	r2, [r3, #0]
1057:/home/cuil/workspace/arm/lm3s811/TI_Stellaris/driverlib/adc.c **** }
 11355              		.loc 1 1057 0
 11356 003a 07F11407 		add	r7, r7, #20
 11357 003e BD46     		mov	sp, r7
 11358 0040 80BC     		pop	{r7}
 11359 0042 7047     		bx	lr
 11360              		.cfi_endproc
 11361              	.LFE19:
 11363              		.section	.text.ADCComparatorConfigure,"ax",%progbits
 11364              		.align	2
 11365              		.global	ADCComparatorConfigure
 11366              		.thumb
 11367              		.thumb_func
 11369              	ADCComparatorConfigure:
 11370              	.LFB20:
1058:/home/cuil/workspace/arm/lm3s811/TI_Stellaris/driverlib/adc.c **** 
1059:/home/cuil/workspace/arm/lm3s811/TI_Stellaris/driverlib/adc.c **** //*****************************************************************************
1060:/home/cuil/workspace/arm/lm3s811/TI_Stellaris/driverlib/adc.c **** //
1061:/home/cuil/workspace/arm/lm3s811/TI_Stellaris/driverlib/adc.c **** //! Configures an ADC digital comparator.
1062:/home/cuil/workspace/arm/lm3s811/TI_Stellaris/driverlib/adc.c **** //!
1063:/home/cuil/workspace/arm/lm3s811/TI_Stellaris/driverlib/adc.c **** //! \param ulBase is the base address of the ADC module.
1064:/home/cuil/workspace/arm/lm3s811/TI_Stellaris/driverlib/adc.c **** //! \param ulComp is the index of the comparator to configure.
1065:/home/cuil/workspace/arm/lm3s811/TI_Stellaris/driverlib/adc.c **** //! \param ulConfig is the configuration of the comparator.
1066:/home/cuil/workspace/arm/lm3s811/TI_Stellaris/driverlib/adc.c **** //!
1067:/home/cuil/workspace/arm/lm3s811/TI_Stellaris/driverlib/adc.c **** //! This function configures a comparator.  The \e ulConfig parameter is
1068:/home/cuil/workspace/arm/lm3s811/TI_Stellaris/driverlib/adc.c **** //! the result of a logical OR operation between the \b ADC_COMP_TRIG_xxx, and
1069:/home/cuil/workspace/arm/lm3s811/TI_Stellaris/driverlib/adc.c **** //! \b ADC_COMP_INT_xxx values.
1070:/home/cuil/workspace/arm/lm3s811/TI_Stellaris/driverlib/adc.c **** //!
1071:/home/cuil/workspace/arm/lm3s811/TI_Stellaris/driverlib/adc.c **** //! The \b ADC_COMP_TRIG_xxx term can take on the following values:
1072:/home/cuil/workspace/arm/lm3s811/TI_Stellaris/driverlib/adc.c **** //!
1073:/home/cuil/workspace/arm/lm3s811/TI_Stellaris/driverlib/adc.c **** //! - \b ADC_COMP_TRIG_NONE to never trigger PWM fault condition.
1074:/home/cuil/workspace/arm/lm3s811/TI_Stellaris/driverlib/adc.c **** //! - \b ADC_COMP_TRIG_LOW_ALWAYS to always trigger PWM fault condition when
1075:/home/cuil/workspace/arm/lm3s811/TI_Stellaris/driverlib/adc.c **** //! ADC output is in the low-band.
1076:/home/cuil/workspace/arm/lm3s811/TI_Stellaris/driverlib/adc.c **** //! - \b ADC_COMP_TRIG_LOW_ONCE to trigger PWM fault condition once when ADC
1077:/home/cuil/workspace/arm/lm3s811/TI_Stellaris/driverlib/adc.c **** //! output transitions into the low-band.
1078:/home/cuil/workspace/arm/lm3s811/TI_Stellaris/driverlib/adc.c **** //! - \b ADC_COMP_TRIG_LOW_HALWAYS to always trigger PWM fault condition when
1079:/home/cuil/workspace/arm/lm3s811/TI_Stellaris/driverlib/adc.c **** //! ADC output is in the low-band only if ADC output has been in the high-band
1080:/home/cuil/workspace/arm/lm3s811/TI_Stellaris/driverlib/adc.c **** //! since the last trigger output.
1081:/home/cuil/workspace/arm/lm3s811/TI_Stellaris/driverlib/adc.c **** //! - \b ADC_COMP_TRIG_LOW_HONCE to trigger PWM fault condition once when ADC
1082:/home/cuil/workspace/arm/lm3s811/TI_Stellaris/driverlib/adc.c **** //! output transitions into low-band only if ADC output has been in the
1083:/home/cuil/workspace/arm/lm3s811/TI_Stellaris/driverlib/adc.c **** //! high-band since the last trigger output.
1084:/home/cuil/workspace/arm/lm3s811/TI_Stellaris/driverlib/adc.c **** //! - \b ADC_COMP_TRIG_MID_ALWAYS to always trigger PWM fault condition when
1085:/home/cuil/workspace/arm/lm3s811/TI_Stellaris/driverlib/adc.c **** //! ADC output is in the mid-band.
1086:/home/cuil/workspace/arm/lm3s811/TI_Stellaris/driverlib/adc.c **** //! - \b ADC_COMP_TRIG_MID_ONCE to trigger PWM fault condition once when ADC
1087:/home/cuil/workspace/arm/lm3s811/TI_Stellaris/driverlib/adc.c **** //! output transitions into the mid-band.
1088:/home/cuil/workspace/arm/lm3s811/TI_Stellaris/driverlib/adc.c **** //! - \b ADC_COMP_TRIG_HIGH_ALWAYS to always trigger PWM fault condition when
1089:/home/cuil/workspace/arm/lm3s811/TI_Stellaris/driverlib/adc.c **** //! ADC output is in the high-band.
1090:/home/cuil/workspace/arm/lm3s811/TI_Stellaris/driverlib/adc.c **** //! - \b ADC_COMP_TRIG_HIGH_ONCE to trigger PWM fault condition once when ADC
1091:/home/cuil/workspace/arm/lm3s811/TI_Stellaris/driverlib/adc.c **** //! output transitions into the high-band.
1092:/home/cuil/workspace/arm/lm3s811/TI_Stellaris/driverlib/adc.c **** //! - \b ADC_COMP_TRIG_HIGH_HALWAYS to always trigger PWM fault condition when
1093:/home/cuil/workspace/arm/lm3s811/TI_Stellaris/driverlib/adc.c **** //! ADC output is in the high-band only if ADC output has been in the low-band
1094:/home/cuil/workspace/arm/lm3s811/TI_Stellaris/driverlib/adc.c **** //! since the last trigger output.
1095:/home/cuil/workspace/arm/lm3s811/TI_Stellaris/driverlib/adc.c **** //! - \b ADC_COMP_TRIG_HIGH_HONCE to trigger PWM fault condition once when ADC
1096:/home/cuil/workspace/arm/lm3s811/TI_Stellaris/driverlib/adc.c **** //! output transitions into high-band only if ADC output has been in the
1097:/home/cuil/workspace/arm/lm3s811/TI_Stellaris/driverlib/adc.c **** //! low-band since the last trigger output.
1098:/home/cuil/workspace/arm/lm3s811/TI_Stellaris/driverlib/adc.c **** //!
1099:/home/cuil/workspace/arm/lm3s811/TI_Stellaris/driverlib/adc.c **** //! The \b ADC_COMP_INT_xxx term can take on the following values:
1100:/home/cuil/workspace/arm/lm3s811/TI_Stellaris/driverlib/adc.c **** //!
1101:/home/cuil/workspace/arm/lm3s811/TI_Stellaris/driverlib/adc.c **** //! - \b ADC_COMP_INT_NONE to never generate ADC interrupt.
1102:/home/cuil/workspace/arm/lm3s811/TI_Stellaris/driverlib/adc.c **** //! - \b ADC_COMP_INT_LOW_ALWAYS to always generate ADC interrupt when ADC
1103:/home/cuil/workspace/arm/lm3s811/TI_Stellaris/driverlib/adc.c **** //! output is in the low-band.
1104:/home/cuil/workspace/arm/lm3s811/TI_Stellaris/driverlib/adc.c **** //! - \b ADC_COMP_INT_LOW_ONCE to generate ADC interrupt once when ADC output
1105:/home/cuil/workspace/arm/lm3s811/TI_Stellaris/driverlib/adc.c **** //! transitions into the low-band.
1106:/home/cuil/workspace/arm/lm3s811/TI_Stellaris/driverlib/adc.c **** //! - \b ADC_COMP__INT_LOW_HALWAYS to always generate ADC interrupt when ADC
1107:/home/cuil/workspace/arm/lm3s811/TI_Stellaris/driverlib/adc.c **** //! output is in the low-band only if ADC output has been in the high-band
1108:/home/cuil/workspace/arm/lm3s811/TI_Stellaris/driverlib/adc.c **** //! since the last trigger output.
1109:/home/cuil/workspace/arm/lm3s811/TI_Stellaris/driverlib/adc.c **** //! - \b ADC_COMP_INT_LOW_HONCE to generate ADC interrupt once when ADC output
1110:/home/cuil/workspace/arm/lm3s811/TI_Stellaris/driverlib/adc.c **** //! transitions into low-band only if ADC output has been in the high-band
1111:/home/cuil/workspace/arm/lm3s811/TI_Stellaris/driverlib/adc.c **** //! since the last trigger output.
1112:/home/cuil/workspace/arm/lm3s811/TI_Stellaris/driverlib/adc.c **** //! - \b ADC_COMP_INT_MID_ALWAYS to always generate ADC interrupt when ADC
1113:/home/cuil/workspace/arm/lm3s811/TI_Stellaris/driverlib/adc.c **** //! output is in the mid-band.
1114:/home/cuil/workspace/arm/lm3s811/TI_Stellaris/driverlib/adc.c **** //! - \b ADC_COMP_INT_MID_ONCE to generate ADC interrupt once when ADC output
1115:/home/cuil/workspace/arm/lm3s811/TI_Stellaris/driverlib/adc.c **** //! transitions into the mid-band.
1116:/home/cuil/workspace/arm/lm3s811/TI_Stellaris/driverlib/adc.c **** //! - \b ADC_COMP_INT_HIGH_ALWAYS to always generate ADC interrupt when ADC
1117:/home/cuil/workspace/arm/lm3s811/TI_Stellaris/driverlib/adc.c **** //! output is in the high-band.
1118:/home/cuil/workspace/arm/lm3s811/TI_Stellaris/driverlib/adc.c **** //! - \b ADC_COMP_INT_HIGH_ONCE to generate ADC interrupt once when ADC output
1119:/home/cuil/workspace/arm/lm3s811/TI_Stellaris/driverlib/adc.c **** //! transitions into the high-band.
1120:/home/cuil/workspace/arm/lm3s811/TI_Stellaris/driverlib/adc.c **** //! - \b ADC_COMP_INT_HIGH_HALWAYS to always generate ADC interrupt when ADC
1121:/home/cuil/workspace/arm/lm3s811/TI_Stellaris/driverlib/adc.c **** //! output is in the high-band only if ADC output has been in the low-band
1122:/home/cuil/workspace/arm/lm3s811/TI_Stellaris/driverlib/adc.c **** //! since the last trigger output.
1123:/home/cuil/workspace/arm/lm3s811/TI_Stellaris/driverlib/adc.c **** //! - \b ADC_COMP_INT_HIGH_HONCE to generate ADC interrupt once when ADC output
1124:/home/cuil/workspace/arm/lm3s811/TI_Stellaris/driverlib/adc.c **** //! transitions into high-band only if ADC output has been in the low-band
1125:/home/cuil/workspace/arm/lm3s811/TI_Stellaris/driverlib/adc.c **** //! since the last trigger output.
1126:/home/cuil/workspace/arm/lm3s811/TI_Stellaris/driverlib/adc.c **** //!
1127:/home/cuil/workspace/arm/lm3s811/TI_Stellaris/driverlib/adc.c **** //! \return None.
1128:/home/cuil/workspace/arm/lm3s811/TI_Stellaris/driverlib/adc.c **** //
1129:/home/cuil/workspace/arm/lm3s811/TI_Stellaris/driverlib/adc.c **** //*****************************************************************************
1130:/home/cuil/workspace/arm/lm3s811/TI_Stellaris/driverlib/adc.c **** void
1131:/home/cuil/workspace/arm/lm3s811/TI_Stellaris/driverlib/adc.c **** ADCComparatorConfigure(unsigned long ulBase, unsigned long ulComp,
1132:/home/cuil/workspace/arm/lm3s811/TI_Stellaris/driverlib/adc.c ****                        unsigned long ulConfig)
1133:/home/cuil/workspace/arm/lm3s811/TI_Stellaris/driverlib/adc.c **** {
 11371              		.loc 1 1133 0
 11372              		.cfi_startproc
 11373              		@ args = 0, pretend = 0, frame = 16
 11374              		@ frame_needed = 1, uses_anonymous_args = 0
 11375              		@ link register save eliminated.
 11376 0000 80B4     		push	{r7}
 11377              	.LCFI60:
 11378              		.cfi_def_cfa_offset 4
 11379 0002 85B0     		sub	sp, sp, #20
 11380              	.LCFI61:
 11381              		.cfi_def_cfa_offset 24
 11382 0004 00AF     		add	r7, sp, #0
 11383              		.cfi_offset 7, -4
 11384              	.LCFI62:
 11385              		.cfi_def_cfa_register 7
 11386 0006 F860     		str	r0, [r7, #12]
 11387 0008 B960     		str	r1, [r7, #8]
 11388 000a 7A60     		str	r2, [r7, #4]
1134:/home/cuil/workspace/arm/lm3s811/TI_Stellaris/driverlib/adc.c ****     //
1135:/home/cuil/workspace/arm/lm3s811/TI_Stellaris/driverlib/adc.c ****     // Check the arguments.
1136:/home/cuil/workspace/arm/lm3s811/TI_Stellaris/driverlib/adc.c ****     //
1137:/home/cuil/workspace/arm/lm3s811/TI_Stellaris/driverlib/adc.c ****     ASSERT((ulBase == ADC0_BASE) || (ulBase == ADC1_BASE));
1138:/home/cuil/workspace/arm/lm3s811/TI_Stellaris/driverlib/adc.c ****     ASSERT(ulComp < 8);
1139:/home/cuil/workspace/arm/lm3s811/TI_Stellaris/driverlib/adc.c **** 
1140:/home/cuil/workspace/arm/lm3s811/TI_Stellaris/driverlib/adc.c ****     //
1141:/home/cuil/workspace/arm/lm3s811/TI_Stellaris/driverlib/adc.c ****     // Save the new setting.
1142:/home/cuil/workspace/arm/lm3s811/TI_Stellaris/driverlib/adc.c ****     //
1143:/home/cuil/workspace/arm/lm3s811/TI_Stellaris/driverlib/adc.c ****     HWREG(ulBase + ADC_O_DCCTL0 + (ulComp * 4)) = ulConfig;
 11389              		.loc 1 1143 0
 11390 000c BB68     		ldr	r3, [r7, #8]
 11391 000e 4FEA8302 		lsl	r2, r3, #2
 11392 0012 FB68     		ldr	r3, [r7, #12]
 11393 0014 D318     		adds	r3, r2, r3
 11394 0016 03F56063 		add	r3, r3, #3584
 11395 001a 7A68     		ldr	r2, [r7, #4]
 11396 001c 1A60     		str	r2, [r3, #0]
1144:/home/cuil/workspace/arm/lm3s811/TI_Stellaris/driverlib/adc.c **** }
 11397              		.loc 1 1144 0
 11398 001e 07F11407 		add	r7, r7, #20
 11399 0022 BD46     		mov	sp, r7
 11400 0024 80BC     		pop	{r7}
 11401 0026 7047     		bx	lr
 11402              		.cfi_endproc
 11403              	.LFE20:
 11405              		.section	.text.ADCComparatorRegionSet,"ax",%progbits
 11406              		.align	2
 11407              		.global	ADCComparatorRegionSet
 11408              		.thumb
 11409              		.thumb_func
 11411              	ADCComparatorRegionSet:
 11412              	.LFB21:
1145:/home/cuil/workspace/arm/lm3s811/TI_Stellaris/driverlib/adc.c **** 
1146:/home/cuil/workspace/arm/lm3s811/TI_Stellaris/driverlib/adc.c **** //*****************************************************************************
1147:/home/cuil/workspace/arm/lm3s811/TI_Stellaris/driverlib/adc.c **** //
1148:/home/cuil/workspace/arm/lm3s811/TI_Stellaris/driverlib/adc.c **** //! Defines the ADC digital comparator regions.
1149:/home/cuil/workspace/arm/lm3s811/TI_Stellaris/driverlib/adc.c **** //!
1150:/home/cuil/workspace/arm/lm3s811/TI_Stellaris/driverlib/adc.c **** //! \param ulBase is the base address of the ADC module.
1151:/home/cuil/workspace/arm/lm3s811/TI_Stellaris/driverlib/adc.c **** //! \param ulComp is the index of the comparator to configure.
1152:/home/cuil/workspace/arm/lm3s811/TI_Stellaris/driverlib/adc.c **** //! \param ulLowRef is the reference point for the low/mid band threshold.
1153:/home/cuil/workspace/arm/lm3s811/TI_Stellaris/driverlib/adc.c **** //! \param ulHighRef is the reference point for the mid/high band threshold.
1154:/home/cuil/workspace/arm/lm3s811/TI_Stellaris/driverlib/adc.c **** //!
1155:/home/cuil/workspace/arm/lm3s811/TI_Stellaris/driverlib/adc.c **** //! The ADC digital comparator operation is based on three ADC value regions:
1156:/home/cuil/workspace/arm/lm3s811/TI_Stellaris/driverlib/adc.c **** //! - \b low-band is defined as any ADC value less than or equal to the
1157:/home/cuil/workspace/arm/lm3s811/TI_Stellaris/driverlib/adc.c **** //! \e ulLowRef value.
1158:/home/cuil/workspace/arm/lm3s811/TI_Stellaris/driverlib/adc.c **** //! - \b mid-band is defined as any ADC value greater than the \e ulLowRef
1159:/home/cuil/workspace/arm/lm3s811/TI_Stellaris/driverlib/adc.c **** //! value but less than or equal to the \e ulHighRef value.
1160:/home/cuil/workspace/arm/lm3s811/TI_Stellaris/driverlib/adc.c **** //! - \b high-band is defined as any ADC value greater than the \e ulHighRef
1161:/home/cuil/workspace/arm/lm3s811/TI_Stellaris/driverlib/adc.c **** //! value.
1162:/home/cuil/workspace/arm/lm3s811/TI_Stellaris/driverlib/adc.c **** //!
1163:/home/cuil/workspace/arm/lm3s811/TI_Stellaris/driverlib/adc.c **** //! \return None.
1164:/home/cuil/workspace/arm/lm3s811/TI_Stellaris/driverlib/adc.c **** //
1165:/home/cuil/workspace/arm/lm3s811/TI_Stellaris/driverlib/adc.c **** //*****************************************************************************
1166:/home/cuil/workspace/arm/lm3s811/TI_Stellaris/driverlib/adc.c **** void
1167:/home/cuil/workspace/arm/lm3s811/TI_Stellaris/driverlib/adc.c **** ADCComparatorRegionSet(unsigned long ulBase, unsigned long ulComp,
1168:/home/cuil/workspace/arm/lm3s811/TI_Stellaris/driverlib/adc.c ****                        unsigned long ulLowRef, unsigned long ulHighRef)
1169:/home/cuil/workspace/arm/lm3s811/TI_Stellaris/driverlib/adc.c **** {
 11413              		.loc 1 1169 0
 11414              		.cfi_startproc
 11415              		@ args = 0, pretend = 0, frame = 16
 11416              		@ frame_needed = 1, uses_anonymous_args = 0
 11417              		@ link register save eliminated.
 11418 0000 80B4     		push	{r7}
 11419              	.LCFI63:
 11420              		.cfi_def_cfa_offset 4
 11421 0002 85B0     		sub	sp, sp, #20
 11422              	.LCFI64:
 11423              		.cfi_def_cfa_offset 24
 11424 0004 00AF     		add	r7, sp, #0
 11425              		.cfi_offset 7, -4
 11426              	.LCFI65:
 11427              		.cfi_def_cfa_register 7
 11428 0006 F860     		str	r0, [r7, #12]
 11429 0008 B960     		str	r1, [r7, #8]
 11430 000a 7A60     		str	r2, [r7, #4]
 11431 000c 3B60     		str	r3, [r7, #0]
1170:/home/cuil/workspace/arm/lm3s811/TI_Stellaris/driverlib/adc.c ****     //
1171:/home/cuil/workspace/arm/lm3s811/TI_Stellaris/driverlib/adc.c ****     // Check the arguments.
1172:/home/cuil/workspace/arm/lm3s811/TI_Stellaris/driverlib/adc.c ****     //
1173:/home/cuil/workspace/arm/lm3s811/TI_Stellaris/driverlib/adc.c ****     ASSERT((ulBase == ADC0_BASE) || (ulBase == ADC1_BASE));
1174:/home/cuil/workspace/arm/lm3s811/TI_Stellaris/driverlib/adc.c ****     ASSERT(ulComp < 8);
1175:/home/cuil/workspace/arm/lm3s811/TI_Stellaris/driverlib/adc.c ****     ASSERT((ulLowRef < 1024) && (ulLowRef <= ulHighRef));
1176:/home/cuil/workspace/arm/lm3s811/TI_Stellaris/driverlib/adc.c ****     ASSERT(ulHighRef < 1024);
1177:/home/cuil/workspace/arm/lm3s811/TI_Stellaris/driverlib/adc.c **** 
1178:/home/cuil/workspace/arm/lm3s811/TI_Stellaris/driverlib/adc.c ****     //
1179:/home/cuil/workspace/arm/lm3s811/TI_Stellaris/driverlib/adc.c ****     // Save the new region settings.
1180:/home/cuil/workspace/arm/lm3s811/TI_Stellaris/driverlib/adc.c ****     //
1181:/home/cuil/workspace/arm/lm3s811/TI_Stellaris/driverlib/adc.c ****     HWREG(ulBase + ADC_O_DCCMP0 + (ulComp * 4)) = (ulHighRef << 16) | ulLowRef;
 11432              		.loc 1 1181 0
 11433 000e BB68     		ldr	r3, [r7, #8]
 11434 0010 4FEA8302 		lsl	r2, r3, #2
 11435 0014 FB68     		ldr	r3, [r7, #12]
 11436 0016 D318     		adds	r3, r2, r3
 11437 0018 03F56463 		add	r3, r3, #3648
 11438 001c 3A68     		ldr	r2, [r7, #0]
 11439 001e 4FEA0241 		lsl	r1, r2, #16
 11440 0022 7A68     		ldr	r2, [r7, #4]
 11441 0024 41EA0202 		orr	r2, r1, r2
 11442 0028 1A60     		str	r2, [r3, #0]
1182:/home/cuil/workspace/arm/lm3s811/TI_Stellaris/driverlib/adc.c **** }
 11443              		.loc 1 1182 0
 11444 002a 07F11407 		add	r7, r7, #20
 11445 002e BD46     		mov	sp, r7
 11446 0030 80BC     		pop	{r7}
 11447 0032 7047     		bx	lr
 11448              		.cfi_endproc
 11449              	.LFE21:
 11451              		.section	.text.ADCComparatorReset,"ax",%progbits
 11452              		.align	2
 11453              		.global	ADCComparatorReset
 11454              		.thumb
 11455              		.thumb_func
 11457              	ADCComparatorReset:
 11458              	.LFB22:
1183:/home/cuil/workspace/arm/lm3s811/TI_Stellaris/driverlib/adc.c **** 
1184:/home/cuil/workspace/arm/lm3s811/TI_Stellaris/driverlib/adc.c **** //*****************************************************************************
1185:/home/cuil/workspace/arm/lm3s811/TI_Stellaris/driverlib/adc.c **** //
1186:/home/cuil/workspace/arm/lm3s811/TI_Stellaris/driverlib/adc.c **** //! Resets the current ADC digital comparator conditions.
1187:/home/cuil/workspace/arm/lm3s811/TI_Stellaris/driverlib/adc.c **** //!
1188:/home/cuil/workspace/arm/lm3s811/TI_Stellaris/driverlib/adc.c **** //! \param ulBase is the base address of the ADC module.
1189:/home/cuil/workspace/arm/lm3s811/TI_Stellaris/driverlib/adc.c **** //! \param ulComp is the index of the comparator.
1190:/home/cuil/workspace/arm/lm3s811/TI_Stellaris/driverlib/adc.c **** //! \param bTrigger is the flag to indicate reset of Trigger conditions.
1191:/home/cuil/workspace/arm/lm3s811/TI_Stellaris/driverlib/adc.c **** //! \param bInterrupt is the flag to indicate reset of Interrupt conditions.
1192:/home/cuil/workspace/arm/lm3s811/TI_Stellaris/driverlib/adc.c **** //!
1193:/home/cuil/workspace/arm/lm3s811/TI_Stellaris/driverlib/adc.c **** //! Because the digital comparator uses current and previous ADC values, this
1194:/home/cuil/workspace/arm/lm3s811/TI_Stellaris/driverlib/adc.c **** //! function allows the comparator to be reset to its initial
1195:/home/cuil/workspace/arm/lm3s811/TI_Stellaris/driverlib/adc.c **** //! value to prevent stale data from being used when a sequence is enabled.
1196:/home/cuil/workspace/arm/lm3s811/TI_Stellaris/driverlib/adc.c **** //!
1197:/home/cuil/workspace/arm/lm3s811/TI_Stellaris/driverlib/adc.c **** //! \return None.
1198:/home/cuil/workspace/arm/lm3s811/TI_Stellaris/driverlib/adc.c **** //
1199:/home/cuil/workspace/arm/lm3s811/TI_Stellaris/driverlib/adc.c **** //*****************************************************************************
1200:/home/cuil/workspace/arm/lm3s811/TI_Stellaris/driverlib/adc.c **** void
1201:/home/cuil/workspace/arm/lm3s811/TI_Stellaris/driverlib/adc.c **** ADCComparatorReset(unsigned long ulBase, unsigned long ulComp,
1202:/home/cuil/workspace/arm/lm3s811/TI_Stellaris/driverlib/adc.c ****                    tBoolean bTrigger, tBoolean bInterrupt)
1203:/home/cuil/workspace/arm/lm3s811/TI_Stellaris/driverlib/adc.c **** {
 11459              		.loc 1 1203 0
 11460              		.cfi_startproc
 11461              		@ args = 0, pretend = 0, frame = 24
 11462              		@ frame_needed = 1, uses_anonymous_args = 0
 11463              		@ link register save eliminated.
 11464 0000 80B4     		push	{r7}
 11465              	.LCFI66:
 11466              		.cfi_def_cfa_offset 4
 11467 0002 87B0     		sub	sp, sp, #28
 11468              	.LCFI67:
 11469              		.cfi_def_cfa_offset 32
 11470 0004 00AF     		add	r7, sp, #0
 11471              		.cfi_offset 7, -4
 11472              	.LCFI68:
 11473              		.cfi_def_cfa_register 7
 11474 0006 F860     		str	r0, [r7, #12]
 11475 0008 B960     		str	r1, [r7, #8]
 11476 000a FA71     		strb	r2, [r7, #7]
 11477 000c BB71     		strb	r3, [r7, #6]
1204:/home/cuil/workspace/arm/lm3s811/TI_Stellaris/driverlib/adc.c ****     unsigned long ulTemp = 0;
 11478              		.loc 1 1204 0
 11479 000e 4FF00003 		mov	r3, #0
 11480 0012 7B61     		str	r3, [r7, #20]
1205:/home/cuil/workspace/arm/lm3s811/TI_Stellaris/driverlib/adc.c **** 
1206:/home/cuil/workspace/arm/lm3s811/TI_Stellaris/driverlib/adc.c ****     //
1207:/home/cuil/workspace/arm/lm3s811/TI_Stellaris/driverlib/adc.c ****     // Check the arguments.
1208:/home/cuil/workspace/arm/lm3s811/TI_Stellaris/driverlib/adc.c ****     //
1209:/home/cuil/workspace/arm/lm3s811/TI_Stellaris/driverlib/adc.c ****     ASSERT((ulBase == ADC0_BASE) || (ulBase == ADC1_BASE));
1210:/home/cuil/workspace/arm/lm3s811/TI_Stellaris/driverlib/adc.c ****     ASSERT(ulComp < 8);
1211:/home/cuil/workspace/arm/lm3s811/TI_Stellaris/driverlib/adc.c **** 
1212:/home/cuil/workspace/arm/lm3s811/TI_Stellaris/driverlib/adc.c ****     //
1213:/home/cuil/workspace/arm/lm3s811/TI_Stellaris/driverlib/adc.c ****     // Set the appropriate bits to reset the trigger and/or interrupt
1214:/home/cuil/workspace/arm/lm3s811/TI_Stellaris/driverlib/adc.c ****     // comparator conditions.
1215:/home/cuil/workspace/arm/lm3s811/TI_Stellaris/driverlib/adc.c ****     //
1216:/home/cuil/workspace/arm/lm3s811/TI_Stellaris/driverlib/adc.c ****     if(bTrigger)
 11481              		.loc 1 1216 0
 11482 0014 FB79     		ldrb	r3, [r7, #7]	@ zero_extendqisi2
 11483 0016 002B     		cmp	r3, #0
 11484 0018 0AD0     		beq	.L56
1217:/home/cuil/workspace/arm/lm3s811/TI_Stellaris/driverlib/adc.c ****     {
1218:/home/cuil/workspace/arm/lm3s811/TI_Stellaris/driverlib/adc.c ****         ulTemp |= (1 << (16 + ulComp));
 11485              		.loc 1 1218 0
 11486 001a BB68     		ldr	r3, [r7, #8]
 11487 001c 03F11003 		add	r3, r3, #16
 11488 0020 4FF00102 		mov	r2, #1
 11489 0024 02FA03F3 		lsl	r3, r2, r3
 11490 0028 7A69     		ldr	r2, [r7, #20]
 11491 002a 42EA0303 		orr	r3, r2, r3
 11492 002e 7B61     		str	r3, [r7, #20]
 11493              	.L56:
1219:/home/cuil/workspace/arm/lm3s811/TI_Stellaris/driverlib/adc.c ****     }
1220:/home/cuil/workspace/arm/lm3s811/TI_Stellaris/driverlib/adc.c ****     if(bInterrupt)
 11494              		.loc 1 1220 0
 11495 0030 BB79     		ldrb	r3, [r7, #6]	@ zero_extendqisi2
 11496 0032 002B     		cmp	r3, #0
 11497 0034 08D0     		beq	.L57
1221:/home/cuil/workspace/arm/lm3s811/TI_Stellaris/driverlib/adc.c ****     {
1222:/home/cuil/workspace/arm/lm3s811/TI_Stellaris/driverlib/adc.c ****         ulTemp |= (1 << ulComp);
 11498              		.loc 1 1222 0
 11499 0036 BB68     		ldr	r3, [r7, #8]
 11500 0038 4FF00102 		mov	r2, #1
 11501 003c 02FA03F3 		lsl	r3, r2, r3
 11502 0040 7A69     		ldr	r2, [r7, #20]
 11503 0042 42EA0303 		orr	r3, r2, r3
 11504 0046 7B61     		str	r3, [r7, #20]
 11505              	.L57:
1223:/home/cuil/workspace/arm/lm3s811/TI_Stellaris/driverlib/adc.c ****     }
1224:/home/cuil/workspace/arm/lm3s811/TI_Stellaris/driverlib/adc.c **** 
1225:/home/cuil/workspace/arm/lm3s811/TI_Stellaris/driverlib/adc.c ****     HWREG(ulBase + ADC_O_DCRIC) = ulTemp;
 11506              		.loc 1 1225 0
 11507 0048 FB68     		ldr	r3, [r7, #12]
 11508 004a 03F55063 		add	r3, r3, #3328
 11509 004e 7A69     		ldr	r2, [r7, #20]
 11510 0050 1A60     		str	r2, [r3, #0]
1226:/home/cuil/workspace/arm/lm3s811/TI_Stellaris/driverlib/adc.c **** }
 11511              		.loc 1 1226 0
 11512 0052 07F11C07 		add	r7, r7, #28
 11513 0056 BD46     		mov	sp, r7
 11514 0058 80BC     		pop	{r7}
 11515 005a 7047     		bx	lr
 11516              		.cfi_endproc
 11517              	.LFE22:
 11519              		.section	.text.ADCComparatorIntDisable,"ax",%progbits
 11520              		.align	2
 11521              		.global	ADCComparatorIntDisable
 11522              		.thumb
 11523              		.thumb_func
 11525              	ADCComparatorIntDisable:
 11526              	.LFB23:
1227:/home/cuil/workspace/arm/lm3s811/TI_Stellaris/driverlib/adc.c **** 
1228:/home/cuil/workspace/arm/lm3s811/TI_Stellaris/driverlib/adc.c **** //*****************************************************************************
1229:/home/cuil/workspace/arm/lm3s811/TI_Stellaris/driverlib/adc.c **** //
1230:/home/cuil/workspace/arm/lm3s811/TI_Stellaris/driverlib/adc.c **** //! Disables a sample sequence comparator interrupt.
1231:/home/cuil/workspace/arm/lm3s811/TI_Stellaris/driverlib/adc.c **** //!
1232:/home/cuil/workspace/arm/lm3s811/TI_Stellaris/driverlib/adc.c **** //! \param ulBase is the base address of the ADC module.
1233:/home/cuil/workspace/arm/lm3s811/TI_Stellaris/driverlib/adc.c **** //! \param ulSequenceNum is the sample sequence number.
1234:/home/cuil/workspace/arm/lm3s811/TI_Stellaris/driverlib/adc.c **** //!
1235:/home/cuil/workspace/arm/lm3s811/TI_Stellaris/driverlib/adc.c **** //! This function disables the requested sample sequence comparator interrupt.
1236:/home/cuil/workspace/arm/lm3s811/TI_Stellaris/driverlib/adc.c **** //!
1237:/home/cuil/workspace/arm/lm3s811/TI_Stellaris/driverlib/adc.c **** //! \return None.
1238:/home/cuil/workspace/arm/lm3s811/TI_Stellaris/driverlib/adc.c **** //
1239:/home/cuil/workspace/arm/lm3s811/TI_Stellaris/driverlib/adc.c **** //*****************************************************************************
1240:/home/cuil/workspace/arm/lm3s811/TI_Stellaris/driverlib/adc.c **** void
1241:/home/cuil/workspace/arm/lm3s811/TI_Stellaris/driverlib/adc.c **** ADCComparatorIntDisable(unsigned long ulBase, unsigned long ulSequenceNum)
1242:/home/cuil/workspace/arm/lm3s811/TI_Stellaris/driverlib/adc.c **** {
 11527              		.loc 1 1242 0
 11528              		.cfi_startproc
 11529              		@ args = 0, pretend = 0, frame = 8
 11530              		@ frame_needed = 1, uses_anonymous_args = 0
 11531              		@ link register save eliminated.
 11532 0000 80B4     		push	{r7}
 11533              	.LCFI69:
 11534              		.cfi_def_cfa_offset 4
 11535 0002 83B0     		sub	sp, sp, #12
 11536              	.LCFI70:
 11537              		.cfi_def_cfa_offset 16
 11538 0004 00AF     		add	r7, sp, #0
 11539              		.cfi_offset 7, -4
 11540              	.LCFI71:
 11541              		.cfi_def_cfa_register 7
 11542 0006 7860     		str	r0, [r7, #4]
 11543 0008 3960     		str	r1, [r7, #0]
1243:/home/cuil/workspace/arm/lm3s811/TI_Stellaris/driverlib/adc.c ****     //
1244:/home/cuil/workspace/arm/lm3s811/TI_Stellaris/driverlib/adc.c ****     // Check the arguments.
1245:/home/cuil/workspace/arm/lm3s811/TI_Stellaris/driverlib/adc.c ****     //
1246:/home/cuil/workspace/arm/lm3s811/TI_Stellaris/driverlib/adc.c ****     ASSERT((ulBase == ADC0_BASE) || (ulBase == ADC1_BASE));
1247:/home/cuil/workspace/arm/lm3s811/TI_Stellaris/driverlib/adc.c ****     ASSERT(ulSequenceNum < 4);
1248:/home/cuil/workspace/arm/lm3s811/TI_Stellaris/driverlib/adc.c **** 
1249:/home/cuil/workspace/arm/lm3s811/TI_Stellaris/driverlib/adc.c ****     //
1250:/home/cuil/workspace/arm/lm3s811/TI_Stellaris/driverlib/adc.c ****     // Disable this sample sequence comparator interrupt.
1251:/home/cuil/workspace/arm/lm3s811/TI_Stellaris/driverlib/adc.c ****     //
1252:/home/cuil/workspace/arm/lm3s811/TI_Stellaris/driverlib/adc.c ****     HWREG(ulBase + ADC_O_IM) &= ~(0x10000 << ulSequenceNum);
 11544              		.loc 1 1252 0
 11545 000a 7B68     		ldr	r3, [r7, #4]
 11546 000c 03F10803 		add	r3, r3, #8
 11547 0010 7A68     		ldr	r2, [r7, #4]
 11548 0012 02F10802 		add	r2, r2, #8
 11549 0016 1168     		ldr	r1, [r2, #0]
 11550 0018 3A68     		ldr	r2, [r7, #0]
 11551 001a 4FF48030 		mov	r0, #65536
 11552 001e 00FA02F2 		lsl	r2, r0, r2
 11553 0022 6FEA0202 		mvn	r2, r2
 11554 0026 01EA0202 		and	r2, r1, r2
 11555 002a 1A60     		str	r2, [r3, #0]
1253:/home/cuil/workspace/arm/lm3s811/TI_Stellaris/driverlib/adc.c **** }
 11556              		.loc 1 1253 0
 11557 002c 07F10C07 		add	r7, r7, #12
 11558 0030 BD46     		mov	sp, r7
 11559 0032 80BC     		pop	{r7}
 11560 0034 7047     		bx	lr
 11561              		.cfi_endproc
 11562              	.LFE23:
 11564 0036 00BF     		.section	.text.ADCComparatorIntEnable,"ax",%progbits
 11565              		.align	2
 11566              		.global	ADCComparatorIntEnable
 11567              		.thumb
 11568              		.thumb_func
 11570              	ADCComparatorIntEnable:
 11571              	.LFB24:
1254:/home/cuil/workspace/arm/lm3s811/TI_Stellaris/driverlib/adc.c **** 
1255:/home/cuil/workspace/arm/lm3s811/TI_Stellaris/driverlib/adc.c **** //*****************************************************************************
1256:/home/cuil/workspace/arm/lm3s811/TI_Stellaris/driverlib/adc.c **** //
1257:/home/cuil/workspace/arm/lm3s811/TI_Stellaris/driverlib/adc.c **** //! Enables a sample sequence comparator interrupt.
1258:/home/cuil/workspace/arm/lm3s811/TI_Stellaris/driverlib/adc.c **** //!
1259:/home/cuil/workspace/arm/lm3s811/TI_Stellaris/driverlib/adc.c **** //! \param ulBase is the base address of the ADC module.
1260:/home/cuil/workspace/arm/lm3s811/TI_Stellaris/driverlib/adc.c **** //! \param ulSequenceNum is the sample sequence number.
1261:/home/cuil/workspace/arm/lm3s811/TI_Stellaris/driverlib/adc.c **** //!
1262:/home/cuil/workspace/arm/lm3s811/TI_Stellaris/driverlib/adc.c **** //! This function enables the requested sample sequence comparator interrupt.
1263:/home/cuil/workspace/arm/lm3s811/TI_Stellaris/driverlib/adc.c **** //!
1264:/home/cuil/workspace/arm/lm3s811/TI_Stellaris/driverlib/adc.c **** //! \return None.
1265:/home/cuil/workspace/arm/lm3s811/TI_Stellaris/driverlib/adc.c **** //
1266:/home/cuil/workspace/arm/lm3s811/TI_Stellaris/driverlib/adc.c **** //*****************************************************************************
1267:/home/cuil/workspace/arm/lm3s811/TI_Stellaris/driverlib/adc.c **** void
1268:/home/cuil/workspace/arm/lm3s811/TI_Stellaris/driverlib/adc.c **** ADCComparatorIntEnable(unsigned long ulBase, unsigned long ulSequenceNum)
1269:/home/cuil/workspace/arm/lm3s811/TI_Stellaris/driverlib/adc.c **** {
 11572              		.loc 1 1269 0
 11573              		.cfi_startproc
 11574              		@ args = 0, pretend = 0, frame = 8
 11575              		@ frame_needed = 1, uses_anonymous_args = 0
 11576              		@ link register save eliminated.
 11577 0000 80B4     		push	{r7}
 11578              	.LCFI72:
 11579              		.cfi_def_cfa_offset 4
 11580 0002 83B0     		sub	sp, sp, #12
 11581              	.LCFI73:
 11582              		.cfi_def_cfa_offset 16
 11583 0004 00AF     		add	r7, sp, #0
 11584              		.cfi_offset 7, -4
 11585              	.LCFI74:
 11586              		.cfi_def_cfa_register 7
 11587 0006 7860     		str	r0, [r7, #4]
 11588 0008 3960     		str	r1, [r7, #0]
1270:/home/cuil/workspace/arm/lm3s811/TI_Stellaris/driverlib/adc.c ****     //
1271:/home/cuil/workspace/arm/lm3s811/TI_Stellaris/driverlib/adc.c ****     // Check the arguments.
1272:/home/cuil/workspace/arm/lm3s811/TI_Stellaris/driverlib/adc.c ****     //
1273:/home/cuil/workspace/arm/lm3s811/TI_Stellaris/driverlib/adc.c ****     ASSERT((ulBase == ADC0_BASE) || (ulBase == ADC1_BASE));
1274:/home/cuil/workspace/arm/lm3s811/TI_Stellaris/driverlib/adc.c ****     ASSERT(ulSequenceNum < 4);
1275:/home/cuil/workspace/arm/lm3s811/TI_Stellaris/driverlib/adc.c **** 
1276:/home/cuil/workspace/arm/lm3s811/TI_Stellaris/driverlib/adc.c ****     //
1277:/home/cuil/workspace/arm/lm3s811/TI_Stellaris/driverlib/adc.c ****     // Enable this sample sequence interrupt.
1278:/home/cuil/workspace/arm/lm3s811/TI_Stellaris/driverlib/adc.c ****     //
1279:/home/cuil/workspace/arm/lm3s811/TI_Stellaris/driverlib/adc.c ****     HWREG(ulBase + ADC_O_IM) |= 0x10000 << ulSequenceNum;
 11589              		.loc 1 1279 0
 11590 000a 7B68     		ldr	r3, [r7, #4]
 11591 000c 03F10803 		add	r3, r3, #8
 11592 0010 7A68     		ldr	r2, [r7, #4]
 11593 0012 02F10802 		add	r2, r2, #8
 11594 0016 1168     		ldr	r1, [r2, #0]
 11595 0018 3A68     		ldr	r2, [r7, #0]
 11596 001a 4FF48030 		mov	r0, #65536
 11597 001e 00FA02F2 		lsl	r2, r0, r2
 11598 0022 41EA0202 		orr	r2, r1, r2
 11599 0026 1A60     		str	r2, [r3, #0]
1280:/home/cuil/workspace/arm/lm3s811/TI_Stellaris/driverlib/adc.c **** }
 11600              		.loc 1 1280 0
 11601 0028 07F10C07 		add	r7, r7, #12
 11602 002c BD46     		mov	sp, r7
 11603 002e 80BC     		pop	{r7}
 11604 0030 7047     		bx	lr
 11605              		.cfi_endproc
 11606              	.LFE24:
 11608 0032 00BF     		.section	.text.ADCComparatorIntStatus,"ax",%progbits
 11609              		.align	2
 11610              		.global	ADCComparatorIntStatus
 11611              		.thumb
 11612              		.thumb_func
 11614              	ADCComparatorIntStatus:
 11615              	.LFB25:
1281:/home/cuil/workspace/arm/lm3s811/TI_Stellaris/driverlib/adc.c **** 
1282:/home/cuil/workspace/arm/lm3s811/TI_Stellaris/driverlib/adc.c **** //*****************************************************************************
1283:/home/cuil/workspace/arm/lm3s811/TI_Stellaris/driverlib/adc.c **** //
1284:/home/cuil/workspace/arm/lm3s811/TI_Stellaris/driverlib/adc.c **** //! Gets the current comparator interrupt status.
1285:/home/cuil/workspace/arm/lm3s811/TI_Stellaris/driverlib/adc.c **** //!
1286:/home/cuil/workspace/arm/lm3s811/TI_Stellaris/driverlib/adc.c **** //! \param ulBase is the base address of the ADC module.
1287:/home/cuil/workspace/arm/lm3s811/TI_Stellaris/driverlib/adc.c **** //!
1288:/home/cuil/workspace/arm/lm3s811/TI_Stellaris/driverlib/adc.c **** //! This function returns the digitial comparator interrupt status bits.  This
1289:/home/cuil/workspace/arm/lm3s811/TI_Stellaris/driverlib/adc.c **** //! status is sequence agnostic.
1290:/home/cuil/workspace/arm/lm3s811/TI_Stellaris/driverlib/adc.c **** //!
1291:/home/cuil/workspace/arm/lm3s811/TI_Stellaris/driverlib/adc.c **** //! \return The current comparator interrupt status.
1292:/home/cuil/workspace/arm/lm3s811/TI_Stellaris/driverlib/adc.c **** //
1293:/home/cuil/workspace/arm/lm3s811/TI_Stellaris/driverlib/adc.c **** //*****************************************************************************
1294:/home/cuil/workspace/arm/lm3s811/TI_Stellaris/driverlib/adc.c **** unsigned long
1295:/home/cuil/workspace/arm/lm3s811/TI_Stellaris/driverlib/adc.c **** ADCComparatorIntStatus(unsigned long ulBase)
1296:/home/cuil/workspace/arm/lm3s811/TI_Stellaris/driverlib/adc.c **** {
 11616              		.loc 1 1296 0
 11617              		.cfi_startproc
 11618              		@ args = 0, pretend = 0, frame = 8
 11619              		@ frame_needed = 1, uses_anonymous_args = 0
 11620              		@ link register save eliminated.
 11621 0000 80B4     		push	{r7}
 11622              	.LCFI75:
 11623              		.cfi_def_cfa_offset 4
 11624 0002 83B0     		sub	sp, sp, #12
 11625              	.LCFI76:
 11626              		.cfi_def_cfa_offset 16
 11627 0004 00AF     		add	r7, sp, #0
 11628              		.cfi_offset 7, -4
 11629              	.LCFI77:
 11630              		.cfi_def_cfa_register 7
 11631 0006 7860     		str	r0, [r7, #4]
1297:/home/cuil/workspace/arm/lm3s811/TI_Stellaris/driverlib/adc.c ****     //
1298:/home/cuil/workspace/arm/lm3s811/TI_Stellaris/driverlib/adc.c ****     // Check the arguments.
1299:/home/cuil/workspace/arm/lm3s811/TI_Stellaris/driverlib/adc.c ****     //
1300:/home/cuil/workspace/arm/lm3s811/TI_Stellaris/driverlib/adc.c ****     ASSERT((ulBase == ADC0_BASE) || (ulBase == ADC1_BASE));
1301:/home/cuil/workspace/arm/lm3s811/TI_Stellaris/driverlib/adc.c **** 
1302:/home/cuil/workspace/arm/lm3s811/TI_Stellaris/driverlib/adc.c ****     //
1303:/home/cuil/workspace/arm/lm3s811/TI_Stellaris/driverlib/adc.c ****     // Return the digitial comparator interrupt status.
1304:/home/cuil/workspace/arm/lm3s811/TI_Stellaris/driverlib/adc.c ****     //
1305:/home/cuil/workspace/arm/lm3s811/TI_Stellaris/driverlib/adc.c ****     return(HWREG(ulBase + ADC_O_DCISC));
 11632              		.loc 1 1305 0
 11633 0008 7B68     		ldr	r3, [r7, #4]
 11634 000a 03F13403 		add	r3, r3, #52
 11635 000e 1B68     		ldr	r3, [r3, #0]
1306:/home/cuil/workspace/arm/lm3s811/TI_Stellaris/driverlib/adc.c **** }
 11636              		.loc 1 1306 0
 11637 0010 1846     		mov	r0, r3
 11638 0012 07F10C07 		add	r7, r7, #12
 11639 0016 BD46     		mov	sp, r7
 11640 0018 80BC     		pop	{r7}
 11641 001a 7047     		bx	lr
 11642              		.cfi_endproc
 11643              	.LFE25:
 11645              		.section	.text.ADCComparatorIntClear,"ax",%progbits
 11646              		.align	2
 11647              		.global	ADCComparatorIntClear
 11648              		.thumb
 11649              		.thumb_func
 11651              	ADCComparatorIntClear:
 11652              	.LFB26:
1307:/home/cuil/workspace/arm/lm3s811/TI_Stellaris/driverlib/adc.c **** 
1308:/home/cuil/workspace/arm/lm3s811/TI_Stellaris/driverlib/adc.c **** //*****************************************************************************
1309:/home/cuil/workspace/arm/lm3s811/TI_Stellaris/driverlib/adc.c **** //
1310:/home/cuil/workspace/arm/lm3s811/TI_Stellaris/driverlib/adc.c **** //! Clears sample sequence comparator interrupt source.
1311:/home/cuil/workspace/arm/lm3s811/TI_Stellaris/driverlib/adc.c **** //!
1312:/home/cuil/workspace/arm/lm3s811/TI_Stellaris/driverlib/adc.c **** //! \param ulBase is the base address of the ADC module.
1313:/home/cuil/workspace/arm/lm3s811/TI_Stellaris/driverlib/adc.c **** //! \param ulStatus is the bit-mapped interrupts status to clear.
1314:/home/cuil/workspace/arm/lm3s811/TI_Stellaris/driverlib/adc.c **** //!
1315:/home/cuil/workspace/arm/lm3s811/TI_Stellaris/driverlib/adc.c **** //! The specified interrupt status is cleared.
1316:/home/cuil/workspace/arm/lm3s811/TI_Stellaris/driverlib/adc.c **** //!
1317:/home/cuil/workspace/arm/lm3s811/TI_Stellaris/driverlib/adc.c **** //! \return None.
1318:/home/cuil/workspace/arm/lm3s811/TI_Stellaris/driverlib/adc.c **** //
1319:/home/cuil/workspace/arm/lm3s811/TI_Stellaris/driverlib/adc.c **** //*****************************************************************************
1320:/home/cuil/workspace/arm/lm3s811/TI_Stellaris/driverlib/adc.c **** void
1321:/home/cuil/workspace/arm/lm3s811/TI_Stellaris/driverlib/adc.c **** ADCComparatorIntClear(unsigned long ulBase, unsigned long ulStatus)
1322:/home/cuil/workspace/arm/lm3s811/TI_Stellaris/driverlib/adc.c **** {
 11653              		.loc 1 1322 0
 11654              		.cfi_startproc
 11655              		@ args = 0, pretend = 0, frame = 8
 11656              		@ frame_needed = 1, uses_anonymous_args = 0
 11657              		@ link register save eliminated.
 11658 0000 80B4     		push	{r7}
 11659              	.LCFI78:
 11660              		.cfi_def_cfa_offset 4
 11661 0002 83B0     		sub	sp, sp, #12
 11662              	.LCFI79:
 11663              		.cfi_def_cfa_offset 16
 11664 0004 00AF     		add	r7, sp, #0
 11665              		.cfi_offset 7, -4
 11666              	.LCFI80:
 11667              		.cfi_def_cfa_register 7
 11668 0006 7860     		str	r0, [r7, #4]
 11669 0008 3960     		str	r1, [r7, #0]
1323:/home/cuil/workspace/arm/lm3s811/TI_Stellaris/driverlib/adc.c ****     //
1324:/home/cuil/workspace/arm/lm3s811/TI_Stellaris/driverlib/adc.c ****     // Check the arguments.
1325:/home/cuil/workspace/arm/lm3s811/TI_Stellaris/driverlib/adc.c ****     //
1326:/home/cuil/workspace/arm/lm3s811/TI_Stellaris/driverlib/adc.c ****     ASSERT((ulBase == ADC0_BASE) || (ulBase == ADC1_BASE));
1327:/home/cuil/workspace/arm/lm3s811/TI_Stellaris/driverlib/adc.c **** 
1328:/home/cuil/workspace/arm/lm3s811/TI_Stellaris/driverlib/adc.c ****     //
1329:/home/cuil/workspace/arm/lm3s811/TI_Stellaris/driverlib/adc.c ****     // Clear the interrupt.
1330:/home/cuil/workspace/arm/lm3s811/TI_Stellaris/driverlib/adc.c ****     //
1331:/home/cuil/workspace/arm/lm3s811/TI_Stellaris/driverlib/adc.c ****     HWREG(ulBase + ADC_O_DCISC) = ulStatus;
 11670              		.loc 1 1331 0
 11671 000a 7B68     		ldr	r3, [r7, #4]
 11672 000c 03F13403 		add	r3, r3, #52
 11673 0010 3A68     		ldr	r2, [r7, #0]
 11674 0012 1A60     		str	r2, [r3, #0]
1332:/home/cuil/workspace/arm/lm3s811/TI_Stellaris/driverlib/adc.c **** }
 11675              		.loc 1 1332 0
 11676 0014 07F10C07 		add	r7, r7, #12
 11677 0018 BD46     		mov	sp, r7
 11678 001a 80BC     		pop	{r7}
 11679 001c 7047     		bx	lr
 11680              		.cfi_endproc
 11681              	.LFE26:
 11683 001e 00BF     		.section	.text.ADCReferenceSet,"ax",%progbits
 11684              		.align	2
 11685              		.global	ADCReferenceSet
 11686              		.thumb
 11687              		.thumb_func
 11689              	ADCReferenceSet:
 11690              	.LFB27:
1333:/home/cuil/workspace/arm/lm3s811/TI_Stellaris/driverlib/adc.c **** 
1334:/home/cuil/workspace/arm/lm3s811/TI_Stellaris/driverlib/adc.c **** //*****************************************************************************
1335:/home/cuil/workspace/arm/lm3s811/TI_Stellaris/driverlib/adc.c **** //
1336:/home/cuil/workspace/arm/lm3s811/TI_Stellaris/driverlib/adc.c **** //! Selects the ADC reference.
1337:/home/cuil/workspace/arm/lm3s811/TI_Stellaris/driverlib/adc.c **** //!
1338:/home/cuil/workspace/arm/lm3s811/TI_Stellaris/driverlib/adc.c **** //! \param ulBase is the base address of the ADC module.
1339:/home/cuil/workspace/arm/lm3s811/TI_Stellaris/driverlib/adc.c **** //! \param ulRef is the reference to use.
1340:/home/cuil/workspace/arm/lm3s811/TI_Stellaris/driverlib/adc.c **** //!
1341:/home/cuil/workspace/arm/lm3s811/TI_Stellaris/driverlib/adc.c **** //! The ADC reference is set as specified by \e ulRef.  It must be one of
1342:/home/cuil/workspace/arm/lm3s811/TI_Stellaris/driverlib/adc.c **** //! \b ADC_REF_INT, \b ADC_REF_EXT_3V, or \b ADC_REF_EXT_1V for internal or
1343:/home/cuil/workspace/arm/lm3s811/TI_Stellaris/driverlib/adc.c **** //! external reference.  If \b ADC_REF_INT is chosen, then an internal 3V
1344:/home/cuil/workspace/arm/lm3s811/TI_Stellaris/driverlib/adc.c **** //! reference is used and no external reference is needed.  If
1345:/home/cuil/workspace/arm/lm3s811/TI_Stellaris/driverlib/adc.c **** //! \b ADC_REF_EXT_3V is chosen, then a 3V reference must be supplied to the
1346:/home/cuil/workspace/arm/lm3s811/TI_Stellaris/driverlib/adc.c **** //! AVREF pin.  If \b ADC_REF_EXT_1V is chosen, then a 1V external referece
1347:/home/cuil/workspace/arm/lm3s811/TI_Stellaris/driverlib/adc.c **** //! must be supplied to the AVREF pin.
1348:/home/cuil/workspace/arm/lm3s811/TI_Stellaris/driverlib/adc.c **** //!
1349:/home/cuil/workspace/arm/lm3s811/TI_Stellaris/driverlib/adc.c **** //! \note The ADC reference can only be selected on parts that have an external
1350:/home/cuil/workspace/arm/lm3s811/TI_Stellaris/driverlib/adc.c **** //! reference.  Consult the data sheet for your part to determine if there is
1351:/home/cuil/workspace/arm/lm3s811/TI_Stellaris/driverlib/adc.c **** //! an external reference.
1352:/home/cuil/workspace/arm/lm3s811/TI_Stellaris/driverlib/adc.c **** //!
1353:/home/cuil/workspace/arm/lm3s811/TI_Stellaris/driverlib/adc.c **** //! \return None.
1354:/home/cuil/workspace/arm/lm3s811/TI_Stellaris/driverlib/adc.c **** //
1355:/home/cuil/workspace/arm/lm3s811/TI_Stellaris/driverlib/adc.c **** //*****************************************************************************
1356:/home/cuil/workspace/arm/lm3s811/TI_Stellaris/driverlib/adc.c **** void
1357:/home/cuil/workspace/arm/lm3s811/TI_Stellaris/driverlib/adc.c **** ADCReferenceSet(unsigned long ulBase, unsigned long ulRef)
1358:/home/cuil/workspace/arm/lm3s811/TI_Stellaris/driverlib/adc.c **** {
 11691              		.loc 1 1358 0
 11692              		.cfi_startproc
 11693              		@ args = 0, pretend = 0, frame = 8
 11694              		@ frame_needed = 1, uses_anonymous_args = 0
 11695              		@ link register save eliminated.
 11696 0000 80B4     		push	{r7}
 11697              	.LCFI81:
 11698              		.cfi_def_cfa_offset 4
 11699 0002 83B0     		sub	sp, sp, #12
 11700              	.LCFI82:
 11701              		.cfi_def_cfa_offset 16
 11702 0004 00AF     		add	r7, sp, #0
 11703              		.cfi_offset 7, -4
 11704              	.LCFI83:
 11705              		.cfi_def_cfa_register 7
 11706 0006 7860     		str	r0, [r7, #4]
 11707 0008 3960     		str	r1, [r7, #0]
1359:/home/cuil/workspace/arm/lm3s811/TI_Stellaris/driverlib/adc.c ****     //
1360:/home/cuil/workspace/arm/lm3s811/TI_Stellaris/driverlib/adc.c ****     // Check the arguments.
1361:/home/cuil/workspace/arm/lm3s811/TI_Stellaris/driverlib/adc.c ****     //
1362:/home/cuil/workspace/arm/lm3s811/TI_Stellaris/driverlib/adc.c ****     ASSERT((ulBase == ADC0_BASE) || (ulBase == ADC1_BASE));
1363:/home/cuil/workspace/arm/lm3s811/TI_Stellaris/driverlib/adc.c ****     ASSERT((ulRef == ADC_REF_INT) || (ulRef == ADC_REF_EXT_3V) ||
1364:/home/cuil/workspace/arm/lm3s811/TI_Stellaris/driverlib/adc.c ****            (ulRef == ADC_REF_EXT_1V));
1365:/home/cuil/workspace/arm/lm3s811/TI_Stellaris/driverlib/adc.c **** 
1366:/home/cuil/workspace/arm/lm3s811/TI_Stellaris/driverlib/adc.c ****     //
1367:/home/cuil/workspace/arm/lm3s811/TI_Stellaris/driverlib/adc.c ****     // Set the reference.
1368:/home/cuil/workspace/arm/lm3s811/TI_Stellaris/driverlib/adc.c ****     //
1369:/home/cuil/workspace/arm/lm3s811/TI_Stellaris/driverlib/adc.c ****     HWREG(ulBase + ADC_O_CTL) = (HWREG(ulBase + ADC_O_CTL) & ~ADC_CTL_VREF_M) |
 11708              		.loc 1 1369 0
 11709 000a 7B68     		ldr	r3, [r7, #4]
 11710 000c 03F13803 		add	r3, r3, #56
 11711 0010 7A68     		ldr	r2, [r7, #4]
 11712 0012 02F13802 		add	r2, r2, #56
 11713 0016 1268     		ldr	r2, [r2, #0]
 11714 0018 22F00301 		bic	r1, r2, #3
 11715 001c 3A68     		ldr	r2, [r7, #0]
 11716 001e 41EA0202 		orr	r2, r1, r2
 11717 0022 1A60     		str	r2, [r3, #0]
1370:/home/cuil/workspace/arm/lm3s811/TI_Stellaris/driverlib/adc.c ****                                 ulRef;
1371:/home/cuil/workspace/arm/lm3s811/TI_Stellaris/driverlib/adc.c **** }
 11718              		.loc 1 1371 0
 11719 0024 07F10C07 		add	r7, r7, #12
 11720 0028 BD46     		mov	sp, r7
 11721 002a 80BC     		pop	{r7}
 11722 002c 7047     		bx	lr
 11723              		.cfi_endproc
 11724              	.LFE27:
 11726 002e 00BF     		.section	.text.ADCReferenceGet,"ax",%progbits
 11727              		.align	2
 11728              		.global	ADCReferenceGet
 11729              		.thumb
 11730              		.thumb_func
 11732              	ADCReferenceGet:
 11733              	.LFB28:
1372:/home/cuil/workspace/arm/lm3s811/TI_Stellaris/driverlib/adc.c **** 
1373:/home/cuil/workspace/arm/lm3s811/TI_Stellaris/driverlib/adc.c **** //*****************************************************************************
1374:/home/cuil/workspace/arm/lm3s811/TI_Stellaris/driverlib/adc.c **** //
1375:/home/cuil/workspace/arm/lm3s811/TI_Stellaris/driverlib/adc.c **** //! Returns the current setting of the ADC reference.
1376:/home/cuil/workspace/arm/lm3s811/TI_Stellaris/driverlib/adc.c **** //!
1377:/home/cuil/workspace/arm/lm3s811/TI_Stellaris/driverlib/adc.c **** //! \param ulBase is the base address of the ADC module.
1378:/home/cuil/workspace/arm/lm3s811/TI_Stellaris/driverlib/adc.c **** //!
1379:/home/cuil/workspace/arm/lm3s811/TI_Stellaris/driverlib/adc.c **** //! Returns the value of the ADC reference setting.  The returned value is one
1380:/home/cuil/workspace/arm/lm3s811/TI_Stellaris/driverlib/adc.c **** //! of \b ADC_REF_INT, \b ADC_REF_EXT_3V, or \b ADC_REF_EXT_1V.
1381:/home/cuil/workspace/arm/lm3s811/TI_Stellaris/driverlib/adc.c **** //!
1382:/home/cuil/workspace/arm/lm3s811/TI_Stellaris/driverlib/adc.c **** //! \note The value returned by this function is only meaningful if used on a
1383:/home/cuil/workspace/arm/lm3s811/TI_Stellaris/driverlib/adc.c **** //! part that is capable of using an external reference.  Consult the data
1384:/home/cuil/workspace/arm/lm3s811/TI_Stellaris/driverlib/adc.c **** //! sheet for your part to determine if it has an external reference input.
1385:/home/cuil/workspace/arm/lm3s811/TI_Stellaris/driverlib/adc.c **** //!
1386:/home/cuil/workspace/arm/lm3s811/TI_Stellaris/driverlib/adc.c **** //! \return The current setting of the ADC reference.
1387:/home/cuil/workspace/arm/lm3s811/TI_Stellaris/driverlib/adc.c **** //
1388:/home/cuil/workspace/arm/lm3s811/TI_Stellaris/driverlib/adc.c **** //*****************************************************************************
1389:/home/cuil/workspace/arm/lm3s811/TI_Stellaris/driverlib/adc.c **** unsigned long
1390:/home/cuil/workspace/arm/lm3s811/TI_Stellaris/driverlib/adc.c **** ADCReferenceGet(unsigned long ulBase)
1391:/home/cuil/workspace/arm/lm3s811/TI_Stellaris/driverlib/adc.c **** {
 11734              		.loc 1 1391 0
 11735              		.cfi_startproc
 11736              		@ args = 0, pretend = 0, frame = 8
 11737              		@ frame_needed = 1, uses_anonymous_args = 0
 11738              		@ link register save eliminated.
 11739 0000 80B4     		push	{r7}
 11740              	.LCFI84:
 11741              		.cfi_def_cfa_offset 4
 11742 0002 83B0     		sub	sp, sp, #12
 11743              	.LCFI85:
 11744              		.cfi_def_cfa_offset 16
 11745 0004 00AF     		add	r7, sp, #0
 11746              		.cfi_offset 7, -4
 11747              	.LCFI86:
 11748              		.cfi_def_cfa_register 7
 11749 0006 7860     		str	r0, [r7, #4]
1392:/home/cuil/workspace/arm/lm3s811/TI_Stellaris/driverlib/adc.c ****     //
1393:/home/cuil/workspace/arm/lm3s811/TI_Stellaris/driverlib/adc.c ****     // Check the arguments.
1394:/home/cuil/workspace/arm/lm3s811/TI_Stellaris/driverlib/adc.c ****     //
1395:/home/cuil/workspace/arm/lm3s811/TI_Stellaris/driverlib/adc.c ****     ASSERT((ulBase == ADC0_BASE) || (ulBase == ADC1_BASE));
1396:/home/cuil/workspace/arm/lm3s811/TI_Stellaris/driverlib/adc.c **** 
1397:/home/cuil/workspace/arm/lm3s811/TI_Stellaris/driverlib/adc.c ****     //
1398:/home/cuil/workspace/arm/lm3s811/TI_Stellaris/driverlib/adc.c ****     // Return the value of the reference.
1399:/home/cuil/workspace/arm/lm3s811/TI_Stellaris/driverlib/adc.c ****     //
1400:/home/cuil/workspace/arm/lm3s811/TI_Stellaris/driverlib/adc.c ****     return(HWREG(ulBase + ADC_O_CTL) & ADC_CTL_VREF_M);
 11750              		.loc 1 1400 0
 11751 0008 7B68     		ldr	r3, [r7, #4]
 11752 000a 03F13803 		add	r3, r3, #56
 11753 000e 1B68     		ldr	r3, [r3, #0]
 11754 0010 03F00303 		and	r3, r3, #3
1401:/home/cuil/workspace/arm/lm3s811/TI_Stellaris/driverlib/adc.c **** }
 11755              		.loc 1 1401 0
 11756 0014 1846     		mov	r0, r3
 11757 0016 07F10C07 		add	r7, r7, #12
 11758 001a BD46     		mov	sp, r7
 11759 001c 80BC     		pop	{r7}
 11760 001e 7047     		bx	lr
 11761              		.cfi_endproc
 11762              	.LFE28:
 11764              		.section	.text.ADCResolutionSet,"ax",%progbits
 11765              		.align	2
 11766              		.global	ADCResolutionSet
 11767              		.thumb
 11768              		.thumb_func
 11770              	ADCResolutionSet:
 11771              	.LFB29:
1402:/home/cuil/workspace/arm/lm3s811/TI_Stellaris/driverlib/adc.c **** 
1403:/home/cuil/workspace/arm/lm3s811/TI_Stellaris/driverlib/adc.c **** //*****************************************************************************
1404:/home/cuil/workspace/arm/lm3s811/TI_Stellaris/driverlib/adc.c **** //
1405:/home/cuil/workspace/arm/lm3s811/TI_Stellaris/driverlib/adc.c **** //! Selects the ADC resolution.
1406:/home/cuil/workspace/arm/lm3s811/TI_Stellaris/driverlib/adc.c **** //!
1407:/home/cuil/workspace/arm/lm3s811/TI_Stellaris/driverlib/adc.c **** //! \param ulBase is the base address of the ADC module.
1408:/home/cuil/workspace/arm/lm3s811/TI_Stellaris/driverlib/adc.c **** //! \param ulResolution is the ADC bit resolution.
1409:/home/cuil/workspace/arm/lm3s811/TI_Stellaris/driverlib/adc.c **** //!
1410:/home/cuil/workspace/arm/lm3s811/TI_Stellaris/driverlib/adc.c **** //! The ADC resolution is set as specified by \e ulResolution.  It must be one
1411:/home/cuil/workspace/arm/lm3s811/TI_Stellaris/driverlib/adc.c **** //! of \b ADC_RES_12BIT or \b ADC_RES_10BIT.
1412:/home/cuil/workspace/arm/lm3s811/TI_Stellaris/driverlib/adc.c **** //!
1413:/home/cuil/workspace/arm/lm3s811/TI_Stellaris/driverlib/adc.c **** //! \note The ADC resolution can only be set on parts that are capable of
1414:/home/cuil/workspace/arm/lm3s811/TI_Stellaris/driverlib/adc.c **** //! changing ADC resolution mode.  Consult the data sheet for your part to
1415:/home/cuil/workspace/arm/lm3s811/TI_Stellaris/driverlib/adc.c **** //! determine if it is capable of operating in more than one resolution mode.
1416:/home/cuil/workspace/arm/lm3s811/TI_Stellaris/driverlib/adc.c **** //!
1417:/home/cuil/workspace/arm/lm3s811/TI_Stellaris/driverlib/adc.c **** //! \return None.
1418:/home/cuil/workspace/arm/lm3s811/TI_Stellaris/driverlib/adc.c **** //
1419:/home/cuil/workspace/arm/lm3s811/TI_Stellaris/driverlib/adc.c **** //*****************************************************************************
1420:/home/cuil/workspace/arm/lm3s811/TI_Stellaris/driverlib/adc.c **** void
1421:/home/cuil/workspace/arm/lm3s811/TI_Stellaris/driverlib/adc.c **** ADCResolutionSet(unsigned long ulBase, unsigned long ulResolution)
1422:/home/cuil/workspace/arm/lm3s811/TI_Stellaris/driverlib/adc.c **** {
 11772              		.loc 1 1422 0
 11773              		.cfi_startproc
 11774              		@ args = 0, pretend = 0, frame = 8
 11775              		@ frame_needed = 1, uses_anonymous_args = 0
 11776              		@ link register save eliminated.
 11777 0000 80B4     		push	{r7}
 11778              	.LCFI87:
 11779              		.cfi_def_cfa_offset 4
 11780 0002 83B0     		sub	sp, sp, #12
 11781              	.LCFI88:
 11782              		.cfi_def_cfa_offset 16
 11783 0004 00AF     		add	r7, sp, #0
 11784              		.cfi_offset 7, -4
 11785              	.LCFI89:
 11786              		.cfi_def_cfa_register 7
 11787 0006 7860     		str	r0, [r7, #4]
 11788 0008 3960     		str	r1, [r7, #0]
1423:/home/cuil/workspace/arm/lm3s811/TI_Stellaris/driverlib/adc.c ****     //
1424:/home/cuil/workspace/arm/lm3s811/TI_Stellaris/driverlib/adc.c ****     // Check the arguments.
1425:/home/cuil/workspace/arm/lm3s811/TI_Stellaris/driverlib/adc.c ****     //
1426:/home/cuil/workspace/arm/lm3s811/TI_Stellaris/driverlib/adc.c ****     ASSERT((ulBase == ADC0_BASE) || (ulBase == ADC1_BASE));
1427:/home/cuil/workspace/arm/lm3s811/TI_Stellaris/driverlib/adc.c ****     ASSERT((ulResolution == ADC_RES_10BIT) || (ulResolution == ADC_RES_12BIT));
1428:/home/cuil/workspace/arm/lm3s811/TI_Stellaris/driverlib/adc.c **** 
1429:/home/cuil/workspace/arm/lm3s811/TI_Stellaris/driverlib/adc.c ****     //
1430:/home/cuil/workspace/arm/lm3s811/TI_Stellaris/driverlib/adc.c ****     // Set the resolution.
1431:/home/cuil/workspace/arm/lm3s811/TI_Stellaris/driverlib/adc.c ****     //
1432:/home/cuil/workspace/arm/lm3s811/TI_Stellaris/driverlib/adc.c ****     HWREG(ulBase + ADC_O_CTL) = (HWREG(ulBase + ADC_O_CTL) & ~ADC_CTL_RES) |
 11789              		.loc 1 1432 0
 11790 000a 7B68     		ldr	r3, [r7, #4]
 11791 000c 03F13803 		add	r3, r3, #56
 11792 0010 7A68     		ldr	r2, [r7, #4]
 11793 0012 02F13802 		add	r2, r2, #56
 11794 0016 1268     		ldr	r2, [r2, #0]
 11795 0018 22F01001 		bic	r1, r2, #16
 11796 001c 3A68     		ldr	r2, [r7, #0]
 11797 001e 41EA0202 		orr	r2, r1, r2
 11798 0022 1A60     		str	r2, [r3, #0]
1433:/home/cuil/workspace/arm/lm3s811/TI_Stellaris/driverlib/adc.c ****                                 ulResolution;
1434:/home/cuil/workspace/arm/lm3s811/TI_Stellaris/driverlib/adc.c **** }
 11799              		.loc 1 1434 0
 11800 0024 07F10C07 		add	r7, r7, #12
 11801 0028 BD46     		mov	sp, r7
 11802 002a 80BC     		pop	{r7}
 11803 002c 7047     		bx	lr
 11804              		.cfi_endproc
 11805              	.LFE29:
 11807 002e 00BF     		.section	.text.ADCResolutionGet,"ax",%progbits
 11808              		.align	2
 11809              		.global	ADCResolutionGet
 11810              		.thumb
 11811              		.thumb_func
 11813              	ADCResolutionGet:
 11814              	.LFB30:
1435:/home/cuil/workspace/arm/lm3s811/TI_Stellaris/driverlib/adc.c **** 
1436:/home/cuil/workspace/arm/lm3s811/TI_Stellaris/driverlib/adc.c **** //*****************************************************************************
1437:/home/cuil/workspace/arm/lm3s811/TI_Stellaris/driverlib/adc.c **** //
1438:/home/cuil/workspace/arm/lm3s811/TI_Stellaris/driverlib/adc.c **** //! Gets the setting of ADC resolution.
1439:/home/cuil/workspace/arm/lm3s811/TI_Stellaris/driverlib/adc.c **** //!
1440:/home/cuil/workspace/arm/lm3s811/TI_Stellaris/driverlib/adc.c **** //! \param ulBase is the base address of the ADC module.
1441:/home/cuil/workspace/arm/lm3s811/TI_Stellaris/driverlib/adc.c **** //!
1442:/home/cuil/workspace/arm/lm3s811/TI_Stellaris/driverlib/adc.c **** //! The ADC resolution is returned as one of \b ADC_RES_12BIT or
1443:/home/cuil/workspace/arm/lm3s811/TI_Stellaris/driverlib/adc.c **** //! \b ADC_RES_10BIT.
1444:/home/cuil/workspace/arm/lm3s811/TI_Stellaris/driverlib/adc.c **** //!
1445:/home/cuil/workspace/arm/lm3s811/TI_Stellaris/driverlib/adc.c **** //! \note The value returned by this function is only meaningful if used on a
1446:/home/cuil/workspace/arm/lm3s811/TI_Stellaris/driverlib/adc.c **** //! part that is capable of changing ADC resolution mode.  Consult the
1447:/home/cuil/workspace/arm/lm3s811/TI_Stellaris/driverlib/adc.c **** //! data sheet for your part to determine if it is capable of operating in
1448:/home/cuil/workspace/arm/lm3s811/TI_Stellaris/driverlib/adc.c **** //! more than one resolution mode.
1449:/home/cuil/workspace/arm/lm3s811/TI_Stellaris/driverlib/adc.c **** //!
1450:/home/cuil/workspace/arm/lm3s811/TI_Stellaris/driverlib/adc.c **** //! \return The current setting of the ADC resolution.
1451:/home/cuil/workspace/arm/lm3s811/TI_Stellaris/driverlib/adc.c **** //
1452:/home/cuil/workspace/arm/lm3s811/TI_Stellaris/driverlib/adc.c **** //*****************************************************************************
1453:/home/cuil/workspace/arm/lm3s811/TI_Stellaris/driverlib/adc.c **** unsigned long
1454:/home/cuil/workspace/arm/lm3s811/TI_Stellaris/driverlib/adc.c **** ADCResolutionGet(unsigned long ulBase)
1455:/home/cuil/workspace/arm/lm3s811/TI_Stellaris/driverlib/adc.c **** {
 11815              		.loc 1 1455 0
 11816              		.cfi_startproc
 11817              		@ args = 0, pretend = 0, frame = 8
 11818              		@ frame_needed = 1, uses_anonymous_args = 0
 11819              		@ link register save eliminated.
 11820 0000 80B4     		push	{r7}
 11821              	.LCFI90:
 11822              		.cfi_def_cfa_offset 4
 11823 0002 83B0     		sub	sp, sp, #12
 11824              	.LCFI91:
 11825              		.cfi_def_cfa_offset 16
 11826 0004 00AF     		add	r7, sp, #0
 11827              		.cfi_offset 7, -4
 11828              	.LCFI92:
 11829              		.cfi_def_cfa_register 7
 11830 0006 7860     		str	r0, [r7, #4]
1456:/home/cuil/workspace/arm/lm3s811/TI_Stellaris/driverlib/adc.c ****     //
1457:/home/cuil/workspace/arm/lm3s811/TI_Stellaris/driverlib/adc.c ****     // Check the arguments.
1458:/home/cuil/workspace/arm/lm3s811/TI_Stellaris/driverlib/adc.c ****     //
1459:/home/cuil/workspace/arm/lm3s811/TI_Stellaris/driverlib/adc.c ****     ASSERT((ulBase == ADC0_BASE) || (ulBase == ADC1_BASE));
1460:/home/cuil/workspace/arm/lm3s811/TI_Stellaris/driverlib/adc.c **** 
1461:/home/cuil/workspace/arm/lm3s811/TI_Stellaris/driverlib/adc.c ****     //
1462:/home/cuil/workspace/arm/lm3s811/TI_Stellaris/driverlib/adc.c ****     // Get the resolution and return it to the caller.
1463:/home/cuil/workspace/arm/lm3s811/TI_Stellaris/driverlib/adc.c ****     //
1464:/home/cuil/workspace/arm/lm3s811/TI_Stellaris/driverlib/adc.c ****     return(HWREG(ulBase + ADC_O_CTL) & ADC_CTL_RES);
 11831              		.loc 1 1464 0
 11832 0008 7B68     		ldr	r3, [r7, #4]
 11833 000a 03F13803 		add	r3, r3, #56
 11834 000e 1B68     		ldr	r3, [r3, #0]
 11835 0010 03F01003 		and	r3, r3, #16
1465:/home/cuil/workspace/arm/lm3s811/TI_Stellaris/driverlib/adc.c **** }
 11836              		.loc 1 1465 0
 11837 0014 1846     		mov	r0, r3
 11838 0016 07F10C07 		add	r7, r7, #12
 11839 001a BD46     		mov	sp, r7
 11840 001c 80BC     		pop	{r7}
 11841 001e 7047     		bx	lr
 11842              		.cfi_endproc
 11843              	.LFE30:
 11845              		.section	.text.ADCPhaseDelaySet,"ax",%progbits
 11846              		.align	2
 11847              		.global	ADCPhaseDelaySet
 11848              		.thumb
 11849              		.thumb_func
 11851              	ADCPhaseDelaySet:
 11852              	.LFB31:
1466:/home/cuil/workspace/arm/lm3s811/TI_Stellaris/driverlib/adc.c **** 
1467:/home/cuil/workspace/arm/lm3s811/TI_Stellaris/driverlib/adc.c **** //*****************************************************************************
1468:/home/cuil/workspace/arm/lm3s811/TI_Stellaris/driverlib/adc.c **** //
1469:/home/cuil/workspace/arm/lm3s811/TI_Stellaris/driverlib/adc.c **** //! Sets the phase delay between a trigger and the start of a sequence.
1470:/home/cuil/workspace/arm/lm3s811/TI_Stellaris/driverlib/adc.c **** //!
1471:/home/cuil/workspace/arm/lm3s811/TI_Stellaris/driverlib/adc.c **** //! \param ulBase is the base address of the ADC module.
1472:/home/cuil/workspace/arm/lm3s811/TI_Stellaris/driverlib/adc.c **** //! \param ulPhase is the phase delay, specified as one of \b ADC_PHASE_0,
1473:/home/cuil/workspace/arm/lm3s811/TI_Stellaris/driverlib/adc.c **** //! \b ADC_PHASE_22_5, \b ADC_PHASE_45, \b ADC_PHASE_67_5, \b ADC_PHASE_90,
1474:/home/cuil/workspace/arm/lm3s811/TI_Stellaris/driverlib/adc.c **** //! \b ADC_PHASE_112_5, \b ADC_PHASE_135, \b ADC_PHASE_157_5, \b ADC_PHASE_180,
1475:/home/cuil/workspace/arm/lm3s811/TI_Stellaris/driverlib/adc.c **** //! \b ADC_PHASE_202_5, \b ADC_PHASE_225, \b ADC_PHASE_247_5, \b ADC_PHASE_270,
1476:/home/cuil/workspace/arm/lm3s811/TI_Stellaris/driverlib/adc.c **** //! \b ADC_PHASE_292_5, \b ADC_PHASE_315, or \b ADC_PHASE_337_5.
1477:/home/cuil/workspace/arm/lm3s811/TI_Stellaris/driverlib/adc.c **** //!
1478:/home/cuil/workspace/arm/lm3s811/TI_Stellaris/driverlib/adc.c **** //! This function sets the phase delay between the detection of an ADC trigger
1479:/home/cuil/workspace/arm/lm3s811/TI_Stellaris/driverlib/adc.c **** //! event and the start of the sample sequence.  By selecting a different phase
1480:/home/cuil/workspace/arm/lm3s811/TI_Stellaris/driverlib/adc.c **** //! delay for a pair of ADC modules (such as \b ADC_PHASE_0 and
1481:/home/cuil/workspace/arm/lm3s811/TI_Stellaris/driverlib/adc.c **** //! \b ADC_PHASE_180) and having each ADC module sample the same analog input,
1482:/home/cuil/workspace/arm/lm3s811/TI_Stellaris/driverlib/adc.c **** //! it is possible to increase the sampling rate of the analog input (with
1483:/home/cuil/workspace/arm/lm3s811/TI_Stellaris/driverlib/adc.c **** //! samples N, N+2, N+4, and so on, coming from the first ADC and samples N+1,
1484:/home/cuil/workspace/arm/lm3s811/TI_Stellaris/driverlib/adc.c **** //! N+3, N+5, and so on, coming from the second ADC).  The ADC module has a
1485:/home/cuil/workspace/arm/lm3s811/TI_Stellaris/driverlib/adc.c **** //! single phase delay that is applied to all sample sequences within that
1486:/home/cuil/workspace/arm/lm3s811/TI_Stellaris/driverlib/adc.c **** //! module.
1487:/home/cuil/workspace/arm/lm3s811/TI_Stellaris/driverlib/adc.c **** //!
1488:/home/cuil/workspace/arm/lm3s811/TI_Stellaris/driverlib/adc.c **** //! \note This capability is not available on all parts.
1489:/home/cuil/workspace/arm/lm3s811/TI_Stellaris/driverlib/adc.c **** //!
1490:/home/cuil/workspace/arm/lm3s811/TI_Stellaris/driverlib/adc.c **** //! \return None.
1491:/home/cuil/workspace/arm/lm3s811/TI_Stellaris/driverlib/adc.c **** //
1492:/home/cuil/workspace/arm/lm3s811/TI_Stellaris/driverlib/adc.c **** //*****************************************************************************
1493:/home/cuil/workspace/arm/lm3s811/TI_Stellaris/driverlib/adc.c **** void
1494:/home/cuil/workspace/arm/lm3s811/TI_Stellaris/driverlib/adc.c **** ADCPhaseDelaySet(unsigned long ulBase, unsigned long ulPhase)
1495:/home/cuil/workspace/arm/lm3s811/TI_Stellaris/driverlib/adc.c **** {
 11853              		.loc 1 1495 0
 11854              		.cfi_startproc
 11855              		@ args = 0, pretend = 0, frame = 8
 11856              		@ frame_needed = 1, uses_anonymous_args = 0
 11857              		@ link register save eliminated.
 11858 0000 80B4     		push	{r7}
 11859              	.LCFI93:
 11860              		.cfi_def_cfa_offset 4
 11861 0002 83B0     		sub	sp, sp, #12
 11862              	.LCFI94:
 11863              		.cfi_def_cfa_offset 16
 11864 0004 00AF     		add	r7, sp, #0
 11865              		.cfi_offset 7, -4
 11866              	.LCFI95:
 11867              		.cfi_def_cfa_register 7
 11868 0006 7860     		str	r0, [r7, #4]
 11869 0008 3960     		str	r1, [r7, #0]
1496:/home/cuil/workspace/arm/lm3s811/TI_Stellaris/driverlib/adc.c ****     //
1497:/home/cuil/workspace/arm/lm3s811/TI_Stellaris/driverlib/adc.c ****     // Check the arguments.
1498:/home/cuil/workspace/arm/lm3s811/TI_Stellaris/driverlib/adc.c ****     //
1499:/home/cuil/workspace/arm/lm3s811/TI_Stellaris/driverlib/adc.c ****     ASSERT((ulBase == ADC0_BASE) || (ulBase == ADC1_BASE));
1500:/home/cuil/workspace/arm/lm3s811/TI_Stellaris/driverlib/adc.c ****     ASSERT((ulPhase == ADC_PHASE_0) || (ulPhase == ADC_PHASE_22_5) ||
1501:/home/cuil/workspace/arm/lm3s811/TI_Stellaris/driverlib/adc.c ****            (ulPhase == ADC_PHASE_45) || (ulPhase == ADC_PHASE_67_5) ||
1502:/home/cuil/workspace/arm/lm3s811/TI_Stellaris/driverlib/adc.c ****            (ulPhase == ADC_PHASE_90) || (ulPhase == ADC_PHASE_112_5) ||
1503:/home/cuil/workspace/arm/lm3s811/TI_Stellaris/driverlib/adc.c ****            (ulPhase == ADC_PHASE_135) || (ulPhase == ADC_PHASE_157_5) ||
1504:/home/cuil/workspace/arm/lm3s811/TI_Stellaris/driverlib/adc.c ****            (ulPhase == ADC_PHASE_180) || (ulPhase == ADC_PHASE_202_5) ||
1505:/home/cuil/workspace/arm/lm3s811/TI_Stellaris/driverlib/adc.c ****            (ulPhase == ADC_PHASE_225) || (ulPhase == ADC_PHASE_247_5) ||
1506:/home/cuil/workspace/arm/lm3s811/TI_Stellaris/driverlib/adc.c ****            (ulPhase == ADC_PHASE_270) || (ulPhase == ADC_PHASE_292_5) ||
1507:/home/cuil/workspace/arm/lm3s811/TI_Stellaris/driverlib/adc.c ****            (ulPhase == ADC_PHASE_315) || (ulPhase == ADC_PHASE_337_5));
1508:/home/cuil/workspace/arm/lm3s811/TI_Stellaris/driverlib/adc.c **** 
1509:/home/cuil/workspace/arm/lm3s811/TI_Stellaris/driverlib/adc.c ****     //
1510:/home/cuil/workspace/arm/lm3s811/TI_Stellaris/driverlib/adc.c ****     // Set the phase delay.
1511:/home/cuil/workspace/arm/lm3s811/TI_Stellaris/driverlib/adc.c ****     //
1512:/home/cuil/workspace/arm/lm3s811/TI_Stellaris/driverlib/adc.c ****     HWREG(ulBase + ADC_O_SPC) = ulPhase;
 11870              		.loc 1 1512 0
 11871 000a 7B68     		ldr	r3, [r7, #4]
 11872 000c 03F12403 		add	r3, r3, #36
 11873 0010 3A68     		ldr	r2, [r7, #0]
 11874 0012 1A60     		str	r2, [r3, #0]
1513:/home/cuil/workspace/arm/lm3s811/TI_Stellaris/driverlib/adc.c **** }
 11875              		.loc 1 1513 0
 11876 0014 07F10C07 		add	r7, r7, #12
 11877 0018 BD46     		mov	sp, r7
 11878 001a 80BC     		pop	{r7}
 11879 001c 7047     		bx	lr
 11880              		.cfi_endproc
 11881              	.LFE31:
 11883 001e 00BF     		.section	.text.ADCPhaseDelayGet,"ax",%progbits
 11884              		.align	2
 11885              		.global	ADCPhaseDelayGet
 11886              		.thumb
 11887              		.thumb_func
 11889              	ADCPhaseDelayGet:
 11890              	.LFB32:
1514:/home/cuil/workspace/arm/lm3s811/TI_Stellaris/driverlib/adc.c **** 
1515:/home/cuil/workspace/arm/lm3s811/TI_Stellaris/driverlib/adc.c **** //*****************************************************************************
1516:/home/cuil/workspace/arm/lm3s811/TI_Stellaris/driverlib/adc.c **** //
1517:/home/cuil/workspace/arm/lm3s811/TI_Stellaris/driverlib/adc.c **** //! Gets the phase delay between a trigger and the start of a sequence.
1518:/home/cuil/workspace/arm/lm3s811/TI_Stellaris/driverlib/adc.c **** //!
1519:/home/cuil/workspace/arm/lm3s811/TI_Stellaris/driverlib/adc.c **** //! \param ulBase is the base address of the ADC module.
1520:/home/cuil/workspace/arm/lm3s811/TI_Stellaris/driverlib/adc.c **** //!
1521:/home/cuil/workspace/arm/lm3s811/TI_Stellaris/driverlib/adc.c **** //! This function gets the current phase delay between the detection of an ADC
1522:/home/cuil/workspace/arm/lm3s811/TI_Stellaris/driverlib/adc.c **** //! trigger event and the start of the sample sequence.
1523:/home/cuil/workspace/arm/lm3s811/TI_Stellaris/driverlib/adc.c **** //!
1524:/home/cuil/workspace/arm/lm3s811/TI_Stellaris/driverlib/adc.c **** //! \return Returns the phase delay, specified as one of \b ADC_PHASE_0,
1525:/home/cuil/workspace/arm/lm3s811/TI_Stellaris/driverlib/adc.c **** //! \b ADC_PHASE_22_5, \b ADC_PHASE_45, \b ADC_PHASE_67_5, \b ADC_PHASE_90,
1526:/home/cuil/workspace/arm/lm3s811/TI_Stellaris/driverlib/adc.c **** //! \b ADC_PHASE_112_5, \b ADC_PHASE_135, \b ADC_PHASE_157_5, \b ADC_PHASE_180,
1527:/home/cuil/workspace/arm/lm3s811/TI_Stellaris/driverlib/adc.c **** //! \b ADC_PHASE_202_5, \b ADC_PHASE_225, \b ADC_PHASE_247_5, \b ADC_PHASE_270,
1528:/home/cuil/workspace/arm/lm3s811/TI_Stellaris/driverlib/adc.c **** //! \b ADC_PHASE_292_5, \b ADC_PHASE_315, or \b ADC_PHASE_337_5.
1529:/home/cuil/workspace/arm/lm3s811/TI_Stellaris/driverlib/adc.c **** //
1530:/home/cuil/workspace/arm/lm3s811/TI_Stellaris/driverlib/adc.c **** //*****************************************************************************
1531:/home/cuil/workspace/arm/lm3s811/TI_Stellaris/driverlib/adc.c **** unsigned long
1532:/home/cuil/workspace/arm/lm3s811/TI_Stellaris/driverlib/adc.c **** ADCPhaseDelayGet(unsigned long ulBase)
1533:/home/cuil/workspace/arm/lm3s811/TI_Stellaris/driverlib/adc.c **** {
 11891              		.loc 1 1533 0
 11892              		.cfi_startproc
 11893              		@ args = 0, pretend = 0, frame = 8
 11894              		@ frame_needed = 1, uses_anonymous_args = 0
 11895              		@ link register save eliminated.
 11896 0000 80B4     		push	{r7}
 11897              	.LCFI96:
 11898              		.cfi_def_cfa_offset 4
 11899 0002 83B0     		sub	sp, sp, #12
 11900              	.LCFI97:
 11901              		.cfi_def_cfa_offset 16
 11902 0004 00AF     		add	r7, sp, #0
 11903              		.cfi_offset 7, -4
 11904              	.LCFI98:
 11905              		.cfi_def_cfa_register 7
 11906 0006 7860     		str	r0, [r7, #4]
1534:/home/cuil/workspace/arm/lm3s811/TI_Stellaris/driverlib/adc.c ****     //
1535:/home/cuil/workspace/arm/lm3s811/TI_Stellaris/driverlib/adc.c ****     // Check the arguments.
1536:/home/cuil/workspace/arm/lm3s811/TI_Stellaris/driverlib/adc.c ****     //
1537:/home/cuil/workspace/arm/lm3s811/TI_Stellaris/driverlib/adc.c ****     ASSERT((ulBase == ADC0_BASE) || (ulBase == ADC1_BASE));
1538:/home/cuil/workspace/arm/lm3s811/TI_Stellaris/driverlib/adc.c **** 
1539:/home/cuil/workspace/arm/lm3s811/TI_Stellaris/driverlib/adc.c ****     //
1540:/home/cuil/workspace/arm/lm3s811/TI_Stellaris/driverlib/adc.c ****     // Return the phase delay.
1541:/home/cuil/workspace/arm/lm3s811/TI_Stellaris/driverlib/adc.c ****     //
1542:/home/cuil/workspace/arm/lm3s811/TI_Stellaris/driverlib/adc.c ****     return(HWREG(ulBase + ADC_O_SPC));
 11907              		.loc 1 1542 0
 11908 0008 7B68     		ldr	r3, [r7, #4]
 11909 000a 03F12403 		add	r3, r3, #36
 11910 000e 1B68     		ldr	r3, [r3, #0]
1543:/home/cuil/workspace/arm/lm3s811/TI_Stellaris/driverlib/adc.c **** }
 11911              		.loc 1 1543 0
 11912 0010 1846     		mov	r0, r3
 11913 0012 07F10C07 		add	r7, r7, #12
 11914 0016 BD46     		mov	sp, r7
 11915 0018 80BC     		pop	{r7}
 11916 001a 7047     		bx	lr
 11917              		.cfi_endproc
 11918              	.LFE32:
 11920              		.text
 11921              	.Letext0: