   1              		.syntax unified
   2              		.cpu cortex-m3
   3              		.fpu softvfp
   4              		.eabi_attribute 20, 1
   5              		.eabi_attribute 21, 1
   6              		.eabi_attribute 23, 3
   7              		.eabi_attribute 24, 1
   8              		.eabi_attribute 25, 1
   9              		.eabi_attribute 26, 1
  10              		.eabi_attribute 30, 6
  11              		.eabi_attribute 18, 4
  12              		.thumb
  13              		.file	"can.c"
  23              	.Ltext0:
  24              		.file 1 "/home/cuil/workspace/arm/lm3s811/TI_Stellaris/driverlib/can.c"
 5833              		.align	2
 5836              	g_usCANBitValues:
 5837 0000 0001     		.short	256
 5838 0002 0002     		.short	512
 5839 0004 4012     		.short	4672
 5840 0006 4013     		.short	4928
 5841 0008 8023     		.short	9088
 5842 000a 8024     		.short	9344
 5843 000c C034     		.short	13504
 5844 000e C035     		.short	13760
 5845 0010 C045     		.short	17856
 5846 0012 C046     		.short	18112
 5847 0014 C056     		.short	22208
 5848 0016 C057     		.short	22464
 5849 0018 C067     		.short	26560
 5850 001a C068     		.short	26816
 5851 001c C078     		.short	30912
 5852 001e C079     		.short	31168
 5853              		.section	.text.CANIntNumberGet,"ax",%progbits
 5854              		.align	2
 5855              		.thumb
 5856              		.thumb_func
 5858              	CANIntNumberGet:
 5859              	.LFB0:
   1:/home/cuil/workspace/arm/lm3s811/TI_Stellaris/driverlib/can.c **** //*****************************************************************************
   2:/home/cuil/workspace/arm/lm3s811/TI_Stellaris/driverlib/can.c **** //
   3:/home/cuil/workspace/arm/lm3s811/TI_Stellaris/driverlib/can.c **** // can.c - Driver for the CAN module.
   4:/home/cuil/workspace/arm/lm3s811/TI_Stellaris/driverlib/can.c **** //
   5:/home/cuil/workspace/arm/lm3s811/TI_Stellaris/driverlib/can.c **** // Copyright (c) 2006-2011 Texas Instruments Incorporated.  All rights reserved.
   6:/home/cuil/workspace/arm/lm3s811/TI_Stellaris/driverlib/can.c **** // Software License Agreement
   7:/home/cuil/workspace/arm/lm3s811/TI_Stellaris/driverlib/can.c **** // 
   8:/home/cuil/workspace/arm/lm3s811/TI_Stellaris/driverlib/can.c **** // Texas Instruments (TI) is supplying this software for use solely and
   9:/home/cuil/workspace/arm/lm3s811/TI_Stellaris/driverlib/can.c **** // exclusively on TI's microcontroller products. The software is owned by
  10:/home/cuil/workspace/arm/lm3s811/TI_Stellaris/driverlib/can.c **** // TI and/or its suppliers, and is protected under applicable copyright
  11:/home/cuil/workspace/arm/lm3s811/TI_Stellaris/driverlib/can.c **** // laws. You may not combine this software with "viral" open-source
  12:/home/cuil/workspace/arm/lm3s811/TI_Stellaris/driverlib/can.c **** // software in order to form a larger program.
  13:/home/cuil/workspace/arm/lm3s811/TI_Stellaris/driverlib/can.c **** // 
  14:/home/cuil/workspace/arm/lm3s811/TI_Stellaris/driverlib/can.c **** // THIS SOFTWARE IS PROVIDED "AS IS" AND WITH ALL FAULTS.
  15:/home/cuil/workspace/arm/lm3s811/TI_Stellaris/driverlib/can.c **** // NO WARRANTIES, WHETHER EXPRESS, IMPLIED OR STATUTORY, INCLUDING, BUT
  16:/home/cuil/workspace/arm/lm3s811/TI_Stellaris/driverlib/can.c **** // NOT LIMITED TO, IMPLIED WARRANTIES OF MERCHANTABILITY AND FITNESS FOR
  17:/home/cuil/workspace/arm/lm3s811/TI_Stellaris/driverlib/can.c **** // A PARTICULAR PURPOSE APPLY TO THIS SOFTWARE. TI SHALL NOT, UNDER ANY
  18:/home/cuil/workspace/arm/lm3s811/TI_Stellaris/driverlib/can.c **** // CIRCUMSTANCES, BE LIABLE FOR SPECIAL, INCIDENTAL, OR CONSEQUENTIAL
  19:/home/cuil/workspace/arm/lm3s811/TI_Stellaris/driverlib/can.c **** // DAMAGES, FOR ANY REASON WHATSOEVER.
  20:/home/cuil/workspace/arm/lm3s811/TI_Stellaris/driverlib/can.c **** // 
  21:/home/cuil/workspace/arm/lm3s811/TI_Stellaris/driverlib/can.c **** // This is part of revision 8264 of the Stellaris Peripheral Driver Library.
  22:/home/cuil/workspace/arm/lm3s811/TI_Stellaris/driverlib/can.c **** //
  23:/home/cuil/workspace/arm/lm3s811/TI_Stellaris/driverlib/can.c **** //*****************************************************************************
  24:/home/cuil/workspace/arm/lm3s811/TI_Stellaris/driverlib/can.c **** 
  25:/home/cuil/workspace/arm/lm3s811/TI_Stellaris/driverlib/can.c **** //*****************************************************************************
  26:/home/cuil/workspace/arm/lm3s811/TI_Stellaris/driverlib/can.c **** //
  27:/home/cuil/workspace/arm/lm3s811/TI_Stellaris/driverlib/can.c **** //! \addtogroup can_api
  28:/home/cuil/workspace/arm/lm3s811/TI_Stellaris/driverlib/can.c **** //! @{
  29:/home/cuil/workspace/arm/lm3s811/TI_Stellaris/driverlib/can.c **** //
  30:/home/cuil/workspace/arm/lm3s811/TI_Stellaris/driverlib/can.c **** //*****************************************************************************
  31:/home/cuil/workspace/arm/lm3s811/TI_Stellaris/driverlib/can.c **** 
  32:/home/cuil/workspace/arm/lm3s811/TI_Stellaris/driverlib/can.c **** #include "inc/hw_can.h"
  33:/home/cuil/workspace/arm/lm3s811/TI_Stellaris/driverlib/can.c **** #include "inc/hw_ints.h"
  34:/home/cuil/workspace/arm/lm3s811/TI_Stellaris/driverlib/can.c **** #include "inc/hw_nvic.h"
  35:/home/cuil/workspace/arm/lm3s811/TI_Stellaris/driverlib/can.c **** #include "inc/hw_memmap.h"
  36:/home/cuil/workspace/arm/lm3s811/TI_Stellaris/driverlib/can.c **** #include "inc/hw_types.h"
  37:/home/cuil/workspace/arm/lm3s811/TI_Stellaris/driverlib/can.c **** #include "driverlib/can.h"
  38:/home/cuil/workspace/arm/lm3s811/TI_Stellaris/driverlib/can.c **** #include "driverlib/debug.h"
  39:/home/cuil/workspace/arm/lm3s811/TI_Stellaris/driverlib/can.c **** #include "driverlib/interrupt.h"
  40:/home/cuil/workspace/arm/lm3s811/TI_Stellaris/driverlib/can.c **** 
  41:/home/cuil/workspace/arm/lm3s811/TI_Stellaris/driverlib/can.c **** //*****************************************************************************
  42:/home/cuil/workspace/arm/lm3s811/TI_Stellaris/driverlib/can.c **** //
  43:/home/cuil/workspace/arm/lm3s811/TI_Stellaris/driverlib/can.c **** // This is the maximum number that can be stored as an 11bit Message
  44:/home/cuil/workspace/arm/lm3s811/TI_Stellaris/driverlib/can.c **** // identifier.
  45:/home/cuil/workspace/arm/lm3s811/TI_Stellaris/driverlib/can.c **** //
  46:/home/cuil/workspace/arm/lm3s811/TI_Stellaris/driverlib/can.c **** //*****************************************************************************
  47:/home/cuil/workspace/arm/lm3s811/TI_Stellaris/driverlib/can.c **** #define CAN_MAX_11BIT_MSG_ID    0x7ff
  48:/home/cuil/workspace/arm/lm3s811/TI_Stellaris/driverlib/can.c **** 
  49:/home/cuil/workspace/arm/lm3s811/TI_Stellaris/driverlib/can.c **** //*****************************************************************************
  50:/home/cuil/workspace/arm/lm3s811/TI_Stellaris/driverlib/can.c **** //
  51:/home/cuil/workspace/arm/lm3s811/TI_Stellaris/driverlib/can.c **** // This is used as the loop delay for accessing the CAN controller registers.
  52:/home/cuil/workspace/arm/lm3s811/TI_Stellaris/driverlib/can.c **** //
  53:/home/cuil/workspace/arm/lm3s811/TI_Stellaris/driverlib/can.c **** //*****************************************************************************
  54:/home/cuil/workspace/arm/lm3s811/TI_Stellaris/driverlib/can.c **** #define CAN_RW_DELAY            5
  55:/home/cuil/workspace/arm/lm3s811/TI_Stellaris/driverlib/can.c **** 
  56:/home/cuil/workspace/arm/lm3s811/TI_Stellaris/driverlib/can.c **** //*****************************************************************************
  57:/home/cuil/workspace/arm/lm3s811/TI_Stellaris/driverlib/can.c **** //
  58:/home/cuil/workspace/arm/lm3s811/TI_Stellaris/driverlib/can.c **** // The maximum CAN bit timing divisor is 19.
  59:/home/cuil/workspace/arm/lm3s811/TI_Stellaris/driverlib/can.c **** //
  60:/home/cuil/workspace/arm/lm3s811/TI_Stellaris/driverlib/can.c **** //*****************************************************************************
  61:/home/cuil/workspace/arm/lm3s811/TI_Stellaris/driverlib/can.c **** #define CAN_MAX_BIT_DIVISOR     19
  62:/home/cuil/workspace/arm/lm3s811/TI_Stellaris/driverlib/can.c **** 
  63:/home/cuil/workspace/arm/lm3s811/TI_Stellaris/driverlib/can.c **** //*****************************************************************************
  64:/home/cuil/workspace/arm/lm3s811/TI_Stellaris/driverlib/can.c **** //
  65:/home/cuil/workspace/arm/lm3s811/TI_Stellaris/driverlib/can.c **** // The minimum CAN bit timing divisor is 4.
  66:/home/cuil/workspace/arm/lm3s811/TI_Stellaris/driverlib/can.c **** //
  67:/home/cuil/workspace/arm/lm3s811/TI_Stellaris/driverlib/can.c **** //*****************************************************************************
  68:/home/cuil/workspace/arm/lm3s811/TI_Stellaris/driverlib/can.c **** #define CAN_MIN_BIT_DIVISOR     4
  69:/home/cuil/workspace/arm/lm3s811/TI_Stellaris/driverlib/can.c **** 
  70:/home/cuil/workspace/arm/lm3s811/TI_Stellaris/driverlib/can.c **** //*****************************************************************************
  71:/home/cuil/workspace/arm/lm3s811/TI_Stellaris/driverlib/can.c **** //
  72:/home/cuil/workspace/arm/lm3s811/TI_Stellaris/driverlib/can.c **** // The maximum CAN pre-divisor is 1024.
  73:/home/cuil/workspace/arm/lm3s811/TI_Stellaris/driverlib/can.c **** //
  74:/home/cuil/workspace/arm/lm3s811/TI_Stellaris/driverlib/can.c **** //*****************************************************************************
  75:/home/cuil/workspace/arm/lm3s811/TI_Stellaris/driverlib/can.c **** #define CAN_MAX_PRE_DIVISOR     1024
  76:/home/cuil/workspace/arm/lm3s811/TI_Stellaris/driverlib/can.c **** 
  77:/home/cuil/workspace/arm/lm3s811/TI_Stellaris/driverlib/can.c **** //*****************************************************************************
  78:/home/cuil/workspace/arm/lm3s811/TI_Stellaris/driverlib/can.c **** //
  79:/home/cuil/workspace/arm/lm3s811/TI_Stellaris/driverlib/can.c **** // The minimum CAN pre-divisor is 1.
  80:/home/cuil/workspace/arm/lm3s811/TI_Stellaris/driverlib/can.c **** //
  81:/home/cuil/workspace/arm/lm3s811/TI_Stellaris/driverlib/can.c **** //*****************************************************************************
  82:/home/cuil/workspace/arm/lm3s811/TI_Stellaris/driverlib/can.c **** #define CAN_MIN_PRE_DIVISOR     1
  83:/home/cuil/workspace/arm/lm3s811/TI_Stellaris/driverlib/can.c **** 
  84:/home/cuil/workspace/arm/lm3s811/TI_Stellaris/driverlib/can.c **** //*****************************************************************************
  85:/home/cuil/workspace/arm/lm3s811/TI_Stellaris/driverlib/can.c **** //
  86:/home/cuil/workspace/arm/lm3s811/TI_Stellaris/driverlib/can.c **** // Converts a set of CAN bit timing values into the value that needs to be
  87:/home/cuil/workspace/arm/lm3s811/TI_Stellaris/driverlib/can.c **** // programmed into the CAN_BIT register to achieve those timings.
  88:/home/cuil/workspace/arm/lm3s811/TI_Stellaris/driverlib/can.c **** //
  89:/home/cuil/workspace/arm/lm3s811/TI_Stellaris/driverlib/can.c **** //*****************************************************************************
  90:/home/cuil/workspace/arm/lm3s811/TI_Stellaris/driverlib/can.c **** #define CAN_BIT_VALUE(seg1, seg2, sjw)                                        \
  91:/home/cuil/workspace/arm/lm3s811/TI_Stellaris/driverlib/can.c ****                                 ((((seg1 - 1) << CAN_BIT_TSEG1_S) &           \
  92:/home/cuil/workspace/arm/lm3s811/TI_Stellaris/driverlib/can.c ****                                   CAN_BIT_TSEG1_M) |                          \
  93:/home/cuil/workspace/arm/lm3s811/TI_Stellaris/driverlib/can.c ****                                  (((seg2 - 1) << CAN_BIT_TSEG2_S) &           \
  94:/home/cuil/workspace/arm/lm3s811/TI_Stellaris/driverlib/can.c ****                                   CAN_BIT_TSEG2_M) |                          \
  95:/home/cuil/workspace/arm/lm3s811/TI_Stellaris/driverlib/can.c ****                                  (((sjw - 1) << CAN_BIT_SJW_S) &              \
  96:/home/cuil/workspace/arm/lm3s811/TI_Stellaris/driverlib/can.c ****                                   CAN_BIT_SJW_M))
  97:/home/cuil/workspace/arm/lm3s811/TI_Stellaris/driverlib/can.c **** 
  98:/home/cuil/workspace/arm/lm3s811/TI_Stellaris/driverlib/can.c **** //*****************************************************************************
  99:/home/cuil/workspace/arm/lm3s811/TI_Stellaris/driverlib/can.c **** //
 100:/home/cuil/workspace/arm/lm3s811/TI_Stellaris/driverlib/can.c **** // This table is used by the CANBitRateSet() API as the register defaults for
 101:/home/cuil/workspace/arm/lm3s811/TI_Stellaris/driverlib/can.c **** // the bit timing values.
 102:/home/cuil/workspace/arm/lm3s811/TI_Stellaris/driverlib/can.c **** //
 103:/home/cuil/workspace/arm/lm3s811/TI_Stellaris/driverlib/can.c **** //*****************************************************************************
 104:/home/cuil/workspace/arm/lm3s811/TI_Stellaris/driverlib/can.c **** static const unsigned short g_usCANBitValues[] =
 105:/home/cuil/workspace/arm/lm3s811/TI_Stellaris/driverlib/can.c **** {
 106:/home/cuil/workspace/arm/lm3s811/TI_Stellaris/driverlib/can.c ****     CAN_BIT_VALUE(2, 1, 1),     // 4 clocks/bit
 107:/home/cuil/workspace/arm/lm3s811/TI_Stellaris/driverlib/can.c ****     CAN_BIT_VALUE(3, 1, 1),     // 5 clocks/bit
 108:/home/cuil/workspace/arm/lm3s811/TI_Stellaris/driverlib/can.c ****     CAN_BIT_VALUE(3, 2, 2),     // 6 clocks/bit
 109:/home/cuil/workspace/arm/lm3s811/TI_Stellaris/driverlib/can.c ****     CAN_BIT_VALUE(4, 2, 2),     // 7 clocks/bit
 110:/home/cuil/workspace/arm/lm3s811/TI_Stellaris/driverlib/can.c ****     CAN_BIT_VALUE(4, 3, 3),     // 8 clocks/bit
 111:/home/cuil/workspace/arm/lm3s811/TI_Stellaris/driverlib/can.c ****     CAN_BIT_VALUE(5, 3, 3),     // 9 clocks/bit
 112:/home/cuil/workspace/arm/lm3s811/TI_Stellaris/driverlib/can.c ****     CAN_BIT_VALUE(5, 4, 4),     // 10 clocks/bit
 113:/home/cuil/workspace/arm/lm3s811/TI_Stellaris/driverlib/can.c ****     CAN_BIT_VALUE(6, 4, 4),     // 11 clocks/bit
 114:/home/cuil/workspace/arm/lm3s811/TI_Stellaris/driverlib/can.c ****     CAN_BIT_VALUE(6, 5, 4),     // 12 clocks/bit
 115:/home/cuil/workspace/arm/lm3s811/TI_Stellaris/driverlib/can.c ****     CAN_BIT_VALUE(7, 5, 4),     // 13 clocks/bit
 116:/home/cuil/workspace/arm/lm3s811/TI_Stellaris/driverlib/can.c ****     CAN_BIT_VALUE(7, 6, 4),     // 14 clocks/bit
 117:/home/cuil/workspace/arm/lm3s811/TI_Stellaris/driverlib/can.c ****     CAN_BIT_VALUE(8, 6, 4),     // 15 clocks/bit
 118:/home/cuil/workspace/arm/lm3s811/TI_Stellaris/driverlib/can.c ****     CAN_BIT_VALUE(8, 7, 4),     // 16 clocks/bit
 119:/home/cuil/workspace/arm/lm3s811/TI_Stellaris/driverlib/can.c ****     CAN_BIT_VALUE(9, 7, 4),     // 17 clocks/bit
 120:/home/cuil/workspace/arm/lm3s811/TI_Stellaris/driverlib/can.c ****     CAN_BIT_VALUE(9, 8, 4),     // 18 clocks/bit
 121:/home/cuil/workspace/arm/lm3s811/TI_Stellaris/driverlib/can.c ****     CAN_BIT_VALUE(10, 8, 4)     // 19 clocks/bit
 122:/home/cuil/workspace/arm/lm3s811/TI_Stellaris/driverlib/can.c **** };
 123:/home/cuil/workspace/arm/lm3s811/TI_Stellaris/driverlib/can.c **** 
 124:/home/cuil/workspace/arm/lm3s811/TI_Stellaris/driverlib/can.c **** //*****************************************************************************
 125:/home/cuil/workspace/arm/lm3s811/TI_Stellaris/driverlib/can.c **** //
 126:/home/cuil/workspace/arm/lm3s811/TI_Stellaris/driverlib/can.c **** //! \internal
 127:/home/cuil/workspace/arm/lm3s811/TI_Stellaris/driverlib/can.c **** //! Checks a CAN base address.
 128:/home/cuil/workspace/arm/lm3s811/TI_Stellaris/driverlib/can.c **** //!
 129:/home/cuil/workspace/arm/lm3s811/TI_Stellaris/driverlib/can.c **** //! \param ulBase is the base address of the CAN controller.
 130:/home/cuil/workspace/arm/lm3s811/TI_Stellaris/driverlib/can.c **** //!
 131:/home/cuil/workspace/arm/lm3s811/TI_Stellaris/driverlib/can.c **** //! This function determines if a CAN controller base address is valid.
 132:/home/cuil/workspace/arm/lm3s811/TI_Stellaris/driverlib/can.c **** //!
 133:/home/cuil/workspace/arm/lm3s811/TI_Stellaris/driverlib/can.c **** //! \return Returns \b true if the base address is valid and \b false
 134:/home/cuil/workspace/arm/lm3s811/TI_Stellaris/driverlib/can.c **** //! otherwise.
 135:/home/cuil/workspace/arm/lm3s811/TI_Stellaris/driverlib/can.c **** //
 136:/home/cuil/workspace/arm/lm3s811/TI_Stellaris/driverlib/can.c **** //*****************************************************************************
 137:/home/cuil/workspace/arm/lm3s811/TI_Stellaris/driverlib/can.c **** #ifdef DEBUG
 138:/home/cuil/workspace/arm/lm3s811/TI_Stellaris/driverlib/can.c **** static tBoolean
 139:/home/cuil/workspace/arm/lm3s811/TI_Stellaris/driverlib/can.c **** CANBaseValid(unsigned long ulBase)
 140:/home/cuil/workspace/arm/lm3s811/TI_Stellaris/driverlib/can.c **** {
 141:/home/cuil/workspace/arm/lm3s811/TI_Stellaris/driverlib/can.c ****     return((ulBase == CAN0_BASE) || (ulBase == CAN1_BASE) ||
 142:/home/cuil/workspace/arm/lm3s811/TI_Stellaris/driverlib/can.c ****            (ulBase == CAN2_BASE));
 143:/home/cuil/workspace/arm/lm3s811/TI_Stellaris/driverlib/can.c **** }
 144:/home/cuil/workspace/arm/lm3s811/TI_Stellaris/driverlib/can.c **** #endif
 145:/home/cuil/workspace/arm/lm3s811/TI_Stellaris/driverlib/can.c **** 
 146:/home/cuil/workspace/arm/lm3s811/TI_Stellaris/driverlib/can.c **** //*****************************************************************************
 147:/home/cuil/workspace/arm/lm3s811/TI_Stellaris/driverlib/can.c **** //
 148:/home/cuil/workspace/arm/lm3s811/TI_Stellaris/driverlib/can.c **** //! \internal
 149:/home/cuil/workspace/arm/lm3s811/TI_Stellaris/driverlib/can.c **** //!
 150:/home/cuil/workspace/arm/lm3s811/TI_Stellaris/driverlib/can.c **** //! Returns the CAN controller interrupt number.
 151:/home/cuil/workspace/arm/lm3s811/TI_Stellaris/driverlib/can.c **** //!
 152:/home/cuil/workspace/arm/lm3s811/TI_Stellaris/driverlib/can.c **** //! \param ulBase is the base address of the selected CAN controller
 153:/home/cuil/workspace/arm/lm3s811/TI_Stellaris/driverlib/can.c **** //!
 154:/home/cuil/workspace/arm/lm3s811/TI_Stellaris/driverlib/can.c **** //! Given a CAN controller base address, this function returns the 
 155:/home/cuil/workspace/arm/lm3s811/TI_Stellaris/driverlib/can.c **** //! corresponding interrupt number.
 156:/home/cuil/workspace/arm/lm3s811/TI_Stellaris/driverlib/can.c **** //!
 157:/home/cuil/workspace/arm/lm3s811/TI_Stellaris/driverlib/can.c **** //! This function replaces the original CANGetIntNumber() API and performs the
 158:/home/cuil/workspace/arm/lm3s811/TI_Stellaris/driverlib/can.c **** //! same actions.  A macro is provided in <tt>can.h</tt> to map the original
 159:/home/cuil/workspace/arm/lm3s811/TI_Stellaris/driverlib/can.c **** //! API to this API.
 160:/home/cuil/workspace/arm/lm3s811/TI_Stellaris/driverlib/can.c **** //!
 161:/home/cuil/workspace/arm/lm3s811/TI_Stellaris/driverlib/can.c **** //! \return Returns a CAN interrupt number, or -1 if \e ulPort is invalid.
 162:/home/cuil/workspace/arm/lm3s811/TI_Stellaris/driverlib/can.c **** //
 163:/home/cuil/workspace/arm/lm3s811/TI_Stellaris/driverlib/can.c **** //*****************************************************************************
 164:/home/cuil/workspace/arm/lm3s811/TI_Stellaris/driverlib/can.c **** static long
 165:/home/cuil/workspace/arm/lm3s811/TI_Stellaris/driverlib/can.c **** CANIntNumberGet(unsigned long ulBase)
 166:/home/cuil/workspace/arm/lm3s811/TI_Stellaris/driverlib/can.c **** {
 5860              		.loc 1 166 0
 5861              		.cfi_startproc
 5862              		@ args = 0, pretend = 0, frame = 16
 5863              		@ frame_needed = 1, uses_anonymous_args = 0
 5864              		@ link register save eliminated.
 5865 0000 80B4     		push	{r7}
 5866              	.LCFI0:
 5867              		.cfi_def_cfa_offset 4
 5868 0002 85B0     		sub	sp, sp, #20
 5869              	.LCFI1:
 5870              		.cfi_def_cfa_offset 24
 5871 0004 00AF     		add	r7, sp, #0
 5872              		.cfi_offset 7, -4
 5873              	.LCFI2:
 5874              		.cfi_def_cfa_register 7
 5875 0006 7860     		str	r0, [r7, #4]
 167:/home/cuil/workspace/arm/lm3s811/TI_Stellaris/driverlib/can.c ****     long lIntNumber;
 168:/home/cuil/workspace/arm/lm3s811/TI_Stellaris/driverlib/can.c **** 
 169:/home/cuil/workspace/arm/lm3s811/TI_Stellaris/driverlib/can.c ****     //
 170:/home/cuil/workspace/arm/lm3s811/TI_Stellaris/driverlib/can.c ****     // Return the interrupt number for the given CAN controller.
 171:/home/cuil/workspace/arm/lm3s811/TI_Stellaris/driverlib/can.c ****     //
 172:/home/cuil/workspace/arm/lm3s811/TI_Stellaris/driverlib/can.c ****     switch(ulBase)
 5876              		.loc 1 172 0
 5877 0008 7B68     		ldr	r3, [r7, #4]
 5878 000a 0F4A     		ldr	r2, .L8
 5879 000c 9342     		cmp	r3, r2
 5880 000e 09D0     		beq	.L4
 5881 0010 0E4A     		ldr	r2, .L8+4
 5882 0012 9342     		cmp	r3, r2
 5883 0014 0AD0     		beq	.L5
 5884 0016 0E4A     		ldr	r2, .L8+8
 5885 0018 9342     		cmp	r3, r2
 5886 001a 0BD1     		bne	.L7
 5887              	.L3:
 173:/home/cuil/workspace/arm/lm3s811/TI_Stellaris/driverlib/can.c ****     {
 174:/home/cuil/workspace/arm/lm3s811/TI_Stellaris/driverlib/can.c ****         //
 175:/home/cuil/workspace/arm/lm3s811/TI_Stellaris/driverlib/can.c ****         // Return the interrupt number for CAN 0
 176:/home/cuil/workspace/arm/lm3s811/TI_Stellaris/driverlib/can.c ****         //
 177:/home/cuil/workspace/arm/lm3s811/TI_Stellaris/driverlib/can.c ****         case CAN0_BASE:
 178:/home/cuil/workspace/arm/lm3s811/TI_Stellaris/driverlib/can.c ****         {
 179:/home/cuil/workspace/arm/lm3s811/TI_Stellaris/driverlib/can.c ****             lIntNumber = INT_CAN0;
 5888              		.loc 1 179 0
 5889 001c 4FF03703 		mov	r3, #55
 5890 0020 FB60     		str	r3, [r7, #12]
 180:/home/cuil/workspace/arm/lm3s811/TI_Stellaris/driverlib/can.c ****             break;
 5891              		.loc 1 180 0
 5892 0022 0AE0     		b	.L6
 5893              	.L4:
 181:/home/cuil/workspace/arm/lm3s811/TI_Stellaris/driverlib/can.c ****         }
 182:/home/cuil/workspace/arm/lm3s811/TI_Stellaris/driverlib/can.c **** 
 183:/home/cuil/workspace/arm/lm3s811/TI_Stellaris/driverlib/can.c ****         //
 184:/home/cuil/workspace/arm/lm3s811/TI_Stellaris/driverlib/can.c ****         // Return the interrupt number for CAN 1
 185:/home/cuil/workspace/arm/lm3s811/TI_Stellaris/driverlib/can.c ****         //
 186:/home/cuil/workspace/arm/lm3s811/TI_Stellaris/driverlib/can.c ****         case CAN1_BASE:
 187:/home/cuil/workspace/arm/lm3s811/TI_Stellaris/driverlib/can.c ****         {
 188:/home/cuil/workspace/arm/lm3s811/TI_Stellaris/driverlib/can.c ****             lIntNumber = INT_CAN1;
 5894              		.loc 1 188 0
 5895 0024 4FF03803 		mov	r3, #56
 5896 0028 FB60     		str	r3, [r7, #12]
 189:/home/cuil/workspace/arm/lm3s811/TI_Stellaris/driverlib/can.c ****             break;
 5897              		.loc 1 189 0
 5898 002a 06E0     		b	.L6
 5899              	.L5:
 190:/home/cuil/workspace/arm/lm3s811/TI_Stellaris/driverlib/can.c ****         }
 191:/home/cuil/workspace/arm/lm3s811/TI_Stellaris/driverlib/can.c **** 
 192:/home/cuil/workspace/arm/lm3s811/TI_Stellaris/driverlib/can.c ****         //
 193:/home/cuil/workspace/arm/lm3s811/TI_Stellaris/driverlib/can.c ****         // Return the interrupt number for CAN 2
 194:/home/cuil/workspace/arm/lm3s811/TI_Stellaris/driverlib/can.c ****         //
 195:/home/cuil/workspace/arm/lm3s811/TI_Stellaris/driverlib/can.c ****         case CAN2_BASE:
 196:/home/cuil/workspace/arm/lm3s811/TI_Stellaris/driverlib/can.c ****         {
 197:/home/cuil/workspace/arm/lm3s811/TI_Stellaris/driverlib/can.c ****             lIntNumber = INT_CAN2;
 5900              		.loc 1 197 0
 5901 002c 4FF03903 		mov	r3, #57
 5902 0030 FB60     		str	r3, [r7, #12]
 198:/home/cuil/workspace/arm/lm3s811/TI_Stellaris/driverlib/can.c ****             break;
 5903              		.loc 1 198 0
 5904 0032 02E0     		b	.L6
 5905              	.L7:
 199:/home/cuil/workspace/arm/lm3s811/TI_Stellaris/driverlib/can.c ****         }
 200:/home/cuil/workspace/arm/lm3s811/TI_Stellaris/driverlib/can.c **** 
 201:/home/cuil/workspace/arm/lm3s811/TI_Stellaris/driverlib/can.c ****         //
 202:/home/cuil/workspace/arm/lm3s811/TI_Stellaris/driverlib/can.c ****         // Return -1 to indicate a bad address was passed in.
 203:/home/cuil/workspace/arm/lm3s811/TI_Stellaris/driverlib/can.c ****         //
 204:/home/cuil/workspace/arm/lm3s811/TI_Stellaris/driverlib/can.c ****         default:
 205:/home/cuil/workspace/arm/lm3s811/TI_Stellaris/driverlib/can.c ****         {
 206:/home/cuil/workspace/arm/lm3s811/TI_Stellaris/driverlib/can.c ****             lIntNumber = -1;
 5906              		.loc 1 206 0
 5907 0034 4FF0FF33 		mov	r3, #-1
 5908 0038 FB60     		str	r3, [r7, #12]
 5909              	.L6:
 207:/home/cuil/workspace/arm/lm3s811/TI_Stellaris/driverlib/can.c ****         }
 208:/home/cuil/workspace/arm/lm3s811/TI_Stellaris/driverlib/can.c ****     }
 209:/home/cuil/workspace/arm/lm3s811/TI_Stellaris/driverlib/can.c ****     return(lIntNumber);
 5910              		.loc 1 209 0
 5911 003a FB68     		ldr	r3, [r7, #12]
 210:/home/cuil/workspace/arm/lm3s811/TI_Stellaris/driverlib/can.c **** }
 5912              		.loc 1 210 0
 5913 003c 1846     		mov	r0, r3
 5914 003e 07F11407 		add	r7, r7, #20
 5915 0042 BD46     		mov	sp, r7
 5916 0044 80BC     		pop	{r7}
 5917 0046 7047     		bx	lr
 5918              	.L9:
 5919              		.align	2
 5920              	.L8:
 5921 0048 00100440 		.word	1074008064
 5922 004c 00200440 		.word	1074012160
 5923 0050 00000440 		.word	1074003968
 5924              		.cfi_endproc
 5925              	.LFE0:
 5927              		.section	.text.CANRegRead,"ax",%progbits
 5928              		.align	2
 5929              		.thumb
 5930              		.thumb_func
 5932              	CANRegRead:
 5933              	.LFB1:
 211:/home/cuil/workspace/arm/lm3s811/TI_Stellaris/driverlib/can.c **** 
 212:/home/cuil/workspace/arm/lm3s811/TI_Stellaris/driverlib/can.c **** //*****************************************************************************
 213:/home/cuil/workspace/arm/lm3s811/TI_Stellaris/driverlib/can.c **** //
 214:/home/cuil/workspace/arm/lm3s811/TI_Stellaris/driverlib/can.c **** //! \internal
 215:/home/cuil/workspace/arm/lm3s811/TI_Stellaris/driverlib/can.c **** //!
 216:/home/cuil/workspace/arm/lm3s811/TI_Stellaris/driverlib/can.c **** //! Reads a CAN controller register.
 217:/home/cuil/workspace/arm/lm3s811/TI_Stellaris/driverlib/can.c **** //!
 218:/home/cuil/workspace/arm/lm3s811/TI_Stellaris/driverlib/can.c **** //! \param ulRegAddress is the full address of the CAN register to be read.
 219:/home/cuil/workspace/arm/lm3s811/TI_Stellaris/driverlib/can.c **** //!
 220:/home/cuil/workspace/arm/lm3s811/TI_Stellaris/driverlib/can.c **** //! This function performs the necessary synchronization to read from a CAN
 221:/home/cuil/workspace/arm/lm3s811/TI_Stellaris/driverlib/can.c **** //! controller register.
 222:/home/cuil/workspace/arm/lm3s811/TI_Stellaris/driverlib/can.c **** //!
 223:/home/cuil/workspace/arm/lm3s811/TI_Stellaris/driverlib/can.c **** //! This function replaces the original CANReadReg() API and performs the same
 224:/home/cuil/workspace/arm/lm3s811/TI_Stellaris/driverlib/can.c **** //! actions.  A macro is provided in <tt>can.h</tt> to map the original API to
 225:/home/cuil/workspace/arm/lm3s811/TI_Stellaris/driverlib/can.c **** //! this API.
 226:/home/cuil/workspace/arm/lm3s811/TI_Stellaris/driverlib/can.c **** //!
 227:/home/cuil/workspace/arm/lm3s811/TI_Stellaris/driverlib/can.c **** //! \note This function provides the delay required to access CAN registers.
 228:/home/cuil/workspace/arm/lm3s811/TI_Stellaris/driverlib/can.c **** //! This delay is required when accessing CAN registers directly.
 229:/home/cuil/workspace/arm/lm3s811/TI_Stellaris/driverlib/can.c **** //!
 230:/home/cuil/workspace/arm/lm3s811/TI_Stellaris/driverlib/can.c **** //! \return Returns the value read from the register.
 231:/home/cuil/workspace/arm/lm3s811/TI_Stellaris/driverlib/can.c **** //
 232:/home/cuil/workspace/arm/lm3s811/TI_Stellaris/driverlib/can.c **** //*****************************************************************************
 233:/home/cuil/workspace/arm/lm3s811/TI_Stellaris/driverlib/can.c **** static unsigned long
 234:/home/cuil/workspace/arm/lm3s811/TI_Stellaris/driverlib/can.c **** CANRegRead(unsigned long ulRegAddress)
 235:/home/cuil/workspace/arm/lm3s811/TI_Stellaris/driverlib/can.c **** {
 5934              		.loc 1 235 0
 5935              		.cfi_startproc
 5936              		@ args = 0, pretend = 0, frame = 24
 5937              		@ frame_needed = 1, uses_anonymous_args = 0
 5938 0000 80B5     		push	{r7, lr}
 5939              	.LCFI3:
 5940              		.cfi_def_cfa_offset 8
 5941 0002 86B0     		sub	sp, sp, #24
 5942              	.LCFI4:
 5943              		.cfi_def_cfa_offset 32
 5944 0004 00AF     		add	r7, sp, #0
 5945              		.cfi_offset 14, -4
 5946              		.cfi_offset 7, -8
 5947              	.LCFI5:
 5948              		.cfi_def_cfa_register 7
 5949 0006 7860     		str	r0, [r7, #4]
 236:/home/cuil/workspace/arm/lm3s811/TI_Stellaris/driverlib/can.c ****     volatile unsigned long ulDelay;
 237:/home/cuil/workspace/arm/lm3s811/TI_Stellaris/driverlib/can.c ****     unsigned long ulRetVal;
 238:/home/cuil/workspace/arm/lm3s811/TI_Stellaris/driverlib/can.c ****     unsigned long ulIntNumber;
 239:/home/cuil/workspace/arm/lm3s811/TI_Stellaris/driverlib/can.c ****     unsigned long ulReenableInts;
 240:/home/cuil/workspace/arm/lm3s811/TI_Stellaris/driverlib/can.c **** 
 241:/home/cuil/workspace/arm/lm3s811/TI_Stellaris/driverlib/can.c ****     //
 242:/home/cuil/workspace/arm/lm3s811/TI_Stellaris/driverlib/can.c ****     // Get the CAN interrupt number from the register base address.
 243:/home/cuil/workspace/arm/lm3s811/TI_Stellaris/driverlib/can.c ****     //
 244:/home/cuil/workspace/arm/lm3s811/TI_Stellaris/driverlib/can.c ****     ulIntNumber = CANIntNumberGet(ulRegAddress & 0xfffff000);
 5950              		.loc 1 244 0
 5951 0008 7B68     		ldr	r3, [r7, #4]
 5952 000a 23F47E63 		bic	r3, r3, #4064
 5953 000e 23F01F03 		bic	r3, r3, #31
 5954 0012 1846     		mov	r0, r3
 5955 0014 FFF7FEFF 		bl	CANIntNumberGet
 5956 0018 0346     		mov	r3, r0
 5957 001a 7B61     		str	r3, [r7, #20]
 245:/home/cuil/workspace/arm/lm3s811/TI_Stellaris/driverlib/can.c **** 
 246:/home/cuil/workspace/arm/lm3s811/TI_Stellaris/driverlib/can.c ****     //
 247:/home/cuil/workspace/arm/lm3s811/TI_Stellaris/driverlib/can.c ****     // Make sure that the CAN base address was valid.
 248:/home/cuil/workspace/arm/lm3s811/TI_Stellaris/driverlib/can.c ****     //
 249:/home/cuil/workspace/arm/lm3s811/TI_Stellaris/driverlib/can.c ****     ASSERT(ulIntNumber != (unsigned long)-1);
 250:/home/cuil/workspace/arm/lm3s811/TI_Stellaris/driverlib/can.c **** 
 251:/home/cuil/workspace/arm/lm3s811/TI_Stellaris/driverlib/can.c ****     //
 252:/home/cuil/workspace/arm/lm3s811/TI_Stellaris/driverlib/can.c ****     // Remember current state so that CAN interrupts are only re-enabled if
 253:/home/cuil/workspace/arm/lm3s811/TI_Stellaris/driverlib/can.c ****     // they were already enabled.
 254:/home/cuil/workspace/arm/lm3s811/TI_Stellaris/driverlib/can.c ****     //
 255:/home/cuil/workspace/arm/lm3s811/TI_Stellaris/driverlib/can.c ****     ulReenableInts = HWREG(NVIC_EN1) & (1 << (ulIntNumber - 48));
 5958              		.loc 1 255 0
 5959 001c 164B     		ldr	r3, .L15
 5960 001e 1A68     		ldr	r2, [r3, #0]
 5961 0020 7B69     		ldr	r3, [r7, #20]
 5962 0022 A3F13003 		sub	r3, r3, #48
 5963 0026 4FF00101 		mov	r1, #1
 5964 002a 01FA03F3 		lsl	r3, r1, r3
 5965 002e 02EA0303 		and	r3, r2, r3
 5966 0032 3B61     		str	r3, [r7, #16]
 256:/home/cuil/workspace/arm/lm3s811/TI_Stellaris/driverlib/can.c **** 
 257:/home/cuil/workspace/arm/lm3s811/TI_Stellaris/driverlib/can.c ****     //
 258:/home/cuil/workspace/arm/lm3s811/TI_Stellaris/driverlib/can.c ****     // If the CAN interrupt was enabled then disable it.
 259:/home/cuil/workspace/arm/lm3s811/TI_Stellaris/driverlib/can.c ****     //
 260:/home/cuil/workspace/arm/lm3s811/TI_Stellaris/driverlib/can.c ****     if(ulReenableInts)
 5967              		.loc 1 260 0
 5968 0034 3B69     		ldr	r3, [r7, #16]
 5969 0036 002B     		cmp	r3, #0
 5970 0038 02D0     		beq	.L11
 261:/home/cuil/workspace/arm/lm3s811/TI_Stellaris/driverlib/can.c ****     {
 262:/home/cuil/workspace/arm/lm3s811/TI_Stellaris/driverlib/can.c ****         IntDisable(ulIntNumber);
 5971              		.loc 1 262 0
 5972 003a 7869     		ldr	r0, [r7, #20]
 5973 003c FFF7FEFF 		bl	IntDisable
 5974              	.L11:
 263:/home/cuil/workspace/arm/lm3s811/TI_Stellaris/driverlib/can.c ****     }
 264:/home/cuil/workspace/arm/lm3s811/TI_Stellaris/driverlib/can.c **** 
 265:/home/cuil/workspace/arm/lm3s811/TI_Stellaris/driverlib/can.c ****     //
 266:/home/cuil/workspace/arm/lm3s811/TI_Stellaris/driverlib/can.c ****     // Trigger the initial read to the CAN controller.  The value returned at
 267:/home/cuil/workspace/arm/lm3s811/TI_Stellaris/driverlib/can.c ****     // this point is not valid.
 268:/home/cuil/workspace/arm/lm3s811/TI_Stellaris/driverlib/can.c ****     //
 269:/home/cuil/workspace/arm/lm3s811/TI_Stellaris/driverlib/can.c ****     HWREG(ulRegAddress);
 5975              		.loc 1 269 0
 5976 0040 7B68     		ldr	r3, [r7, #4]
 5977 0042 1B68     		ldr	r3, [r3, #0]
 270:/home/cuil/workspace/arm/lm3s811/TI_Stellaris/driverlib/can.c **** 
 271:/home/cuil/workspace/arm/lm3s811/TI_Stellaris/driverlib/can.c ****     //
 272:/home/cuil/workspace/arm/lm3s811/TI_Stellaris/driverlib/can.c ****     // This delay is necessary for the CAN have the correct data on the bus.
 273:/home/cuil/workspace/arm/lm3s811/TI_Stellaris/driverlib/can.c ****     //
 274:/home/cuil/workspace/arm/lm3s811/TI_Stellaris/driverlib/can.c ****     for(ulDelay = 0; ulDelay < CAN_RW_DELAY; ulDelay++)
 5978              		.loc 1 274 0
 5979 0044 4FF00003 		mov	r3, #0
 5980 0048 BB60     		str	r3, [r7, #8]
 5981 004a 03E0     		b	.L12
 5982              	.L13:
 5983              		.loc 1 274 0 is_stmt 0 discriminator 2
 5984 004c BB68     		ldr	r3, [r7, #8]
 5985 004e 03F10103 		add	r3, r3, #1
 5986 0052 BB60     		str	r3, [r7, #8]
 5987              	.L12:
 5988              		.loc 1 274 0 discriminator 1
 5989 0054 BB68     		ldr	r3, [r7, #8]
 5990 0056 042B     		cmp	r3, #4
 5991 0058 F8D9     		bls	.L13
 275:/home/cuil/workspace/arm/lm3s811/TI_Stellaris/driverlib/can.c ****     {
 276:/home/cuil/workspace/arm/lm3s811/TI_Stellaris/driverlib/can.c ****     }
 277:/home/cuil/workspace/arm/lm3s811/TI_Stellaris/driverlib/can.c **** 
 278:/home/cuil/workspace/arm/lm3s811/TI_Stellaris/driverlib/can.c ****     //
 279:/home/cuil/workspace/arm/lm3s811/TI_Stellaris/driverlib/can.c ****     // Do the final read that has the valid value of the register.
 280:/home/cuil/workspace/arm/lm3s811/TI_Stellaris/driverlib/can.c ****     //
 281:/home/cuil/workspace/arm/lm3s811/TI_Stellaris/driverlib/can.c ****     ulRetVal = HWREG(ulRegAddress);
 5992              		.loc 1 281 0 is_stmt 1
 5993 005a 7B68     		ldr	r3, [r7, #4]
 5994 005c 1B68     		ldr	r3, [r3, #0]
 5995 005e FB60     		str	r3, [r7, #12]
 282:/home/cuil/workspace/arm/lm3s811/TI_Stellaris/driverlib/can.c **** 
 283:/home/cuil/workspace/arm/lm3s811/TI_Stellaris/driverlib/can.c ****     //
 284:/home/cuil/workspace/arm/lm3s811/TI_Stellaris/driverlib/can.c ****     // Enable CAN interrupts if they were enabled before this call.
 285:/home/cuil/workspace/arm/lm3s811/TI_Stellaris/driverlib/can.c ****     //
 286:/home/cuil/workspace/arm/lm3s811/TI_Stellaris/driverlib/can.c ****     if(ulReenableInts)
 5996              		.loc 1 286 0
 5997 0060 3B69     		ldr	r3, [r7, #16]
 5998 0062 002B     		cmp	r3, #0
 5999 0064 02D0     		beq	.L14
 287:/home/cuil/workspace/arm/lm3s811/TI_Stellaris/driverlib/can.c ****     {
 288:/home/cuil/workspace/arm/lm3s811/TI_Stellaris/driverlib/can.c ****         IntEnable(ulIntNumber);
 6000              		.loc 1 288 0
 6001 0066 7869     		ldr	r0, [r7, #20]
 6002 0068 FFF7FEFF 		bl	IntEnable
 6003              	.L14:
 289:/home/cuil/workspace/arm/lm3s811/TI_Stellaris/driverlib/can.c ****     }
 290:/home/cuil/workspace/arm/lm3s811/TI_Stellaris/driverlib/can.c **** 
 291:/home/cuil/workspace/arm/lm3s811/TI_Stellaris/driverlib/can.c ****     return(ulRetVal);
 6004              		.loc 1 291 0
 6005 006c FB68     		ldr	r3, [r7, #12]
 292:/home/cuil/workspace/arm/lm3s811/TI_Stellaris/driverlib/can.c **** }
 6006              		.loc 1 292 0
 6007 006e 1846     		mov	r0, r3
 6008 0070 07F11807 		add	r7, r7, #24
 6009 0074 BD46     		mov	sp, r7
 6010 0076 80BD     		pop	{r7, pc}
 6011              	.L16:
 6012              		.align	2
 6013              	.L15:
 6014 0078 04E100E0 		.word	-536813308
 6015              		.cfi_endproc
 6016              	.LFE1:
 6018              		.section	.text.CANRegWrite,"ax",%progbits
 6019              		.align	2
 6020              		.thumb
 6021              		.thumb_func
 6023              	CANRegWrite:
 6024              	.LFB2:
 293:/home/cuil/workspace/arm/lm3s811/TI_Stellaris/driverlib/can.c **** 
 294:/home/cuil/workspace/arm/lm3s811/TI_Stellaris/driverlib/can.c **** //*****************************************************************************
 295:/home/cuil/workspace/arm/lm3s811/TI_Stellaris/driverlib/can.c **** //
 296:/home/cuil/workspace/arm/lm3s811/TI_Stellaris/driverlib/can.c **** //! \internal
 297:/home/cuil/workspace/arm/lm3s811/TI_Stellaris/driverlib/can.c **** //!
 298:/home/cuil/workspace/arm/lm3s811/TI_Stellaris/driverlib/can.c **** //! Writes a CAN controller register.
 299:/home/cuil/workspace/arm/lm3s811/TI_Stellaris/driverlib/can.c **** //!
 300:/home/cuil/workspace/arm/lm3s811/TI_Stellaris/driverlib/can.c **** //! \param ulRegAddress is the full address of the CAN register to be written.
 301:/home/cuil/workspace/arm/lm3s811/TI_Stellaris/driverlib/can.c **** //! \param ulRegValue is the value to write into the register specified by
 302:/home/cuil/workspace/arm/lm3s811/TI_Stellaris/driverlib/can.c **** //! \e ulRegAddress.
 303:/home/cuil/workspace/arm/lm3s811/TI_Stellaris/driverlib/can.c **** //!
 304:/home/cuil/workspace/arm/lm3s811/TI_Stellaris/driverlib/can.c **** //! This function takes care of the synchronization necessary to write to a
 305:/home/cuil/workspace/arm/lm3s811/TI_Stellaris/driverlib/can.c **** //! CAN controller register.
 306:/home/cuil/workspace/arm/lm3s811/TI_Stellaris/driverlib/can.c **** //!
 307:/home/cuil/workspace/arm/lm3s811/TI_Stellaris/driverlib/can.c **** //! This function replaces the original CANWriteReg() API and performs the same
 308:/home/cuil/workspace/arm/lm3s811/TI_Stellaris/driverlib/can.c **** //! actions.  A macro is provided in <tt>can.h</tt> to map the original API to
 309:/home/cuil/workspace/arm/lm3s811/TI_Stellaris/driverlib/can.c **** //! this API.
 310:/home/cuil/workspace/arm/lm3s811/TI_Stellaris/driverlib/can.c **** //!
 311:/home/cuil/workspace/arm/lm3s811/TI_Stellaris/driverlib/can.c **** //! \note The delays in this function are required when accessing CAN registers
 312:/home/cuil/workspace/arm/lm3s811/TI_Stellaris/driverlib/can.c **** //! directly.
 313:/home/cuil/workspace/arm/lm3s811/TI_Stellaris/driverlib/can.c **** //!
 314:/home/cuil/workspace/arm/lm3s811/TI_Stellaris/driverlib/can.c **** //! \return None.
 315:/home/cuil/workspace/arm/lm3s811/TI_Stellaris/driverlib/can.c **** //
 316:/home/cuil/workspace/arm/lm3s811/TI_Stellaris/driverlib/can.c **** //*****************************************************************************
 317:/home/cuil/workspace/arm/lm3s811/TI_Stellaris/driverlib/can.c **** static void
 318:/home/cuil/workspace/arm/lm3s811/TI_Stellaris/driverlib/can.c **** CANRegWrite(unsigned long ulRegAddress, unsigned long ulRegValue)
 319:/home/cuil/workspace/arm/lm3s811/TI_Stellaris/driverlib/can.c **** {
 6025              		.loc 1 319 0
 6026              		.cfi_startproc
 6027              		@ args = 0, pretend = 0, frame = 16
 6028              		@ frame_needed = 1, uses_anonymous_args = 0
 6029              		@ link register save eliminated.
 6030 0000 80B4     		push	{r7}
 6031              	.LCFI6:
 6032              		.cfi_def_cfa_offset 4
 6033 0002 85B0     		sub	sp, sp, #20
 6034              	.LCFI7:
 6035              		.cfi_def_cfa_offset 24
 6036 0004 00AF     		add	r7, sp, #0
 6037              		.cfi_offset 7, -4
 6038              	.LCFI8:
 6039              		.cfi_def_cfa_register 7
 6040 0006 7860     		str	r0, [r7, #4]
 6041 0008 3960     		str	r1, [r7, #0]
 320:/home/cuil/workspace/arm/lm3s811/TI_Stellaris/driverlib/can.c ****     volatile unsigned long ulDelay;
 321:/home/cuil/workspace/arm/lm3s811/TI_Stellaris/driverlib/can.c **** 
 322:/home/cuil/workspace/arm/lm3s811/TI_Stellaris/driverlib/can.c ****     //
 323:/home/cuil/workspace/arm/lm3s811/TI_Stellaris/driverlib/can.c ****     // Trigger the initial write to the CAN controller.  The value will not make
 324:/home/cuil/workspace/arm/lm3s811/TI_Stellaris/driverlib/can.c ****     // it out to the CAN controller for CAN_RW_DELAY cycles.
 325:/home/cuil/workspace/arm/lm3s811/TI_Stellaris/driverlib/can.c ****     //
 326:/home/cuil/workspace/arm/lm3s811/TI_Stellaris/driverlib/can.c ****     HWREG(ulRegAddress) = ulRegValue;
 6042              		.loc 1 326 0
 6043 000a 7B68     		ldr	r3, [r7, #4]
 6044 000c 3A68     		ldr	r2, [r7, #0]
 6045 000e 1A60     		str	r2, [r3, #0]
 327:/home/cuil/workspace/arm/lm3s811/TI_Stellaris/driverlib/can.c **** 
 328:/home/cuil/workspace/arm/lm3s811/TI_Stellaris/driverlib/can.c ****     //
 329:/home/cuil/workspace/arm/lm3s811/TI_Stellaris/driverlib/can.c ****     // Delay to allow the CAN controller to receive the new data.
 330:/home/cuil/workspace/arm/lm3s811/TI_Stellaris/driverlib/can.c ****     //
 331:/home/cuil/workspace/arm/lm3s811/TI_Stellaris/driverlib/can.c ****     for(ulDelay = 0; ulDelay < CAN_RW_DELAY; ulDelay++)
 6046              		.loc 1 331 0
 6047 0010 4FF00003 		mov	r3, #0
 6048 0014 FB60     		str	r3, [r7, #12]
 6049 0016 03E0     		b	.L18
 6050              	.L19:
 6051              		.loc 1 331 0 is_stmt 0 discriminator 2
 6052 0018 FB68     		ldr	r3, [r7, #12]
 6053 001a 03F10103 		add	r3, r3, #1
 6054 001e FB60     		str	r3, [r7, #12]
 6055              	.L18:
 6056              		.loc 1 331 0 discriminator 1
 6057 0020 FB68     		ldr	r3, [r7, #12]
 6058 0022 042B     		cmp	r3, #4
 6059 0024 F8D9     		bls	.L19
 332:/home/cuil/workspace/arm/lm3s811/TI_Stellaris/driverlib/can.c ****     {
 333:/home/cuil/workspace/arm/lm3s811/TI_Stellaris/driverlib/can.c ****     }
 334:/home/cuil/workspace/arm/lm3s811/TI_Stellaris/driverlib/can.c **** }
 6060              		.loc 1 334 0 is_stmt 1
 6061 0026 07F11407 		add	r7, r7, #20
 6062 002a BD46     		mov	sp, r7
 6063 002c 80BC     		pop	{r7}
 6064 002e 7047     		bx	lr
 6065              		.cfi_endproc
 6066              	.LFE2:
 6068              		.section	.text.CANDataRegWrite,"ax",%progbits
 6069              		.align	2
 6070              		.thumb
 6071              		.thumb_func
 6073              	CANDataRegWrite:
 6074              	.LFB3:
 335:/home/cuil/workspace/arm/lm3s811/TI_Stellaris/driverlib/can.c **** 
 336:/home/cuil/workspace/arm/lm3s811/TI_Stellaris/driverlib/can.c **** //*****************************************************************************
 337:/home/cuil/workspace/arm/lm3s811/TI_Stellaris/driverlib/can.c **** //
 338:/home/cuil/workspace/arm/lm3s811/TI_Stellaris/driverlib/can.c **** //! \internal
 339:/home/cuil/workspace/arm/lm3s811/TI_Stellaris/driverlib/can.c **** //!
 340:/home/cuil/workspace/arm/lm3s811/TI_Stellaris/driverlib/can.c **** //! Copies data from a buffer to the CAN Data registers.
 341:/home/cuil/workspace/arm/lm3s811/TI_Stellaris/driverlib/can.c **** //!
 342:/home/cuil/workspace/arm/lm3s811/TI_Stellaris/driverlib/can.c **** //! \param pucData is a pointer to the data to be written out to the CAN
 343:/home/cuil/workspace/arm/lm3s811/TI_Stellaris/driverlib/can.c **** //! controller's data registers.
 344:/home/cuil/workspace/arm/lm3s811/TI_Stellaris/driverlib/can.c **** //! \param pulRegister is an unsigned long pointer to the first register of the
 345:/home/cuil/workspace/arm/lm3s811/TI_Stellaris/driverlib/can.c **** //! CAN controller's data registers.  For example, in order to use the IF1
 346:/home/cuil/workspace/arm/lm3s811/TI_Stellaris/driverlib/can.c **** //! register set on CAN controller 0, the value would be: \b CAN0_BASE \b +
 347:/home/cuil/workspace/arm/lm3s811/TI_Stellaris/driverlib/can.c **** //! \b CAN_O_IF1DA1.
 348:/home/cuil/workspace/arm/lm3s811/TI_Stellaris/driverlib/can.c **** //! \param iSize is the number of bytes to copy into the CAN controller.
 349:/home/cuil/workspace/arm/lm3s811/TI_Stellaris/driverlib/can.c **** //!
 350:/home/cuil/workspace/arm/lm3s811/TI_Stellaris/driverlib/can.c **** //! This function takes the steps necessary to copy data from a contiguous
 351:/home/cuil/workspace/arm/lm3s811/TI_Stellaris/driverlib/can.c **** //! buffer in memory into the non-contiguous data registers used by the CAN
 352:/home/cuil/workspace/arm/lm3s811/TI_Stellaris/driverlib/can.c **** //! controller.  This function is rarely used outside of the CANMessageSet()
 353:/home/cuil/workspace/arm/lm3s811/TI_Stellaris/driverlib/can.c **** //! function.
 354:/home/cuil/workspace/arm/lm3s811/TI_Stellaris/driverlib/can.c **** //!
 355:/home/cuil/workspace/arm/lm3s811/TI_Stellaris/driverlib/can.c **** //! This function replaces the original CANWriteDataReg() API and performs the
 356:/home/cuil/workspace/arm/lm3s811/TI_Stellaris/driverlib/can.c **** //! same actions.  A macro is provided in <tt>can.h</tt> to map the original
 357:/home/cuil/workspace/arm/lm3s811/TI_Stellaris/driverlib/can.c **** //! API to this API.
 358:/home/cuil/workspace/arm/lm3s811/TI_Stellaris/driverlib/can.c **** //!
 359:/home/cuil/workspace/arm/lm3s811/TI_Stellaris/driverlib/can.c **** //! \return None.
 360:/home/cuil/workspace/arm/lm3s811/TI_Stellaris/driverlib/can.c **** //
 361:/home/cuil/workspace/arm/lm3s811/TI_Stellaris/driverlib/can.c **** //*****************************************************************************
 362:/home/cuil/workspace/arm/lm3s811/TI_Stellaris/driverlib/can.c **** static void
 363:/home/cuil/workspace/arm/lm3s811/TI_Stellaris/driverlib/can.c **** CANDataRegWrite(unsigned char *pucData, unsigned long *pulRegister,
 364:/home/cuil/workspace/arm/lm3s811/TI_Stellaris/driverlib/can.c ****                 unsigned long ulSize)
 365:/home/cuil/workspace/arm/lm3s811/TI_Stellaris/driverlib/can.c **** {
 6075              		.loc 1 365 0
 6076              		.cfi_startproc
 6077              		@ args = 0, pretend = 0, frame = 24
 6078              		@ frame_needed = 1, uses_anonymous_args = 0
 6079 0000 80B5     		push	{r7, lr}
 6080              	.LCFI9:
 6081              		.cfi_def_cfa_offset 8
 6082 0002 86B0     		sub	sp, sp, #24
 6083              	.LCFI10:
 6084              		.cfi_def_cfa_offset 32
 6085 0004 00AF     		add	r7, sp, #0
 6086              		.cfi_offset 14, -4
 6087              		.cfi_offset 7, -8
 6088              	.LCFI11:
 6089              		.cfi_def_cfa_register 7
 6090 0006 F860     		str	r0, [r7, #12]
 6091 0008 B960     		str	r1, [r7, #8]
 6092 000a 7A60     		str	r2, [r7, #4]
 366:/home/cuil/workspace/arm/lm3s811/TI_Stellaris/driverlib/can.c ****     unsigned long ulIdx, ulValue;
 367:/home/cuil/workspace/arm/lm3s811/TI_Stellaris/driverlib/can.c **** 
 368:/home/cuil/workspace/arm/lm3s811/TI_Stellaris/driverlib/can.c ****     //
 369:/home/cuil/workspace/arm/lm3s811/TI_Stellaris/driverlib/can.c ****     // Loop always copies 1 or 2 bytes per iteration.
 370:/home/cuil/workspace/arm/lm3s811/TI_Stellaris/driverlib/can.c ****     //
 371:/home/cuil/workspace/arm/lm3s811/TI_Stellaris/driverlib/can.c ****     for(ulIdx = 0; ulIdx < ulSize; )
 6093              		.loc 1 371 0
 6094 000c 4FF00003 		mov	r3, #0
 6095 0010 7B61     		str	r3, [r7, #20]
 6096 0012 23E0     		b	.L21
 6097              	.L23:
 372:/home/cuil/workspace/arm/lm3s811/TI_Stellaris/driverlib/can.c ****     {
 373:/home/cuil/workspace/arm/lm3s811/TI_Stellaris/driverlib/can.c **** 
 374:/home/cuil/workspace/arm/lm3s811/TI_Stellaris/driverlib/can.c ****         //
 375:/home/cuil/workspace/arm/lm3s811/TI_Stellaris/driverlib/can.c ****         // Write out the data 16 bits at a time since this is how the registers
 376:/home/cuil/workspace/arm/lm3s811/TI_Stellaris/driverlib/can.c ****         // are aligned in memory.
 377:/home/cuil/workspace/arm/lm3s811/TI_Stellaris/driverlib/can.c ****         //
 378:/home/cuil/workspace/arm/lm3s811/TI_Stellaris/driverlib/can.c ****         ulValue = pucData[ulIdx++];
 6098              		.loc 1 378 0
 6099 0014 FA68     		ldr	r2, [r7, #12]
 6100 0016 7B69     		ldr	r3, [r7, #20]
 6101 0018 D318     		adds	r3, r2, r3
 6102 001a 1B78     		ldrb	r3, [r3, #0]	@ zero_extendqisi2
 6103 001c 3B61     		str	r3, [r7, #16]
 6104 001e 7B69     		ldr	r3, [r7, #20]
 6105 0020 03F10103 		add	r3, r3, #1
 6106 0024 7B61     		str	r3, [r7, #20]
 379:/home/cuil/workspace/arm/lm3s811/TI_Stellaris/driverlib/can.c **** 
 380:/home/cuil/workspace/arm/lm3s811/TI_Stellaris/driverlib/can.c ****         //
 381:/home/cuil/workspace/arm/lm3s811/TI_Stellaris/driverlib/can.c ****         // Only write the second byte if needed otherwise it will be zero.
 382:/home/cuil/workspace/arm/lm3s811/TI_Stellaris/driverlib/can.c ****         //
 383:/home/cuil/workspace/arm/lm3s811/TI_Stellaris/driverlib/can.c ****         if(ulIdx < ulSize)
 6107              		.loc 1 383 0
 6108 0026 7A69     		ldr	r2, [r7, #20]
 6109 0028 7B68     		ldr	r3, [r7, #4]
 6110 002a 9A42     		cmp	r2, r3
 6111 002c 0DD2     		bcs	.L22
 384:/home/cuil/workspace/arm/lm3s811/TI_Stellaris/driverlib/can.c ****         {
 385:/home/cuil/workspace/arm/lm3s811/TI_Stellaris/driverlib/can.c ****             ulValue |= (pucData[ulIdx++] << 8);
 6112              		.loc 1 385 0
 6113 002e FA68     		ldr	r2, [r7, #12]
 6114 0030 7B69     		ldr	r3, [r7, #20]
 6115 0032 D318     		adds	r3, r2, r3
 6116 0034 1B78     		ldrb	r3, [r3, #0]	@ zero_extendqisi2
 6117 0036 4FEA0323 		lsl	r3, r3, #8
 6118 003a 3A69     		ldr	r2, [r7, #16]
 6119 003c 42EA0303 		orr	r3, r2, r3
 6120 0040 3B61     		str	r3, [r7, #16]
 6121 0042 7B69     		ldr	r3, [r7, #20]
 6122 0044 03F10103 		add	r3, r3, #1
 6123 0048 7B61     		str	r3, [r7, #20]
 6124              	.L22:
 386:/home/cuil/workspace/arm/lm3s811/TI_Stellaris/driverlib/can.c ****         }
 387:/home/cuil/workspace/arm/lm3s811/TI_Stellaris/driverlib/can.c ****         CANRegWrite((unsigned long)(pulRegister++), ulValue);
 6125              		.loc 1 387 0
 6126 004a BB68     		ldr	r3, [r7, #8]
 6127 004c BA68     		ldr	r2, [r7, #8]
 6128 004e 02F10402 		add	r2, r2, #4
 6129 0052 BA60     		str	r2, [r7, #8]
 6130 0054 1846     		mov	r0, r3
 6131 0056 3969     		ldr	r1, [r7, #16]
 6132 0058 FFF7FEFF 		bl	CANRegWrite
 6133              	.L21:
 371:/home/cuil/workspace/arm/lm3s811/TI_Stellaris/driverlib/can.c ****     for(ulIdx = 0; ulIdx < ulSize; )
 6134              		.loc 1 371 0 discriminator 1
 6135 005c 7A69     		ldr	r2, [r7, #20]
 6136 005e 7B68     		ldr	r3, [r7, #4]
 6137 0060 9A42     		cmp	r2, r3
 6138 0062 D7D3     		bcc	.L23
 388:/home/cuil/workspace/arm/lm3s811/TI_Stellaris/driverlib/can.c ****     }
 389:/home/cuil/workspace/arm/lm3s811/TI_Stellaris/driverlib/can.c **** }
 6139              		.loc 1 389 0
 6140 0064 07F11807 		add	r7, r7, #24
 6141 0068 BD46     		mov	sp, r7
 6142 006a 80BD     		pop	{r7, pc}
 6143              		.cfi_endproc
 6144              	.LFE3:
 6146              		.section	.text.CANDataRegRead,"ax",%progbits
 6147              		.align	2
 6148              		.thumb
 6149              		.thumb_func
 6151              	CANDataRegRead:
 6152              	.LFB4:
 390:/home/cuil/workspace/arm/lm3s811/TI_Stellaris/driverlib/can.c **** 
 391:/home/cuil/workspace/arm/lm3s811/TI_Stellaris/driverlib/can.c **** //*****************************************************************************
 392:/home/cuil/workspace/arm/lm3s811/TI_Stellaris/driverlib/can.c **** //
 393:/home/cuil/workspace/arm/lm3s811/TI_Stellaris/driverlib/can.c **** //! \internal
 394:/home/cuil/workspace/arm/lm3s811/TI_Stellaris/driverlib/can.c **** //!
 395:/home/cuil/workspace/arm/lm3s811/TI_Stellaris/driverlib/can.c **** //! Copies data from a buffer to the CAN Data registers.
 396:/home/cuil/workspace/arm/lm3s811/TI_Stellaris/driverlib/can.c **** //!
 397:/home/cuil/workspace/arm/lm3s811/TI_Stellaris/driverlib/can.c **** //! \param pucData is a pointer to the location to store the data read from the
 398:/home/cuil/workspace/arm/lm3s811/TI_Stellaris/driverlib/can.c **** //! CAN controller's data registers.
 399:/home/cuil/workspace/arm/lm3s811/TI_Stellaris/driverlib/can.c **** //! \param pulRegister is an unsigned long pointer to the first register of the
 400:/home/cuil/workspace/arm/lm3s811/TI_Stellaris/driverlib/can.c **** //! CAN controller's data registers.  For example, in order to use the IF1
 401:/home/cuil/workspace/arm/lm3s811/TI_Stellaris/driverlib/can.c **** //! register set on CAN controller 1, the value would be: \b CAN0_BASE \b +
 402:/home/cuil/workspace/arm/lm3s811/TI_Stellaris/driverlib/can.c **** //! \b CAN_O_IF1DA1.
 403:/home/cuil/workspace/arm/lm3s811/TI_Stellaris/driverlib/can.c **** //! \param iSize is the number of bytes to copy from the CAN controller.
 404:/home/cuil/workspace/arm/lm3s811/TI_Stellaris/driverlib/can.c **** //!
 405:/home/cuil/workspace/arm/lm3s811/TI_Stellaris/driverlib/can.c **** //! This function takes the steps necessary to copy data to a contiguous buffer
 406:/home/cuil/workspace/arm/lm3s811/TI_Stellaris/driverlib/can.c **** //! in memory from the non-contiguous data registers used by the CAN
 407:/home/cuil/workspace/arm/lm3s811/TI_Stellaris/driverlib/can.c **** //! controller.  This function is rarely used outside of the CANMessageGet()
 408:/home/cuil/workspace/arm/lm3s811/TI_Stellaris/driverlib/can.c **** //! function.
 409:/home/cuil/workspace/arm/lm3s811/TI_Stellaris/driverlib/can.c **** //!
 410:/home/cuil/workspace/arm/lm3s811/TI_Stellaris/driverlib/can.c **** //! This function replaces the original CANReadDataReg() API and performs the
 411:/home/cuil/workspace/arm/lm3s811/TI_Stellaris/driverlib/can.c **** //! same actions.  A macro is provided in <tt>can.h</tt> to map the original
 412:/home/cuil/workspace/arm/lm3s811/TI_Stellaris/driverlib/can.c **** //! API to this API.
 413:/home/cuil/workspace/arm/lm3s811/TI_Stellaris/driverlib/can.c **** //!
 414:/home/cuil/workspace/arm/lm3s811/TI_Stellaris/driverlib/can.c **** //! \return None.
 415:/home/cuil/workspace/arm/lm3s811/TI_Stellaris/driverlib/can.c **** //
 416:/home/cuil/workspace/arm/lm3s811/TI_Stellaris/driverlib/can.c **** //*****************************************************************************
 417:/home/cuil/workspace/arm/lm3s811/TI_Stellaris/driverlib/can.c **** static void
 418:/home/cuil/workspace/arm/lm3s811/TI_Stellaris/driverlib/can.c **** CANDataRegRead(unsigned char *pucData, unsigned long *pulRegister,
 419:/home/cuil/workspace/arm/lm3s811/TI_Stellaris/driverlib/can.c ****                unsigned long ulSize)
 420:/home/cuil/workspace/arm/lm3s811/TI_Stellaris/driverlib/can.c **** {
 6153              		.loc 1 420 0
 6154              		.cfi_startproc
 6155              		@ args = 0, pretend = 0, frame = 24
 6156              		@ frame_needed = 1, uses_anonymous_args = 0
 6157 0000 80B5     		push	{r7, lr}
 6158              	.LCFI12:
 6159              		.cfi_def_cfa_offset 8
 6160 0002 86B0     		sub	sp, sp, #24
 6161              	.LCFI13:
 6162              		.cfi_def_cfa_offset 32
 6163 0004 00AF     		add	r7, sp, #0
 6164              		.cfi_offset 14, -4
 6165              		.cfi_offset 7, -8
 6166              	.LCFI14:
 6167              		.cfi_def_cfa_register 7
 6168 0006 F860     		str	r0, [r7, #12]
 6169 0008 B960     		str	r1, [r7, #8]
 6170 000a 7A60     		str	r2, [r7, #4]
 421:/home/cuil/workspace/arm/lm3s811/TI_Stellaris/driverlib/can.c ****     unsigned long ulIdx, ulValue;
 422:/home/cuil/workspace/arm/lm3s811/TI_Stellaris/driverlib/can.c **** 
 423:/home/cuil/workspace/arm/lm3s811/TI_Stellaris/driverlib/can.c ****     //
 424:/home/cuil/workspace/arm/lm3s811/TI_Stellaris/driverlib/can.c ****     // Loop always copies 1 or 2 bytes per iteration.
 425:/home/cuil/workspace/arm/lm3s811/TI_Stellaris/driverlib/can.c ****     //
 426:/home/cuil/workspace/arm/lm3s811/TI_Stellaris/driverlib/can.c ****     for(ulIdx = 0; ulIdx < ulSize; )
 6171              		.loc 1 426 0
 6172 000c 4FF00003 		mov	r3, #0
 6173 0010 7B61     		str	r3, [r7, #20]
 6174 0012 22E0     		b	.L25
 6175              	.L26:
 427:/home/cuil/workspace/arm/lm3s811/TI_Stellaris/driverlib/can.c ****     {
 428:/home/cuil/workspace/arm/lm3s811/TI_Stellaris/driverlib/can.c ****         //
 429:/home/cuil/workspace/arm/lm3s811/TI_Stellaris/driverlib/can.c ****         // Read out the data 16 bits at a time since this is how the registers
 430:/home/cuil/workspace/arm/lm3s811/TI_Stellaris/driverlib/can.c ****         // are aligned in memory.
 431:/home/cuil/workspace/arm/lm3s811/TI_Stellaris/driverlib/can.c ****         //
 432:/home/cuil/workspace/arm/lm3s811/TI_Stellaris/driverlib/can.c ****         ulValue = CANRegRead((unsigned long)(pulRegister++));
 6176              		.loc 1 432 0
 6177 0014 BB68     		ldr	r3, [r7, #8]
 6178 0016 BA68     		ldr	r2, [r7, #8]
 6179 0018 02F10402 		add	r2, r2, #4
 6180 001c BA60     		str	r2, [r7, #8]
 6181 001e 1846     		mov	r0, r3
 6182 0020 FFF7FEFF 		bl	CANRegRead
 6183 0024 3861     		str	r0, [r7, #16]
 433:/home/cuil/workspace/arm/lm3s811/TI_Stellaris/driverlib/can.c **** 
 434:/home/cuil/workspace/arm/lm3s811/TI_Stellaris/driverlib/can.c ****         //
 435:/home/cuil/workspace/arm/lm3s811/TI_Stellaris/driverlib/can.c ****         // Store the first byte.
 436:/home/cuil/workspace/arm/lm3s811/TI_Stellaris/driverlib/can.c ****         //
 437:/home/cuil/workspace/arm/lm3s811/TI_Stellaris/driverlib/can.c ****         pucData[ulIdx++] = (unsigned char)ulValue;
 6184              		.loc 1 437 0
 6185 0026 FA68     		ldr	r2, [r7, #12]
 6186 0028 7B69     		ldr	r3, [r7, #20]
 6187 002a D318     		adds	r3, r2, r3
 6188 002c 3A69     		ldr	r2, [r7, #16]
 6189 002e D2B2     		uxtb	r2, r2
 6190 0030 1A70     		strb	r2, [r3, #0]
 6191 0032 7B69     		ldr	r3, [r7, #20]
 6192 0034 03F10103 		add	r3, r3, #1
 6193 0038 7B61     		str	r3, [r7, #20]
 438:/home/cuil/workspace/arm/lm3s811/TI_Stellaris/driverlib/can.c **** 
 439:/home/cuil/workspace/arm/lm3s811/TI_Stellaris/driverlib/can.c ****         //
 440:/home/cuil/workspace/arm/lm3s811/TI_Stellaris/driverlib/can.c ****         // Only read the second byte if needed.
 441:/home/cuil/workspace/arm/lm3s811/TI_Stellaris/driverlib/can.c ****         //
 442:/home/cuil/workspace/arm/lm3s811/TI_Stellaris/driverlib/can.c ****         if(ulIdx < ulSize)
 6194              		.loc 1 442 0
 6195 003a 7A69     		ldr	r2, [r7, #20]
 6196 003c 7B68     		ldr	r3, [r7, #4]
 6197 003e 9A42     		cmp	r2, r3
 6198 0040 0BD2     		bcs	.L25
 443:/home/cuil/workspace/arm/lm3s811/TI_Stellaris/driverlib/can.c ****         {
 444:/home/cuil/workspace/arm/lm3s811/TI_Stellaris/driverlib/can.c ****             pucData[ulIdx++] = (unsigned char)(ulValue >> 8);
 6199              		.loc 1 444 0
 6200 0042 FA68     		ldr	r2, [r7, #12]
 6201 0044 7B69     		ldr	r3, [r7, #20]
 6202 0046 D318     		adds	r3, r2, r3
 6203 0048 3A69     		ldr	r2, [r7, #16]
 6204 004a 4FEA1222 		lsr	r2, r2, #8
 6205 004e D2B2     		uxtb	r2, r2
 6206 0050 1A70     		strb	r2, [r3, #0]
 6207 0052 7B69     		ldr	r3, [r7, #20]
 6208 0054 03F10103 		add	r3, r3, #1
 6209 0058 7B61     		str	r3, [r7, #20]
 6210              	.L25:
 426:/home/cuil/workspace/arm/lm3s811/TI_Stellaris/driverlib/can.c ****     for(ulIdx = 0; ulIdx < ulSize; )
 6211              		.loc 1 426 0 discriminator 1
 6212 005a 7A69     		ldr	r2, [r7, #20]
 6213 005c 7B68     		ldr	r3, [r7, #4]
 6214 005e 9A42     		cmp	r2, r3
 6215 0060 D8D3     		bcc	.L26
 445:/home/cuil/workspace/arm/lm3s811/TI_Stellaris/driverlib/can.c ****         }
 446:/home/cuil/workspace/arm/lm3s811/TI_Stellaris/driverlib/can.c ****     }
 447:/home/cuil/workspace/arm/lm3s811/TI_Stellaris/driverlib/can.c **** }
 6216              		.loc 1 447 0
 6217 0062 07F11807 		add	r7, r7, #24
 6218 0066 BD46     		mov	sp, r7
 6219 0068 80BD     		pop	{r7, pc}
 6220              		.cfi_endproc
 6221              	.LFE4:
 6223 006a 00BF     		.section	.text.CANInit,"ax",%progbits
 6224              		.align	2
 6225              		.global	CANInit
 6226              		.thumb
 6227              		.thumb_func
 6229              	CANInit:
 6230              	.LFB5:
 448:/home/cuil/workspace/arm/lm3s811/TI_Stellaris/driverlib/can.c **** 
 449:/home/cuil/workspace/arm/lm3s811/TI_Stellaris/driverlib/can.c **** //*****************************************************************************
 450:/home/cuil/workspace/arm/lm3s811/TI_Stellaris/driverlib/can.c **** //
 451:/home/cuil/workspace/arm/lm3s811/TI_Stellaris/driverlib/can.c **** //! Initializes the CAN controller after reset.
 452:/home/cuil/workspace/arm/lm3s811/TI_Stellaris/driverlib/can.c **** //!
 453:/home/cuil/workspace/arm/lm3s811/TI_Stellaris/driverlib/can.c **** //! \param ulBase is the base address of the CAN controller.
 454:/home/cuil/workspace/arm/lm3s811/TI_Stellaris/driverlib/can.c **** //!
 455:/home/cuil/workspace/arm/lm3s811/TI_Stellaris/driverlib/can.c **** //! After reset, the CAN controller is left in the disabled state.  However,
 456:/home/cuil/workspace/arm/lm3s811/TI_Stellaris/driverlib/can.c **** //! the memory used for message objects contains undefined values and must be
 457:/home/cuil/workspace/arm/lm3s811/TI_Stellaris/driverlib/can.c **** //! cleared prior to enabling the CAN controller the first time.  This prevents
 458:/home/cuil/workspace/arm/lm3s811/TI_Stellaris/driverlib/can.c **** //! unwanted transmission or reception of data before the message objects are
 459:/home/cuil/workspace/arm/lm3s811/TI_Stellaris/driverlib/can.c **** //! configured.  This function must be called before enabling the controller
 460:/home/cuil/workspace/arm/lm3s811/TI_Stellaris/driverlib/can.c **** //! the first time.
 461:/home/cuil/workspace/arm/lm3s811/TI_Stellaris/driverlib/can.c **** //!
 462:/home/cuil/workspace/arm/lm3s811/TI_Stellaris/driverlib/can.c **** //! \return None.
 463:/home/cuil/workspace/arm/lm3s811/TI_Stellaris/driverlib/can.c **** //
 464:/home/cuil/workspace/arm/lm3s811/TI_Stellaris/driverlib/can.c **** //*****************************************************************************
 465:/home/cuil/workspace/arm/lm3s811/TI_Stellaris/driverlib/can.c **** void
 466:/home/cuil/workspace/arm/lm3s811/TI_Stellaris/driverlib/can.c **** CANInit(unsigned long ulBase)
 467:/home/cuil/workspace/arm/lm3s811/TI_Stellaris/driverlib/can.c **** {
 6231              		.loc 1 467 0
 6232              		.cfi_startproc
 6233              		@ args = 0, pretend = 0, frame = 16
 6234              		@ frame_needed = 1, uses_anonymous_args = 0
 6235 0000 80B5     		push	{r7, lr}
 6236              	.LCFI15:
 6237              		.cfi_def_cfa_offset 8
 6238 0002 84B0     		sub	sp, sp, #16
 6239              	.LCFI16:
 6240              		.cfi_def_cfa_offset 24
 6241 0004 00AF     		add	r7, sp, #0
 6242              		.cfi_offset 14, -4
 6243              		.cfi_offset 7, -8
 6244              	.LCFI17:
 6245              		.cfi_def_cfa_register 7
 6246 0006 7860     		str	r0, [r7, #4]
 468:/home/cuil/workspace/arm/lm3s811/TI_Stellaris/driverlib/can.c ****     unsigned long ulMsg;
 469:/home/cuil/workspace/arm/lm3s811/TI_Stellaris/driverlib/can.c **** 
 470:/home/cuil/workspace/arm/lm3s811/TI_Stellaris/driverlib/can.c ****     //
 471:/home/cuil/workspace/arm/lm3s811/TI_Stellaris/driverlib/can.c ****     // Check the arguments.
 472:/home/cuil/workspace/arm/lm3s811/TI_Stellaris/driverlib/can.c ****     //
 473:/home/cuil/workspace/arm/lm3s811/TI_Stellaris/driverlib/can.c ****     ASSERT(CANBaseValid(ulBase));
 474:/home/cuil/workspace/arm/lm3s811/TI_Stellaris/driverlib/can.c **** 
 475:/home/cuil/workspace/arm/lm3s811/TI_Stellaris/driverlib/can.c ****     //
 476:/home/cuil/workspace/arm/lm3s811/TI_Stellaris/driverlib/can.c ****     // Place CAN controller in init state, regardless of previous state.  This
 477:/home/cuil/workspace/arm/lm3s811/TI_Stellaris/driverlib/can.c ****     // will put controller in idle, and allow the message object RAM to be
 478:/home/cuil/workspace/arm/lm3s811/TI_Stellaris/driverlib/can.c ****     // programmed.
 479:/home/cuil/workspace/arm/lm3s811/TI_Stellaris/driverlib/can.c ****     //
 480:/home/cuil/workspace/arm/lm3s811/TI_Stellaris/driverlib/can.c ****     CANRegWrite(ulBase + CAN_O_CTL, CAN_CTL_INIT);
 6247              		.loc 1 480 0
 6248 0008 7868     		ldr	r0, [r7, #4]
 6249 000a 4FF00101 		mov	r1, #1
 6250 000e FFF7FEFF 		bl	CANRegWrite
 481:/home/cuil/workspace/arm/lm3s811/TI_Stellaris/driverlib/can.c **** 
 482:/home/cuil/workspace/arm/lm3s811/TI_Stellaris/driverlib/can.c ****     //
 483:/home/cuil/workspace/arm/lm3s811/TI_Stellaris/driverlib/can.c ****     // Wait for busy bit to clear
 484:/home/cuil/workspace/arm/lm3s811/TI_Stellaris/driverlib/can.c ****     //
 485:/home/cuil/workspace/arm/lm3s811/TI_Stellaris/driverlib/can.c ****     while(CANRegRead(ulBase + CAN_O_IF1CRQ) & CAN_IF1CRQ_BUSY)
 6251              		.loc 1 485 0
 6252 0012 00BF     		nop
 6253              	.L28:
 6254              		.loc 1 485 0 is_stmt 0 discriminator 1
 6255 0014 7B68     		ldr	r3, [r7, #4]
 6256 0016 03F12003 		add	r3, r3, #32
 6257 001a 1846     		mov	r0, r3
 6258 001c FFF7FEFF 		bl	CANRegRead
 6259 0020 0346     		mov	r3, r0
 6260 0022 03F40043 		and	r3, r3, #32768
 6261 0026 002B     		cmp	r3, #0
 6262 0028 F4D1     		bne	.L28
 486:/home/cuil/workspace/arm/lm3s811/TI_Stellaris/driverlib/can.c ****     {
 487:/home/cuil/workspace/arm/lm3s811/TI_Stellaris/driverlib/can.c ****     }
 488:/home/cuil/workspace/arm/lm3s811/TI_Stellaris/driverlib/can.c **** 
 489:/home/cuil/workspace/arm/lm3s811/TI_Stellaris/driverlib/can.c ****     //
 490:/home/cuil/workspace/arm/lm3s811/TI_Stellaris/driverlib/can.c ****     // Clear the message value bit in the arbitration register.  This indicates
 491:/home/cuil/workspace/arm/lm3s811/TI_Stellaris/driverlib/can.c ****     // the message is not valid and is a "safe" condition to leave the message
 492:/home/cuil/workspace/arm/lm3s811/TI_Stellaris/driverlib/can.c ****     // object.  The same arb reg is used to program all the message objects.
 493:/home/cuil/workspace/arm/lm3s811/TI_Stellaris/driverlib/can.c ****     //
 494:/home/cuil/workspace/arm/lm3s811/TI_Stellaris/driverlib/can.c ****     CANRegWrite(ulBase + CAN_O_IF1CMSK, CAN_IF1CMSK_WRNRD | CAN_IF1CMSK_ARB |
 6263              		.loc 1 494 0 is_stmt 1
 6264 002a 7B68     		ldr	r3, [r7, #4]
 6265 002c 03F12403 		add	r3, r3, #36
 6266 0030 1846     		mov	r0, r3
 6267 0032 4FF0B001 		mov	r1, #176
 6268 0036 FFF7FEFF 		bl	CANRegWrite
 495:/home/cuil/workspace/arm/lm3s811/TI_Stellaris/driverlib/can.c ****                 CAN_IF1CMSK_CONTROL);
 496:/home/cuil/workspace/arm/lm3s811/TI_Stellaris/driverlib/can.c ****     CANRegWrite(ulBase + CAN_O_IF1ARB2, 0);
 6269              		.loc 1 496 0
 6270 003a 7B68     		ldr	r3, [r7, #4]
 6271 003c 03F13403 		add	r3, r3, #52
 6272 0040 1846     		mov	r0, r3
 6273 0042 4FF00001 		mov	r1, #0
 6274 0046 FFF7FEFF 		bl	CANRegWrite
 497:/home/cuil/workspace/arm/lm3s811/TI_Stellaris/driverlib/can.c ****     CANRegWrite(ulBase + CAN_O_IF1MCTL, 0);
 6275              		.loc 1 497 0
 6276 004a 7B68     		ldr	r3, [r7, #4]
 6277 004c 03F13803 		add	r3, r3, #56
 6278 0050 1846     		mov	r0, r3
 6279 0052 4FF00001 		mov	r1, #0
 6280 0056 FFF7FEFF 		bl	CANRegWrite
 498:/home/cuil/workspace/arm/lm3s811/TI_Stellaris/driverlib/can.c **** 
 499:/home/cuil/workspace/arm/lm3s811/TI_Stellaris/driverlib/can.c ****     //
 500:/home/cuil/workspace/arm/lm3s811/TI_Stellaris/driverlib/can.c ****     // Loop through to program all 32 message objects
 501:/home/cuil/workspace/arm/lm3s811/TI_Stellaris/driverlib/can.c ****     //
 502:/home/cuil/workspace/arm/lm3s811/TI_Stellaris/driverlib/can.c ****     for(ulMsg = 1; ulMsg <= 32; ulMsg++)
 6281              		.loc 1 502 0
 6282 005a 4FF00103 		mov	r3, #1
 6283 005e FB60     		str	r3, [r7, #12]
 6284 0060 16E0     		b	.L29
 6285              	.L35:
 503:/home/cuil/workspace/arm/lm3s811/TI_Stellaris/driverlib/can.c ****     {
 504:/home/cuil/workspace/arm/lm3s811/TI_Stellaris/driverlib/can.c ****         //
 505:/home/cuil/workspace/arm/lm3s811/TI_Stellaris/driverlib/can.c ****         // Wait for busy bit to clear
 506:/home/cuil/workspace/arm/lm3s811/TI_Stellaris/driverlib/can.c ****         //
 507:/home/cuil/workspace/arm/lm3s811/TI_Stellaris/driverlib/can.c ****         while(CANRegRead(ulBase + CAN_O_IF1CRQ) & CAN_IF1CRQ_BUSY)
 6286              		.loc 1 507 0
 6287 0062 00BF     		nop
 6288              	.L30:
 6289              		.loc 1 507 0 is_stmt 0 discriminator 1
 6290 0064 7B68     		ldr	r3, [r7, #4]
 6291 0066 03F12003 		add	r3, r3, #32
 6292 006a 1846     		mov	r0, r3
 6293 006c FFF7FEFF 		bl	CANRegRead
 6294 0070 0346     		mov	r3, r0
 6295 0072 03F40043 		and	r3, r3, #32768
 6296 0076 002B     		cmp	r3, #0
 6297 0078 F4D1     		bne	.L30
 508:/home/cuil/workspace/arm/lm3s811/TI_Stellaris/driverlib/can.c ****         {
 509:/home/cuil/workspace/arm/lm3s811/TI_Stellaris/driverlib/can.c ****         }
 510:/home/cuil/workspace/arm/lm3s811/TI_Stellaris/driverlib/can.c **** 
 511:/home/cuil/workspace/arm/lm3s811/TI_Stellaris/driverlib/can.c ****         //
 512:/home/cuil/workspace/arm/lm3s811/TI_Stellaris/driverlib/can.c ****         // Initiate programming the message object
 513:/home/cuil/workspace/arm/lm3s811/TI_Stellaris/driverlib/can.c ****         //
 514:/home/cuil/workspace/arm/lm3s811/TI_Stellaris/driverlib/can.c ****         CANRegWrite(ulBase + CAN_O_IF1CRQ, ulMsg);
 6298              		.loc 1 514 0 is_stmt 1
 6299 007a 7B68     		ldr	r3, [r7, #4]
 6300 007c 03F12003 		add	r3, r3, #32
 6301 0080 1846     		mov	r0, r3
 6302 0082 F968     		ldr	r1, [r7, #12]
 6303 0084 FFF7FEFF 		bl	CANRegWrite
 502:/home/cuil/workspace/arm/lm3s811/TI_Stellaris/driverlib/can.c ****     for(ulMsg = 1; ulMsg <= 32; ulMsg++)
 6304              		.loc 1 502 0
 6305 0088 FB68     		ldr	r3, [r7, #12]
 6306 008a 03F10103 		add	r3, r3, #1
 6307 008e FB60     		str	r3, [r7, #12]
 6308              	.L29:
 502:/home/cuil/workspace/arm/lm3s811/TI_Stellaris/driverlib/can.c ****     for(ulMsg = 1; ulMsg <= 32; ulMsg++)
 6309              		.loc 1 502 0 is_stmt 0 discriminator 1
 6310 0090 FB68     		ldr	r3, [r7, #12]
 6311 0092 202B     		cmp	r3, #32
 6312 0094 E5D9     		bls	.L35
 515:/home/cuil/workspace/arm/lm3s811/TI_Stellaris/driverlib/can.c ****     }
 516:/home/cuil/workspace/arm/lm3s811/TI_Stellaris/driverlib/can.c **** 
 517:/home/cuil/workspace/arm/lm3s811/TI_Stellaris/driverlib/can.c ****     //
 518:/home/cuil/workspace/arm/lm3s811/TI_Stellaris/driverlib/can.c ****     // Make sure that the interrupt and new data flags are updated for the
 519:/home/cuil/workspace/arm/lm3s811/TI_Stellaris/driverlib/can.c ****     // message objects.
 520:/home/cuil/workspace/arm/lm3s811/TI_Stellaris/driverlib/can.c ****     //
 521:/home/cuil/workspace/arm/lm3s811/TI_Stellaris/driverlib/can.c ****     CANRegWrite(ulBase + CAN_O_IF1CMSK, CAN_IF1CMSK_NEWDAT |
 6313              		.loc 1 521 0 is_stmt 1
 6314 0096 7B68     		ldr	r3, [r7, #4]
 6315 0098 03F12403 		add	r3, r3, #36
 6316 009c 1846     		mov	r0, r3
 6317 009e 4FF00C01 		mov	r1, #12
 6318 00a2 FFF7FEFF 		bl	CANRegWrite
 522:/home/cuil/workspace/arm/lm3s811/TI_Stellaris/driverlib/can.c ****                 CAN_IF1CMSK_CLRINTPND);
 523:/home/cuil/workspace/arm/lm3s811/TI_Stellaris/driverlib/can.c **** 
 524:/home/cuil/workspace/arm/lm3s811/TI_Stellaris/driverlib/can.c ****     //
 525:/home/cuil/workspace/arm/lm3s811/TI_Stellaris/driverlib/can.c ****     // Loop through to program all 32 message objects
 526:/home/cuil/workspace/arm/lm3s811/TI_Stellaris/driverlib/can.c ****     //
 527:/home/cuil/workspace/arm/lm3s811/TI_Stellaris/driverlib/can.c ****     for(ulMsg = 1; ulMsg <= 32; ulMsg++)
 6319              		.loc 1 527 0
 6320 00a6 4FF00103 		mov	r3, #1
 6321 00aa FB60     		str	r3, [r7, #12]
 6322 00ac 16E0     		b	.L32
 6323              	.L36:
 528:/home/cuil/workspace/arm/lm3s811/TI_Stellaris/driverlib/can.c ****     {
 529:/home/cuil/workspace/arm/lm3s811/TI_Stellaris/driverlib/can.c ****         //
 530:/home/cuil/workspace/arm/lm3s811/TI_Stellaris/driverlib/can.c ****         // Wait for busy bit to clear.
 531:/home/cuil/workspace/arm/lm3s811/TI_Stellaris/driverlib/can.c ****         //
 532:/home/cuil/workspace/arm/lm3s811/TI_Stellaris/driverlib/can.c ****         while(CANRegRead(ulBase + CAN_O_IF1CRQ) & CAN_IF1CRQ_BUSY)
 6324              		.loc 1 532 0
 6325 00ae 00BF     		nop
 6326              	.L33:
 6327              		.loc 1 532 0 is_stmt 0 discriminator 1
 6328 00b0 7B68     		ldr	r3, [r7, #4]
 6329 00b2 03F12003 		add	r3, r3, #32
 6330 00b6 1846     		mov	r0, r3
 6331 00b8 FFF7FEFF 		bl	CANRegRead
 6332 00bc 0346     		mov	r3, r0
 6333 00be 03F40043 		and	r3, r3, #32768
 6334 00c2 002B     		cmp	r3, #0
 6335 00c4 F4D1     		bne	.L33
 533:/home/cuil/workspace/arm/lm3s811/TI_Stellaris/driverlib/can.c ****         {
 534:/home/cuil/workspace/arm/lm3s811/TI_Stellaris/driverlib/can.c ****         }
 535:/home/cuil/workspace/arm/lm3s811/TI_Stellaris/driverlib/can.c **** 
 536:/home/cuil/workspace/arm/lm3s811/TI_Stellaris/driverlib/can.c ****         //
 537:/home/cuil/workspace/arm/lm3s811/TI_Stellaris/driverlib/can.c ****         // Initiate programming the message object
 538:/home/cuil/workspace/arm/lm3s811/TI_Stellaris/driverlib/can.c ****         //
 539:/home/cuil/workspace/arm/lm3s811/TI_Stellaris/driverlib/can.c ****         CANRegWrite(ulBase + CAN_O_IF1CRQ, ulMsg);
 6336              		.loc 1 539 0 is_stmt 1
 6337 00c6 7B68     		ldr	r3, [r7, #4]
 6338 00c8 03F12003 		add	r3, r3, #32
 6339 00cc 1846     		mov	r0, r3
 6340 00ce F968     		ldr	r1, [r7, #12]
 6341 00d0 FFF7FEFF 		bl	CANRegWrite
 527:/home/cuil/workspace/arm/lm3s811/TI_Stellaris/driverlib/can.c ****     for(ulMsg = 1; ulMsg <= 32; ulMsg++)
 6342              		.loc 1 527 0
 6343 00d4 FB68     		ldr	r3, [r7, #12]
 6344 00d6 03F10103 		add	r3, r3, #1
 6345 00da FB60     		str	r3, [r7, #12]
 6346              	.L32:
 527:/home/cuil/workspace/arm/lm3s811/TI_Stellaris/driverlib/can.c ****     for(ulMsg = 1; ulMsg <= 32; ulMsg++)
 6347              		.loc 1 527 0 is_stmt 0 discriminator 1
 6348 00dc FB68     		ldr	r3, [r7, #12]
 6349 00de 202B     		cmp	r3, #32
 6350 00e0 E5D9     		bls	.L36
 540:/home/cuil/workspace/arm/lm3s811/TI_Stellaris/driverlib/can.c ****     }
 541:/home/cuil/workspace/arm/lm3s811/TI_Stellaris/driverlib/can.c **** 
 542:/home/cuil/workspace/arm/lm3s811/TI_Stellaris/driverlib/can.c ****     //
 543:/home/cuil/workspace/arm/lm3s811/TI_Stellaris/driverlib/can.c ****     // Acknowledge any pending status interrupts.
 544:/home/cuil/workspace/arm/lm3s811/TI_Stellaris/driverlib/can.c ****     //
 545:/home/cuil/workspace/arm/lm3s811/TI_Stellaris/driverlib/can.c ****     CANRegRead(ulBase + CAN_O_STS);
 6351              		.loc 1 545 0 is_stmt 1
 6352 00e2 7B68     		ldr	r3, [r7, #4]
 6353 00e4 03F10403 		add	r3, r3, #4
 6354 00e8 1846     		mov	r0, r3
 6355 00ea FFF7FEFF 		bl	CANRegRead
 546:/home/cuil/workspace/arm/lm3s811/TI_Stellaris/driverlib/can.c **** }
 6356              		.loc 1 546 0
 6357 00ee 07F11007 		add	r7, r7, #16
 6358 00f2 BD46     		mov	sp, r7
 6359 00f4 80BD     		pop	{r7, pc}
 6360              		.cfi_endproc
 6361              	.LFE5:
 6363 00f6 00BF     		.section	.text.CANEnable,"ax",%progbits
 6364              		.align	2
 6365              		.global	CANEnable
 6366              		.thumb
 6367              		.thumb_func
 6369              	CANEnable:
 6370              	.LFB6:
 547:/home/cuil/workspace/arm/lm3s811/TI_Stellaris/driverlib/can.c **** 
 548:/home/cuil/workspace/arm/lm3s811/TI_Stellaris/driverlib/can.c **** //*****************************************************************************
 549:/home/cuil/workspace/arm/lm3s811/TI_Stellaris/driverlib/can.c **** //
 550:/home/cuil/workspace/arm/lm3s811/TI_Stellaris/driverlib/can.c **** //! Enables the CAN controller.
 551:/home/cuil/workspace/arm/lm3s811/TI_Stellaris/driverlib/can.c **** //!
 552:/home/cuil/workspace/arm/lm3s811/TI_Stellaris/driverlib/can.c **** //! \param ulBase is the base address of the CAN controller to enable.
 553:/home/cuil/workspace/arm/lm3s811/TI_Stellaris/driverlib/can.c **** //!
 554:/home/cuil/workspace/arm/lm3s811/TI_Stellaris/driverlib/can.c **** //! Enables the CAN controller for message processing.  Once enabled, the
 555:/home/cuil/workspace/arm/lm3s811/TI_Stellaris/driverlib/can.c **** //! controller automatically transmits any pending frames, and processes any
 556:/home/cuil/workspace/arm/lm3s811/TI_Stellaris/driverlib/can.c **** //! received frames.  The controller can be stopped by calling CANDisable().
 557:/home/cuil/workspace/arm/lm3s811/TI_Stellaris/driverlib/can.c **** //! Prior to calling CANEnable(), CANInit() should have been called to
 558:/home/cuil/workspace/arm/lm3s811/TI_Stellaris/driverlib/can.c **** //! initialize the controller and the CAN bus clock should be configured by
 559:/home/cuil/workspace/arm/lm3s811/TI_Stellaris/driverlib/can.c **** //! calling CANBitTimingSet().
 560:/home/cuil/workspace/arm/lm3s811/TI_Stellaris/driverlib/can.c **** //!
 561:/home/cuil/workspace/arm/lm3s811/TI_Stellaris/driverlib/can.c **** //! \return None.
 562:/home/cuil/workspace/arm/lm3s811/TI_Stellaris/driverlib/can.c **** //
 563:/home/cuil/workspace/arm/lm3s811/TI_Stellaris/driverlib/can.c **** //*****************************************************************************
 564:/home/cuil/workspace/arm/lm3s811/TI_Stellaris/driverlib/can.c **** void
 565:/home/cuil/workspace/arm/lm3s811/TI_Stellaris/driverlib/can.c **** CANEnable(unsigned long ulBase)
 566:/home/cuil/workspace/arm/lm3s811/TI_Stellaris/driverlib/can.c **** {
 6371              		.loc 1 566 0
 6372              		.cfi_startproc
 6373              		@ args = 0, pretend = 0, frame = 8
 6374              		@ frame_needed = 1, uses_anonymous_args = 0
 6375 0000 80B5     		push	{r7, lr}
 6376              	.LCFI18:
 6377              		.cfi_def_cfa_offset 8
 6378 0002 82B0     		sub	sp, sp, #8
 6379              	.LCFI19:
 6380              		.cfi_def_cfa_offset 16
 6381 0004 00AF     		add	r7, sp, #0
 6382              		.cfi_offset 14, -4
 6383              		.cfi_offset 7, -8
 6384              	.LCFI20:
 6385              		.cfi_def_cfa_register 7
 6386 0006 7860     		str	r0, [r7, #4]
 567:/home/cuil/workspace/arm/lm3s811/TI_Stellaris/driverlib/can.c ****     //
 568:/home/cuil/workspace/arm/lm3s811/TI_Stellaris/driverlib/can.c ****     // Check the arguments.
 569:/home/cuil/workspace/arm/lm3s811/TI_Stellaris/driverlib/can.c ****     //
 570:/home/cuil/workspace/arm/lm3s811/TI_Stellaris/driverlib/can.c ****     ASSERT(CANBaseValid(ulBase));
 571:/home/cuil/workspace/arm/lm3s811/TI_Stellaris/driverlib/can.c **** 
 572:/home/cuil/workspace/arm/lm3s811/TI_Stellaris/driverlib/can.c ****     //
 573:/home/cuil/workspace/arm/lm3s811/TI_Stellaris/driverlib/can.c ****     // Clear the init bit in the control register.
 574:/home/cuil/workspace/arm/lm3s811/TI_Stellaris/driverlib/can.c ****     //
 575:/home/cuil/workspace/arm/lm3s811/TI_Stellaris/driverlib/can.c ****     CANRegWrite(ulBase + CAN_O_CTL,
 576:/home/cuil/workspace/arm/lm3s811/TI_Stellaris/driverlib/can.c ****                 CANRegRead(ulBase + CAN_O_CTL) & ~CAN_CTL_INIT);
 6387              		.loc 1 576 0
 6388 0008 7868     		ldr	r0, [r7, #4]
 6389 000a FFF7FEFF 		bl	CANRegRead
 6390 000e 0346     		mov	r3, r0
 575:/home/cuil/workspace/arm/lm3s811/TI_Stellaris/driverlib/can.c ****     CANRegWrite(ulBase + CAN_O_CTL,
 6391              		.loc 1 575 0
 6392 0010 23F00103 		bic	r3, r3, #1
 6393 0014 7868     		ldr	r0, [r7, #4]
 6394 0016 1946     		mov	r1, r3
 6395 0018 FFF7FEFF 		bl	CANRegWrite
 577:/home/cuil/workspace/arm/lm3s811/TI_Stellaris/driverlib/can.c **** }
 6396              		.loc 1 577 0
 6397 001c 07F10807 		add	r7, r7, #8
 6398 0020 BD46     		mov	sp, r7
 6399 0022 80BD     		pop	{r7, pc}
 6400              		.cfi_endproc
 6401              	.LFE6:
 6403              		.section	.text.CANDisable,"ax",%progbits
 6404              		.align	2
 6405              		.global	CANDisable
 6406              		.thumb
 6407              		.thumb_func
 6409              	CANDisable:
 6410              	.LFB7:
 578:/home/cuil/workspace/arm/lm3s811/TI_Stellaris/driverlib/can.c **** 
 579:/home/cuil/workspace/arm/lm3s811/TI_Stellaris/driverlib/can.c **** //*****************************************************************************
 580:/home/cuil/workspace/arm/lm3s811/TI_Stellaris/driverlib/can.c **** //
 581:/home/cuil/workspace/arm/lm3s811/TI_Stellaris/driverlib/can.c **** //! Disables the CAN controller.
 582:/home/cuil/workspace/arm/lm3s811/TI_Stellaris/driverlib/can.c **** //!
 583:/home/cuil/workspace/arm/lm3s811/TI_Stellaris/driverlib/can.c **** //! \param ulBase is the base address of the CAN controller to disable.
 584:/home/cuil/workspace/arm/lm3s811/TI_Stellaris/driverlib/can.c **** //!
 585:/home/cuil/workspace/arm/lm3s811/TI_Stellaris/driverlib/can.c **** //! Disables the CAN controller for message processing.  When disabled, the
 586:/home/cuil/workspace/arm/lm3s811/TI_Stellaris/driverlib/can.c **** //! controller no longer automatically processes data on the CAN bus.  The
 587:/home/cuil/workspace/arm/lm3s811/TI_Stellaris/driverlib/can.c **** //! controller can be restarted by calling CANEnable().  The state of the CAN
 588:/home/cuil/workspace/arm/lm3s811/TI_Stellaris/driverlib/can.c **** //! controller and the message objects in the controller are left as they were
 589:/home/cuil/workspace/arm/lm3s811/TI_Stellaris/driverlib/can.c **** //! before this call was made.
 590:/home/cuil/workspace/arm/lm3s811/TI_Stellaris/driverlib/can.c **** //!
 591:/home/cuil/workspace/arm/lm3s811/TI_Stellaris/driverlib/can.c **** //! \return None.
 592:/home/cuil/workspace/arm/lm3s811/TI_Stellaris/driverlib/can.c **** //
 593:/home/cuil/workspace/arm/lm3s811/TI_Stellaris/driverlib/can.c **** //*****************************************************************************
 594:/home/cuil/workspace/arm/lm3s811/TI_Stellaris/driverlib/can.c **** void
 595:/home/cuil/workspace/arm/lm3s811/TI_Stellaris/driverlib/can.c **** CANDisable(unsigned long ulBase)
 596:/home/cuil/workspace/arm/lm3s811/TI_Stellaris/driverlib/can.c **** {
 6411              		.loc 1 596 0
 6412              		.cfi_startproc
 6413              		@ args = 0, pretend = 0, frame = 8
 6414              		@ frame_needed = 1, uses_anonymous_args = 0
 6415 0000 80B5     		push	{r7, lr}
 6416              	.LCFI21:
 6417              		.cfi_def_cfa_offset 8
 6418 0002 82B0     		sub	sp, sp, #8
 6419              	.LCFI22:
 6420              		.cfi_def_cfa_offset 16
 6421 0004 00AF     		add	r7, sp, #0
 6422              		.cfi_offset 14, -4
 6423              		.cfi_offset 7, -8
 6424              	.LCFI23:
 6425              		.cfi_def_cfa_register 7
 6426 0006 7860     		str	r0, [r7, #4]
 597:/home/cuil/workspace/arm/lm3s811/TI_Stellaris/driverlib/can.c ****     //
 598:/home/cuil/workspace/arm/lm3s811/TI_Stellaris/driverlib/can.c ****     // Check the arguments.
 599:/home/cuil/workspace/arm/lm3s811/TI_Stellaris/driverlib/can.c ****     //
 600:/home/cuil/workspace/arm/lm3s811/TI_Stellaris/driverlib/can.c ****     ASSERT(CANBaseValid(ulBase));
 601:/home/cuil/workspace/arm/lm3s811/TI_Stellaris/driverlib/can.c **** 
 602:/home/cuil/workspace/arm/lm3s811/TI_Stellaris/driverlib/can.c ****     //
 603:/home/cuil/workspace/arm/lm3s811/TI_Stellaris/driverlib/can.c ****     // Set the init bit in the control register.
 604:/home/cuil/workspace/arm/lm3s811/TI_Stellaris/driverlib/can.c ****     //
 605:/home/cuil/workspace/arm/lm3s811/TI_Stellaris/driverlib/can.c ****     CANRegWrite(ulBase + CAN_O_CTL,
 606:/home/cuil/workspace/arm/lm3s811/TI_Stellaris/driverlib/can.c ****                 CANRegRead(ulBase + CAN_O_CTL) | CAN_CTL_INIT);
 6427              		.loc 1 606 0
 6428 0008 7868     		ldr	r0, [r7, #4]
 6429 000a FFF7FEFF 		bl	CANRegRead
 6430 000e 0346     		mov	r3, r0
 605:/home/cuil/workspace/arm/lm3s811/TI_Stellaris/driverlib/can.c ****     CANRegWrite(ulBase + CAN_O_CTL,
 6431              		.loc 1 605 0
 6432 0010 43F00103 		orr	r3, r3, #1
 6433 0014 7868     		ldr	r0, [r7, #4]
 6434 0016 1946     		mov	r1, r3
 6435 0018 FFF7FEFF 		bl	CANRegWrite
 607:/home/cuil/workspace/arm/lm3s811/TI_Stellaris/driverlib/can.c **** }
 6436              		.loc 1 607 0
 6437 001c 07F10807 		add	r7, r7, #8
 6438 0020 BD46     		mov	sp, r7
 6439 0022 80BD     		pop	{r7, pc}
 6440              		.cfi_endproc
 6441              	.LFE7:
 6443              		.section	.text.CANBitTimingGet,"ax",%progbits
 6444              		.align	2
 6445              		.global	CANBitTimingGet
 6446              		.thumb
 6447              		.thumb_func
 6449              	CANBitTimingGet:
 6450              	.LFB8:
 608:/home/cuil/workspace/arm/lm3s811/TI_Stellaris/driverlib/can.c **** 
 609:/home/cuil/workspace/arm/lm3s811/TI_Stellaris/driverlib/can.c **** //*****************************************************************************
 610:/home/cuil/workspace/arm/lm3s811/TI_Stellaris/driverlib/can.c **** //
 611:/home/cuil/workspace/arm/lm3s811/TI_Stellaris/driverlib/can.c **** //! Reads the current settings for the CAN controller bit timing.
 612:/home/cuil/workspace/arm/lm3s811/TI_Stellaris/driverlib/can.c **** //!
 613:/home/cuil/workspace/arm/lm3s811/TI_Stellaris/driverlib/can.c **** //! \param ulBase is the base address of the CAN controller.
 614:/home/cuil/workspace/arm/lm3s811/TI_Stellaris/driverlib/can.c **** //! \param pClkParms is a pointer to a structure to hold the timing parameters.
 615:/home/cuil/workspace/arm/lm3s811/TI_Stellaris/driverlib/can.c **** //!
 616:/home/cuil/workspace/arm/lm3s811/TI_Stellaris/driverlib/can.c **** //! This function reads the current configuration of the CAN controller bit
 617:/home/cuil/workspace/arm/lm3s811/TI_Stellaris/driverlib/can.c **** //! clock timing and stores the resulting information in the structure
 618:/home/cuil/workspace/arm/lm3s811/TI_Stellaris/driverlib/can.c **** //! supplied by the caller.  Refer to CANBitTimingSet() for the meaning of the
 619:/home/cuil/workspace/arm/lm3s811/TI_Stellaris/driverlib/can.c **** //! values that are returned in the structure pointed to by \e pClkParms.
 620:/home/cuil/workspace/arm/lm3s811/TI_Stellaris/driverlib/can.c **** //!
 621:/home/cuil/workspace/arm/lm3s811/TI_Stellaris/driverlib/can.c **** //! This function replaces the original CANGetBitTiming() API and performs the
 622:/home/cuil/workspace/arm/lm3s811/TI_Stellaris/driverlib/can.c **** //! same actions.  A macro is provided in <tt>can.h</tt> to map the original
 623:/home/cuil/workspace/arm/lm3s811/TI_Stellaris/driverlib/can.c **** //! API to this API.
 624:/home/cuil/workspace/arm/lm3s811/TI_Stellaris/driverlib/can.c **** //!
 625:/home/cuil/workspace/arm/lm3s811/TI_Stellaris/driverlib/can.c **** //! \return None.
 626:/home/cuil/workspace/arm/lm3s811/TI_Stellaris/driverlib/can.c **** //
 627:/home/cuil/workspace/arm/lm3s811/TI_Stellaris/driverlib/can.c **** //*****************************************************************************
 628:/home/cuil/workspace/arm/lm3s811/TI_Stellaris/driverlib/can.c **** void
 629:/home/cuil/workspace/arm/lm3s811/TI_Stellaris/driverlib/can.c **** CANBitTimingGet(unsigned long ulBase, tCANBitClkParms *pClkParms)
 630:/home/cuil/workspace/arm/lm3s811/TI_Stellaris/driverlib/can.c **** {
 6451              		.loc 1 630 0
 6452              		.cfi_startproc
 6453              		@ args = 0, pretend = 0, frame = 16
 6454              		@ frame_needed = 1, uses_anonymous_args = 0
 6455 0000 90B5     		push	{r4, r7, lr}
 6456              	.LCFI24:
 6457              		.cfi_def_cfa_offset 12
 6458 0002 85B0     		sub	sp, sp, #20
 6459              	.LCFI25:
 6460              		.cfi_def_cfa_offset 32
 6461 0004 00AF     		add	r7, sp, #0
 6462              		.cfi_offset 14, -4
 6463              		.cfi_offset 7, -8
 6464              		.cfi_offset 4, -12
 6465              	.LCFI26:
 6466              		.cfi_def_cfa_register 7
 6467 0006 7860     		str	r0, [r7, #4]
 6468 0008 3960     		str	r1, [r7, #0]
 631:/home/cuil/workspace/arm/lm3s811/TI_Stellaris/driverlib/can.c ****     unsigned long ulBitReg;
 632:/home/cuil/workspace/arm/lm3s811/TI_Stellaris/driverlib/can.c **** 
 633:/home/cuil/workspace/arm/lm3s811/TI_Stellaris/driverlib/can.c ****     //
 634:/home/cuil/workspace/arm/lm3s811/TI_Stellaris/driverlib/can.c ****     // Check the arguments.
 635:/home/cuil/workspace/arm/lm3s811/TI_Stellaris/driverlib/can.c ****     //
 636:/home/cuil/workspace/arm/lm3s811/TI_Stellaris/driverlib/can.c ****     ASSERT(CANBaseValid(ulBase));
 637:/home/cuil/workspace/arm/lm3s811/TI_Stellaris/driverlib/can.c ****     ASSERT(pClkParms != 0);
 638:/home/cuil/workspace/arm/lm3s811/TI_Stellaris/driverlib/can.c **** 
 639:/home/cuil/workspace/arm/lm3s811/TI_Stellaris/driverlib/can.c ****     //
 640:/home/cuil/workspace/arm/lm3s811/TI_Stellaris/driverlib/can.c ****     // Read out all the bit timing values from the CAN controller registers.
 641:/home/cuil/workspace/arm/lm3s811/TI_Stellaris/driverlib/can.c ****     //
 642:/home/cuil/workspace/arm/lm3s811/TI_Stellaris/driverlib/can.c ****     ulBitReg = CANRegRead(ulBase + CAN_O_BIT);
 6469              		.loc 1 642 0
 6470 000a 7B68     		ldr	r3, [r7, #4]
 6471 000c 03F10C03 		add	r3, r3, #12
 6472 0010 1846     		mov	r0, r3
 6473 0012 FFF7FEFF 		bl	CANRegRead
 6474 0016 F860     		str	r0, [r7, #12]
 643:/home/cuil/workspace/arm/lm3s811/TI_Stellaris/driverlib/can.c **** 
 644:/home/cuil/workspace/arm/lm3s811/TI_Stellaris/driverlib/can.c ****     //
 645:/home/cuil/workspace/arm/lm3s811/TI_Stellaris/driverlib/can.c ****     // Set the phase 2 segment.
 646:/home/cuil/workspace/arm/lm3s811/TI_Stellaris/driverlib/can.c ****     //
 647:/home/cuil/workspace/arm/lm3s811/TI_Stellaris/driverlib/can.c ****     pClkParms->ulPhase2Seg =
 648:/home/cuil/workspace/arm/lm3s811/TI_Stellaris/driverlib/can.c ****         ((ulBitReg & CAN_BIT_TSEG2_M) >> CAN_BIT_TSEG2_S) + 1;
 6475              		.loc 1 648 0
 6476 0018 FB68     		ldr	r3, [r7, #12]
 6477 001a 03F4E043 		and	r3, r3, #28672
 6478 001e 4FEA1333 		lsr	r3, r3, #12
 6479 0022 03F10102 		add	r2, r3, #1
 647:/home/cuil/workspace/arm/lm3s811/TI_Stellaris/driverlib/can.c ****     pClkParms->ulPhase2Seg =
 6480              		.loc 1 647 0
 6481 0026 3B68     		ldr	r3, [r7, #0]
 6482 0028 5A60     		str	r2, [r3, #4]
 649:/home/cuil/workspace/arm/lm3s811/TI_Stellaris/driverlib/can.c **** 
 650:/home/cuil/workspace/arm/lm3s811/TI_Stellaris/driverlib/can.c ****     //
 651:/home/cuil/workspace/arm/lm3s811/TI_Stellaris/driverlib/can.c ****     // Set the phase 1 segment.
 652:/home/cuil/workspace/arm/lm3s811/TI_Stellaris/driverlib/can.c ****     //
 653:/home/cuil/workspace/arm/lm3s811/TI_Stellaris/driverlib/can.c ****     pClkParms->ulSyncPropPhase1Seg =
 654:/home/cuil/workspace/arm/lm3s811/TI_Stellaris/driverlib/can.c ****         ((ulBitReg & CAN_BIT_TSEG1_M) >> CAN_BIT_TSEG1_S) + 1;
 6483              		.loc 1 654 0
 6484 002a FB68     		ldr	r3, [r7, #12]
 6485 002c 03F47063 		and	r3, r3, #3840
 6486 0030 4FEA1323 		lsr	r3, r3, #8
 6487 0034 03F10102 		add	r2, r3, #1
 653:/home/cuil/workspace/arm/lm3s811/TI_Stellaris/driverlib/can.c ****     pClkParms->ulSyncPropPhase1Seg =
 6488              		.loc 1 653 0
 6489 0038 3B68     		ldr	r3, [r7, #0]
 6490 003a 1A60     		str	r2, [r3, #0]
 655:/home/cuil/workspace/arm/lm3s811/TI_Stellaris/driverlib/can.c **** 
 656:/home/cuil/workspace/arm/lm3s811/TI_Stellaris/driverlib/can.c ****     //
 657:/home/cuil/workspace/arm/lm3s811/TI_Stellaris/driverlib/can.c ****     // Set the synchronous jump width.
 658:/home/cuil/workspace/arm/lm3s811/TI_Stellaris/driverlib/can.c ****     //
 659:/home/cuil/workspace/arm/lm3s811/TI_Stellaris/driverlib/can.c ****     pClkParms->ulSJW = ((ulBitReg & CAN_BIT_SJW_M) >> CAN_BIT_SJW_S) + 1;
 6491              		.loc 1 659 0
 6492 003c FB68     		ldr	r3, [r7, #12]
 6493 003e 03F0C003 		and	r3, r3, #192
 6494 0042 4FEA9313 		lsr	r3, r3, #6
 6495 0046 03F10102 		add	r2, r3, #1
 6496 004a 3B68     		ldr	r3, [r7, #0]
 6497 004c 9A60     		str	r2, [r3, #8]
 660:/home/cuil/workspace/arm/lm3s811/TI_Stellaris/driverlib/can.c **** 
 661:/home/cuil/workspace/arm/lm3s811/TI_Stellaris/driverlib/can.c ****     //
 662:/home/cuil/workspace/arm/lm3s811/TI_Stellaris/driverlib/can.c ****     // Set the pre-divider for the CAN bus bit clock.
 663:/home/cuil/workspace/arm/lm3s811/TI_Stellaris/driverlib/can.c ****     //
 664:/home/cuil/workspace/arm/lm3s811/TI_Stellaris/driverlib/can.c ****     pClkParms->ulQuantumPrescaler =
 665:/home/cuil/workspace/arm/lm3s811/TI_Stellaris/driverlib/can.c ****         ((ulBitReg & CAN_BIT_BRP_M) |
 6498              		.loc 1 665 0
 6499 004e FB68     		ldr	r3, [r7, #12]
 6500 0050 03F03F04 		and	r4, r3, #63
 666:/home/cuil/workspace/arm/lm3s811/TI_Stellaris/driverlib/can.c ****          ((CANRegRead(ulBase + CAN_O_BRPE) & CAN_BRPE_BRPE_M) << 6)) + 1;
 6501              		.loc 1 666 0
 6502 0054 7B68     		ldr	r3, [r7, #4]
 6503 0056 03F11803 		add	r3, r3, #24
 6504 005a 1846     		mov	r0, r3
 6505 005c FFF7FEFF 		bl	CANRegRead
 6506 0060 0346     		mov	r3, r0
 6507 0062 03F00F03 		and	r3, r3, #15
 6508 0066 4FEA8313 		lsl	r3, r3, #6
 665:/home/cuil/workspace/arm/lm3s811/TI_Stellaris/driverlib/can.c ****         ((ulBitReg & CAN_BIT_BRP_M) |
 6509              		.loc 1 665 0
 6510 006a 44EA0303 		orr	r3, r4, r3
 6511              		.loc 1 666 0
 6512 006e 03F10102 		add	r2, r3, #1
 664:/home/cuil/workspace/arm/lm3s811/TI_Stellaris/driverlib/can.c ****     pClkParms->ulQuantumPrescaler =
 6513              		.loc 1 664 0
 6514 0072 3B68     		ldr	r3, [r7, #0]
 6515 0074 DA60     		str	r2, [r3, #12]
 667:/home/cuil/workspace/arm/lm3s811/TI_Stellaris/driverlib/can.c **** }
 6516              		.loc 1 667 0
 6517 0076 07F11407 		add	r7, r7, #20
 6518 007a BD46     		mov	sp, r7
 6519 007c 90BD     		pop	{r4, r7, pc}
 6520              		.cfi_endproc
 6521              	.LFE8:
 6523 007e 00BF     		.section	.text.CANBitRateSet,"ax",%progbits
 6524              		.align	2
 6525              		.global	CANBitRateSet
 6526              		.thumb
 6527              		.thumb_func
 6529              	CANBitRateSet:
 6530              	.LFB9:
 668:/home/cuil/workspace/arm/lm3s811/TI_Stellaris/driverlib/can.c **** 
 669:/home/cuil/workspace/arm/lm3s811/TI_Stellaris/driverlib/can.c **** //*****************************************************************************
 670:/home/cuil/workspace/arm/lm3s811/TI_Stellaris/driverlib/can.c **** //
 671:/home/cuil/workspace/arm/lm3s811/TI_Stellaris/driverlib/can.c **** //! Sets the CAN bit timing values to a nominal setting based on a desired 
 672:/home/cuil/workspace/arm/lm3s811/TI_Stellaris/driverlib/can.c **** //! bit rate.
 673:/home/cuil/workspace/arm/lm3s811/TI_Stellaris/driverlib/can.c **** //!
 674:/home/cuil/workspace/arm/lm3s811/TI_Stellaris/driverlib/can.c **** //! \param ulBase is the base address of the CAN controller.
 675:/home/cuil/workspace/arm/lm3s811/TI_Stellaris/driverlib/can.c **** //! \param ulSourceClock is the system clock for the device in Hz.
 676:/home/cuil/workspace/arm/lm3s811/TI_Stellaris/driverlib/can.c **** //! \param ulBitRate is the desired bit rate.
 677:/home/cuil/workspace/arm/lm3s811/TI_Stellaris/driverlib/can.c **** //!
 678:/home/cuil/workspace/arm/lm3s811/TI_Stellaris/driverlib/can.c **** //! This function sets the CAN bit timing for the bit rate passed in the
 679:/home/cuil/workspace/arm/lm3s811/TI_Stellaris/driverlib/can.c **** //! \e ulBitRate parameter based on the \e ulSourceClock parameter.  Because the
 680:/home/cuil/workspace/arm/lm3s811/TI_Stellaris/driverlib/can.c **** //! CAN clock is based off of the system clock, the calling function should pass
 681:/home/cuil/workspace/arm/lm3s811/TI_Stellaris/driverlib/can.c **** //! in the source clock rate either by retrieving it from SysCtlClockGet() or
 682:/home/cuil/workspace/arm/lm3s811/TI_Stellaris/driverlib/can.c **** //! using a specific value in Hz.  The CAN bit timing is calculated assuming a
 683:/home/cuil/workspace/arm/lm3s811/TI_Stellaris/driverlib/can.c **** //! minimal amount of propagation delay, which works for most cases where
 684:/home/cuil/workspace/arm/lm3s811/TI_Stellaris/driverlib/can.c **** //! the network length is short.  If tighter timing requirements or longer
 685:/home/cuil/workspace/arm/lm3s811/TI_Stellaris/driverlib/can.c **** //! network lengths are needed, then the CANBitTimingSet() function is
 686:/home/cuil/workspace/arm/lm3s811/TI_Stellaris/driverlib/can.c **** //! available for full customization of all of the CAN bit timing values.
 687:/home/cuil/workspace/arm/lm3s811/TI_Stellaris/driverlib/can.c **** //! Because not all bit rates can be matched exactly, the bit rate is set to 
 688:/home/cuil/workspace/arm/lm3s811/TI_Stellaris/driverlib/can.c **** //! the value closest to the desired bit rate without being higher than the
 689:/home/cuil/workspace/arm/lm3s811/TI_Stellaris/driverlib/can.c **** //! \e ulBitRate value.
 690:/home/cuil/workspace/arm/lm3s811/TI_Stellaris/driverlib/can.c **** //!
 691:/home/cuil/workspace/arm/lm3s811/TI_Stellaris/driverlib/can.c **** //! \note On some devices the source clock is fixed at 8MHz so the
 692:/home/cuil/workspace/arm/lm3s811/TI_Stellaris/driverlib/can.c **** //! \e ulSourceClock should be set to 8000000.
 693:/home/cuil/workspace/arm/lm3s811/TI_Stellaris/driverlib/can.c **** //!
 694:/home/cuil/workspace/arm/lm3s811/TI_Stellaris/driverlib/can.c **** //! \return This function returns the bit rate that the CAN controller was
 695:/home/cuil/workspace/arm/lm3s811/TI_Stellaris/driverlib/can.c **** //! configured to use or it returns 0 to indicate that the bit rate was not
 696:/home/cuil/workspace/arm/lm3s811/TI_Stellaris/driverlib/can.c **** //! changed because the requested bit rate was not valid.
 697:/home/cuil/workspace/arm/lm3s811/TI_Stellaris/driverlib/can.c **** //!
 698:/home/cuil/workspace/arm/lm3s811/TI_Stellaris/driverlib/can.c **** //*****************************************************************************
 699:/home/cuil/workspace/arm/lm3s811/TI_Stellaris/driverlib/can.c **** unsigned long
 700:/home/cuil/workspace/arm/lm3s811/TI_Stellaris/driverlib/can.c **** CANBitRateSet(unsigned long ulBase, unsigned long ulSourceClock,
 701:/home/cuil/workspace/arm/lm3s811/TI_Stellaris/driverlib/can.c ****               unsigned long ulBitRate)
 702:/home/cuil/workspace/arm/lm3s811/TI_Stellaris/driverlib/can.c **** {
 6531              		.loc 1 702 0
 6532              		.cfi_startproc
 6533              		@ args = 0, pretend = 0, frame = 40
 6534              		@ frame_needed = 1, uses_anonymous_args = 0
 6535 0000 80B5     		push	{r7, lr}
 6536              	.LCFI27:
 6537              		.cfi_def_cfa_offset 8
 6538 0002 8AB0     		sub	sp, sp, #40
 6539              	.LCFI28:
 6540              		.cfi_def_cfa_offset 48
 6541 0004 00AF     		add	r7, sp, #0
 6542              		.cfi_offset 14, -4
 6543              		.cfi_offset 7, -8
 6544              	.LCFI29:
 6545              		.cfi_def_cfa_register 7
 6546 0006 F860     		str	r0, [r7, #12]
 6547 0008 B960     		str	r1, [r7, #8]
 6548 000a 7A60     		str	r2, [r7, #4]
 703:/home/cuil/workspace/arm/lm3s811/TI_Stellaris/driverlib/can.c ****     unsigned long ulDesiredRatio;
 704:/home/cuil/workspace/arm/lm3s811/TI_Stellaris/driverlib/can.c ****     unsigned long ulCANBits;
 705:/home/cuil/workspace/arm/lm3s811/TI_Stellaris/driverlib/can.c ****     unsigned long ulPreDivide;
 706:/home/cuil/workspace/arm/lm3s811/TI_Stellaris/driverlib/can.c ****     unsigned long ulRegValue;
 707:/home/cuil/workspace/arm/lm3s811/TI_Stellaris/driverlib/can.c ****     unsigned short usCANCTL;
 708:/home/cuil/workspace/arm/lm3s811/TI_Stellaris/driverlib/can.c **** 
 709:/home/cuil/workspace/arm/lm3s811/TI_Stellaris/driverlib/can.c ****     //
 710:/home/cuil/workspace/arm/lm3s811/TI_Stellaris/driverlib/can.c ****     // Check the arguments.
 711:/home/cuil/workspace/arm/lm3s811/TI_Stellaris/driverlib/can.c ****     //
 712:/home/cuil/workspace/arm/lm3s811/TI_Stellaris/driverlib/can.c ****     ASSERT(CANBaseValid(ulBase));
 713:/home/cuil/workspace/arm/lm3s811/TI_Stellaris/driverlib/can.c ****     ASSERT(ulSourceClock != 0);
 714:/home/cuil/workspace/arm/lm3s811/TI_Stellaris/driverlib/can.c ****     ASSERT(ulBitRate != 0);
 715:/home/cuil/workspace/arm/lm3s811/TI_Stellaris/driverlib/can.c **** 
 716:/home/cuil/workspace/arm/lm3s811/TI_Stellaris/driverlib/can.c ****     //
 717:/home/cuil/workspace/arm/lm3s811/TI_Stellaris/driverlib/can.c ****     // Calculate the desired clock rate.
 718:/home/cuil/workspace/arm/lm3s811/TI_Stellaris/driverlib/can.c ****     //
 719:/home/cuil/workspace/arm/lm3s811/TI_Stellaris/driverlib/can.c ****     ulDesiredRatio = ulSourceClock / ulBitRate;
 6549              		.loc 1 719 0
 6550 000c BA68     		ldr	r2, [r7, #8]
 6551 000e 7B68     		ldr	r3, [r7, #4]
 6552 0010 B2FBF3F3 		udiv	r3, r2, r3
 6553 0014 7B62     		str	r3, [r7, #36]
 720:/home/cuil/workspace/arm/lm3s811/TI_Stellaris/driverlib/can.c **** 
 721:/home/cuil/workspace/arm/lm3s811/TI_Stellaris/driverlib/can.c ****     //
 722:/home/cuil/workspace/arm/lm3s811/TI_Stellaris/driverlib/can.c ****     // Make sure that the ratio of CAN bit rate to processor clock is not too
 723:/home/cuil/workspace/arm/lm3s811/TI_Stellaris/driverlib/can.c ****     // small or too large.
 724:/home/cuil/workspace/arm/lm3s811/TI_Stellaris/driverlib/can.c ****     //
 725:/home/cuil/workspace/arm/lm3s811/TI_Stellaris/driverlib/can.c ****     ASSERT(ulDesiredRatio <= (CAN_MAX_PRE_DIVISOR * CAN_MAX_BIT_DIVISOR));
 726:/home/cuil/workspace/arm/lm3s811/TI_Stellaris/driverlib/can.c ****     ASSERT(ulDesiredRatio >= (CAN_MIN_PRE_DIVISOR * CAN_MIN_BIT_DIVISOR));
 727:/home/cuil/workspace/arm/lm3s811/TI_Stellaris/driverlib/can.c **** 
 728:/home/cuil/workspace/arm/lm3s811/TI_Stellaris/driverlib/can.c ****     //
 729:/home/cuil/workspace/arm/lm3s811/TI_Stellaris/driverlib/can.c ****     // Make sure that the Desired Ratio is not too large.  This enforces the
 730:/home/cuil/workspace/arm/lm3s811/TI_Stellaris/driverlib/can.c ****     // requirement that the bit rate is larger than requested.
 731:/home/cuil/workspace/arm/lm3s811/TI_Stellaris/driverlib/can.c ****     //
 732:/home/cuil/workspace/arm/lm3s811/TI_Stellaris/driverlib/can.c ****     if((ulSourceClock / ulDesiredRatio) > ulBitRate)
 6554              		.loc 1 732 0
 6555 0016 BA68     		ldr	r2, [r7, #8]
 6556 0018 7B6A     		ldr	r3, [r7, #36]
 6557 001a B2FBF3F2 		udiv	r2, r2, r3
 6558 001e 7B68     		ldr	r3, [r7, #4]
 6559 0020 9A42     		cmp	r2, r3
 6560 0022 5ED9     		bls	.L42
 733:/home/cuil/workspace/arm/lm3s811/TI_Stellaris/driverlib/can.c ****     {
 734:/home/cuil/workspace/arm/lm3s811/TI_Stellaris/driverlib/can.c ****         ulDesiredRatio += 1;
 6561              		.loc 1 734 0
 6562 0024 7B6A     		ldr	r3, [r7, #36]
 6563 0026 03F10103 		add	r3, r3, #1
 6564 002a 7B62     		str	r3, [r7, #36]
 735:/home/cuil/workspace/arm/lm3s811/TI_Stellaris/driverlib/can.c ****     }
 736:/home/cuil/workspace/arm/lm3s811/TI_Stellaris/driverlib/can.c **** 
 737:/home/cuil/workspace/arm/lm3s811/TI_Stellaris/driverlib/can.c ****     //
 738:/home/cuil/workspace/arm/lm3s811/TI_Stellaris/driverlib/can.c ****     // Check all possible values to find a matching value.
 739:/home/cuil/workspace/arm/lm3s811/TI_Stellaris/driverlib/can.c ****     //
 740:/home/cuil/workspace/arm/lm3s811/TI_Stellaris/driverlib/can.c ****     while(ulDesiredRatio <= (CAN_MAX_PRE_DIVISOR * CAN_MAX_BIT_DIVISOR))
 6565              		.loc 1 740 0
 6566 002c 59E0     		b	.L42
 6567              	.L47:
 741:/home/cuil/workspace/arm/lm3s811/TI_Stellaris/driverlib/can.c ****     {
 742:/home/cuil/workspace/arm/lm3s811/TI_Stellaris/driverlib/can.c ****         //
 743:/home/cuil/workspace/arm/lm3s811/TI_Stellaris/driverlib/can.c ****         // Loop through all possible CAN bit divisors.
 744:/home/cuil/workspace/arm/lm3s811/TI_Stellaris/driverlib/can.c ****         //
 745:/home/cuil/workspace/arm/lm3s811/TI_Stellaris/driverlib/can.c ****         for(ulCANBits = CAN_MAX_BIT_DIVISOR; ulCANBits >= CAN_MIN_BIT_DIVISOR;
 6568              		.loc 1 745 0
 6569 002e 4FF01303 		mov	r3, #19
 6570 0032 3B62     		str	r3, [r7, #32]
 6571 0034 4EE0     		b	.L43
 6572              	.L46:
 746:/home/cuil/workspace/arm/lm3s811/TI_Stellaris/driverlib/can.c ****             ulCANBits--)
 747:/home/cuil/workspace/arm/lm3s811/TI_Stellaris/driverlib/can.c ****         {
 748:/home/cuil/workspace/arm/lm3s811/TI_Stellaris/driverlib/can.c ****             //
 749:/home/cuil/workspace/arm/lm3s811/TI_Stellaris/driverlib/can.c ****             // For a given CAN bit divisor save the pre divisor.
 750:/home/cuil/workspace/arm/lm3s811/TI_Stellaris/driverlib/can.c ****             //
 751:/home/cuil/workspace/arm/lm3s811/TI_Stellaris/driverlib/can.c ****             ulPreDivide = ulDesiredRatio / ulCANBits;
 6573              		.loc 1 751 0
 6574 0036 7A6A     		ldr	r2, [r7, #36]
 6575 0038 3B6A     		ldr	r3, [r7, #32]
 6576 003a B2FBF3F3 		udiv	r3, r2, r3
 6577 003e FB61     		str	r3, [r7, #28]
 752:/home/cuil/workspace/arm/lm3s811/TI_Stellaris/driverlib/can.c **** 
 753:/home/cuil/workspace/arm/lm3s811/TI_Stellaris/driverlib/can.c ****             //
 754:/home/cuil/workspace/arm/lm3s811/TI_Stellaris/driverlib/can.c ****             // If the calculated divisors match the desired clock ratio then
 755:/home/cuil/workspace/arm/lm3s811/TI_Stellaris/driverlib/can.c ****             // return these bit rate and set the CAN bit timing.
 756:/home/cuil/workspace/arm/lm3s811/TI_Stellaris/driverlib/can.c ****             //
 757:/home/cuil/workspace/arm/lm3s811/TI_Stellaris/driverlib/can.c ****             if((ulPreDivide * ulCANBits) == ulDesiredRatio)
 6578              		.loc 1 757 0
 6579 0040 FB69     		ldr	r3, [r7, #28]
 6580 0042 3A6A     		ldr	r2, [r7, #32]
 6581 0044 02FB03F2 		mul	r2, r2, r3
 6582 0048 7B6A     		ldr	r3, [r7, #36]
 6583 004a 9A42     		cmp	r2, r3
 6584 004c 3ED1     		bne	.L44
 758:/home/cuil/workspace/arm/lm3s811/TI_Stellaris/driverlib/can.c ****             {
 759:/home/cuil/workspace/arm/lm3s811/TI_Stellaris/driverlib/can.c ****                 //
 760:/home/cuil/workspace/arm/lm3s811/TI_Stellaris/driverlib/can.c ****                 // Start building the bit timing value by adding the bit timing
 761:/home/cuil/workspace/arm/lm3s811/TI_Stellaris/driverlib/can.c ****                 // in time quanta.
 762:/home/cuil/workspace/arm/lm3s811/TI_Stellaris/driverlib/can.c ****                 //
 763:/home/cuil/workspace/arm/lm3s811/TI_Stellaris/driverlib/can.c ****                 ulRegValue = g_usCANBitValues[ulCANBits - CAN_MIN_BIT_DIVISOR];
 6585              		.loc 1 763 0
 6586 004e 3B6A     		ldr	r3, [r7, #32]
 6587 0050 A3F10402 		sub	r2, r3, #4
 6588 0054 284B     		ldr	r3, .L48
 6589 0056 33F81230 		ldrh	r3, [r3, r2, lsl #1]
 6590 005a BB61     		str	r3, [r7, #24]
 764:/home/cuil/workspace/arm/lm3s811/TI_Stellaris/driverlib/can.c **** 
 765:/home/cuil/workspace/arm/lm3s811/TI_Stellaris/driverlib/can.c ****                 //
 766:/home/cuil/workspace/arm/lm3s811/TI_Stellaris/driverlib/can.c ****                 // To set the bit timing register, the controller must be placed
 767:/home/cuil/workspace/arm/lm3s811/TI_Stellaris/driverlib/can.c ****                 // in init mode (if not already), and also configuration change
 768:/home/cuil/workspace/arm/lm3s811/TI_Stellaris/driverlib/can.c ****                 // bit enabled.  The state of the register should be saved
 769:/home/cuil/workspace/arm/lm3s811/TI_Stellaris/driverlib/can.c ****                 // so it can be restored.
 770:/home/cuil/workspace/arm/lm3s811/TI_Stellaris/driverlib/can.c ****                 //
 771:/home/cuil/workspace/arm/lm3s811/TI_Stellaris/driverlib/can.c ****                 usCANCTL = CANRegRead(ulBase + CAN_O_CTL);
 6591              		.loc 1 771 0
 6592 005c F868     		ldr	r0, [r7, #12]
 6593 005e FFF7FEFF 		bl	CANRegRead
 6594 0062 0346     		mov	r3, r0
 6595 0064 FB82     		strh	r3, [r7, #22]	@ movhi
 772:/home/cuil/workspace/arm/lm3s811/TI_Stellaris/driverlib/can.c ****                 CANRegWrite(ulBase + CAN_O_CTL,
 6596              		.loc 1 772 0
 6597 0066 FB8A     		ldrh	r3, [r7, #22]	@ movhi
 6598 0068 43F04103 		orr	r3, r3, #65
 6599 006c 9BB2     		uxth	r3, r3
 6600 006e F868     		ldr	r0, [r7, #12]
 6601 0070 1946     		mov	r1, r3
 6602 0072 FFF7FEFF 		bl	CANRegWrite
 773:/home/cuil/workspace/arm/lm3s811/TI_Stellaris/driverlib/can.c ****                             usCANCTL | CAN_CTL_INIT | CAN_CTL_CCE);
 774:/home/cuil/workspace/arm/lm3s811/TI_Stellaris/driverlib/can.c **** 
 775:/home/cuil/workspace/arm/lm3s811/TI_Stellaris/driverlib/can.c ****                 //
 776:/home/cuil/workspace/arm/lm3s811/TI_Stellaris/driverlib/can.c ****                 // Now add in the pre-scalar on the bit rate.
 777:/home/cuil/workspace/arm/lm3s811/TI_Stellaris/driverlib/can.c ****                 //
 778:/home/cuil/workspace/arm/lm3s811/TI_Stellaris/driverlib/can.c ****                 ulRegValue |= ((ulPreDivide - 1) & CAN_BIT_BRP_M);
 6603              		.loc 1 778 0
 6604 0076 FB69     		ldr	r3, [r7, #28]
 6605 0078 03F1FF33 		add	r3, r3, #-1
 6606 007c 03F03F03 		and	r3, r3, #63
 6607 0080 BA69     		ldr	r2, [r7, #24]
 6608 0082 42EA0303 		orr	r3, r2, r3
 6609 0086 BB61     		str	r3, [r7, #24]
 779:/home/cuil/workspace/arm/lm3s811/TI_Stellaris/driverlib/can.c **** 
 780:/home/cuil/workspace/arm/lm3s811/TI_Stellaris/driverlib/can.c ****                 //
 781:/home/cuil/workspace/arm/lm3s811/TI_Stellaris/driverlib/can.c ****                 // Set the clock bits in the and the lower bits of the
 782:/home/cuil/workspace/arm/lm3s811/TI_Stellaris/driverlib/can.c ****                 // pre-scalar.
 783:/home/cuil/workspace/arm/lm3s811/TI_Stellaris/driverlib/can.c ****                 //
 784:/home/cuil/workspace/arm/lm3s811/TI_Stellaris/driverlib/can.c ****                 CANRegWrite(ulBase + CAN_O_BIT, ulRegValue);
 6610              		.loc 1 784 0
 6611 0088 FB68     		ldr	r3, [r7, #12]
 6612 008a 03F10C03 		add	r3, r3, #12
 6613 008e 1846     		mov	r0, r3
 6614 0090 B969     		ldr	r1, [r7, #24]
 6615 0092 FFF7FEFF 		bl	CANRegWrite
 785:/home/cuil/workspace/arm/lm3s811/TI_Stellaris/driverlib/can.c **** 
 786:/home/cuil/workspace/arm/lm3s811/TI_Stellaris/driverlib/can.c ****                 //
 787:/home/cuil/workspace/arm/lm3s811/TI_Stellaris/driverlib/can.c ****                 // Set the divider upper bits in the extension register.
 788:/home/cuil/workspace/arm/lm3s811/TI_Stellaris/driverlib/can.c ****                 //
 789:/home/cuil/workspace/arm/lm3s811/TI_Stellaris/driverlib/can.c ****                 CANRegWrite(ulBase + CAN_O_BRPE,
 6616              		.loc 1 789 0
 6617 0096 FB68     		ldr	r3, [r7, #12]
 6618 0098 03F11802 		add	r2, r3, #24
 790:/home/cuil/workspace/arm/lm3s811/TI_Stellaris/driverlib/can.c ****                             ((ulPreDivide - 1) >> 6) & CAN_BRPE_BRPE_M);
 6619              		.loc 1 790 0
 6620 009c FB69     		ldr	r3, [r7, #28]
 6621 009e 03F1FF33 		add	r3, r3, #-1
 6622 00a2 4FEA9313 		lsr	r3, r3, #6
 789:/home/cuil/workspace/arm/lm3s811/TI_Stellaris/driverlib/can.c ****                 CANRegWrite(ulBase + CAN_O_BRPE,
 6623              		.loc 1 789 0
 6624 00a6 03F00F03 		and	r3, r3, #15
 6625 00aa 1046     		mov	r0, r2
 6626 00ac 1946     		mov	r1, r3
 6627 00ae FFF7FEFF 		bl	CANRegWrite
 791:/home/cuil/workspace/arm/lm3s811/TI_Stellaris/driverlib/can.c **** 
 792:/home/cuil/workspace/arm/lm3s811/TI_Stellaris/driverlib/can.c ****                 //
 793:/home/cuil/workspace/arm/lm3s811/TI_Stellaris/driverlib/can.c ****                 // Restore the saved CAN Control register.
 794:/home/cuil/workspace/arm/lm3s811/TI_Stellaris/driverlib/can.c ****                 //
 795:/home/cuil/workspace/arm/lm3s811/TI_Stellaris/driverlib/can.c ****                 CANRegWrite(ulBase + CAN_O_CTL, usCANCTL);
 6628              		.loc 1 795 0
 6629 00b2 FB8A     		ldrh	r3, [r7, #22]
 6630 00b4 F868     		ldr	r0, [r7, #12]
 6631 00b6 1946     		mov	r1, r3
 6632 00b8 FFF7FEFF 		bl	CANRegWrite
 796:/home/cuil/workspace/arm/lm3s811/TI_Stellaris/driverlib/can.c **** 
 797:/home/cuil/workspace/arm/lm3s811/TI_Stellaris/driverlib/can.c ****                 //
 798:/home/cuil/workspace/arm/lm3s811/TI_Stellaris/driverlib/can.c ****                 // Return the computed bit rate.
 799:/home/cuil/workspace/arm/lm3s811/TI_Stellaris/driverlib/can.c ****                 //
 800:/home/cuil/workspace/arm/lm3s811/TI_Stellaris/driverlib/can.c ****                 return(ulSourceClock / ( ulPreDivide * ulCANBits));
 6633              		.loc 1 800 0
 6634 00bc FB69     		ldr	r3, [r7, #28]
 6635 00be 3A6A     		ldr	r2, [r7, #32]
 6636 00c0 02FB03F3 		mul	r3, r2, r3
 6637 00c4 BA68     		ldr	r2, [r7, #8]
 6638 00c6 B2FBF3F3 		udiv	r3, r2, r3
 6639 00ca 10E0     		b	.L45
 6640              	.L44:
 746:/home/cuil/workspace/arm/lm3s811/TI_Stellaris/driverlib/can.c ****             ulCANBits--)
 6641              		.loc 1 746 0
 6642 00cc 3B6A     		ldr	r3, [r7, #32]
 6643 00ce 03F1FF33 		add	r3, r3, #-1
 6644 00d2 3B62     		str	r3, [r7, #32]
 6645              	.L43:
 745:/home/cuil/workspace/arm/lm3s811/TI_Stellaris/driverlib/can.c ****         for(ulCANBits = CAN_MAX_BIT_DIVISOR; ulCANBits >= CAN_MIN_BIT_DIVISOR;
 6646              		.loc 1 745 0 discriminator 1
 6647 00d4 3B6A     		ldr	r3, [r7, #32]
 6648 00d6 032B     		cmp	r3, #3
 6649 00d8 ADD8     		bhi	.L46
 801:/home/cuil/workspace/arm/lm3s811/TI_Stellaris/driverlib/can.c ****             }
 802:/home/cuil/workspace/arm/lm3s811/TI_Stellaris/driverlib/can.c ****         }
 803:/home/cuil/workspace/arm/lm3s811/TI_Stellaris/driverlib/can.c **** 
 804:/home/cuil/workspace/arm/lm3s811/TI_Stellaris/driverlib/can.c ****         //
 805:/home/cuil/workspace/arm/lm3s811/TI_Stellaris/driverlib/can.c ****         // Move the divisor up one and look again.  Only in rare cases are
 806:/home/cuil/workspace/arm/lm3s811/TI_Stellaris/driverlib/can.c ****         // more than 2 loops required to find the value.
 807:/home/cuil/workspace/arm/lm3s811/TI_Stellaris/driverlib/can.c ****         //
 808:/home/cuil/workspace/arm/lm3s811/TI_Stellaris/driverlib/can.c ****         ulDesiredRatio++;
 6650              		.loc 1 808 0
 6651 00da 7B6A     		ldr	r3, [r7, #36]
 6652 00dc 03F10103 		add	r3, r3, #1
 6653 00e0 7B62     		str	r3, [r7, #36]
 6654              	.L42:
 740:/home/cuil/workspace/arm/lm3s811/TI_Stellaris/driverlib/can.c ****     while(ulDesiredRatio <= (CAN_MAX_PRE_DIVISOR * CAN_MAX_BIT_DIVISOR))
 6655              		.loc 1 740 0 discriminator 1
 6656 00e2 7B6A     		ldr	r3, [r7, #36]
 6657 00e4 B3F5984F 		cmp	r3, #19456
 6658 00e8 A1D9     		bls	.L47
 809:/home/cuil/workspace/arm/lm3s811/TI_Stellaris/driverlib/can.c ****     }
 810:/home/cuil/workspace/arm/lm3s811/TI_Stellaris/driverlib/can.c **** 
 811:/home/cuil/workspace/arm/lm3s811/TI_Stellaris/driverlib/can.c ****     //
 812:/home/cuil/workspace/arm/lm3s811/TI_Stellaris/driverlib/can.c ****     // A valid combination could not be found, so return 0 to indicate that the
 813:/home/cuil/workspace/arm/lm3s811/TI_Stellaris/driverlib/can.c ****     // bit rate was not changed.
 814:/home/cuil/workspace/arm/lm3s811/TI_Stellaris/driverlib/can.c ****     //
 815:/home/cuil/workspace/arm/lm3s811/TI_Stellaris/driverlib/can.c ****     return(0);
 6659              		.loc 1 815 0
 6660 00ea 4FF00003 		mov	r3, #0
 6661              	.L45:
 816:/home/cuil/workspace/arm/lm3s811/TI_Stellaris/driverlib/can.c **** }
 6662              		.loc 1 816 0
 6663 00ee 1846     		mov	r0, r3
 6664 00f0 07F12807 		add	r7, r7, #40
 6665 00f4 BD46     		mov	sp, r7
 6666 00f6 80BD     		pop	{r7, pc}
 6667              	.L49:
 6668              		.align	2
 6669              	.L48:
 6670 00f8 00000000 		.word	g_usCANBitValues
 6671              		.cfi_endproc
 6672              	.LFE9:
 6674              		.section	.text.CANBitTimingSet,"ax",%progbits
 6675              		.align	2
 6676              		.global	CANBitTimingSet
 6677              		.thumb
 6678              		.thumb_func
 6680              	CANBitTimingSet:
 6681              	.LFB10:
 817:/home/cuil/workspace/arm/lm3s811/TI_Stellaris/driverlib/can.c **** 
 818:/home/cuil/workspace/arm/lm3s811/TI_Stellaris/driverlib/can.c **** //*****************************************************************************
 819:/home/cuil/workspace/arm/lm3s811/TI_Stellaris/driverlib/can.c **** //
 820:/home/cuil/workspace/arm/lm3s811/TI_Stellaris/driverlib/can.c **** //! Configures the CAN controller bit timing.
 821:/home/cuil/workspace/arm/lm3s811/TI_Stellaris/driverlib/can.c **** //!
 822:/home/cuil/workspace/arm/lm3s811/TI_Stellaris/driverlib/can.c **** //! \param ulBase is the base address of the CAN controller.
 823:/home/cuil/workspace/arm/lm3s811/TI_Stellaris/driverlib/can.c **** //! \param pClkParms points to the structure with the clock parameters.
 824:/home/cuil/workspace/arm/lm3s811/TI_Stellaris/driverlib/can.c **** //!
 825:/home/cuil/workspace/arm/lm3s811/TI_Stellaris/driverlib/can.c **** //! Configures the various timing parameters for the CAN bus bit timing:
 826:/home/cuil/workspace/arm/lm3s811/TI_Stellaris/driverlib/can.c **** //! Propagation segment, Phase Buffer 1 segment, Phase Buffer 2 segment, and
 827:/home/cuil/workspace/arm/lm3s811/TI_Stellaris/driverlib/can.c **** //! the Synchronization Jump Width.  The values for Propagation and Phase
 828:/home/cuil/workspace/arm/lm3s811/TI_Stellaris/driverlib/can.c **** //! Buffer 1 segments are derived from the combination
 829:/home/cuil/workspace/arm/lm3s811/TI_Stellaris/driverlib/can.c **** //! \e pClkParms->ulSyncPropPhase1Seg parameter.  Phase Buffer 2 is determined
 830:/home/cuil/workspace/arm/lm3s811/TI_Stellaris/driverlib/can.c **** //! from the \e pClkParms->ulPhase2Seg parameter.  These two parameters, along
 831:/home/cuil/workspace/arm/lm3s811/TI_Stellaris/driverlib/can.c **** //! with \e pClkParms->ulSJW are based in units of bit time quanta.  The actual
 832:/home/cuil/workspace/arm/lm3s811/TI_Stellaris/driverlib/can.c **** //! quantum time is determined by the \e pClkParms->ulQuantumPrescaler value,
 833:/home/cuil/workspace/arm/lm3s811/TI_Stellaris/driverlib/can.c **** //! which specifies the divisor for the CAN module clock.
 834:/home/cuil/workspace/arm/lm3s811/TI_Stellaris/driverlib/can.c **** //!
 835:/home/cuil/workspace/arm/lm3s811/TI_Stellaris/driverlib/can.c **** //! The total bit time, in quanta, is the sum of the two Seg parameters,
 836:/home/cuil/workspace/arm/lm3s811/TI_Stellaris/driverlib/can.c **** //! as follows:
 837:/home/cuil/workspace/arm/lm3s811/TI_Stellaris/driverlib/can.c **** //!
 838:/home/cuil/workspace/arm/lm3s811/TI_Stellaris/driverlib/can.c **** //! bit_time_q = ulSyncPropPhase1Seg + ulPhase2Seg + 1
 839:/home/cuil/workspace/arm/lm3s811/TI_Stellaris/driverlib/can.c **** //!
 840:/home/cuil/workspace/arm/lm3s811/TI_Stellaris/driverlib/can.c **** //! Note that the Sync_Seg is always one quantum in duration, and is added
 841:/home/cuil/workspace/arm/lm3s811/TI_Stellaris/driverlib/can.c **** //! to derive the correct duration of Prop_Seg and Phase1_Seg.
 842:/home/cuil/workspace/arm/lm3s811/TI_Stellaris/driverlib/can.c **** //!
 843:/home/cuil/workspace/arm/lm3s811/TI_Stellaris/driverlib/can.c **** //! The equation to determine the actual bit rate is as follows:
 844:/home/cuil/workspace/arm/lm3s811/TI_Stellaris/driverlib/can.c **** //!
 845:/home/cuil/workspace/arm/lm3s811/TI_Stellaris/driverlib/can.c **** //! CAN Clock /
 846:/home/cuil/workspace/arm/lm3s811/TI_Stellaris/driverlib/can.c **** //! ((\e ulSyncPropPhase1Seg + \e ulPhase2Seg + 1) * (\e ulQuantumPrescaler))
 847:/home/cuil/workspace/arm/lm3s811/TI_Stellaris/driverlib/can.c **** //!
 848:/home/cuil/workspace/arm/lm3s811/TI_Stellaris/driverlib/can.c **** //! Thus with \e ulSyncPropPhase1Seg = 4, \e ulPhase2Seg = 1,
 849:/home/cuil/workspace/arm/lm3s811/TI_Stellaris/driverlib/can.c **** //! \e ulQuantumPrescaler = 2 and an 8 MHz CAN clock, the bit rate is
 850:/home/cuil/workspace/arm/lm3s811/TI_Stellaris/driverlib/can.c **** //! (8 MHz) / ((5 + 2 + 1) * 2) or 500 Kbit/sec.
 851:/home/cuil/workspace/arm/lm3s811/TI_Stellaris/driverlib/can.c **** //!
 852:/home/cuil/workspace/arm/lm3s811/TI_Stellaris/driverlib/can.c **** //! This function replaces the original CANSetBitTiming() API and performs the
 853:/home/cuil/workspace/arm/lm3s811/TI_Stellaris/driverlib/can.c **** //! same actions.  A macro is provided in <tt>can.h</tt> to map the original
 854:/home/cuil/workspace/arm/lm3s811/TI_Stellaris/driverlib/can.c **** //! API to this API.
 855:/home/cuil/workspace/arm/lm3s811/TI_Stellaris/driverlib/can.c **** //!
 856:/home/cuil/workspace/arm/lm3s811/TI_Stellaris/driverlib/can.c **** //! \return None.
 857:/home/cuil/workspace/arm/lm3s811/TI_Stellaris/driverlib/can.c **** //
 858:/home/cuil/workspace/arm/lm3s811/TI_Stellaris/driverlib/can.c **** //*****************************************************************************
 859:/home/cuil/workspace/arm/lm3s811/TI_Stellaris/driverlib/can.c **** void
 860:/home/cuil/workspace/arm/lm3s811/TI_Stellaris/driverlib/can.c **** CANBitTimingSet(unsigned long ulBase, tCANBitClkParms *pClkParms)
 861:/home/cuil/workspace/arm/lm3s811/TI_Stellaris/driverlib/can.c **** {
 6682              		.loc 1 861 0
 6683              		.cfi_startproc
 6684              		@ args = 0, pretend = 0, frame = 16
 6685              		@ frame_needed = 1, uses_anonymous_args = 0
 6686 0000 80B5     		push	{r7, lr}
 6687              	.LCFI30:
 6688              		.cfi_def_cfa_offset 8
 6689 0002 84B0     		sub	sp, sp, #16
 6690              	.LCFI31:
 6691              		.cfi_def_cfa_offset 24
 6692 0004 00AF     		add	r7, sp, #0
 6693              		.cfi_offset 14, -4
 6694              		.cfi_offset 7, -8
 6695              	.LCFI32:
 6696              		.cfi_def_cfa_register 7
 6697 0006 7860     		str	r0, [r7, #4]
 6698 0008 3960     		str	r1, [r7, #0]
 862:/home/cuil/workspace/arm/lm3s811/TI_Stellaris/driverlib/can.c ****     unsigned long ulBitReg, ulSavedInit;
 863:/home/cuil/workspace/arm/lm3s811/TI_Stellaris/driverlib/can.c **** 
 864:/home/cuil/workspace/arm/lm3s811/TI_Stellaris/driverlib/can.c ****     //
 865:/home/cuil/workspace/arm/lm3s811/TI_Stellaris/driverlib/can.c ****     // Check the arguments.
 866:/home/cuil/workspace/arm/lm3s811/TI_Stellaris/driverlib/can.c ****     //
 867:/home/cuil/workspace/arm/lm3s811/TI_Stellaris/driverlib/can.c ****     ASSERT(CANBaseValid(ulBase));
 868:/home/cuil/workspace/arm/lm3s811/TI_Stellaris/driverlib/can.c ****     ASSERT(pClkParms != 0);
 869:/home/cuil/workspace/arm/lm3s811/TI_Stellaris/driverlib/can.c **** 
 870:/home/cuil/workspace/arm/lm3s811/TI_Stellaris/driverlib/can.c ****     //
 871:/home/cuil/workspace/arm/lm3s811/TI_Stellaris/driverlib/can.c ****     // The phase 1 segment must be in the range from 2 to 16.
 872:/home/cuil/workspace/arm/lm3s811/TI_Stellaris/driverlib/can.c ****     //
 873:/home/cuil/workspace/arm/lm3s811/TI_Stellaris/driverlib/can.c ****     ASSERT((pClkParms->ulSyncPropPhase1Seg >= 2) &&
 874:/home/cuil/workspace/arm/lm3s811/TI_Stellaris/driverlib/can.c ****            (pClkParms->ulSyncPropPhase1Seg <= 16));
 875:/home/cuil/workspace/arm/lm3s811/TI_Stellaris/driverlib/can.c **** 
 876:/home/cuil/workspace/arm/lm3s811/TI_Stellaris/driverlib/can.c ****     //
 877:/home/cuil/workspace/arm/lm3s811/TI_Stellaris/driverlib/can.c ****     // The phase 2 segment must be in the range from 1 to 8.
 878:/home/cuil/workspace/arm/lm3s811/TI_Stellaris/driverlib/can.c ****     //
 879:/home/cuil/workspace/arm/lm3s811/TI_Stellaris/driverlib/can.c ****     ASSERT((pClkParms->ulPhase2Seg >= 1) && (pClkParms->ulPhase2Seg <= 8));
 880:/home/cuil/workspace/arm/lm3s811/TI_Stellaris/driverlib/can.c **** 
 881:/home/cuil/workspace/arm/lm3s811/TI_Stellaris/driverlib/can.c ****     //
 882:/home/cuil/workspace/arm/lm3s811/TI_Stellaris/driverlib/can.c ****     // The synchronous jump windows must be in the range from 1 to 4.
 883:/home/cuil/workspace/arm/lm3s811/TI_Stellaris/driverlib/can.c ****     //
 884:/home/cuil/workspace/arm/lm3s811/TI_Stellaris/driverlib/can.c ****     ASSERT((pClkParms->ulSJW >= 1) && (pClkParms->ulSJW <= 4));
 885:/home/cuil/workspace/arm/lm3s811/TI_Stellaris/driverlib/can.c **** 
 886:/home/cuil/workspace/arm/lm3s811/TI_Stellaris/driverlib/can.c ****     //
 887:/home/cuil/workspace/arm/lm3s811/TI_Stellaris/driverlib/can.c ****     // The CAN clock pre-divider must be in the range from 1 to 1024.
 888:/home/cuil/workspace/arm/lm3s811/TI_Stellaris/driverlib/can.c ****     //
 889:/home/cuil/workspace/arm/lm3s811/TI_Stellaris/driverlib/can.c ****     ASSERT((pClkParms->ulQuantumPrescaler <= 1024) &&
 890:/home/cuil/workspace/arm/lm3s811/TI_Stellaris/driverlib/can.c ****            (pClkParms->ulQuantumPrescaler >= 1));
 891:/home/cuil/workspace/arm/lm3s811/TI_Stellaris/driverlib/can.c **** 
 892:/home/cuil/workspace/arm/lm3s811/TI_Stellaris/driverlib/can.c ****     //
 893:/home/cuil/workspace/arm/lm3s811/TI_Stellaris/driverlib/can.c ****     // To set the bit timing register, the controller must be placed in init
 894:/home/cuil/workspace/arm/lm3s811/TI_Stellaris/driverlib/can.c ****     // mode (if not already), and also configuration change bit enabled.  State
 895:/home/cuil/workspace/arm/lm3s811/TI_Stellaris/driverlib/can.c ****     // of the init bit should be saved so it can be restored at the end.
 896:/home/cuil/workspace/arm/lm3s811/TI_Stellaris/driverlib/can.c ****     //
 897:/home/cuil/workspace/arm/lm3s811/TI_Stellaris/driverlib/can.c ****     ulSavedInit = CANRegRead(ulBase + CAN_O_CTL);
 6699              		.loc 1 897 0
 6700 000a 7868     		ldr	r0, [r7, #4]
 6701 000c FFF7FEFF 		bl	CANRegRead
 6702 0010 F860     		str	r0, [r7, #12]
 898:/home/cuil/workspace/arm/lm3s811/TI_Stellaris/driverlib/can.c ****     CANRegWrite(ulBase + CAN_O_CTL, ulSavedInit | CAN_CTL_INIT | CAN_CTL_CCE);
 6703              		.loc 1 898 0
 6704 0012 FB68     		ldr	r3, [r7, #12]
 6705 0014 43F04103 		orr	r3, r3, #65
 6706 0018 7868     		ldr	r0, [r7, #4]
 6707 001a 1946     		mov	r1, r3
 6708 001c FFF7FEFF 		bl	CANRegWrite
 899:/home/cuil/workspace/arm/lm3s811/TI_Stellaris/driverlib/can.c **** 
 900:/home/cuil/workspace/arm/lm3s811/TI_Stellaris/driverlib/can.c ****     //
 901:/home/cuil/workspace/arm/lm3s811/TI_Stellaris/driverlib/can.c ****     // Set the bit fields of the bit timing register according to the parms.
 902:/home/cuil/workspace/arm/lm3s811/TI_Stellaris/driverlib/can.c ****     //
 903:/home/cuil/workspace/arm/lm3s811/TI_Stellaris/driverlib/can.c ****     ulBitReg = (((pClkParms->ulPhase2Seg - 1) << CAN_BIT_TSEG2_S) &
 6709              		.loc 1 903 0
 6710 0020 3B68     		ldr	r3, [r7, #0]
 6711 0022 5B68     		ldr	r3, [r3, #4]
 6712 0024 03F1FF33 		add	r3, r3, #-1
 6713 0028 4FEA0333 		lsl	r3, r3, #12
 6714 002c 03F4E043 		and	r3, r3, #28672
 6715 0030 BB60     		str	r3, [r7, #8]
 904:/home/cuil/workspace/arm/lm3s811/TI_Stellaris/driverlib/can.c ****                 CAN_BIT_TSEG2_M);
 905:/home/cuil/workspace/arm/lm3s811/TI_Stellaris/driverlib/can.c ****     ulBitReg |= (((pClkParms->ulSyncPropPhase1Seg - 1) << CAN_BIT_TSEG1_S) &
 6716              		.loc 1 905 0
 6717 0032 3B68     		ldr	r3, [r7, #0]
 6718 0034 1B68     		ldr	r3, [r3, #0]
 6719 0036 03F1FF33 		add	r3, r3, #-1
 6720 003a 4FEA0323 		lsl	r3, r3, #8
 6721 003e 03F47063 		and	r3, r3, #3840
 6722 0042 BA68     		ldr	r2, [r7, #8]
 6723 0044 42EA0303 		orr	r3, r2, r3
 6724 0048 BB60     		str	r3, [r7, #8]
 906:/home/cuil/workspace/arm/lm3s811/TI_Stellaris/driverlib/can.c ****                  CAN_BIT_TSEG1_M);
 907:/home/cuil/workspace/arm/lm3s811/TI_Stellaris/driverlib/can.c ****     ulBitReg |= ((pClkParms->ulSJW - 1) << CAN_BIT_SJW_S) & CAN_BIT_SJW_M;
 6725              		.loc 1 907 0
 6726 004a 3B68     		ldr	r3, [r7, #0]
 6727 004c 9B68     		ldr	r3, [r3, #8]
 6728 004e 03F1FF33 		add	r3, r3, #-1
 6729 0052 4FEA8313 		lsl	r3, r3, #6
 6730 0056 03F0FF03 		and	r3, r3, #255
 6731 005a BA68     		ldr	r2, [r7, #8]
 6732 005c 42EA0303 		orr	r3, r2, r3
 6733 0060 BB60     		str	r3, [r7, #8]
 908:/home/cuil/workspace/arm/lm3s811/TI_Stellaris/driverlib/can.c ****     ulBitReg |= (pClkParms->ulQuantumPrescaler - 1) & CAN_BIT_BRP_M;
 6734              		.loc 1 908 0
 6735 0062 3B68     		ldr	r3, [r7, #0]
 6736 0064 DB68     		ldr	r3, [r3, #12]
 6737 0066 03F1FF33 		add	r3, r3, #-1
 6738 006a 03F03F03 		and	r3, r3, #63
 6739 006e BA68     		ldr	r2, [r7, #8]
 6740 0070 42EA0303 		orr	r3, r2, r3
 6741 0074 BB60     		str	r3, [r7, #8]
 909:/home/cuil/workspace/arm/lm3s811/TI_Stellaris/driverlib/can.c ****     CANRegWrite(ulBase + CAN_O_BIT, ulBitReg);
 6742              		.loc 1 909 0
 6743 0076 7B68     		ldr	r3, [r7, #4]
 6744 0078 03F10C03 		add	r3, r3, #12
 6745 007c 1846     		mov	r0, r3
 6746 007e B968     		ldr	r1, [r7, #8]
 6747 0080 FFF7FEFF 		bl	CANRegWrite
 910:/home/cuil/workspace/arm/lm3s811/TI_Stellaris/driverlib/can.c **** 
 911:/home/cuil/workspace/arm/lm3s811/TI_Stellaris/driverlib/can.c ****     //
 912:/home/cuil/workspace/arm/lm3s811/TI_Stellaris/driverlib/can.c ****     // Set the divider upper bits in the extension register.
 913:/home/cuil/workspace/arm/lm3s811/TI_Stellaris/driverlib/can.c ****     //
 914:/home/cuil/workspace/arm/lm3s811/TI_Stellaris/driverlib/can.c ****     CANRegWrite(ulBase + CAN_O_BRPE,
 6748              		.loc 1 914 0
 6749 0084 7B68     		ldr	r3, [r7, #4]
 6750 0086 03F11802 		add	r2, r3, #24
 915:/home/cuil/workspace/arm/lm3s811/TI_Stellaris/driverlib/can.c ****                 ((pClkParms->ulQuantumPrescaler - 1) >> 6) & CAN_BRPE_BRPE_M);
 6751              		.loc 1 915 0
 6752 008a 3B68     		ldr	r3, [r7, #0]
 6753 008c DB68     		ldr	r3, [r3, #12]
 6754 008e 03F1FF33 		add	r3, r3, #-1
 6755 0092 4FEA9313 		lsr	r3, r3, #6
 914:/home/cuil/workspace/arm/lm3s811/TI_Stellaris/driverlib/can.c ****     CANRegWrite(ulBase + CAN_O_BRPE,
 6756              		.loc 1 914 0
 6757 0096 03F00F03 		and	r3, r3, #15
 6758 009a 1046     		mov	r0, r2
 6759 009c 1946     		mov	r1, r3
 6760 009e FFF7FEFF 		bl	CANRegWrite
 916:/home/cuil/workspace/arm/lm3s811/TI_Stellaris/driverlib/can.c **** 
 917:/home/cuil/workspace/arm/lm3s811/TI_Stellaris/driverlib/can.c ****     //
 918:/home/cuil/workspace/arm/lm3s811/TI_Stellaris/driverlib/can.c ****     // Clear the config change bit, and restore the init bit.
 919:/home/cuil/workspace/arm/lm3s811/TI_Stellaris/driverlib/can.c ****     //
 920:/home/cuil/workspace/arm/lm3s811/TI_Stellaris/driverlib/can.c ****     ulSavedInit &= ~CAN_CTL_CCE;
 6761              		.loc 1 920 0
 6762 00a2 FB68     		ldr	r3, [r7, #12]
 6763 00a4 23F04003 		bic	r3, r3, #64
 6764 00a8 FB60     		str	r3, [r7, #12]
 921:/home/cuil/workspace/arm/lm3s811/TI_Stellaris/driverlib/can.c **** 
 922:/home/cuil/workspace/arm/lm3s811/TI_Stellaris/driverlib/can.c ****     //
 923:/home/cuil/workspace/arm/lm3s811/TI_Stellaris/driverlib/can.c ****     // If Init was not set before, then clear it.
 924:/home/cuil/workspace/arm/lm3s811/TI_Stellaris/driverlib/can.c ****     //
 925:/home/cuil/workspace/arm/lm3s811/TI_Stellaris/driverlib/can.c ****     if(ulSavedInit & CAN_CTL_INIT)
 6765              		.loc 1 925 0
 6766 00aa FB68     		ldr	r3, [r7, #12]
 6767 00ac 03F00103 		and	r3, r3, #1
 6768 00b0 DBB2     		uxtb	r3, r3
 6769 00b2 002B     		cmp	r3, #0
 6770 00b4 03D0     		beq	.L51
 926:/home/cuil/workspace/arm/lm3s811/TI_Stellaris/driverlib/can.c ****     {
 927:/home/cuil/workspace/arm/lm3s811/TI_Stellaris/driverlib/can.c ****         ulSavedInit &= ~CAN_CTL_INIT;
 6771              		.loc 1 927 0
 6772 00b6 FB68     		ldr	r3, [r7, #12]
 6773 00b8 23F00103 		bic	r3, r3, #1
 6774 00bc FB60     		str	r3, [r7, #12]
 6775              	.L51:
 928:/home/cuil/workspace/arm/lm3s811/TI_Stellaris/driverlib/can.c ****     }
 929:/home/cuil/workspace/arm/lm3s811/TI_Stellaris/driverlib/can.c ****     CANRegWrite(ulBase + CAN_O_CTL, ulSavedInit);
 6776              		.loc 1 929 0
 6777 00be 7868     		ldr	r0, [r7, #4]
 6778 00c0 F968     		ldr	r1, [r7, #12]
 6779 00c2 FFF7FEFF 		bl	CANRegWrite
 930:/home/cuil/workspace/arm/lm3s811/TI_Stellaris/driverlib/can.c **** }
 6780              		.loc 1 930 0
 6781 00c6 07F11007 		add	r7, r7, #16
 6782 00ca BD46     		mov	sp, r7
 6783 00cc 80BD     		pop	{r7, pc}
 6784              		.cfi_endproc
 6785              	.LFE10:
 6787 00ce 00BF     		.section	.text.CANIntRegister,"ax",%progbits
 6788              		.align	2
 6789              		.global	CANIntRegister
 6790              		.thumb
 6791              		.thumb_func
 6793              	CANIntRegister:
 6794              	.LFB11:
 931:/home/cuil/workspace/arm/lm3s811/TI_Stellaris/driverlib/can.c **** 
 932:/home/cuil/workspace/arm/lm3s811/TI_Stellaris/driverlib/can.c **** //*****************************************************************************
 933:/home/cuil/workspace/arm/lm3s811/TI_Stellaris/driverlib/can.c **** //
 934:/home/cuil/workspace/arm/lm3s811/TI_Stellaris/driverlib/can.c **** //! Registers an interrupt handler for the CAN controller.
 935:/home/cuil/workspace/arm/lm3s811/TI_Stellaris/driverlib/can.c **** //!
 936:/home/cuil/workspace/arm/lm3s811/TI_Stellaris/driverlib/can.c **** //! \param ulBase is the base address of the CAN controller.
 937:/home/cuil/workspace/arm/lm3s811/TI_Stellaris/driverlib/can.c **** //! \param pfnHandler is a pointer to the function to be called when the
 938:/home/cuil/workspace/arm/lm3s811/TI_Stellaris/driverlib/can.c **** //! enabled CAN interrupts occur.
 939:/home/cuil/workspace/arm/lm3s811/TI_Stellaris/driverlib/can.c **** //!
 940:/home/cuil/workspace/arm/lm3s811/TI_Stellaris/driverlib/can.c **** //! This function registers the interrupt handler in the interrupt vector
 941:/home/cuil/workspace/arm/lm3s811/TI_Stellaris/driverlib/can.c **** //! table, and enables CAN interrupts on the interrupt controller; specific CAN
 942:/home/cuil/workspace/arm/lm3s811/TI_Stellaris/driverlib/can.c **** //! interrupt sources must be enabled using CANIntEnable().  The interrupt
 943:/home/cuil/workspace/arm/lm3s811/TI_Stellaris/driverlib/can.c **** //! handler being registered must clear the source of the interrupt using
 944:/home/cuil/workspace/arm/lm3s811/TI_Stellaris/driverlib/can.c **** //! CANIntClear().
 945:/home/cuil/workspace/arm/lm3s811/TI_Stellaris/driverlib/can.c **** //!
 946:/home/cuil/workspace/arm/lm3s811/TI_Stellaris/driverlib/can.c **** //! If the application is using a static interrupt vector table stored in
 947:/home/cuil/workspace/arm/lm3s811/TI_Stellaris/driverlib/can.c **** //! flash, then it is not necessary to register the interrupt handler this way.
 948:/home/cuil/workspace/arm/lm3s811/TI_Stellaris/driverlib/can.c **** //! Instead, IntEnable() should be used to enable CAN interrupts on the
 949:/home/cuil/workspace/arm/lm3s811/TI_Stellaris/driverlib/can.c **** //! interrupt controller.
 950:/home/cuil/workspace/arm/lm3s811/TI_Stellaris/driverlib/can.c **** //!
 951:/home/cuil/workspace/arm/lm3s811/TI_Stellaris/driverlib/can.c **** //! \sa IntRegister() for important information about registering interrupt
 952:/home/cuil/workspace/arm/lm3s811/TI_Stellaris/driverlib/can.c **** //! handlers.
 953:/home/cuil/workspace/arm/lm3s811/TI_Stellaris/driverlib/can.c **** //!
 954:/home/cuil/workspace/arm/lm3s811/TI_Stellaris/driverlib/can.c **** //! \return None.
 955:/home/cuil/workspace/arm/lm3s811/TI_Stellaris/driverlib/can.c **** //
 956:/home/cuil/workspace/arm/lm3s811/TI_Stellaris/driverlib/can.c **** //*****************************************************************************
 957:/home/cuil/workspace/arm/lm3s811/TI_Stellaris/driverlib/can.c **** void
 958:/home/cuil/workspace/arm/lm3s811/TI_Stellaris/driverlib/can.c **** CANIntRegister(unsigned long ulBase, void (*pfnHandler)(void))
 959:/home/cuil/workspace/arm/lm3s811/TI_Stellaris/driverlib/can.c **** {
 6795              		.loc 1 959 0
 6796              		.cfi_startproc
 6797              		@ args = 0, pretend = 0, frame = 16
 6798              		@ frame_needed = 1, uses_anonymous_args = 0
 6799 0000 80B5     		push	{r7, lr}
 6800              	.LCFI33:
 6801              		.cfi_def_cfa_offset 8
 6802 0002 84B0     		sub	sp, sp, #16
 6803              	.LCFI34:
 6804              		.cfi_def_cfa_offset 24
 6805 0004 00AF     		add	r7, sp, #0
 6806              		.cfi_offset 14, -4
 6807              		.cfi_offset 7, -8
 6808              	.LCFI35:
 6809              		.cfi_def_cfa_register 7
 6810 0006 7860     		str	r0, [r7, #4]
 6811 0008 3960     		str	r1, [r7, #0]
 960:/home/cuil/workspace/arm/lm3s811/TI_Stellaris/driverlib/can.c ****     unsigned long ulIntNumber;
 961:/home/cuil/workspace/arm/lm3s811/TI_Stellaris/driverlib/can.c **** 
 962:/home/cuil/workspace/arm/lm3s811/TI_Stellaris/driverlib/can.c ****     //
 963:/home/cuil/workspace/arm/lm3s811/TI_Stellaris/driverlib/can.c ****     // Check the arguments.
 964:/home/cuil/workspace/arm/lm3s811/TI_Stellaris/driverlib/can.c ****     //
 965:/home/cuil/workspace/arm/lm3s811/TI_Stellaris/driverlib/can.c ****     ASSERT(CANBaseValid(ulBase));
 966:/home/cuil/workspace/arm/lm3s811/TI_Stellaris/driverlib/can.c **** 
 967:/home/cuil/workspace/arm/lm3s811/TI_Stellaris/driverlib/can.c ****     //
 968:/home/cuil/workspace/arm/lm3s811/TI_Stellaris/driverlib/can.c ****     // Get the actual interrupt number for this CAN controller.
 969:/home/cuil/workspace/arm/lm3s811/TI_Stellaris/driverlib/can.c ****     //
 970:/home/cuil/workspace/arm/lm3s811/TI_Stellaris/driverlib/can.c ****     ulIntNumber = CANIntNumberGet(ulBase);
 6812              		.loc 1 970 0
 6813 000a 7868     		ldr	r0, [r7, #4]
 6814 000c FFF7FEFF 		bl	CANIntNumberGet
 6815 0010 0346     		mov	r3, r0
 6816 0012 FB60     		str	r3, [r7, #12]
 971:/home/cuil/workspace/arm/lm3s811/TI_Stellaris/driverlib/can.c **** 
 972:/home/cuil/workspace/arm/lm3s811/TI_Stellaris/driverlib/can.c ****     //
 973:/home/cuil/workspace/arm/lm3s811/TI_Stellaris/driverlib/can.c ****     // Register the interrupt handler.
 974:/home/cuil/workspace/arm/lm3s811/TI_Stellaris/driverlib/can.c ****     //
 975:/home/cuil/workspace/arm/lm3s811/TI_Stellaris/driverlib/can.c ****     IntRegister(ulIntNumber, pfnHandler);
 6817              		.loc 1 975 0
 6818 0014 F868     		ldr	r0, [r7, #12]
 6819 0016 3968     		ldr	r1, [r7, #0]
 6820 0018 FFF7FEFF 		bl	IntRegister
 976:/home/cuil/workspace/arm/lm3s811/TI_Stellaris/driverlib/can.c **** 
 977:/home/cuil/workspace/arm/lm3s811/TI_Stellaris/driverlib/can.c ****     //
 978:/home/cuil/workspace/arm/lm3s811/TI_Stellaris/driverlib/can.c ****     // Enable the Ethernet interrupt.
 979:/home/cuil/workspace/arm/lm3s811/TI_Stellaris/driverlib/can.c ****     //
 980:/home/cuil/workspace/arm/lm3s811/TI_Stellaris/driverlib/can.c ****     IntEnable(ulIntNumber);
 6821              		.loc 1 980 0
 6822 001c F868     		ldr	r0, [r7, #12]
 6823 001e FFF7FEFF 		bl	IntEnable
 981:/home/cuil/workspace/arm/lm3s811/TI_Stellaris/driverlib/can.c **** }
 6824              		.loc 1 981 0
 6825 0022 07F11007 		add	r7, r7, #16
 6826 0026 BD46     		mov	sp, r7
 6827 0028 80BD     		pop	{r7, pc}
 6828              		.cfi_endproc
 6829              	.LFE11:
 6831 002a 00BF     		.section	.text.CANIntUnregister,"ax",%progbits
 6832              		.align	2
 6833              		.global	CANIntUnregister
 6834              		.thumb
 6835              		.thumb_func
 6837              	CANIntUnregister:
 6838              	.LFB12:
 982:/home/cuil/workspace/arm/lm3s811/TI_Stellaris/driverlib/can.c **** 
 983:/home/cuil/workspace/arm/lm3s811/TI_Stellaris/driverlib/can.c **** //*****************************************************************************
 984:/home/cuil/workspace/arm/lm3s811/TI_Stellaris/driverlib/can.c **** //
 985:/home/cuil/workspace/arm/lm3s811/TI_Stellaris/driverlib/can.c **** //! Unregisters an interrupt handler for the CAN controller.
 986:/home/cuil/workspace/arm/lm3s811/TI_Stellaris/driverlib/can.c **** //!
 987:/home/cuil/workspace/arm/lm3s811/TI_Stellaris/driverlib/can.c **** //! \param ulBase is the base address of the controller.
 988:/home/cuil/workspace/arm/lm3s811/TI_Stellaris/driverlib/can.c **** //!
 989:/home/cuil/workspace/arm/lm3s811/TI_Stellaris/driverlib/can.c **** //! This function unregisters the previously registered interrupt handler and
 990:/home/cuil/workspace/arm/lm3s811/TI_Stellaris/driverlib/can.c **** //! disables the interrupt in the interrupt controller.
 991:/home/cuil/workspace/arm/lm3s811/TI_Stellaris/driverlib/can.c **** //!
 992:/home/cuil/workspace/arm/lm3s811/TI_Stellaris/driverlib/can.c **** //! \sa IntRegister() for important information about registering interrupt
 993:/home/cuil/workspace/arm/lm3s811/TI_Stellaris/driverlib/can.c **** //! handlers.
 994:/home/cuil/workspace/arm/lm3s811/TI_Stellaris/driverlib/can.c **** //!
 995:/home/cuil/workspace/arm/lm3s811/TI_Stellaris/driverlib/can.c **** //! \return None.
 996:/home/cuil/workspace/arm/lm3s811/TI_Stellaris/driverlib/can.c **** //
 997:/home/cuil/workspace/arm/lm3s811/TI_Stellaris/driverlib/can.c **** //*****************************************************************************
 998:/home/cuil/workspace/arm/lm3s811/TI_Stellaris/driverlib/can.c **** void
 999:/home/cuil/workspace/arm/lm3s811/TI_Stellaris/driverlib/can.c **** CANIntUnregister(unsigned long ulBase)
1000:/home/cuil/workspace/arm/lm3s811/TI_Stellaris/driverlib/can.c **** {
 6839              		.loc 1 1000 0
 6840              		.cfi_startproc
 6841              		@ args = 0, pretend = 0, frame = 16
 6842              		@ frame_needed = 1, uses_anonymous_args = 0
 6843 0000 80B5     		push	{r7, lr}
 6844              	.LCFI36:
 6845              		.cfi_def_cfa_offset 8
 6846 0002 84B0     		sub	sp, sp, #16
 6847              	.LCFI37:
 6848              		.cfi_def_cfa_offset 24
 6849 0004 00AF     		add	r7, sp, #0
 6850              		.cfi_offset 14, -4
 6851              		.cfi_offset 7, -8
 6852              	.LCFI38:
 6853              		.cfi_def_cfa_register 7
 6854 0006 7860     		str	r0, [r7, #4]
1001:/home/cuil/workspace/arm/lm3s811/TI_Stellaris/driverlib/can.c ****     unsigned long ulIntNumber;
1002:/home/cuil/workspace/arm/lm3s811/TI_Stellaris/driverlib/can.c **** 
1003:/home/cuil/workspace/arm/lm3s811/TI_Stellaris/driverlib/can.c ****     //
1004:/home/cuil/workspace/arm/lm3s811/TI_Stellaris/driverlib/can.c ****     // Check the arguments.
1005:/home/cuil/workspace/arm/lm3s811/TI_Stellaris/driverlib/can.c ****     //
1006:/home/cuil/workspace/arm/lm3s811/TI_Stellaris/driverlib/can.c ****     ASSERT(CANBaseValid(ulBase));
1007:/home/cuil/workspace/arm/lm3s811/TI_Stellaris/driverlib/can.c **** 
1008:/home/cuil/workspace/arm/lm3s811/TI_Stellaris/driverlib/can.c ****     //
1009:/home/cuil/workspace/arm/lm3s811/TI_Stellaris/driverlib/can.c ****     // Get the actual interrupt number for this CAN controller.
1010:/home/cuil/workspace/arm/lm3s811/TI_Stellaris/driverlib/can.c ****     //
1011:/home/cuil/workspace/arm/lm3s811/TI_Stellaris/driverlib/can.c ****     ulIntNumber = CANIntNumberGet(ulBase);
 6855              		.loc 1 1011 0
 6856 0008 7868     		ldr	r0, [r7, #4]
 6857 000a FFF7FEFF 		bl	CANIntNumberGet
 6858 000e 0346     		mov	r3, r0
 6859 0010 FB60     		str	r3, [r7, #12]
1012:/home/cuil/workspace/arm/lm3s811/TI_Stellaris/driverlib/can.c **** 
1013:/home/cuil/workspace/arm/lm3s811/TI_Stellaris/driverlib/can.c ****     //
1014:/home/cuil/workspace/arm/lm3s811/TI_Stellaris/driverlib/can.c ****     // Disable the CAN interrupt.
1015:/home/cuil/workspace/arm/lm3s811/TI_Stellaris/driverlib/can.c ****     //
1016:/home/cuil/workspace/arm/lm3s811/TI_Stellaris/driverlib/can.c ****     IntDisable(ulIntNumber);
 6860              		.loc 1 1016 0
 6861 0012 F868     		ldr	r0, [r7, #12]
 6862 0014 FFF7FEFF 		bl	IntDisable
1017:/home/cuil/workspace/arm/lm3s811/TI_Stellaris/driverlib/can.c **** 
1018:/home/cuil/workspace/arm/lm3s811/TI_Stellaris/driverlib/can.c ****     //
1019:/home/cuil/workspace/arm/lm3s811/TI_Stellaris/driverlib/can.c ****     // Register the interrupt handler.
1020:/home/cuil/workspace/arm/lm3s811/TI_Stellaris/driverlib/can.c ****     //
1021:/home/cuil/workspace/arm/lm3s811/TI_Stellaris/driverlib/can.c ****     IntUnregister(ulIntNumber);
 6863              		.loc 1 1021 0
 6864 0018 F868     		ldr	r0, [r7, #12]
 6865 001a FFF7FEFF 		bl	IntUnregister
1022:/home/cuil/workspace/arm/lm3s811/TI_Stellaris/driverlib/can.c **** }
 6866              		.loc 1 1022 0
 6867 001e 07F11007 		add	r7, r7, #16
 6868 0022 BD46     		mov	sp, r7
 6869 0024 80BD     		pop	{r7, pc}
 6870              		.cfi_endproc
 6871              	.LFE12:
 6873 0026 00BF     		.section	.text.CANIntEnable,"ax",%progbits
 6874              		.align	2
 6875              		.global	CANIntEnable
 6876              		.thumb
 6877              		.thumb_func
 6879              	CANIntEnable:
 6880              	.LFB13:
1023:/home/cuil/workspace/arm/lm3s811/TI_Stellaris/driverlib/can.c **** 
1024:/home/cuil/workspace/arm/lm3s811/TI_Stellaris/driverlib/can.c **** //*****************************************************************************
1025:/home/cuil/workspace/arm/lm3s811/TI_Stellaris/driverlib/can.c **** //
1026:/home/cuil/workspace/arm/lm3s811/TI_Stellaris/driverlib/can.c **** //! Enables individual CAN controller interrupt sources.
1027:/home/cuil/workspace/arm/lm3s811/TI_Stellaris/driverlib/can.c **** //!
1028:/home/cuil/workspace/arm/lm3s811/TI_Stellaris/driverlib/can.c **** //! \param ulBase is the base address of the CAN controller.
1029:/home/cuil/workspace/arm/lm3s811/TI_Stellaris/driverlib/can.c **** //! \param ulIntFlags is the bit mask of the interrupt sources to be enabled.
1030:/home/cuil/workspace/arm/lm3s811/TI_Stellaris/driverlib/can.c **** //!
1031:/home/cuil/workspace/arm/lm3s811/TI_Stellaris/driverlib/can.c **** //! This function enables specific interrupt sources of the CAN controller. 
1032:/home/cuil/workspace/arm/lm3s811/TI_Stellaris/driverlib/can.c **** //! Only enabled sources cause a processor interrupt.
1033:/home/cuil/workspace/arm/lm3s811/TI_Stellaris/driverlib/can.c **** //!
1034:/home/cuil/workspace/arm/lm3s811/TI_Stellaris/driverlib/can.c **** //! The \e ulIntFlags parameter is the logical OR of any of the following:
1035:/home/cuil/workspace/arm/lm3s811/TI_Stellaris/driverlib/can.c **** //!
1036:/home/cuil/workspace/arm/lm3s811/TI_Stellaris/driverlib/can.c **** //! - \b CAN_INT_ERROR - a controller error condition has occurred
1037:/home/cuil/workspace/arm/lm3s811/TI_Stellaris/driverlib/can.c **** //! - \b CAN_INT_STATUS - a message transfer has completed, or a bus error has
1038:/home/cuil/workspace/arm/lm3s811/TI_Stellaris/driverlib/can.c **** //! been detected
1039:/home/cuil/workspace/arm/lm3s811/TI_Stellaris/driverlib/can.c **** //! - \b CAN_INT_MASTER - allow CAN controller to generate interrupts
1040:/home/cuil/workspace/arm/lm3s811/TI_Stellaris/driverlib/can.c **** //!
1041:/home/cuil/workspace/arm/lm3s811/TI_Stellaris/driverlib/can.c **** //! In order to generate any interrupts, \b CAN_INT_MASTER must be enabled.
1042:/home/cuil/workspace/arm/lm3s811/TI_Stellaris/driverlib/can.c **** //! Further, for any particular transaction from a message object to generate
1043:/home/cuil/workspace/arm/lm3s811/TI_Stellaris/driverlib/can.c **** //! an interrupt, that message object must have interrupts enabled (see
1044:/home/cuil/workspace/arm/lm3s811/TI_Stellaris/driverlib/can.c **** //! CANMessageSet()).  \b CAN_INT_ERROR will generate an interrupt if the
1045:/home/cuil/workspace/arm/lm3s811/TI_Stellaris/driverlib/can.c **** //! controller enters the ``bus off'' condition, or if the error counters reach
1046:/home/cuil/workspace/arm/lm3s811/TI_Stellaris/driverlib/can.c **** //! a limit.  \b CAN_INT_STATUS generates an interrupt under quite a few
1047:/home/cuil/workspace/arm/lm3s811/TI_Stellaris/driverlib/can.c **** //! status conditions and may provide more interrupts than the application
1048:/home/cuil/workspace/arm/lm3s811/TI_Stellaris/driverlib/can.c **** //! needs to handle.  When an interrupt occurs, use CANIntStatus() to determine
1049:/home/cuil/workspace/arm/lm3s811/TI_Stellaris/driverlib/can.c **** //! the cause.
1050:/home/cuil/workspace/arm/lm3s811/TI_Stellaris/driverlib/can.c **** //!
1051:/home/cuil/workspace/arm/lm3s811/TI_Stellaris/driverlib/can.c **** //! \return None.
1052:/home/cuil/workspace/arm/lm3s811/TI_Stellaris/driverlib/can.c **** //
1053:/home/cuil/workspace/arm/lm3s811/TI_Stellaris/driverlib/can.c **** //*****************************************************************************
1054:/home/cuil/workspace/arm/lm3s811/TI_Stellaris/driverlib/can.c **** void
1055:/home/cuil/workspace/arm/lm3s811/TI_Stellaris/driverlib/can.c **** CANIntEnable(unsigned long ulBase, unsigned long ulIntFlags)
1056:/home/cuil/workspace/arm/lm3s811/TI_Stellaris/driverlib/can.c **** {
 6881              		.loc 1 1056 0
 6882              		.cfi_startproc
 6883              		@ args = 0, pretend = 0, frame = 8
 6884              		@ frame_needed = 1, uses_anonymous_args = 0
 6885 0000 80B5     		push	{r7, lr}
 6886              	.LCFI39:
 6887              		.cfi_def_cfa_offset 8
 6888 0002 82B0     		sub	sp, sp, #8
 6889              	.LCFI40:
 6890              		.cfi_def_cfa_offset 16
 6891 0004 00AF     		add	r7, sp, #0
 6892              		.cfi_offset 14, -4
 6893              		.cfi_offset 7, -8
 6894              	.LCFI41:
 6895              		.cfi_def_cfa_register 7
 6896 0006 7860     		str	r0, [r7, #4]
 6897 0008 3960     		str	r1, [r7, #0]
1057:/home/cuil/workspace/arm/lm3s811/TI_Stellaris/driverlib/can.c ****     //
1058:/home/cuil/workspace/arm/lm3s811/TI_Stellaris/driverlib/can.c ****     // Check the arguments.
1059:/home/cuil/workspace/arm/lm3s811/TI_Stellaris/driverlib/can.c ****     //
1060:/home/cuil/workspace/arm/lm3s811/TI_Stellaris/driverlib/can.c ****     ASSERT(CANBaseValid(ulBase));
1061:/home/cuil/workspace/arm/lm3s811/TI_Stellaris/driverlib/can.c ****     ASSERT((ulIntFlags & ~(CAN_CTL_EIE | CAN_CTL_SIE | CAN_CTL_IE)) == 0);
1062:/home/cuil/workspace/arm/lm3s811/TI_Stellaris/driverlib/can.c **** 
1063:/home/cuil/workspace/arm/lm3s811/TI_Stellaris/driverlib/can.c ****     //
1064:/home/cuil/workspace/arm/lm3s811/TI_Stellaris/driverlib/can.c ****     // Enable the specified interrupts.
1065:/home/cuil/workspace/arm/lm3s811/TI_Stellaris/driverlib/can.c ****     //
1066:/home/cuil/workspace/arm/lm3s811/TI_Stellaris/driverlib/can.c ****     CANRegWrite(ulBase + CAN_O_CTL,
1067:/home/cuil/workspace/arm/lm3s811/TI_Stellaris/driverlib/can.c ****                 CANRegRead(ulBase + CAN_O_CTL) | ulIntFlags);
 6898              		.loc 1 1067 0
 6899 000a 7868     		ldr	r0, [r7, #4]
 6900 000c FFF7FEFF 		bl	CANRegRead
 6901 0010 0246     		mov	r2, r0
1066:/home/cuil/workspace/arm/lm3s811/TI_Stellaris/driverlib/can.c ****     CANRegWrite(ulBase + CAN_O_CTL,
 6902              		.loc 1 1066 0
 6903 0012 3B68     		ldr	r3, [r7, #0]
 6904 0014 42EA0303 		orr	r3, r2, r3
 6905 0018 7868     		ldr	r0, [r7, #4]
 6906 001a 1946     		mov	r1, r3
 6907 001c FFF7FEFF 		bl	CANRegWrite
1068:/home/cuil/workspace/arm/lm3s811/TI_Stellaris/driverlib/can.c **** }
 6908              		.loc 1 1068 0
 6909 0020 07F10807 		add	r7, r7, #8
 6910 0024 BD46     		mov	sp, r7
 6911 0026 80BD     		pop	{r7, pc}
 6912              		.cfi_endproc
 6913              	.LFE13:
 6915              		.section	.text.CANIntDisable,"ax",%progbits
 6916              		.align	2
 6917              		.global	CANIntDisable
 6918              		.thumb
 6919              		.thumb_func
 6921              	CANIntDisable:
 6922              	.LFB14:
1069:/home/cuil/workspace/arm/lm3s811/TI_Stellaris/driverlib/can.c **** 
1070:/home/cuil/workspace/arm/lm3s811/TI_Stellaris/driverlib/can.c **** //*****************************************************************************
1071:/home/cuil/workspace/arm/lm3s811/TI_Stellaris/driverlib/can.c **** //
1072:/home/cuil/workspace/arm/lm3s811/TI_Stellaris/driverlib/can.c **** //! Disables individual CAN controller interrupt sources.
1073:/home/cuil/workspace/arm/lm3s811/TI_Stellaris/driverlib/can.c **** //!
1074:/home/cuil/workspace/arm/lm3s811/TI_Stellaris/driverlib/can.c **** //! \param ulBase is the base address of the CAN controller.
1075:/home/cuil/workspace/arm/lm3s811/TI_Stellaris/driverlib/can.c **** //! \param ulIntFlags is the bit mask of the interrupt sources to be disabled.
1076:/home/cuil/workspace/arm/lm3s811/TI_Stellaris/driverlib/can.c **** //!
1077:/home/cuil/workspace/arm/lm3s811/TI_Stellaris/driverlib/can.c **** //! Disables the specified CAN controller interrupt sources.  Only enabled
1078:/home/cuil/workspace/arm/lm3s811/TI_Stellaris/driverlib/can.c **** //! interrupt sources can cause a processor interrupt.
1079:/home/cuil/workspace/arm/lm3s811/TI_Stellaris/driverlib/can.c **** //!
1080:/home/cuil/workspace/arm/lm3s811/TI_Stellaris/driverlib/can.c **** //! The \e ulIntFlags parameter has the same definition as in the
1081:/home/cuil/workspace/arm/lm3s811/TI_Stellaris/driverlib/can.c **** //! CANIntEnable() function.
1082:/home/cuil/workspace/arm/lm3s811/TI_Stellaris/driverlib/can.c **** //!
1083:/home/cuil/workspace/arm/lm3s811/TI_Stellaris/driverlib/can.c **** //! \return None.
1084:/home/cuil/workspace/arm/lm3s811/TI_Stellaris/driverlib/can.c **** //
1085:/home/cuil/workspace/arm/lm3s811/TI_Stellaris/driverlib/can.c **** //*****************************************************************************
1086:/home/cuil/workspace/arm/lm3s811/TI_Stellaris/driverlib/can.c **** void
1087:/home/cuil/workspace/arm/lm3s811/TI_Stellaris/driverlib/can.c **** CANIntDisable(unsigned long ulBase, unsigned long ulIntFlags)
1088:/home/cuil/workspace/arm/lm3s811/TI_Stellaris/driverlib/can.c **** {
 6923              		.loc 1 1088 0
 6924              		.cfi_startproc
 6925              		@ args = 0, pretend = 0, frame = 8
 6926              		@ frame_needed = 1, uses_anonymous_args = 0
 6927 0000 80B5     		push	{r7, lr}
 6928              	.LCFI42:
 6929              		.cfi_def_cfa_offset 8
 6930 0002 82B0     		sub	sp, sp, #8
 6931              	.LCFI43:
 6932              		.cfi_def_cfa_offset 16
 6933 0004 00AF     		add	r7, sp, #0
 6934              		.cfi_offset 14, -4
 6935              		.cfi_offset 7, -8
 6936              	.LCFI44:
 6937              		.cfi_def_cfa_register 7
 6938 0006 7860     		str	r0, [r7, #4]
 6939 0008 3960     		str	r1, [r7, #0]
1089:/home/cuil/workspace/arm/lm3s811/TI_Stellaris/driverlib/can.c ****     //
1090:/home/cuil/workspace/arm/lm3s811/TI_Stellaris/driverlib/can.c ****     // Check the arguments.
1091:/home/cuil/workspace/arm/lm3s811/TI_Stellaris/driverlib/can.c ****     //
1092:/home/cuil/workspace/arm/lm3s811/TI_Stellaris/driverlib/can.c ****     ASSERT(CANBaseValid(ulBase));
1093:/home/cuil/workspace/arm/lm3s811/TI_Stellaris/driverlib/can.c ****     ASSERT((ulIntFlags & ~(CAN_CTL_EIE | CAN_CTL_SIE | CAN_CTL_IE)) == 0);
1094:/home/cuil/workspace/arm/lm3s811/TI_Stellaris/driverlib/can.c **** 
1095:/home/cuil/workspace/arm/lm3s811/TI_Stellaris/driverlib/can.c ****     //
1096:/home/cuil/workspace/arm/lm3s811/TI_Stellaris/driverlib/can.c ****     // Disable the specified interrupts.
1097:/home/cuil/workspace/arm/lm3s811/TI_Stellaris/driverlib/can.c ****     //
1098:/home/cuil/workspace/arm/lm3s811/TI_Stellaris/driverlib/can.c ****     CANRegWrite(ulBase + CAN_O_CTL,
1099:/home/cuil/workspace/arm/lm3s811/TI_Stellaris/driverlib/can.c ****                 CANRegRead(ulBase + CAN_O_CTL) & ~(ulIntFlags));
 6940              		.loc 1 1099 0
 6941 000a 7868     		ldr	r0, [r7, #4]
 6942 000c FFF7FEFF 		bl	CANRegRead
 6943 0010 0246     		mov	r2, r0
 6944 0012 3B68     		ldr	r3, [r7, #0]
 6945 0014 6FEA0303 		mvn	r3, r3
1098:/home/cuil/workspace/arm/lm3s811/TI_Stellaris/driverlib/can.c ****     CANRegWrite(ulBase + CAN_O_CTL,
 6946              		.loc 1 1098 0
 6947 0018 02EA0303 		and	r3, r2, r3
 6948 001c 7868     		ldr	r0, [r7, #4]
 6949 001e 1946     		mov	r1, r3
 6950 0020 FFF7FEFF 		bl	CANRegWrite
1100:/home/cuil/workspace/arm/lm3s811/TI_Stellaris/driverlib/can.c **** }
 6951              		.loc 1 1100 0
 6952 0024 07F10807 		add	r7, r7, #8
 6953 0028 BD46     		mov	sp, r7
 6954 002a 80BD     		pop	{r7, pc}
 6955              		.cfi_endproc
 6956              	.LFE14:
 6958              		.section	.text.CANIntStatus,"ax",%progbits
 6959              		.align	2
 6960              		.global	CANIntStatus
 6961              		.thumb
 6962              		.thumb_func
 6964              	CANIntStatus:
 6965              	.LFB15:
1101:/home/cuil/workspace/arm/lm3s811/TI_Stellaris/driverlib/can.c **** 
1102:/home/cuil/workspace/arm/lm3s811/TI_Stellaris/driverlib/can.c **** //*****************************************************************************
1103:/home/cuil/workspace/arm/lm3s811/TI_Stellaris/driverlib/can.c **** //
1104:/home/cuil/workspace/arm/lm3s811/TI_Stellaris/driverlib/can.c **** //! Returns the current CAN controller interrupt status.
1105:/home/cuil/workspace/arm/lm3s811/TI_Stellaris/driverlib/can.c **** //!
1106:/home/cuil/workspace/arm/lm3s811/TI_Stellaris/driverlib/can.c **** //! \param ulBase is the base address of the CAN controller.
1107:/home/cuil/workspace/arm/lm3s811/TI_Stellaris/driverlib/can.c **** //! \param eIntStsReg indicates which interrupt status register to read
1108:/home/cuil/workspace/arm/lm3s811/TI_Stellaris/driverlib/can.c **** //!
1109:/home/cuil/workspace/arm/lm3s811/TI_Stellaris/driverlib/can.c **** //! This function returns the value of one of two interrupt status registers.  
1110:/home/cuil/workspace/arm/lm3s811/TI_Stellaris/driverlib/can.c **** //! The interrupt status register read is determined by the \e eIntStsReg 
1111:/home/cuil/workspace/arm/lm3s811/TI_Stellaris/driverlib/can.c **** //! parameter, which can have one of the following values:
1112:/home/cuil/workspace/arm/lm3s811/TI_Stellaris/driverlib/can.c **** //!
1113:/home/cuil/workspace/arm/lm3s811/TI_Stellaris/driverlib/can.c **** //! - \b CAN_INT_STS_CAUSE - indicates the cause of the interrupt
1114:/home/cuil/workspace/arm/lm3s811/TI_Stellaris/driverlib/can.c **** //! - \b CAN_INT_STS_OBJECT - indicates pending interrupts of all message
1115:/home/cuil/workspace/arm/lm3s811/TI_Stellaris/driverlib/can.c **** //! objects
1116:/home/cuil/workspace/arm/lm3s811/TI_Stellaris/driverlib/can.c **** //!
1117:/home/cuil/workspace/arm/lm3s811/TI_Stellaris/driverlib/can.c **** //! \b CAN_INT_STS_CAUSE returns the value of the controller interrupt register
1118:/home/cuil/workspace/arm/lm3s811/TI_Stellaris/driverlib/can.c **** //! and indicates the cause of the interrupt. The value returned is
1119:/home/cuil/workspace/arm/lm3s811/TI_Stellaris/driverlib/can.c **** //! \b CAN_INT_INTID_STATUS if the cause is a status interrupt.  In this case,
1120:/home/cuil/workspace/arm/lm3s811/TI_Stellaris/driverlib/can.c **** //! the status register should be read with the CANStatusGet() function.
1121:/home/cuil/workspace/arm/lm3s811/TI_Stellaris/driverlib/can.c **** //! Calling this function to read the status also clears the status
1122:/home/cuil/workspace/arm/lm3s811/TI_Stellaris/driverlib/can.c **** //! interrupt.  If the value of the interrupt register is in the range 1-32,
1123:/home/cuil/workspace/arm/lm3s811/TI_Stellaris/driverlib/can.c **** //! then this indicates the number of the highest priority message object that
1124:/home/cuil/workspace/arm/lm3s811/TI_Stellaris/driverlib/can.c **** //! has an interrupt pending.  The message object interrupt can be cleared by
1125:/home/cuil/workspace/arm/lm3s811/TI_Stellaris/driverlib/can.c **** //! using the CANIntClear() function, or by reading the message using
1126:/home/cuil/workspace/arm/lm3s811/TI_Stellaris/driverlib/can.c **** //! CANMessageGet() in the case of a received message.  The interrupt handler
1127:/home/cuil/workspace/arm/lm3s811/TI_Stellaris/driverlib/can.c **** //! can read the interrupt status again to make sure all pending interrupts are
1128:/home/cuil/workspace/arm/lm3s811/TI_Stellaris/driverlib/can.c **** //! cleared before returning from the interrupt.
1129:/home/cuil/workspace/arm/lm3s811/TI_Stellaris/driverlib/can.c **** //!
1130:/home/cuil/workspace/arm/lm3s811/TI_Stellaris/driverlib/can.c **** //! \b CAN_INT_STS_OBJECT returns a bit mask indicating which message objects
1131:/home/cuil/workspace/arm/lm3s811/TI_Stellaris/driverlib/can.c **** //! have pending interrupts.  This value can be used to discover all of the 
1132:/home/cuil/workspace/arm/lm3s811/TI_Stellaris/driverlib/can.c **** //! pending interrupts at once, as opposed to repeatedly reading the interrupt 
1133:/home/cuil/workspace/arm/lm3s811/TI_Stellaris/driverlib/can.c **** //! register by using \b CAN_INT_STS_CAUSE.
1134:/home/cuil/workspace/arm/lm3s811/TI_Stellaris/driverlib/can.c **** //!
1135:/home/cuil/workspace/arm/lm3s811/TI_Stellaris/driverlib/can.c **** //! \return Returns the value of one of the interrupt status registers.
1136:/home/cuil/workspace/arm/lm3s811/TI_Stellaris/driverlib/can.c **** //
1137:/home/cuil/workspace/arm/lm3s811/TI_Stellaris/driverlib/can.c **** //*****************************************************************************
1138:/home/cuil/workspace/arm/lm3s811/TI_Stellaris/driverlib/can.c **** unsigned long
1139:/home/cuil/workspace/arm/lm3s811/TI_Stellaris/driverlib/can.c **** CANIntStatus(unsigned long ulBase, tCANIntStsReg eIntStsReg)
1140:/home/cuil/workspace/arm/lm3s811/TI_Stellaris/driverlib/can.c **** {
 6966              		.loc 1 1140 0
 6967              		.cfi_startproc
 6968              		@ args = 0, pretend = 0, frame = 16
 6969              		@ frame_needed = 1, uses_anonymous_args = 0
 6970 0000 80B5     		push	{r7, lr}
 6971              	.LCFI45:
 6972              		.cfi_def_cfa_offset 8
 6973 0002 84B0     		sub	sp, sp, #16
 6974              	.LCFI46:
 6975              		.cfi_def_cfa_offset 24
 6976 0004 00AF     		add	r7, sp, #0
 6977              		.cfi_offset 14, -4
 6978              		.cfi_offset 7, -8
 6979              	.LCFI47:
 6980              		.cfi_def_cfa_register 7
 6981 0006 7860     		str	r0, [r7, #4]
 6982 0008 0B46     		mov	r3, r1
 6983 000a FB70     		strb	r3, [r7, #3]
1141:/home/cuil/workspace/arm/lm3s811/TI_Stellaris/driverlib/can.c ****     unsigned long ulStatus;
1142:/home/cuil/workspace/arm/lm3s811/TI_Stellaris/driverlib/can.c **** 
1143:/home/cuil/workspace/arm/lm3s811/TI_Stellaris/driverlib/can.c ****     //
1144:/home/cuil/workspace/arm/lm3s811/TI_Stellaris/driverlib/can.c ****     // Check the arguments.
1145:/home/cuil/workspace/arm/lm3s811/TI_Stellaris/driverlib/can.c ****     //
1146:/home/cuil/workspace/arm/lm3s811/TI_Stellaris/driverlib/can.c ****     ASSERT(CANBaseValid(ulBase));
1147:/home/cuil/workspace/arm/lm3s811/TI_Stellaris/driverlib/can.c **** 
1148:/home/cuil/workspace/arm/lm3s811/TI_Stellaris/driverlib/can.c ****     //
1149:/home/cuil/workspace/arm/lm3s811/TI_Stellaris/driverlib/can.c ****     // See which status the caller is looking for.
1150:/home/cuil/workspace/arm/lm3s811/TI_Stellaris/driverlib/can.c ****     //
1151:/home/cuil/workspace/arm/lm3s811/TI_Stellaris/driverlib/can.c ****     switch(eIntStsReg)
 6984              		.loc 1 1151 0
 6985 000c FB78     		ldrb	r3, [r7, #3]	@ zero_extendqisi2
 6986 000e 002B     		cmp	r3, #0
 6987 0010 02D0     		beq	.L58
 6988 0012 012B     		cmp	r3, #1
 6989 0014 08D0     		beq	.L59
 6990 0016 21E0     		b	.L61
 6991              	.L58:
1152:/home/cuil/workspace/arm/lm3s811/TI_Stellaris/driverlib/can.c ****     {
1153:/home/cuil/workspace/arm/lm3s811/TI_Stellaris/driverlib/can.c ****         //
1154:/home/cuil/workspace/arm/lm3s811/TI_Stellaris/driverlib/can.c ****         // The caller wants the global interrupt status for the CAN controller
1155:/home/cuil/workspace/arm/lm3s811/TI_Stellaris/driverlib/can.c ****         // specified by ulBase.
1156:/home/cuil/workspace/arm/lm3s811/TI_Stellaris/driverlib/can.c ****         //
1157:/home/cuil/workspace/arm/lm3s811/TI_Stellaris/driverlib/can.c ****         case CAN_INT_STS_CAUSE:
1158:/home/cuil/workspace/arm/lm3s811/TI_Stellaris/driverlib/can.c ****         {
1159:/home/cuil/workspace/arm/lm3s811/TI_Stellaris/driverlib/can.c ****             ulStatus = CANRegRead(ulBase + CAN_O_INT);
 6992              		.loc 1 1159 0
 6993 0018 7B68     		ldr	r3, [r7, #4]
 6994 001a 03F11003 		add	r3, r3, #16
 6995 001e 1846     		mov	r0, r3
 6996 0020 FFF7FEFF 		bl	CANRegRead
 6997 0024 F860     		str	r0, [r7, #12]
1160:/home/cuil/workspace/arm/lm3s811/TI_Stellaris/driverlib/can.c ****             break;
 6998              		.loc 1 1160 0
 6999 0026 1DE0     		b	.L60
 7000              	.L59:
1161:/home/cuil/workspace/arm/lm3s811/TI_Stellaris/driverlib/can.c ****         }
1162:/home/cuil/workspace/arm/lm3s811/TI_Stellaris/driverlib/can.c **** 
1163:/home/cuil/workspace/arm/lm3s811/TI_Stellaris/driverlib/can.c ****         //
1164:/home/cuil/workspace/arm/lm3s811/TI_Stellaris/driverlib/can.c ****         // The caller wants the current message status interrupt for all
1165:/home/cuil/workspace/arm/lm3s811/TI_Stellaris/driverlib/can.c ****         // messages.
1166:/home/cuil/workspace/arm/lm3s811/TI_Stellaris/driverlib/can.c ****         //
1167:/home/cuil/workspace/arm/lm3s811/TI_Stellaris/driverlib/can.c ****         case CAN_INT_STS_OBJECT:
1168:/home/cuil/workspace/arm/lm3s811/TI_Stellaris/driverlib/can.c ****         {
1169:/home/cuil/workspace/arm/lm3s811/TI_Stellaris/driverlib/can.c ****             //
1170:/home/cuil/workspace/arm/lm3s811/TI_Stellaris/driverlib/can.c ****             // Read and combine both 16 bit values into one 32bit status.
1171:/home/cuil/workspace/arm/lm3s811/TI_Stellaris/driverlib/can.c ****             //
1172:/home/cuil/workspace/arm/lm3s811/TI_Stellaris/driverlib/can.c ****             ulStatus = (CANRegRead(ulBase + CAN_O_MSG1INT) &
 7001              		.loc 1 1172 0
 7002 0028 7B68     		ldr	r3, [r7, #4]
 7003 002a 03F5A073 		add	r3, r3, #320
 7004 002e 1846     		mov	r0, r3
 7005 0030 FFF7FEFF 		bl	CANRegRead
 7006 0034 0346     		mov	r3, r0
 7007 0036 4FEA0343 		lsl	r3, r3, #16
 7008 003a 4FEA1343 		lsr	r3, r3, #16
 7009 003e FB60     		str	r3, [r7, #12]
1173:/home/cuil/workspace/arm/lm3s811/TI_Stellaris/driverlib/can.c ****                         CAN_MSG1INT_INTPND_M);
1174:/home/cuil/workspace/arm/lm3s811/TI_Stellaris/driverlib/can.c ****             ulStatus |= (CANRegRead(ulBase + CAN_O_MSG2INT) << 16);
 7010              		.loc 1 1174 0
 7011 0040 7B68     		ldr	r3, [r7, #4]
 7012 0042 03F5A273 		add	r3, r3, #324
 7013 0046 1846     		mov	r0, r3
 7014 0048 FFF7FEFF 		bl	CANRegRead
 7015 004c 0346     		mov	r3, r0
 7016 004e 4FEA0343 		lsl	r3, r3, #16
 7017 0052 FA68     		ldr	r2, [r7, #12]
 7018 0054 42EA0303 		orr	r3, r2, r3
 7019 0058 FB60     		str	r3, [r7, #12]
1175:/home/cuil/workspace/arm/lm3s811/TI_Stellaris/driverlib/can.c ****             break;
 7020              		.loc 1 1175 0
 7021 005a 03E0     		b	.L60
 7022              	.L61:
1176:/home/cuil/workspace/arm/lm3s811/TI_Stellaris/driverlib/can.c ****         }
1177:/home/cuil/workspace/arm/lm3s811/TI_Stellaris/driverlib/can.c **** 
1178:/home/cuil/workspace/arm/lm3s811/TI_Stellaris/driverlib/can.c ****         //
1179:/home/cuil/workspace/arm/lm3s811/TI_Stellaris/driverlib/can.c ****         // Request was for unknown status so just return 0.
1180:/home/cuil/workspace/arm/lm3s811/TI_Stellaris/driverlib/can.c ****         //
1181:/home/cuil/workspace/arm/lm3s811/TI_Stellaris/driverlib/can.c ****         default:
1182:/home/cuil/workspace/arm/lm3s811/TI_Stellaris/driverlib/can.c ****         {
1183:/home/cuil/workspace/arm/lm3s811/TI_Stellaris/driverlib/can.c ****             ulStatus = 0;
 7023              		.loc 1 1183 0
 7024 005c 4FF00003 		mov	r3, #0
 7025 0060 FB60     		str	r3, [r7, #12]
1184:/home/cuil/workspace/arm/lm3s811/TI_Stellaris/driverlib/can.c ****             break;
 7026              		.loc 1 1184 0
 7027 0062 00BF     		nop
 7028              	.L60:
1185:/home/cuil/workspace/arm/lm3s811/TI_Stellaris/driverlib/can.c ****         }
1186:/home/cuil/workspace/arm/lm3s811/TI_Stellaris/driverlib/can.c ****     }
1187:/home/cuil/workspace/arm/lm3s811/TI_Stellaris/driverlib/can.c **** 
1188:/home/cuil/workspace/arm/lm3s811/TI_Stellaris/driverlib/can.c ****     //
1189:/home/cuil/workspace/arm/lm3s811/TI_Stellaris/driverlib/can.c ****     // Return the interrupt status value
1190:/home/cuil/workspace/arm/lm3s811/TI_Stellaris/driverlib/can.c ****     //
1191:/home/cuil/workspace/arm/lm3s811/TI_Stellaris/driverlib/can.c ****     return(ulStatus);
 7029              		.loc 1 1191 0
 7030 0064 FB68     		ldr	r3, [r7, #12]
1192:/home/cuil/workspace/arm/lm3s811/TI_Stellaris/driverlib/can.c **** }
 7031              		.loc 1 1192 0
 7032 0066 1846     		mov	r0, r3
 7033 0068 07F11007 		add	r7, r7, #16
 7034 006c BD46     		mov	sp, r7
 7035 006e 80BD     		pop	{r7, pc}
 7036              		.cfi_endproc
 7037              	.LFE15:
 7039              		.section	.text.CANIntClear,"ax",%progbits
 7040              		.align	2
 7041              		.global	CANIntClear
 7042              		.thumb
 7043              		.thumb_func
 7045              	CANIntClear:
 7046              	.LFB16:
1193:/home/cuil/workspace/arm/lm3s811/TI_Stellaris/driverlib/can.c **** 
1194:/home/cuil/workspace/arm/lm3s811/TI_Stellaris/driverlib/can.c **** //*****************************************************************************
1195:/home/cuil/workspace/arm/lm3s811/TI_Stellaris/driverlib/can.c **** //
1196:/home/cuil/workspace/arm/lm3s811/TI_Stellaris/driverlib/can.c **** //! Clears a CAN interrupt source.
1197:/home/cuil/workspace/arm/lm3s811/TI_Stellaris/driverlib/can.c **** //!
1198:/home/cuil/workspace/arm/lm3s811/TI_Stellaris/driverlib/can.c **** //! \param ulBase is the base address of the CAN controller.
1199:/home/cuil/workspace/arm/lm3s811/TI_Stellaris/driverlib/can.c **** //! \param ulIntClr is a value indicating which interrupt source to clear.
1200:/home/cuil/workspace/arm/lm3s811/TI_Stellaris/driverlib/can.c **** //!
1201:/home/cuil/workspace/arm/lm3s811/TI_Stellaris/driverlib/can.c **** //! This function can be used to clear a specific interrupt source.  The
1202:/home/cuil/workspace/arm/lm3s811/TI_Stellaris/driverlib/can.c **** //! \e ulIntClr parameter should be one of the following values:
1203:/home/cuil/workspace/arm/lm3s811/TI_Stellaris/driverlib/can.c **** //!
1204:/home/cuil/workspace/arm/lm3s811/TI_Stellaris/driverlib/can.c **** //! - \b CAN_INT_INTID_STATUS - Clears a status interrupt.
1205:/home/cuil/workspace/arm/lm3s811/TI_Stellaris/driverlib/can.c **** //! - 1-32 - Clears the specified message object interrupt
1206:/home/cuil/workspace/arm/lm3s811/TI_Stellaris/driverlib/can.c **** //!
1207:/home/cuil/workspace/arm/lm3s811/TI_Stellaris/driverlib/can.c **** //! It is not necessary to use this function to clear an interrupt.  This
1208:/home/cuil/workspace/arm/lm3s811/TI_Stellaris/driverlib/can.c **** //! function should only be used if the application wants to clear an interrupt 
1209:/home/cuil/workspace/arm/lm3s811/TI_Stellaris/driverlib/can.c **** //! source without taking the normal interrupt action.
1210:/home/cuil/workspace/arm/lm3s811/TI_Stellaris/driverlib/can.c **** //!
1211:/home/cuil/workspace/arm/lm3s811/TI_Stellaris/driverlib/can.c **** //! Normally, the status interrupt is cleared by reading the controller status
1212:/home/cuil/workspace/arm/lm3s811/TI_Stellaris/driverlib/can.c **** //! using CANStatusGet().  A specific message object interrupt is normally
1213:/home/cuil/workspace/arm/lm3s811/TI_Stellaris/driverlib/can.c **** //! cleared by reading the message object using CANMessageGet().
1214:/home/cuil/workspace/arm/lm3s811/TI_Stellaris/driverlib/can.c **** //!
1215:/home/cuil/workspace/arm/lm3s811/TI_Stellaris/driverlib/can.c **** //! \note Because there is a write buffer in the Cortex-M processor, it may
1216:/home/cuil/workspace/arm/lm3s811/TI_Stellaris/driverlib/can.c **** //! take several clock cycles before the interrupt source is actually cleared.
1217:/home/cuil/workspace/arm/lm3s811/TI_Stellaris/driverlib/can.c **** //! Therefore, it is recommended that the interrupt source be cleared early in
1218:/home/cuil/workspace/arm/lm3s811/TI_Stellaris/driverlib/can.c **** //! the interrupt handler (as opposed to the very last action) to avoid
1219:/home/cuil/workspace/arm/lm3s811/TI_Stellaris/driverlib/can.c **** //! returning from the interrupt handler before the interrupt source is
1220:/home/cuil/workspace/arm/lm3s811/TI_Stellaris/driverlib/can.c **** //! actually cleared.  Failure to do so may result in the interrupt handler
1221:/home/cuil/workspace/arm/lm3s811/TI_Stellaris/driverlib/can.c **** //! being immediately reentered (because the interrupt controller still sees
1222:/home/cuil/workspace/arm/lm3s811/TI_Stellaris/driverlib/can.c **** //! the interrupt source asserted).
1223:/home/cuil/workspace/arm/lm3s811/TI_Stellaris/driverlib/can.c **** //!
1224:/home/cuil/workspace/arm/lm3s811/TI_Stellaris/driverlib/can.c **** //! \return None.
1225:/home/cuil/workspace/arm/lm3s811/TI_Stellaris/driverlib/can.c **** //
1226:/home/cuil/workspace/arm/lm3s811/TI_Stellaris/driverlib/can.c **** //*****************************************************************************
1227:/home/cuil/workspace/arm/lm3s811/TI_Stellaris/driverlib/can.c **** void
1228:/home/cuil/workspace/arm/lm3s811/TI_Stellaris/driverlib/can.c **** CANIntClear(unsigned long ulBase, unsigned long ulIntClr)
1229:/home/cuil/workspace/arm/lm3s811/TI_Stellaris/driverlib/can.c **** {
 7047              		.loc 1 1229 0
 7048              		.cfi_startproc
 7049              		@ args = 0, pretend = 0, frame = 8
 7050              		@ frame_needed = 1, uses_anonymous_args = 0
 7051 0000 80B5     		push	{r7, lr}
 7052              	.LCFI48:
 7053              		.cfi_def_cfa_offset 8
 7054 0002 82B0     		sub	sp, sp, #8
 7055              	.LCFI49:
 7056              		.cfi_def_cfa_offset 16
 7057 0004 00AF     		add	r7, sp, #0
 7058              		.cfi_offset 14, -4
 7059              		.cfi_offset 7, -8
 7060              	.LCFI50:
 7061              		.cfi_def_cfa_register 7
 7062 0006 7860     		str	r0, [r7, #4]
 7063 0008 3960     		str	r1, [r7, #0]
1230:/home/cuil/workspace/arm/lm3s811/TI_Stellaris/driverlib/can.c ****     //
1231:/home/cuil/workspace/arm/lm3s811/TI_Stellaris/driverlib/can.c ****     // Check the arguments.
1232:/home/cuil/workspace/arm/lm3s811/TI_Stellaris/driverlib/can.c ****     //
1233:/home/cuil/workspace/arm/lm3s811/TI_Stellaris/driverlib/can.c ****     ASSERT(CANBaseValid(ulBase));
1234:/home/cuil/workspace/arm/lm3s811/TI_Stellaris/driverlib/can.c ****     ASSERT((ulIntClr == CAN_INT_INTID_STATUS) ||
1235:/home/cuil/workspace/arm/lm3s811/TI_Stellaris/driverlib/can.c ****            ((ulIntClr>=1) && (ulIntClr <=32)));
1236:/home/cuil/workspace/arm/lm3s811/TI_Stellaris/driverlib/can.c **** 
1237:/home/cuil/workspace/arm/lm3s811/TI_Stellaris/driverlib/can.c ****     if(ulIntClr == CAN_INT_INTID_STATUS)
 7064              		.loc 1 1237 0
 7065 000a 3B68     		ldr	r3, [r7, #0]
 7066 000c B3F5004F 		cmp	r3, #32768
 7067 0010 06D1     		bne	.L67
1238:/home/cuil/workspace/arm/lm3s811/TI_Stellaris/driverlib/can.c ****     {
1239:/home/cuil/workspace/arm/lm3s811/TI_Stellaris/driverlib/can.c ****         //
1240:/home/cuil/workspace/arm/lm3s811/TI_Stellaris/driverlib/can.c ****         // Simply read and discard the status to clear the interrupt.
1241:/home/cuil/workspace/arm/lm3s811/TI_Stellaris/driverlib/can.c ****         //
1242:/home/cuil/workspace/arm/lm3s811/TI_Stellaris/driverlib/can.c ****         CANRegRead(ulBase + CAN_O_STS);
 7068              		.loc 1 1242 0
 7069 0012 7B68     		ldr	r3, [r7, #4]
 7070 0014 03F10403 		add	r3, r3, #4
 7071 0018 1846     		mov	r0, r3
 7072 001a FFF7FEFF 		bl	CANRegRead
 7073 001e 29E0     		b	.L62
 7074              	.L67:
1243:/home/cuil/workspace/arm/lm3s811/TI_Stellaris/driverlib/can.c ****     }
1244:/home/cuil/workspace/arm/lm3s811/TI_Stellaris/driverlib/can.c ****     else
1245:/home/cuil/workspace/arm/lm3s811/TI_Stellaris/driverlib/can.c ****     {
1246:/home/cuil/workspace/arm/lm3s811/TI_Stellaris/driverlib/can.c ****         //
1247:/home/cuil/workspace/arm/lm3s811/TI_Stellaris/driverlib/can.c ****         // Wait to be sure that this interface is not busy.
1248:/home/cuil/workspace/arm/lm3s811/TI_Stellaris/driverlib/can.c ****         //
1249:/home/cuil/workspace/arm/lm3s811/TI_Stellaris/driverlib/can.c ****         while(CANRegRead(ulBase + CAN_O_IF1CRQ) & CAN_IF1CRQ_BUSY)
 7075              		.loc 1 1249 0
 7076 0020 00BF     		nop
 7077              	.L65:
 7078              		.loc 1 1249 0 is_stmt 0 discriminator 1
 7079 0022 7B68     		ldr	r3, [r7, #4]
 7080 0024 03F12003 		add	r3, r3, #32
 7081 0028 1846     		mov	r0, r3
 7082 002a FFF7FEFF 		bl	CANRegRead
 7083 002e 0346     		mov	r3, r0
 7084 0030 03F40043 		and	r3, r3, #32768
 7085 0034 002B     		cmp	r3, #0
 7086 0036 F4D1     		bne	.L65
1250:/home/cuil/workspace/arm/lm3s811/TI_Stellaris/driverlib/can.c ****         {
1251:/home/cuil/workspace/arm/lm3s811/TI_Stellaris/driverlib/can.c ****         }
1252:/home/cuil/workspace/arm/lm3s811/TI_Stellaris/driverlib/can.c **** 
1253:/home/cuil/workspace/arm/lm3s811/TI_Stellaris/driverlib/can.c ****         //
1254:/home/cuil/workspace/arm/lm3s811/TI_Stellaris/driverlib/can.c ****         // Only change the interrupt pending state by setting only the
1255:/home/cuil/workspace/arm/lm3s811/TI_Stellaris/driverlib/can.c ****         // CAN_IF1CMSK_CLRINTPND bit.
1256:/home/cuil/workspace/arm/lm3s811/TI_Stellaris/driverlib/can.c ****         //
1257:/home/cuil/workspace/arm/lm3s811/TI_Stellaris/driverlib/can.c ****         CANRegWrite(ulBase + CAN_O_IF1CMSK, CAN_IF1CMSK_CLRINTPND);
 7087              		.loc 1 1257 0 is_stmt 1
 7088 0038 7B68     		ldr	r3, [r7, #4]
 7089 003a 03F12403 		add	r3, r3, #36
 7090 003e 1846     		mov	r0, r3
 7091 0040 4FF00801 		mov	r1, #8
 7092 0044 FFF7FEFF 		bl	CANRegWrite
1258:/home/cuil/workspace/arm/lm3s811/TI_Stellaris/driverlib/can.c **** 
1259:/home/cuil/workspace/arm/lm3s811/TI_Stellaris/driverlib/can.c ****         //
1260:/home/cuil/workspace/arm/lm3s811/TI_Stellaris/driverlib/can.c ****         // Send the clear pending interrupt command to the CAN controller.
1261:/home/cuil/workspace/arm/lm3s811/TI_Stellaris/driverlib/can.c ****         //
1262:/home/cuil/workspace/arm/lm3s811/TI_Stellaris/driverlib/can.c ****         CANRegWrite(ulBase + CAN_O_IF1CRQ, ulIntClr & CAN_IF1CRQ_MNUM_M);
 7093              		.loc 1 1262 0
 7094 0048 7B68     		ldr	r3, [r7, #4]
 7095 004a 03F12002 		add	r2, r3, #32
 7096 004e 3B68     		ldr	r3, [r7, #0]
 7097 0050 03F03F03 		and	r3, r3, #63
 7098 0054 1046     		mov	r0, r2
 7099 0056 1946     		mov	r1, r3
 7100 0058 FFF7FEFF 		bl	CANRegWrite
1263:/home/cuil/workspace/arm/lm3s811/TI_Stellaris/driverlib/can.c **** 
1264:/home/cuil/workspace/arm/lm3s811/TI_Stellaris/driverlib/can.c ****         //
1265:/home/cuil/workspace/arm/lm3s811/TI_Stellaris/driverlib/can.c ****         // Wait to be sure that this interface is not busy.
1266:/home/cuil/workspace/arm/lm3s811/TI_Stellaris/driverlib/can.c ****         //
1267:/home/cuil/workspace/arm/lm3s811/TI_Stellaris/driverlib/can.c ****         while(CANRegRead(ulBase + CAN_O_IF1CRQ) & CAN_IF1CRQ_BUSY)
 7101              		.loc 1 1267 0
 7102 005c 00BF     		nop
 7103              	.L66:
 7104              		.loc 1 1267 0 is_stmt 0 discriminator 1
 7105 005e 7B68     		ldr	r3, [r7, #4]
 7106 0060 03F12003 		add	r3, r3, #32
 7107 0064 1846     		mov	r0, r3
 7108 0066 FFF7FEFF 		bl	CANRegRead
 7109 006a 0346     		mov	r3, r0
 7110 006c 03F40043 		and	r3, r3, #32768
 7111 0070 002B     		cmp	r3, #0
 7112 0072 F4D1     		bne	.L66
 7113              	.L62:
1268:/home/cuil/workspace/arm/lm3s811/TI_Stellaris/driverlib/can.c ****         {
1269:/home/cuil/workspace/arm/lm3s811/TI_Stellaris/driverlib/can.c ****         }
1270:/home/cuil/workspace/arm/lm3s811/TI_Stellaris/driverlib/can.c ****     }
1271:/home/cuil/workspace/arm/lm3s811/TI_Stellaris/driverlib/can.c **** }
 7114              		.loc 1 1271 0 is_stmt 1
 7115 0074 07F10807 		add	r7, r7, #8
 7116 0078 BD46     		mov	sp, r7
 7117 007a 80BD     		pop	{r7, pc}
 7118              		.cfi_endproc
 7119              	.LFE16:
 7121              		.section	.text.CANRetrySet,"ax",%progbits
 7122              		.align	2
 7123              		.global	CANRetrySet
 7124              		.thumb
 7125              		.thumb_func
 7127              	CANRetrySet:
 7128              	.LFB17:
1272:/home/cuil/workspace/arm/lm3s811/TI_Stellaris/driverlib/can.c **** 
1273:/home/cuil/workspace/arm/lm3s811/TI_Stellaris/driverlib/can.c **** //*****************************************************************************
1274:/home/cuil/workspace/arm/lm3s811/TI_Stellaris/driverlib/can.c **** //
1275:/home/cuil/workspace/arm/lm3s811/TI_Stellaris/driverlib/can.c **** //! Sets the CAN controller automatic retransmission behavior.
1276:/home/cuil/workspace/arm/lm3s811/TI_Stellaris/driverlib/can.c **** //!
1277:/home/cuil/workspace/arm/lm3s811/TI_Stellaris/driverlib/can.c **** //! \param ulBase is the base address of the CAN controller.
1278:/home/cuil/workspace/arm/lm3s811/TI_Stellaris/driverlib/can.c **** //! \param bAutoRetry enables automatic retransmission.
1279:/home/cuil/workspace/arm/lm3s811/TI_Stellaris/driverlib/can.c **** //!
1280:/home/cuil/workspace/arm/lm3s811/TI_Stellaris/driverlib/can.c **** //! This function enables or disables automatic retransmission of messages with
1281:/home/cuil/workspace/arm/lm3s811/TI_Stellaris/driverlib/can.c **** //! detected errors.  If \e bAutoRetry is \b true, then automatic retransmission 
1282:/home/cuil/workspace/arm/lm3s811/TI_Stellaris/driverlib/can.c **** //! is enabled, otherwise it is disabled.
1283:/home/cuil/workspace/arm/lm3s811/TI_Stellaris/driverlib/can.c **** //!
1284:/home/cuil/workspace/arm/lm3s811/TI_Stellaris/driverlib/can.c **** //! \return None.
1285:/home/cuil/workspace/arm/lm3s811/TI_Stellaris/driverlib/can.c **** //
1286:/home/cuil/workspace/arm/lm3s811/TI_Stellaris/driverlib/can.c **** //*****************************************************************************
1287:/home/cuil/workspace/arm/lm3s811/TI_Stellaris/driverlib/can.c **** void
1288:/home/cuil/workspace/arm/lm3s811/TI_Stellaris/driverlib/can.c **** CANRetrySet(unsigned long ulBase, tBoolean bAutoRetry)
1289:/home/cuil/workspace/arm/lm3s811/TI_Stellaris/driverlib/can.c **** {
 7129              		.loc 1 1289 0
 7130              		.cfi_startproc
 7131              		@ args = 0, pretend = 0, frame = 16
 7132              		@ frame_needed = 1, uses_anonymous_args = 0
 7133 0000 80B5     		push	{r7, lr}
 7134              	.LCFI51:
 7135              		.cfi_def_cfa_offset 8
 7136 0002 84B0     		sub	sp, sp, #16
 7137              	.LCFI52:
 7138              		.cfi_def_cfa_offset 24
 7139 0004 00AF     		add	r7, sp, #0
 7140              		.cfi_offset 14, -4
 7141              		.cfi_offset 7, -8
 7142              	.LCFI53:
 7143              		.cfi_def_cfa_register 7
 7144 0006 7860     		str	r0, [r7, #4]
 7145 0008 0B46     		mov	r3, r1
 7146 000a FB70     		strb	r3, [r7, #3]
1290:/home/cuil/workspace/arm/lm3s811/TI_Stellaris/driverlib/can.c ****     unsigned long ulCtlReg;
1291:/home/cuil/workspace/arm/lm3s811/TI_Stellaris/driverlib/can.c **** 
1292:/home/cuil/workspace/arm/lm3s811/TI_Stellaris/driverlib/can.c ****     //
1293:/home/cuil/workspace/arm/lm3s811/TI_Stellaris/driverlib/can.c ****     // Check the arguments.
1294:/home/cuil/workspace/arm/lm3s811/TI_Stellaris/driverlib/can.c ****     //
1295:/home/cuil/workspace/arm/lm3s811/TI_Stellaris/driverlib/can.c ****     ASSERT(CANBaseValid(ulBase));
1296:/home/cuil/workspace/arm/lm3s811/TI_Stellaris/driverlib/can.c **** 
1297:/home/cuil/workspace/arm/lm3s811/TI_Stellaris/driverlib/can.c ****     ulCtlReg = CANRegRead(ulBase + CAN_O_CTL);
 7147              		.loc 1 1297 0
 7148 000c 7868     		ldr	r0, [r7, #4]
 7149 000e FFF7FEFF 		bl	CANRegRead
 7150 0012 F860     		str	r0, [r7, #12]
1298:/home/cuil/workspace/arm/lm3s811/TI_Stellaris/driverlib/can.c **** 
1299:/home/cuil/workspace/arm/lm3s811/TI_Stellaris/driverlib/can.c ****     //
1300:/home/cuil/workspace/arm/lm3s811/TI_Stellaris/driverlib/can.c ****     // Conditionally set the DAR bit to enable/disable auto-retry.
1301:/home/cuil/workspace/arm/lm3s811/TI_Stellaris/driverlib/can.c ****     //
1302:/home/cuil/workspace/arm/lm3s811/TI_Stellaris/driverlib/can.c ****     if(bAutoRetry)
 7151              		.loc 1 1302 0
 7152 0014 FB78     		ldrb	r3, [r7, #3]	@ zero_extendqisi2
 7153 0016 002B     		cmp	r3, #0
 7154 0018 04D0     		beq	.L69
1303:/home/cuil/workspace/arm/lm3s811/TI_Stellaris/driverlib/can.c ****     {
1304:/home/cuil/workspace/arm/lm3s811/TI_Stellaris/driverlib/can.c ****         //
1305:/home/cuil/workspace/arm/lm3s811/TI_Stellaris/driverlib/can.c ****         // Clearing the DAR bit tells the controller to not disable the
1306:/home/cuil/workspace/arm/lm3s811/TI_Stellaris/driverlib/can.c ****         // auto-retry of messages which were not transmitted or received
1307:/home/cuil/workspace/arm/lm3s811/TI_Stellaris/driverlib/can.c ****         // correctly.
1308:/home/cuil/workspace/arm/lm3s811/TI_Stellaris/driverlib/can.c ****         //
1309:/home/cuil/workspace/arm/lm3s811/TI_Stellaris/driverlib/can.c ****         ulCtlReg &= ~CAN_CTL_DAR;
 7155              		.loc 1 1309 0
 7156 001a FB68     		ldr	r3, [r7, #12]
 7157 001c 23F02003 		bic	r3, r3, #32
 7158 0020 FB60     		str	r3, [r7, #12]
 7159 0022 03E0     		b	.L70
 7160              	.L69:
1310:/home/cuil/workspace/arm/lm3s811/TI_Stellaris/driverlib/can.c ****     }
1311:/home/cuil/workspace/arm/lm3s811/TI_Stellaris/driverlib/can.c ****     else
1312:/home/cuil/workspace/arm/lm3s811/TI_Stellaris/driverlib/can.c ****     {
1313:/home/cuil/workspace/arm/lm3s811/TI_Stellaris/driverlib/can.c ****         //
1314:/home/cuil/workspace/arm/lm3s811/TI_Stellaris/driverlib/can.c ****         // Setting the DAR bit tells the controller to disable the auto-retry
1315:/home/cuil/workspace/arm/lm3s811/TI_Stellaris/driverlib/can.c ****         // of messages which were not transmitted or received correctly.
1316:/home/cuil/workspace/arm/lm3s811/TI_Stellaris/driverlib/can.c ****         //
1317:/home/cuil/workspace/arm/lm3s811/TI_Stellaris/driverlib/can.c ****         ulCtlReg |= CAN_CTL_DAR;
 7161              		.loc 1 1317 0
 7162 0024 FB68     		ldr	r3, [r7, #12]
 7163 0026 43F02003 		orr	r3, r3, #32
 7164 002a FB60     		str	r3, [r7, #12]
 7165              	.L70:
1318:/home/cuil/workspace/arm/lm3s811/TI_Stellaris/driverlib/can.c ****     }
1319:/home/cuil/workspace/arm/lm3s811/TI_Stellaris/driverlib/can.c **** 
1320:/home/cuil/workspace/arm/lm3s811/TI_Stellaris/driverlib/can.c ****     CANRegWrite(ulBase + CAN_O_CTL, ulCtlReg);
 7166              		.loc 1 1320 0
 7167 002c 7868     		ldr	r0, [r7, #4]
 7168 002e F968     		ldr	r1, [r7, #12]
 7169 0030 FFF7FEFF 		bl	CANRegWrite
1321:/home/cuil/workspace/arm/lm3s811/TI_Stellaris/driverlib/can.c **** }
 7170              		.loc 1 1321 0
 7171 0034 07F11007 		add	r7, r7, #16
 7172 0038 BD46     		mov	sp, r7
 7173 003a 80BD     		pop	{r7, pc}
 7174              		.cfi_endproc
 7175              	.LFE17:
 7177              		.section	.text.CANRetryGet,"ax",%progbits
 7178              		.align	2
 7179              		.global	CANRetryGet
 7180              		.thumb
 7181              		.thumb_func
 7183              	CANRetryGet:
 7184              	.LFB18:
1322:/home/cuil/workspace/arm/lm3s811/TI_Stellaris/driverlib/can.c **** 
1323:/home/cuil/workspace/arm/lm3s811/TI_Stellaris/driverlib/can.c **** //*****************************************************************************
1324:/home/cuil/workspace/arm/lm3s811/TI_Stellaris/driverlib/can.c **** //
1325:/home/cuil/workspace/arm/lm3s811/TI_Stellaris/driverlib/can.c **** //! Returns the current setting for automatic retransmission.
1326:/home/cuil/workspace/arm/lm3s811/TI_Stellaris/driverlib/can.c **** //!
1327:/home/cuil/workspace/arm/lm3s811/TI_Stellaris/driverlib/can.c **** //! \param ulBase is the base address of the CAN controller.
1328:/home/cuil/workspace/arm/lm3s811/TI_Stellaris/driverlib/can.c **** //!
1329:/home/cuil/workspace/arm/lm3s811/TI_Stellaris/driverlib/can.c **** //! This function reads the current setting for automatic retransmission in the CAN
1330:/home/cuil/workspace/arm/lm3s811/TI_Stellaris/driverlib/can.c **** //! controller and returns it to the caller.
1331:/home/cuil/workspace/arm/lm3s811/TI_Stellaris/driverlib/can.c **** //!
1332:/home/cuil/workspace/arm/lm3s811/TI_Stellaris/driverlib/can.c **** //! \return Returns \b true if automatic retransmission is enabled, \b false
1333:/home/cuil/workspace/arm/lm3s811/TI_Stellaris/driverlib/can.c **** //! otherwise.
1334:/home/cuil/workspace/arm/lm3s811/TI_Stellaris/driverlib/can.c **** //
1335:/home/cuil/workspace/arm/lm3s811/TI_Stellaris/driverlib/can.c **** //*****************************************************************************
1336:/home/cuil/workspace/arm/lm3s811/TI_Stellaris/driverlib/can.c **** tBoolean
1337:/home/cuil/workspace/arm/lm3s811/TI_Stellaris/driverlib/can.c **** CANRetryGet(unsigned long ulBase)
1338:/home/cuil/workspace/arm/lm3s811/TI_Stellaris/driverlib/can.c **** {
 7185              		.loc 1 1338 0
 7186              		.cfi_startproc
 7187              		@ args = 0, pretend = 0, frame = 8
 7188              		@ frame_needed = 1, uses_anonymous_args = 0
 7189 0000 80B5     		push	{r7, lr}
 7190              	.LCFI54:
 7191              		.cfi_def_cfa_offset 8
 7192 0002 82B0     		sub	sp, sp, #8
 7193              	.LCFI55:
 7194              		.cfi_def_cfa_offset 16
 7195 0004 00AF     		add	r7, sp, #0
 7196              		.cfi_offset 14, -4
 7197              		.cfi_offset 7, -8
 7198              	.LCFI56:
 7199              		.cfi_def_cfa_register 7
 7200 0006 7860     		str	r0, [r7, #4]
1339:/home/cuil/workspace/arm/lm3s811/TI_Stellaris/driverlib/can.c ****     //
1340:/home/cuil/workspace/arm/lm3s811/TI_Stellaris/driverlib/can.c ****     // Check the arguments.
1341:/home/cuil/workspace/arm/lm3s811/TI_Stellaris/driverlib/can.c ****     //
1342:/home/cuil/workspace/arm/lm3s811/TI_Stellaris/driverlib/can.c ****     ASSERT(CANBaseValid(ulBase));
1343:/home/cuil/workspace/arm/lm3s811/TI_Stellaris/driverlib/can.c **** 
1344:/home/cuil/workspace/arm/lm3s811/TI_Stellaris/driverlib/can.c ****     //
1345:/home/cuil/workspace/arm/lm3s811/TI_Stellaris/driverlib/can.c ****     // Read the disable automatic retry setting from the CAN controller.
1346:/home/cuil/workspace/arm/lm3s811/TI_Stellaris/driverlib/can.c ****     //
1347:/home/cuil/workspace/arm/lm3s811/TI_Stellaris/driverlib/can.c ****     if(CANRegRead(ulBase + CAN_O_CTL) & CAN_CTL_DAR)
 7201              		.loc 1 1347 0
 7202 0008 7868     		ldr	r0, [r7, #4]
 7203 000a FFF7FEFF 		bl	CANRegRead
 7204 000e 0346     		mov	r3, r0
 7205 0010 03F02003 		and	r3, r3, #32
 7206 0014 002B     		cmp	r3, #0
 7207 0016 02D0     		beq	.L72
1348:/home/cuil/workspace/arm/lm3s811/TI_Stellaris/driverlib/can.c ****     {
1349:/home/cuil/workspace/arm/lm3s811/TI_Stellaris/driverlib/can.c ****         //
1350:/home/cuil/workspace/arm/lm3s811/TI_Stellaris/driverlib/can.c ****         // Automatic data retransmission is not enabled.
1351:/home/cuil/workspace/arm/lm3s811/TI_Stellaris/driverlib/can.c ****         //
1352:/home/cuil/workspace/arm/lm3s811/TI_Stellaris/driverlib/can.c ****         return(false);
 7208              		.loc 1 1352 0
 7209 0018 4FF00003 		mov	r3, #0
 7210 001c 01E0     		b	.L73
 7211              	.L72:
1353:/home/cuil/workspace/arm/lm3s811/TI_Stellaris/driverlib/can.c ****     }
1354:/home/cuil/workspace/arm/lm3s811/TI_Stellaris/driverlib/can.c **** 
1355:/home/cuil/workspace/arm/lm3s811/TI_Stellaris/driverlib/can.c ****     //
1356:/home/cuil/workspace/arm/lm3s811/TI_Stellaris/driverlib/can.c ****     // Automatic data retransmission is enabled.
1357:/home/cuil/workspace/arm/lm3s811/TI_Stellaris/driverlib/can.c ****     //
1358:/home/cuil/workspace/arm/lm3s811/TI_Stellaris/driverlib/can.c ****     return(true);
 7212              		.loc 1 1358 0
 7213 001e 4FF00103 		mov	r3, #1
 7214              	.L73:
1359:/home/cuil/workspace/arm/lm3s811/TI_Stellaris/driverlib/can.c **** }
 7215              		.loc 1 1359 0
 7216 0022 1846     		mov	r0, r3
 7217 0024 07F10807 		add	r7, r7, #8
 7218 0028 BD46     		mov	sp, r7
 7219 002a 80BD     		pop	{r7, pc}
 7220              		.cfi_endproc
 7221              	.LFE18:
 7223              		.section	.text.CANStatusGet,"ax",%progbits
 7224              		.align	2
 7225              		.global	CANStatusGet
 7226              		.thumb
 7227              		.thumb_func
 7229              	CANStatusGet:
 7230              	.LFB19:
1360:/home/cuil/workspace/arm/lm3s811/TI_Stellaris/driverlib/can.c **** 
1361:/home/cuil/workspace/arm/lm3s811/TI_Stellaris/driverlib/can.c **** //*****************************************************************************
1362:/home/cuil/workspace/arm/lm3s811/TI_Stellaris/driverlib/can.c **** //
1363:/home/cuil/workspace/arm/lm3s811/TI_Stellaris/driverlib/can.c **** //! Reads one of the controller status registers.
1364:/home/cuil/workspace/arm/lm3s811/TI_Stellaris/driverlib/can.c **** //!
1365:/home/cuil/workspace/arm/lm3s811/TI_Stellaris/driverlib/can.c **** //! \param ulBase is the base address of the CAN controller.
1366:/home/cuil/workspace/arm/lm3s811/TI_Stellaris/driverlib/can.c **** //! \param eStatusReg is the status register to read.
1367:/home/cuil/workspace/arm/lm3s811/TI_Stellaris/driverlib/can.c **** //!
1368:/home/cuil/workspace/arm/lm3s811/TI_Stellaris/driverlib/can.c **** //! This function reads a status register of the CAN controller and returns it 
1369:/home/cuil/workspace/arm/lm3s811/TI_Stellaris/driverlib/can.c **** //! to the caller.
1370:/home/cuil/workspace/arm/lm3s811/TI_Stellaris/driverlib/can.c **** //! The different status registers are:
1371:/home/cuil/workspace/arm/lm3s811/TI_Stellaris/driverlib/can.c **** //!
1372:/home/cuil/workspace/arm/lm3s811/TI_Stellaris/driverlib/can.c **** //! - \b CAN_STS_CONTROL - the main controller status
1373:/home/cuil/workspace/arm/lm3s811/TI_Stellaris/driverlib/can.c **** //! - \b CAN_STS_TXREQUEST - bit mask of objects pending transmission
1374:/home/cuil/workspace/arm/lm3s811/TI_Stellaris/driverlib/can.c **** //! - \b CAN_STS_NEWDAT - bit mask of objects with new data
1375:/home/cuil/workspace/arm/lm3s811/TI_Stellaris/driverlib/can.c **** //! - \b CAN_STS_MSGVAL - bit mask of objects with valid configuration
1376:/home/cuil/workspace/arm/lm3s811/TI_Stellaris/driverlib/can.c **** //!
1377:/home/cuil/workspace/arm/lm3s811/TI_Stellaris/driverlib/can.c **** //! When reading the main controller status register, a pending status
1378:/home/cuil/workspace/arm/lm3s811/TI_Stellaris/driverlib/can.c **** //! interrupt is cleared.  This parameter should be used in the interrupt 
1379:/home/cuil/workspace/arm/lm3s811/TI_Stellaris/driverlib/can.c **** //! handler for the CAN controller if the cause is a status interrupt.  The 
1380:/home/cuil/workspace/arm/lm3s811/TI_Stellaris/driverlib/can.c **** //! controller status register fields are as follows:
1381:/home/cuil/workspace/arm/lm3s811/TI_Stellaris/driverlib/can.c **** //!
1382:/home/cuil/workspace/arm/lm3s811/TI_Stellaris/driverlib/can.c **** //! - \b CAN_STATUS_BUS_OFF - controller is in bus-off condition
1383:/home/cuil/workspace/arm/lm3s811/TI_Stellaris/driverlib/can.c **** //! - \b CAN_STATUS_EWARN - an error counter has reached a limit of at least 96
1384:/home/cuil/workspace/arm/lm3s811/TI_Stellaris/driverlib/can.c **** //! - \b CAN_STATUS_EPASS - CAN controller is in the error passive state
1385:/home/cuil/workspace/arm/lm3s811/TI_Stellaris/driverlib/can.c **** //! - \b CAN_STATUS_RXOK - a message was received successfully (independent of
1386:/home/cuil/workspace/arm/lm3s811/TI_Stellaris/driverlib/can.c **** //! any message filtering).
1387:/home/cuil/workspace/arm/lm3s811/TI_Stellaris/driverlib/can.c **** //! - \b CAN_STATUS_TXOK - a message was successfully transmitted
1388:/home/cuil/workspace/arm/lm3s811/TI_Stellaris/driverlib/can.c **** //! - \b CAN_STATUS_LEC_MSK - mask of last error code bits (3 bits)
1389:/home/cuil/workspace/arm/lm3s811/TI_Stellaris/driverlib/can.c **** //! - \b CAN_STATUS_LEC_NONE - no error
1390:/home/cuil/workspace/arm/lm3s811/TI_Stellaris/driverlib/can.c **** //! - \b CAN_STATUS_LEC_STUFF - stuffing error detected
1391:/home/cuil/workspace/arm/lm3s811/TI_Stellaris/driverlib/can.c **** //! - \b CAN_STATUS_LEC_FORM - a format error occurred in the fixed format part
1392:/home/cuil/workspace/arm/lm3s811/TI_Stellaris/driverlib/can.c **** //! of a message
1393:/home/cuil/workspace/arm/lm3s811/TI_Stellaris/driverlib/can.c **** //! - \b CAN_STATUS_LEC_ACK - a transmitted message was not acknowledged
1394:/home/cuil/workspace/arm/lm3s811/TI_Stellaris/driverlib/can.c **** //! - \b CAN_STATUS_LEC_BIT1 - dominant level detected when trying to send in
1395:/home/cuil/workspace/arm/lm3s811/TI_Stellaris/driverlib/can.c **** //! recessive mode
1396:/home/cuil/workspace/arm/lm3s811/TI_Stellaris/driverlib/can.c **** //! - \b CAN_STATUS_LEC_BIT0 - recessive level detected when trying to send in
1397:/home/cuil/workspace/arm/lm3s811/TI_Stellaris/driverlib/can.c **** //! dominant mode
1398:/home/cuil/workspace/arm/lm3s811/TI_Stellaris/driverlib/can.c **** //! - \b CAN_STATUS_LEC_CRC - CRC error in received message
1399:/home/cuil/workspace/arm/lm3s811/TI_Stellaris/driverlib/can.c **** //!
1400:/home/cuil/workspace/arm/lm3s811/TI_Stellaris/driverlib/can.c **** //! The remaining status registers consist of 32-bit-wide bit maps to the 
1401:/home/cuil/workspace/arm/lm3s811/TI_Stellaris/driverlib/can.c **** //! message objects. They can be used to quickly obtain information about the 
1402:/home/cuil/workspace/arm/lm3s811/TI_Stellaris/driverlib/can.c **** //! status of all the message objects without needing to query each one.  They 
1403:/home/cuil/workspace/arm/lm3s811/TI_Stellaris/driverlib/can.c **** //! contain the following information:
1404:/home/cuil/workspace/arm/lm3s811/TI_Stellaris/driverlib/can.c **** //!
1405:/home/cuil/workspace/arm/lm3s811/TI_Stellaris/driverlib/can.c **** //! - \b CAN_STS_TXREQUEST - if a message object's TXRQST bit is set, a
1406:/home/cuil/workspace/arm/lm3s811/TI_Stellaris/driverlib/can.c **** //! transmission is pending on that object.  The application can use this 
1407:/home/cuil/workspace/arm/lm3s811/TI_Stellaris/driverlib/can.c **** //! information to determine which objects are still waiting to send a 
1408:/home/cuil/workspace/arm/lm3s811/TI_Stellaris/driverlib/can.c **** //! message.
1409:/home/cuil/workspace/arm/lm3s811/TI_Stellaris/driverlib/can.c **** //! - \b CAN_STS_NEWDAT - if a message object's NEWDAT bit is set, a new
1410:/home/cuil/workspace/arm/lm3s811/TI_Stellaris/driverlib/can.c **** //! message has been received in that object, and has not yet been picked up 
1411:/home/cuil/workspace/arm/lm3s811/TI_Stellaris/driverlib/can.c **** //! by the host application
1412:/home/cuil/workspace/arm/lm3s811/TI_Stellaris/driverlib/can.c **** //! - \b CAN_STS_MSGVAL - if a message object's MSGVAL bit is set, the object
1413:/home/cuil/workspace/arm/lm3s811/TI_Stellaris/driverlib/can.c **** //! has a valid configuration programmed.  The host application can use this
1414:/home/cuil/workspace/arm/lm3s811/TI_Stellaris/driverlib/can.c **** //! information to determine which message objects are empty/unused.
1415:/home/cuil/workspace/arm/lm3s811/TI_Stellaris/driverlib/can.c **** //!
1416:/home/cuil/workspace/arm/lm3s811/TI_Stellaris/driverlib/can.c **** //! \return Returns the value of the status register.
1417:/home/cuil/workspace/arm/lm3s811/TI_Stellaris/driverlib/can.c **** //
1418:/home/cuil/workspace/arm/lm3s811/TI_Stellaris/driverlib/can.c **** //*****************************************************************************
1419:/home/cuil/workspace/arm/lm3s811/TI_Stellaris/driverlib/can.c **** unsigned long
1420:/home/cuil/workspace/arm/lm3s811/TI_Stellaris/driverlib/can.c **** CANStatusGet(unsigned long ulBase, tCANStsReg eStatusReg)
1421:/home/cuil/workspace/arm/lm3s811/TI_Stellaris/driverlib/can.c **** {
 7231              		.loc 1 1421 0
 7232              		.cfi_startproc
 7233              		@ args = 0, pretend = 0, frame = 16
 7234              		@ frame_needed = 1, uses_anonymous_args = 0
 7235 0000 80B5     		push	{r7, lr}
 7236              	.LCFI57:
 7237              		.cfi_def_cfa_offset 8
 7238 0002 84B0     		sub	sp, sp, #16
 7239              	.LCFI58:
 7240              		.cfi_def_cfa_offset 24
 7241 0004 00AF     		add	r7, sp, #0
 7242              		.cfi_offset 14, -4
 7243              		.cfi_offset 7, -8
 7244              	.LCFI59:
 7245              		.cfi_def_cfa_register 7
 7246 0006 7860     		str	r0, [r7, #4]
 7247 0008 0B46     		mov	r3, r1
 7248 000a FB70     		strb	r3, [r7, #3]
1422:/home/cuil/workspace/arm/lm3s811/TI_Stellaris/driverlib/can.c ****     unsigned long ulStatus;
1423:/home/cuil/workspace/arm/lm3s811/TI_Stellaris/driverlib/can.c **** 
1424:/home/cuil/workspace/arm/lm3s811/TI_Stellaris/driverlib/can.c ****     //
1425:/home/cuil/workspace/arm/lm3s811/TI_Stellaris/driverlib/can.c ****     // Check the arguments.
1426:/home/cuil/workspace/arm/lm3s811/TI_Stellaris/driverlib/can.c ****     //
1427:/home/cuil/workspace/arm/lm3s811/TI_Stellaris/driverlib/can.c ****     ASSERT(CANBaseValid(ulBase));
1428:/home/cuil/workspace/arm/lm3s811/TI_Stellaris/driverlib/can.c **** 
1429:/home/cuil/workspace/arm/lm3s811/TI_Stellaris/driverlib/can.c ****     switch(eStatusReg)
 7249              		.loc 1 1429 0
 7250 000c FB78     		ldrb	r3, [r7, #3]	@ zero_extendqisi2
 7251 000e 032B     		cmp	r3, #3
 7252 0010 59D8     		bhi	.L75
 7253 0012 01A2     		adr	r2, .L80
 7254 0014 52F823F0 		ldr	pc, [r2, r3, lsl #2]
 7255              		.align	2
 7256              	.L80:
 7257 0018 29000000 		.word	.L76+1
 7258 001c 49000000 		.word	.L77+1
 7259 0020 73000000 		.word	.L78+1
 7260 0024 9D000000 		.word	.L79+1
 7261              	.L76:
1430:/home/cuil/workspace/arm/lm3s811/TI_Stellaris/driverlib/can.c ****     {
1431:/home/cuil/workspace/arm/lm3s811/TI_Stellaris/driverlib/can.c ****         //
1432:/home/cuil/workspace/arm/lm3s811/TI_Stellaris/driverlib/can.c ****         // Just return the global CAN status register since that is what was
1433:/home/cuil/workspace/arm/lm3s811/TI_Stellaris/driverlib/can.c ****         // requested.
1434:/home/cuil/workspace/arm/lm3s811/TI_Stellaris/driverlib/can.c ****         //
1435:/home/cuil/workspace/arm/lm3s811/TI_Stellaris/driverlib/can.c ****         case CAN_STS_CONTROL:
1436:/home/cuil/workspace/arm/lm3s811/TI_Stellaris/driverlib/can.c ****         {
1437:/home/cuil/workspace/arm/lm3s811/TI_Stellaris/driverlib/can.c ****             ulStatus = CANRegRead(ulBase + CAN_O_STS);
 7262              		.loc 1 1437 0
 7263 0028 7B68     		ldr	r3, [r7, #4]
 7264 002a 03F10403 		add	r3, r3, #4
 7265 002e 1846     		mov	r0, r3
 7266 0030 FFF7FEFF 		bl	CANRegRead
 7267 0034 F860     		str	r0, [r7, #12]
1438:/home/cuil/workspace/arm/lm3s811/TI_Stellaris/driverlib/can.c ****             CANRegWrite(ulBase + CAN_O_STS,
 7268              		.loc 1 1438 0
 7269 0036 7B68     		ldr	r3, [r7, #4]
 7270 0038 03F10403 		add	r3, r3, #4
 7271 003c 1846     		mov	r0, r3
 7272 003e 6FF01F01 		mvn	r1, #31
 7273 0042 FFF7FEFF 		bl	CANRegWrite
1439:/home/cuil/workspace/arm/lm3s811/TI_Stellaris/driverlib/can.c ****                         ~(CAN_STS_RXOK | CAN_STS_TXOK | CAN_STS_LEC_M));
1440:/home/cuil/workspace/arm/lm3s811/TI_Stellaris/driverlib/can.c ****             break;
 7274              		.loc 1 1440 0
 7275 0046 42E0     		b	.L81
 7276              	.L77:
1441:/home/cuil/workspace/arm/lm3s811/TI_Stellaris/driverlib/can.c ****         }
1442:/home/cuil/workspace/arm/lm3s811/TI_Stellaris/driverlib/can.c **** 
1443:/home/cuil/workspace/arm/lm3s811/TI_Stellaris/driverlib/can.c ****         //
1444:/home/cuil/workspace/arm/lm3s811/TI_Stellaris/driverlib/can.c ****         // Combine the Transmit status bits into one 32bit value.
1445:/home/cuil/workspace/arm/lm3s811/TI_Stellaris/driverlib/can.c ****         //
1446:/home/cuil/workspace/arm/lm3s811/TI_Stellaris/driverlib/can.c ****         case CAN_STS_TXREQUEST:
1447:/home/cuil/workspace/arm/lm3s811/TI_Stellaris/driverlib/can.c ****         {
1448:/home/cuil/workspace/arm/lm3s811/TI_Stellaris/driverlib/can.c ****             ulStatus = CANRegRead(ulBase + CAN_O_TXRQ1);
 7277              		.loc 1 1448 0
 7278 0048 7B68     		ldr	r3, [r7, #4]
 7279 004a 03F58073 		add	r3, r3, #256
 7280 004e 1846     		mov	r0, r3
 7281 0050 FFF7FEFF 		bl	CANRegRead
 7282 0054 F860     		str	r0, [r7, #12]
1449:/home/cuil/workspace/arm/lm3s811/TI_Stellaris/driverlib/can.c ****             ulStatus |= CANRegRead(ulBase + CAN_O_TXRQ2) << 16;
 7283              		.loc 1 1449 0
 7284 0056 7B68     		ldr	r3, [r7, #4]
 7285 0058 03F58273 		add	r3, r3, #260
 7286 005c 1846     		mov	r0, r3
 7287 005e FFF7FEFF 		bl	CANRegRead
 7288 0062 0346     		mov	r3, r0
 7289 0064 4FEA0343 		lsl	r3, r3, #16
 7290 0068 FA68     		ldr	r2, [r7, #12]
 7291 006a 42EA0303 		orr	r3, r2, r3
 7292 006e FB60     		str	r3, [r7, #12]
1450:/home/cuil/workspace/arm/lm3s811/TI_Stellaris/driverlib/can.c ****             break;
 7293              		.loc 1 1450 0
 7294 0070 2DE0     		b	.L81
 7295              	.L78:
1451:/home/cuil/workspace/arm/lm3s811/TI_Stellaris/driverlib/can.c ****         }
1452:/home/cuil/workspace/arm/lm3s811/TI_Stellaris/driverlib/can.c **** 
1453:/home/cuil/workspace/arm/lm3s811/TI_Stellaris/driverlib/can.c ****         //
1454:/home/cuil/workspace/arm/lm3s811/TI_Stellaris/driverlib/can.c ****         // Combine the New Data status bits into one 32bit value.
1455:/home/cuil/workspace/arm/lm3s811/TI_Stellaris/driverlib/can.c ****         //
1456:/home/cuil/workspace/arm/lm3s811/TI_Stellaris/driverlib/can.c ****         case CAN_STS_NEWDAT:
1457:/home/cuil/workspace/arm/lm3s811/TI_Stellaris/driverlib/can.c ****         {
1458:/home/cuil/workspace/arm/lm3s811/TI_Stellaris/driverlib/can.c ****             ulStatus = CANRegRead(ulBase + CAN_O_NWDA1);
 7296              		.loc 1 1458 0
 7297 0072 7B68     		ldr	r3, [r7, #4]
 7298 0074 03F59073 		add	r3, r3, #288
 7299 0078 1846     		mov	r0, r3
 7300 007a FFF7FEFF 		bl	CANRegRead
 7301 007e F860     		str	r0, [r7, #12]
1459:/home/cuil/workspace/arm/lm3s811/TI_Stellaris/driverlib/can.c ****             ulStatus |= CANRegRead(ulBase + CAN_O_NWDA2) << 16;
 7302              		.loc 1 1459 0
 7303 0080 7B68     		ldr	r3, [r7, #4]
 7304 0082 03F59273 		add	r3, r3, #292
 7305 0086 1846     		mov	r0, r3
 7306 0088 FFF7FEFF 		bl	CANRegRead
 7307 008c 0346     		mov	r3, r0
 7308 008e 4FEA0343 		lsl	r3, r3, #16
 7309 0092 FA68     		ldr	r2, [r7, #12]
 7310 0094 42EA0303 		orr	r3, r2, r3
 7311 0098 FB60     		str	r3, [r7, #12]
1460:/home/cuil/workspace/arm/lm3s811/TI_Stellaris/driverlib/can.c ****             break;
 7312              		.loc 1 1460 0
 7313 009a 18E0     		b	.L81
 7314              	.L79:
1461:/home/cuil/workspace/arm/lm3s811/TI_Stellaris/driverlib/can.c ****         }
1462:/home/cuil/workspace/arm/lm3s811/TI_Stellaris/driverlib/can.c **** 
1463:/home/cuil/workspace/arm/lm3s811/TI_Stellaris/driverlib/can.c ****         //
1464:/home/cuil/workspace/arm/lm3s811/TI_Stellaris/driverlib/can.c ****         // Combine the Message valid status bits into one 32bit value.
1465:/home/cuil/workspace/arm/lm3s811/TI_Stellaris/driverlib/can.c ****         //
1466:/home/cuil/workspace/arm/lm3s811/TI_Stellaris/driverlib/can.c ****         case CAN_STS_MSGVAL:
1467:/home/cuil/workspace/arm/lm3s811/TI_Stellaris/driverlib/can.c ****         {
1468:/home/cuil/workspace/arm/lm3s811/TI_Stellaris/driverlib/can.c ****             ulStatus = CANRegRead(ulBase + CAN_O_MSG1VAL);
 7315              		.loc 1 1468 0
 7316 009c 7B68     		ldr	r3, [r7, #4]
 7317 009e 03F5B073 		add	r3, r3, #352
 7318 00a2 1846     		mov	r0, r3
 7319 00a4 FFF7FEFF 		bl	CANRegRead
 7320 00a8 F860     		str	r0, [r7, #12]
1469:/home/cuil/workspace/arm/lm3s811/TI_Stellaris/driverlib/can.c ****             ulStatus |= CANRegRead(ulBase + CAN_O_MSG2VAL) << 16;
 7321              		.loc 1 1469 0
 7322 00aa 7B68     		ldr	r3, [r7, #4]
 7323 00ac 03F5B273 		add	r3, r3, #356
 7324 00b0 1846     		mov	r0, r3
 7325 00b2 FFF7FEFF 		bl	CANRegRead
 7326 00b6 0346     		mov	r3, r0
 7327 00b8 4FEA0343 		lsl	r3, r3, #16
 7328 00bc FA68     		ldr	r2, [r7, #12]
 7329 00be 42EA0303 		orr	r3, r2, r3
 7330 00c2 FB60     		str	r3, [r7, #12]
1470:/home/cuil/workspace/arm/lm3s811/TI_Stellaris/driverlib/can.c ****             break;
 7331              		.loc 1 1470 0
 7332 00c4 03E0     		b	.L81
 7333              	.L75:
1471:/home/cuil/workspace/arm/lm3s811/TI_Stellaris/driverlib/can.c ****         }
1472:/home/cuil/workspace/arm/lm3s811/TI_Stellaris/driverlib/can.c **** 
1473:/home/cuil/workspace/arm/lm3s811/TI_Stellaris/driverlib/can.c ****         //
1474:/home/cuil/workspace/arm/lm3s811/TI_Stellaris/driverlib/can.c ****         // Unknown CAN status requested so return 0.
1475:/home/cuil/workspace/arm/lm3s811/TI_Stellaris/driverlib/can.c ****         //
1476:/home/cuil/workspace/arm/lm3s811/TI_Stellaris/driverlib/can.c ****         default:
1477:/home/cuil/workspace/arm/lm3s811/TI_Stellaris/driverlib/can.c ****         {
1478:/home/cuil/workspace/arm/lm3s811/TI_Stellaris/driverlib/can.c ****             ulStatus = 0;
 7334              		.loc 1 1478 0
 7335 00c6 4FF00003 		mov	r3, #0
 7336 00ca FB60     		str	r3, [r7, #12]
1479:/home/cuil/workspace/arm/lm3s811/TI_Stellaris/driverlib/can.c ****             break;
 7337              		.loc 1 1479 0
 7338 00cc 00BF     		nop
 7339              	.L81:
1480:/home/cuil/workspace/arm/lm3s811/TI_Stellaris/driverlib/can.c ****         }
1481:/home/cuil/workspace/arm/lm3s811/TI_Stellaris/driverlib/can.c ****     }
1482:/home/cuil/workspace/arm/lm3s811/TI_Stellaris/driverlib/can.c ****     return(ulStatus);
 7340              		.loc 1 1482 0
 7341 00ce FB68     		ldr	r3, [r7, #12]
1483:/home/cuil/workspace/arm/lm3s811/TI_Stellaris/driverlib/can.c **** }
 7342              		.loc 1 1483 0
 7343 00d0 1846     		mov	r0, r3
 7344 00d2 07F11007 		add	r7, r7, #16
 7345 00d6 BD46     		mov	sp, r7
 7346 00d8 80BD     		pop	{r7, pc}
 7347              		.cfi_endproc
 7348              	.LFE19:
 7350 00da 00BF     		.section	.text.CANErrCntrGet,"ax",%progbits
 7351              		.align	2
 7352              		.global	CANErrCntrGet
 7353              		.thumb
 7354              		.thumb_func
 7356              	CANErrCntrGet:
 7357              	.LFB20:
1484:/home/cuil/workspace/arm/lm3s811/TI_Stellaris/driverlib/can.c **** 
1485:/home/cuil/workspace/arm/lm3s811/TI_Stellaris/driverlib/can.c **** //*****************************************************************************
1486:/home/cuil/workspace/arm/lm3s811/TI_Stellaris/driverlib/can.c **** //
1487:/home/cuil/workspace/arm/lm3s811/TI_Stellaris/driverlib/can.c **** //! Reads the CAN controller error counter register.
1488:/home/cuil/workspace/arm/lm3s811/TI_Stellaris/driverlib/can.c **** //!
1489:/home/cuil/workspace/arm/lm3s811/TI_Stellaris/driverlib/can.c **** //! \param ulBase is the base address of the CAN controller.
1490:/home/cuil/workspace/arm/lm3s811/TI_Stellaris/driverlib/can.c **** //! \param pulRxCount is a pointer to storage for the receive error counter.
1491:/home/cuil/workspace/arm/lm3s811/TI_Stellaris/driverlib/can.c **** //! \param pulTxCount is a pointer to storage for the transmit error counter.
1492:/home/cuil/workspace/arm/lm3s811/TI_Stellaris/driverlib/can.c **** //!
1493:/home/cuil/workspace/arm/lm3s811/TI_Stellaris/driverlib/can.c **** //! This function reads the error counter register and returns the transmit and 
1494:/home/cuil/workspace/arm/lm3s811/TI_Stellaris/driverlib/can.c **** //! receive error counts to the caller along with a flag indicating if the 
1495:/home/cuil/workspace/arm/lm3s811/TI_Stellaris/driverlib/can.c **** //! controller receive counter has reached the error passive limit.  The values 
1496:/home/cuil/workspace/arm/lm3s811/TI_Stellaris/driverlib/can.c **** //! of the receive and transmit error counters are returned through the pointers
1497:/home/cuil/workspace/arm/lm3s811/TI_Stellaris/driverlib/can.c **** //! provided as parameters.
1498:/home/cuil/workspace/arm/lm3s811/TI_Stellaris/driverlib/can.c **** //!
1499:/home/cuil/workspace/arm/lm3s811/TI_Stellaris/driverlib/can.c **** //! After this call, \e *pulRxCount holds the current receive error count
1500:/home/cuil/workspace/arm/lm3s811/TI_Stellaris/driverlib/can.c **** //! and \e *pulTxCount holds the current transmit error count.
1501:/home/cuil/workspace/arm/lm3s811/TI_Stellaris/driverlib/can.c **** //!
1502:/home/cuil/workspace/arm/lm3s811/TI_Stellaris/driverlib/can.c **** //! \return Returns \b true if the receive error count has reached the error
1503:/home/cuil/workspace/arm/lm3s811/TI_Stellaris/driverlib/can.c **** //! passive limit, and \b false if the error count is below the error passive
1504:/home/cuil/workspace/arm/lm3s811/TI_Stellaris/driverlib/can.c **** //! limit.
1505:/home/cuil/workspace/arm/lm3s811/TI_Stellaris/driverlib/can.c **** //
1506:/home/cuil/workspace/arm/lm3s811/TI_Stellaris/driverlib/can.c **** //*****************************************************************************
1507:/home/cuil/workspace/arm/lm3s811/TI_Stellaris/driverlib/can.c **** tBoolean
1508:/home/cuil/workspace/arm/lm3s811/TI_Stellaris/driverlib/can.c **** CANErrCntrGet(unsigned long ulBase, unsigned long *pulRxCount,
1509:/home/cuil/workspace/arm/lm3s811/TI_Stellaris/driverlib/can.c ****               unsigned long *pulTxCount)
1510:/home/cuil/workspace/arm/lm3s811/TI_Stellaris/driverlib/can.c **** {
 7358              		.loc 1 1510 0
 7359              		.cfi_startproc
 7360              		@ args = 0, pretend = 0, frame = 24
 7361              		@ frame_needed = 1, uses_anonymous_args = 0
 7362 0000 80B5     		push	{r7, lr}
 7363              	.LCFI60:
 7364              		.cfi_def_cfa_offset 8
 7365 0002 86B0     		sub	sp, sp, #24
 7366              	.LCFI61:
 7367              		.cfi_def_cfa_offset 32
 7368 0004 00AF     		add	r7, sp, #0
 7369              		.cfi_offset 14, -4
 7370              		.cfi_offset 7, -8
 7371              	.LCFI62:
 7372              		.cfi_def_cfa_register 7
 7373 0006 F860     		str	r0, [r7, #12]
 7374 0008 B960     		str	r1, [r7, #8]
 7375 000a 7A60     		str	r2, [r7, #4]
1511:/home/cuil/workspace/arm/lm3s811/TI_Stellaris/driverlib/can.c ****     unsigned long ulCANError;
1512:/home/cuil/workspace/arm/lm3s811/TI_Stellaris/driverlib/can.c **** 
1513:/home/cuil/workspace/arm/lm3s811/TI_Stellaris/driverlib/can.c ****     //
1514:/home/cuil/workspace/arm/lm3s811/TI_Stellaris/driverlib/can.c ****     // Check the arguments.
1515:/home/cuil/workspace/arm/lm3s811/TI_Stellaris/driverlib/can.c ****     //
1516:/home/cuil/workspace/arm/lm3s811/TI_Stellaris/driverlib/can.c ****     ASSERT(CANBaseValid(ulBase));
1517:/home/cuil/workspace/arm/lm3s811/TI_Stellaris/driverlib/can.c **** 
1518:/home/cuil/workspace/arm/lm3s811/TI_Stellaris/driverlib/can.c ****     //
1519:/home/cuil/workspace/arm/lm3s811/TI_Stellaris/driverlib/can.c ****     // Read the current count of transmit/receive errors.
1520:/home/cuil/workspace/arm/lm3s811/TI_Stellaris/driverlib/can.c ****     //
1521:/home/cuil/workspace/arm/lm3s811/TI_Stellaris/driverlib/can.c ****     ulCANError = CANRegRead(ulBase + CAN_O_ERR);
 7376              		.loc 1 1521 0
 7377 000c FB68     		ldr	r3, [r7, #12]
 7378 000e 03F10803 		add	r3, r3, #8
 7379 0012 1846     		mov	r0, r3
 7380 0014 FFF7FEFF 		bl	CANRegRead
 7381 0018 7861     		str	r0, [r7, #20]
1522:/home/cuil/workspace/arm/lm3s811/TI_Stellaris/driverlib/can.c **** 
1523:/home/cuil/workspace/arm/lm3s811/TI_Stellaris/driverlib/can.c ****     //
1524:/home/cuil/workspace/arm/lm3s811/TI_Stellaris/driverlib/can.c ****     // Extract the error numbers from the register value.
1525:/home/cuil/workspace/arm/lm3s811/TI_Stellaris/driverlib/can.c ****     //
1526:/home/cuil/workspace/arm/lm3s811/TI_Stellaris/driverlib/can.c ****     *pulRxCount = (ulCANError & CAN_ERR_REC_M) >> CAN_ERR_REC_S;
 7382              		.loc 1 1526 0
 7383 001a 7B69     		ldr	r3, [r7, #20]
 7384 001c 03F4FE43 		and	r3, r3, #32512
 7385 0020 4FEA1322 		lsr	r2, r3, #8
 7386 0024 BB68     		ldr	r3, [r7, #8]
 7387 0026 1A60     		str	r2, [r3, #0]
1527:/home/cuil/workspace/arm/lm3s811/TI_Stellaris/driverlib/can.c ****     *pulTxCount = (ulCANError & CAN_ERR_TEC_M) >> CAN_ERR_TEC_S;
 7388              		.loc 1 1527 0
 7389 0028 7B69     		ldr	r3, [r7, #20]
 7390 002a 03F0FF02 		and	r2, r3, #255
 7391 002e 7B68     		ldr	r3, [r7, #4]
 7392 0030 1A60     		str	r2, [r3, #0]
1528:/home/cuil/workspace/arm/lm3s811/TI_Stellaris/driverlib/can.c **** 
1529:/home/cuil/workspace/arm/lm3s811/TI_Stellaris/driverlib/can.c ****     if(ulCANError & CAN_ERR_RP)
 7393              		.loc 1 1529 0
 7394 0032 7B69     		ldr	r3, [r7, #20]
 7395 0034 03F40043 		and	r3, r3, #32768
 7396 0038 002B     		cmp	r3, #0
 7397 003a 02D0     		beq	.L83
1530:/home/cuil/workspace/arm/lm3s811/TI_Stellaris/driverlib/can.c ****     {
1531:/home/cuil/workspace/arm/lm3s811/TI_Stellaris/driverlib/can.c ****         return(true);
 7398              		.loc 1 1531 0
 7399 003c 4FF00103 		mov	r3, #1
 7400 0040 01E0     		b	.L84
 7401              	.L83:
1532:/home/cuil/workspace/arm/lm3s811/TI_Stellaris/driverlib/can.c ****     }
1533:/home/cuil/workspace/arm/lm3s811/TI_Stellaris/driverlib/can.c ****     return(false);
 7402              		.loc 1 1533 0
 7403 0042 4FF00003 		mov	r3, #0
 7404              	.L84:
1534:/home/cuil/workspace/arm/lm3s811/TI_Stellaris/driverlib/can.c **** }
 7405              		.loc 1 1534 0
 7406 0046 1846     		mov	r0, r3
 7407 0048 07F11807 		add	r7, r7, #24
 7408 004c BD46     		mov	sp, r7
 7409 004e 80BD     		pop	{r7, pc}
 7410              		.cfi_endproc
 7411              	.LFE20:
 7413              		.section	.text.CANMessageSet,"ax",%progbits
 7414              		.align	2
 7415              		.global	CANMessageSet
 7416              		.thumb
 7417              		.thumb_func
 7419              	CANMessageSet:
 7420              	.LFB21:
1535:/home/cuil/workspace/arm/lm3s811/TI_Stellaris/driverlib/can.c **** 
1536:/home/cuil/workspace/arm/lm3s811/TI_Stellaris/driverlib/can.c **** //*****************************************************************************
1537:/home/cuil/workspace/arm/lm3s811/TI_Stellaris/driverlib/can.c **** //
1538:/home/cuil/workspace/arm/lm3s811/TI_Stellaris/driverlib/can.c **** //! Configures a message object in the CAN controller.
1539:/home/cuil/workspace/arm/lm3s811/TI_Stellaris/driverlib/can.c **** //!
1540:/home/cuil/workspace/arm/lm3s811/TI_Stellaris/driverlib/can.c **** //! \param ulBase is the base address of the CAN controller.
1541:/home/cuil/workspace/arm/lm3s811/TI_Stellaris/driverlib/can.c **** //! \param ulObjID is the object number to configure (1-32).
1542:/home/cuil/workspace/arm/lm3s811/TI_Stellaris/driverlib/can.c **** //! \param pMsgObject is a pointer to a structure containing message object
1543:/home/cuil/workspace/arm/lm3s811/TI_Stellaris/driverlib/can.c **** //! settings.
1544:/home/cuil/workspace/arm/lm3s811/TI_Stellaris/driverlib/can.c **** //! \param eMsgType indicates the type of message for this object.
1545:/home/cuil/workspace/arm/lm3s811/TI_Stellaris/driverlib/can.c **** //!
1546:/home/cuil/workspace/arm/lm3s811/TI_Stellaris/driverlib/can.c **** //! This function is used to configure any one of the 32 message objects in the
1547:/home/cuil/workspace/arm/lm3s811/TI_Stellaris/driverlib/can.c **** //! CAN controller.  A message object can be configured to be any type of CAN
1548:/home/cuil/workspace/arm/lm3s811/TI_Stellaris/driverlib/can.c **** //! message object as well as to use automatic transmission and reception. 
1549:/home/cuil/workspace/arm/lm3s811/TI_Stellaris/driverlib/can.c **** //! This call also allows the message object to be configured to generate
1550:/home/cuil/workspace/arm/lm3s811/TI_Stellaris/driverlib/can.c **** //! interrupts on completion of message receipt or transmission.  The
1551:/home/cuil/workspace/arm/lm3s811/TI_Stellaris/driverlib/can.c **** //! message object can also be configured with a filter/mask so that actions
1552:/home/cuil/workspace/arm/lm3s811/TI_Stellaris/driverlib/can.c **** //! are only taken when a message that meets certain parameters is seen on the
1553:/home/cuil/workspace/arm/lm3s811/TI_Stellaris/driverlib/can.c **** //! CAN bus.
1554:/home/cuil/workspace/arm/lm3s811/TI_Stellaris/driverlib/can.c **** //!
1555:/home/cuil/workspace/arm/lm3s811/TI_Stellaris/driverlib/can.c **** //! The \e eMsgType parameter must be one of the following values:
1556:/home/cuil/workspace/arm/lm3s811/TI_Stellaris/driverlib/can.c **** //!
1557:/home/cuil/workspace/arm/lm3s811/TI_Stellaris/driverlib/can.c **** //! - \b MSG_OBJ_TYPE_TX - CAN transmit message object.
1558:/home/cuil/workspace/arm/lm3s811/TI_Stellaris/driverlib/can.c **** //! - \b MSG_OBJ_TYPE_TX_REMOTE - CAN transmit remote request message object.
1559:/home/cuil/workspace/arm/lm3s811/TI_Stellaris/driverlib/can.c **** //! - \b MSG_OBJ_TYPE_RX - CAN receive message object.
1560:/home/cuil/workspace/arm/lm3s811/TI_Stellaris/driverlib/can.c **** //! - \b MSG_OBJ_TYPE_RX_REMOTE - CAN receive remote request message object.
1561:/home/cuil/workspace/arm/lm3s811/TI_Stellaris/driverlib/can.c **** //! - \b MSG_OBJ_TYPE_RXTX_REMOTE - CAN remote frame receive remote, then
1562:/home/cuil/workspace/arm/lm3s811/TI_Stellaris/driverlib/can.c **** //! transmit message object.
1563:/home/cuil/workspace/arm/lm3s811/TI_Stellaris/driverlib/can.c **** //!
1564:/home/cuil/workspace/arm/lm3s811/TI_Stellaris/driverlib/can.c **** //! The message object pointed to by \e pMsgObject must be populated by the
1565:/home/cuil/workspace/arm/lm3s811/TI_Stellaris/driverlib/can.c **** //! caller, as follows:
1566:/home/cuil/workspace/arm/lm3s811/TI_Stellaris/driverlib/can.c **** //!
1567:/home/cuil/workspace/arm/lm3s811/TI_Stellaris/driverlib/can.c **** //! - \e ulMsgID - contains the message ID, either 11 or 29 bits.
1568:/home/cuil/workspace/arm/lm3s811/TI_Stellaris/driverlib/can.c **** //! - \e ulMsgIDMask - mask of bits from \e ulMsgID that must match if
1569:/home/cuil/workspace/arm/lm3s811/TI_Stellaris/driverlib/can.c **** //! identifier filtering is enabled.
1570:/home/cuil/workspace/arm/lm3s811/TI_Stellaris/driverlib/can.c **** //! - \e ulFlags
1571:/home/cuil/workspace/arm/lm3s811/TI_Stellaris/driverlib/can.c **** //!   - Set \b MSG_OBJ_TX_INT_ENABLE flag to enable interrupt on transmission.
1572:/home/cuil/workspace/arm/lm3s811/TI_Stellaris/driverlib/can.c **** //!   - Set \b MSG_OBJ_RX_INT_ENABLE flag to enable interrupt on receipt.
1573:/home/cuil/workspace/arm/lm3s811/TI_Stellaris/driverlib/can.c **** //!   - Set \b MSG_OBJ_USE_ID_FILTER flag to enable filtering based on the
1574:/home/cuil/workspace/arm/lm3s811/TI_Stellaris/driverlib/can.c **** //!   identifier mask specified by \e ulMsgIDMask.
1575:/home/cuil/workspace/arm/lm3s811/TI_Stellaris/driverlib/can.c **** //! - \e ulMsgLen - the number of bytes in the message data.  This parameter 
1576:/home/cuil/workspace/arm/lm3s811/TI_Stellaris/driverlib/can.c **** //! should be non-zero even for a remote frame; it should match the expected 
1577:/home/cuil/workspace/arm/lm3s811/TI_Stellaris/driverlib/can.c **** //! bytes of data in the responding data frame.
1578:/home/cuil/workspace/arm/lm3s811/TI_Stellaris/driverlib/can.c **** //! - \e pucMsgData - points to a buffer containing up to 8 bytes of data for a
1579:/home/cuil/workspace/arm/lm3s811/TI_Stellaris/driverlib/can.c **** //! data frame.
1580:/home/cuil/workspace/arm/lm3s811/TI_Stellaris/driverlib/can.c **** //!
1581:/home/cuil/workspace/arm/lm3s811/TI_Stellaris/driverlib/can.c **** //! \b Example: To send a data frame or remote frame (in response to a remote
1582:/home/cuil/workspace/arm/lm3s811/TI_Stellaris/driverlib/can.c **** //! request), take the following steps:
1583:/home/cuil/workspace/arm/lm3s811/TI_Stellaris/driverlib/can.c **** //!
1584:/home/cuil/workspace/arm/lm3s811/TI_Stellaris/driverlib/can.c **** //! -# Set \e eMsgType to \b MSG_OBJ_TYPE_TX.
1585:/home/cuil/workspace/arm/lm3s811/TI_Stellaris/driverlib/can.c **** //! -# Set \e pMsgObject->ulMsgID to the message ID.
1586:/home/cuil/workspace/arm/lm3s811/TI_Stellaris/driverlib/can.c **** //! -# Set \e pMsgObject->ulFlags. Make sure to set \b MSG_OBJ_TX_INT_ENABLE to
1587:/home/cuil/workspace/arm/lm3s811/TI_Stellaris/driverlib/can.c **** //! allow an interrupt to be generated when the message is sent.
1588:/home/cuil/workspace/arm/lm3s811/TI_Stellaris/driverlib/can.c **** //! -# Set \e pMsgObject->ulMsgLen to the number of bytes in the data frame.
1589:/home/cuil/workspace/arm/lm3s811/TI_Stellaris/driverlib/can.c **** //! -# Set \e pMsgObject->pucMsgData to point to an array containing the bytes
1590:/home/cuil/workspace/arm/lm3s811/TI_Stellaris/driverlib/can.c **** //! to send in the message.
1591:/home/cuil/workspace/arm/lm3s811/TI_Stellaris/driverlib/can.c **** //! -# Call this function with \e ulObjID set to one of the 32 object buffers.
1592:/home/cuil/workspace/arm/lm3s811/TI_Stellaris/driverlib/can.c **** //!
1593:/home/cuil/workspace/arm/lm3s811/TI_Stellaris/driverlib/can.c **** //! \b Example: To receive a specific data frame, take the following steps:
1594:/home/cuil/workspace/arm/lm3s811/TI_Stellaris/driverlib/can.c **** //!
1595:/home/cuil/workspace/arm/lm3s811/TI_Stellaris/driverlib/can.c **** //! -# Set \e eMsgObjType to \b MSG_OBJ_TYPE_RX.
1596:/home/cuil/workspace/arm/lm3s811/TI_Stellaris/driverlib/can.c **** //! -# Set \e pMsgObject->ulMsgID to the full message ID, or a partial mask to
1597:/home/cuil/workspace/arm/lm3s811/TI_Stellaris/driverlib/can.c **** //! use partial ID matching.
1598:/home/cuil/workspace/arm/lm3s811/TI_Stellaris/driverlib/can.c **** //! -# Set \e pMsgObject->ulMsgIDMask bits that should be used for masking
1599:/home/cuil/workspace/arm/lm3s811/TI_Stellaris/driverlib/can.c **** //! during comparison.
1600:/home/cuil/workspace/arm/lm3s811/TI_Stellaris/driverlib/can.c **** //! -# Set \e pMsgObject->ulFlags as follows:
1601:/home/cuil/workspace/arm/lm3s811/TI_Stellaris/driverlib/can.c **** //!   - Set \b MSG_OBJ_RX_INT_ENABLE flag to be interrupted when the data frame
1602:/home/cuil/workspace/arm/lm3s811/TI_Stellaris/driverlib/can.c **** //!   is received.
1603:/home/cuil/workspace/arm/lm3s811/TI_Stellaris/driverlib/can.c **** //!   - Set \b MSG_OBJ_USE_ID_FILTER flag to enable identifier-based filtering.
1604:/home/cuil/workspace/arm/lm3s811/TI_Stellaris/driverlib/can.c **** //! -# Set \e pMsgObject->ulMsgLen to the number of bytes in the expected data
1605:/home/cuil/workspace/arm/lm3s811/TI_Stellaris/driverlib/can.c **** //! frame.
1606:/home/cuil/workspace/arm/lm3s811/TI_Stellaris/driverlib/can.c **** //! -# The buffer pointed to by \e pMsgObject->pucMsgData is not used by this
1607:/home/cuil/workspace/arm/lm3s811/TI_Stellaris/driverlib/can.c **** //! call as no data is present at the time of the call.
1608:/home/cuil/workspace/arm/lm3s811/TI_Stellaris/driverlib/can.c **** //! -# Call this function with \e ulObjID set to one of the 32 object buffers.
1609:/home/cuil/workspace/arm/lm3s811/TI_Stellaris/driverlib/can.c **** //!
1610:/home/cuil/workspace/arm/lm3s811/TI_Stellaris/driverlib/can.c **** //! If you specify a message object buffer that already contains a message
1611:/home/cuil/workspace/arm/lm3s811/TI_Stellaris/driverlib/can.c **** //! definition, it is overwritten.
1612:/home/cuil/workspace/arm/lm3s811/TI_Stellaris/driverlib/can.c **** //!
1613:/home/cuil/workspace/arm/lm3s811/TI_Stellaris/driverlib/can.c **** //! \return None.
1614:/home/cuil/workspace/arm/lm3s811/TI_Stellaris/driverlib/can.c **** //
1615:/home/cuil/workspace/arm/lm3s811/TI_Stellaris/driverlib/can.c **** //*****************************************************************************
1616:/home/cuil/workspace/arm/lm3s811/TI_Stellaris/driverlib/can.c **** void
1617:/home/cuil/workspace/arm/lm3s811/TI_Stellaris/driverlib/can.c **** CANMessageSet(unsigned long ulBase, unsigned long ulObjID,
1618:/home/cuil/workspace/arm/lm3s811/TI_Stellaris/driverlib/can.c ****               tCANMsgObject *pMsgObject, tMsgObjType eMsgType)
1619:/home/cuil/workspace/arm/lm3s811/TI_Stellaris/driverlib/can.c **** {
 7421              		.loc 1 1619 0
 7422              		.cfi_startproc
 7423              		@ args = 0, pretend = 0, frame = 32
 7424              		@ frame_needed = 1, uses_anonymous_args = 0
 7425 0000 80B5     		push	{r7, lr}
 7426              	.LCFI63:
 7427              		.cfi_def_cfa_offset 8
 7428 0002 88B0     		sub	sp, sp, #32
 7429              	.LCFI64:
 7430              		.cfi_def_cfa_offset 40
 7431 0004 00AF     		add	r7, sp, #0
 7432              		.cfi_offset 14, -4
 7433              		.cfi_offset 7, -8
 7434              	.LCFI65:
 7435              		.cfi_def_cfa_register 7
 7436 0006 F860     		str	r0, [r7, #12]
 7437 0008 B960     		str	r1, [r7, #8]
 7438 000a 7A60     		str	r2, [r7, #4]
 7439 000c FB70     		strb	r3, [r7, #3]
1620:/home/cuil/workspace/arm/lm3s811/TI_Stellaris/driverlib/can.c ****     unsigned short usCmdMaskReg;
1621:/home/cuil/workspace/arm/lm3s811/TI_Stellaris/driverlib/can.c ****     unsigned short usMaskReg0, usMaskReg1;
1622:/home/cuil/workspace/arm/lm3s811/TI_Stellaris/driverlib/can.c ****     unsigned short usArbReg0, usArbReg1;
1623:/home/cuil/workspace/arm/lm3s811/TI_Stellaris/driverlib/can.c ****     unsigned short usMsgCtrl;
1624:/home/cuil/workspace/arm/lm3s811/TI_Stellaris/driverlib/can.c ****     tBoolean bTransferData;
1625:/home/cuil/workspace/arm/lm3s811/TI_Stellaris/driverlib/can.c ****     tBoolean bUseExtendedID;
1626:/home/cuil/workspace/arm/lm3s811/TI_Stellaris/driverlib/can.c **** 
1627:/home/cuil/workspace/arm/lm3s811/TI_Stellaris/driverlib/can.c ****     bTransferData = 0;
 7440              		.loc 1 1627 0
 7441 000e 4FF00003 		mov	r3, #0
 7442 0012 FB74     		strb	r3, [r7, #19]
1628:/home/cuil/workspace/arm/lm3s811/TI_Stellaris/driverlib/can.c **** 
1629:/home/cuil/workspace/arm/lm3s811/TI_Stellaris/driverlib/can.c ****     //
1630:/home/cuil/workspace/arm/lm3s811/TI_Stellaris/driverlib/can.c ****     // Check the arguments.
1631:/home/cuil/workspace/arm/lm3s811/TI_Stellaris/driverlib/can.c ****     //
1632:/home/cuil/workspace/arm/lm3s811/TI_Stellaris/driverlib/can.c ****     ASSERT(CANBaseValid(ulBase));
1633:/home/cuil/workspace/arm/lm3s811/TI_Stellaris/driverlib/can.c ****     ASSERT((ulObjID <= 32) && (ulObjID != 0));
1634:/home/cuil/workspace/arm/lm3s811/TI_Stellaris/driverlib/can.c ****     ASSERT((eMsgType == MSG_OBJ_TYPE_TX) ||
1635:/home/cuil/workspace/arm/lm3s811/TI_Stellaris/driverlib/can.c ****            (eMsgType == MSG_OBJ_TYPE_TX_REMOTE) ||
1636:/home/cuil/workspace/arm/lm3s811/TI_Stellaris/driverlib/can.c ****            (eMsgType == MSG_OBJ_TYPE_RX) ||
1637:/home/cuil/workspace/arm/lm3s811/TI_Stellaris/driverlib/can.c ****            (eMsgType == MSG_OBJ_TYPE_RX_REMOTE) ||
1638:/home/cuil/workspace/arm/lm3s811/TI_Stellaris/driverlib/can.c ****            (eMsgType == MSG_OBJ_TYPE_TX_REMOTE) ||
1639:/home/cuil/workspace/arm/lm3s811/TI_Stellaris/driverlib/can.c ****            (eMsgType == MSG_OBJ_TYPE_RXTX_REMOTE));
1640:/home/cuil/workspace/arm/lm3s811/TI_Stellaris/driverlib/can.c **** 
1641:/home/cuil/workspace/arm/lm3s811/TI_Stellaris/driverlib/can.c ****     //
1642:/home/cuil/workspace/arm/lm3s811/TI_Stellaris/driverlib/can.c ****     // Wait for busy bit to clear
1643:/home/cuil/workspace/arm/lm3s811/TI_Stellaris/driverlib/can.c ****     //
1644:/home/cuil/workspace/arm/lm3s811/TI_Stellaris/driverlib/can.c ****     while(CANRegRead(ulBase + CAN_O_IF1CRQ) & CAN_IF1CRQ_BUSY)
 7443              		.loc 1 1644 0
 7444 0014 00BF     		nop
 7445              	.L86:
 7446              		.loc 1 1644 0 is_stmt 0 discriminator 1
 7447 0016 FB68     		ldr	r3, [r7, #12]
 7448 0018 03F12003 		add	r3, r3, #32
 7449 001c 1846     		mov	r0, r3
 7450 001e FFF7FEFF 		bl	CANRegRead
 7451 0022 0346     		mov	r3, r0
 7452 0024 03F40043 		and	r3, r3, #32768
 7453 0028 002B     		cmp	r3, #0
 7454 002a F4D1     		bne	.L86
1645:/home/cuil/workspace/arm/lm3s811/TI_Stellaris/driverlib/can.c ****     {
1646:/home/cuil/workspace/arm/lm3s811/TI_Stellaris/driverlib/can.c ****     }
1647:/home/cuil/workspace/arm/lm3s811/TI_Stellaris/driverlib/can.c **** 
1648:/home/cuil/workspace/arm/lm3s811/TI_Stellaris/driverlib/can.c ****     //
1649:/home/cuil/workspace/arm/lm3s811/TI_Stellaris/driverlib/can.c ****     // See if we need to use an extended identifier or not.
1650:/home/cuil/workspace/arm/lm3s811/TI_Stellaris/driverlib/can.c ****     //
1651:/home/cuil/workspace/arm/lm3s811/TI_Stellaris/driverlib/can.c ****     if((pMsgObject->ulMsgID > CAN_MAX_11BIT_MSG_ID) ||
 7455              		.loc 1 1651 0 is_stmt 1
 7456 002c 7B68     		ldr	r3, [r7, #4]
 7457 002e 1A68     		ldr	r2, [r3, #0]
 7458 0030 40F2FF73 		movw	r3, #2047
 7459 0034 9A42     		cmp	r2, r3
 7460 0036 05D8     		bhi	.L87
1652:/home/cuil/workspace/arm/lm3s811/TI_Stellaris/driverlib/can.c ****        (pMsgObject->ulFlags & MSG_OBJ_EXTENDED_ID))
 7461              		.loc 1 1652 0 discriminator 1
 7462 0038 7B68     		ldr	r3, [r7, #4]
 7463 003a 9B68     		ldr	r3, [r3, #8]
 7464 003c 03F00403 		and	r3, r3, #4
1651:/home/cuil/workspace/arm/lm3s811/TI_Stellaris/driverlib/can.c ****     if((pMsgObject->ulMsgID > CAN_MAX_11BIT_MSG_ID) ||
 7465              		.loc 1 1651 0 discriminator 1
 7466 0040 002B     		cmp	r3, #0
 7467 0042 03D0     		beq	.L88
 7468              	.L87:
1653:/home/cuil/workspace/arm/lm3s811/TI_Stellaris/driverlib/can.c ****     {
1654:/home/cuil/workspace/arm/lm3s811/TI_Stellaris/driverlib/can.c ****         bUseExtendedID = 1;
 7469              		.loc 1 1654 0
 7470 0044 4FF00103 		mov	r3, #1
 7471 0048 BB74     		strb	r3, [r7, #18]
 7472 004a 02E0     		b	.L89
 7473              	.L88:
1655:/home/cuil/workspace/arm/lm3s811/TI_Stellaris/driverlib/can.c ****     }
1656:/home/cuil/workspace/arm/lm3s811/TI_Stellaris/driverlib/can.c ****     else
1657:/home/cuil/workspace/arm/lm3s811/TI_Stellaris/driverlib/can.c ****     {
1658:/home/cuil/workspace/arm/lm3s811/TI_Stellaris/driverlib/can.c ****         bUseExtendedID = 0;
 7474              		.loc 1 1658 0
 7475 004c 4FF00003 		mov	r3, #0
 7476 0050 BB74     		strb	r3, [r7, #18]
 7477              	.L89:
1659:/home/cuil/workspace/arm/lm3s811/TI_Stellaris/driverlib/can.c ****     }
1660:/home/cuil/workspace/arm/lm3s811/TI_Stellaris/driverlib/can.c **** 
1661:/home/cuil/workspace/arm/lm3s811/TI_Stellaris/driverlib/can.c ****     //
1662:/home/cuil/workspace/arm/lm3s811/TI_Stellaris/driverlib/can.c ****     // This is always a write to the Message object as this call is setting a
1663:/home/cuil/workspace/arm/lm3s811/TI_Stellaris/driverlib/can.c ****     // message object.  This call will also always set all size bits so it sets
1664:/home/cuil/workspace/arm/lm3s811/TI_Stellaris/driverlib/can.c ****     // both data bits.  The call will use the CONTROL register to set control
1665:/home/cuil/workspace/arm/lm3s811/TI_Stellaris/driverlib/can.c ****     // bits so this bit needs to be set as well.
1666:/home/cuil/workspace/arm/lm3s811/TI_Stellaris/driverlib/can.c ****     //
1667:/home/cuil/workspace/arm/lm3s811/TI_Stellaris/driverlib/can.c ****     usCmdMaskReg = (CAN_IF1CMSK_WRNRD | CAN_IF1CMSK_DATAA | CAN_IF1CMSK_DATAB |
 7478              		.loc 1 1667 0
 7479 0052 4FF09303 		mov	r3, #147
 7480 0056 FB83     		strh	r3, [r7, #30]	@ movhi
1668:/home/cuil/workspace/arm/lm3s811/TI_Stellaris/driverlib/can.c ****                     CAN_IF1CMSK_CONTROL);
1669:/home/cuil/workspace/arm/lm3s811/TI_Stellaris/driverlib/can.c **** 
1670:/home/cuil/workspace/arm/lm3s811/TI_Stellaris/driverlib/can.c ****     //
1671:/home/cuil/workspace/arm/lm3s811/TI_Stellaris/driverlib/can.c ****     // Initialize the values to a known state before filling them in based on
1672:/home/cuil/workspace/arm/lm3s811/TI_Stellaris/driverlib/can.c ****     // the type of message object that is being configured.
1673:/home/cuil/workspace/arm/lm3s811/TI_Stellaris/driverlib/can.c ****     //
1674:/home/cuil/workspace/arm/lm3s811/TI_Stellaris/driverlib/can.c ****     usArbReg0 = 0;
 7481              		.loc 1 1674 0
 7482 0058 4FF00003 		mov	r3, #0
 7483 005c 3B83     		strh	r3, [r7, #24]	@ movhi
1675:/home/cuil/workspace/arm/lm3s811/TI_Stellaris/driverlib/can.c ****     usArbReg1 = 0;
 7484              		.loc 1 1675 0
 7485 005e 4FF00003 		mov	r3, #0
 7486 0062 FB82     		strh	r3, [r7, #22]	@ movhi
1676:/home/cuil/workspace/arm/lm3s811/TI_Stellaris/driverlib/can.c ****     usMsgCtrl = 0;
 7487              		.loc 1 1676 0
 7488 0064 4FF00003 		mov	r3, #0
 7489 0068 BB82     		strh	r3, [r7, #20]	@ movhi
1677:/home/cuil/workspace/arm/lm3s811/TI_Stellaris/driverlib/can.c ****     usMaskReg0 = 0;
 7490              		.loc 1 1677 0
 7491 006a 4FF00003 		mov	r3, #0
 7492 006e BB83     		strh	r3, [r7, #28]	@ movhi
1678:/home/cuil/workspace/arm/lm3s811/TI_Stellaris/driverlib/can.c ****     usMaskReg1 = 0;
 7493              		.loc 1 1678 0
 7494 0070 4FF00003 		mov	r3, #0
 7495 0074 7B83     		strh	r3, [r7, #26]	@ movhi
1679:/home/cuil/workspace/arm/lm3s811/TI_Stellaris/driverlib/can.c **** 
1680:/home/cuil/workspace/arm/lm3s811/TI_Stellaris/driverlib/can.c ****     switch(eMsgType)
 7496              		.loc 1 1680 0
 7497 0076 FB78     		ldrb	r3, [r7, #3]	@ zero_extendqisi2
 7498 0078 042B     		cmp	r3, #4
 7499 007a 00F23481 		bhi	.L110
 7500 007e 01A2     		adr	r2, .L96
 7501 0080 52F823F0 		ldr	pc, [r2, r3, lsl #2]
 7502              		.align	2
 7503              	.L96:
 7504 0084 99000000 		.word	.L91+1
 7505 0088 AF000000 		.word	.L92+1
 7506 008c BF000000 		.word	.L93+1
 7507 0090 C7000000 		.word	.L94+1
 7508 0094 E9000000 		.word	.L95+1
 7509              	.L91:
1681:/home/cuil/workspace/arm/lm3s811/TI_Stellaris/driverlib/can.c ****     {
1682:/home/cuil/workspace/arm/lm3s811/TI_Stellaris/driverlib/can.c ****         //
1683:/home/cuil/workspace/arm/lm3s811/TI_Stellaris/driverlib/can.c ****         // Transmit message object.
1684:/home/cuil/workspace/arm/lm3s811/TI_Stellaris/driverlib/can.c ****         //
1685:/home/cuil/workspace/arm/lm3s811/TI_Stellaris/driverlib/can.c ****         case MSG_OBJ_TYPE_TX:
1686:/home/cuil/workspace/arm/lm3s811/TI_Stellaris/driverlib/can.c ****         {
1687:/home/cuil/workspace/arm/lm3s811/TI_Stellaris/driverlib/can.c ****             //
1688:/home/cuil/workspace/arm/lm3s811/TI_Stellaris/driverlib/can.c ****             // Set the TXRQST bit and the reset the rest of the register.
1689:/home/cuil/workspace/arm/lm3s811/TI_Stellaris/driverlib/can.c ****             //
1690:/home/cuil/workspace/arm/lm3s811/TI_Stellaris/driverlib/can.c ****             usMsgCtrl |= CAN_IF1MCTL_TXRQST;
 7510              		.loc 1 1690 0
 7511 0098 BB8A     		ldrh	r3, [r7, #20]	@ movhi
 7512 009a 43F48073 		orr	r3, r3, #256
 7513 009e BB82     		strh	r3, [r7, #20]	@ movhi
1691:/home/cuil/workspace/arm/lm3s811/TI_Stellaris/driverlib/can.c ****             usArbReg1 = CAN_IF1ARB2_DIR;
 7514              		.loc 1 1691 0
 7515 00a0 4FF40053 		mov	r3, #8192
 7516 00a4 FB82     		strh	r3, [r7, #22]	@ movhi
1692:/home/cuil/workspace/arm/lm3s811/TI_Stellaris/driverlib/can.c ****             bTransferData = 1;
 7517              		.loc 1 1692 0
 7518 00a6 4FF00103 		mov	r3, #1
 7519 00aa FB74     		strb	r3, [r7, #19]
1693:/home/cuil/workspace/arm/lm3s811/TI_Stellaris/driverlib/can.c ****             break;
 7520              		.loc 1 1693 0
 7521 00ac 26E0     		b	.L97
 7522              	.L92:
1694:/home/cuil/workspace/arm/lm3s811/TI_Stellaris/driverlib/can.c ****         }
1695:/home/cuil/workspace/arm/lm3s811/TI_Stellaris/driverlib/can.c **** 
1696:/home/cuil/workspace/arm/lm3s811/TI_Stellaris/driverlib/can.c ****         //
1697:/home/cuil/workspace/arm/lm3s811/TI_Stellaris/driverlib/can.c ****         // Transmit remote request message object
1698:/home/cuil/workspace/arm/lm3s811/TI_Stellaris/driverlib/can.c ****         //
1699:/home/cuil/workspace/arm/lm3s811/TI_Stellaris/driverlib/can.c ****         case MSG_OBJ_TYPE_TX_REMOTE:
1700:/home/cuil/workspace/arm/lm3s811/TI_Stellaris/driverlib/can.c ****         {
1701:/home/cuil/workspace/arm/lm3s811/TI_Stellaris/driverlib/can.c ****             //
1702:/home/cuil/workspace/arm/lm3s811/TI_Stellaris/driverlib/can.c ****             // Set the TXRQST bit and the reset the rest of the register.
1703:/home/cuil/workspace/arm/lm3s811/TI_Stellaris/driverlib/can.c ****             //
1704:/home/cuil/workspace/arm/lm3s811/TI_Stellaris/driverlib/can.c ****             usMsgCtrl |= CAN_IF1MCTL_TXRQST;
 7523              		.loc 1 1704 0
 7524 00ae BB8A     		ldrh	r3, [r7, #20]	@ movhi
 7525 00b0 43F48073 		orr	r3, r3, #256
 7526 00b4 BB82     		strh	r3, [r7, #20]	@ movhi
1705:/home/cuil/workspace/arm/lm3s811/TI_Stellaris/driverlib/can.c ****             usArbReg1 = 0;
 7527              		.loc 1 1705 0
 7528 00b6 4FF00003 		mov	r3, #0
 7529 00ba FB82     		strh	r3, [r7, #22]	@ movhi
1706:/home/cuil/workspace/arm/lm3s811/TI_Stellaris/driverlib/can.c ****             break;
 7530              		.loc 1 1706 0
 7531 00bc 1EE0     		b	.L97
 7532              	.L93:
1707:/home/cuil/workspace/arm/lm3s811/TI_Stellaris/driverlib/can.c ****         }
1708:/home/cuil/workspace/arm/lm3s811/TI_Stellaris/driverlib/can.c **** 
1709:/home/cuil/workspace/arm/lm3s811/TI_Stellaris/driverlib/can.c ****         //
1710:/home/cuil/workspace/arm/lm3s811/TI_Stellaris/driverlib/can.c ****         // Receive message object.
1711:/home/cuil/workspace/arm/lm3s811/TI_Stellaris/driverlib/can.c ****         //
1712:/home/cuil/workspace/arm/lm3s811/TI_Stellaris/driverlib/can.c ****         case MSG_OBJ_TYPE_RX:
1713:/home/cuil/workspace/arm/lm3s811/TI_Stellaris/driverlib/can.c ****         {
1714:/home/cuil/workspace/arm/lm3s811/TI_Stellaris/driverlib/can.c ****             //
1715:/home/cuil/workspace/arm/lm3s811/TI_Stellaris/driverlib/can.c ****             // This clears the DIR bit along with everything else.  The TXRQST
1716:/home/cuil/workspace/arm/lm3s811/TI_Stellaris/driverlib/can.c ****             // bit was cleared by defaulting usMsgCtrl to 0.
1717:/home/cuil/workspace/arm/lm3s811/TI_Stellaris/driverlib/can.c ****             //
1718:/home/cuil/workspace/arm/lm3s811/TI_Stellaris/driverlib/can.c ****             usArbReg1 = 0;
 7533              		.loc 1 1718 0
 7534 00be 4FF00003 		mov	r3, #0
 7535 00c2 FB82     		strh	r3, [r7, #22]	@ movhi
1719:/home/cuil/workspace/arm/lm3s811/TI_Stellaris/driverlib/can.c ****             break;
 7536              		.loc 1 1719 0
 7537 00c4 1AE0     		b	.L97
 7538              	.L94:
1720:/home/cuil/workspace/arm/lm3s811/TI_Stellaris/driverlib/can.c ****         }
1721:/home/cuil/workspace/arm/lm3s811/TI_Stellaris/driverlib/can.c **** 
1722:/home/cuil/workspace/arm/lm3s811/TI_Stellaris/driverlib/can.c ****         //
1723:/home/cuil/workspace/arm/lm3s811/TI_Stellaris/driverlib/can.c ****         // Receive remote request message object.
1724:/home/cuil/workspace/arm/lm3s811/TI_Stellaris/driverlib/can.c ****         //
1725:/home/cuil/workspace/arm/lm3s811/TI_Stellaris/driverlib/can.c ****         case MSG_OBJ_TYPE_RX_REMOTE:
1726:/home/cuil/workspace/arm/lm3s811/TI_Stellaris/driverlib/can.c ****         {
1727:/home/cuil/workspace/arm/lm3s811/TI_Stellaris/driverlib/can.c ****             //
1728:/home/cuil/workspace/arm/lm3s811/TI_Stellaris/driverlib/can.c ****             // The DIR bit is set to one for remote receivers.  The TXRQST bit
1729:/home/cuil/workspace/arm/lm3s811/TI_Stellaris/driverlib/can.c ****             // was cleared by defaulting usMsgCtrl to 0.
1730:/home/cuil/workspace/arm/lm3s811/TI_Stellaris/driverlib/can.c ****             //
1731:/home/cuil/workspace/arm/lm3s811/TI_Stellaris/driverlib/can.c ****             usArbReg1 = CAN_IF1ARB2_DIR;
 7539              		.loc 1 1731 0
 7540 00c6 4FF40053 		mov	r3, #8192
 7541 00ca FB82     		strh	r3, [r7, #22]	@ movhi
1732:/home/cuil/workspace/arm/lm3s811/TI_Stellaris/driverlib/can.c **** 
1733:/home/cuil/workspace/arm/lm3s811/TI_Stellaris/driverlib/can.c ****             //
1734:/home/cuil/workspace/arm/lm3s811/TI_Stellaris/driverlib/can.c ****             // Set this object so that it only indicates that a remote frame
1735:/home/cuil/workspace/arm/lm3s811/TI_Stellaris/driverlib/can.c ****             // was received and allow for software to handle it by sending back
1736:/home/cuil/workspace/arm/lm3s811/TI_Stellaris/driverlib/can.c ****             // a data frame.
1737:/home/cuil/workspace/arm/lm3s811/TI_Stellaris/driverlib/can.c ****             //
1738:/home/cuil/workspace/arm/lm3s811/TI_Stellaris/driverlib/can.c ****             usMsgCtrl = CAN_IF1MCTL_UMASK;
 7542              		.loc 1 1738 0
 7543 00cc 4FF48053 		mov	r3, #4096
 7544 00d0 BB82     		strh	r3, [r7, #20]	@ movhi
1739:/home/cuil/workspace/arm/lm3s811/TI_Stellaris/driverlib/can.c **** 
1740:/home/cuil/workspace/arm/lm3s811/TI_Stellaris/driverlib/can.c ****             //
1741:/home/cuil/workspace/arm/lm3s811/TI_Stellaris/driverlib/can.c ****             // Use the full Identifier by default.
1742:/home/cuil/workspace/arm/lm3s811/TI_Stellaris/driverlib/can.c ****             //
1743:/home/cuil/workspace/arm/lm3s811/TI_Stellaris/driverlib/can.c ****             usMaskReg0 = 0xffff;
 7545              		.loc 1 1743 0
 7546 00d2 4FF6FF73 		movw	r3, #65535
 7547 00d6 BB83     		strh	r3, [r7, #28]	@ movhi
1744:/home/cuil/workspace/arm/lm3s811/TI_Stellaris/driverlib/can.c ****             usMaskReg1 = 0x1fff;
 7548              		.loc 1 1744 0
 7549 00d8 41F6FF73 		movw	r3, #8191
 7550 00dc 7B83     		strh	r3, [r7, #26]	@ movhi
1745:/home/cuil/workspace/arm/lm3s811/TI_Stellaris/driverlib/can.c **** 
1746:/home/cuil/workspace/arm/lm3s811/TI_Stellaris/driverlib/can.c ****             //
1747:/home/cuil/workspace/arm/lm3s811/TI_Stellaris/driverlib/can.c ****             // Make sure to send the mask to the message object.
1748:/home/cuil/workspace/arm/lm3s811/TI_Stellaris/driverlib/can.c ****             //
1749:/home/cuil/workspace/arm/lm3s811/TI_Stellaris/driverlib/can.c ****             usCmdMaskReg |= CAN_IF1CMSK_MASK;
 7551              		.loc 1 1749 0
 7552 00de FB8B     		ldrh	r3, [r7, #30]	@ movhi
 7553 00e0 43F04003 		orr	r3, r3, #64
 7554 00e4 FB83     		strh	r3, [r7, #30]	@ movhi
1750:/home/cuil/workspace/arm/lm3s811/TI_Stellaris/driverlib/can.c ****             break;
 7555              		.loc 1 1750 0
 7556 00e6 09E0     		b	.L97
 7557              	.L95:
1751:/home/cuil/workspace/arm/lm3s811/TI_Stellaris/driverlib/can.c ****         }
1752:/home/cuil/workspace/arm/lm3s811/TI_Stellaris/driverlib/can.c **** 
1753:/home/cuil/workspace/arm/lm3s811/TI_Stellaris/driverlib/can.c ****         //
1754:/home/cuil/workspace/arm/lm3s811/TI_Stellaris/driverlib/can.c ****         // Remote frame receive remote, with auto-transmit message object.
1755:/home/cuil/workspace/arm/lm3s811/TI_Stellaris/driverlib/can.c ****         //
1756:/home/cuil/workspace/arm/lm3s811/TI_Stellaris/driverlib/can.c ****         case MSG_OBJ_TYPE_RXTX_REMOTE:
1757:/home/cuil/workspace/arm/lm3s811/TI_Stellaris/driverlib/can.c ****         {
