   1              		.syntax unified
   2              		.cpu cortex-m3
   3              		.fpu softvfp
   4              		.eabi_attribute 20, 1
   5              		.eabi_attribute 21, 1
   6              		.eabi_attribute 23, 3
   7              		.eabi_attribute 24, 1
   8              		.eabi_attribute 25, 1
   9              		.eabi_attribute 26, 1
  10              		.eabi_attribute 30, 6
  11              		.eabi_attribute 18, 4
  12              		.thumb
  13              		.file	"ethernet.c"
  23              	.Ltext0:
  24              		.file 1 "/home/cuil/workspace/arm/lm3s811/TI_Stellaris/driverlib/ethernet.c"
 4123              		.align	2
 4124              		.global	EthernetInitExpClk
 4125              		.thumb
 4126              		.thumb_func
 4128              	EthernetInitExpClk:
 4129              	.LFB0:
   1:/home/cuil/workspace/arm/lm3s811/TI_Stellaris/driverlib/ethernet.c **** //*****************************************************************************
   2:/home/cuil/workspace/arm/lm3s811/TI_Stellaris/driverlib/ethernet.c **** //
   3:/home/cuil/workspace/arm/lm3s811/TI_Stellaris/driverlib/ethernet.c **** // ethernet.c - Driver for the Integrated Ethernet Controller
   4:/home/cuil/workspace/arm/lm3s811/TI_Stellaris/driverlib/ethernet.c **** //
   5:/home/cuil/workspace/arm/lm3s811/TI_Stellaris/driverlib/ethernet.c **** // Copyright (c) 2006-2011 Texas Instruments Incorporated.  All rights reserved.
   6:/home/cuil/workspace/arm/lm3s811/TI_Stellaris/driverlib/ethernet.c **** // Software License Agreement
   7:/home/cuil/workspace/arm/lm3s811/TI_Stellaris/driverlib/ethernet.c **** // 
   8:/home/cuil/workspace/arm/lm3s811/TI_Stellaris/driverlib/ethernet.c **** // Texas Instruments (TI) is supplying this software for use solely and
   9:/home/cuil/workspace/arm/lm3s811/TI_Stellaris/driverlib/ethernet.c **** // exclusively on TI's microcontroller products. The software is owned by
  10:/home/cuil/workspace/arm/lm3s811/TI_Stellaris/driverlib/ethernet.c **** // TI and/or its suppliers, and is protected under applicable copyright
  11:/home/cuil/workspace/arm/lm3s811/TI_Stellaris/driverlib/ethernet.c **** // laws. You may not combine this software with "viral" open-source
  12:/home/cuil/workspace/arm/lm3s811/TI_Stellaris/driverlib/ethernet.c **** // software in order to form a larger program.
  13:/home/cuil/workspace/arm/lm3s811/TI_Stellaris/driverlib/ethernet.c **** // 
  14:/home/cuil/workspace/arm/lm3s811/TI_Stellaris/driverlib/ethernet.c **** // THIS SOFTWARE IS PROVIDED "AS IS" AND WITH ALL FAULTS.
  15:/home/cuil/workspace/arm/lm3s811/TI_Stellaris/driverlib/ethernet.c **** // NO WARRANTIES, WHETHER EXPRESS, IMPLIED OR STATUTORY, INCLUDING, BUT
  16:/home/cuil/workspace/arm/lm3s811/TI_Stellaris/driverlib/ethernet.c **** // NOT LIMITED TO, IMPLIED WARRANTIES OF MERCHANTABILITY AND FITNESS FOR
  17:/home/cuil/workspace/arm/lm3s811/TI_Stellaris/driverlib/ethernet.c **** // A PARTICULAR PURPOSE APPLY TO THIS SOFTWARE. TI SHALL NOT, UNDER ANY
  18:/home/cuil/workspace/arm/lm3s811/TI_Stellaris/driverlib/ethernet.c **** // CIRCUMSTANCES, BE LIABLE FOR SPECIAL, INCIDENTAL, OR CONSEQUENTIAL
  19:/home/cuil/workspace/arm/lm3s811/TI_Stellaris/driverlib/ethernet.c **** // DAMAGES, FOR ANY REASON WHATSOEVER.
  20:/home/cuil/workspace/arm/lm3s811/TI_Stellaris/driverlib/ethernet.c **** // 
  21:/home/cuil/workspace/arm/lm3s811/TI_Stellaris/driverlib/ethernet.c **** // This is part of revision 8264 of the Stellaris Peripheral Driver Library.
  22:/home/cuil/workspace/arm/lm3s811/TI_Stellaris/driverlib/ethernet.c **** //
  23:/home/cuil/workspace/arm/lm3s811/TI_Stellaris/driverlib/ethernet.c **** //*****************************************************************************
  24:/home/cuil/workspace/arm/lm3s811/TI_Stellaris/driverlib/ethernet.c **** 
  25:/home/cuil/workspace/arm/lm3s811/TI_Stellaris/driverlib/ethernet.c **** //*****************************************************************************
  26:/home/cuil/workspace/arm/lm3s811/TI_Stellaris/driverlib/ethernet.c **** //
  27:/home/cuil/workspace/arm/lm3s811/TI_Stellaris/driverlib/ethernet.c **** //! \addtogroup ethernet_api
  28:/home/cuil/workspace/arm/lm3s811/TI_Stellaris/driverlib/ethernet.c **** //! @{
  29:/home/cuil/workspace/arm/lm3s811/TI_Stellaris/driverlib/ethernet.c **** //
  30:/home/cuil/workspace/arm/lm3s811/TI_Stellaris/driverlib/ethernet.c **** //*****************************************************************************
  31:/home/cuil/workspace/arm/lm3s811/TI_Stellaris/driverlib/ethernet.c **** 
  32:/home/cuil/workspace/arm/lm3s811/TI_Stellaris/driverlib/ethernet.c **** #include "inc/hw_ethernet.h"
  33:/home/cuil/workspace/arm/lm3s811/TI_Stellaris/driverlib/ethernet.c **** #include "inc/hw_ints.h"
  34:/home/cuil/workspace/arm/lm3s811/TI_Stellaris/driverlib/ethernet.c **** #include "inc/hw_memmap.h"
  35:/home/cuil/workspace/arm/lm3s811/TI_Stellaris/driverlib/ethernet.c **** #include "inc/hw_types.h"
  36:/home/cuil/workspace/arm/lm3s811/TI_Stellaris/driverlib/ethernet.c **** #include "driverlib/debug.h"
  37:/home/cuil/workspace/arm/lm3s811/TI_Stellaris/driverlib/ethernet.c **** #include "driverlib/ethernet.h"
  38:/home/cuil/workspace/arm/lm3s811/TI_Stellaris/driverlib/ethernet.c **** #include "driverlib/interrupt.h"
  39:/home/cuil/workspace/arm/lm3s811/TI_Stellaris/driverlib/ethernet.c **** 
  40:/home/cuil/workspace/arm/lm3s811/TI_Stellaris/driverlib/ethernet.c **** //*****************************************************************************
  41:/home/cuil/workspace/arm/lm3s811/TI_Stellaris/driverlib/ethernet.c **** //
  42:/home/cuil/workspace/arm/lm3s811/TI_Stellaris/driverlib/ethernet.c **** //! Initializes the Ethernet controller for operation.
  43:/home/cuil/workspace/arm/lm3s811/TI_Stellaris/driverlib/ethernet.c **** //!
  44:/home/cuil/workspace/arm/lm3s811/TI_Stellaris/driverlib/ethernet.c **** //! \param ulBase is the base address of the controller.
  45:/home/cuil/workspace/arm/lm3s811/TI_Stellaris/driverlib/ethernet.c **** //! \param ulEthClk is the rate of the clock supplied to the Ethernet module.
  46:/home/cuil/workspace/arm/lm3s811/TI_Stellaris/driverlib/ethernet.c **** //!
  47:/home/cuil/workspace/arm/lm3s811/TI_Stellaris/driverlib/ethernet.c **** //! This function prepares the Ethernet controller for first-time use in
  48:/home/cuil/workspace/arm/lm3s811/TI_Stellaris/driverlib/ethernet.c **** //! a given hardware/software configuration.  This function should be called
  49:/home/cuil/workspace/arm/lm3s811/TI_Stellaris/driverlib/ethernet.c **** //! before any other Ethernet API functions are called.
  50:/home/cuil/workspace/arm/lm3s811/TI_Stellaris/driverlib/ethernet.c **** //!
  51:/home/cuil/workspace/arm/lm3s811/TI_Stellaris/driverlib/ethernet.c **** //! The peripheral clock is the same as the processor clock.  This value is
  52:/home/cuil/workspace/arm/lm3s811/TI_Stellaris/driverlib/ethernet.c **** //! returned by SysCtlClockGet(), or it can be explicitly hard-coded if it is
  53:/home/cuil/workspace/arm/lm3s811/TI_Stellaris/driverlib/ethernet.c **** //! constant and known (to save the code/execution overhead of a call to
  54:/home/cuil/workspace/arm/lm3s811/TI_Stellaris/driverlib/ethernet.c **** //! SysCtlClockGet()).
  55:/home/cuil/workspace/arm/lm3s811/TI_Stellaris/driverlib/ethernet.c **** //!
  56:/home/cuil/workspace/arm/lm3s811/TI_Stellaris/driverlib/ethernet.c **** //! This function replaces the original EthernetInit() API and performs the
  57:/home/cuil/workspace/arm/lm3s811/TI_Stellaris/driverlib/ethernet.c **** //! same actions.  A macro is provided in <tt>ethernet.h</tt> to map the
  58:/home/cuil/workspace/arm/lm3s811/TI_Stellaris/driverlib/ethernet.c **** //! original API to this API.
  59:/home/cuil/workspace/arm/lm3s811/TI_Stellaris/driverlib/ethernet.c **** //!
  60:/home/cuil/workspace/arm/lm3s811/TI_Stellaris/driverlib/ethernet.c **** //! \note If the device configuration is changed (for example, the system clock
  61:/home/cuil/workspace/arm/lm3s811/TI_Stellaris/driverlib/ethernet.c **** //! is reprogrammed to a different speed), then the Ethernet controller must be
  62:/home/cuil/workspace/arm/lm3s811/TI_Stellaris/driverlib/ethernet.c **** //! disabled by calling the EthernetDisable() function and the controller must
  63:/home/cuil/workspace/arm/lm3s811/TI_Stellaris/driverlib/ethernet.c **** //! be reinitialized by calling the EthernetInitExpClk() function again.  After
  64:/home/cuil/workspace/arm/lm3s811/TI_Stellaris/driverlib/ethernet.c **** //! the controller has been reinitialized, the controller should be
  65:/home/cuil/workspace/arm/lm3s811/TI_Stellaris/driverlib/ethernet.c **** //! reconfigured using the appropriate Ethernet API calls.
  66:/home/cuil/workspace/arm/lm3s811/TI_Stellaris/driverlib/ethernet.c **** //!
  67:/home/cuil/workspace/arm/lm3s811/TI_Stellaris/driverlib/ethernet.c **** //! \return None.
  68:/home/cuil/workspace/arm/lm3s811/TI_Stellaris/driverlib/ethernet.c **** //
  69:/home/cuil/workspace/arm/lm3s811/TI_Stellaris/driverlib/ethernet.c **** //*****************************************************************************
  70:/home/cuil/workspace/arm/lm3s811/TI_Stellaris/driverlib/ethernet.c **** void
  71:/home/cuil/workspace/arm/lm3s811/TI_Stellaris/driverlib/ethernet.c **** EthernetInitExpClk(unsigned long ulBase, unsigned long ulEthClk)
  72:/home/cuil/workspace/arm/lm3s811/TI_Stellaris/driverlib/ethernet.c **** {
 4130              		.loc 1 72 0
 4131              		.cfi_startproc
 4132              		@ args = 0, pretend = 0, frame = 16
 4133              		@ frame_needed = 1, uses_anonymous_args = 0
 4134              		@ link register save eliminated.
 4135 0000 80B4     		push	{r7}
 4136              	.LCFI0:
 4137              		.cfi_def_cfa_offset 4
 4138 0002 85B0     		sub	sp, sp, #20
 4139              	.LCFI1:
 4140              		.cfi_def_cfa_offset 24
 4141 0004 00AF     		add	r7, sp, #0
 4142              		.cfi_offset 7, -4
 4143              	.LCFI2:
 4144              		.cfi_def_cfa_register 7
 4145 0006 7860     		str	r0, [r7, #4]
 4146 0008 3960     		str	r1, [r7, #0]
  73:/home/cuil/workspace/arm/lm3s811/TI_Stellaris/driverlib/ethernet.c ****     unsigned long ulDiv;
  74:/home/cuil/workspace/arm/lm3s811/TI_Stellaris/driverlib/ethernet.c **** 
  75:/home/cuil/workspace/arm/lm3s811/TI_Stellaris/driverlib/ethernet.c ****     //
  76:/home/cuil/workspace/arm/lm3s811/TI_Stellaris/driverlib/ethernet.c ****     // Check the arguments.
  77:/home/cuil/workspace/arm/lm3s811/TI_Stellaris/driverlib/ethernet.c ****     //
  78:/home/cuil/workspace/arm/lm3s811/TI_Stellaris/driverlib/ethernet.c ****     ASSERT(ulBase == ETH_BASE);
  79:/home/cuil/workspace/arm/lm3s811/TI_Stellaris/driverlib/ethernet.c **** 
  80:/home/cuil/workspace/arm/lm3s811/TI_Stellaris/driverlib/ethernet.c ****     //
  81:/home/cuil/workspace/arm/lm3s811/TI_Stellaris/driverlib/ethernet.c ****     // Set the Management Clock Divider register for access to the PHY
  82:/home/cuil/workspace/arm/lm3s811/TI_Stellaris/driverlib/ethernet.c ****     // register set (via EthernetPHYRead/Write).
  83:/home/cuil/workspace/arm/lm3s811/TI_Stellaris/driverlib/ethernet.c ****     //
  84:/home/cuil/workspace/arm/lm3s811/TI_Stellaris/driverlib/ethernet.c ****     // The MDC clock divided down from the system clock using the following
  85:/home/cuil/workspace/arm/lm3s811/TI_Stellaris/driverlib/ethernet.c ****     // formula.  A maximum of 2.5MHz is allowed for F(mdc).
  86:/home/cuil/workspace/arm/lm3s811/TI_Stellaris/driverlib/ethernet.c ****     //
  87:/home/cuil/workspace/arm/lm3s811/TI_Stellaris/driverlib/ethernet.c ****     //      F(mdc) = F(sys) / (2 * (div + 1))
  88:/home/cuil/workspace/arm/lm3s811/TI_Stellaris/driverlib/ethernet.c ****     //      div = (F(sys) / (2 * F(mdc))) - 1
  89:/home/cuil/workspace/arm/lm3s811/TI_Stellaris/driverlib/ethernet.c ****     //      div = (F(sys) / 2 / F(mdc)) - 1
  90:/home/cuil/workspace/arm/lm3s811/TI_Stellaris/driverlib/ethernet.c ****     //
  91:/home/cuil/workspace/arm/lm3s811/TI_Stellaris/driverlib/ethernet.c ****     // Note: Because we should round up, to ensure we don't violate the
  92:/home/cuil/workspace/arm/lm3s811/TI_Stellaris/driverlib/ethernet.c ****     // maximum clock speed, we can simplify this as follows:
  93:/home/cuil/workspace/arm/lm3s811/TI_Stellaris/driverlib/ethernet.c ****     //
  94:/home/cuil/workspace/arm/lm3s811/TI_Stellaris/driverlib/ethernet.c ****     //      div = F(sys) / 2 / F(mdc)
  95:/home/cuil/workspace/arm/lm3s811/TI_Stellaris/driverlib/ethernet.c ****     //
  96:/home/cuil/workspace/arm/lm3s811/TI_Stellaris/driverlib/ethernet.c ****     // For example, given a system clock of 6.0MHz, and a div value of 1,
  97:/home/cuil/workspace/arm/lm3s811/TI_Stellaris/driverlib/ethernet.c ****     // the mdc clock would be programmed as 1.5 MHz.
  98:/home/cuil/workspace/arm/lm3s811/TI_Stellaris/driverlib/ethernet.c ****     //
  99:/home/cuil/workspace/arm/lm3s811/TI_Stellaris/driverlib/ethernet.c ****     ulDiv = (ulEthClk / 2) / 2500000;
 4147              		.loc 1 99 0
 4148 000a 3A68     		ldr	r2, [r7, #0]
 4149 000c 084B     		ldr	r3, .L2
 4150 000e A3FB0213 		umull	r1, r3, r3, r2
 4151 0012 4FEA5353 		lsr	r3, r3, #21
 4152 0016 FB60     		str	r3, [r7, #12]
 100:/home/cuil/workspace/arm/lm3s811/TI_Stellaris/driverlib/ethernet.c ****     HWREG(ulBase + MAC_O_MDV) = (ulDiv & MAC_MDV_DIV_M);
 4153              		.loc 1 100 0
 4154 0018 7B68     		ldr	r3, [r7, #4]
 4155 001a 03F12403 		add	r3, r3, #36
 4156 001e FA68     		ldr	r2, [r7, #12]
 4157 0020 02F0FF02 		and	r2, r2, #255
 4158 0024 1A60     		str	r2, [r3, #0]
 101:/home/cuil/workspace/arm/lm3s811/TI_Stellaris/driverlib/ethernet.c **** }
 4159              		.loc 1 101 0
 4160 0026 07F11407 		add	r7, r7, #20
 4161 002a BD46     		mov	sp, r7
 4162 002c 80BC     		pop	{r7}
 4163 002e 7047     		bx	lr
 4164              	.L3:
 4165              		.align	2
 4166              	.L2:
 4167 0030 6BCA5F6B 		.word	1801439851
 4168              		.cfi_endproc
 4169              	.LFE0:
 4171              		.section	.text.EthernetConfigSet,"ax",%progbits
 4172              		.align	2
 4173              		.global	EthernetConfigSet
 4174              		.thumb
 4175              		.thumb_func
 4177              	EthernetConfigSet:
 4178              	.LFB1:
 102:/home/cuil/workspace/arm/lm3s811/TI_Stellaris/driverlib/ethernet.c **** 
 103:/home/cuil/workspace/arm/lm3s811/TI_Stellaris/driverlib/ethernet.c **** //*****************************************************************************
 104:/home/cuil/workspace/arm/lm3s811/TI_Stellaris/driverlib/ethernet.c **** //
 105:/home/cuil/workspace/arm/lm3s811/TI_Stellaris/driverlib/ethernet.c **** //! Sets the configuration of the Ethernet controller.
 106:/home/cuil/workspace/arm/lm3s811/TI_Stellaris/driverlib/ethernet.c **** //!
 107:/home/cuil/workspace/arm/lm3s811/TI_Stellaris/driverlib/ethernet.c **** //! \param ulBase is the base address of the controller.
 108:/home/cuil/workspace/arm/lm3s811/TI_Stellaris/driverlib/ethernet.c **** //! \param ulConfig is the configuration for the controller.
 109:/home/cuil/workspace/arm/lm3s811/TI_Stellaris/driverlib/ethernet.c **** //!
 110:/home/cuil/workspace/arm/lm3s811/TI_Stellaris/driverlib/ethernet.c **** //! After the EthernetInitExpClk() function has been called, this API function
 111:/home/cuil/workspace/arm/lm3s811/TI_Stellaris/driverlib/ethernet.c **** //! can be used to configure the various features of the Ethernet controller.
 112:/home/cuil/workspace/arm/lm3s811/TI_Stellaris/driverlib/ethernet.c **** //!
 113:/home/cuil/workspace/arm/lm3s811/TI_Stellaris/driverlib/ethernet.c **** //! The Ethernet controller provides three control registers that are used
 114:/home/cuil/workspace/arm/lm3s811/TI_Stellaris/driverlib/ethernet.c **** //! to configure the controller's operation.  The transmit control register
 115:/home/cuil/workspace/arm/lm3s811/TI_Stellaris/driverlib/ethernet.c **** //! provides settings to enable full-duplex operation, to auto-generate the
 116:/home/cuil/workspace/arm/lm3s811/TI_Stellaris/driverlib/ethernet.c **** //! frame check sequence, and to pad the transmit packets to the minimum
 117:/home/cuil/workspace/arm/lm3s811/TI_Stellaris/driverlib/ethernet.c **** //! length as required by the IEEE standard.  The receive control register
 118:/home/cuil/workspace/arm/lm3s811/TI_Stellaris/driverlib/ethernet.c **** //! provides settings to enable reception of packets with bad frame check
 119:/home/cuil/workspace/arm/lm3s811/TI_Stellaris/driverlib/ethernet.c **** //! sequence values and to enable multi-cast or promiscuous modes.  The
 120:/home/cuil/workspace/arm/lm3s811/TI_Stellaris/driverlib/ethernet.c **** //! timestamp control register provides settings that enable support logic in
 121:/home/cuil/workspace/arm/lm3s811/TI_Stellaris/driverlib/ethernet.c **** //! the controller that allow the use of the General Purpose Timer 3 to capture
 122:/home/cuil/workspace/arm/lm3s811/TI_Stellaris/driverlib/ethernet.c **** //! timestamps for the transmitted and received packets. Note that not all
 123:/home/cuil/workspace/arm/lm3s811/TI_Stellaris/driverlib/ethernet.c **** //! devices support this functionality; see the data sheet to determine if
 124:/home/cuil/workspace/arm/lm3s811/TI_Stellaris/driverlib/ethernet.c **** //! this feature is supported.
 125:/home/cuil/workspace/arm/lm3s811/TI_Stellaris/driverlib/ethernet.c **** //!
 126:/home/cuil/workspace/arm/lm3s811/TI_Stellaris/driverlib/ethernet.c **** //! The \e ulConfig parameter is the logical OR of the following values:
 127:/home/cuil/workspace/arm/lm3s811/TI_Stellaris/driverlib/ethernet.c **** //!
 128:/home/cuil/workspace/arm/lm3s811/TI_Stellaris/driverlib/ethernet.c **** //! - \b ETH_CFG_TS_TSEN - Enable TX and RX interrupt status as CCP timer
 129:/home/cuil/workspace/arm/lm3s811/TI_Stellaris/driverlib/ethernet.c **** //! inputs
 130:/home/cuil/workspace/arm/lm3s811/TI_Stellaris/driverlib/ethernet.c **** //! - \b ETH_CFG_RX_BADCRCDIS - Disable reception of packets with a bad CRC
 131:/home/cuil/workspace/arm/lm3s811/TI_Stellaris/driverlib/ethernet.c **** //! - \b ETH_CFG_RX_PRMSEN - Enable promiscuous mode reception (all packets)
 132:/home/cuil/workspace/arm/lm3s811/TI_Stellaris/driverlib/ethernet.c **** //! - \b ETH_CFG_RX_AMULEN - Enable reception of multicast packets
 133:/home/cuil/workspace/arm/lm3s811/TI_Stellaris/driverlib/ethernet.c **** //! - \b ETH_CFG_TX_DPLXEN - Enable full duplex transmit mode
 134:/home/cuil/workspace/arm/lm3s811/TI_Stellaris/driverlib/ethernet.c **** //! - \b ETH_CFG_TX_CRCEN - Enable transmit with auto CRC generation
 135:/home/cuil/workspace/arm/lm3s811/TI_Stellaris/driverlib/ethernet.c **** //! - \b ETH_CFG_TX_PADEN - Enable padding of transmit data to minimum size
 136:/home/cuil/workspace/arm/lm3s811/TI_Stellaris/driverlib/ethernet.c **** //!
 137:/home/cuil/workspace/arm/lm3s811/TI_Stellaris/driverlib/ethernet.c **** //! These bit-mapped values are programmed into the transmit, receive, and/or
 138:/home/cuil/workspace/arm/lm3s811/TI_Stellaris/driverlib/ethernet.c **** //! timestamp control register.
 139:/home/cuil/workspace/arm/lm3s811/TI_Stellaris/driverlib/ethernet.c **** //!
 140:/home/cuil/workspace/arm/lm3s811/TI_Stellaris/driverlib/ethernet.c **** //! \return None.
 141:/home/cuil/workspace/arm/lm3s811/TI_Stellaris/driverlib/ethernet.c **** //
 142:/home/cuil/workspace/arm/lm3s811/TI_Stellaris/driverlib/ethernet.c **** //*****************************************************************************
 143:/home/cuil/workspace/arm/lm3s811/TI_Stellaris/driverlib/ethernet.c **** void
 144:/home/cuil/workspace/arm/lm3s811/TI_Stellaris/driverlib/ethernet.c **** EthernetConfigSet(unsigned long ulBase, unsigned long ulConfig)
 145:/home/cuil/workspace/arm/lm3s811/TI_Stellaris/driverlib/ethernet.c **** {
 4179              		.loc 1 145 0
 4180              		.cfi_startproc
 4181              		@ args = 0, pretend = 0, frame = 16
 4182              		@ frame_needed = 1, uses_anonymous_args = 0
 4183              		@ link register save eliminated.
 4184 0000 80B4     		push	{r7}
 4185              	.LCFI3:
 4186              		.cfi_def_cfa_offset 4
 4187 0002 85B0     		sub	sp, sp, #20
 4188              	.LCFI4:
 4189              		.cfi_def_cfa_offset 24
 4190 0004 00AF     		add	r7, sp, #0
 4191              		.cfi_offset 7, -4
 4192              	.LCFI5:
 4193              		.cfi_def_cfa_register 7
 4194 0006 7860     		str	r0, [r7, #4]
 4195 0008 3960     		str	r1, [r7, #0]
 146:/home/cuil/workspace/arm/lm3s811/TI_Stellaris/driverlib/ethernet.c ****     unsigned long ulTemp;
 147:/home/cuil/workspace/arm/lm3s811/TI_Stellaris/driverlib/ethernet.c **** 
 148:/home/cuil/workspace/arm/lm3s811/TI_Stellaris/driverlib/ethernet.c ****     //
 149:/home/cuil/workspace/arm/lm3s811/TI_Stellaris/driverlib/ethernet.c ****     // Check the arguments.
 150:/home/cuil/workspace/arm/lm3s811/TI_Stellaris/driverlib/ethernet.c ****     //
 151:/home/cuil/workspace/arm/lm3s811/TI_Stellaris/driverlib/ethernet.c ****     ASSERT(ulBase == ETH_BASE);
 152:/home/cuil/workspace/arm/lm3s811/TI_Stellaris/driverlib/ethernet.c ****     ASSERT((ulConfig & ~(ETH_CFG_TX_DPLXEN | ETH_CFG_TX_CRCEN |
 153:/home/cuil/workspace/arm/lm3s811/TI_Stellaris/driverlib/ethernet.c ****                          ETH_CFG_TX_PADEN | ETH_CFG_RX_BADCRCDIS |
 154:/home/cuil/workspace/arm/lm3s811/TI_Stellaris/driverlib/ethernet.c ****                          ETH_CFG_RX_PRMSEN | ETH_CFG_RX_AMULEN |
 155:/home/cuil/workspace/arm/lm3s811/TI_Stellaris/driverlib/ethernet.c ****                          ETH_CFG_TS_TSEN)) == 0);
 156:/home/cuil/workspace/arm/lm3s811/TI_Stellaris/driverlib/ethernet.c **** 
 157:/home/cuil/workspace/arm/lm3s811/TI_Stellaris/driverlib/ethernet.c ****     //
 158:/home/cuil/workspace/arm/lm3s811/TI_Stellaris/driverlib/ethernet.c ****     // Setup the Transmit Control Register.
 159:/home/cuil/workspace/arm/lm3s811/TI_Stellaris/driverlib/ethernet.c ****     //
 160:/home/cuil/workspace/arm/lm3s811/TI_Stellaris/driverlib/ethernet.c ****     ulTemp  = HWREG(ulBase + MAC_O_TCTL);
 4196              		.loc 1 160 0
 4197 000a 7B68     		ldr	r3, [r7, #4]
 4198 000c 03F10C03 		add	r3, r3, #12
 4199 0010 1B68     		ldr	r3, [r3, #0]
 4200 0012 FB60     		str	r3, [r7, #12]
 161:/home/cuil/workspace/arm/lm3s811/TI_Stellaris/driverlib/ethernet.c ****     ulTemp &= ~(MAC_TCTL_DUPLEX | MAC_TCTL_CRC | MAC_TCTL_PADEN);
 4201              		.loc 1 161 0
 4202 0014 FB68     		ldr	r3, [r7, #12]
 4203 0016 23F01603 		bic	r3, r3, #22
 4204 001a FB60     		str	r3, [r7, #12]
 162:/home/cuil/workspace/arm/lm3s811/TI_Stellaris/driverlib/ethernet.c ****     ulTemp |= ulConfig & 0x0FF;
 4205              		.loc 1 162 0
 4206 001c 3B68     		ldr	r3, [r7, #0]
 4207 001e 03F0FF03 		and	r3, r3, #255
 4208 0022 FA68     		ldr	r2, [r7, #12]
 4209 0024 42EA0303 		orr	r3, r2, r3
 4210 0028 FB60     		str	r3, [r7, #12]
 163:/home/cuil/workspace/arm/lm3s811/TI_Stellaris/driverlib/ethernet.c ****     HWREG(ulBase + MAC_O_TCTL) = ulTemp;
 4211              		.loc 1 163 0
 4212 002a 7B68     		ldr	r3, [r7, #4]
 4213 002c 03F10C03 		add	r3, r3, #12
 4214 0030 FA68     		ldr	r2, [r7, #12]
 4215 0032 1A60     		str	r2, [r3, #0]
 164:/home/cuil/workspace/arm/lm3s811/TI_Stellaris/driverlib/ethernet.c **** 
 165:/home/cuil/workspace/arm/lm3s811/TI_Stellaris/driverlib/ethernet.c ****     //
 166:/home/cuil/workspace/arm/lm3s811/TI_Stellaris/driverlib/ethernet.c ****     // Setup the Receive Control Register.
 167:/home/cuil/workspace/arm/lm3s811/TI_Stellaris/driverlib/ethernet.c ****     //
 168:/home/cuil/workspace/arm/lm3s811/TI_Stellaris/driverlib/ethernet.c ****     ulTemp  = HWREG(ulBase + MAC_O_RCTL);
 4216              		.loc 1 168 0
 4217 0034 7B68     		ldr	r3, [r7, #4]
 4218 0036 03F10803 		add	r3, r3, #8
 4219 003a 1B68     		ldr	r3, [r3, #0]
 4220 003c FB60     		str	r3, [r7, #12]
 169:/home/cuil/workspace/arm/lm3s811/TI_Stellaris/driverlib/ethernet.c ****     ulTemp &= ~(MAC_RCTL_BADCRC | MAC_RCTL_PRMS | MAC_RCTL_AMUL);
 4221              		.loc 1 169 0
 4222 003e FB68     		ldr	r3, [r7, #12]
 4223 0040 23F00E03 		bic	r3, r3, #14
 4224 0044 FB60     		str	r3, [r7, #12]
 170:/home/cuil/workspace/arm/lm3s811/TI_Stellaris/driverlib/ethernet.c ****     ulTemp |= (ulConfig >> 8) & 0x0FF;
 4225              		.loc 1 170 0
 4226 0046 3B68     		ldr	r3, [r7, #0]
 4227 0048 4FEA1323 		lsr	r3, r3, #8
 4228 004c 03F0FF03 		and	r3, r3, #255
 4229 0050 FA68     		ldr	r2, [r7, #12]
 4230 0052 42EA0303 		orr	r3, r2, r3
 4231 0056 FB60     		str	r3, [r7, #12]
 171:/home/cuil/workspace/arm/lm3s811/TI_Stellaris/driverlib/ethernet.c ****     HWREG(ulBase + MAC_O_RCTL) = ulTemp;
 4232              		.loc 1 171 0
 4233 0058 7B68     		ldr	r3, [r7, #4]
 4234 005a 03F10803 		add	r3, r3, #8
 4235 005e FA68     		ldr	r2, [r7, #12]
 4236 0060 1A60     		str	r2, [r3, #0]
 172:/home/cuil/workspace/arm/lm3s811/TI_Stellaris/driverlib/ethernet.c **** 
 173:/home/cuil/workspace/arm/lm3s811/TI_Stellaris/driverlib/ethernet.c ****     //
 174:/home/cuil/workspace/arm/lm3s811/TI_Stellaris/driverlib/ethernet.c ****     // Setup the Time Stamp Configuration register.
 175:/home/cuil/workspace/arm/lm3s811/TI_Stellaris/driverlib/ethernet.c ****     //
 176:/home/cuil/workspace/arm/lm3s811/TI_Stellaris/driverlib/ethernet.c ****     ulTemp = HWREG(ulBase + MAC_O_TS);
 4237              		.loc 1 176 0
 4238 0062 7B68     		ldr	r3, [r7, #4]
 4239 0064 03F13C03 		add	r3, r3, #60
 4240 0068 1B68     		ldr	r3, [r3, #0]
 4241 006a FB60     		str	r3, [r7, #12]
 177:/home/cuil/workspace/arm/lm3s811/TI_Stellaris/driverlib/ethernet.c ****     ulTemp &= ~(MAC_TS_TSEN);
 4242              		.loc 1 177 0
 4243 006c FB68     		ldr	r3, [r7, #12]
 4244 006e 23F00103 		bic	r3, r3, #1
 4245 0072 FB60     		str	r3, [r7, #12]
 178:/home/cuil/workspace/arm/lm3s811/TI_Stellaris/driverlib/ethernet.c ****     ulTemp |= (ulConfig >> 16) & 0x0FF;
 4246              		.loc 1 178 0
 4247 0074 3B68     		ldr	r3, [r7, #0]
 4248 0076 4FEA1343 		lsr	r3, r3, #16
 4249 007a 03F0FF03 		and	r3, r3, #255
 4250 007e FA68     		ldr	r2, [r7, #12]
 4251 0080 42EA0303 		orr	r3, r2, r3
 4252 0084 FB60     		str	r3, [r7, #12]
 179:/home/cuil/workspace/arm/lm3s811/TI_Stellaris/driverlib/ethernet.c ****     HWREG(ulBase + MAC_O_TS) = ulTemp;
 4253              		.loc 1 179 0
 4254 0086 7B68     		ldr	r3, [r7, #4]
 4255 0088 03F13C03 		add	r3, r3, #60
 4256 008c FA68     		ldr	r2, [r7, #12]
 4257 008e 1A60     		str	r2, [r3, #0]
 180:/home/cuil/workspace/arm/lm3s811/TI_Stellaris/driverlib/ethernet.c **** }
 4258              		.loc 1 180 0
 4259 0090 07F11407 		add	r7, r7, #20
 4260 0094 BD46     		mov	sp, r7
 4261 0096 80BC     		pop	{r7}
 4262 0098 7047     		bx	lr
 4263              		.cfi_endproc
 4264              	.LFE1:
 4266 009a 00BF     		.section	.text.EthernetConfigGet,"ax",%progbits
 4267              		.align	2
 4268              		.global	EthernetConfigGet
 4269              		.thumb
 4270              		.thumb_func
 4272              	EthernetConfigGet:
 4273              	.LFB2:
 181:/home/cuil/workspace/arm/lm3s811/TI_Stellaris/driverlib/ethernet.c **** 
 182:/home/cuil/workspace/arm/lm3s811/TI_Stellaris/driverlib/ethernet.c **** //*****************************************************************************
 183:/home/cuil/workspace/arm/lm3s811/TI_Stellaris/driverlib/ethernet.c **** //
 184:/home/cuil/workspace/arm/lm3s811/TI_Stellaris/driverlib/ethernet.c **** //! Gets the current configuration of the Ethernet controller.
 185:/home/cuil/workspace/arm/lm3s811/TI_Stellaris/driverlib/ethernet.c **** //!
 186:/home/cuil/workspace/arm/lm3s811/TI_Stellaris/driverlib/ethernet.c **** //! \param ulBase is the base address of the controller.
 187:/home/cuil/workspace/arm/lm3s811/TI_Stellaris/driverlib/ethernet.c **** //!
 188:/home/cuil/workspace/arm/lm3s811/TI_Stellaris/driverlib/ethernet.c **** //! This function queries the control registers of the Ethernet controller
 189:/home/cuil/workspace/arm/lm3s811/TI_Stellaris/driverlib/ethernet.c **** //! and returns a bit-mapped configuration value.
 190:/home/cuil/workspace/arm/lm3s811/TI_Stellaris/driverlib/ethernet.c **** //!
 191:/home/cuil/workspace/arm/lm3s811/TI_Stellaris/driverlib/ethernet.c **** //! \sa The description of the EthernetConfigSet() function provides detailed
 192:/home/cuil/workspace/arm/lm3s811/TI_Stellaris/driverlib/ethernet.c **** //! information for the bit-mapped configuration values that are returned.
 193:/home/cuil/workspace/arm/lm3s811/TI_Stellaris/driverlib/ethernet.c **** //!
 194:/home/cuil/workspace/arm/lm3s811/TI_Stellaris/driverlib/ethernet.c **** //! \return Returns the bit-mapped Ethernet controller configuration value.
 195:/home/cuil/workspace/arm/lm3s811/TI_Stellaris/driverlib/ethernet.c **** //
 196:/home/cuil/workspace/arm/lm3s811/TI_Stellaris/driverlib/ethernet.c **** //*****************************************************************************
 197:/home/cuil/workspace/arm/lm3s811/TI_Stellaris/driverlib/ethernet.c **** unsigned long
 198:/home/cuil/workspace/arm/lm3s811/TI_Stellaris/driverlib/ethernet.c **** EthernetConfigGet(unsigned long ulBase)
 199:/home/cuil/workspace/arm/lm3s811/TI_Stellaris/driverlib/ethernet.c **** {
 4274              		.loc 1 199 0
 4275              		.cfi_startproc
 4276              		@ args = 0, pretend = 0, frame = 16
 4277              		@ frame_needed = 1, uses_anonymous_args = 0
 4278              		@ link register save eliminated.
 4279 0000 80B4     		push	{r7}
 4280              	.LCFI6:
 4281              		.cfi_def_cfa_offset 4
 4282 0002 85B0     		sub	sp, sp, #20
 4283              	.LCFI7:
 4284              		.cfi_def_cfa_offset 24
 4285 0004 00AF     		add	r7, sp, #0
 4286              		.cfi_offset 7, -4
 4287              	.LCFI8:
 4288              		.cfi_def_cfa_register 7
 4289 0006 7860     		str	r0, [r7, #4]
 200:/home/cuil/workspace/arm/lm3s811/TI_Stellaris/driverlib/ethernet.c ****     unsigned long ulConfig;
 201:/home/cuil/workspace/arm/lm3s811/TI_Stellaris/driverlib/ethernet.c **** 
 202:/home/cuil/workspace/arm/lm3s811/TI_Stellaris/driverlib/ethernet.c ****     //
 203:/home/cuil/workspace/arm/lm3s811/TI_Stellaris/driverlib/ethernet.c ****     // Check the arguments.
 204:/home/cuil/workspace/arm/lm3s811/TI_Stellaris/driverlib/ethernet.c ****     //
 205:/home/cuil/workspace/arm/lm3s811/TI_Stellaris/driverlib/ethernet.c ****     ASSERT(ulBase == ETH_BASE);
 206:/home/cuil/workspace/arm/lm3s811/TI_Stellaris/driverlib/ethernet.c **** 
 207:/home/cuil/workspace/arm/lm3s811/TI_Stellaris/driverlib/ethernet.c ****     //
 208:/home/cuil/workspace/arm/lm3s811/TI_Stellaris/driverlib/ethernet.c ****     // Read and return the Ethernet controller configuration parameters,
 209:/home/cuil/workspace/arm/lm3s811/TI_Stellaris/driverlib/ethernet.c ****     // properly shifted into the appropriate bit field positions.
 210:/home/cuil/workspace/arm/lm3s811/TI_Stellaris/driverlib/ethernet.c ****     //
 211:/home/cuil/workspace/arm/lm3s811/TI_Stellaris/driverlib/ethernet.c ****     ulConfig = HWREG(ulBase + MAC_O_TS) << 16;
 4290              		.loc 1 211 0
 4291 0008 7B68     		ldr	r3, [r7, #4]
 4292 000a 03F13C03 		add	r3, r3, #60
 4293 000e 1B68     		ldr	r3, [r3, #0]
 4294 0010 4FEA0343 		lsl	r3, r3, #16
 4295 0014 FB60     		str	r3, [r7, #12]
 212:/home/cuil/workspace/arm/lm3s811/TI_Stellaris/driverlib/ethernet.c ****     ulConfig |= (HWREG(ulBase + MAC_O_RCTL) & ~(MAC_RCTL_RXEN)) << 8;
 4296              		.loc 1 212 0
 4297 0016 7B68     		ldr	r3, [r7, #4]
 4298 0018 03F10803 		add	r3, r3, #8
 4299 001c 1B68     		ldr	r3, [r3, #0]
 4300 001e 23F00103 		bic	r3, r3, #1
 4301 0022 4FEA0323 		lsl	r3, r3, #8
 4302 0026 FA68     		ldr	r2, [r7, #12]
 4303 0028 42EA0303 		orr	r3, r2, r3
 4304 002c FB60     		str	r3, [r7, #12]
 213:/home/cuil/workspace/arm/lm3s811/TI_Stellaris/driverlib/ethernet.c ****     ulConfig |= HWREG(ulBase + MAC_O_TCTL) & ~(MAC_TCTL_TXEN);
 4305              		.loc 1 213 0
 4306 002e 7B68     		ldr	r3, [r7, #4]
 4307 0030 03F10C03 		add	r3, r3, #12
 4308 0034 1B68     		ldr	r3, [r3, #0]
 4309 0036 23F00103 		bic	r3, r3, #1
 4310 003a FA68     		ldr	r2, [r7, #12]
 4311 003c 42EA0303 		orr	r3, r2, r3
 4312 0040 FB60     		str	r3, [r7, #12]
 214:/home/cuil/workspace/arm/lm3s811/TI_Stellaris/driverlib/ethernet.c ****     return(ulConfig);
 4313              		.loc 1 214 0
 4314 0042 FB68     		ldr	r3, [r7, #12]
 215:/home/cuil/workspace/arm/lm3s811/TI_Stellaris/driverlib/ethernet.c **** }
 4315              		.loc 1 215 0
 4316 0044 1846     		mov	r0, r3
 4317 0046 07F11407 		add	r7, r7, #20
 4318 004a BD46     		mov	sp, r7
 4319 004c 80BC     		pop	{r7}
 4320 004e 7047     		bx	lr
 4321              		.cfi_endproc
 4322              	.LFE2:
 4324              		.section	.text.EthernetMACAddrSet,"ax",%progbits
 4325              		.align	2
 4326              		.global	EthernetMACAddrSet
 4327              		.thumb
 4328              		.thumb_func
 4330              	EthernetMACAddrSet:
 4331              	.LFB3:
 216:/home/cuil/workspace/arm/lm3s811/TI_Stellaris/driverlib/ethernet.c **** 
 217:/home/cuil/workspace/arm/lm3s811/TI_Stellaris/driverlib/ethernet.c **** //*****************************************************************************
 218:/home/cuil/workspace/arm/lm3s811/TI_Stellaris/driverlib/ethernet.c **** //
 219:/home/cuil/workspace/arm/lm3s811/TI_Stellaris/driverlib/ethernet.c **** //! Sets the MAC address of the Ethernet controller.
 220:/home/cuil/workspace/arm/lm3s811/TI_Stellaris/driverlib/ethernet.c **** //!
 221:/home/cuil/workspace/arm/lm3s811/TI_Stellaris/driverlib/ethernet.c **** //! \param ulBase is the base address of the controller.
 222:/home/cuil/workspace/arm/lm3s811/TI_Stellaris/driverlib/ethernet.c **** //! \param pucMACAddr is the pointer to the array of MAC-48 address octets.
 223:/home/cuil/workspace/arm/lm3s811/TI_Stellaris/driverlib/ethernet.c **** //!
 224:/home/cuil/workspace/arm/lm3s811/TI_Stellaris/driverlib/ethernet.c **** //! This function programs the IEEE-defined MAC-48 address specified in
 225:/home/cuil/workspace/arm/lm3s811/TI_Stellaris/driverlib/ethernet.c **** //! \e pucMACAddr into the Ethernet controller.  This address is used by the
 226:/home/cuil/workspace/arm/lm3s811/TI_Stellaris/driverlib/ethernet.c **** //! Ethernet controller for hardware-level filtering of incoming Ethernet
 227:/home/cuil/workspace/arm/lm3s811/TI_Stellaris/driverlib/ethernet.c **** //! packets (when promiscuous mode is not enabled).
 228:/home/cuil/workspace/arm/lm3s811/TI_Stellaris/driverlib/ethernet.c **** //!
 229:/home/cuil/workspace/arm/lm3s811/TI_Stellaris/driverlib/ethernet.c **** //! The MAC-48 address is defined as 6 octets, illustrated by the following
 230:/home/cuil/workspace/arm/lm3s811/TI_Stellaris/driverlib/ethernet.c **** //! example address.  The numbers are shown in hexadecimal format.
 231:/home/cuil/workspace/arm/lm3s811/TI_Stellaris/driverlib/ethernet.c **** //!
 232:/home/cuil/workspace/arm/lm3s811/TI_Stellaris/driverlib/ethernet.c **** //!         AC-DE-48-00-00-80
 233:/home/cuil/workspace/arm/lm3s811/TI_Stellaris/driverlib/ethernet.c **** //!
 234:/home/cuil/workspace/arm/lm3s811/TI_Stellaris/driverlib/ethernet.c **** //! In this representation, the first three octets (AC-DE-48) are the
 235:/home/cuil/workspace/arm/lm3s811/TI_Stellaris/driverlib/ethernet.c **** //! Organizationally Unique Identifier (OUI).  This is a number assigned by
 236:/home/cuil/workspace/arm/lm3s811/TI_Stellaris/driverlib/ethernet.c **** //! the IEEE to an organization that requests a block of MAC addresses.  The
 237:/home/cuil/workspace/arm/lm3s811/TI_Stellaris/driverlib/ethernet.c **** //! last three octets (00-00-80) are a 24-bit number managed by the OUI owner
 238:/home/cuil/workspace/arm/lm3s811/TI_Stellaris/driverlib/ethernet.c **** //! to uniquely identify a piece of hardware within that organization that is
 239:/home/cuil/workspace/arm/lm3s811/TI_Stellaris/driverlib/ethernet.c **** //! to be connected to the Ethernet.
 240:/home/cuil/workspace/arm/lm3s811/TI_Stellaris/driverlib/ethernet.c **** //!
 241:/home/cuil/workspace/arm/lm3s811/TI_Stellaris/driverlib/ethernet.c **** //! In this representation, the octets are transmitted from left to right,
 242:/home/cuil/workspace/arm/lm3s811/TI_Stellaris/driverlib/ethernet.c **** //! with the ``AC'' octet being transmitted first and the ``80'' octet being
 243:/home/cuil/workspace/arm/lm3s811/TI_Stellaris/driverlib/ethernet.c **** //! transmitted last.  Within an octet, the bits are transmitted LSB to MSB.
 244:/home/cuil/workspace/arm/lm3s811/TI_Stellaris/driverlib/ethernet.c **** //! For this address, the first bit to be transmitted would be ``0'', the LSB
 245:/home/cuil/workspace/arm/lm3s811/TI_Stellaris/driverlib/ethernet.c **** //! of ``AC'', and the last bit to be transmitted would be ``1'', the MSB of
 246:/home/cuil/workspace/arm/lm3s811/TI_Stellaris/driverlib/ethernet.c **** //! ``80''.
 247:/home/cuil/workspace/arm/lm3s811/TI_Stellaris/driverlib/ethernet.c **** //!
 248:/home/cuil/workspace/arm/lm3s811/TI_Stellaris/driverlib/ethernet.c **** //! \return None.
 249:/home/cuil/workspace/arm/lm3s811/TI_Stellaris/driverlib/ethernet.c **** //
 250:/home/cuil/workspace/arm/lm3s811/TI_Stellaris/driverlib/ethernet.c **** //*****************************************************************************
 251:/home/cuil/workspace/arm/lm3s811/TI_Stellaris/driverlib/ethernet.c **** void
 252:/home/cuil/workspace/arm/lm3s811/TI_Stellaris/driverlib/ethernet.c **** EthernetMACAddrSet(unsigned long ulBase, unsigned char *pucMACAddr)
 253:/home/cuil/workspace/arm/lm3s811/TI_Stellaris/driverlib/ethernet.c **** {
 4332              		.loc 1 253 0
 4333              		.cfi_startproc
 4334              		@ args = 0, pretend = 0, frame = 16
 4335              		@ frame_needed = 1, uses_anonymous_args = 0
 4336              		@ link register save eliminated.
 4337 0000 80B4     		push	{r7}
 4338              	.LCFI9:
 4339              		.cfi_def_cfa_offset 4
 4340 0002 85B0     		sub	sp, sp, #20
 4341              	.LCFI10:
 4342              		.cfi_def_cfa_offset 24
 4343 0004 00AF     		add	r7, sp, #0
 4344              		.cfi_offset 7, -4
 4345              	.LCFI11:
 4346              		.cfi_def_cfa_register 7
 4347 0006 7860     		str	r0, [r7, #4]
 4348 0008 3960     		str	r1, [r7, #0]
 254:/home/cuil/workspace/arm/lm3s811/TI_Stellaris/driverlib/ethernet.c ****     unsigned long ulTemp;
 255:/home/cuil/workspace/arm/lm3s811/TI_Stellaris/driverlib/ethernet.c ****     unsigned char *pucTemp = (unsigned char *)&ulTemp;
 4349              		.loc 1 255 0
 4350 000a 07F10803 		add	r3, r7, #8
 4351 000e FB60     		str	r3, [r7, #12]
 256:/home/cuil/workspace/arm/lm3s811/TI_Stellaris/driverlib/ethernet.c **** 
 257:/home/cuil/workspace/arm/lm3s811/TI_Stellaris/driverlib/ethernet.c ****     //
 258:/home/cuil/workspace/arm/lm3s811/TI_Stellaris/driverlib/ethernet.c ****     // Check the arguments.
 259:/home/cuil/workspace/arm/lm3s811/TI_Stellaris/driverlib/ethernet.c ****     //
 260:/home/cuil/workspace/arm/lm3s811/TI_Stellaris/driverlib/ethernet.c ****     ASSERT(ulBase == ETH_BASE);
 261:/home/cuil/workspace/arm/lm3s811/TI_Stellaris/driverlib/ethernet.c ****     ASSERT(pucMACAddr != 0);
 262:/home/cuil/workspace/arm/lm3s811/TI_Stellaris/driverlib/ethernet.c **** 
 263:/home/cuil/workspace/arm/lm3s811/TI_Stellaris/driverlib/ethernet.c ****     //
 264:/home/cuil/workspace/arm/lm3s811/TI_Stellaris/driverlib/ethernet.c ****     // Program the MAC Address into the device.  The first four bytes of the
 265:/home/cuil/workspace/arm/lm3s811/TI_Stellaris/driverlib/ethernet.c ****     // MAC Address are placed into the IA0 register.  The remaining two bytes
 266:/home/cuil/workspace/arm/lm3s811/TI_Stellaris/driverlib/ethernet.c ****     // of the MAC address are placed into the IA1 register.
 267:/home/cuil/workspace/arm/lm3s811/TI_Stellaris/driverlib/ethernet.c ****     //
 268:/home/cuil/workspace/arm/lm3s811/TI_Stellaris/driverlib/ethernet.c ****     pucTemp[0] = pucMACAddr[0];
 4352              		.loc 1 268 0
 4353 0010 3B68     		ldr	r3, [r7, #0]
 4354 0012 1A78     		ldrb	r2, [r3, #0]	@ zero_extendqisi2
 4355 0014 FB68     		ldr	r3, [r7, #12]
 4356 0016 1A70     		strb	r2, [r3, #0]
 269:/home/cuil/workspace/arm/lm3s811/TI_Stellaris/driverlib/ethernet.c ****     pucTemp[1] = pucMACAddr[1];
 4357              		.loc 1 269 0
 4358 0018 FB68     		ldr	r3, [r7, #12]
 4359 001a 03F10103 		add	r3, r3, #1
 4360 001e 3A68     		ldr	r2, [r7, #0]
 4361 0020 02F10102 		add	r2, r2, #1
 4362 0024 1278     		ldrb	r2, [r2, #0]	@ zero_extendqisi2
 4363 0026 1A70     		strb	r2, [r3, #0]
 270:/home/cuil/workspace/arm/lm3s811/TI_Stellaris/driverlib/ethernet.c ****     pucTemp[2] = pucMACAddr[2];
 4364              		.loc 1 270 0
 4365 0028 FB68     		ldr	r3, [r7, #12]
 4366 002a 03F10203 		add	r3, r3, #2
 4367 002e 3A68     		ldr	r2, [r7, #0]
 4368 0030 02F10202 		add	r2, r2, #2
 4369 0034 1278     		ldrb	r2, [r2, #0]	@ zero_extendqisi2
 4370 0036 1A70     		strb	r2, [r3, #0]
 271:/home/cuil/workspace/arm/lm3s811/TI_Stellaris/driverlib/ethernet.c ****     pucTemp[3] = pucMACAddr[3];
 4371              		.loc 1 271 0
 4372 0038 FB68     		ldr	r3, [r7, #12]
 4373 003a 03F10303 		add	r3, r3, #3
 4374 003e 3A68     		ldr	r2, [r7, #0]
 4375 0040 02F10302 		add	r2, r2, #3
 4376 0044 1278     		ldrb	r2, [r2, #0]	@ zero_extendqisi2
 4377 0046 1A70     		strb	r2, [r3, #0]
 272:/home/cuil/workspace/arm/lm3s811/TI_Stellaris/driverlib/ethernet.c ****     HWREG(ulBase + MAC_O_IA0) = ulTemp;
 4378              		.loc 1 272 0
 4379 0048 7B68     		ldr	r3, [r7, #4]
 4380 004a 03F11403 		add	r3, r3, #20
 4381 004e BA68     		ldr	r2, [r7, #8]
 4382 0050 1A60     		str	r2, [r3, #0]
 273:/home/cuil/workspace/arm/lm3s811/TI_Stellaris/driverlib/ethernet.c ****     ulTemp = 0;
 4383              		.loc 1 273 0
 4384 0052 4FF00003 		mov	r3, #0
 4385 0056 BB60     		str	r3, [r7, #8]
 274:/home/cuil/workspace/arm/lm3s811/TI_Stellaris/driverlib/ethernet.c ****     pucTemp[0] = pucMACAddr[4];
 4386              		.loc 1 274 0
 4387 0058 3B68     		ldr	r3, [r7, #0]
 4388 005a 03F10403 		add	r3, r3, #4
 4389 005e 1A78     		ldrb	r2, [r3, #0]	@ zero_extendqisi2
 4390 0060 FB68     		ldr	r3, [r7, #12]
 4391 0062 1A70     		strb	r2, [r3, #0]
 275:/home/cuil/workspace/arm/lm3s811/TI_Stellaris/driverlib/ethernet.c ****     pucTemp[1] = pucMACAddr[5];
 4392              		.loc 1 275 0
 4393 0064 FB68     		ldr	r3, [r7, #12]
 4394 0066 03F10103 		add	r3, r3, #1
 4395 006a 3A68     		ldr	r2, [r7, #0]
 4396 006c 02F10502 		add	r2, r2, #5
 4397 0070 1278     		ldrb	r2, [r2, #0]	@ zero_extendqisi2
 4398 0072 1A70     		strb	r2, [r3, #0]
 276:/home/cuil/workspace/arm/lm3s811/TI_Stellaris/driverlib/ethernet.c ****     HWREG(ulBase + MAC_O_IA1) = ulTemp;
 4399              		.loc 1 276 0
 4400 0074 7B68     		ldr	r3, [r7, #4]
 4401 0076 03F11803 		add	r3, r3, #24
 4402 007a BA68     		ldr	r2, [r7, #8]
 4403 007c 1A60     		str	r2, [r3, #0]
 277:/home/cuil/workspace/arm/lm3s811/TI_Stellaris/driverlib/ethernet.c **** }
 4404              		.loc 1 277 0
 4405 007e 07F11407 		add	r7, r7, #20
 4406 0082 BD46     		mov	sp, r7
 4407 0084 80BC     		pop	{r7}
 4408 0086 7047     		bx	lr
 4409              		.cfi_endproc
 4410              	.LFE3:
 4412              		.section	.text.EthernetMACAddrGet,"ax",%progbits
 4413              		.align	2
 4414              		.global	EthernetMACAddrGet
 4415              		.thumb
 4416              		.thumb_func
 4418              	EthernetMACAddrGet:
 4419              	.LFB4:
 278:/home/cuil/workspace/arm/lm3s811/TI_Stellaris/driverlib/ethernet.c **** 
 279:/home/cuil/workspace/arm/lm3s811/TI_Stellaris/driverlib/ethernet.c **** //*****************************************************************************
 280:/home/cuil/workspace/arm/lm3s811/TI_Stellaris/driverlib/ethernet.c **** //
 281:/home/cuil/workspace/arm/lm3s811/TI_Stellaris/driverlib/ethernet.c **** //! Gets the MAC address of the Ethernet controller.
 282:/home/cuil/workspace/arm/lm3s811/TI_Stellaris/driverlib/ethernet.c **** //!
 283:/home/cuil/workspace/arm/lm3s811/TI_Stellaris/driverlib/ethernet.c **** //! \param ulBase is the base address of the controller.
 284:/home/cuil/workspace/arm/lm3s811/TI_Stellaris/driverlib/ethernet.c **** //! \param pucMACAddr is the pointer to the location in which to store the
 285:/home/cuil/workspace/arm/lm3s811/TI_Stellaris/driverlib/ethernet.c **** //! array of MAC-48 address octets.
 286:/home/cuil/workspace/arm/lm3s811/TI_Stellaris/driverlib/ethernet.c **** //!
 287:/home/cuil/workspace/arm/lm3s811/TI_Stellaris/driverlib/ethernet.c **** //! This function reads the currently programmed MAC address into the
 288:/home/cuil/workspace/arm/lm3s811/TI_Stellaris/driverlib/ethernet.c **** //! \e pucMACAddr buffer.
 289:/home/cuil/workspace/arm/lm3s811/TI_Stellaris/driverlib/ethernet.c **** //!
 290:/home/cuil/workspace/arm/lm3s811/TI_Stellaris/driverlib/ethernet.c **** //! \sa Refer to EthernetMACAddrSet() API description for more details about
 291:/home/cuil/workspace/arm/lm3s811/TI_Stellaris/driverlib/ethernet.c **** //! the MAC address format.
 292:/home/cuil/workspace/arm/lm3s811/TI_Stellaris/driverlib/ethernet.c **** //!
 293:/home/cuil/workspace/arm/lm3s811/TI_Stellaris/driverlib/ethernet.c **** //! \return None.
 294:/home/cuil/workspace/arm/lm3s811/TI_Stellaris/driverlib/ethernet.c **** //
 295:/home/cuil/workspace/arm/lm3s811/TI_Stellaris/driverlib/ethernet.c **** //*****************************************************************************
 296:/home/cuil/workspace/arm/lm3s811/TI_Stellaris/driverlib/ethernet.c **** void
 297:/home/cuil/workspace/arm/lm3s811/TI_Stellaris/driverlib/ethernet.c **** EthernetMACAddrGet(unsigned long ulBase, unsigned char *pucMACAddr)
 298:/home/cuil/workspace/arm/lm3s811/TI_Stellaris/driverlib/ethernet.c **** {
 4420              		.loc 1 298 0
 4421              		.cfi_startproc
 4422              		@ args = 0, pretend = 0, frame = 16
 4423              		@ frame_needed = 1, uses_anonymous_args = 0
 4424              		@ link register save eliminated.
 4425 0000 80B4     		push	{r7}
 4426              	.LCFI12:
 4427              		.cfi_def_cfa_offset 4
 4428 0002 85B0     		sub	sp, sp, #20
 4429              	.LCFI13:
 4430              		.cfi_def_cfa_offset 24
 4431 0004 00AF     		add	r7, sp, #0
 4432              		.cfi_offset 7, -4
 4433              	.LCFI14:
 4434              		.cfi_def_cfa_register 7
 4435 0006 7860     		str	r0, [r7, #4]
 4436 0008 3960     		str	r1, [r7, #0]
 299:/home/cuil/workspace/arm/lm3s811/TI_Stellaris/driverlib/ethernet.c ****     unsigned long ulTemp;
 300:/home/cuil/workspace/arm/lm3s811/TI_Stellaris/driverlib/ethernet.c ****     unsigned char *pucTemp = (unsigned char *)&ulTemp;
 4437              		.loc 1 300 0
 4438 000a 07F10803 		add	r3, r7, #8
 4439 000e FB60     		str	r3, [r7, #12]
 301:/home/cuil/workspace/arm/lm3s811/TI_Stellaris/driverlib/ethernet.c **** 
 302:/home/cuil/workspace/arm/lm3s811/TI_Stellaris/driverlib/ethernet.c ****     //
 303:/home/cuil/workspace/arm/lm3s811/TI_Stellaris/driverlib/ethernet.c ****     // Check the arguments.
 304:/home/cuil/workspace/arm/lm3s811/TI_Stellaris/driverlib/ethernet.c ****     //
 305:/home/cuil/workspace/arm/lm3s811/TI_Stellaris/driverlib/ethernet.c ****     ASSERT(ulBase == ETH_BASE);
 306:/home/cuil/workspace/arm/lm3s811/TI_Stellaris/driverlib/ethernet.c ****     ASSERT(pucMACAddr != 0);
 307:/home/cuil/workspace/arm/lm3s811/TI_Stellaris/driverlib/ethernet.c **** 
 308:/home/cuil/workspace/arm/lm3s811/TI_Stellaris/driverlib/ethernet.c ****     //
 309:/home/cuil/workspace/arm/lm3s811/TI_Stellaris/driverlib/ethernet.c ****     // Read the MAC address from the device.  The first four bytes of the
 310:/home/cuil/workspace/arm/lm3s811/TI_Stellaris/driverlib/ethernet.c ****     // MAC address are read from the IA0 register.  The remaining two bytes
 311:/home/cuil/workspace/arm/lm3s811/TI_Stellaris/driverlib/ethernet.c ****     // of the MAC addres
 312:/home/cuil/workspace/arm/lm3s811/TI_Stellaris/driverlib/ethernet.c ****     //
 313:/home/cuil/workspace/arm/lm3s811/TI_Stellaris/driverlib/ethernet.c ****     ulTemp = HWREG(ulBase + MAC_O_IA0);
 4440              		.loc 1 313 0
 4441 0010 7B68     		ldr	r3, [r7, #4]
 4442 0012 03F11403 		add	r3, r3, #20
 4443 0016 1B68     		ldr	r3, [r3, #0]
 4444 0018 BB60     		str	r3, [r7, #8]
 314:/home/cuil/workspace/arm/lm3s811/TI_Stellaris/driverlib/ethernet.c ****     pucMACAddr[0] = pucTemp[0];
 4445              		.loc 1 314 0
 4446 001a FB68     		ldr	r3, [r7, #12]
 4447 001c 1A78     		ldrb	r2, [r3, #0]	@ zero_extendqisi2
 4448 001e 3B68     		ldr	r3, [r7, #0]
 4449 0020 1A70     		strb	r2, [r3, #0]
 315:/home/cuil/workspace/arm/lm3s811/TI_Stellaris/driverlib/ethernet.c ****     pucMACAddr[1] = pucTemp[1];
 4450              		.loc 1 315 0
 4451 0022 3B68     		ldr	r3, [r7, #0]
 4452 0024 03F10103 		add	r3, r3, #1
 4453 0028 FA68     		ldr	r2, [r7, #12]
 4454 002a 02F10102 		add	r2, r2, #1
 4455 002e 1278     		ldrb	r2, [r2, #0]	@ zero_extendqisi2
 4456 0030 1A70     		strb	r2, [r3, #0]
 316:/home/cuil/workspace/arm/lm3s811/TI_Stellaris/driverlib/ethernet.c ****     pucMACAddr[2] = pucTemp[2];
 4457              		.loc 1 316 0
 4458 0032 3B68     		ldr	r3, [r7, #0]
 4459 0034 03F10203 		add	r3, r3, #2
 4460 0038 FA68     		ldr	r2, [r7, #12]
 4461 003a 02F10202 		add	r2, r2, #2
 4462 003e 1278     		ldrb	r2, [r2, #0]	@ zero_extendqisi2
 4463 0040 1A70     		strb	r2, [r3, #0]
 317:/home/cuil/workspace/arm/lm3s811/TI_Stellaris/driverlib/ethernet.c ****     pucMACAddr[3] = pucTemp[3];
 4464              		.loc 1 317 0
 4465 0042 3B68     		ldr	r3, [r7, #0]
 4466 0044 03F10303 		add	r3, r3, #3
 4467 0048 FA68     		ldr	r2, [r7, #12]
 4468 004a 02F10302 		add	r2, r2, #3
 4469 004e 1278     		ldrb	r2, [r2, #0]	@ zero_extendqisi2
 4470 0050 1A70     		strb	r2, [r3, #0]
 318:/home/cuil/workspace/arm/lm3s811/TI_Stellaris/driverlib/ethernet.c ****     ulTemp = HWREG(ulBase + MAC_O_IA1);
 4471              		.loc 1 318 0
 4472 0052 7B68     		ldr	r3, [r7, #4]
 4473 0054 03F11803 		add	r3, r3, #24
 4474 0058 1B68     		ldr	r3, [r3, #0]
 4475 005a BB60     		str	r3, [r7, #8]
 319:/home/cuil/workspace/arm/lm3s811/TI_Stellaris/driverlib/ethernet.c ****     pucMACAddr[4] = pucTemp[0];
 4476              		.loc 1 319 0
 4477 005c 3B68     		ldr	r3, [r7, #0]
 4478 005e 03F10403 		add	r3, r3, #4
 4479 0062 FA68     		ldr	r2, [r7, #12]
 4480 0064 1278     		ldrb	r2, [r2, #0]	@ zero_extendqisi2
 4481 0066 1A70     		strb	r2, [r3, #0]
 320:/home/cuil/workspace/arm/lm3s811/TI_Stellaris/driverlib/ethernet.c ****     pucMACAddr[5] = pucTemp[1];
 4482              		.loc 1 320 0
 4483 0068 3B68     		ldr	r3, [r7, #0]
 4484 006a 03F10503 		add	r3, r3, #5
 4485 006e FA68     		ldr	r2, [r7, #12]
 4486 0070 02F10102 		add	r2, r2, #1
 4487 0074 1278     		ldrb	r2, [r2, #0]	@ zero_extendqisi2
 4488 0076 1A70     		strb	r2, [r3, #0]
 321:/home/cuil/workspace/arm/lm3s811/TI_Stellaris/driverlib/ethernet.c **** }
 4489              		.loc 1 321 0
 4490 0078 07F11407 		add	r7, r7, #20
 4491 007c BD46     		mov	sp, r7
 4492 007e 80BC     		pop	{r7}
 4493 0080 7047     		bx	lr
 4494              		.cfi_endproc
 4495              	.LFE4:
 4497 0082 00BF     		.section	.text.EthernetEnable,"ax",%progbits
 4498              		.align	2
 4499              		.global	EthernetEnable
 4500              		.thumb
 4501              		.thumb_func
 4503              	EthernetEnable:
 4504              	.LFB5:
 322:/home/cuil/workspace/arm/lm3s811/TI_Stellaris/driverlib/ethernet.c **** 
 323:/home/cuil/workspace/arm/lm3s811/TI_Stellaris/driverlib/ethernet.c **** //*****************************************************************************
 324:/home/cuil/workspace/arm/lm3s811/TI_Stellaris/driverlib/ethernet.c **** //
 325:/home/cuil/workspace/arm/lm3s811/TI_Stellaris/driverlib/ethernet.c **** //! Enables the Ethernet controller for normal operation.
 326:/home/cuil/workspace/arm/lm3s811/TI_Stellaris/driverlib/ethernet.c **** //!
 327:/home/cuil/workspace/arm/lm3s811/TI_Stellaris/driverlib/ethernet.c **** //! \param ulBase is the base address of the controller.
 328:/home/cuil/workspace/arm/lm3s811/TI_Stellaris/driverlib/ethernet.c **** //!
 329:/home/cuil/workspace/arm/lm3s811/TI_Stellaris/driverlib/ethernet.c **** //! Once the Ethernet controller has been configured using the
 330:/home/cuil/workspace/arm/lm3s811/TI_Stellaris/driverlib/ethernet.c **** //! EthernetConfigSet() function and the MAC address has been programmed using
 331:/home/cuil/workspace/arm/lm3s811/TI_Stellaris/driverlib/ethernet.c **** //! the EthernetMACAddrSet() function, this API function can be called to
 332:/home/cuil/workspace/arm/lm3s811/TI_Stellaris/driverlib/ethernet.c **** //! enable the controller for normal operation.
 333:/home/cuil/workspace/arm/lm3s811/TI_Stellaris/driverlib/ethernet.c **** //!
 334:/home/cuil/workspace/arm/lm3s811/TI_Stellaris/driverlib/ethernet.c **** //! This function enables the controller's transmitter and receiver, and
 335:/home/cuil/workspace/arm/lm3s811/TI_Stellaris/driverlib/ethernet.c **** //! resets the receive FIFO.
 336:/home/cuil/workspace/arm/lm3s811/TI_Stellaris/driverlib/ethernet.c **** //!
 337:/home/cuil/workspace/arm/lm3s811/TI_Stellaris/driverlib/ethernet.c **** //! \return None.
 338:/home/cuil/workspace/arm/lm3s811/TI_Stellaris/driverlib/ethernet.c **** //
 339:/home/cuil/workspace/arm/lm3s811/TI_Stellaris/driverlib/ethernet.c **** //*****************************************************************************
 340:/home/cuil/workspace/arm/lm3s811/TI_Stellaris/driverlib/ethernet.c **** void
 341:/home/cuil/workspace/arm/lm3s811/TI_Stellaris/driverlib/ethernet.c **** EthernetEnable(unsigned long ulBase)
 342:/home/cuil/workspace/arm/lm3s811/TI_Stellaris/driverlib/ethernet.c **** {
 4505              		.loc 1 342 0
 4506              		.cfi_startproc
 4507              		@ args = 0, pretend = 0, frame = 8
 4508              		@ frame_needed = 1, uses_anonymous_args = 0
 4509              		@ link register save eliminated.
 4510 0000 80B4     		push	{r7}
 4511              	.LCFI15:
 4512              		.cfi_def_cfa_offset 4
 4513 0002 83B0     		sub	sp, sp, #12
 4514              	.LCFI16:
 4515              		.cfi_def_cfa_offset 16
 4516 0004 00AF     		add	r7, sp, #0
 4517              		.cfi_offset 7, -4
 4518              	.LCFI17:
 4519              		.cfi_def_cfa_register 7
 4520 0006 7860     		str	r0, [r7, #4]
 343:/home/cuil/workspace/arm/lm3s811/TI_Stellaris/driverlib/ethernet.c ****     //
 344:/home/cuil/workspace/arm/lm3s811/TI_Stellaris/driverlib/ethernet.c ****     // Check the arguments.
 345:/home/cuil/workspace/arm/lm3s811/TI_Stellaris/driverlib/ethernet.c ****     //
 346:/home/cuil/workspace/arm/lm3s811/TI_Stellaris/driverlib/ethernet.c ****     ASSERT(ulBase == ETH_BASE);
 347:/home/cuil/workspace/arm/lm3s811/TI_Stellaris/driverlib/ethernet.c **** 
 348:/home/cuil/workspace/arm/lm3s811/TI_Stellaris/driverlib/ethernet.c ****     //
 349:/home/cuil/workspace/arm/lm3s811/TI_Stellaris/driverlib/ethernet.c ****     // Reset the receive FIFO.
 350:/home/cuil/workspace/arm/lm3s811/TI_Stellaris/driverlib/ethernet.c ****     //
 351:/home/cuil/workspace/arm/lm3s811/TI_Stellaris/driverlib/ethernet.c ****     HWREG(ulBase + MAC_O_RCTL) |= MAC_RCTL_RSTFIFO;
 4521              		.loc 1 351 0
 4522 0008 7B68     		ldr	r3, [r7, #4]
 4523 000a 03F10803 		add	r3, r3, #8
 4524 000e 7A68     		ldr	r2, [r7, #4]
 4525 0010 02F10802 		add	r2, r2, #8
 4526 0014 1268     		ldr	r2, [r2, #0]
 4527 0016 42F01002 		orr	r2, r2, #16
 4528 001a 1A60     		str	r2, [r3, #0]
 352:/home/cuil/workspace/arm/lm3s811/TI_Stellaris/driverlib/ethernet.c **** 
 353:/home/cuil/workspace/arm/lm3s811/TI_Stellaris/driverlib/ethernet.c ****     //
 354:/home/cuil/workspace/arm/lm3s811/TI_Stellaris/driverlib/ethernet.c ****     // Enable the Ethernet receiver.
 355:/home/cuil/workspace/arm/lm3s811/TI_Stellaris/driverlib/ethernet.c ****     //
 356:/home/cuil/workspace/arm/lm3s811/TI_Stellaris/driverlib/ethernet.c ****     HWREG(ulBase + MAC_O_RCTL) |= MAC_RCTL_RXEN;
 4529              		.loc 1 356 0
 4530 001c 7B68     		ldr	r3, [r7, #4]
 4531 001e 03F10803 		add	r3, r3, #8
 4532 0022 7A68     		ldr	r2, [r7, #4]
 4533 0024 02F10802 		add	r2, r2, #8
 4534 0028 1268     		ldr	r2, [r2, #0]
 4535 002a 42F00102 		orr	r2, r2, #1
 4536 002e 1A60     		str	r2, [r3, #0]
 357:/home/cuil/workspace/arm/lm3s811/TI_Stellaris/driverlib/ethernet.c **** 
 358:/home/cuil/workspace/arm/lm3s811/TI_Stellaris/driverlib/ethernet.c ****     //
 359:/home/cuil/workspace/arm/lm3s811/TI_Stellaris/driverlib/ethernet.c ****     // Enable Ethernet transmitter.
 360:/home/cuil/workspace/arm/lm3s811/TI_Stellaris/driverlib/ethernet.c ****     //
 361:/home/cuil/workspace/arm/lm3s811/TI_Stellaris/driverlib/ethernet.c ****     HWREG(ulBase + MAC_O_TCTL) |= MAC_TCTL_TXEN;
 4537              		.loc 1 361 0
 4538 0030 7B68     		ldr	r3, [r7, #4]
 4539 0032 03F10C03 		add	r3, r3, #12
 4540 0036 7A68     		ldr	r2, [r7, #4]
 4541 0038 02F10C02 		add	r2, r2, #12
 4542 003c 1268     		ldr	r2, [r2, #0]
 4543 003e 42F00102 		orr	r2, r2, #1
 4544 0042 1A60     		str	r2, [r3, #0]
 362:/home/cuil/workspace/arm/lm3s811/TI_Stellaris/driverlib/ethernet.c **** 
 363:/home/cuil/workspace/arm/lm3s811/TI_Stellaris/driverlib/ethernet.c ****     //
 364:/home/cuil/workspace/arm/lm3s811/TI_Stellaris/driverlib/ethernet.c ****     // Reset the receive FIFO again, after the receiver has been enabled.
 365:/home/cuil/workspace/arm/lm3s811/TI_Stellaris/driverlib/ethernet.c ****     //
 366:/home/cuil/workspace/arm/lm3s811/TI_Stellaris/driverlib/ethernet.c ****     HWREG(ulBase + MAC_O_RCTL) |= MAC_RCTL_RSTFIFO;
 4545              		.loc 1 366 0
 4546 0044 7B68     		ldr	r3, [r7, #4]
 4547 0046 03F10803 		add	r3, r3, #8
 4548 004a 7A68     		ldr	r2, [r7, #4]
 4549 004c 02F10802 		add	r2, r2, #8
 4550 0050 1268     		ldr	r2, [r2, #0]
 4551 0052 42F01002 		orr	r2, r2, #16
 4552 0056 1A60     		str	r2, [r3, #0]
 367:/home/cuil/workspace/arm/lm3s811/TI_Stellaris/driverlib/ethernet.c **** }
 4553              		.loc 1 367 0
 4554 0058 07F10C07 		add	r7, r7, #12
 4555 005c BD46     		mov	sp, r7
 4556 005e 80BC     		pop	{r7}
 4557 0060 7047     		bx	lr
 4558              		.cfi_endproc
 4559              	.LFE5:
 4561 0062 00BF     		.section	.text.EthernetDisable,"ax",%progbits
 4562              		.align	2
 4563              		.global	EthernetDisable
 4564              		.thumb
 4565              		.thumb_func
 4567              	EthernetDisable:
 4568              	.LFB6:
 368:/home/cuil/workspace/arm/lm3s811/TI_Stellaris/driverlib/ethernet.c **** 
 369:/home/cuil/workspace/arm/lm3s811/TI_Stellaris/driverlib/ethernet.c **** //*****************************************************************************
 370:/home/cuil/workspace/arm/lm3s811/TI_Stellaris/driverlib/ethernet.c **** //
 371:/home/cuil/workspace/arm/lm3s811/TI_Stellaris/driverlib/ethernet.c **** //! Disables the Ethernet controller.
 372:/home/cuil/workspace/arm/lm3s811/TI_Stellaris/driverlib/ethernet.c **** //!
 373:/home/cuil/workspace/arm/lm3s811/TI_Stellaris/driverlib/ethernet.c **** //! \param ulBase is the base address of the controller.
 374:/home/cuil/workspace/arm/lm3s811/TI_Stellaris/driverlib/ethernet.c **** //!
 375:/home/cuil/workspace/arm/lm3s811/TI_Stellaris/driverlib/ethernet.c **** //! When terminating operations on the Ethernet interface, this function should
 376:/home/cuil/workspace/arm/lm3s811/TI_Stellaris/driverlib/ethernet.c **** //! be called.  This function disables the transmitter and receiver, and
 377:/home/cuil/workspace/arm/lm3s811/TI_Stellaris/driverlib/ethernet.c **** //! clears out the receive FIFO.
 378:/home/cuil/workspace/arm/lm3s811/TI_Stellaris/driverlib/ethernet.c **** //!
 379:/home/cuil/workspace/arm/lm3s811/TI_Stellaris/driverlib/ethernet.c **** //! \return None.
 380:/home/cuil/workspace/arm/lm3s811/TI_Stellaris/driverlib/ethernet.c **** //
 381:/home/cuil/workspace/arm/lm3s811/TI_Stellaris/driverlib/ethernet.c **** //*****************************************************************************
 382:/home/cuil/workspace/arm/lm3s811/TI_Stellaris/driverlib/ethernet.c **** void
 383:/home/cuil/workspace/arm/lm3s811/TI_Stellaris/driverlib/ethernet.c **** EthernetDisable(unsigned long ulBase)
 384:/home/cuil/workspace/arm/lm3s811/TI_Stellaris/driverlib/ethernet.c **** {
 4569              		.loc 1 384 0
 4570              		.cfi_startproc
 4571              		@ args = 0, pretend = 0, frame = 8
 4572              		@ frame_needed = 1, uses_anonymous_args = 0
 4573              		@ link register save eliminated.
 4574 0000 80B4     		push	{r7}
 4575              	.LCFI18:
 4576              		.cfi_def_cfa_offset 4
 4577 0002 83B0     		sub	sp, sp, #12
 4578              	.LCFI19:
 4579              		.cfi_def_cfa_offset 16
 4580 0004 00AF     		add	r7, sp, #0
 4581              		.cfi_offset 7, -4
 4582              	.LCFI20:
 4583              		.cfi_def_cfa_register 7
 4584 0006 7860     		str	r0, [r7, #4]
 385:/home/cuil/workspace/arm/lm3s811/TI_Stellaris/driverlib/ethernet.c ****     //
 386:/home/cuil/workspace/arm/lm3s811/TI_Stellaris/driverlib/ethernet.c ****     // Check the arguments.
 387:/home/cuil/workspace/arm/lm3s811/TI_Stellaris/driverlib/ethernet.c ****     //
 388:/home/cuil/workspace/arm/lm3s811/TI_Stellaris/driverlib/ethernet.c ****     ASSERT(ulBase == ETH_BASE);
 389:/home/cuil/workspace/arm/lm3s811/TI_Stellaris/driverlib/ethernet.c **** 
 390:/home/cuil/workspace/arm/lm3s811/TI_Stellaris/driverlib/ethernet.c ****     //
 391:/home/cuil/workspace/arm/lm3s811/TI_Stellaris/driverlib/ethernet.c ****     // Reset the receive FIFO.
 392:/home/cuil/workspace/arm/lm3s811/TI_Stellaris/driverlib/ethernet.c ****     //
 393:/home/cuil/workspace/arm/lm3s811/TI_Stellaris/driverlib/ethernet.c ****     HWREG(ulBase + MAC_O_RCTL) |= MAC_RCTL_RSTFIFO;
 4585              		.loc 1 393 0
 4586 0008 7B68     		ldr	r3, [r7, #4]
 4587 000a 03F10803 		add	r3, r3, #8
 4588 000e 7A68     		ldr	r2, [r7, #4]
 4589 0010 02F10802 		add	r2, r2, #8
 4590 0014 1268     		ldr	r2, [r2, #0]
 4591 0016 42F01002 		orr	r2, r2, #16
 4592 001a 1A60     		str	r2, [r3, #0]
 394:/home/cuil/workspace/arm/lm3s811/TI_Stellaris/driverlib/ethernet.c **** 
 395:/home/cuil/workspace/arm/lm3s811/TI_Stellaris/driverlib/ethernet.c ****     //
 396:/home/cuil/workspace/arm/lm3s811/TI_Stellaris/driverlib/ethernet.c ****     // Disable the Ethernet transmitter.
 397:/home/cuil/workspace/arm/lm3s811/TI_Stellaris/driverlib/ethernet.c ****     //
 398:/home/cuil/workspace/arm/lm3s811/TI_Stellaris/driverlib/ethernet.c ****     HWREG(ulBase + MAC_O_TCTL) &= ~(MAC_TCTL_TXEN);
 4593              		.loc 1 398 0
 4594 001c 7B68     		ldr	r3, [r7, #4]
 4595 001e 03F10C03 		add	r3, r3, #12
 4596 0022 7A68     		ldr	r2, [r7, #4]
 4597 0024 02F10C02 		add	r2, r2, #12
 4598 0028 1268     		ldr	r2, [r2, #0]
 4599 002a 22F00102 		bic	r2, r2, #1
 4600 002e 1A60     		str	r2, [r3, #0]
 399:/home/cuil/workspace/arm/lm3s811/TI_Stellaris/driverlib/ethernet.c **** 
 400:/home/cuil/workspace/arm/lm3s811/TI_Stellaris/driverlib/ethernet.c ****     //
 401:/home/cuil/workspace/arm/lm3s811/TI_Stellaris/driverlib/ethernet.c ****     // Disable the Ethernet receiver.
 402:/home/cuil/workspace/arm/lm3s811/TI_Stellaris/driverlib/ethernet.c ****     //
 403:/home/cuil/workspace/arm/lm3s811/TI_Stellaris/driverlib/ethernet.c ****     HWREG(ulBase + MAC_O_RCTL) &= ~(MAC_RCTL_RXEN);
 4601              		.loc 1 403 0
 4602 0030 7B68     		ldr	r3, [r7, #4]
 4603 0032 03F10803 		add	r3, r3, #8
 4604 0036 7A68     		ldr	r2, [r7, #4]
 4605 0038 02F10802 		add	r2, r2, #8
 4606 003c 1268     		ldr	r2, [r2, #0]
 4607 003e 22F00102 		bic	r2, r2, #1
 4608 0042 1A60     		str	r2, [r3, #0]
 404:/home/cuil/workspace/arm/lm3s811/TI_Stellaris/driverlib/ethernet.c **** 
 405:/home/cuil/workspace/arm/lm3s811/TI_Stellaris/driverlib/ethernet.c ****     //
 406:/home/cuil/workspace/arm/lm3s811/TI_Stellaris/driverlib/ethernet.c ****     // Reset the receive FIFO again, after the receiver has been disabled.
 407:/home/cuil/workspace/arm/lm3s811/TI_Stellaris/driverlib/ethernet.c ****     //
 408:/home/cuil/workspace/arm/lm3s811/TI_Stellaris/driverlib/ethernet.c ****     HWREG(ulBase + MAC_O_RCTL) |= MAC_RCTL_RSTFIFO;
 4609              		.loc 1 408 0
 4610 0044 7B68     		ldr	r3, [r7, #4]
 4611 0046 03F10803 		add	r3, r3, #8
 4612 004a 7A68     		ldr	r2, [r7, #4]
 4613 004c 02F10802 		add	r2, r2, #8
 4614 0050 1268     		ldr	r2, [r2, #0]
 4615 0052 42F01002 		orr	r2, r2, #16
 4616 0056 1A60     		str	r2, [r3, #0]
 409:/home/cuil/workspace/arm/lm3s811/TI_Stellaris/driverlib/ethernet.c **** }
 4617              		.loc 1 409 0
 4618 0058 07F10C07 		add	r7, r7, #12
 4619 005c BD46     		mov	sp, r7
 4620 005e 80BC     		pop	{r7}
 4621 0060 7047     		bx	lr
 4622              		.cfi_endproc
 4623              	.LFE6:
 4625 0062 00BF     		.section	.text.EthernetPacketAvail,"ax",%progbits
 4626              		.align	2
 4627              		.global	EthernetPacketAvail
 4628              		.thumb
 4629              		.thumb_func
 4631              	EthernetPacketAvail:
 4632              	.LFB7:
 410:/home/cuil/workspace/arm/lm3s811/TI_Stellaris/driverlib/ethernet.c **** 
 411:/home/cuil/workspace/arm/lm3s811/TI_Stellaris/driverlib/ethernet.c **** //*****************************************************************************
 412:/home/cuil/workspace/arm/lm3s811/TI_Stellaris/driverlib/ethernet.c **** //
 413:/home/cuil/workspace/arm/lm3s811/TI_Stellaris/driverlib/ethernet.c **** //! Check for packet available from the Ethernet controller.
 414:/home/cuil/workspace/arm/lm3s811/TI_Stellaris/driverlib/ethernet.c **** //!
 415:/home/cuil/workspace/arm/lm3s811/TI_Stellaris/driverlib/ethernet.c **** //! \param ulBase is the base address of the controller.
 416:/home/cuil/workspace/arm/lm3s811/TI_Stellaris/driverlib/ethernet.c **** //!
 417:/home/cuil/workspace/arm/lm3s811/TI_Stellaris/driverlib/ethernet.c **** //! The Ethernet controller provides a register that contains the number of
 418:/home/cuil/workspace/arm/lm3s811/TI_Stellaris/driverlib/ethernet.c **** //! packets available in the receive FIFO.  When the last bytes of a packet are
 419:/home/cuil/workspace/arm/lm3s811/TI_Stellaris/driverlib/ethernet.c **** //! successfully received (that is, the frame check sequence bytes), the packet
 420:/home/cuil/workspace/arm/lm3s811/TI_Stellaris/driverlib/ethernet.c **** //! count is incremented.  Once the packet has been fully read (including the
 421:/home/cuil/workspace/arm/lm3s811/TI_Stellaris/driverlib/ethernet.c **** //! frame check sequence bytes) from the FIFO, the packet count is decremented.
 422:/home/cuil/workspace/arm/lm3s811/TI_Stellaris/driverlib/ethernet.c **** //!
 423:/home/cuil/workspace/arm/lm3s811/TI_Stellaris/driverlib/ethernet.c **** //! \return Returns \b true if there are one or more packets available in the
 424:/home/cuil/workspace/arm/lm3s811/TI_Stellaris/driverlib/ethernet.c **** //! receive FIFO, including the current packet being read, and \b false
 425:/home/cuil/workspace/arm/lm3s811/TI_Stellaris/driverlib/ethernet.c **** //! otherwise.
 426:/home/cuil/workspace/arm/lm3s811/TI_Stellaris/driverlib/ethernet.c **** //
 427:/home/cuil/workspace/arm/lm3s811/TI_Stellaris/driverlib/ethernet.c **** //*****************************************************************************
 428:/home/cuil/workspace/arm/lm3s811/TI_Stellaris/driverlib/ethernet.c **** tBoolean
 429:/home/cuil/workspace/arm/lm3s811/TI_Stellaris/driverlib/ethernet.c **** EthernetPacketAvail(unsigned long ulBase)
 430:/home/cuil/workspace/arm/lm3s811/TI_Stellaris/driverlib/ethernet.c **** {
 4633              		.loc 1 430 0
 4634              		.cfi_startproc
 4635              		@ args = 0, pretend = 0, frame = 8
 4636              		@ frame_needed = 1, uses_anonymous_args = 0
 4637              		@ link register save eliminated.
 4638 0000 80B4     		push	{r7}
 4639              	.LCFI21:
 4640              		.cfi_def_cfa_offset 4
 4641 0002 83B0     		sub	sp, sp, #12
 4642              	.LCFI22:
 4643              		.cfi_def_cfa_offset 16
 4644 0004 00AF     		add	r7, sp, #0
 4645              		.cfi_offset 7, -4
 4646              	.LCFI23:
 4647              		.cfi_def_cfa_register 7
 4648 0006 7860     		str	r0, [r7, #4]
 431:/home/cuil/workspace/arm/lm3s811/TI_Stellaris/driverlib/ethernet.c ****     //
 432:/home/cuil/workspace/arm/lm3s811/TI_Stellaris/driverlib/ethernet.c ****     // Check the arguments.
 433:/home/cuil/workspace/arm/lm3s811/TI_Stellaris/driverlib/ethernet.c ****     //
 434:/home/cuil/workspace/arm/lm3s811/TI_Stellaris/driverlib/ethernet.c ****     ASSERT(ulBase == ETH_BASE);
 435:/home/cuil/workspace/arm/lm3s811/TI_Stellaris/driverlib/ethernet.c **** 
 436:/home/cuil/workspace/arm/lm3s811/TI_Stellaris/driverlib/ethernet.c ****     //
 437:/home/cuil/workspace/arm/lm3s811/TI_Stellaris/driverlib/ethernet.c ****     // Return the availability of packets.
 438:/home/cuil/workspace/arm/lm3s811/TI_Stellaris/driverlib/ethernet.c ****     //
 439:/home/cuil/workspace/arm/lm3s811/TI_Stellaris/driverlib/ethernet.c ****     return((HWREG(ulBase + MAC_O_NP) & MAC_NP_NPR_M) ? true : false);
 4649              		.loc 1 439 0
 4650 0008 7B68     		ldr	r3, [r7, #4]
 4651 000a 03F13403 		add	r3, r3, #52
 4652 000e 1B68     		ldr	r3, [r3, #0]
 4653 0010 03F03F03 		and	r3, r3, #63
 4654 0014 002B     		cmp	r3, #0
 4655 0016 0CBF     		ite	eq
 4656 0018 0023     		moveq	r3, #0
 4657 001a 0123     		movne	r3, #1
 4658 001c DBB2     		uxtb	r3, r3
 440:/home/cuil/workspace/arm/lm3s811/TI_Stellaris/driverlib/ethernet.c **** }
 4659              		.loc 1 440 0
 4660 001e 1846     		mov	r0, r3
 4661 0020 07F10C07 		add	r7, r7, #12
 4662 0024 BD46     		mov	sp, r7
 4663 0026 80BC     		pop	{r7}
 4664 0028 7047     		bx	lr
 4665              		.cfi_endproc
 4666              	.LFE7:
 4668 002a 00BF     		.section	.text.EthernetSpaceAvail,"ax",%progbits
 4669              		.align	2
 4670              		.global	EthernetSpaceAvail
 4671              		.thumb
 4672              		.thumb_func
 4674              	EthernetSpaceAvail:
 4675              	.LFB8:
 441:/home/cuil/workspace/arm/lm3s811/TI_Stellaris/driverlib/ethernet.c **** 
 442:/home/cuil/workspace/arm/lm3s811/TI_Stellaris/driverlib/ethernet.c **** //*****************************************************************************
 443:/home/cuil/workspace/arm/lm3s811/TI_Stellaris/driverlib/ethernet.c **** //
 444:/home/cuil/workspace/arm/lm3s811/TI_Stellaris/driverlib/ethernet.c **** //! Checks for packet space available in the Ethernet controller.
 445:/home/cuil/workspace/arm/lm3s811/TI_Stellaris/driverlib/ethernet.c **** //!
 446:/home/cuil/workspace/arm/lm3s811/TI_Stellaris/driverlib/ethernet.c **** //! \param ulBase is the base address of the controller.
 447:/home/cuil/workspace/arm/lm3s811/TI_Stellaris/driverlib/ethernet.c **** //!
 448:/home/cuil/workspace/arm/lm3s811/TI_Stellaris/driverlib/ethernet.c **** //! The Ethernet controller's transmit FIFO is designed to support a single
 449:/home/cuil/workspace/arm/lm3s811/TI_Stellaris/driverlib/ethernet.c **** //! packet at a time.  After the packet has been written into the FIFO, the
 450:/home/cuil/workspace/arm/lm3s811/TI_Stellaris/driverlib/ethernet.c **** //! transmit request bit must be set to enable the transmission of the packet.
 451:/home/cuil/workspace/arm/lm3s811/TI_Stellaris/driverlib/ethernet.c **** //! Only after the packet has been transmitted can a new packet be written
 452:/home/cuil/workspace/arm/lm3s811/TI_Stellaris/driverlib/ethernet.c **** //! into the FIFO.  This function simply checks to see if a packet is
 453:/home/cuil/workspace/arm/lm3s811/TI_Stellaris/driverlib/ethernet.c **** //! in progress.  If so, there is no space available in the transmit FIFO.
 454:/home/cuil/workspace/arm/lm3s811/TI_Stellaris/driverlib/ethernet.c **** //!
 455:/home/cuil/workspace/arm/lm3s811/TI_Stellaris/driverlib/ethernet.c **** //! \return Returns \b true if a space is available in the transmit FIFO, and
 456:/home/cuil/workspace/arm/lm3s811/TI_Stellaris/driverlib/ethernet.c **** //! \b false otherwise.
 457:/home/cuil/workspace/arm/lm3s811/TI_Stellaris/driverlib/ethernet.c **** //
 458:/home/cuil/workspace/arm/lm3s811/TI_Stellaris/driverlib/ethernet.c **** //*****************************************************************************
 459:/home/cuil/workspace/arm/lm3s811/TI_Stellaris/driverlib/ethernet.c **** tBoolean
 460:/home/cuil/workspace/arm/lm3s811/TI_Stellaris/driverlib/ethernet.c **** EthernetSpaceAvail(unsigned long ulBase)
 461:/home/cuil/workspace/arm/lm3s811/TI_Stellaris/driverlib/ethernet.c **** {
 4676              		.loc 1 461 0
 4677              		.cfi_startproc
 4678              		@ args = 0, pretend = 0, frame = 8
 4679              		@ frame_needed = 1, uses_anonymous_args = 0
 4680              		@ link register save eliminated.
 4681 0000 80B4     		push	{r7}
 4682              	.LCFI24:
 4683              		.cfi_def_cfa_offset 4
 4684 0002 83B0     		sub	sp, sp, #12
 4685              	.LCFI25:
 4686              		.cfi_def_cfa_offset 16
 4687 0004 00AF     		add	r7, sp, #0
 4688              		.cfi_offset 7, -4
 4689              	.LCFI26:
 4690              		.cfi_def_cfa_register 7
 4691 0006 7860     		str	r0, [r7, #4]
 462:/home/cuil/workspace/arm/lm3s811/TI_Stellaris/driverlib/ethernet.c ****     //
 463:/home/cuil/workspace/arm/lm3s811/TI_Stellaris/driverlib/ethernet.c ****     // Check the arguments.
 464:/home/cuil/workspace/arm/lm3s811/TI_Stellaris/driverlib/ethernet.c ****     //
 465:/home/cuil/workspace/arm/lm3s811/TI_Stellaris/driverlib/ethernet.c ****     ASSERT(ulBase == ETH_BASE);
 466:/home/cuil/workspace/arm/lm3s811/TI_Stellaris/driverlib/ethernet.c **** 
 467:/home/cuil/workspace/arm/lm3s811/TI_Stellaris/driverlib/ethernet.c ****     //
 468:/home/cuil/workspace/arm/lm3s811/TI_Stellaris/driverlib/ethernet.c ****     // Return the availability of space.
 469:/home/cuil/workspace/arm/lm3s811/TI_Stellaris/driverlib/ethernet.c ****     //
 470:/home/cuil/workspace/arm/lm3s811/TI_Stellaris/driverlib/ethernet.c ****     return((HWREG(ulBase + MAC_O_TR) & MAC_TR_NEWTX) ? false : true);
 4692              		.loc 1 470 0
 4693 0008 7B68     		ldr	r3, [r7, #4]
 4694 000a 03F13803 		add	r3, r3, #56
 4695 000e 1B68     		ldr	r3, [r3, #0]
 4696 0010 03F00103 		and	r3, r3, #1
 4697 0014 DBB2     		uxtb	r3, r3
 4698 0016 002B     		cmp	r3, #0
 4699 0018 02D0     		beq	.L12
 4700              		.loc 1 470 0 is_stmt 0 discriminator 1
 4701 001a 4FF00003 		mov	r3, #0
 4702 001e 01E0     		b	.L13
 4703              	.L12:
 4704              		.loc 1 470 0 discriminator 2
 4705 0020 4FF00103 		mov	r3, #1
 4706              	.L13:
 471:/home/cuil/workspace/arm/lm3s811/TI_Stellaris/driverlib/ethernet.c **** }
 4707              		.loc 1 471 0 is_stmt 1 discriminator 3
 4708 0024 1846     		mov	r0, r3
 4709 0026 07F10C07 		add	r7, r7, #12
 4710 002a BD46     		mov	sp, r7
 4711 002c 80BC     		pop	{r7}
 4712 002e 7047     		bx	lr
 4713              		.cfi_endproc
 4714              	.LFE8:
 4716              		.section	.text.EthernetPacketGetInternal,"ax",%progbits
 4717              		.align	2
 4718              		.thumb
 4719              		.thumb_func
 4721              	EthernetPacketGetInternal:
 4722              	.LFB9:
 472:/home/cuil/workspace/arm/lm3s811/TI_Stellaris/driverlib/ethernet.c **** 
 473:/home/cuil/workspace/arm/lm3s811/TI_Stellaris/driverlib/ethernet.c **** //*****************************************************************************
 474:/home/cuil/workspace/arm/lm3s811/TI_Stellaris/driverlib/ethernet.c **** //
 475:/home/cuil/workspace/arm/lm3s811/TI_Stellaris/driverlib/ethernet.c **** //! \internal
 476:/home/cuil/workspace/arm/lm3s811/TI_Stellaris/driverlib/ethernet.c **** //!
 477:/home/cuil/workspace/arm/lm3s811/TI_Stellaris/driverlib/ethernet.c **** //! Internal function for reading a packet from the Ethernet controller.
 478:/home/cuil/workspace/arm/lm3s811/TI_Stellaris/driverlib/ethernet.c **** //!
 479:/home/cuil/workspace/arm/lm3s811/TI_Stellaris/driverlib/ethernet.c **** //! \param ulBase is the base address of the controller.
 480:/home/cuil/workspace/arm/lm3s811/TI_Stellaris/driverlib/ethernet.c **** //! \param pucBuf is the pointer to the packet buffer.
 481:/home/cuil/workspace/arm/lm3s811/TI_Stellaris/driverlib/ethernet.c **** //! \param lBufLen is the maximum number of bytes to be read into the buffer.
 482:/home/cuil/workspace/arm/lm3s811/TI_Stellaris/driverlib/ethernet.c **** //!
 483:/home/cuil/workspace/arm/lm3s811/TI_Stellaris/driverlib/ethernet.c **** //! Based on the following table of how the receive frame is stored in the
 484:/home/cuil/workspace/arm/lm3s811/TI_Stellaris/driverlib/ethernet.c **** //! receive FIFO, this function will extract a packet from the FIFO and store
 485:/home/cuil/workspace/arm/lm3s811/TI_Stellaris/driverlib/ethernet.c **** //! it in the packet buffer that was passed in.
 486:/home/cuil/workspace/arm/lm3s811/TI_Stellaris/driverlib/ethernet.c **** //!
 487:/home/cuil/workspace/arm/lm3s811/TI_Stellaris/driverlib/ethernet.c **** //! Format of the data in the RX FIFO is as follows:
 488:/home/cuil/workspace/arm/lm3s811/TI_Stellaris/driverlib/ethernet.c **** //!
 489:/home/cuil/workspace/arm/lm3s811/TI_Stellaris/driverlib/ethernet.c **** //! \verbatim
 490:/home/cuil/workspace/arm/lm3s811/TI_Stellaris/driverlib/ethernet.c **** //! +---------+----------+----------+----------+----------+
 491:/home/cuil/workspace/arm/lm3s811/TI_Stellaris/driverlib/ethernet.c **** //! |         | 31:24    | 23:16    | 15:8     | 7:0      |
 492:/home/cuil/workspace/arm/lm3s811/TI_Stellaris/driverlib/ethernet.c **** //! +---------+----------+----------+----------+----------+
 493:/home/cuil/workspace/arm/lm3s811/TI_Stellaris/driverlib/ethernet.c **** //! | Word 0  | DA 2     | DA 1     | FL MSB   | FL LSB   |
 494:/home/cuil/workspace/arm/lm3s811/TI_Stellaris/driverlib/ethernet.c **** //! +---------+----------+----------+----------+----------+
 495:/home/cuil/workspace/arm/lm3s811/TI_Stellaris/driverlib/ethernet.c **** //! | Word 1  | DA 6     | DA 5     | DA 4     | DA 3     |
 496:/home/cuil/workspace/arm/lm3s811/TI_Stellaris/driverlib/ethernet.c **** //! +---------+----------+----------+----------+----------+
 497:/home/cuil/workspace/arm/lm3s811/TI_Stellaris/driverlib/ethernet.c **** //! | Word 2  | SA 4     | SA 3     | SA 2     | SA 1     |
 498:/home/cuil/workspace/arm/lm3s811/TI_Stellaris/driverlib/ethernet.c **** //! +---------+----------+----------+----------+----------+
 499:/home/cuil/workspace/arm/lm3s811/TI_Stellaris/driverlib/ethernet.c **** //! | Word 3  | FT LSB   | FT MSB   | SA 6     | SA 5     |
 500:/home/cuil/workspace/arm/lm3s811/TI_Stellaris/driverlib/ethernet.c **** //! +---------+----------+----------+----------+----------+
 501:/home/cuil/workspace/arm/lm3s811/TI_Stellaris/driverlib/ethernet.c **** //! | Word 4  | DATA 4   | DATA 3   | DATA 2   | DATA 1   |
 502:/home/cuil/workspace/arm/lm3s811/TI_Stellaris/driverlib/ethernet.c **** //! +---------+----------+----------+----------+----------+
 503:/home/cuil/workspace/arm/lm3s811/TI_Stellaris/driverlib/ethernet.c **** //! | Word 5  | DATA 8   | DATA 7   | DATA 6   | DATA 5   |
 504:/home/cuil/workspace/arm/lm3s811/TI_Stellaris/driverlib/ethernet.c **** //! +---------+----------+----------+----------+----------+
 505:/home/cuil/workspace/arm/lm3s811/TI_Stellaris/driverlib/ethernet.c **** //! | Word 6  | DATA 12  | DATA 11  | DATA 10  | DATA 9   |
 506:/home/cuil/workspace/arm/lm3s811/TI_Stellaris/driverlib/ethernet.c **** //! +---------+----------+----------+----------+----------+
 507:/home/cuil/workspace/arm/lm3s811/TI_Stellaris/driverlib/ethernet.c **** //! | ...     |          |          |          |          |
 508:/home/cuil/workspace/arm/lm3s811/TI_Stellaris/driverlib/ethernet.c **** //! +---------+----------+----------+----------+----------+
 509:/home/cuil/workspace/arm/lm3s811/TI_Stellaris/driverlib/ethernet.c **** //! | Word X  | DATA n   | DATA n-1 | DATA n-2 | DATA n-3 |
 510:/home/cuil/workspace/arm/lm3s811/TI_Stellaris/driverlib/ethernet.c **** //! +---------+----------+----------+----------+----------+
 511:/home/cuil/workspace/arm/lm3s811/TI_Stellaris/driverlib/ethernet.c **** //! | Word Y  | FCS 4    | FCS 3    | FCS 2    | FCS 1    |
 512:/home/cuil/workspace/arm/lm3s811/TI_Stellaris/driverlib/ethernet.c **** //! +---------+----------+----------+----------+----------+
 513:/home/cuil/workspace/arm/lm3s811/TI_Stellaris/driverlib/ethernet.c **** //! \endverbatim
 514:/home/cuil/workspace/arm/lm3s811/TI_Stellaris/driverlib/ethernet.c **** //!
 515:/home/cuil/workspace/arm/lm3s811/TI_Stellaris/driverlib/ethernet.c **** //! Where FL is Frame Length, (FL + DA + SA + FT + DATA + FCS) Bytes.
 516:/home/cuil/workspace/arm/lm3s811/TI_Stellaris/driverlib/ethernet.c **** //! Where DA is Destination (MAC) Address.
 517:/home/cuil/workspace/arm/lm3s811/TI_Stellaris/driverlib/ethernet.c **** //! Where SA is Source (MAC) Address.
 518:/home/cuil/workspace/arm/lm3s811/TI_Stellaris/driverlib/ethernet.c **** //! Where FT is Frame Type (or Frame Length for Ethernet).
 519:/home/cuil/workspace/arm/lm3s811/TI_Stellaris/driverlib/ethernet.c **** //! Where DATA is Payload Data for the Ethernet Frame.
 520:/home/cuil/workspace/arm/lm3s811/TI_Stellaris/driverlib/ethernet.c **** //! Where FCS is the Frame Check Sequence.
 521:/home/cuil/workspace/arm/lm3s811/TI_Stellaris/driverlib/ethernet.c **** //!
 522:/home/cuil/workspace/arm/lm3s811/TI_Stellaris/driverlib/ethernet.c **** //! \return Returns the negated packet length \b -n if the packet is too large
 523:/home/cuil/workspace/arm/lm3s811/TI_Stellaris/driverlib/ethernet.c **** //! for \e pucBuf, and returns the packet length \b n otherwise.
 524:/home/cuil/workspace/arm/lm3s811/TI_Stellaris/driverlib/ethernet.c **** //
 525:/home/cuil/workspace/arm/lm3s811/TI_Stellaris/driverlib/ethernet.c **** //*****************************************************************************
 526:/home/cuil/workspace/arm/lm3s811/TI_Stellaris/driverlib/ethernet.c **** static long
 527:/home/cuil/workspace/arm/lm3s811/TI_Stellaris/driverlib/ethernet.c **** EthernetPacketGetInternal(unsigned long ulBase, unsigned char *pucBuf,
 528:/home/cuil/workspace/arm/lm3s811/TI_Stellaris/driverlib/ethernet.c ****                           long lBufLen)
 529:/home/cuil/workspace/arm/lm3s811/TI_Stellaris/driverlib/ethernet.c **** {
 4723              		.loc 1 529 0
 4724              		.cfi_startproc
 4725              		@ args = 0, pretend = 0, frame = 32
 4726              		@ frame_needed = 1, uses_anonymous_args = 0
 4727              		@ link register save eliminated.
 4728 0000 80B4     		push	{r7}
 4729              	.LCFI27:
 4730              		.cfi_def_cfa_offset 4
 4731 0002 89B0     		sub	sp, sp, #36
 4732              	.LCFI28:
 4733              		.cfi_def_cfa_offset 40
 4734 0004 00AF     		add	r7, sp, #0
 4735              		.cfi_offset 7, -4
 4736              	.LCFI29:
 4737              		.cfi_def_cfa_register 7
 4738 0006 F860     		str	r0, [r7, #12]
 4739 0008 B960     		str	r1, [r7, #8]
 4740 000a 7A60     		str	r2, [r7, #4]
 530:/home/cuil/workspace/arm/lm3s811/TI_Stellaris/driverlib/ethernet.c ****     unsigned long ulTemp;
 531:/home/cuil/workspace/arm/lm3s811/TI_Stellaris/driverlib/ethernet.c ****     long lFrameLen, lTempLen;
 532:/home/cuil/workspace/arm/lm3s811/TI_Stellaris/driverlib/ethernet.c ****     long i = 0;
 4741              		.loc 1 532 0
 4742 000c 4FF00003 		mov	r3, #0
 4743 0010 FB61     		str	r3, [r7, #28]
 533:/home/cuil/workspace/arm/lm3s811/TI_Stellaris/driverlib/ethernet.c **** 
 534:/home/cuil/workspace/arm/lm3s811/TI_Stellaris/driverlib/ethernet.c ****     //
 535:/home/cuil/workspace/arm/lm3s811/TI_Stellaris/driverlib/ethernet.c ****     // Read WORD 0 (see format above) from the FIFO, set the receive
 536:/home/cuil/workspace/arm/lm3s811/TI_Stellaris/driverlib/ethernet.c ****     // Frame Length and store the first two bytes of the destination
 537:/home/cuil/workspace/arm/lm3s811/TI_Stellaris/driverlib/ethernet.c ****     // address in the receive buffer.
 538:/home/cuil/workspace/arm/lm3s811/TI_Stellaris/driverlib/ethernet.c ****     //
 539:/home/cuil/workspace/arm/lm3s811/TI_Stellaris/driverlib/ethernet.c ****     ulTemp = HWREG(ulBase + MAC_O_DATA);
 4744              		.loc 1 539 0
 4745 0012 FB68     		ldr	r3, [r7, #12]
 4746 0014 03F11003 		add	r3, r3, #16
 4747 0018 1B68     		ldr	r3, [r3, #0]
 4748 001a BB61     		str	r3, [r7, #24]
 540:/home/cuil/workspace/arm/lm3s811/TI_Stellaris/driverlib/ethernet.c ****     lFrameLen = (long)(ulTemp & 0xFFFF);
 4749              		.loc 1 540 0
 4750 001c BB69     		ldr	r3, [r7, #24]
 4751 001e 4FEA0343 		lsl	r3, r3, #16
 4752 0022 4FEA1343 		lsr	r3, r3, #16
 4753 0026 7B61     		str	r3, [r7, #20]
 541:/home/cuil/workspace/arm/lm3s811/TI_Stellaris/driverlib/ethernet.c ****     pucBuf[i++] = (unsigned char) ((ulTemp >> 16) & 0xff);
 4754              		.loc 1 541 0
 4755 0028 FB69     		ldr	r3, [r7, #28]
 4756 002a BA68     		ldr	r2, [r7, #8]
 4757 002c D318     		adds	r3, r2, r3
 4758 002e BA69     		ldr	r2, [r7, #24]
 4759 0030 4FEA1242 		lsr	r2, r2, #16
 4760 0034 D2B2     		uxtb	r2, r2
 4761 0036 1A70     		strb	r2, [r3, #0]
 4762 0038 FB69     		ldr	r3, [r7, #28]
 4763 003a 03F10103 		add	r3, r3, #1
 4764 003e FB61     		str	r3, [r7, #28]
 542:/home/cuil/workspace/arm/lm3s811/TI_Stellaris/driverlib/ethernet.c ****     pucBuf[i++] = (unsigned char) ((ulTemp >> 24) & 0xff);
 4765              		.loc 1 542 0
 4766 0040 FB69     		ldr	r3, [r7, #28]
 4767 0042 BA68     		ldr	r2, [r7, #8]
 4768 0044 D318     		adds	r3, r2, r3
 4769 0046 BA69     		ldr	r2, [r7, #24]
 4770 0048 4FEA1262 		lsr	r2, r2, #24
 4771 004c D2B2     		uxtb	r2, r2
 4772 004e 1A70     		strb	r2, [r3, #0]
 4773 0050 FB69     		ldr	r3, [r7, #28]
 4774 0052 03F10103 		add	r3, r3, #1
 4775 0056 FB61     		str	r3, [r7, #28]
 543:/home/cuil/workspace/arm/lm3s811/TI_Stellaris/driverlib/ethernet.c **** 
 544:/home/cuil/workspace/arm/lm3s811/TI_Stellaris/driverlib/ethernet.c ****     //
 545:/home/cuil/workspace/arm/lm3s811/TI_Stellaris/driverlib/ethernet.c ****     // Read all but the last WORD into the receive buffer.
 546:/home/cuil/workspace/arm/lm3s811/TI_Stellaris/driverlib/ethernet.c ****     //
 547:/home/cuil/workspace/arm/lm3s811/TI_Stellaris/driverlib/ethernet.c ****     lTempLen = (lBufLen < (lFrameLen - 6)) ? lBufLen : (lFrameLen - 6);
 4776              		.loc 1 547 0
 4777 0058 7B69     		ldr	r3, [r7, #20]
 4778 005a A3F10602 		sub	r2, r3, #6
 4779 005e 7B68     		ldr	r3, [r7, #4]
 4780 0060 9A42     		cmp	r2, r3
 4781 0062 B8BF     		it	lt
 4782 0064 1346     		movlt	r3, r2
 4783 0066 3B61     		str	r3, [r7, #16]
 548:/home/cuil/workspace/arm/lm3s811/TI_Stellaris/driverlib/ethernet.c ****     while(i <= (lTempLen - 4))
 4784              		.loc 1 548 0
 4785 0068 0BE0     		b	.L15
 4786              	.L16:
 549:/home/cuil/workspace/arm/lm3s811/TI_Stellaris/driverlib/ethernet.c ****     {
 550:/home/cuil/workspace/arm/lm3s811/TI_Stellaris/driverlib/ethernet.c ****         *(unsigned long *)&pucBuf[i] = HWREG(ulBase + MAC_O_DATA);
 4787              		.loc 1 550 0
 4788 006a BA68     		ldr	r2, [r7, #8]
 4789 006c FB69     		ldr	r3, [r7, #28]
 4790 006e D318     		adds	r3, r2, r3
 4791 0070 FA68     		ldr	r2, [r7, #12]
 4792 0072 02F11002 		add	r2, r2, #16
 4793 0076 1268     		ldr	r2, [r2, #0]
 4794 0078 1A60     		str	r2, [r3, #0]
 551:/home/cuil/workspace/arm/lm3s811/TI_Stellaris/driverlib/ethernet.c ****         i += 4;
 4795              		.loc 1 551 0
 4796 007a FB69     		ldr	r3, [r7, #28]
 4797 007c 03F10403 		add	r3, r3, #4
 4798 0080 FB61     		str	r3, [r7, #28]
 4799              	.L15:
 548:/home/cuil/workspace/arm/lm3s811/TI_Stellaris/driverlib/ethernet.c ****     while(i <= (lTempLen - 4))
 4800              		.loc 1 548 0 discriminator 1
 4801 0082 3B69     		ldr	r3, [r7, #16]
 4802 0084 A3F10402 		sub	r2, r3, #4
 4803 0088 FB69     		ldr	r3, [r7, #28]
 4804 008a 9A42     		cmp	r2, r3
 4805 008c EDDA     		bge	.L16
 552:/home/cuil/workspace/arm/lm3s811/TI_Stellaris/driverlib/ethernet.c ****     }
 553:/home/cuil/workspace/arm/lm3s811/TI_Stellaris/driverlib/ethernet.c **** 
 554:/home/cuil/workspace/arm/lm3s811/TI_Stellaris/driverlib/ethernet.c ****     //
 555:/home/cuil/workspace/arm/lm3s811/TI_Stellaris/driverlib/ethernet.c ****     // Read the last 1, 2, or 3 BYTES into the buffer
 556:/home/cuil/workspace/arm/lm3s811/TI_Stellaris/driverlib/ethernet.c ****     //
 557:/home/cuil/workspace/arm/lm3s811/TI_Stellaris/driverlib/ethernet.c ****     if(i < lTempLen)
 4806              		.loc 1 557 0
 4807 008e FA69     		ldr	r2, [r7, #28]
 4808 0090 3B69     		ldr	r3, [r7, #16]
 4809 0092 9A42     		cmp	r2, r3
 4810 0094 71DA     		bge	.L24
 558:/home/cuil/workspace/arm/lm3s811/TI_Stellaris/driverlib/ethernet.c ****     {
 559:/home/cuil/workspace/arm/lm3s811/TI_Stellaris/driverlib/ethernet.c ****         ulTemp = HWREG(ulBase + MAC_O_DATA);
 4811              		.loc 1 559 0
 4812 0096 FB68     		ldr	r3, [r7, #12]
 4813 0098 03F11003 		add	r3, r3, #16
 4814 009c 1B68     		ldr	r3, [r3, #0]
 4815 009e BB61     		str	r3, [r7, #24]
 560:/home/cuil/workspace/arm/lm3s811/TI_Stellaris/driverlib/ethernet.c ****         if(i == lTempLen - 3)
 4816              		.loc 1 560 0
 4817 00a0 3B69     		ldr	r3, [r7, #16]
 4818 00a2 A3F10302 		sub	r2, r3, #3
 4819 00a6 FB69     		ldr	r3, [r7, #28]
 4820 00a8 9A42     		cmp	r2, r3
 4821 00aa 26D1     		bne	.L18
 561:/home/cuil/workspace/arm/lm3s811/TI_Stellaris/driverlib/ethernet.c ****         {
 562:/home/cuil/workspace/arm/lm3s811/TI_Stellaris/driverlib/ethernet.c ****             pucBuf[i++] = ((ulTemp >>  0) & 0xff);
 4822              		.loc 1 562 0
 4823 00ac FB69     		ldr	r3, [r7, #28]
 4824 00ae BA68     		ldr	r2, [r7, #8]
 4825 00b0 D318     		adds	r3, r2, r3
 4826 00b2 BA69     		ldr	r2, [r7, #24]
 4827 00b4 D2B2     		uxtb	r2, r2
 4828 00b6 1A70     		strb	r2, [r3, #0]
 4829 00b8 FB69     		ldr	r3, [r7, #28]
 4830 00ba 03F10103 		add	r3, r3, #1
 4831 00be FB61     		str	r3, [r7, #28]
 563:/home/cuil/workspace/arm/lm3s811/TI_Stellaris/driverlib/ethernet.c ****             pucBuf[i++] = ((ulTemp >>  8) & 0xff);
 4832              		.loc 1 563 0
 4833 00c0 FB69     		ldr	r3, [r7, #28]
 4834 00c2 BA68     		ldr	r2, [r7, #8]
 4835 00c4 D318     		adds	r3, r2, r3
 4836 00c6 BA69     		ldr	r2, [r7, #24]
 4837 00c8 4FEA1222 		lsr	r2, r2, #8
 4838 00cc D2B2     		uxtb	r2, r2
 4839 00ce 1A70     		strb	r2, [r3, #0]
 4840 00d0 FB69     		ldr	r3, [r7, #28]
 4841 00d2 03F10103 		add	r3, r3, #1
 4842 00d6 FB61     		str	r3, [r7, #28]
 564:/home/cuil/workspace/arm/lm3s811/TI_Stellaris/driverlib/ethernet.c ****             pucBuf[i++] = ((ulTemp >> 16) & 0xff);
 4843              		.loc 1 564 0
 4844 00d8 FB69     		ldr	r3, [r7, #28]
 4845 00da BA68     		ldr	r2, [r7, #8]
 4846 00dc D318     		adds	r3, r2, r3
 4847 00de BA69     		ldr	r2, [r7, #24]
 4848 00e0 4FEA1242 		lsr	r2, r2, #16
 4849 00e4 D2B2     		uxtb	r2, r2
 4850 00e6 1A70     		strb	r2, [r3, #0]
 4851 00e8 FB69     		ldr	r3, [r7, #28]
 4852 00ea 03F10103 		add	r3, r3, #1
 4853 00ee FB61     		str	r3, [r7, #28]
 565:/home/cuil/workspace/arm/lm3s811/TI_Stellaris/driverlib/ethernet.c ****             i += 1;
 4854              		.loc 1 565 0
 4855 00f0 FB69     		ldr	r3, [r7, #28]
 4856 00f2 03F10103 		add	r3, r3, #1
 4857 00f6 FB61     		str	r3, [r7, #28]
 566:/home/cuil/workspace/arm/lm3s811/TI_Stellaris/driverlib/ethernet.c ****         }
 567:/home/cuil/workspace/arm/lm3s811/TI_Stellaris/driverlib/ethernet.c ****         else if(i == lTempLen - 2)
 568:/home/cuil/workspace/arm/lm3s811/TI_Stellaris/driverlib/ethernet.c ****         {
 569:/home/cuil/workspace/arm/lm3s811/TI_Stellaris/driverlib/ethernet.c ****             pucBuf[i++] = ((ulTemp >>  0) & 0xff);
 570:/home/cuil/workspace/arm/lm3s811/TI_Stellaris/driverlib/ethernet.c ****             pucBuf[i++] = ((ulTemp >>  8) & 0xff);
 571:/home/cuil/workspace/arm/lm3s811/TI_Stellaris/driverlib/ethernet.c ****             i += 2;
 572:/home/cuil/workspace/arm/lm3s811/TI_Stellaris/driverlib/ethernet.c ****         }
 573:/home/cuil/workspace/arm/lm3s811/TI_Stellaris/driverlib/ethernet.c ****         else if(i == lTempLen - 1)
 574:/home/cuil/workspace/arm/lm3s811/TI_Stellaris/driverlib/ethernet.c ****         {
 575:/home/cuil/workspace/arm/lm3s811/TI_Stellaris/driverlib/ethernet.c ****             pucBuf[i++] = ((ulTemp >>  0) & 0xff);
 576:/home/cuil/workspace/arm/lm3s811/TI_Stellaris/driverlib/ethernet.c ****             i += 3;
 577:/home/cuil/workspace/arm/lm3s811/TI_Stellaris/driverlib/ethernet.c ****         }
 578:/home/cuil/workspace/arm/lm3s811/TI_Stellaris/driverlib/ethernet.c ****     }
 579:/home/cuil/workspace/arm/lm3s811/TI_Stellaris/driverlib/ethernet.c **** 
 580:/home/cuil/workspace/arm/lm3s811/TI_Stellaris/driverlib/ethernet.c ****     //
 581:/home/cuil/workspace/arm/lm3s811/TI_Stellaris/driverlib/ethernet.c ****     // Read any remaining WORDS (that did not fit into the buffer).
 582:/home/cuil/workspace/arm/lm3s811/TI_Stellaris/driverlib/ethernet.c ****     //
 583:/home/cuil/workspace/arm/lm3s811/TI_Stellaris/driverlib/ethernet.c ****     while(i < (lFrameLen - 2))
 4858              		.loc 1 583 0
 4859 00f8 42E0     		b	.L20
 4860              	.L18:
 567:/home/cuil/workspace/arm/lm3s811/TI_Stellaris/driverlib/ethernet.c ****         else if(i == lTempLen - 2)
 4861              		.loc 1 567 0
 4862 00fa 3B69     		ldr	r3, [r7, #16]
 4863 00fc A3F10202 		sub	r2, r3, #2
 4864 0100 FB69     		ldr	r3, [r7, #28]
 4865 0102 9A42     		cmp	r2, r3
 4866 0104 1AD1     		bne	.L19
 569:/home/cuil/workspace/arm/lm3s811/TI_Stellaris/driverlib/ethernet.c ****             pucBuf[i++] = ((ulTemp >>  0) & 0xff);
 4867              		.loc 1 569 0
 4868 0106 FB69     		ldr	r3, [r7, #28]
 4869 0108 BA68     		ldr	r2, [r7, #8]
 4870 010a D318     		adds	r3, r2, r3
 4871 010c BA69     		ldr	r2, [r7, #24]
 4872 010e D2B2     		uxtb	r2, r2
 4873 0110 1A70     		strb	r2, [r3, #0]
 4874 0112 FB69     		ldr	r3, [r7, #28]
 4875 0114 03F10103 		add	r3, r3, #1
 4876 0118 FB61     		str	r3, [r7, #28]
 570:/home/cuil/workspace/arm/lm3s811/TI_Stellaris/driverlib/ethernet.c ****             pucBuf[i++] = ((ulTemp >>  8) & 0xff);
 4877              		.loc 1 570 0
 4878 011a FB69     		ldr	r3, [r7, #28]
 4879 011c BA68     		ldr	r2, [r7, #8]
 4880 011e D318     		adds	r3, r2, r3
 4881 0120 BA69     		ldr	r2, [r7, #24]
 4882 0122 4FEA1222 		lsr	r2, r2, #8
 4883 0126 D2B2     		uxtb	r2, r2
 4884 0128 1A70     		strb	r2, [r3, #0]
 4885 012a FB69     		ldr	r3, [r7, #28]
 4886 012c 03F10103 		add	r3, r3, #1
 4887 0130 FB61     		str	r3, [r7, #28]
 571:/home/cuil/workspace/arm/lm3s811/TI_Stellaris/driverlib/ethernet.c ****             i += 2;
 4888              		.loc 1 571 0
 4889 0132 FB69     		ldr	r3, [r7, #28]
 4890 0134 03F10203 		add	r3, r3, #2
 4891 0138 FB61     		str	r3, [r7, #28]
 4892              		.loc 1 583 0
 4893 013a 21E0     		b	.L20
 4894              	.L19:
 573:/home/cuil/workspace/arm/lm3s811/TI_Stellaris/driverlib/ethernet.c ****         else if(i == lTempLen - 1)
 4895              		.loc 1 573 0
 4896 013c 3B69     		ldr	r3, [r7, #16]
 4897 013e 03F1FF32 		add	r2, r3, #-1
 4898 0142 FB69     		ldr	r3, [r7, #28]
 4899 0144 9A42     		cmp	r2, r3
 4900 0146 1AD1     		bne	.L25
 575:/home/cuil/workspace/arm/lm3s811/TI_Stellaris/driverlib/ethernet.c ****             pucBuf[i++] = ((ulTemp >>  0) & 0xff);
 4901              		.loc 1 575 0
 4902 0148 FB69     		ldr	r3, [r7, #28]
 4903 014a BA68     		ldr	r2, [r7, #8]
 4904 014c D318     		adds	r3, r2, r3
 4905 014e BA69     		ldr	r2, [r7, #24]
 4906 0150 D2B2     		uxtb	r2, r2
 4907 0152 1A70     		strb	r2, [r3, #0]
 4908 0154 FB69     		ldr	r3, [r7, #28]
 4909 0156 03F10103 		add	r3, r3, #1
 4910 015a FB61     		str	r3, [r7, #28]
 576:/home/cuil/workspace/arm/lm3s811/TI_Stellaris/driverlib/ethernet.c ****             i += 3;
 4911              		.loc 1 576 0
 4912 015c FB69     		ldr	r3, [r7, #28]
 4913 015e 03F10303 		add	r3, r3, #3
 4914 0162 FB61     		str	r3, [r7, #28]
 4915              		.loc 1 583 0
 4916 0164 0CE0     		b	.L20
 4917              	.L21:
 584:/home/cuil/workspace/arm/lm3s811/TI_Stellaris/driverlib/ethernet.c ****     {
 585:/home/cuil/workspace/arm/lm3s811/TI_Stellaris/driverlib/ethernet.c ****         ulTemp = HWREG(ulBase + MAC_O_DATA);
 4918              		.loc 1 585 0
 4919 0166 FB68     		ldr	r3, [r7, #12]
 4920 0168 03F11003 		add	r3, r3, #16
 4921 016c 1B68     		ldr	r3, [r3, #0]
 4922 016e BB61     		str	r3, [r7, #24]
 586:/home/cuil/workspace/arm/lm3s811/TI_Stellaris/driverlib/ethernet.c ****         i += 4;
 4923              		.loc 1 586 0
 4924 0170 FB69     		ldr	r3, [r7, #28]
 4925 0172 03F10403 		add	r3, r3, #4
 4926 0176 FB61     		str	r3, [r7, #28]
 4927 0178 02E0     		b	.L20
 4928              	.L24:
 583:/home/cuil/workspace/arm/lm3s811/TI_Stellaris/driverlib/ethernet.c ****     while(i < (lFrameLen - 2))
 4929              		.loc 1 583 0
 4930 017a 00BF     		nop
 4931 017c 00E0     		b	.L20
 4932              	.L25:
 4933 017e 00BF     		nop
 4934              	.L20:
 583:/home/cuil/workspace/arm/lm3s811/TI_Stellaris/driverlib/ethernet.c ****     while(i < (lFrameLen - 2))
 4935              		.loc 1 583 0 is_stmt 0 discriminator 1
 4936 0180 7B69     		ldr	r3, [r7, #20]
 4937 0182 A3F10202 		sub	r2, r3, #2
 4938 0186 FB69     		ldr	r3, [r7, #28]
 4939 0188 9A42     		cmp	r2, r3
 4940 018a ECDC     		bgt	.L21
 587:/home/cuil/workspace/arm/lm3s811/TI_Stellaris/driverlib/ethernet.c ****     }
 588:/home/cuil/workspace/arm/lm3s811/TI_Stellaris/driverlib/ethernet.c **** 
 589:/home/cuil/workspace/arm/lm3s811/TI_Stellaris/driverlib/ethernet.c ****     //
 590:/home/cuil/workspace/arm/lm3s811/TI_Stellaris/driverlib/ethernet.c ****     // If frame was larger than the buffer, return the "negative" frame length
 591:/home/cuil/workspace/arm/lm3s811/TI_Stellaris/driverlib/ethernet.c ****     //
 592:/home/cuil/workspace/arm/lm3s811/TI_Stellaris/driverlib/ethernet.c ****     lFrameLen -= 6;
 4941              		.loc 1 592 0 is_stmt 1
 4942 018c 7B69     		ldr	r3, [r7, #20]
 4943 018e A3F10603 		sub	r3, r3, #6
 4944 0192 7B61     		str	r3, [r7, #20]
 593:/home/cuil/workspace/arm/lm3s811/TI_Stellaris/driverlib/ethernet.c ****     if(lFrameLen > lBufLen)
 4945              		.loc 1 593 0
 4946 0194 7A69     		ldr	r2, [r7, #20]
 4947 0196 7B68     		ldr	r3, [r7, #4]
 4948 0198 9A42     		cmp	r2, r3
 4949 019a 03DD     		ble	.L22
 594:/home/cuil/workspace/arm/lm3s811/TI_Stellaris/driverlib/ethernet.c ****     {
 595:/home/cuil/workspace/arm/lm3s811/TI_Stellaris/driverlib/ethernet.c ****         return(-lFrameLen);
 4950              		.loc 1 595 0
 4951 019c 7B69     		ldr	r3, [r7, #20]
 4952 019e C3F10003 		rsb	r3, r3, #0
 4953 01a2 00E0     		b	.L23
 4954              	.L22:
 596:/home/cuil/workspace/arm/lm3s811/TI_Stellaris/driverlib/ethernet.c ****     }
 597:/home/cuil/workspace/arm/lm3s811/TI_Stellaris/driverlib/ethernet.c **** 
 598:/home/cuil/workspace/arm/lm3s811/TI_Stellaris/driverlib/ethernet.c ****     //
 599:/home/cuil/workspace/arm/lm3s811/TI_Stellaris/driverlib/ethernet.c ****     // Return the Frame Length
 600:/home/cuil/workspace/arm/lm3s811/TI_Stellaris/driverlib/ethernet.c ****     //
 601:/home/cuil/workspace/arm/lm3s811/TI_Stellaris/driverlib/ethernet.c ****     return(lFrameLen);
 4955              		.loc 1 601 0
 4956 01a4 7B69     		ldr	r3, [r7, #20]
 4957              	.L23:
 602:/home/cuil/workspace/arm/lm3s811/TI_Stellaris/driverlib/ethernet.c **** }
 4958              		.loc 1 602 0
 4959 01a6 1846     		mov	r0, r3
 4960 01a8 07F12407 		add	r7, r7, #36
 4961 01ac BD46     		mov	sp, r7
 4962 01ae 80BC     		pop	{r7}
 4963 01b0 7047     		bx	lr
 4964              		.cfi_endproc
 4965              	.LFE9:
 4967 01b2 00BF     		.section	.text.EthernetPacketGetNonBlocking,"ax",%progbits
 4968              		.align	2
 4969              		.global	EthernetPacketGetNonBlocking
 4970              		.thumb
 4971              		.thumb_func
 4973              	EthernetPacketGetNonBlocking:
 4974              	.LFB10:
 603:/home/cuil/workspace/arm/lm3s811/TI_Stellaris/driverlib/ethernet.c **** 
 604:/home/cuil/workspace/arm/lm3s811/TI_Stellaris/driverlib/ethernet.c **** //*****************************************************************************
 605:/home/cuil/workspace/arm/lm3s811/TI_Stellaris/driverlib/ethernet.c **** //
 606:/home/cuil/workspace/arm/lm3s811/TI_Stellaris/driverlib/ethernet.c **** //! Receives a packet from the Ethernet controller.
 607:/home/cuil/workspace/arm/lm3s811/TI_Stellaris/driverlib/ethernet.c **** //!
 608:/home/cuil/workspace/arm/lm3s811/TI_Stellaris/driverlib/ethernet.c **** //! \param ulBase is the base address of the controller.
 609:/home/cuil/workspace/arm/lm3s811/TI_Stellaris/driverlib/ethernet.c **** //! \param pucBuf is the pointer to the packet buffer.
 610:/home/cuil/workspace/arm/lm3s811/TI_Stellaris/driverlib/ethernet.c **** //! \param lBufLen is the maximum number of bytes to be read into the buffer.
 611:/home/cuil/workspace/arm/lm3s811/TI_Stellaris/driverlib/ethernet.c **** //!
 612:/home/cuil/workspace/arm/lm3s811/TI_Stellaris/driverlib/ethernet.c **** //! This function reads a packet from the receive FIFO of the controller and
 613:/home/cuil/workspace/arm/lm3s811/TI_Stellaris/driverlib/ethernet.c **** //! places it into \e pucBuf.  If no packet is available the function
 614:/home/cuil/workspace/arm/lm3s811/TI_Stellaris/driverlib/ethernet.c **** //! returns immediately.  Otherwise, the function reads the entire packet
 615:/home/cuil/workspace/arm/lm3s811/TI_Stellaris/driverlib/ethernet.c **** //! from the receive FIFO.  If there are more bytes in the packet than can fit
 616:/home/cuil/workspace/arm/lm3s811/TI_Stellaris/driverlib/ethernet.c **** //! into \e pucBuf (as specified by \e lBufLen), the function returns the
 617:/home/cuil/workspace/arm/lm3s811/TI_Stellaris/driverlib/ethernet.c **** //! negated length of the packet and the buffer contains \e lBufLen bytes
 618:/home/cuil/workspace/arm/lm3s811/TI_Stellaris/driverlib/ethernet.c **** //! of the packet.  Otherwise, the function returns the length of the
 619:/home/cuil/workspace/arm/lm3s811/TI_Stellaris/driverlib/ethernet.c **** //! packet that was read and \e pucBuf contains the entire packet
 620:/home/cuil/workspace/arm/lm3s811/TI_Stellaris/driverlib/ethernet.c **** //! (excluding the frame check sequence bytes).
 621:/home/cuil/workspace/arm/lm3s811/TI_Stellaris/driverlib/ethernet.c **** //!
 622:/home/cuil/workspace/arm/lm3s811/TI_Stellaris/driverlib/ethernet.c **** //! This function replaces the original EthernetPacketNonBlockingGet() API and
 623:/home/cuil/workspace/arm/lm3s811/TI_Stellaris/driverlib/ethernet.c **** //! performs the same actions.  A macro is provided in <tt>ethernet.h</tt> to
 624:/home/cuil/workspace/arm/lm3s811/TI_Stellaris/driverlib/ethernet.c **** //! map the original API to this API.
 625:/home/cuil/workspace/arm/lm3s811/TI_Stellaris/driverlib/ethernet.c **** //!
 626:/home/cuil/workspace/arm/lm3s811/TI_Stellaris/driverlib/ethernet.c **** //! \note This function returns immediately if no packet is available.
 627:/home/cuil/workspace/arm/lm3s811/TI_Stellaris/driverlib/ethernet.c **** //!
 628:/home/cuil/workspace/arm/lm3s811/TI_Stellaris/driverlib/ethernet.c **** //! \return Returns \b 0 if no packet is available, the negated packet length
 629:/home/cuil/workspace/arm/lm3s811/TI_Stellaris/driverlib/ethernet.c **** //! \b -n if the packet is too large for \e pucBuf, and the packet length \b n
 630:/home/cuil/workspace/arm/lm3s811/TI_Stellaris/driverlib/ethernet.c **** //! otherwise.
 631:/home/cuil/workspace/arm/lm3s811/TI_Stellaris/driverlib/ethernet.c **** //
 632:/home/cuil/workspace/arm/lm3s811/TI_Stellaris/driverlib/ethernet.c **** //*****************************************************************************
 633:/home/cuil/workspace/arm/lm3s811/TI_Stellaris/driverlib/ethernet.c **** long
 634:/home/cuil/workspace/arm/lm3s811/TI_Stellaris/driverlib/ethernet.c **** EthernetPacketGetNonBlocking(unsigned long ulBase, unsigned char *pucBuf,
 635:/home/cuil/workspace/arm/lm3s811/TI_Stellaris/driverlib/ethernet.c ****                              long lBufLen)
 636:/home/cuil/workspace/arm/lm3s811/TI_Stellaris/driverlib/ethernet.c **** {
 4975              		.loc 1 636 0
 4976              		.cfi_startproc
 4977              		@ args = 0, pretend = 0, frame = 16
 4978              		@ frame_needed = 1, uses_anonymous_args = 0
 4979 0000 80B5     		push	{r7, lr}
 4980              	.LCFI30:
 4981              		.cfi_def_cfa_offset 8
 4982 0002 84B0     		sub	sp, sp, #16
 4983              	.LCFI31:
 4984              		.cfi_def_cfa_offset 24
 4985 0004 00AF     		add	r7, sp, #0
 4986              		.cfi_offset 14, -4
 4987              		.cfi_offset 7, -8
 4988              	.LCFI32:
 4989              		.cfi_def_cfa_register 7
 4990 0006 F860     		str	r0, [r7, #12]
 4991 0008 B960     		str	r1, [r7, #8]
 4992 000a 7A60     		str	r2, [r7, #4]
 637:/home/cuil/workspace/arm/lm3s811/TI_Stellaris/driverlib/ethernet.c ****     //
 638:/home/cuil/workspace/arm/lm3s811/TI_Stellaris/driverlib/ethernet.c ****     // Check the arguments.
 639:/home/cuil/workspace/arm/lm3s811/TI_Stellaris/driverlib/ethernet.c ****     //
 640:/home/cuil/workspace/arm/lm3s811/TI_Stellaris/driverlib/ethernet.c ****     ASSERT(ulBase == ETH_BASE);
 641:/home/cuil/workspace/arm/lm3s811/TI_Stellaris/driverlib/ethernet.c ****     ASSERT(pucBuf != 0);
 642:/home/cuil/workspace/arm/lm3s811/TI_Stellaris/driverlib/ethernet.c ****     ASSERT(lBufLen > 0);
 643:/home/cuil/workspace/arm/lm3s811/TI_Stellaris/driverlib/ethernet.c **** 
 644:/home/cuil/workspace/arm/lm3s811/TI_Stellaris/driverlib/ethernet.c ****     //
 645:/home/cuil/workspace/arm/lm3s811/TI_Stellaris/driverlib/ethernet.c ****     // Check to see if any packets are available.
 646:/home/cuil/workspace/arm/lm3s811/TI_Stellaris/driverlib/ethernet.c ****     //
 647:/home/cuil/workspace/arm/lm3s811/TI_Stellaris/driverlib/ethernet.c ****     if((HWREG(ulBase + MAC_O_NP) & MAC_NP_NPR_M) == 0)
 4993              		.loc 1 647 0
 4994 000c FB68     		ldr	r3, [r7, #12]
 4995 000e 03F13403 		add	r3, r3, #52
 4996 0012 1B68     		ldr	r3, [r3, #0]
 4997 0014 03F03F03 		and	r3, r3, #63
 4998 0018 002B     		cmp	r3, #0
 4999 001a 02D1     		bne	.L27
 648:/home/cuil/workspace/arm/lm3s811/TI_Stellaris/driverlib/ethernet.c ****     {
 649:/home/cuil/workspace/arm/lm3s811/TI_Stellaris/driverlib/ethernet.c ****         return(0);
 5000              		.loc 1 649 0
 5001 001c 4FF00003 		mov	r3, #0
 5002 0020 05E0     		b	.L28
 5003              	.L27:
 650:/home/cuil/workspace/arm/lm3s811/TI_Stellaris/driverlib/ethernet.c ****     }
 651:/home/cuil/workspace/arm/lm3s811/TI_Stellaris/driverlib/ethernet.c **** 
 652:/home/cuil/workspace/arm/lm3s811/TI_Stellaris/driverlib/ethernet.c ****     //
 653:/home/cuil/workspace/arm/lm3s811/TI_Stellaris/driverlib/ethernet.c ****     // Read the packet, and return.
 654:/home/cuil/workspace/arm/lm3s811/TI_Stellaris/driverlib/ethernet.c ****     //
 655:/home/cuil/workspace/arm/lm3s811/TI_Stellaris/driverlib/ethernet.c ****     return(EthernetPacketGetInternal(ulBase, pucBuf, lBufLen));
 5004              		.loc 1 655 0
 5005 0022 F868     		ldr	r0, [r7, #12]
 5006 0024 B968     		ldr	r1, [r7, #8]
 5007 0026 7A68     		ldr	r2, [r7, #4]
 5008 0028 FFF7FEFF 		bl	EthernetPacketGetInternal
 5009 002c 0346     		mov	r3, r0
 5010              	.L28:
 656:/home/cuil/workspace/arm/lm3s811/TI_Stellaris/driverlib/ethernet.c **** }
 5011              		.loc 1 656 0
 5012 002e 1846     		mov	r0, r3
 5013 0030 07F11007 		add	r7, r7, #16
 5014 0034 BD46     		mov	sp, r7
 5015 0036 80BD     		pop	{r7, pc}
 5016              		.cfi_endproc
 5017              	.LFE10:
 5019              		.section	.text.EthernetPacketGet,"ax",%progbits
 5020              		.align	2
 5021              		.global	EthernetPacketGet
 5022              		.thumb
 5023              		.thumb_func
 5025              	EthernetPacketGet:
 5026              	.LFB11:
 657:/home/cuil/workspace/arm/lm3s811/TI_Stellaris/driverlib/ethernet.c **** 
 658:/home/cuil/workspace/arm/lm3s811/TI_Stellaris/driverlib/ethernet.c **** //*****************************************************************************
 659:/home/cuil/workspace/arm/lm3s811/TI_Stellaris/driverlib/ethernet.c **** //
 660:/home/cuil/workspace/arm/lm3s811/TI_Stellaris/driverlib/ethernet.c **** //! Waits for a packet from the Ethernet controller.
 661:/home/cuil/workspace/arm/lm3s811/TI_Stellaris/driverlib/ethernet.c **** //!
 662:/home/cuil/workspace/arm/lm3s811/TI_Stellaris/driverlib/ethernet.c **** //! \param ulBase is the base address of the controller.
 663:/home/cuil/workspace/arm/lm3s811/TI_Stellaris/driverlib/ethernet.c **** //! \param pucBuf is the pointer to the packet buffer.
 664:/home/cuil/workspace/arm/lm3s811/TI_Stellaris/driverlib/ethernet.c **** //! \param lBufLen is the maximum number of bytes to be read into the buffer.
 665:/home/cuil/workspace/arm/lm3s811/TI_Stellaris/driverlib/ethernet.c **** //!
 666:/home/cuil/workspace/arm/lm3s811/TI_Stellaris/driverlib/ethernet.c **** //! This function reads a packet from the receive FIFO of the controller and
 667:/home/cuil/workspace/arm/lm3s811/TI_Stellaris/driverlib/ethernet.c **** //! places it into \e pucBuf.  The function waits until a packet is
 668:/home/cuil/workspace/arm/lm3s811/TI_Stellaris/driverlib/ethernet.c **** //! available in the FIFO.  Then the function reads the entire packet
 669:/home/cuil/workspace/arm/lm3s811/TI_Stellaris/driverlib/ethernet.c **** //! from the receive FIFO.  If there are more bytes in the packet than can
 670:/home/cuil/workspace/arm/lm3s811/TI_Stellaris/driverlib/ethernet.c **** //! fit into \e pucBuf (as specified by \e lBufLen), the function returns
 671:/home/cuil/workspace/arm/lm3s811/TI_Stellaris/driverlib/ethernet.c **** //! the negated length of the packet and the buffer contains \e lBufLen
 672:/home/cuil/workspace/arm/lm3s811/TI_Stellaris/driverlib/ethernet.c **** //! bytes of the packet.  Otherwise, the function returns the length of
 673:/home/cuil/workspace/arm/lm3s811/TI_Stellaris/driverlib/ethernet.c **** //! the packet that was read and \e pucBuf contains the entire packet
 674:/home/cuil/workspace/arm/lm3s811/TI_Stellaris/driverlib/ethernet.c **** //! (excluding the frame check sequence bytes).
 675:/home/cuil/workspace/arm/lm3s811/TI_Stellaris/driverlib/ethernet.c **** //!
 676:/home/cuil/workspace/arm/lm3s811/TI_Stellaris/driverlib/ethernet.c **** //! \note This function is blocking and does not return until a packet arrives.
 677:/home/cuil/workspace/arm/lm3s811/TI_Stellaris/driverlib/ethernet.c **** //!
 678:/home/cuil/workspace/arm/lm3s811/TI_Stellaris/driverlib/ethernet.c **** //! \return Returns the negated packet length \b -n if the packet is too large
 679:/home/cuil/workspace/arm/lm3s811/TI_Stellaris/driverlib/ethernet.c **** //! for \e pucBuf, and returns the packet length \b n otherwise.
 680:/home/cuil/workspace/arm/lm3s811/TI_Stellaris/driverlib/ethernet.c **** //
 681:/home/cuil/workspace/arm/lm3s811/TI_Stellaris/driverlib/ethernet.c **** //*****************************************************************************
 682:/home/cuil/workspace/arm/lm3s811/TI_Stellaris/driverlib/ethernet.c **** long
 683:/home/cuil/workspace/arm/lm3s811/TI_Stellaris/driverlib/ethernet.c **** EthernetPacketGet(unsigned long ulBase, unsigned char *pucBuf,
 684:/home/cuil/workspace/arm/lm3s811/TI_Stellaris/driverlib/ethernet.c ****                   long lBufLen)
 685:/home/cuil/workspace/arm/lm3s811/TI_Stellaris/driverlib/ethernet.c **** {
 5027              		.loc 1 685 0
 5028              		.cfi_startproc
 5029              		@ args = 0, pretend = 0, frame = 16
 5030              		@ frame_needed = 1, uses_anonymous_args = 0
 5031 0000 80B5     		push	{r7, lr}
 5032              	.LCFI33:
 5033              		.cfi_def_cfa_offset 8
 5034 0002 84B0     		sub	sp, sp, #16
 5035              	.LCFI34:
 5036              		.cfi_def_cfa_offset 24
 5037 0004 00AF     		add	r7, sp, #0
 5038              		.cfi_offset 14, -4
 5039              		.cfi_offset 7, -8
 5040              	.LCFI35:
 5041              		.cfi_def_cfa_register 7
 5042 0006 F860     		str	r0, [r7, #12]
 5043 0008 B960     		str	r1, [r7, #8]
 5044 000a 7A60     		str	r2, [r7, #4]
 686:/home/cuil/workspace/arm/lm3s811/TI_Stellaris/driverlib/ethernet.c ****     //
 687:/home/cuil/workspace/arm/lm3s811/TI_Stellaris/driverlib/ethernet.c ****     // Check the arguments.
 688:/home/cuil/workspace/arm/lm3s811/TI_Stellaris/driverlib/ethernet.c ****     //
 689:/home/cuil/workspace/arm/lm3s811/TI_Stellaris/driverlib/ethernet.c ****     ASSERT(ulBase == ETH_BASE);
 690:/home/cuil/workspace/arm/lm3s811/TI_Stellaris/driverlib/ethernet.c ****     ASSERT(pucBuf != 0);
 691:/home/cuil/workspace/arm/lm3s811/TI_Stellaris/driverlib/ethernet.c ****     ASSERT(lBufLen > 0);
 692:/home/cuil/workspace/arm/lm3s811/TI_Stellaris/driverlib/ethernet.c **** 
 693:/home/cuil/workspace/arm/lm3s811/TI_Stellaris/driverlib/ethernet.c ****     //
 694:/home/cuil/workspace/arm/lm3s811/TI_Stellaris/driverlib/ethernet.c ****     // Wait for a packet to become available
 695:/home/cuil/workspace/arm/lm3s811/TI_Stellaris/driverlib/ethernet.c ****     //
 696:/home/cuil/workspace/arm/lm3s811/TI_Stellaris/driverlib/ethernet.c ****     while((HWREG(ulBase + MAC_O_NP) & MAC_NP_NPR_M) == 0)
 5045              		.loc 1 696 0
 5046 000c 00BF     		nop
 5047              	.L30:
 5048              		.loc 1 696 0 is_stmt 0 discriminator 1
 5049 000e FB68     		ldr	r3, [r7, #12]
 5050 0010 03F13403 		add	r3, r3, #52
 5051 0014 1B68     		ldr	r3, [r3, #0]
 5052 0016 03F03F03 		and	r3, r3, #63
 5053 001a 002B     		cmp	r3, #0
 5054 001c F7D0     		beq	.L30
 697:/home/cuil/workspace/arm/lm3s811/TI_Stellaris/driverlib/ethernet.c ****     {
 698:/home/cuil/workspace/arm/lm3s811/TI_Stellaris/driverlib/ethernet.c ****     }
 699:/home/cuil/workspace/arm/lm3s811/TI_Stellaris/driverlib/ethernet.c **** 
 700:/home/cuil/workspace/arm/lm3s811/TI_Stellaris/driverlib/ethernet.c ****     //
 701:/home/cuil/workspace/arm/lm3s811/TI_Stellaris/driverlib/ethernet.c ****     // Read the packet
 702:/home/cuil/workspace/arm/lm3s811/TI_Stellaris/driverlib/ethernet.c ****     //
 703:/home/cuil/workspace/arm/lm3s811/TI_Stellaris/driverlib/ethernet.c ****     return(EthernetPacketGetInternal(ulBase, pucBuf, lBufLen));
 5055              		.loc 1 703 0 is_stmt 1
 5056 001e F868     		ldr	r0, [r7, #12]
 5057 0020 B968     		ldr	r1, [r7, #8]
 5058 0022 7A68     		ldr	r2, [r7, #4]
 5059 0024 FFF7FEFF 		bl	EthernetPacketGetInternal
 5060 0028 0346     		mov	r3, r0
 704:/home/cuil/workspace/arm/lm3s811/TI_Stellaris/driverlib/ethernet.c **** }
 5061              		.loc 1 704 0
 5062 002a 1846     		mov	r0, r3
 5063 002c 07F11007 		add	r7, r7, #16
 5064 0030 BD46     		mov	sp, r7
 5065 0032 80BD     		pop	{r7, pc}
 5066              		.cfi_endproc
 5067              	.LFE11:
 5069              		.section	.text.EthernetPacketPutInternal,"ax",%progbits
 5070              		.align	2
 5071              		.thumb
 5072              		.thumb_func
 5074              	EthernetPacketPutInternal:
 5075              	.LFB12:
 705:/home/cuil/workspace/arm/lm3s811/TI_Stellaris/driverlib/ethernet.c **** 
 706:/home/cuil/workspace/arm/lm3s811/TI_Stellaris/driverlib/ethernet.c **** //*****************************************************************************
 707:/home/cuil/workspace/arm/lm3s811/TI_Stellaris/driverlib/ethernet.c **** //
 708:/home/cuil/workspace/arm/lm3s811/TI_Stellaris/driverlib/ethernet.c **** //! \internal
 709:/home/cuil/workspace/arm/lm3s811/TI_Stellaris/driverlib/ethernet.c **** //!
 710:/home/cuil/workspace/arm/lm3s811/TI_Stellaris/driverlib/ethernet.c **** //! Internal function for sending a packet to the Ethernet controller.
 711:/home/cuil/workspace/arm/lm3s811/TI_Stellaris/driverlib/ethernet.c **** //!
 712:/home/cuil/workspace/arm/lm3s811/TI_Stellaris/driverlib/ethernet.c **** //! \param ulBase is the base address of the controller.
 713:/home/cuil/workspace/arm/lm3s811/TI_Stellaris/driverlib/ethernet.c **** //! \param pucBuf is the pointer to the packet buffer.
 714:/home/cuil/workspace/arm/lm3s811/TI_Stellaris/driverlib/ethernet.c **** //! \param lBufLen is number of bytes in the packet to be transmitted.
 715:/home/cuil/workspace/arm/lm3s811/TI_Stellaris/driverlib/ethernet.c **** //!
 716:/home/cuil/workspace/arm/lm3s811/TI_Stellaris/driverlib/ethernet.c **** //! Puts a packet into the transmit FIFO of the controller.
 717:/home/cuil/workspace/arm/lm3s811/TI_Stellaris/driverlib/ethernet.c **** //!
 718:/home/cuil/workspace/arm/lm3s811/TI_Stellaris/driverlib/ethernet.c **** //! Format of the data in the TX FIFO is as follows:
 719:/home/cuil/workspace/arm/lm3s811/TI_Stellaris/driverlib/ethernet.c **** //!
 720:/home/cuil/workspace/arm/lm3s811/TI_Stellaris/driverlib/ethernet.c **** //! \verbatim
 721:/home/cuil/workspace/arm/lm3s811/TI_Stellaris/driverlib/ethernet.c **** //! +---------+----------+----------+----------+----------+
 722:/home/cuil/workspace/arm/lm3s811/TI_Stellaris/driverlib/ethernet.c **** //! |         | 31:24    | 23:16    | 15:8     | 7:0      |
 723:/home/cuil/workspace/arm/lm3s811/TI_Stellaris/driverlib/ethernet.c **** //! +---------+----------+----------+----------+----------+
 724:/home/cuil/workspace/arm/lm3s811/TI_Stellaris/driverlib/ethernet.c **** //! | Word 0  | DA 2     | DA 1     | PL MSB   | PL LSB   |
 725:/home/cuil/workspace/arm/lm3s811/TI_Stellaris/driverlib/ethernet.c **** //! +---------+----------+----------+----------+----------+
 726:/home/cuil/workspace/arm/lm3s811/TI_Stellaris/driverlib/ethernet.c **** //! | Word 1  | DA 6     | DA 5     | DA 4     | DA 3     |
 727:/home/cuil/workspace/arm/lm3s811/TI_Stellaris/driverlib/ethernet.c **** //! +---------+----------+----------+----------+----------+
 728:/home/cuil/workspace/arm/lm3s811/TI_Stellaris/driverlib/ethernet.c **** //! | Word 2  | SA 4     | SA 3     | SA 2     | SA 1     |
 729:/home/cuil/workspace/arm/lm3s811/TI_Stellaris/driverlib/ethernet.c **** //! +---------+----------+----------+----------+----------+
 730:/home/cuil/workspace/arm/lm3s811/TI_Stellaris/driverlib/ethernet.c **** //! | Word 3  | FT LSB   | FT MSB   | SA 6     | SA 5     |
 731:/home/cuil/workspace/arm/lm3s811/TI_Stellaris/driverlib/ethernet.c **** //! +---------+----------+----------+----------+----------+
 732:/home/cuil/workspace/arm/lm3s811/TI_Stellaris/driverlib/ethernet.c **** //! | Word 4  | DATA 4   | DATA 3   | DATA 2   | DATA 1   |
 733:/home/cuil/workspace/arm/lm3s811/TI_Stellaris/driverlib/ethernet.c **** //! +---------+----------+----------+----------+----------+
 734:/home/cuil/workspace/arm/lm3s811/TI_Stellaris/driverlib/ethernet.c **** //! | Word 5  | DATA 8   | DATA 7   | DATA 6   | DATA 5   |
 735:/home/cuil/workspace/arm/lm3s811/TI_Stellaris/driverlib/ethernet.c **** //! +---------+----------+----------+----------+----------+
 736:/home/cuil/workspace/arm/lm3s811/TI_Stellaris/driverlib/ethernet.c **** //! | Word 6  | DATA 12  | DATA 11  | DATA 10  | DATA 9   |
 737:/home/cuil/workspace/arm/lm3s811/TI_Stellaris/driverlib/ethernet.c **** //! +---------+----------+----------+----------+----------+
 738:/home/cuil/workspace/arm/lm3s811/TI_Stellaris/driverlib/ethernet.c **** //! | ...     |          |          |          |          |
 739:/home/cuil/workspace/arm/lm3s811/TI_Stellaris/driverlib/ethernet.c **** //! +---------+----------+----------+----------+----------+
 740:/home/cuil/workspace/arm/lm3s811/TI_Stellaris/driverlib/ethernet.c **** //! | Word X  | DATA n   | DATA n-1 | DATA n-2 | DATA n-3 |
 741:/home/cuil/workspace/arm/lm3s811/TI_Stellaris/driverlib/ethernet.c **** //! +---------+----------+----------+----------+----------+
 742:/home/cuil/workspace/arm/lm3s811/TI_Stellaris/driverlib/ethernet.c **** //! \endverbatim
 743:/home/cuil/workspace/arm/lm3s811/TI_Stellaris/driverlib/ethernet.c **** //!
 744:/home/cuil/workspace/arm/lm3s811/TI_Stellaris/driverlib/ethernet.c **** //! Where PL is Payload Length, (DATA) only
 745:/home/cuil/workspace/arm/lm3s811/TI_Stellaris/driverlib/ethernet.c **** //! Where DA is Destination (MAC) Address
 746:/home/cuil/workspace/arm/lm3s811/TI_Stellaris/driverlib/ethernet.c **** //! Where SA is Source (MAC) Address
 747:/home/cuil/workspace/arm/lm3s811/TI_Stellaris/driverlib/ethernet.c **** //! Where FT is Frame Type (or Frame Length for Ethernet)
 748:/home/cuil/workspace/arm/lm3s811/TI_Stellaris/driverlib/ethernet.c **** //! Where DATA is Payload Data for the Ethernet Frame
 749:/home/cuil/workspace/arm/lm3s811/TI_Stellaris/driverlib/ethernet.c **** //!
 750:/home/cuil/workspace/arm/lm3s811/TI_Stellaris/driverlib/ethernet.c **** //! \return Returns the negated packet length \b -lBufLen if the packet is too
 751:/home/cuil/workspace/arm/lm3s811/TI_Stellaris/driverlib/ethernet.c **** //! large for FIFO, and the packet length \b lBufLen otherwise.
 752:/home/cuil/workspace/arm/lm3s811/TI_Stellaris/driverlib/ethernet.c **** //
 753:/home/cuil/workspace/arm/lm3s811/TI_Stellaris/driverlib/ethernet.c **** //*****************************************************************************
 754:/home/cuil/workspace/arm/lm3s811/TI_Stellaris/driverlib/ethernet.c **** static long
 755:/home/cuil/workspace/arm/lm3s811/TI_Stellaris/driverlib/ethernet.c **** EthernetPacketPutInternal(unsigned long ulBase, unsigned char *pucBuf,
 756:/home/cuil/workspace/arm/lm3s811/TI_Stellaris/driverlib/ethernet.c ****                           long lBufLen)
 757:/home/cuil/workspace/arm/lm3s811/TI_Stellaris/driverlib/ethernet.c **** {
 5076              		.loc 1 757 0
 5077              		.cfi_startproc
 5078              		@ args = 0, pretend = 0, frame = 24
 5079              		@ frame_needed = 1, uses_anonymous_args = 0
 5080              		@ link register save eliminated.
 5081 0000 80B4     		push	{r7}
 5082              	.LCFI36:
 5083              		.cfi_def_cfa_offset 4
 5084 0002 87B0     		sub	sp, sp, #28
 5085              	.LCFI37:
 5086              		.cfi_def_cfa_offset 32
 5087 0004 00AF     		add	r7, sp, #0
 5088              		.cfi_offset 7, -4
 5089              	.LCFI38:
 5090              		.cfi_def_cfa_register 7
 5091 0006 F860     		str	r0, [r7, #12]
 5092 0008 B960     		str	r1, [r7, #8]
 5093 000a 7A60     		str	r2, [r7, #4]
 758:/home/cuil/workspace/arm/lm3s811/TI_Stellaris/driverlib/ethernet.c ****     unsigned long ulTemp;
 759:/home/cuil/workspace/arm/lm3s811/TI_Stellaris/driverlib/ethernet.c ****     long i = 0;
 5094              		.loc 1 759 0
 5095 000c 4FF00003 		mov	r3, #0
 5096 0010 7B61     		str	r3, [r7, #20]
 760:/home/cuil/workspace/arm/lm3s811/TI_Stellaris/driverlib/ethernet.c **** 
 761:/home/cuil/workspace/arm/lm3s811/TI_Stellaris/driverlib/ethernet.c ****     //
 762:/home/cuil/workspace/arm/lm3s811/TI_Stellaris/driverlib/ethernet.c ****     // If the packet is too large, return the negative packet length as
 763:/home/cuil/workspace/arm/lm3s811/TI_Stellaris/driverlib/ethernet.c ****     // an error code.
 764:/home/cuil/workspace/arm/lm3s811/TI_Stellaris/driverlib/ethernet.c ****     //
 765:/home/cuil/workspace/arm/lm3s811/TI_Stellaris/driverlib/ethernet.c ****     if(lBufLen > (2048 - 2))
 5097              		.loc 1 765 0
 5098 0012 7A68     		ldr	r2, [r7, #4]
 5099 0014 40F2FE73 		movw	r3, #2046
 5100 0018 9A42     		cmp	r2, r3
 5101 001a 03DD     		ble	.L32
 766:/home/cuil/workspace/arm/lm3s811/TI_Stellaris/driverlib/ethernet.c ****     {
 767:/home/cuil/workspace/arm/lm3s811/TI_Stellaris/driverlib/ethernet.c ****         return(-lBufLen);
 5102              		.loc 1 767 0
 5103 001c 7B68     		ldr	r3, [r7, #4]
 5104 001e C3F10003 		rsb	r3, r3, #0
 5105 0022 AAE0     		b	.L33
 5106              	.L32:
 768:/home/cuil/workspace/arm/lm3s811/TI_Stellaris/driverlib/ethernet.c ****     }
 769:/home/cuil/workspace/arm/lm3s811/TI_Stellaris/driverlib/ethernet.c **** 
 770:/home/cuil/workspace/arm/lm3s811/TI_Stellaris/driverlib/ethernet.c ****     //
 771:/home/cuil/workspace/arm/lm3s811/TI_Stellaris/driverlib/ethernet.c ****     // Build and write WORD 0 (see format above) to the transmit FIFO.
 772:/home/cuil/workspace/arm/lm3s811/TI_Stellaris/driverlib/ethernet.c ****     //
 773:/home/cuil/workspace/arm/lm3s811/TI_Stellaris/driverlib/ethernet.c ****     ulTemp = (unsigned long)(lBufLen - 14);
 5107              		.loc 1 773 0
 5108 0024 7B68     		ldr	r3, [r7, #4]
 5109 0026 A3F10E03 		sub	r3, r3, #14
 5110 002a 3B61     		str	r3, [r7, #16]
 774:/home/cuil/workspace/arm/lm3s811/TI_Stellaris/driverlib/ethernet.c ****     ulTemp |= (pucBuf[i++] << 16);
 5111              		.loc 1 774 0
 5112 002c 7B69     		ldr	r3, [r7, #20]
 5113 002e BA68     		ldr	r2, [r7, #8]
 5114 0030 D318     		adds	r3, r2, r3
 5115 0032 1B78     		ldrb	r3, [r3, #0]	@ zero_extendqisi2
 5116 0034 4FEA0343 		lsl	r3, r3, #16
 5117 0038 3A69     		ldr	r2, [r7, #16]
 5118 003a 42EA0303 		orr	r3, r2, r3
 5119 003e 3B61     		str	r3, [r7, #16]
 5120 0040 7B69     		ldr	r3, [r7, #20]
 5121 0042 03F10103 		add	r3, r3, #1
 5122 0046 7B61     		str	r3, [r7, #20]
 775:/home/cuil/workspace/arm/lm3s811/TI_Stellaris/driverlib/ethernet.c ****     ulTemp |= (pucBuf[i++] << 24);
 5123              		.loc 1 775 0
 5124 0048 7B69     		ldr	r3, [r7, #20]
 5125 004a BA68     		ldr	r2, [r7, #8]
 5126 004c D318     		adds	r3, r2, r3
 5127 004e 1B78     		ldrb	r3, [r3, #0]	@ zero_extendqisi2
 5128 0050 4FEA0363 		lsl	r3, r3, #24
 5129 0054 3A69     		ldr	r2, [r7, #16]
 5130 0056 42EA0303 		orr	r3, r2, r3
 5131 005a 3B61     		str	r3, [r7, #16]
 5132 005c 7B69     		ldr	r3, [r7, #20]
 5133 005e 03F10103 		add	r3, r3, #1
 5134 0062 7B61     		str	r3, [r7, #20]
 776:/home/cuil/workspace/arm/lm3s811/TI_Stellaris/driverlib/ethernet.c ****     HWREG(ulBase + MAC_O_DATA) = ulTemp;
 5135              		.loc 1 776 0
 5136 0064 FB68     		ldr	r3, [r7, #12]
 5137 0066 03F11003 		add	r3, r3, #16
 5138 006a 3A69     		ldr	r2, [r7, #16]
 5139 006c 1A60     		str	r2, [r3, #0]
 777:/home/cuil/workspace/arm/lm3s811/TI_Stellaris/driverlib/ethernet.c **** 
 778:/home/cuil/workspace/arm/lm3s811/TI_Stellaris/driverlib/ethernet.c ****     //
 779:/home/cuil/workspace/arm/lm3s811/TI_Stellaris/driverlib/ethernet.c ****     // Write each subsequent WORD n to the transmit FIFO, except for the last
 780:/home/cuil/workspace/arm/lm3s811/TI_Stellaris/driverlib/ethernet.c ****     // WORD (if the word does not contain 4 bytes).
 781:/home/cuil/workspace/arm/lm3s811/TI_Stellaris/driverlib/ethernet.c ****     //
 782:/home/cuil/workspace/arm/lm3s811/TI_Stellaris/driverlib/ethernet.c ****     while(i <= (lBufLen - 4))
 5140              		.loc 1 782 0
 5141 006e 0BE0     		b	.L34
 5142              	.L35:
 783:/home/cuil/workspace/arm/lm3s811/TI_Stellaris/driverlib/ethernet.c ****     {
 784:/home/cuil/workspace/arm/lm3s811/TI_Stellaris/driverlib/ethernet.c ****         HWREG(ulBase + MAC_O_DATA) = *(unsigned long *)&pucBuf[i];
 5143              		.loc 1 784 0
 5144 0070 FB68     		ldr	r3, [r7, #12]
 5145 0072 03F11003 		add	r3, r3, #16
 5146 0076 B968     		ldr	r1, [r7, #8]
 5147 0078 7A69     		ldr	r2, [r7, #20]
 5148 007a 8A18     		adds	r2, r1, r2
 5149 007c 1268     		ldr	r2, [r2, #0]
 5150 007e 1A60     		str	r2, [r3, #0]
 785:/home/cuil/workspace/arm/lm3s811/TI_Stellaris/driverlib/ethernet.c ****         i += 4;
 5151              		.loc 1 785 0
 5152 0080 7B69     		ldr	r3, [r7, #20]
 5153 0082 03F10403 		add	r3, r3, #4
 5154 0086 7B61     		str	r3, [r7, #20]
 5155              	.L34:
 782:/home/cuil/workspace/arm/lm3s811/TI_Stellaris/driverlib/ethernet.c ****     while(i <= (lBufLen - 4))
 5156              		.loc 1 782 0 discriminator 1
 5157 0088 7B68     		ldr	r3, [r7, #4]
 5158 008a A3F10402 		sub	r2, r3, #4
 5159 008e 7B69     		ldr	r3, [r7, #20]
 5160 0090 9A42     		cmp	r2, r3
 5161 0092 EDDA     		bge	.L35
 786:/home/cuil/workspace/arm/lm3s811/TI_Stellaris/driverlib/ethernet.c ****     }
 787:/home/cuil/workspace/arm/lm3s811/TI_Stellaris/driverlib/ethernet.c **** 
 788:/home/cuil/workspace/arm/lm3s811/TI_Stellaris/driverlib/ethernet.c ****     //
 789:/home/cuil/workspace/arm/lm3s811/TI_Stellaris/driverlib/ethernet.c ****     // Build the last word of the remaining 1, 2, or 3 bytes, and store
 790:/home/cuil/workspace/arm/lm3s811/TI_Stellaris/driverlib/ethernet.c ****     // the WORD into the transmit FIFO.
 791:/home/cuil/workspace/arm/lm3s811/TI_Stellaris/driverlib/ethernet.c ****     //
 792:/home/cuil/workspace/arm/lm3s811/TI_Stellaris/driverlib/ethernet.c ****     if(i != lBufLen)
 5162              		.loc 1 792 0
 5163 0094 7A69     		ldr	r2, [r7, #20]
 5164 0096 7B68     		ldr	r3, [r7, #4]
 5165 0098 9A42     		cmp	r2, r3
 5166 009a 67D0     		beq	.L36
 793:/home/cuil/workspace/arm/lm3s811/TI_Stellaris/driverlib/ethernet.c ****     {
 794:/home/cuil/workspace/arm/lm3s811/TI_Stellaris/driverlib/ethernet.c ****         if(i == (lBufLen - 3))
 5167              		.loc 1 794 0
 5168 009c 7B68     		ldr	r3, [r7, #4]
 5169 009e A3F10302 		sub	r2, r3, #3
 5170 00a2 7B69     		ldr	r3, [r7, #20]
 5171 00a4 9A42     		cmp	r2, r3
 5172 00a6 2AD1     		bne	.L37
 795:/home/cuil/workspace/arm/lm3s811/TI_Stellaris/driverlib/ethernet.c ****         {
 796:/home/cuil/workspace/arm/lm3s811/TI_Stellaris/driverlib/ethernet.c ****             ulTemp  = (pucBuf[i++] <<  0);
 5173              		.loc 1 796 0
 5174 00a8 7B69     		ldr	r3, [r7, #20]
 5175 00aa BA68     		ldr	r2, [r7, #8]
 5176 00ac D318     		adds	r3, r2, r3
 5177 00ae 1B78     		ldrb	r3, [r3, #0]	@ zero_extendqisi2
 5178 00b0 3B61     		str	r3, [r7, #16]
 5179 00b2 7B69     		ldr	r3, [r7, #20]
 5180 00b4 03F10103 		add	r3, r3, #1
 5181 00b8 7B61     		str	r3, [r7, #20]
 797:/home/cuil/workspace/arm/lm3s811/TI_Stellaris/driverlib/ethernet.c ****             ulTemp |= (pucBuf[i++] <<  8);
 5182              		.loc 1 797 0
 5183 00ba 7B69     		ldr	r3, [r7, #20]
 5184 00bc BA68     		ldr	r2, [r7, #8]
 5185 00be D318     		adds	r3, r2, r3
 5186 00c0 1B78     		ldrb	r3, [r3, #0]	@ zero_extendqisi2
 5187 00c2 4FEA0323 		lsl	r3, r3, #8
 5188 00c6 3A69     		ldr	r2, [r7, #16]
 5189 00c8 42EA0303 		orr	r3, r2, r3
 5190 00cc 3B61     		str	r3, [r7, #16]
 5191 00ce 7B69     		ldr	r3, [r7, #20]
 5192 00d0 03F10103 		add	r3, r3, #1
 5193 00d4 7B61     		str	r3, [r7, #20]
 798:/home/cuil/workspace/arm/lm3s811/TI_Stellaris/driverlib/ethernet.c ****             ulTemp |= (pucBuf[i++] << 16);
 5194              		.loc 1 798 0
 5195 00d6 7B69     		ldr	r3, [r7, #20]
 5196 00d8 BA68     		ldr	r2, [r7, #8]
 5197 00da D318     		adds	r3, r2, r3
 5198 00dc 1B78     		ldrb	r3, [r3, #0]	@ zero_extendqisi2
 5199 00de 4FEA0343 		lsl	r3, r3, #16
 5200 00e2 3A69     		ldr	r2, [r7, #16]
 5201 00e4 42EA0303 		orr	r3, r2, r3
 5202 00e8 3B61     		str	r3, [r7, #16]
 5203 00ea 7B69     		ldr	r3, [r7, #20]
 5204 00ec 03F10103 		add	r3, r3, #1
 5205 00f0 7B61     		str	r3, [r7, #20]
 799:/home/cuil/workspace/arm/lm3s811/TI_Stellaris/driverlib/ethernet.c ****             HWREG(ulBase + MAC_O_DATA) = ulTemp;
 5206              		.loc 1 799 0
 5207 00f2 FB68     		ldr	r3, [r7, #12]
 5208 00f4 03F11003 		add	r3, r3, #16
 5209 00f8 3A69     		ldr	r2, [r7, #16]
 5210 00fa 1A60     		str	r2, [r3, #0]
 5211 00fc 36E0     		b	.L36
 5212              	.L37:
 800:/home/cuil/workspace/arm/lm3s811/TI_Stellaris/driverlib/ethernet.c ****         }
 801:/home/cuil/workspace/arm/lm3s811/TI_Stellaris/driverlib/ethernet.c ****         else if(i == (lBufLen - 2))
 5213              		.loc 1 801 0
 5214 00fe 7B68     		ldr	r3, [r7, #4]
 5215 0100 A3F10202 		sub	r2, r3, #2
 5216 0104 7B69     		ldr	r3, [r7, #20]
 5217 0106 9A42     		cmp	r2, r3
 5218 0108 1CD1     		bne	.L38
 802:/home/cuil/workspace/arm/lm3s811/TI_Stellaris/driverlib/ethernet.c ****         {
 803:/home/cuil/workspace/arm/lm3s811/TI_Stellaris/driverlib/ethernet.c ****             ulTemp  = (pucBuf[i++] <<  0);
 5219              		.loc 1 803 0
 5220 010a 7B69     		ldr	r3, [r7, #20]
 5221 010c BA68     		ldr	r2, [r7, #8]
 5222 010e D318     		adds	r3, r2, r3
 5223 0110 1B78     		ldrb	r3, [r3, #0]	@ zero_extendqisi2
 5224 0112 3B61     		str	r3, [r7, #16]
 5225 0114 7B69     		ldr	r3, [r7, #20]
 5226 0116 03F10103 		add	r3, r3, #1
 5227 011a 7B61     		str	r3, [r7, #20]
 804:/home/cuil/workspace/arm/lm3s811/TI_Stellaris/driverlib/ethernet.c ****             ulTemp |= (pucBuf[i++] <<  8);
 5228              		.loc 1 804 0
 5229 011c 7B69     		ldr	r3, [r7, #20]
 5230 011e BA68     		ldr	r2, [r7, #8]
 5231 0120 D318     		adds	r3, r2, r3
 5232 0122 1B78     		ldrb	r3, [r3, #0]	@ zero_extendqisi2
 5233 0124 4FEA0323 		lsl	r3, r3, #8
 5234 0128 3A69     		ldr	r2, [r7, #16]
 5235 012a 42EA0303 		orr	r3, r2, r3
 5236 012e 3B61     		str	r3, [r7, #16]
 5237 0130 7B69     		ldr	r3, [r7, #20]
 5238 0132 03F10103 		add	r3, r3, #1
 5239 0136 7B61     		str	r3, [r7, #20]
 805:/home/cuil/workspace/arm/lm3s811/TI_Stellaris/driverlib/ethernet.c ****             HWREG(ulBase + MAC_O_DATA) = ulTemp;
 5240              		.loc 1 805 0
 5241 0138 FB68     		ldr	r3, [r7, #12]
 5242 013a 03F11003 		add	r3, r3, #16
 5243 013e 3A69     		ldr	r2, [r7, #16]
 5244 0140 1A60     		str	r2, [r3, #0]
 5245 0142 13E0     		b	.L36
 5246              	.L38:
 806:/home/cuil/workspace/arm/lm3s811/TI_Stellaris/driverlib/ethernet.c ****         }
 807:/home/cuil/workspace/arm/lm3s811/TI_Stellaris/driverlib/ethernet.c ****         else if(i == (lBufLen - 1))
 5247              		.loc 1 807 0
 5248 0144 7B68     		ldr	r3, [r7, #4]
 5249 0146 03F1FF32 		add	r2, r3, #-1
 5250 014a 7B69     		ldr	r3, [r7, #20]
 5251 014c 9A42     		cmp	r2, r3
 5252 014e 0DD1     		bne	.L36
 808:/home/cuil/workspace/arm/lm3s811/TI_Stellaris/driverlib/ethernet.c ****         {
 809:/home/cuil/workspace/arm/lm3s811/TI_Stellaris/driverlib/ethernet.c ****             ulTemp  = (pucBuf[i++] <<  0);
 5253              		.loc 1 809 0
 5254 0150 7B69     		ldr	r3, [r7, #20]
 5255 0152 BA68     		ldr	r2, [r7, #8]
 5256 0154 D318     		adds	r3, r2, r3
 5257 0156 1B78     		ldrb	r3, [r3, #0]	@ zero_extendqisi2
 5258 0158 3B61     		str	r3, [r7, #16]
 5259 015a 7B69     		ldr	r3, [r7, #20]
 5260 015c 03F10103 		add	r3, r3, #1
 5261 0160 7B61     		str	r3, [r7, #20]
 810:/home/cuil/workspace/arm/lm3s811/TI_Stellaris/driverlib/ethernet.c ****             HWREG(ulBase + MAC_O_DATA) = ulTemp;
 5262              		.loc 1 810 0
 5263 0162 FB68     		ldr	r3, [r7, #12]
 5264 0164 03F11003 		add	r3, r3, #16
 5265 0168 3A69     		ldr	r2, [r7, #16]
 5266 016a 1A60     		str	r2, [r3, #0]
 5267              	.L36:
 811:/home/cuil/workspace/arm/lm3s811/TI_Stellaris/driverlib/ethernet.c ****         }
 812:/home/cuil/workspace/arm/lm3s811/TI_Stellaris/driverlib/ethernet.c ****     }
 813:/home/cuil/workspace/arm/lm3s811/TI_Stellaris/driverlib/ethernet.c **** 
 814:/home/cuil/workspace/arm/lm3s811/TI_Stellaris/driverlib/ethernet.c ****     //
 815:/home/cuil/workspace/arm/lm3s811/TI_Stellaris/driverlib/ethernet.c ****     // Activate the transmitter
 816:/home/cuil/workspace/arm/lm3s811/TI_Stellaris/driverlib/ethernet.c ****     //
 817:/home/cuil/workspace/arm/lm3s811/TI_Stellaris/driverlib/ethernet.c ****     HWREG(ulBase + MAC_O_TR) = MAC_TR_NEWTX;
 5268              		.loc 1 817 0
 5269 016c FB68     		ldr	r3, [r7, #12]
 5270 016e 03F13803 		add	r3, r3, #56
 5271 0172 4FF00102 		mov	r2, #1
 5272 0176 1A60     		str	r2, [r3, #0]
 818:/home/cuil/workspace/arm/lm3s811/TI_Stellaris/driverlib/ethernet.c **** 
 819:/home/cuil/workspace/arm/lm3s811/TI_Stellaris/driverlib/ethernet.c ****     //
 820:/home/cuil/workspace/arm/lm3s811/TI_Stellaris/driverlib/ethernet.c ****     // Return the Buffer Length transmitted.
 821:/home/cuil/workspace/arm/lm3s811/TI_Stellaris/driverlib/ethernet.c ****     //
 822:/home/cuil/workspace/arm/lm3s811/TI_Stellaris/driverlib/ethernet.c ****     return(lBufLen);
 5273              		.loc 1 822 0
 5274 0178 7B68     		ldr	r3, [r7, #4]
 5275              	.L33:
 823:/home/cuil/workspace/arm/lm3s811/TI_Stellaris/driverlib/ethernet.c **** }
 5276              		.loc 1 823 0
 5277 017a 1846     		mov	r0, r3
 5278 017c 07F11C07 		add	r7, r7, #28
 5279 0180 BD46     		mov	sp, r7
 5280 0182 80BC     		pop	{r7}
 5281 0184 7047     		bx	lr
 5282              		.cfi_endproc
 5283              	.LFE12:
 5285 0186 00BF     		.section	.text.EthernetPacketPutNonBlocking,"ax",%progbits
 5286              		.align	2
 5287              		.global	EthernetPacketPutNonBlocking
 5288              		.thumb
 5289              		.thumb_func
 5291              	EthernetPacketPutNonBlocking:
 5292              	.LFB13:
 824:/home/cuil/workspace/arm/lm3s811/TI_Stellaris/driverlib/ethernet.c **** 
 825:/home/cuil/workspace/arm/lm3s811/TI_Stellaris/driverlib/ethernet.c **** //*****************************************************************************
 826:/home/cuil/workspace/arm/lm3s811/TI_Stellaris/driverlib/ethernet.c **** //
 827:/home/cuil/workspace/arm/lm3s811/TI_Stellaris/driverlib/ethernet.c **** //! Sends a packet to the Ethernet controller.
 828:/home/cuil/workspace/arm/lm3s811/TI_Stellaris/driverlib/ethernet.c **** //!
 829:/home/cuil/workspace/arm/lm3s811/TI_Stellaris/driverlib/ethernet.c **** //! \param ulBase is the base address of the controller.
 830:/home/cuil/workspace/arm/lm3s811/TI_Stellaris/driverlib/ethernet.c **** //! \param pucBuf is the pointer to the packet buffer.
 831:/home/cuil/workspace/arm/lm3s811/TI_Stellaris/driverlib/ethernet.c **** //! \param lBufLen is number of bytes in the packet to be transmitted.
 832:/home/cuil/workspace/arm/lm3s811/TI_Stellaris/driverlib/ethernet.c **** //!
 833:/home/cuil/workspace/arm/lm3s811/TI_Stellaris/driverlib/ethernet.c **** //! This function writes \e lBufLen bytes of the packet contained in \e pucBuf
 834:/home/cuil/workspace/arm/lm3s811/TI_Stellaris/driverlib/ethernet.c **** //! into the transmit FIFO of the controller and then activates the
 835:/home/cuil/workspace/arm/lm3s811/TI_Stellaris/driverlib/ethernet.c **** //! transmitter for this packet.  If no space is available in the FIFO, the
 836:/home/cuil/workspace/arm/lm3s811/TI_Stellaris/driverlib/ethernet.c **** //! function returns immediately.  If space is available, the
 837:/home/cuil/workspace/arm/lm3s811/TI_Stellaris/driverlib/ethernet.c **** //! function returns once \e lBufLen bytes of the packet have been placed
 838:/home/cuil/workspace/arm/lm3s811/TI_Stellaris/driverlib/ethernet.c **** //! into the FIFO and the transmitter has been started.  The function does not
 839:/home/cuil/workspace/arm/lm3s811/TI_Stellaris/driverlib/ethernet.c **** //! wait for the transmission to complete.  The function returns the
 840:/home/cuil/workspace/arm/lm3s811/TI_Stellaris/driverlib/ethernet.c **** //! negated \e lBufLen if the length is larger than the space available in
 841:/home/cuil/workspace/arm/lm3s811/TI_Stellaris/driverlib/ethernet.c **** //! the transmit FIFO.
 842:/home/cuil/workspace/arm/lm3s811/TI_Stellaris/driverlib/ethernet.c **** //!
 843:/home/cuil/workspace/arm/lm3s811/TI_Stellaris/driverlib/ethernet.c **** //! This function replaces the original EthernetPacketNonBlockingPut() API and
 844:/home/cuil/workspace/arm/lm3s811/TI_Stellaris/driverlib/ethernet.c **** //! performs the same actions.  A macro is provided in <tt>ethernet.h</tt> to
 845:/home/cuil/workspace/arm/lm3s811/TI_Stellaris/driverlib/ethernet.c **** //! map the original API to this API.
 846:/home/cuil/workspace/arm/lm3s811/TI_Stellaris/driverlib/ethernet.c **** //!
 847:/home/cuil/workspace/arm/lm3s811/TI_Stellaris/driverlib/ethernet.c **** //! \note This function does not block and returns immediately if no space
 848:/home/cuil/workspace/arm/lm3s811/TI_Stellaris/driverlib/ethernet.c **** //! is available for the transmit packet.
 849:/home/cuil/workspace/arm/lm3s811/TI_Stellaris/driverlib/ethernet.c **** //!
 850:/home/cuil/workspace/arm/lm3s811/TI_Stellaris/driverlib/ethernet.c **** //! \return Returns \b 0 if no space is available in the transmit FIFO, the
 851:/home/cuil/workspace/arm/lm3s811/TI_Stellaris/driverlib/ethernet.c **** //! negated packet length \b -lBufLen if the packet is too large for FIFO, and
 852:/home/cuil/workspace/arm/lm3s811/TI_Stellaris/driverlib/ethernet.c **** //! the packet length \b lBufLen otherwise.
 853:/home/cuil/workspace/arm/lm3s811/TI_Stellaris/driverlib/ethernet.c **** //
 854:/home/cuil/workspace/arm/lm3s811/TI_Stellaris/driverlib/ethernet.c **** //*****************************************************************************
 855:/home/cuil/workspace/arm/lm3s811/TI_Stellaris/driverlib/ethernet.c **** long
 856:/home/cuil/workspace/arm/lm3s811/TI_Stellaris/driverlib/ethernet.c **** EthernetPacketPutNonBlocking(unsigned long ulBase, unsigned char *pucBuf,
 857:/home/cuil/workspace/arm/lm3s811/TI_Stellaris/driverlib/ethernet.c ****                              long lBufLen)
 858:/home/cuil/workspace/arm/lm3s811/TI_Stellaris/driverlib/ethernet.c **** {
 5293              		.loc 1 858 0
 5294              		.cfi_startproc
 5295              		@ args = 0, pretend = 0, frame = 16
 5296              		@ frame_needed = 1, uses_anonymous_args = 0
 5297 0000 80B5     		push	{r7, lr}
 5298              	.LCFI39:
 5299              		.cfi_def_cfa_offset 8
 5300 0002 84B0     		sub	sp, sp, #16
 5301              	.LCFI40:
 5302              		.cfi_def_cfa_offset 24
 5303 0004 00AF     		add	r7, sp, #0
 5304              		.cfi_offset 14, -4
 5305              		.cfi_offset 7, -8
 5306              	.LCFI41:
 5307              		.cfi_def_cfa_register 7
 5308 0006 F860     		str	r0, [r7, #12]
 5309 0008 B960     		str	r1, [r7, #8]
 5310 000a 7A60     		str	r2, [r7, #4]
 859:/home/cuil/workspace/arm/lm3s811/TI_Stellaris/driverlib/ethernet.c ****     //
 860:/home/cuil/workspace/arm/lm3s811/TI_Stellaris/driverlib/ethernet.c ****     // Check the arguments.
 861:/home/cuil/workspace/arm/lm3s811/TI_Stellaris/driverlib/ethernet.c ****     //
 862:/home/cuil/workspace/arm/lm3s811/TI_Stellaris/driverlib/ethernet.c ****     ASSERT(ulBase == ETH_BASE);
 863:/home/cuil/workspace/arm/lm3s811/TI_Stellaris/driverlib/ethernet.c ****     ASSERT(pucBuf != 0);
 864:/home/cuil/workspace/arm/lm3s811/TI_Stellaris/driverlib/ethernet.c ****     ASSERT(lBufLen > 0);
 865:/home/cuil/workspace/arm/lm3s811/TI_Stellaris/driverlib/ethernet.c **** 
 866:/home/cuil/workspace/arm/lm3s811/TI_Stellaris/driverlib/ethernet.c ****     //
 867:/home/cuil/workspace/arm/lm3s811/TI_Stellaris/driverlib/ethernet.c ****     // Check if the transmit FIFO is in use and return the appropriate code.
 868:/home/cuil/workspace/arm/lm3s811/TI_Stellaris/driverlib/ethernet.c ****     //
 869:/home/cuil/workspace/arm/lm3s811/TI_Stellaris/driverlib/ethernet.c ****     if(HWREG(ulBase + MAC_O_TR) & MAC_TR_NEWTX)
 5311              		.loc 1 869 0
 5312 000c FB68     		ldr	r3, [r7, #12]
 5313 000e 03F13803 		add	r3, r3, #56
 5314 0012 1B68     		ldr	r3, [r3, #0]
 5315 0014 03F00103 		and	r3, r3, #1
 5316 0018 DBB2     		uxtb	r3, r3
 5317 001a 002B     		cmp	r3, #0
 5318 001c 02D0     		beq	.L40
 870:/home/cuil/workspace/arm/lm3s811/TI_Stellaris/driverlib/ethernet.c ****     {
 871:/home/cuil/workspace/arm/lm3s811/TI_Stellaris/driverlib/ethernet.c ****         return(0);
 5319              		.loc 1 871 0
 5320 001e 4FF00003 		mov	r3, #0
 5321 0022 05E0     		b	.L41
 5322              	.L40:
 872:/home/cuil/workspace/arm/lm3s811/TI_Stellaris/driverlib/ethernet.c ****     }
 873:/home/cuil/workspace/arm/lm3s811/TI_Stellaris/driverlib/ethernet.c **** 
 874:/home/cuil/workspace/arm/lm3s811/TI_Stellaris/driverlib/ethernet.c ****     //
 875:/home/cuil/workspace/arm/lm3s811/TI_Stellaris/driverlib/ethernet.c ****     // Send the packet and return.
 876:/home/cuil/workspace/arm/lm3s811/TI_Stellaris/driverlib/ethernet.c ****     //
 877:/home/cuil/workspace/arm/lm3s811/TI_Stellaris/driverlib/ethernet.c ****     return(EthernetPacketPutInternal(ulBase, pucBuf, lBufLen));
 5323              		.loc 1 877 0
 5324 0024 F868     		ldr	r0, [r7, #12]
 5325 0026 B968     		ldr	r1, [r7, #8]
 5326 0028 7A68     		ldr	r2, [r7, #4]
 5327 002a FFF7FEFF 		bl	EthernetPacketPutInternal
 5328 002e 0346     		mov	r3, r0
 5329              	.L41:
 878:/home/cuil/workspace/arm/lm3s811/TI_Stellaris/driverlib/ethernet.c **** }
 5330              		.loc 1 878 0
 5331 0030 1846     		mov	r0, r3
 5332 0032 07F11007 		add	r7, r7, #16
 5333 0036 BD46     		mov	sp, r7
 5334 0038 80BD     		pop	{r7, pc}
 5335              		.cfi_endproc
 5336              	.LFE13:
 5338 003a 00BF     		.section	.text.EthernetPacketPut,"ax",%progbits
 5339              		.align	2
 5340              		.global	EthernetPacketPut
 5341              		.thumb
 5342              		.thumb_func
 5344              	EthernetPacketPut:
 5345              	.LFB14:
 879:/home/cuil/workspace/arm/lm3s811/TI_Stellaris/driverlib/ethernet.c **** 
 880:/home/cuil/workspace/arm/lm3s811/TI_Stellaris/driverlib/ethernet.c **** //*****************************************************************************
 881:/home/cuil/workspace/arm/lm3s811/TI_Stellaris/driverlib/ethernet.c **** //
 882:/home/cuil/workspace/arm/lm3s811/TI_Stellaris/driverlib/ethernet.c **** //! Waits to send a packet from the Ethernet controller.
 883:/home/cuil/workspace/arm/lm3s811/TI_Stellaris/driverlib/ethernet.c **** //!
 884:/home/cuil/workspace/arm/lm3s811/TI_Stellaris/driverlib/ethernet.c **** //! \param ulBase is the base address of the controller.
 885:/home/cuil/workspace/arm/lm3s811/TI_Stellaris/driverlib/ethernet.c **** //! \param pucBuf is the pointer to the packet buffer.
 886:/home/cuil/workspace/arm/lm3s811/TI_Stellaris/driverlib/ethernet.c **** //! \param lBufLen is number of bytes in the packet to be transmitted.
 887:/home/cuil/workspace/arm/lm3s811/TI_Stellaris/driverlib/ethernet.c **** //!
 888:/home/cuil/workspace/arm/lm3s811/TI_Stellaris/driverlib/ethernet.c **** //! This function writes \e lBufLen bytes of the packet contained in \e pucBuf
 889:/home/cuil/workspace/arm/lm3s811/TI_Stellaris/driverlib/ethernet.c **** //! into the transmit FIFO of the controller and then activates the transmitter
 890:/home/cuil/workspace/arm/lm3s811/TI_Stellaris/driverlib/ethernet.c **** //! for this packet.  This function waits until the transmit FIFO is empty.
 891:/home/cuil/workspace/arm/lm3s811/TI_Stellaris/driverlib/ethernet.c **** //! Once space is available, the function returns once \e lBufLen bytes of
 892:/home/cuil/workspace/arm/lm3s811/TI_Stellaris/driverlib/ethernet.c **** //! the packet have been placed into the FIFO and the transmitter has been
 893:/home/cuil/workspace/arm/lm3s811/TI_Stellaris/driverlib/ethernet.c **** //! started.  The function does not wait for the transmission to complete.  The
 894:/home/cuil/workspace/arm/lm3s811/TI_Stellaris/driverlib/ethernet.c **** //! function returns the negated \e lBufLen if the length is larger than
 895:/home/cuil/workspace/arm/lm3s811/TI_Stellaris/driverlib/ethernet.c **** //! the space available in the transmit FIFO.
 896:/home/cuil/workspace/arm/lm3s811/TI_Stellaris/driverlib/ethernet.c **** //!
 897:/home/cuil/workspace/arm/lm3s811/TI_Stellaris/driverlib/ethernet.c **** //! \note This function blocks and waits until space is available for the
 898:/home/cuil/workspace/arm/lm3s811/TI_Stellaris/driverlib/ethernet.c **** //! transmit packet before returning.
 899:/home/cuil/workspace/arm/lm3s811/TI_Stellaris/driverlib/ethernet.c **** //!
 900:/home/cuil/workspace/arm/lm3s811/TI_Stellaris/driverlib/ethernet.c **** //! \return Returns the negated packet length \b -lBufLen if the packet is too
 901:/home/cuil/workspace/arm/lm3s811/TI_Stellaris/driverlib/ethernet.c **** //! large for FIFO, and the packet length \b lBufLen otherwise.
 902:/home/cuil/workspace/arm/lm3s811/TI_Stellaris/driverlib/ethernet.c **** //
 903:/home/cuil/workspace/arm/lm3s811/TI_Stellaris/driverlib/ethernet.c **** //*****************************************************************************
 904:/home/cuil/workspace/arm/lm3s811/TI_Stellaris/driverlib/ethernet.c **** long
 905:/home/cuil/workspace/arm/lm3s811/TI_Stellaris/driverlib/ethernet.c **** EthernetPacketPut(unsigned long ulBase, unsigned char *pucBuf,
 906:/home/cuil/workspace/arm/lm3s811/TI_Stellaris/driverlib/ethernet.c ****                   long lBufLen)
 907:/home/cuil/workspace/arm/lm3s811/TI_Stellaris/driverlib/ethernet.c **** {
 5346              		.loc 1 907 0
 5347              		.cfi_startproc
 5348              		@ args = 0, pretend = 0, frame = 16
 5349              		@ frame_needed = 1, uses_anonymous_args = 0
 5350 0000 80B5     		push	{r7, lr}
 5351              	.LCFI42:
 5352              		.cfi_def_cfa_offset 8
 5353 0002 84B0     		sub	sp, sp, #16
 5354              	.LCFI43:
 5355              		.cfi_def_cfa_offset 24
 5356 0004 00AF     		add	r7, sp, #0
 5357              		.cfi_offset 14, -4
 5358              		.cfi_offset 7, -8
 5359              	.LCFI44:
 5360              		.cfi_def_cfa_register 7
 5361 0006 F860     		str	r0, [r7, #12]
 5362 0008 B960     		str	r1, [r7, #8]
 5363 000a 7A60     		str	r2, [r7, #4]
 908:/home/cuil/workspace/arm/lm3s811/TI_Stellaris/driverlib/ethernet.c ****     //
 909:/home/cuil/workspace/arm/lm3s811/TI_Stellaris/driverlib/ethernet.c ****     // Check the arguments.
 910:/home/cuil/workspace/arm/lm3s811/TI_Stellaris/driverlib/ethernet.c ****     //
 911:/home/cuil/workspace/arm/lm3s811/TI_Stellaris/driverlib/ethernet.c ****     ASSERT(ulBase == ETH_BASE);
 912:/home/cuil/workspace/arm/lm3s811/TI_Stellaris/driverlib/ethernet.c ****     ASSERT(pucBuf != 0);
 913:/home/cuil/workspace/arm/lm3s811/TI_Stellaris/driverlib/ethernet.c ****     ASSERT(lBufLen > 0);
 914:/home/cuil/workspace/arm/lm3s811/TI_Stellaris/driverlib/ethernet.c **** 
 915:/home/cuil/workspace/arm/lm3s811/TI_Stellaris/driverlib/ethernet.c ****     //
 916:/home/cuil/workspace/arm/lm3s811/TI_Stellaris/driverlib/ethernet.c ****     // Wait for current packet (if any) to complete.
 917:/home/cuil/workspace/arm/lm3s811/TI_Stellaris/driverlib/ethernet.c ****     //
 918:/home/cuil/workspace/arm/lm3s811/TI_Stellaris/driverlib/ethernet.c ****     while(HWREG(ulBase + MAC_O_TR) & MAC_TR_NEWTX)
 5364              		.loc 1 918 0
 5365 000c 00BF     		nop
 5366              	.L43:
 5367              		.loc 1 918 0 is_stmt 0 discriminator 1
 5368 000e FB68     		ldr	r3, [r7, #12]
 5369 0010 03F13803 		add	r3, r3, #56
 5370 0014 1B68     		ldr	r3, [r3, #0]
 5371 0016 03F00103 		and	r3, r3, #1
 5372 001a DBB2     		uxtb	r3, r3
 5373 001c 002B     		cmp	r3, #0
 5374 001e F6D1     		bne	.L43
 919:/home/cuil/workspace/arm/lm3s811/TI_Stellaris/driverlib/ethernet.c ****     {
 920:/home/cuil/workspace/arm/lm3s811/TI_Stellaris/driverlib/ethernet.c ****     }
 921:/home/cuil/workspace/arm/lm3s811/TI_Stellaris/driverlib/ethernet.c **** 
 922:/home/cuil/workspace/arm/lm3s811/TI_Stellaris/driverlib/ethernet.c ****     //
 923:/home/cuil/workspace/arm/lm3s811/TI_Stellaris/driverlib/ethernet.c ****     // Send the packet and return.
 924:/home/cuil/workspace/arm/lm3s811/TI_Stellaris/driverlib/ethernet.c ****     //
 925:/home/cuil/workspace/arm/lm3s811/TI_Stellaris/driverlib/ethernet.c ****     return(EthernetPacketPutInternal(ulBase, pucBuf, lBufLen));
 5375              		.loc 1 925 0 is_stmt 1
 5376 0020 F868     		ldr	r0, [r7, #12]
 5377 0022 B968     		ldr	r1, [r7, #8]
 5378 0024 7A68     		ldr	r2, [r7, #4]
 5379 0026 FFF7FEFF 		bl	EthernetPacketPutInternal
 5380 002a 0346     		mov	r3, r0
 926:/home/cuil/workspace/arm/lm3s811/TI_Stellaris/driverlib/ethernet.c **** }
 5381              		.loc 1 926 0
 5382 002c 1846     		mov	r0, r3
 5383 002e 07F11007 		add	r7, r7, #16
 5384 0032 BD46     		mov	sp, r7
 5385 0034 80BD     		pop	{r7, pc}
 5386              		.cfi_endproc
 5387              	.LFE14:
 5389 0036 00BF     		.section	.text.EthernetIntRegister,"ax",%progbits
 5390              		.align	2
 5391              		.global	EthernetIntRegister
 5392              		.thumb
 5393              		.thumb_func
 5395              	EthernetIntRegister:
 5396              	.LFB15:
 927:/home/cuil/workspace/arm/lm3s811/TI_Stellaris/driverlib/ethernet.c **** 
 928:/home/cuil/workspace/arm/lm3s811/TI_Stellaris/driverlib/ethernet.c **** //*****************************************************************************
 929:/home/cuil/workspace/arm/lm3s811/TI_Stellaris/driverlib/ethernet.c **** //
 930:/home/cuil/workspace/arm/lm3s811/TI_Stellaris/driverlib/ethernet.c **** //! Registers an interrupt handler for an Ethernet interrupt.
 931:/home/cuil/workspace/arm/lm3s811/TI_Stellaris/driverlib/ethernet.c **** //!
 932:/home/cuil/workspace/arm/lm3s811/TI_Stellaris/driverlib/ethernet.c **** //! \param ulBase is the base address of the controller.
 933:/home/cuil/workspace/arm/lm3s811/TI_Stellaris/driverlib/ethernet.c **** //! \param pfnHandler is a pointer to the function to be called when the
 934:/home/cuil/workspace/arm/lm3s811/TI_Stellaris/driverlib/ethernet.c **** //! enabled Ethernet interrupts occur.
 935:/home/cuil/workspace/arm/lm3s811/TI_Stellaris/driverlib/ethernet.c **** //!
 936:/home/cuil/workspace/arm/lm3s811/TI_Stellaris/driverlib/ethernet.c **** //! This function sets the handler to be called when the Ethernet interrupt
 937:/home/cuil/workspace/arm/lm3s811/TI_Stellaris/driverlib/ethernet.c **** //! occurs.  This function enables the global interrupt in the interrupt
 938:/home/cuil/workspace/arm/lm3s811/TI_Stellaris/driverlib/ethernet.c **** //! controller; specific Ethernet interrupts must be enabled via
 939:/home/cuil/workspace/arm/lm3s811/TI_Stellaris/driverlib/ethernet.c **** //! EthernetIntEnable().  It is the interrupt handler's responsibility to clear
 940:/home/cuil/workspace/arm/lm3s811/TI_Stellaris/driverlib/ethernet.c **** //! the interrupt source.
 941:/home/cuil/workspace/arm/lm3s811/TI_Stellaris/driverlib/ethernet.c **** //!
 942:/home/cuil/workspace/arm/lm3s811/TI_Stellaris/driverlib/ethernet.c **** //! \sa IntRegister() for important information about registering interrupt
 943:/home/cuil/workspace/arm/lm3s811/TI_Stellaris/driverlib/ethernet.c **** //! handlers.
 944:/home/cuil/workspace/arm/lm3s811/TI_Stellaris/driverlib/ethernet.c **** //!
 945:/home/cuil/workspace/arm/lm3s811/TI_Stellaris/driverlib/ethernet.c **** //! \return None.
 946:/home/cuil/workspace/arm/lm3s811/TI_Stellaris/driverlib/ethernet.c **** //
 947:/home/cuil/workspace/arm/lm3s811/TI_Stellaris/driverlib/ethernet.c **** //*****************************************************************************
 948:/home/cuil/workspace/arm/lm3s811/TI_Stellaris/driverlib/ethernet.c **** void
 949:/home/cuil/workspace/arm/lm3s811/TI_Stellaris/driverlib/ethernet.c **** EthernetIntRegister(unsigned long ulBase, void (*pfnHandler)(void))
 950:/home/cuil/workspace/arm/lm3s811/TI_Stellaris/driverlib/ethernet.c **** {
 5397              		.loc 1 950 0
 5398              		.cfi_startproc
 5399              		@ args = 0, pretend = 0, frame = 8
 5400              		@ frame_needed = 1, uses_anonymous_args = 0
 5401 0000 80B5     		push	{r7, lr}
 5402              	.LCFI45:
 5403              		.cfi_def_cfa_offset 8
 5404 0002 82B0     		sub	sp, sp, #8
 5405              	.LCFI46:
 5406              		.cfi_def_cfa_offset 16
 5407 0004 00AF     		add	r7, sp, #0
 5408              		.cfi_offset 14, -4
 5409              		.cfi_offset 7, -8
 5410              	.LCFI47:
 5411              		.cfi_def_cfa_register 7
 5412 0006 7860     		str	r0, [r7, #4]
 5413 0008 3960     		str	r1, [r7, #0]
 951:/home/cuil/workspace/arm/lm3s811/TI_Stellaris/driverlib/ethernet.c ****     //
 952:/home/cuil/workspace/arm/lm3s811/TI_Stellaris/driverlib/ethernet.c ****     // Check the arguments.
 953:/home/cuil/workspace/arm/lm3s811/TI_Stellaris/driverlib/ethernet.c ****     //
 954:/home/cuil/workspace/arm/lm3s811/TI_Stellaris/driverlib/ethernet.c ****     ASSERT(ulBase == ETH_BASE);
 955:/home/cuil/workspace/arm/lm3s811/TI_Stellaris/driverlib/ethernet.c ****     ASSERT(pfnHandler != 0);
 956:/home/cuil/workspace/arm/lm3s811/TI_Stellaris/driverlib/ethernet.c **** 
 957:/home/cuil/workspace/arm/lm3s811/TI_Stellaris/driverlib/ethernet.c ****     //
 958:/home/cuil/workspace/arm/lm3s811/TI_Stellaris/driverlib/ethernet.c ****     // Register the interrupt handler.
 959:/home/cuil/workspace/arm/lm3s811/TI_Stellaris/driverlib/ethernet.c ****     //
 960:/home/cuil/workspace/arm/lm3s811/TI_Stellaris/driverlib/ethernet.c ****     IntRegister(INT_ETH, pfnHandler);
 5414              		.loc 1 960 0
 5415 000a 4FF03A00 		mov	r0, #58
 5416 000e 3968     		ldr	r1, [r7, #0]
 5417 0010 FFF7FEFF 		bl	IntRegister
 961:/home/cuil/workspace/arm/lm3s811/TI_Stellaris/driverlib/ethernet.c **** 
 962:/home/cuil/workspace/arm/lm3s811/TI_Stellaris/driverlib/ethernet.c ****     //
 963:/home/cuil/workspace/arm/lm3s811/TI_Stellaris/driverlib/ethernet.c ****     // Enable the Ethernet interrupt.
 964:/home/cuil/workspace/arm/lm3s811/TI_Stellaris/driverlib/ethernet.c ****     //
 965:/home/cuil/workspace/arm/lm3s811/TI_Stellaris/driverlib/ethernet.c ****     IntEnable(INT_ETH);
 5418              		.loc 1 965 0
 5419 0014 4FF03A00 		mov	r0, #58
 5420 0018 FFF7FEFF 		bl	IntEnable
 966:/home/cuil/workspace/arm/lm3s811/TI_Stellaris/driverlib/ethernet.c **** }
 5421              		.loc 1 966 0
 5422 001c 07F10807 		add	r7, r7, #8
 5423 0020 BD46     		mov	sp, r7
 5424 0022 80BD     		pop	{r7, pc}
 5425              		.cfi_endproc
 5426              	.LFE15:
 5428              		.section	.text.EthernetIntUnregister,"ax",%progbits
 5429              		.align	2
 5430              		.global	EthernetIntUnregister
 5431              		.thumb
 5432              		.thumb_func
 5434              	EthernetIntUnregister:
 5435              	.LFB16:
 967:/home/cuil/workspace/arm/lm3s811/TI_Stellaris/driverlib/ethernet.c **** 
 968:/home/cuil/workspace/arm/lm3s811/TI_Stellaris/driverlib/ethernet.c **** //*****************************************************************************
 969:/home/cuil/workspace/arm/lm3s811/TI_Stellaris/driverlib/ethernet.c **** //
 970:/home/cuil/workspace/arm/lm3s811/TI_Stellaris/driverlib/ethernet.c **** //! Unregisters an interrupt handler for an Ethernet interrupt.
 971:/home/cuil/workspace/arm/lm3s811/TI_Stellaris/driverlib/ethernet.c **** //!
 972:/home/cuil/workspace/arm/lm3s811/TI_Stellaris/driverlib/ethernet.c **** //! \param ulBase is the base address of the controller.
 973:/home/cuil/workspace/arm/lm3s811/TI_Stellaris/driverlib/ethernet.c **** //!
 974:/home/cuil/workspace/arm/lm3s811/TI_Stellaris/driverlib/ethernet.c **** //! This function unregisters the interrupt handler.  This function disables
 975:/home/cuil/workspace/arm/lm3s811/TI_Stellaris/driverlib/ethernet.c **** //! the global interrupt in the interrupt controller so that the interrupt
 976:/home/cuil/workspace/arm/lm3s811/TI_Stellaris/driverlib/ethernet.c **** //! handler no longer is called.
 977:/home/cuil/workspace/arm/lm3s811/TI_Stellaris/driverlib/ethernet.c **** //!
 978:/home/cuil/workspace/arm/lm3s811/TI_Stellaris/driverlib/ethernet.c **** //! \sa IntRegister() for important information about registering interrupt
 979:/home/cuil/workspace/arm/lm3s811/TI_Stellaris/driverlib/ethernet.c **** //! handlers.
 980:/home/cuil/workspace/arm/lm3s811/TI_Stellaris/driverlib/ethernet.c **** //!
 981:/home/cuil/workspace/arm/lm3s811/TI_Stellaris/driverlib/ethernet.c **** //! \return None.
 982:/home/cuil/workspace/arm/lm3s811/TI_Stellaris/driverlib/ethernet.c **** //
 983:/home/cuil/workspace/arm/lm3s811/TI_Stellaris/driverlib/ethernet.c **** //*****************************************************************************
 984:/home/cuil/workspace/arm/lm3s811/TI_Stellaris/driverlib/ethernet.c **** void
 985:/home/cuil/workspace/arm/lm3s811/TI_Stellaris/driverlib/ethernet.c **** EthernetIntUnregister(unsigned long ulBase)
 986:/home/cuil/workspace/arm/lm3s811/TI_Stellaris/driverlib/ethernet.c **** {
 5436              		.loc 1 986 0
 5437              		.cfi_startproc
 5438              		@ args = 0, pretend = 0, frame = 8
 5439              		@ frame_needed = 1, uses_anonymous_args = 0
 5440 0000 80B5     		push	{r7, lr}
 5441              	.LCFI48:
 5442              		.cfi_def_cfa_offset 8
 5443 0002 82B0     		sub	sp, sp, #8
 5444              	.LCFI49:
 5445              		.cfi_def_cfa_offset 16
 5446 0004 00AF     		add	r7, sp, #0
 5447              		.cfi_offset 14, -4
 5448              		.cfi_offset 7, -8
 5449              	.LCFI50:
 5450              		.cfi_def_cfa_register 7
 5451 0006 7860     		str	r0, [r7, #4]
 987:/home/cuil/workspace/arm/lm3s811/TI_Stellaris/driverlib/ethernet.c ****     //
 988:/home/cuil/workspace/arm/lm3s811/TI_Stellaris/driverlib/ethernet.c ****     // Check the arguments.
 989:/home/cuil/workspace/arm/lm3s811/TI_Stellaris/driverlib/ethernet.c ****     //
 990:/home/cuil/workspace/arm/lm3s811/TI_Stellaris/driverlib/ethernet.c ****     ASSERT(ulBase == ETH_BASE);
 991:/home/cuil/workspace/arm/lm3s811/TI_Stellaris/driverlib/ethernet.c **** 
 992:/home/cuil/workspace/arm/lm3s811/TI_Stellaris/driverlib/ethernet.c ****     //
 993:/home/cuil/workspace/arm/lm3s811/TI_Stellaris/driverlib/ethernet.c ****     // Disable the interrupt.
 994:/home/cuil/workspace/arm/lm3s811/TI_Stellaris/driverlib/ethernet.c ****     //
 995:/home/cuil/workspace/arm/lm3s811/TI_Stellaris/driverlib/ethernet.c ****     IntDisable(INT_ETH);
 5452              		.loc 1 995 0
 5453 0008 4FF03A00 		mov	r0, #58
 5454 000c FFF7FEFF 		bl	IntDisable
 996:/home/cuil/workspace/arm/lm3s811/TI_Stellaris/driverlib/ethernet.c **** 
 997:/home/cuil/workspace/arm/lm3s811/TI_Stellaris/driverlib/ethernet.c ****     //
 998:/home/cuil/workspace/arm/lm3s811/TI_Stellaris/driverlib/ethernet.c ****     // Unregister the interrupt handler.
 999:/home/cuil/workspace/arm/lm3s811/TI_Stellaris/driverlib/ethernet.c ****     //
1000:/home/cuil/workspace/arm/lm3s811/TI_Stellaris/driverlib/ethernet.c ****     IntUnregister(INT_ETH);
 5455              		.loc 1 1000 0
 5456 0010 4FF03A00 		mov	r0, #58
 5457 0014 FFF7FEFF 		bl	IntUnregister
1001:/home/cuil/workspace/arm/lm3s811/TI_Stellaris/driverlib/ethernet.c **** }
 5458              		.loc 1 1001 0
 5459 0018 07F10807 		add	r7, r7, #8
 5460 001c BD46     		mov	sp, r7
 5461 001e 80BD     		pop	{r7, pc}
 5462              		.cfi_endproc
 5463              	.LFE16:
 5465              		.section	.text.EthernetIntEnable,"ax",%progbits
 5466              		.align	2
 5467              		.global	EthernetIntEnable
 5468              		.thumb
 5469              		.thumb_func
 5471              	EthernetIntEnable:
 5472              	.LFB17:
1002:/home/cuil/workspace/arm/lm3s811/TI_Stellaris/driverlib/ethernet.c **** 
1003:/home/cuil/workspace/arm/lm3s811/TI_Stellaris/driverlib/ethernet.c **** //*****************************************************************************
1004:/home/cuil/workspace/arm/lm3s811/TI_Stellaris/driverlib/ethernet.c **** //
1005:/home/cuil/workspace/arm/lm3s811/TI_Stellaris/driverlib/ethernet.c **** //! Enables individual Ethernet interrupt sources.
1006:/home/cuil/workspace/arm/lm3s811/TI_Stellaris/driverlib/ethernet.c **** //!
1007:/home/cuil/workspace/arm/lm3s811/TI_Stellaris/driverlib/ethernet.c **** //! \param ulBase is the base address of the controller.
1008:/home/cuil/workspace/arm/lm3s811/TI_Stellaris/driverlib/ethernet.c **** //! \param ulIntFlags is the bit mask of the interrupt sources to be enabled.
1009:/home/cuil/workspace/arm/lm3s811/TI_Stellaris/driverlib/ethernet.c **** //!
1010:/home/cuil/workspace/arm/lm3s811/TI_Stellaris/driverlib/ethernet.c **** //! This function enables the indicated Ethernet interrupt sources.  Only the
1011:/home/cuil/workspace/arm/lm3s811/TI_Stellaris/driverlib/ethernet.c **** //! sources that are enabled can be reflected to the processor interrupt;
1012:/home/cuil/workspace/arm/lm3s811/TI_Stellaris/driverlib/ethernet.c **** //! disabled sources have no effect on the processor.
1013:/home/cuil/workspace/arm/lm3s811/TI_Stellaris/driverlib/ethernet.c **** //!
1014:/home/cuil/workspace/arm/lm3s811/TI_Stellaris/driverlib/ethernet.c **** //! The \e ulIntFlags parameter is the logical OR of any of the following:
1015:/home/cuil/workspace/arm/lm3s811/TI_Stellaris/driverlib/ethernet.c **** //!
1016:/home/cuil/workspace/arm/lm3s811/TI_Stellaris/driverlib/ethernet.c **** //! - \b ETH_INT_PHY - An interrupt from the PHY has occurred.  The integrated
1017:/home/cuil/workspace/arm/lm3s811/TI_Stellaris/driverlib/ethernet.c **** //! PHY supports a number of interrupt conditions.  The appropriate PHY
1018:/home/cuil/workspace/arm/lm3s811/TI_Stellaris/driverlib/ethernet.c **** //! register, PHY_MR17 or PHY_MR29 depending on the device class, must be read
1019:/home/cuil/workspace/arm/lm3s811/TI_Stellaris/driverlib/ethernet.c **** //! to determine which PHY interrupt has occurred.  This register can be read
1020:/home/cuil/workspace/arm/lm3s811/TI_Stellaris/driverlib/ethernet.c **** //! using the EthernetPHYRead() API function.
1021:/home/cuil/workspace/arm/lm3s811/TI_Stellaris/driverlib/ethernet.c **** //! - \b ETH_INT_MDIO - This interrupt indicates that a transaction on the
1022:/home/cuil/workspace/arm/lm3s811/TI_Stellaris/driverlib/ethernet.c **** //! management interface has completed successfully.
1023:/home/cuil/workspace/arm/lm3s811/TI_Stellaris/driverlib/ethernet.c **** //! - \b ETH_INT_RXER - This interrupt indicates that an error has occurred
1024:/home/cuil/workspace/arm/lm3s811/TI_Stellaris/driverlib/ethernet.c **** //! during reception of a frame.  This error can indicate a length mismatch, a
1025:/home/cuil/workspace/arm/lm3s811/TI_Stellaris/driverlib/ethernet.c **** //! CRC failure, or an error indication from the PHY.
1026:/home/cuil/workspace/arm/lm3s811/TI_Stellaris/driverlib/ethernet.c **** //! - \b ETH_INT_RXOF - This interrupt indicates that a frame has been received
1027:/home/cuil/workspace/arm/lm3s811/TI_Stellaris/driverlib/ethernet.c **** //! that exceeds the available space in the RX FIFO.
1028:/home/cuil/workspace/arm/lm3s811/TI_Stellaris/driverlib/ethernet.c **** //! - \b ETH_INT_TX - This interrupt indicates that the packet stored in the TX
1029:/home/cuil/workspace/arm/lm3s811/TI_Stellaris/driverlib/ethernet.c **** //! FIFO has been successfully transmitted.
1030:/home/cuil/workspace/arm/lm3s811/TI_Stellaris/driverlib/ethernet.c **** //! - \b ETH_INT_TXER - This interrupt indicates that an error has occurred
1031:/home/cuil/workspace/arm/lm3s811/TI_Stellaris/driverlib/ethernet.c **** //! during the transmission of a packet.  This error can be either a retry
1032:/home/cuil/workspace/arm/lm3s811/TI_Stellaris/driverlib/ethernet.c **** //! failure during the back-off process, or an invalid length stored in the TX
1033:/home/cuil/workspace/arm/lm3s811/TI_Stellaris/driverlib/ethernet.c **** //! FIFO.
1034:/home/cuil/workspace/arm/lm3s811/TI_Stellaris/driverlib/ethernet.c **** //! - \b ETH_INT_RX - This interrupt indicates that one (or more) packets are
1035:/home/cuil/workspace/arm/lm3s811/TI_Stellaris/driverlib/ethernet.c **** //! available in the RX FIFO for processing.
1036:/home/cuil/workspace/arm/lm3s811/TI_Stellaris/driverlib/ethernet.c **** //!
1037:/home/cuil/workspace/arm/lm3s811/TI_Stellaris/driverlib/ethernet.c **** //! \return None.
1038:/home/cuil/workspace/arm/lm3s811/TI_Stellaris/driverlib/ethernet.c **** //
1039:/home/cuil/workspace/arm/lm3s811/TI_Stellaris/driverlib/ethernet.c **** //*****************************************************************************
1040:/home/cuil/workspace/arm/lm3s811/TI_Stellaris/driverlib/ethernet.c **** void
1041:/home/cuil/workspace/arm/lm3s811/TI_Stellaris/driverlib/ethernet.c **** EthernetIntEnable(unsigned long ulBase, unsigned long ulIntFlags)
1042:/home/cuil/workspace/arm/lm3s811/TI_Stellaris/driverlib/ethernet.c **** {
 5473              		.loc 1 1042 0
 5474              		.cfi_startproc
 5475              		@ args = 0, pretend = 0, frame = 8
 5476              		@ frame_needed = 1, uses_anonymous_args = 0
 5477              		@ link register save eliminated.
 5478 0000 80B4     		push	{r7}
 5479              	.LCFI51:
 5480              		.cfi_def_cfa_offset 4
 5481 0002 83B0     		sub	sp, sp, #12
 5482              	.LCFI52:
 5483              		.cfi_def_cfa_offset 16
 5484 0004 00AF     		add	r7, sp, #0
 5485              		.cfi_offset 7, -4
 5486              	.LCFI53:
 5487              		.cfi_def_cfa_register 7
 5488 0006 7860     		str	r0, [r7, #4]
 5489 0008 3960     		str	r1, [r7, #0]
1043:/home/cuil/workspace/arm/lm3s811/TI_Stellaris/driverlib/ethernet.c ****     //
1044:/home/cuil/workspace/arm/lm3s811/TI_Stellaris/driverlib/ethernet.c ****     // Check the arguments.
1045:/home/cuil/workspace/arm/lm3s811/TI_Stellaris/driverlib/ethernet.c ****     //
1046:/home/cuil/workspace/arm/lm3s811/TI_Stellaris/driverlib/ethernet.c ****     ASSERT(ulBase == ETH_BASE);
1047:/home/cuil/workspace/arm/lm3s811/TI_Stellaris/driverlib/ethernet.c ****     ASSERT(!(ulIntFlags & ~(ETH_INT_PHY | ETH_INT_MDIO | ETH_INT_RXER |
1048:/home/cuil/workspace/arm/lm3s811/TI_Stellaris/driverlib/ethernet.c ****                             ETH_INT_RXOF | ETH_INT_TX | ETH_INT_TXER |
1049:/home/cuil/workspace/arm/lm3s811/TI_Stellaris/driverlib/ethernet.c ****                             ETH_INT_RX)));
1050:/home/cuil/workspace/arm/lm3s811/TI_Stellaris/driverlib/ethernet.c **** 
1051:/home/cuil/workspace/arm/lm3s811/TI_Stellaris/driverlib/ethernet.c ****     //
1052:/home/cuil/workspace/arm/lm3s811/TI_Stellaris/driverlib/ethernet.c ****     // Enable the specified interrupts.
1053:/home/cuil/workspace/arm/lm3s811/TI_Stellaris/driverlib/ethernet.c ****     //
1054:/home/cuil/workspace/arm/lm3s811/TI_Stellaris/driverlib/ethernet.c ****     HWREG(ulBase + MAC_O_IM) |= ulIntFlags;
 5490              		.loc 1 1054 0
 5491 000a 7B68     		ldr	r3, [r7, #4]
 5492 000c 03F10403 		add	r3, r3, #4
 5493 0010 7A68     		ldr	r2, [r7, #4]
 5494 0012 02F10402 		add	r2, r2, #4
 5495 0016 1168     		ldr	r1, [r2, #0]
 5496 0018 3A68     		ldr	r2, [r7, #0]
 5497 001a 41EA0202 		orr	r2, r1, r2
 5498 001e 1A60     		str	r2, [r3, #0]
1055:/home/cuil/workspace/arm/lm3s811/TI_Stellaris/driverlib/ethernet.c **** }
 5499              		.loc 1 1055 0
 5500 0020 07F10C07 		add	r7, r7, #12
 5501 0024 BD46     		mov	sp, r7
 5502 0026 80BC     		pop	{r7}
 5503 0028 7047     		bx	lr
 5504              		.cfi_endproc
 5505              	.LFE17:
 5507 002a 00BF     		.section	.text.EthernetIntDisable,"ax",%progbits
 5508              		.align	2
 5509              		.global	EthernetIntDisable
 5510              		.thumb
 5511              		.thumb_func
 5513              	EthernetIntDisable:
 5514              	.LFB18:
1056:/home/cuil/workspace/arm/lm3s811/TI_Stellaris/driverlib/ethernet.c **** 
1057:/home/cuil/workspace/arm/lm3s811/TI_Stellaris/driverlib/ethernet.c **** //*****************************************************************************
1058:/home/cuil/workspace/arm/lm3s811/TI_Stellaris/driverlib/ethernet.c **** //
1059:/home/cuil/workspace/arm/lm3s811/TI_Stellaris/driverlib/ethernet.c **** //! Disables individual Ethernet interrupt sources.
1060:/home/cuil/workspace/arm/lm3s811/TI_Stellaris/driverlib/ethernet.c **** //!
1061:/home/cuil/workspace/arm/lm3s811/TI_Stellaris/driverlib/ethernet.c **** //! \param ulBase is the base address of the controller.
1062:/home/cuil/workspace/arm/lm3s811/TI_Stellaris/driverlib/ethernet.c **** //! \param ulIntFlags is the bit mask of the interrupt sources to be disabled.
1063:/home/cuil/workspace/arm/lm3s811/TI_Stellaris/driverlib/ethernet.c **** //!
1064:/home/cuil/workspace/arm/lm3s811/TI_Stellaris/driverlib/ethernet.c **** //! Disables the indicated Ethernet interrupt sources.  Only the sources that
1065:/home/cuil/workspace/arm/lm3s811/TI_Stellaris/driverlib/ethernet.c **** //! are enabled can be reflected to the processor interrupt; disabled sources
1066:/home/cuil/workspace/arm/lm3s811/TI_Stellaris/driverlib/ethernet.c **** //! have no effect on the processor.
1067:/home/cuil/workspace/arm/lm3s811/TI_Stellaris/driverlib/ethernet.c **** //!
1068:/home/cuil/workspace/arm/lm3s811/TI_Stellaris/driverlib/ethernet.c **** //! The \e ulIntFlags parameter has the same definition as the \e ulIntFlags
1069:/home/cuil/workspace/arm/lm3s811/TI_Stellaris/driverlib/ethernet.c **** //! parameter to EthernetIntEnable().
1070:/home/cuil/workspace/arm/lm3s811/TI_Stellaris/driverlib/ethernet.c **** //!
1071:/home/cuil/workspace/arm/lm3s811/TI_Stellaris/driverlib/ethernet.c **** //! \return None.
1072:/home/cuil/workspace/arm/lm3s811/TI_Stellaris/driverlib/ethernet.c **** //
1073:/home/cuil/workspace/arm/lm3s811/TI_Stellaris/driverlib/ethernet.c **** //*****************************************************************************
1074:/home/cuil/workspace/arm/lm3s811/TI_Stellaris/driverlib/ethernet.c **** void
1075:/home/cuil/workspace/arm/lm3s811/TI_Stellaris/driverlib/ethernet.c **** EthernetIntDisable(unsigned long ulBase, unsigned long ulIntFlags)
1076:/home/cuil/workspace/arm/lm3s811/TI_Stellaris/driverlib/ethernet.c **** {
 5515              		.loc 1 1076 0
 5516              		.cfi_startproc
 5517              		@ args = 0, pretend = 0, frame = 8
 5518              		@ frame_needed = 1, uses_anonymous_args = 0
 5519              		@ link register save eliminated.
 5520 0000 80B4     		push	{r7}
 5521              	.LCFI54:
 5522              		.cfi_def_cfa_offset 4
 5523 0002 83B0     		sub	sp, sp, #12
 5524              	.LCFI55:
 5525              		.cfi_def_cfa_offset 16
 5526 0004 00AF     		add	r7, sp, #0
 5527              		.cfi_offset 7, -4
 5528              	.LCFI56:
 5529              		.cfi_def_cfa_register 7
 5530 0006 7860     		str	r0, [r7, #4]
 5531 0008 3960     		str	r1, [r7, #0]
1077:/home/cuil/workspace/arm/lm3s811/TI_Stellaris/driverlib/ethernet.c ****     //
1078:/home/cuil/workspace/arm/lm3s811/TI_Stellaris/driverlib/ethernet.c ****     // Check the arguments.
1079:/home/cuil/workspace/arm/lm3s811/TI_Stellaris/driverlib/ethernet.c ****     //
1080:/home/cuil/workspace/arm/lm3s811/TI_Stellaris/driverlib/ethernet.c ****     ASSERT(ulBase == ETH_BASE);
1081:/home/cuil/workspace/arm/lm3s811/TI_Stellaris/driverlib/ethernet.c ****     ASSERT(!(ulIntFlags & ~(ETH_INT_PHY | ETH_INT_MDIO | ETH_INT_RXER |
1082:/home/cuil/workspace/arm/lm3s811/TI_Stellaris/driverlib/ethernet.c ****                             ETH_INT_RXOF | ETH_INT_TX | ETH_INT_TXER |
1083:/home/cuil/workspace/arm/lm3s811/TI_Stellaris/driverlib/ethernet.c ****                             ETH_INT_RX)));
1084:/home/cuil/workspace/arm/lm3s811/TI_Stellaris/driverlib/ethernet.c **** 
1085:/home/cuil/workspace/arm/lm3s811/TI_Stellaris/driverlib/ethernet.c ****     //
1086:/home/cuil/workspace/arm/lm3s811/TI_Stellaris/driverlib/ethernet.c ****     // Disable the specified interrupts.
1087:/home/cuil/workspace/arm/lm3s811/TI_Stellaris/driverlib/ethernet.c ****     //
1088:/home/cuil/workspace/arm/lm3s811/TI_Stellaris/driverlib/ethernet.c ****     HWREG(ulBase + MAC_O_IM) &= ~ulIntFlags;
 5532              		.loc 1 1088 0
 5533 000a 7B68     		ldr	r3, [r7, #4]
 5534 000c 03F10403 		add	r3, r3, #4
 5535 0010 7A68     		ldr	r2, [r7, #4]
 5536 0012 02F10402 		add	r2, r2, #4
 5537 0016 1168     		ldr	r1, [r2, #0]
 5538 0018 3A68     		ldr	r2, [r7, #0]
 5539 001a 6FEA0202 		mvn	r2, r2
 5540 001e 01EA0202 		and	r2, r1, r2
 5541 0022 1A60     		str	r2, [r3, #0]
1089:/home/cuil/workspace/arm/lm3s811/TI_Stellaris/driverlib/ethernet.c **** }
 5542              		.loc 1 1089 0
 5543 0024 07F10C07 		add	r7, r7, #12
 5544 0028 BD46     		mov	sp, r7
 5545 002a 80BC     		pop	{r7}
 5546 002c 7047     		bx	lr
 5547              		.cfi_endproc
 5548              	.LFE18:
 5550 002e 00BF     		.section	.text.EthernetIntStatus,"ax",%progbits
 5551              		.align	2
 5552              		.global	EthernetIntStatus
 5553              		.thumb
 5554              		.thumb_func
 5556              	EthernetIntStatus:
 5557              	.LFB19:
1090:/home/cuil/workspace/arm/lm3s811/TI_Stellaris/driverlib/ethernet.c **** 
1091:/home/cuil/workspace/arm/lm3s811/TI_Stellaris/driverlib/ethernet.c **** //*****************************************************************************
1092:/home/cuil/workspace/arm/lm3s811/TI_Stellaris/driverlib/ethernet.c **** //
1093:/home/cuil/workspace/arm/lm3s811/TI_Stellaris/driverlib/ethernet.c **** //! Gets the current Ethernet interrupt status.
1094:/home/cuil/workspace/arm/lm3s811/TI_Stellaris/driverlib/ethernet.c **** //!
1095:/home/cuil/workspace/arm/lm3s811/TI_Stellaris/driverlib/ethernet.c **** //! \param ulBase is the base address of the controller.
1096:/home/cuil/workspace/arm/lm3s811/TI_Stellaris/driverlib/ethernet.c **** //! \param bMasked is false if the raw interrupt status is required and true
1097:/home/cuil/workspace/arm/lm3s811/TI_Stellaris/driverlib/ethernet.c **** //! if the masked interrupt status is required.
1098:/home/cuil/workspace/arm/lm3s811/TI_Stellaris/driverlib/ethernet.c **** //!
1099:/home/cuil/workspace/arm/lm3s811/TI_Stellaris/driverlib/ethernet.c **** //! This function returns the interrupt status for the Ethernet controller.
1100:/home/cuil/workspace/arm/lm3s811/TI_Stellaris/driverlib/ethernet.c **** //! Either the raw interrupt status or the status of interrupts that are
1101:/home/cuil/workspace/arm/lm3s811/TI_Stellaris/driverlib/ethernet.c **** //! allowed to reflect to the processor can be returned.
1102:/home/cuil/workspace/arm/lm3s811/TI_Stellaris/driverlib/ethernet.c **** //!
1103:/home/cuil/workspace/arm/lm3s811/TI_Stellaris/driverlib/ethernet.c **** //! \return Returns the current interrupt status, enumerated as a bit field of
1104:/home/cuil/workspace/arm/lm3s811/TI_Stellaris/driverlib/ethernet.c **** //! values described in EthernetIntEnable().
1105:/home/cuil/workspace/arm/lm3s811/TI_Stellaris/driverlib/ethernet.c **** //
1106:/home/cuil/workspace/arm/lm3s811/TI_Stellaris/driverlib/ethernet.c **** //*****************************************************************************
1107:/home/cuil/workspace/arm/lm3s811/TI_Stellaris/driverlib/ethernet.c **** unsigned long
1108:/home/cuil/workspace/arm/lm3s811/TI_Stellaris/driverlib/ethernet.c **** EthernetIntStatus(unsigned long ulBase, tBoolean bMasked)
1109:/home/cuil/workspace/arm/lm3s811/TI_Stellaris/driverlib/ethernet.c **** {
 5558              		.loc 1 1109 0
 5559              		.cfi_startproc
 5560              		@ args = 0, pretend = 0, frame = 16
 5561              		@ frame_needed = 1, uses_anonymous_args = 0
 5562              		@ link register save eliminated.
 5563 0000 80B4     		push	{r7}
 5564              	.LCFI57:
 5565              		.cfi_def_cfa_offset 4
 5566 0002 85B0     		sub	sp, sp, #20
 5567              	.LCFI58:
 5568              		.cfi_def_cfa_offset 24
 5569 0004 00AF     		add	r7, sp, #0
 5570              		.cfi_offset 7, -4
 5571              	.LCFI59:
 5572              		.cfi_def_cfa_register 7
 5573 0006 7860     		str	r0, [r7, #4]
 5574 0008 0B46     		mov	r3, r1
 5575 000a FB70     		strb	r3, [r7, #3]
1110:/home/cuil/workspace/arm/lm3s811/TI_Stellaris/driverlib/ethernet.c ****     unsigned long ulStatus;
1111:/home/cuil/workspace/arm/lm3s811/TI_Stellaris/driverlib/ethernet.c **** 
1112:/home/cuil/workspace/arm/lm3s811/TI_Stellaris/driverlib/ethernet.c ****     //
1113:/home/cuil/workspace/arm/lm3s811/TI_Stellaris/driverlib/ethernet.c ****     // Check the arguments.
1114:/home/cuil/workspace/arm/lm3s811/TI_Stellaris/driverlib/ethernet.c ****     //
1115:/home/cuil/workspace/arm/lm3s811/TI_Stellaris/driverlib/ethernet.c ****     ASSERT(ulBase == ETH_BASE);
1116:/home/cuil/workspace/arm/lm3s811/TI_Stellaris/driverlib/ethernet.c **** 
1117:/home/cuil/workspace/arm/lm3s811/TI_Stellaris/driverlib/ethernet.c ****     //
1118:/home/cuil/workspace/arm/lm3s811/TI_Stellaris/driverlib/ethernet.c ****     // Read the unmasked status.
1119:/home/cuil/workspace/arm/lm3s811/TI_Stellaris/driverlib/ethernet.c ****     //
1120:/home/cuil/workspace/arm/lm3s811/TI_Stellaris/driverlib/ethernet.c ****     ulStatus = HWREG(ulBase + MAC_O_RIS);
 5576              		.loc 1 1120 0
 5577 000c 7B68     		ldr	r3, [r7, #4]
 5578 000e 1B68     		ldr	r3, [r3, #0]
 5579 0010 FB60     		str	r3, [r7, #12]
1121:/home/cuil/workspace/arm/lm3s811/TI_Stellaris/driverlib/ethernet.c **** 
1122:/home/cuil/workspace/arm/lm3s811/TI_Stellaris/driverlib/ethernet.c ****     //
1123:/home/cuil/workspace/arm/lm3s811/TI_Stellaris/driverlib/ethernet.c ****     // If masked status is requested, mask it off.
1124:/home/cuil/workspace/arm/lm3s811/TI_Stellaris/driverlib/ethernet.c ****     //
1125:/home/cuil/workspace/arm/lm3s811/TI_Stellaris/driverlib/ethernet.c ****     if(bMasked)
 5580              		.loc 1 1125 0
 5581 0012 FB78     		ldrb	r3, [r7, #3]	@ zero_extendqisi2
 5582 0014 002B     		cmp	r3, #0
 5583 0016 07D0     		beq	.L49
1126:/home/cuil/workspace/arm/lm3s811/TI_Stellaris/driverlib/ethernet.c ****     {
1127:/home/cuil/workspace/arm/lm3s811/TI_Stellaris/driverlib/ethernet.c ****         ulStatus &= HWREG(ulBase + MAC_O_IM);
 5584              		.loc 1 1127 0
 5585 0018 7B68     		ldr	r3, [r7, #4]
 5586 001a 03F10403 		add	r3, r3, #4
 5587 001e 1B68     		ldr	r3, [r3, #0]
 5588 0020 FA68     		ldr	r2, [r7, #12]
 5589 0022 02EA0303 		and	r3, r2, r3
 5590 0026 FB60     		str	r3, [r7, #12]
 5591              	.L49:
1128:/home/cuil/workspace/arm/lm3s811/TI_Stellaris/driverlib/ethernet.c ****     }
1129:/home/cuil/workspace/arm/lm3s811/TI_Stellaris/driverlib/ethernet.c **** 
1130:/home/cuil/workspace/arm/lm3s811/TI_Stellaris/driverlib/ethernet.c ****     //
1131:/home/cuil/workspace/arm/lm3s811/TI_Stellaris/driverlib/ethernet.c ****     // Return the interrupt status value.
1132:/home/cuil/workspace/arm/lm3s811/TI_Stellaris/driverlib/ethernet.c ****     //
1133:/home/cuil/workspace/arm/lm3s811/TI_Stellaris/driverlib/ethernet.c ****     return(ulStatus);
 5592              		.loc 1 1133 0
 5593 0028 FB68     		ldr	r3, [r7, #12]
1134:/home/cuil/workspace/arm/lm3s811/TI_Stellaris/driverlib/ethernet.c **** }
 5594              		.loc 1 1134 0
 5595 002a 1846     		mov	r0, r3
 5596 002c 07F11407 		add	r7, r7, #20
 5597 0030 BD46     		mov	sp, r7
 5598 0032 80BC     		pop	{r7}
 5599 0034 7047     		bx	lr
 5600              		.cfi_endproc
 5601              	.LFE19:
 5603 0036 00BF     		.section	.text.EthernetIntClear,"ax",%progbits
 5604              		.align	2
 5605              		.global	EthernetIntClear
 5606              		.thumb
 5607              		.thumb_func
 5609              	EthernetIntClear:
 5610              	.LFB20:
1135:/home/cuil/workspace/arm/lm3s811/TI_Stellaris/driverlib/ethernet.c **** 
1136:/home/cuil/workspace/arm/lm3s811/TI_Stellaris/driverlib/ethernet.c **** //*****************************************************************************
1137:/home/cuil/workspace/arm/lm3s811/TI_Stellaris/driverlib/ethernet.c **** //
1138:/home/cuil/workspace/arm/lm3s811/TI_Stellaris/driverlib/ethernet.c **** //! Clears Ethernet interrupt sources.
1139:/home/cuil/workspace/arm/lm3s811/TI_Stellaris/driverlib/ethernet.c **** //!
1140:/home/cuil/workspace/arm/lm3s811/TI_Stellaris/driverlib/ethernet.c **** //! \param ulBase is the base address of the controller.
1141:/home/cuil/workspace/arm/lm3s811/TI_Stellaris/driverlib/ethernet.c **** //! \param ulIntFlags is a bit mask of the interrupt sources to be cleared.
1142:/home/cuil/workspace/arm/lm3s811/TI_Stellaris/driverlib/ethernet.c **** //!
1143:/home/cuil/workspace/arm/lm3s811/TI_Stellaris/driverlib/ethernet.c **** //! The specified Ethernet interrupt sources are cleared so that they no longer
1144:/home/cuil/workspace/arm/lm3s811/TI_Stellaris/driverlib/ethernet.c **** //! assert.  This function must be called in the interrupt handler to keep the
1145:/home/cuil/workspace/arm/lm3s811/TI_Stellaris/driverlib/ethernet.c **** //! interrupt from being triggered again immediately upon exit.
1146:/home/cuil/workspace/arm/lm3s811/TI_Stellaris/driverlib/ethernet.c **** //!
1147:/home/cuil/workspace/arm/lm3s811/TI_Stellaris/driverlib/ethernet.c **** //! The \e ulIntFlags parameter has the same definition as the \e ulIntFlags
1148:/home/cuil/workspace/arm/lm3s811/TI_Stellaris/driverlib/ethernet.c **** //! parameter to EthernetIntEnable().
1149:/home/cuil/workspace/arm/lm3s811/TI_Stellaris/driverlib/ethernet.c **** //!
1150:/home/cuil/workspace/arm/lm3s811/TI_Stellaris/driverlib/ethernet.c **** //! \note Because there is a write buffer in the Cortex-M processor, it may
1151:/home/cuil/workspace/arm/lm3s811/TI_Stellaris/driverlib/ethernet.c **** //! take several clock cycles before the interrupt source is actually cleared.
1152:/home/cuil/workspace/arm/lm3s811/TI_Stellaris/driverlib/ethernet.c **** //! Therefore, it is recommended that the interrupt source be cleared early in
1153:/home/cuil/workspace/arm/lm3s811/TI_Stellaris/driverlib/ethernet.c **** //! the interrupt handler (as opposed to the very last action) to avoid
1154:/home/cuil/workspace/arm/lm3s811/TI_Stellaris/driverlib/ethernet.c **** //! returning from the interrupt handler before the interrupt source is
1155:/home/cuil/workspace/arm/lm3s811/TI_Stellaris/driverlib/ethernet.c **** //! actually cleared.  Failure to do so may result in the interrupt handler
1156:/home/cuil/workspace/arm/lm3s811/TI_Stellaris/driverlib/ethernet.c **** //! being immediately reentered (because the interrupt controller still sees
1157:/home/cuil/workspace/arm/lm3s811/TI_Stellaris/driverlib/ethernet.c **** //! the interrupt source asserted).
1158:/home/cuil/workspace/arm/lm3s811/TI_Stellaris/driverlib/ethernet.c **** //!
1159:/home/cuil/workspace/arm/lm3s811/TI_Stellaris/driverlib/ethernet.c **** //! \return None.
1160:/home/cuil/workspace/arm/lm3s811/TI_Stellaris/driverlib/ethernet.c **** //
1161:/home/cuil/workspace/arm/lm3s811/TI_Stellaris/driverlib/ethernet.c **** //*****************************************************************************
1162:/home/cuil/workspace/arm/lm3s811/TI_Stellaris/driverlib/ethernet.c **** void
1163:/home/cuil/workspace/arm/lm3s811/TI_Stellaris/driverlib/ethernet.c **** EthernetIntClear(unsigned long ulBase, unsigned long ulIntFlags)
1164:/home/cuil/workspace/arm/lm3s811/TI_Stellaris/driverlib/ethernet.c **** {
 5611              		.loc 1 1164 0
 5612              		.cfi_startproc
 5613              		@ args = 0, pretend = 0, frame = 8
 5614              		@ frame_needed = 1, uses_anonymous_args = 0
 5615              		@ link register save eliminated.
 5616 0000 80B4     		push	{r7}
 5617              	.LCFI60:
 5618              		.cfi_def_cfa_offset 4
 5619 0002 83B0     		sub	sp, sp, #12
 5620              	.LCFI61:
 5621              		.cfi_def_cfa_offset 16
 5622 0004 00AF     		add	r7, sp, #0
 5623              		.cfi_offset 7, -4
 5624              	.LCFI62:
 5625              		.cfi_def_cfa_register 7
 5626 0006 7860     		str	r0, [r7, #4]
 5627 0008 3960     		str	r1, [r7, #0]
1165:/home/cuil/workspace/arm/lm3s811/TI_Stellaris/driverlib/ethernet.c ****     //
1166:/home/cuil/workspace/arm/lm3s811/TI_Stellaris/driverlib/ethernet.c ****     // Check the arguments.
1167:/home/cuil/workspace/arm/lm3s811/TI_Stellaris/driverlib/ethernet.c ****     //
1168:/home/cuil/workspace/arm/lm3s811/TI_Stellaris/driverlib/ethernet.c ****     ASSERT(ulBase == ETH_BASE);
1169:/home/cuil/workspace/arm/lm3s811/TI_Stellaris/driverlib/ethernet.c ****     ASSERT(!(ulIntFlags & ~(ETH_INT_PHY | ETH_INT_MDIO | ETH_INT_RXER |
1170:/home/cuil/workspace/arm/lm3s811/TI_Stellaris/driverlib/ethernet.c ****                             ETH_INT_RXOF | ETH_INT_TX | ETH_INT_TXER |
1171:/home/cuil/workspace/arm/lm3s811/TI_Stellaris/driverlib/ethernet.c ****                             ETH_INT_RX)));
1172:/home/cuil/workspace/arm/lm3s811/TI_Stellaris/driverlib/ethernet.c **** 
1173:/home/cuil/workspace/arm/lm3s811/TI_Stellaris/driverlib/ethernet.c ****     //
1174:/home/cuil/workspace/arm/lm3s811/TI_Stellaris/driverlib/ethernet.c ****     // Clear the requested interrupt sources.
1175:/home/cuil/workspace/arm/lm3s811/TI_Stellaris/driverlib/ethernet.c ****     //
1176:/home/cuil/workspace/arm/lm3s811/TI_Stellaris/driverlib/ethernet.c ****     HWREG(ulBase + MAC_O_IACK) = ulIntFlags;
 5628              		.loc 1 1176 0
 5629 000a 7B68     		ldr	r3, [r7, #4]
 5630 000c 3A68     		ldr	r2, [r7, #0]
 5631 000e 1A60     		str	r2, [r3, #0]
1177:/home/cuil/workspace/arm/lm3s811/TI_Stellaris/driverlib/ethernet.c **** }
 5632              		.loc 1 1177 0
 5633 0010 07F10C07 		add	r7, r7, #12
 5634 0014 BD46     		mov	sp, r7
 5635 0016 80BC     		pop	{r7}
 5636 0018 7047     		bx	lr
 5637              		.cfi_endproc
 5638              	.LFE20:
 5640 001a 00BF     		.section	.text.EthernetPHYAddrSet,"ax",%progbits
 5641              		.align	2
 5642              		.global	EthernetPHYAddrSet
 5643              		.thumb
 5644              		.thumb_func
 5646              	EthernetPHYAddrSet:
 5647              	.LFB21:
1178:/home/cuil/workspace/arm/lm3s811/TI_Stellaris/driverlib/ethernet.c **** 
1179:/home/cuil/workspace/arm/lm3s811/TI_Stellaris/driverlib/ethernet.c **** //*****************************************************************************
1180:/home/cuil/workspace/arm/lm3s811/TI_Stellaris/driverlib/ethernet.c **** //
1181:/home/cuil/workspace/arm/lm3s811/TI_Stellaris/driverlib/ethernet.c **** //! Sets the PHY address.
1182:/home/cuil/workspace/arm/lm3s811/TI_Stellaris/driverlib/ethernet.c **** //!
1183:/home/cuil/workspace/arm/lm3s811/TI_Stellaris/driverlib/ethernet.c **** //! \param ulBase is the base address of the controller.
1184:/home/cuil/workspace/arm/lm3s811/TI_Stellaris/driverlib/ethernet.c **** //! \param ucAddr is the address of the PHY.
1185:/home/cuil/workspace/arm/lm3s811/TI_Stellaris/driverlib/ethernet.c **** //!
1186:/home/cuil/workspace/arm/lm3s811/TI_Stellaris/driverlib/ethernet.c **** //! This function sets the address of the PHY that is accessed via
1187:/home/cuil/workspace/arm/lm3s811/TI_Stellaris/driverlib/ethernet.c **** //! EthernetPHYRead() and EthernePHYWrite().  This configuration is only needed
1188:/home/cuil/workspace/arm/lm3s811/TI_Stellaris/driverlib/ethernet.c **** //! when connecting to an external PHY via MII, and should not be used on
1189:/home/cuil/workspace/arm/lm3s811/TI_Stellaris/driverlib/ethernet.c **** //! devices that have integrated PHYs.
1190:/home/cuil/workspace/arm/lm3s811/TI_Stellaris/driverlib/ethernet.c **** //!
1191:/home/cuil/workspace/arm/lm3s811/TI_Stellaris/driverlib/ethernet.c **** //! \return None.
1192:/home/cuil/workspace/arm/lm3s811/TI_Stellaris/driverlib/ethernet.c **** //
1193:/home/cuil/workspace/arm/lm3s811/TI_Stellaris/driverlib/ethernet.c **** //*****************************************************************************
1194:/home/cuil/workspace/arm/lm3s811/TI_Stellaris/driverlib/ethernet.c **** void
1195:/home/cuil/workspace/arm/lm3s811/TI_Stellaris/driverlib/ethernet.c **** EthernetPHYAddrSet(unsigned long ulBase, unsigned char ucAddr)
1196:/home/cuil/workspace/arm/lm3s811/TI_Stellaris/driverlib/ethernet.c **** {
 5648              		.loc 1 1196 0
 5649              		.cfi_startproc
 5650              		@ args = 0, pretend = 0, frame = 8
 5651              		@ frame_needed = 1, uses_anonymous_args = 0
 5652              		@ link register save eliminated.
 5653 0000 80B4     		push	{r7}
 5654              	.LCFI63:
 5655              		.cfi_def_cfa_offset 4
 5656 0002 83B0     		sub	sp, sp, #12
 5657              	.LCFI64:
 5658              		.cfi_def_cfa_offset 16
 5659 0004 00AF     		add	r7, sp, #0
 5660              		.cfi_offset 7, -4
 5661              	.LCFI65:
 5662              		.cfi_def_cfa_register 7
 5663 0006 7860     		str	r0, [r7, #4]
 5664 0008 0B46     		mov	r3, r1
 5665 000a FB70     		strb	r3, [r7, #3]
1197:/home/cuil/workspace/arm/lm3s811/TI_Stellaris/driverlib/ethernet.c ****     //
1198:/home/cuil/workspace/arm/lm3s811/TI_Stellaris/driverlib/ethernet.c ****     // Check the arguments.
1199:/home/cuil/workspace/arm/lm3s811/TI_Stellaris/driverlib/ethernet.c ****     //
1200:/home/cuil/workspace/arm/lm3s811/TI_Stellaris/driverlib/ethernet.c ****     ASSERT(ulBase == ETH_BASE);
1201:/home/cuil/workspace/arm/lm3s811/TI_Stellaris/driverlib/ethernet.c **** 
1202:/home/cuil/workspace/arm/lm3s811/TI_Stellaris/driverlib/ethernet.c ****     //
1203:/home/cuil/workspace/arm/lm3s811/TI_Stellaris/driverlib/ethernet.c ****     // Wait for any pending transaction to complete.
1204:/home/cuil/workspace/arm/lm3s811/TI_Stellaris/driverlib/ethernet.c ****     //
1205:/home/cuil/workspace/arm/lm3s811/TI_Stellaris/driverlib/ethernet.c ****     while(HWREG(ulBase + MAC_O_MCTL) & MAC_MCTL_START)
 5666              		.loc 1 1205 0
 5667 000c 00BF     		nop
 5668              	.L52:
 5669              		.loc 1 1205 0 is_stmt 0 discriminator 1
 5670 000e 7B68     		ldr	r3, [r7, #4]
 5671 0010 03F12003 		add	r3, r3, #32
 5672 0014 1B68     		ldr	r3, [r3, #0]
 5673 0016 03F00103 		and	r3, r3, #1
 5674 001a DBB2     		uxtb	r3, r3
 5675 001c 002B     		cmp	r3, #0
 5676 001e F6D1     		bne	.L52
1206:/home/cuil/workspace/arm/lm3s811/TI_Stellaris/driverlib/ethernet.c ****     {
1207:/home/cuil/workspace/arm/lm3s811/TI_Stellaris/driverlib/ethernet.c ****     }
1208:/home/cuil/workspace/arm/lm3s811/TI_Stellaris/driverlib/ethernet.c **** 
1209:/home/cuil/workspace/arm/lm3s811/TI_Stellaris/driverlib/ethernet.c ****     //
1210:/home/cuil/workspace/arm/lm3s811/TI_Stellaris/driverlib/ethernet.c ****     // Set the PHY address.
1211:/home/cuil/workspace/arm/lm3s811/TI_Stellaris/driverlib/ethernet.c ****     //
1212:/home/cuil/workspace/arm/lm3s811/TI_Stellaris/driverlib/ethernet.c ****     HWREG(ulBase + MAC_O_MADD) = ucAddr;
 5677              		.loc 1 1212 0 is_stmt 1
 5678 0020 7B68     		ldr	r3, [r7, #4]
 5679 0022 03F12803 		add	r3, r3, #40
 5680 0026 FA78     		ldrb	r2, [r7, #3]	@ zero_extendqisi2
 5681 0028 1A60     		str	r2, [r3, #0]
1213:/home/cuil/workspace/arm/lm3s811/TI_Stellaris/driverlib/ethernet.c **** }
 5682              		.loc 1 1213 0
 5683 002a 07F10C07 		add	r7, r7, #12
 5684 002e BD46     		mov	sp, r7
 5685 0030 80BC     		pop	{r7}
 5686 0032 7047     		bx	lr
 5687              		.cfi_endproc
 5688              	.LFE21:
 5690              		.section	.text.EthernetPHYWrite,"ax",%progbits
 5691              		.align	2
 5692              		.global	EthernetPHYWrite
 5693              		.thumb
 5694              		.thumb_func
 5696              	EthernetPHYWrite:
 5697              	.LFB22:
1214:/home/cuil/workspace/arm/lm3s811/TI_Stellaris/driverlib/ethernet.c **** 
1215:/home/cuil/workspace/arm/lm3s811/TI_Stellaris/driverlib/ethernet.c **** //*****************************************************************************
1216:/home/cuil/workspace/arm/lm3s811/TI_Stellaris/driverlib/ethernet.c **** //
1217:/home/cuil/workspace/arm/lm3s811/TI_Stellaris/driverlib/ethernet.c **** //! Writes to the PHY register.
1218:/home/cuil/workspace/arm/lm3s811/TI_Stellaris/driverlib/ethernet.c **** //!
1219:/home/cuil/workspace/arm/lm3s811/TI_Stellaris/driverlib/ethernet.c **** //! \param ulBase is the base address of the controller.
1220:/home/cuil/workspace/arm/lm3s811/TI_Stellaris/driverlib/ethernet.c **** //! \param ucRegAddr is the address of the PHY register to be accessed.
1221:/home/cuil/workspace/arm/lm3s811/TI_Stellaris/driverlib/ethernet.c **** //! \param ulData is the data to be written to the PHY register.
1222:/home/cuil/workspace/arm/lm3s811/TI_Stellaris/driverlib/ethernet.c **** //!
1223:/home/cuil/workspace/arm/lm3s811/TI_Stellaris/driverlib/ethernet.c **** //! This function writes the \e ulData to the PHY register specified by
1224:/home/cuil/workspace/arm/lm3s811/TI_Stellaris/driverlib/ethernet.c **** //! \e ucRegAddr.
1225:/home/cuil/workspace/arm/lm3s811/TI_Stellaris/driverlib/ethernet.c **** //!
1226:/home/cuil/workspace/arm/lm3s811/TI_Stellaris/driverlib/ethernet.c **** //! \return None.
1227:/home/cuil/workspace/arm/lm3s811/TI_Stellaris/driverlib/ethernet.c **** //
1228:/home/cuil/workspace/arm/lm3s811/TI_Stellaris/driverlib/ethernet.c **** //*****************************************************************************
1229:/home/cuil/workspace/arm/lm3s811/TI_Stellaris/driverlib/ethernet.c **** void
1230:/home/cuil/workspace/arm/lm3s811/TI_Stellaris/driverlib/ethernet.c **** EthernetPHYWrite(unsigned long ulBase, unsigned char ucRegAddr,
1231:/home/cuil/workspace/arm/lm3s811/TI_Stellaris/driverlib/ethernet.c ****                  unsigned long ulData)
1232:/home/cuil/workspace/arm/lm3s811/TI_Stellaris/driverlib/ethernet.c **** {
 5698              		.loc 1 1232 0
 5699              		.cfi_startproc
 5700              		@ args = 0, pretend = 0, frame = 16
 5701              		@ frame_needed = 1, uses_anonymous_args = 0
 5702              		@ link register save eliminated.
 5703 0000 80B4     		push	{r7}
 5704              	.LCFI66:
 5705              		.cfi_def_cfa_offset 4
 5706 0002 85B0     		sub	sp, sp, #20
 5707              	.LCFI67:
 5708              		.cfi_def_cfa_offset 24
 5709 0004 00AF     		add	r7, sp, #0
 5710              		.cfi_offset 7, -4
 5711              	.LCFI68:
 5712              		.cfi_def_cfa_register 7
 5713 0006 F860     		str	r0, [r7, #12]
 5714 0008 0B46     		mov	r3, r1
 5715 000a 7A60     		str	r2, [r7, #4]
 5716 000c FB72     		strb	r3, [r7, #11]
1233:/home/cuil/workspace/arm/lm3s811/TI_Stellaris/driverlib/ethernet.c ****     //
1234:/home/cuil/workspace/arm/lm3s811/TI_Stellaris/driverlib/ethernet.c ****     // Check the arguments.
1235:/home/cuil/workspace/arm/lm3s811/TI_Stellaris/driverlib/ethernet.c ****     //
1236:/home/cuil/workspace/arm/lm3s811/TI_Stellaris/driverlib/ethernet.c ****     ASSERT(ulBase == ETH_BASE);
1237:/home/cuil/workspace/arm/lm3s811/TI_Stellaris/driverlib/ethernet.c **** 
1238:/home/cuil/workspace/arm/lm3s811/TI_Stellaris/driverlib/ethernet.c ****     //
1239:/home/cuil/workspace/arm/lm3s811/TI_Stellaris/driverlib/ethernet.c ****     // Wait for any pending transaction to complete.
1240:/home/cuil/workspace/arm/lm3s811/TI_Stellaris/driverlib/ethernet.c ****     //
1241:/home/cuil/workspace/arm/lm3s811/TI_Stellaris/driverlib/ethernet.c ****     while(HWREG(ulBase + MAC_O_MCTL) & MAC_MCTL_START)
 5717              		.loc 1 1241 0
 5718 000e 00BF     		nop
 5719              	.L54:
 5720              		.loc 1 1241 0 is_stmt 0 discriminator 1
 5721 0010 FB68     		ldr	r3, [r7, #12]
 5722 0012 03F12003 		add	r3, r3, #32
 5723 0016 1B68     		ldr	r3, [r3, #0]
 5724 0018 03F00103 		and	r3, r3, #1
 5725 001c DBB2     		uxtb	r3, r3
 5726 001e 002B     		cmp	r3, #0
 5727 0020 F6D1     		bne	.L54
1242:/home/cuil/workspace/arm/lm3s811/TI_Stellaris/driverlib/ethernet.c ****     {
1243:/home/cuil/workspace/arm/lm3s811/TI_Stellaris/driverlib/ethernet.c ****     }
1244:/home/cuil/workspace/arm/lm3s811/TI_Stellaris/driverlib/ethernet.c **** 
1245:/home/cuil/workspace/arm/lm3s811/TI_Stellaris/driverlib/ethernet.c ****     //
1246:/home/cuil/workspace/arm/lm3s811/TI_Stellaris/driverlib/ethernet.c ****     // Program the DATA to be written.
1247:/home/cuil/workspace/arm/lm3s811/TI_Stellaris/driverlib/ethernet.c ****     //
1248:/home/cuil/workspace/arm/lm3s811/TI_Stellaris/driverlib/ethernet.c ****     HWREG(ulBase + MAC_O_MTXD) = ulData & MAC_MTXD_MDTX_M;
 5728              		.loc 1 1248 0 is_stmt 1
 5729 0022 FB68     		ldr	r3, [r7, #12]
 5730 0024 03F12C03 		add	r3, r3, #44
 5731 0028 1A46     		mov	r2, r3
 5732 002a 7B68     		ldr	r3, [r7, #4]
 5733 002c 4FEA0343 		lsl	r3, r3, #16
 5734 0030 4FEA1343 		lsr	r3, r3, #16
 5735 0034 1360     		str	r3, [r2, #0]
1249:/home/cuil/workspace/arm/lm3s811/TI_Stellaris/driverlib/ethernet.c **** 
1250:/home/cuil/workspace/arm/lm3s811/TI_Stellaris/driverlib/ethernet.c ****     //
1251:/home/cuil/workspace/arm/lm3s811/TI_Stellaris/driverlib/ethernet.c ****     // Program the PHY register address and initiate the transaction.
1252:/home/cuil/workspace/arm/lm3s811/TI_Stellaris/driverlib/ethernet.c ****     //
1253:/home/cuil/workspace/arm/lm3s811/TI_Stellaris/driverlib/ethernet.c ****     HWREG(ulBase + MAC_O_MCTL) = (((ucRegAddr << 3) & MAC_MCTL_REGADR_M) |
 5736              		.loc 1 1253 0
 5737 0036 FB68     		ldr	r3, [r7, #12]
 5738 0038 03F12003 		add	r3, r3, #32
 5739 003c FA7A     		ldrb	r2, [r7, #11]	@ zero_extendqisi2
 5740 003e 4FEAC202 		lsl	r2, r2, #3
 5741 0042 02F0FF02 		and	r2, r2, #255
1254:/home/cuil/workspace/arm/lm3s811/TI_Stellaris/driverlib/ethernet.c ****                                   MAC_MCTL_WRITE | MAC_MCTL_START);
 5742              		.loc 1 1254 0
 5743 0046 42F00302 		orr	r2, r2, #3
1253:/home/cuil/workspace/arm/lm3s811/TI_Stellaris/driverlib/ethernet.c ****     HWREG(ulBase + MAC_O_MCTL) = (((ucRegAddr << 3) & MAC_MCTL_REGADR_M) |
 5744              		.loc 1 1253 0
 5745 004a 1A60     		str	r2, [r3, #0]
1255:/home/cuil/workspace/arm/lm3s811/TI_Stellaris/driverlib/ethernet.c **** 
1256:/home/cuil/workspace/arm/lm3s811/TI_Stellaris/driverlib/ethernet.c ****     //
1257:/home/cuil/workspace/arm/lm3s811/TI_Stellaris/driverlib/ethernet.c ****     // Wait for the write transaction to complete.
1258:/home/cuil/workspace/arm/lm3s811/TI_Stellaris/driverlib/ethernet.c ****     //
1259:/home/cuil/workspace/arm/lm3s811/TI_Stellaris/driverlib/ethernet.c ****     while(HWREG(ulBase + MAC_O_MCTL) & MAC_MCTL_START)
 5746              		.loc 1 1259 0
 5747 004c 00BF     		nop
 5748              	.L55:
 5749              		.loc 1 1259 0 is_stmt 0 discriminator 1
 5750 004e FB68     		ldr	r3, [r7, #12]
 5751 0050 03F12003 		add	r3, r3, #32
 5752 0054 1B68     		ldr	r3, [r3, #0]
 5753 0056 03F00103 		and	r3, r3, #1
 5754 005a DBB2     		uxtb	r3, r3
 5755 005c 002B     		cmp	r3, #0
 5756 005e F6D1     		bne	.L55
1260:/home/cuil/workspace/arm/lm3s811/TI_Stellaris/driverlib/ethernet.c ****     {
1261:/home/cuil/workspace/arm/lm3s811/TI_Stellaris/driverlib/ethernet.c ****     }
1262:/home/cuil/workspace/arm/lm3s811/TI_Stellaris/driverlib/ethernet.c **** }
 5757              		.loc 1 1262 0 is_stmt 1
 5758 0060 07F11407 		add	r7, r7, #20
 5759 0064 BD46     		mov	sp, r7
 5760 0066 80BC     		pop	{r7}
 5761 0068 7047     		bx	lr
 5762              		.cfi_endproc
 5763              	.LFE22:
 5765 006a 00BF     		.section	.text.EthernetPHYRead,"ax",%progbits
 5766              		.align	2
 5767              		.global	EthernetPHYRead
 5768              		.thumb
 5769              		.thumb_func
 5771              	EthernetPHYRead:
 5772              	.LFB23:
1263:/home/cuil/workspace/arm/lm3s811/TI_Stellaris/driverlib/ethernet.c **** 
1264:/home/cuil/workspace/arm/lm3s811/TI_Stellaris/driverlib/ethernet.c **** //*****************************************************************************
1265:/home/cuil/workspace/arm/lm3s811/TI_Stellaris/driverlib/ethernet.c **** //
1266:/home/cuil/workspace/arm/lm3s811/TI_Stellaris/driverlib/ethernet.c **** //! Reads from a PHY register.
1267:/home/cuil/workspace/arm/lm3s811/TI_Stellaris/driverlib/ethernet.c **** //!
1268:/home/cuil/workspace/arm/lm3s811/TI_Stellaris/driverlib/ethernet.c **** //! \param ulBase is the base address of the controller.
1269:/home/cuil/workspace/arm/lm3s811/TI_Stellaris/driverlib/ethernet.c **** //! \param ucRegAddr is the address of the PHY register to be accessed.
1270:/home/cuil/workspace/arm/lm3s811/TI_Stellaris/driverlib/ethernet.c **** //!
1271:/home/cuil/workspace/arm/lm3s811/TI_Stellaris/driverlib/ethernet.c **** //! This function returns the contents of the PHY register specified by
1272:/home/cuil/workspace/arm/lm3s811/TI_Stellaris/driverlib/ethernet.c **** //! \e ucRegAddr.
1273:/home/cuil/workspace/arm/lm3s811/TI_Stellaris/driverlib/ethernet.c **** //!
1274:/home/cuil/workspace/arm/lm3s811/TI_Stellaris/driverlib/ethernet.c **** //! \return Returns the 16-bit value read from the PHY.
1275:/home/cuil/workspace/arm/lm3s811/TI_Stellaris/driverlib/ethernet.c **** //
1276:/home/cuil/workspace/arm/lm3s811/TI_Stellaris/driverlib/ethernet.c **** //*****************************************************************************
1277:/home/cuil/workspace/arm/lm3s811/TI_Stellaris/driverlib/ethernet.c **** unsigned long
1278:/home/cuil/workspace/arm/lm3s811/TI_Stellaris/driverlib/ethernet.c **** EthernetPHYRead(unsigned long ulBase, unsigned char ucRegAddr)
1279:/home/cuil/workspace/arm/lm3s811/TI_Stellaris/driverlib/ethernet.c **** {
 5773              		.loc 1 1279 0
 5774              		.cfi_startproc
 5775              		@ args = 0, pretend = 0, frame = 8
 5776              		@ frame_needed = 1, uses_anonymous_args = 0
 5777              		@ link register save eliminated.
 5778 0000 80B4     		push	{r7}
 5779              	.LCFI69:
 5780              		.cfi_def_cfa_offset 4
 5781 0002 83B0     		sub	sp, sp, #12
 5782              	.LCFI70:
 5783              		.cfi_def_cfa_offset 16
 5784 0004 00AF     		add	r7, sp, #0
 5785              		.cfi_offset 7, -4
 5786              	.LCFI71:
 5787              		.cfi_def_cfa_register 7
 5788 0006 7860     		str	r0, [r7, #4]
 5789 0008 0B46     		mov	r3, r1
 5790 000a FB70     		strb	r3, [r7, #3]
1280:/home/cuil/workspace/arm/lm3s811/TI_Stellaris/driverlib/ethernet.c ****     //
1281:/home/cuil/workspace/arm/lm3s811/TI_Stellaris/driverlib/ethernet.c ****     // Check the arguments.
1282:/home/cuil/workspace/arm/lm3s811/TI_Stellaris/driverlib/ethernet.c ****     //
1283:/home/cuil/workspace/arm/lm3s811/TI_Stellaris/driverlib/ethernet.c ****     ASSERT(ulBase == ETH_BASE);
1284:/home/cuil/workspace/arm/lm3s811/TI_Stellaris/driverlib/ethernet.c **** 
1285:/home/cuil/workspace/arm/lm3s811/TI_Stellaris/driverlib/ethernet.c ****     //
1286:/home/cuil/workspace/arm/lm3s811/TI_Stellaris/driverlib/ethernet.c ****     // Wait for any pending transaction to complete.
1287:/home/cuil/workspace/arm/lm3s811/TI_Stellaris/driverlib/ethernet.c ****     //
1288:/home/cuil/workspace/arm/lm3s811/TI_Stellaris/driverlib/ethernet.c ****     while(HWREG(ulBase + MAC_O_MCTL) & MAC_MCTL_START)
 5791              		.loc 1 1288 0
 5792 000c 00BF     		nop
 5793              	.L57:
 5794              		.loc 1 1288 0 is_stmt 0 discriminator 1
 5795 000e 7B68     		ldr	r3, [r7, #4]
 5796 0010 03F12003 		add	r3, r3, #32
 5797 0014 1B68     		ldr	r3, [r3, #0]
 5798 0016 03F00103 		and	r3, r3, #1
 5799 001a DBB2     		uxtb	r3, r3
 5800 001c 002B     		cmp	r3, #0
 5801 001e F6D1     		bne	.L57
1289:/home/cuil/workspace/arm/lm3s811/TI_Stellaris/driverlib/ethernet.c ****     {
1290:/home/cuil/workspace/arm/lm3s811/TI_Stellaris/driverlib/ethernet.c ****     }
1291:/home/cuil/workspace/arm/lm3s811/TI_Stellaris/driverlib/ethernet.c **** 
1292:/home/cuil/workspace/arm/lm3s811/TI_Stellaris/driverlib/ethernet.c ****     //
1293:/home/cuil/workspace/arm/lm3s811/TI_Stellaris/driverlib/ethernet.c ****     // Program the PHY register address and initiate the transaction.
1294:/home/cuil/workspace/arm/lm3s811/TI_Stellaris/driverlib/ethernet.c ****     //
1295:/home/cuil/workspace/arm/lm3s811/TI_Stellaris/driverlib/ethernet.c ****     HWREG(ulBase + MAC_O_MCTL) = (((ucRegAddr << 3) & MAC_MCTL_REGADR_M) |
 5802              		.loc 1 1295 0 is_stmt 1
 5803 0020 7B68     		ldr	r3, [r7, #4]
 5804 0022 03F12003 		add	r3, r3, #32
 5805 0026 FA78     		ldrb	r2, [r7, #3]	@ zero_extendqisi2
 5806 0028 4FEAC202 		lsl	r2, r2, #3
 5807 002c 02F0FF02 		and	r2, r2, #255
 5808 0030 42F00102 		orr	r2, r2, #1
 5809 0034 1A60     		str	r2, [r3, #0]
1296:/home/cuil/workspace/arm/lm3s811/TI_Stellaris/driverlib/ethernet.c ****                                   MAC_MCTL_START);
1297:/home/cuil/workspace/arm/lm3s811/TI_Stellaris/driverlib/ethernet.c **** 
1298:/home/cuil/workspace/arm/lm3s811/TI_Stellaris/driverlib/ethernet.c ****     //
1299:/home/cuil/workspace/arm/lm3s811/TI_Stellaris/driverlib/ethernet.c ****     // Wait for the transaction to complete.
1300:/home/cuil/workspace/arm/lm3s811/TI_Stellaris/driverlib/ethernet.c ****     //
1301:/home/cuil/workspace/arm/lm3s811/TI_Stellaris/driverlib/ethernet.c ****     while(HWREG(ulBase + MAC_O_MCTL) & MAC_MCTL_START)
 5810              		.loc 1 1301 0
 5811 0036 00BF     		nop
 5812              	.L58:
 5813              		.loc 1 1301 0 is_stmt 0 discriminator 1
 5814 0038 7B68     		ldr	r3, [r7, #4]
 5815 003a 03F12003 		add	r3, r3, #32
 5816 003e 1B68     		ldr	r3, [r3, #0]
 5817 0040 03F00103 		and	r3, r3, #1
 5818 0044 DBB2     		uxtb	r3, r3
 5819 0046 002B     		cmp	r3, #0
 5820 0048 F6D1     		bne	.L58
1302:/home/cuil/workspace/arm/lm3s811/TI_Stellaris/driverlib/ethernet.c ****     {
1303:/home/cuil/workspace/arm/lm3s811/TI_Stellaris/driverlib/ethernet.c ****     }
1304:/home/cuil/workspace/arm/lm3s811/TI_Stellaris/driverlib/ethernet.c **** 
1305:/home/cuil/workspace/arm/lm3s811/TI_Stellaris/driverlib/ethernet.c ****     //
1306:/home/cuil/workspace/arm/lm3s811/TI_Stellaris/driverlib/ethernet.c ****     // Return the PHY data that was read.
1307:/home/cuil/workspace/arm/lm3s811/TI_Stellaris/driverlib/ethernet.c ****     //
1308:/home/cuil/workspace/arm/lm3s811/TI_Stellaris/driverlib/ethernet.c ****     return(HWREG(ulBase + MAC_O_MRXD) & MAC_MRXD_MDRX_M);
 5821              		.loc 1 1308 0 is_stmt 1
 5822 004a 7B68     		ldr	r3, [r7, #4]
 5823 004c 03F13003 		add	r3, r3, #48
 5824 0050 1B68     		ldr	r3, [r3, #0]
 5825 0052 4FEA0343 		lsl	r3, r3, #16
 5826 0056 4FEA1343 		lsr	r3, r3, #16
1309:/home/cuil/workspace/arm/lm3s811/TI_Stellaris/driverlib/ethernet.c **** }
 5827              		.loc 1 1309 0
 5828 005a 1846     		mov	r0, r3
 5829 005c 07F10C07 		add	r7, r7, #12
 5830 0060 BD46     		mov	sp, r7
 5831 0062 80BC     		pop	{r7}
 5832 0064 7047     		bx	lr
 5833              		.cfi_endproc
 5834              	.LFE23:
 5836 0066 00BF     		.section	.text.EthernetPHYPowerOff,"ax",%progbits
 5837              		.align	2
 5838              		.global	EthernetPHYPowerOff
 5839              		.thumb
 5840              		.thumb_func
 5842              	EthernetPHYPowerOff:
 5843              	.LFB24:
1310:/home/cuil/workspace/arm/lm3s811/TI_Stellaris/driverlib/ethernet.c **** 
1311:/home/cuil/workspace/arm/lm3s811/TI_Stellaris/driverlib/ethernet.c **** //*****************************************************************************
1312:/home/cuil/workspace/arm/lm3s811/TI_Stellaris/driverlib/ethernet.c **** //
1313:/home/cuil/workspace/arm/lm3s811/TI_Stellaris/driverlib/ethernet.c **** //! Powers off the Ethernet PHY.
1314:/home/cuil/workspace/arm/lm3s811/TI_Stellaris/driverlib/ethernet.c **** //!
1315:/home/cuil/workspace/arm/lm3s811/TI_Stellaris/driverlib/ethernet.c **** //! \param ulBase is the base address of the controller.
1316:/home/cuil/workspace/arm/lm3s811/TI_Stellaris/driverlib/ethernet.c **** //!
1317:/home/cuil/workspace/arm/lm3s811/TI_Stellaris/driverlib/ethernet.c **** //! This function powers off the Ethernet PHY, reducing the current
1318:/home/cuil/workspace/arm/lm3s811/TI_Stellaris/driverlib/ethernet.c **** //! consumption of the device.  While in the powered off state, the Ethernet
1319:/home/cuil/workspace/arm/lm3s811/TI_Stellaris/driverlib/ethernet.c **** //! controller is unable to connect to the Ethernet.
1320:/home/cuil/workspace/arm/lm3s811/TI_Stellaris/driverlib/ethernet.c **** //!
1321:/home/cuil/workspace/arm/lm3s811/TI_Stellaris/driverlib/ethernet.c **** //! \return None.
1322:/home/cuil/workspace/arm/lm3s811/TI_Stellaris/driverlib/ethernet.c **** //
1323:/home/cuil/workspace/arm/lm3s811/TI_Stellaris/driverlib/ethernet.c **** //*****************************************************************************
1324:/home/cuil/workspace/arm/lm3s811/TI_Stellaris/driverlib/ethernet.c **** void
1325:/home/cuil/workspace/arm/lm3s811/TI_Stellaris/driverlib/ethernet.c **** EthernetPHYPowerOff(unsigned long ulBase)
1326:/home/cuil/workspace/arm/lm3s811/TI_Stellaris/driverlib/ethernet.c **** {
 5844              		.loc 1 1326 0
 5845              		.cfi_startproc
 5846              		@ args = 0, pretend = 0, frame = 8
 5847              		@ frame_needed = 1, uses_anonymous_args = 0
 5848 0000 80B5     		push	{r7, lr}
 5849              	.LCFI72:
 5850              		.cfi_def_cfa_offset 8
 5851 0002 82B0     		sub	sp, sp, #8
 5852              	.LCFI73:
 5853              		.cfi_def_cfa_offset 16
 5854 0004 00AF     		add	r7, sp, #0
 5855              		.cfi_offset 14, -4
 5856              		.cfi_offset 7, -8
 5857              	.LCFI74:
 5858              		.cfi_def_cfa_register 7
 5859 0006 7860     		str	r0, [r7, #4]
1327:/home/cuil/workspace/arm/lm3s811/TI_Stellaris/driverlib/ethernet.c ****     //
1328:/home/cuil/workspace/arm/lm3s811/TI_Stellaris/driverlib/ethernet.c ****     // Set the PWRDN bit and clear the ANEGEN bit in the PHY, putting it into
1329:/home/cuil/workspace/arm/lm3s811/TI_Stellaris/driverlib/ethernet.c ****     // its low power mode.
1330:/home/cuil/workspace/arm/lm3s811/TI_Stellaris/driverlib/ethernet.c ****     //
1331:/home/cuil/workspace/arm/lm3s811/TI_Stellaris/driverlib/ethernet.c ****     EthernetPHYWrite(ulBase, PHY_MR0,
1332:/home/cuil/workspace/arm/lm3s811/TI_Stellaris/driverlib/ethernet.c ****                      (EthernetPHYRead(ulBase, PHY_MR0) & ~PHY_MR0_ANEGEN) |
 5860              		.loc 1 1332 0
 5861 0008 7868     		ldr	r0, [r7, #4]
 5862 000a 4FF00001 		mov	r1, #0
 5863 000e FFF7FEFF 		bl	EthernetPHYRead
 5864 0012 0346     		mov	r3, r0
 5865 0014 23F4C053 		bic	r3, r3, #6144
1331:/home/cuil/workspace/arm/lm3s811/TI_Stellaris/driverlib/ethernet.c ****     EthernetPHYWrite(ulBase, PHY_MR0,
 5866              		.loc 1 1331 0
 5867 0018 43F40063 		orr	r3, r3, #2048
 5868 001c 7868     		ldr	r0, [r7, #4]
 5869 001e 4FF00001 		mov	r1, #0
 5870 0022 1A46     		mov	r2, r3
 5871 0024 FFF7FEFF 		bl	EthernetPHYWrite
1333:/home/cuil/workspace/arm/lm3s811/TI_Stellaris/driverlib/ethernet.c ****                      PHY_MR0_PWRDN);
1334:/home/cuil/workspace/arm/lm3s811/TI_Stellaris/driverlib/ethernet.c **** }
 5872              		.loc 1 1334 0
 5873 0028 07F10807 		add	r7, r7, #8
 5874 002c BD46     		mov	sp, r7
 5875 002e 80BD     		pop	{r7, pc}
 5876              		.cfi_endproc
 5877              	.LFE24:
 5879              		.section	.text.EthernetPHYPowerOn,"ax",%progbits
 5880              		.align	2
 5881              		.global	EthernetPHYPowerOn
 5882              		.thumb
 5883              		.thumb_func
 5885              	EthernetPHYPowerOn:
 5886              	.LFB25:
1335:/home/cuil/workspace/arm/lm3s811/TI_Stellaris/driverlib/ethernet.c **** 
1336:/home/cuil/workspace/arm/lm3s811/TI_Stellaris/driverlib/ethernet.c **** //*****************************************************************************
1337:/home/cuil/workspace/arm/lm3s811/TI_Stellaris/driverlib/ethernet.c **** //
1338:/home/cuil/workspace/arm/lm3s811/TI_Stellaris/driverlib/ethernet.c **** //! Powers on the Ethernet PHY.
1339:/home/cuil/workspace/arm/lm3s811/TI_Stellaris/driverlib/ethernet.c **** //!
1340:/home/cuil/workspace/arm/lm3s811/TI_Stellaris/driverlib/ethernet.c **** //! \param ulBase is the base address of the controller.
1341:/home/cuil/workspace/arm/lm3s811/TI_Stellaris/driverlib/ethernet.c **** //!
1342:/home/cuil/workspace/arm/lm3s811/TI_Stellaris/driverlib/ethernet.c **** //! This function powers on the Ethernet PHY, enabling it return to normal
1343:/home/cuil/workspace/arm/lm3s811/TI_Stellaris/driverlib/ethernet.c **** //! operation.  By default, the PHY is powered on, so this function is only
1344:/home/cuil/workspace/arm/lm3s811/TI_Stellaris/driverlib/ethernet.c **** //! called if EthernetPHYPowerOff() has previously been called.
1345:/home/cuil/workspace/arm/lm3s811/TI_Stellaris/driverlib/ethernet.c **** //!
1346:/home/cuil/workspace/arm/lm3s811/TI_Stellaris/driverlib/ethernet.c **** //! \return None.
1347:/home/cuil/workspace/arm/lm3s811/TI_Stellaris/driverlib/ethernet.c **** //
1348:/home/cuil/workspace/arm/lm3s811/TI_Stellaris/driverlib/ethernet.c **** //*****************************************************************************
1349:/home/cuil/workspace/arm/lm3s811/TI_Stellaris/driverlib/ethernet.c **** void
1350:/home/cuil/workspace/arm/lm3s811/TI_Stellaris/driverlib/ethernet.c **** EthernetPHYPowerOn(unsigned long ulBase)
1351:/home/cuil/workspace/arm/lm3s811/TI_Stellaris/driverlib/ethernet.c **** {
 5887              		.loc 1 1351 0
 5888              		.cfi_startproc
 5889              		@ args = 0, pretend = 0, frame = 8
 5890              		@ frame_needed = 1, uses_anonymous_args = 0
 5891 0000 80B5     		push	{r7, lr}
 5892              	.LCFI75:
 5893              		.cfi_def_cfa_offset 8
 5894 0002 82B0     		sub	sp, sp, #8
 5895              	.LCFI76:
 5896              		.cfi_def_cfa_offset 16
 5897 0004 00AF     		add	r7, sp, #0
 5898              		.cfi_offset 14, -4
 5899              		.cfi_offset 7, -8
 5900              	.LCFI77:
 5901              		.cfi_def_cfa_register 7
 5902 0006 7860     		str	r0, [r7, #4]
1352:/home/cuil/workspace/arm/lm3s811/TI_Stellaris/driverlib/ethernet.c ****     //
1353:/home/cuil/workspace/arm/lm3s811/TI_Stellaris/driverlib/ethernet.c ****     // Clear the PWRDN bit and set the ANEGEN bit in the PHY, putting it into
1354:/home/cuil/workspace/arm/lm3s811/TI_Stellaris/driverlib/ethernet.c ****     // normal operating mode.
1355:/home/cuil/workspace/arm/lm3s811/TI_Stellaris/driverlib/ethernet.c ****     //
1356:/home/cuil/workspace/arm/lm3s811/TI_Stellaris/driverlib/ethernet.c ****     EthernetPHYWrite(ulBase, PHY_MR0,
1357:/home/cuil/workspace/arm/lm3s811/TI_Stellaris/driverlib/ethernet.c ****                      (EthernetPHYRead(ulBase, PHY_MR0) & ~PHY_MR0_PWRDN) |
 5903              		.loc 1 1357 0
 5904 0008 7868     		ldr	r0, [r7, #4]
 5905 000a 4FF00001 		mov	r1, #0
 5906 000e FFF7FEFF 		bl	EthernetPHYRead
 5907 0012 0346     		mov	r3, r0
 5908 0014 23F4C053 		bic	r3, r3, #6144
1356:/home/cuil/workspace/arm/lm3s811/TI_Stellaris/driverlib/ethernet.c ****     EthernetPHYWrite(ulBase, PHY_MR0,
 5909              		.loc 1 1356 0
 5910 0018 43F48053 		orr	r3, r3, #4096
 5911 001c 7868     		ldr	r0, [r7, #4]
 5912 001e 4FF00001 		mov	r1, #0
 5913 0022 1A46     		mov	r2, r3
 5914 0024 FFF7FEFF 		bl	EthernetPHYWrite
1358:/home/cuil/workspace/arm/lm3s811/TI_Stellaris/driverlib/ethernet.c ****                      PHY_MR0_ANEGEN);
1359:/home/cuil/workspace/arm/lm3s811/TI_Stellaris/driverlib/ethernet.c **** }
 5915              		.loc 1 1359 0
 5916 0028 07F10807 		add	r7, r7, #8
 5917 002c BD46     		mov	sp, r7
 5918 002e 80BD     		pop	{r7, pc}
 5919              		.cfi_endproc
 5920              	.LFE25:
 5922              		.text
 5923              	.Letext0: