   1              		.syntax unified
   2              		.cpu cortex-m3
   3              		.fpu softvfp
   4              		.eabi_attribute 20, 1
   5              		.eabi_attribute 21, 1
   6              		.eabi_attribute 23, 3
   7              		.eabi_attribute 24, 1
   8              		.eabi_attribute 25, 1
   9              		.eabi_attribute 26, 1
  10              		.eabi_attribute 30, 6
  11              		.eabi_attribute 18, 4
  12              		.thumb
  13              		.file	"hibernate.c"
  23              	.Ltext0:
  24              		.file 1 "/home/cuil/workspace/arm/lm3s811/TI_Stellaris/driverlib/hibernate.c"
 8741              		.align	2
 8742              	g_ulWriteDelay:
 8743 0000 00000000 		.space	4
 8744              		.section	.text.HibernateWriteComplete,"ax",%progbits
 8745              		.align	2
 8746              		.global	HibernateWriteComplete
 8747              		.thumb
 8748              		.thumb_func
 8750              	HibernateWriteComplete:
 8751              	.LFB0:
   1:/home/cuil/workspace/arm/lm3s811/TI_Stellaris/driverlib/hibernate.c **** //*****************************************************************************
   2:/home/cuil/workspace/arm/lm3s811/TI_Stellaris/driverlib/hibernate.c **** //
   3:/home/cuil/workspace/arm/lm3s811/TI_Stellaris/driverlib/hibernate.c **** // hibernate.c - Driver for the Hibernation module
   4:/home/cuil/workspace/arm/lm3s811/TI_Stellaris/driverlib/hibernate.c **** //
   5:/home/cuil/workspace/arm/lm3s811/TI_Stellaris/driverlib/hibernate.c **** // Copyright (c) 2007-2011 Texas Instruments Incorporated.  All rights reserved.
   6:/home/cuil/workspace/arm/lm3s811/TI_Stellaris/driverlib/hibernate.c **** // Software License Agreement
   7:/home/cuil/workspace/arm/lm3s811/TI_Stellaris/driverlib/hibernate.c **** // 
   8:/home/cuil/workspace/arm/lm3s811/TI_Stellaris/driverlib/hibernate.c **** // Texas Instruments (TI) is supplying this software for use solely and
   9:/home/cuil/workspace/arm/lm3s811/TI_Stellaris/driverlib/hibernate.c **** // exclusively on TI's microcontroller products. The software is owned by
  10:/home/cuil/workspace/arm/lm3s811/TI_Stellaris/driverlib/hibernate.c **** // TI and/or its suppliers, and is protected under applicable copyright
  11:/home/cuil/workspace/arm/lm3s811/TI_Stellaris/driverlib/hibernate.c **** // laws. You may not combine this software with "viral" open-source
  12:/home/cuil/workspace/arm/lm3s811/TI_Stellaris/driverlib/hibernate.c **** // software in order to form a larger program.
  13:/home/cuil/workspace/arm/lm3s811/TI_Stellaris/driverlib/hibernate.c **** // 
  14:/home/cuil/workspace/arm/lm3s811/TI_Stellaris/driverlib/hibernate.c **** // THIS SOFTWARE IS PROVIDED "AS IS" AND WITH ALL FAULTS.
  15:/home/cuil/workspace/arm/lm3s811/TI_Stellaris/driverlib/hibernate.c **** // NO WARRANTIES, WHETHER EXPRESS, IMPLIED OR STATUTORY, INCLUDING, BUT
  16:/home/cuil/workspace/arm/lm3s811/TI_Stellaris/driverlib/hibernate.c **** // NOT LIMITED TO, IMPLIED WARRANTIES OF MERCHANTABILITY AND FITNESS FOR
  17:/home/cuil/workspace/arm/lm3s811/TI_Stellaris/driverlib/hibernate.c **** // A PARTICULAR PURPOSE APPLY TO THIS SOFTWARE. TI SHALL NOT, UNDER ANY
  18:/home/cuil/workspace/arm/lm3s811/TI_Stellaris/driverlib/hibernate.c **** // CIRCUMSTANCES, BE LIABLE FOR SPECIAL, INCIDENTAL, OR CONSEQUENTIAL
  19:/home/cuil/workspace/arm/lm3s811/TI_Stellaris/driverlib/hibernate.c **** // DAMAGES, FOR ANY REASON WHATSOEVER.
  20:/home/cuil/workspace/arm/lm3s811/TI_Stellaris/driverlib/hibernate.c **** // 
  21:/home/cuil/workspace/arm/lm3s811/TI_Stellaris/driverlib/hibernate.c **** // This is part of revision 8264 of the Stellaris Peripheral Driver Library.
  22:/home/cuil/workspace/arm/lm3s811/TI_Stellaris/driverlib/hibernate.c **** //
  23:/home/cuil/workspace/arm/lm3s811/TI_Stellaris/driverlib/hibernate.c **** //*****************************************************************************
  24:/home/cuil/workspace/arm/lm3s811/TI_Stellaris/driverlib/hibernate.c **** 
  25:/home/cuil/workspace/arm/lm3s811/TI_Stellaris/driverlib/hibernate.c **** //*****************************************************************************
  26:/home/cuil/workspace/arm/lm3s811/TI_Stellaris/driverlib/hibernate.c **** //
  27:/home/cuil/workspace/arm/lm3s811/TI_Stellaris/driverlib/hibernate.c **** //! \addtogroup hibernate_api
  28:/home/cuil/workspace/arm/lm3s811/TI_Stellaris/driverlib/hibernate.c **** //! @{
  29:/home/cuil/workspace/arm/lm3s811/TI_Stellaris/driverlib/hibernate.c **** //
  30:/home/cuil/workspace/arm/lm3s811/TI_Stellaris/driverlib/hibernate.c **** //*****************************************************************************
  31:/home/cuil/workspace/arm/lm3s811/TI_Stellaris/driverlib/hibernate.c **** 
  32:/home/cuil/workspace/arm/lm3s811/TI_Stellaris/driverlib/hibernate.c **** #include "inc/hw_hibernate.h"
  33:/home/cuil/workspace/arm/lm3s811/TI_Stellaris/driverlib/hibernate.c **** #include "inc/hw_ints.h"
  34:/home/cuil/workspace/arm/lm3s811/TI_Stellaris/driverlib/hibernate.c **** #include "inc/hw_sysctl.h"
  35:/home/cuil/workspace/arm/lm3s811/TI_Stellaris/driverlib/hibernate.c **** #include "inc/hw_types.h"
  36:/home/cuil/workspace/arm/lm3s811/TI_Stellaris/driverlib/hibernate.c **** #include "driverlib/debug.h"
  37:/home/cuil/workspace/arm/lm3s811/TI_Stellaris/driverlib/hibernate.c **** #include "driverlib/hibernate.h"
  38:/home/cuil/workspace/arm/lm3s811/TI_Stellaris/driverlib/hibernate.c **** #include "driverlib/interrupt.h"
  39:/home/cuil/workspace/arm/lm3s811/TI_Stellaris/driverlib/hibernate.c **** #include "driverlib/sysctl.h"
  40:/home/cuil/workspace/arm/lm3s811/TI_Stellaris/driverlib/hibernate.c **** 
  41:/home/cuil/workspace/arm/lm3s811/TI_Stellaris/driverlib/hibernate.c **** //*****************************************************************************
  42:/home/cuil/workspace/arm/lm3s811/TI_Stellaris/driverlib/hibernate.c **** //
  43:/home/cuil/workspace/arm/lm3s811/TI_Stellaris/driverlib/hibernate.c **** // The delay in microseconds for writing to the Hibernation module registers.
  44:/home/cuil/workspace/arm/lm3s811/TI_Stellaris/driverlib/hibernate.c **** //
  45:/home/cuil/workspace/arm/lm3s811/TI_Stellaris/driverlib/hibernate.c **** //*****************************************************************************
  46:/home/cuil/workspace/arm/lm3s811/TI_Stellaris/driverlib/hibernate.c **** #define DELAY_USECS             95
  47:/home/cuil/workspace/arm/lm3s811/TI_Stellaris/driverlib/hibernate.c **** 
  48:/home/cuil/workspace/arm/lm3s811/TI_Stellaris/driverlib/hibernate.c **** //*****************************************************************************
  49:/home/cuil/workspace/arm/lm3s811/TI_Stellaris/driverlib/hibernate.c **** //
  50:/home/cuil/workspace/arm/lm3s811/TI_Stellaris/driverlib/hibernate.c **** // The number of processor cycles to execute one pass of the delay loop.
  51:/home/cuil/workspace/arm/lm3s811/TI_Stellaris/driverlib/hibernate.c **** //
  52:/home/cuil/workspace/arm/lm3s811/TI_Stellaris/driverlib/hibernate.c **** //*****************************************************************************
  53:/home/cuil/workspace/arm/lm3s811/TI_Stellaris/driverlib/hibernate.c **** #define LOOP_CYCLES             3
  54:/home/cuil/workspace/arm/lm3s811/TI_Stellaris/driverlib/hibernate.c **** 
  55:/home/cuil/workspace/arm/lm3s811/TI_Stellaris/driverlib/hibernate.c **** //*****************************************************************************
  56:/home/cuil/workspace/arm/lm3s811/TI_Stellaris/driverlib/hibernate.c **** //
  57:/home/cuil/workspace/arm/lm3s811/TI_Stellaris/driverlib/hibernate.c **** // The calculated number of delay loops to achieve the write delay.
  58:/home/cuil/workspace/arm/lm3s811/TI_Stellaris/driverlib/hibernate.c **** //
  59:/home/cuil/workspace/arm/lm3s811/TI_Stellaris/driverlib/hibernate.c **** //*****************************************************************************
  60:/home/cuil/workspace/arm/lm3s811/TI_Stellaris/driverlib/hibernate.c **** static unsigned long g_ulWriteDelay;
  61:/home/cuil/workspace/arm/lm3s811/TI_Stellaris/driverlib/hibernate.c **** 
  62:/home/cuil/workspace/arm/lm3s811/TI_Stellaris/driverlib/hibernate.c **** //*****************************************************************************
  63:/home/cuil/workspace/arm/lm3s811/TI_Stellaris/driverlib/hibernate.c **** //
  64:/home/cuil/workspace/arm/lm3s811/TI_Stellaris/driverlib/hibernate.c **** //! \internal
  65:/home/cuil/workspace/arm/lm3s811/TI_Stellaris/driverlib/hibernate.c **** //!
  66:/home/cuil/workspace/arm/lm3s811/TI_Stellaris/driverlib/hibernate.c **** //! Polls until the write complete (WRC) bit in the hibernate control register
  67:/home/cuil/workspace/arm/lm3s811/TI_Stellaris/driverlib/hibernate.c **** //! is set.
  68:/home/cuil/workspace/arm/lm3s811/TI_Stellaris/driverlib/hibernate.c **** //!
  69:/home/cuil/workspace/arm/lm3s811/TI_Stellaris/driverlib/hibernate.c **** //! \param None.
  70:/home/cuil/workspace/arm/lm3s811/TI_Stellaris/driverlib/hibernate.c **** //!
  71:/home/cuil/workspace/arm/lm3s811/TI_Stellaris/driverlib/hibernate.c **** //! On non-Fury-class devices, the hibernate module provides an indication when
  72:/home/cuil/workspace/arm/lm3s811/TI_Stellaris/driverlib/hibernate.c **** //! any write is completed.  This mechanism is used to pace writes to the 
  73:/home/cuil/workspace/arm/lm3s811/TI_Stellaris/driverlib/hibernate.c **** //! module.  This function merely polls this bit and returns as soon as it is 
  74:/home/cuil/workspace/arm/lm3s811/TI_Stellaris/driverlib/hibernate.c **** //! set.  At this point, it is safe to perform another write to the module.
  75:/home/cuil/workspace/arm/lm3s811/TI_Stellaris/driverlib/hibernate.c **** //!
  76:/home/cuil/workspace/arm/lm3s811/TI_Stellaris/driverlib/hibernate.c **** //! \return None.
  77:/home/cuil/workspace/arm/lm3s811/TI_Stellaris/driverlib/hibernate.c **** //
  78:/home/cuil/workspace/arm/lm3s811/TI_Stellaris/driverlib/hibernate.c **** //*****************************************************************************
  79:/home/cuil/workspace/arm/lm3s811/TI_Stellaris/driverlib/hibernate.c **** void
  80:/home/cuil/workspace/arm/lm3s811/TI_Stellaris/driverlib/hibernate.c **** HibernateWriteComplete(void)
  81:/home/cuil/workspace/arm/lm3s811/TI_Stellaris/driverlib/hibernate.c **** {
 8752              		.loc 1 81 0
 8753              		.cfi_startproc
 8754              		@ args = 0, pretend = 0, frame = 0
 8755              		@ frame_needed = 1, uses_anonymous_args = 0
 8756 0000 80B5     		push	{r7, lr}
 8757              	.LCFI0:
 8758              		.cfi_def_cfa_offset 8
 8759 0002 00AF     		add	r7, sp, #0
 8760              		.cfi_offset 14, -4
 8761              		.cfi_offset 7, -8
 8762              	.LCFI1:
 8763              		.cfi_def_cfa_register 7
  82:/home/cuil/workspace/arm/lm3s811/TI_Stellaris/driverlib/hibernate.c ****     //
  83:/home/cuil/workspace/arm/lm3s811/TI_Stellaris/driverlib/hibernate.c ****     // Add a delay here to enforce the required delay between write accesses to
  84:/home/cuil/workspace/arm/lm3s811/TI_Stellaris/driverlib/hibernate.c ****     // certain Hibernation module registers.
  85:/home/cuil/workspace/arm/lm3s811/TI_Stellaris/driverlib/hibernate.c ****     //
  86:/home/cuil/workspace/arm/lm3s811/TI_Stellaris/driverlib/hibernate.c ****     if(CLASS_IS_FURY)
 8764              		.loc 1 86 0
 8765 0004 094B     		ldr	r3, .L6
 8766 0006 1A68     		ldr	r2, [r3, #0]
 8767 0008 094B     		ldr	r3, .L6+4
 8768 000a 02EA0303 		and	r3, r2, r3
 8769 000e 094A     		ldr	r2, .L6+8
 8770 0010 9342     		cmp	r3, r2
 8771 0012 05D1     		bne	.L5
  87:/home/cuil/workspace/arm/lm3s811/TI_Stellaris/driverlib/hibernate.c ****     {
  88:/home/cuil/workspace/arm/lm3s811/TI_Stellaris/driverlib/hibernate.c ****         //
  89:/home/cuil/workspace/arm/lm3s811/TI_Stellaris/driverlib/hibernate.c ****         // Delay a fixed time on Fury-class devices
  90:/home/cuil/workspace/arm/lm3s811/TI_Stellaris/driverlib/hibernate.c ****         //
  91:/home/cuil/workspace/arm/lm3s811/TI_Stellaris/driverlib/hibernate.c ****         SysCtlDelay(g_ulWriteDelay);
 8772              		.loc 1 91 0
 8773 0014 084B     		ldr	r3, .L6+12
 8774 0016 1B68     		ldr	r3, [r3, #0]
 8775 0018 1846     		mov	r0, r3
 8776 001a FFF7FEFF 		bl	SysCtlDelay
 8777 001e 04E0     		b	.L1
 8778              	.L5:
  92:/home/cuil/workspace/arm/lm3s811/TI_Stellaris/driverlib/hibernate.c ****     }
  93:/home/cuil/workspace/arm/lm3s811/TI_Stellaris/driverlib/hibernate.c ****     else
  94:/home/cuil/workspace/arm/lm3s811/TI_Stellaris/driverlib/hibernate.c ****     {
  95:/home/cuil/workspace/arm/lm3s811/TI_Stellaris/driverlib/hibernate.c ****         //
  96:/home/cuil/workspace/arm/lm3s811/TI_Stellaris/driverlib/hibernate.c ****         // Spin until the write complete bit is set, for later devices.
  97:/home/cuil/workspace/arm/lm3s811/TI_Stellaris/driverlib/hibernate.c ****         //
  98:/home/cuil/workspace/arm/lm3s811/TI_Stellaris/driverlib/hibernate.c ****         while(!(HWREG(HIB_CTL) & HIB_CTL_WRC))
 8779              		.loc 1 98 0
 8780 0020 00BF     		nop
 8781              	.L4:
 8782              		.loc 1 98 0 is_stmt 0 discriminator 1
 8783 0022 064B     		ldr	r3, .L6+16
 8784 0024 1B68     		ldr	r3, [r3, #0]
 8785 0026 002B     		cmp	r3, #0
 8786 0028 FBDA     		bge	.L4
 8787              	.L1:
  99:/home/cuil/workspace/arm/lm3s811/TI_Stellaris/driverlib/hibernate.c ****         {
 100:/home/cuil/workspace/arm/lm3s811/TI_Stellaris/driverlib/hibernate.c ****         }
 101:/home/cuil/workspace/arm/lm3s811/TI_Stellaris/driverlib/hibernate.c ****     }
 102:/home/cuil/workspace/arm/lm3s811/TI_Stellaris/driverlib/hibernate.c **** }
 8788              		.loc 1 102 0 is_stmt 1
 8789 002a 80BD     		pop	{r7, pc}
 8790              	.L7:
 8791              		.align	2
 8792              	.L6:
 8793 002c 00E00F40 		.word	1074782208
 8794 0030 0000FF70 		.word	1895759872
 8795 0034 00000110 		.word	268500992
 8796 0038 00000000 		.word	g_ulWriteDelay
 8797 003c 10C00F40 		.word	1074774032
 8798              		.cfi_endproc
 8799              	.LFE0:
 8801              		.section	.text.HibernateEnableExpClk,"ax",%progbits
 8802              		.align	2
 8803              		.global	HibernateEnableExpClk
 8804              		.thumb
 8805              		.thumb_func
 8807              	HibernateEnableExpClk:
 8808              	.LFB1:
 103:/home/cuil/workspace/arm/lm3s811/TI_Stellaris/driverlib/hibernate.c **** 
 104:/home/cuil/workspace/arm/lm3s811/TI_Stellaris/driverlib/hibernate.c **** //*****************************************************************************
 105:/home/cuil/workspace/arm/lm3s811/TI_Stellaris/driverlib/hibernate.c **** //
 106:/home/cuil/workspace/arm/lm3s811/TI_Stellaris/driverlib/hibernate.c **** //! Enables the Hibernation module for operation.
 107:/home/cuil/workspace/arm/lm3s811/TI_Stellaris/driverlib/hibernate.c **** //!
 108:/home/cuil/workspace/arm/lm3s811/TI_Stellaris/driverlib/hibernate.c **** //! \param ulHibClk is the rate of the clock supplied to the Hibernation
 109:/home/cuil/workspace/arm/lm3s811/TI_Stellaris/driverlib/hibernate.c **** //! module.
 110:/home/cuil/workspace/arm/lm3s811/TI_Stellaris/driverlib/hibernate.c **** //!
 111:/home/cuil/workspace/arm/lm3s811/TI_Stellaris/driverlib/hibernate.c **** //! This function enables the Hibernation module for operation.  This function
 112:/home/cuil/workspace/arm/lm3s811/TI_Stellaris/driverlib/hibernate.c **** //! should be called before any of the Hibernation module features are used.
 113:/home/cuil/workspace/arm/lm3s811/TI_Stellaris/driverlib/hibernate.c **** //!
 114:/home/cuil/workspace/arm/lm3s811/TI_Stellaris/driverlib/hibernate.c **** //! The peripheral clock is the same as the processor clock.  This value is
 115:/home/cuil/workspace/arm/lm3s811/TI_Stellaris/driverlib/hibernate.c **** //! returned by SysCtlClockGet(), or it can be explicitly hard-coded if it is
 116:/home/cuil/workspace/arm/lm3s811/TI_Stellaris/driverlib/hibernate.c **** //! constant and known (to save the code/execution overhead of a call to
 117:/home/cuil/workspace/arm/lm3s811/TI_Stellaris/driverlib/hibernate.c **** //! SysCtlClockGet()).
 118:/home/cuil/workspace/arm/lm3s811/TI_Stellaris/driverlib/hibernate.c **** //!
 119:/home/cuil/workspace/arm/lm3s811/TI_Stellaris/driverlib/hibernate.c **** //! This function replaces the original HibernateEnable() API and performs the
 120:/home/cuil/workspace/arm/lm3s811/TI_Stellaris/driverlib/hibernate.c **** //! same actions.  A macro is provided in <tt>hibernate.h</tt> to map the
 121:/home/cuil/workspace/arm/lm3s811/TI_Stellaris/driverlib/hibernate.c **** //! original API to this API.
 122:/home/cuil/workspace/arm/lm3s811/TI_Stellaris/driverlib/hibernate.c **** //!
 123:/home/cuil/workspace/arm/lm3s811/TI_Stellaris/driverlib/hibernate.c **** //! \return None.
 124:/home/cuil/workspace/arm/lm3s811/TI_Stellaris/driverlib/hibernate.c **** //
 125:/home/cuil/workspace/arm/lm3s811/TI_Stellaris/driverlib/hibernate.c **** //*****************************************************************************
 126:/home/cuil/workspace/arm/lm3s811/TI_Stellaris/driverlib/hibernate.c **** void
 127:/home/cuil/workspace/arm/lm3s811/TI_Stellaris/driverlib/hibernate.c **** HibernateEnableExpClk(unsigned long ulHibClk)
 128:/home/cuil/workspace/arm/lm3s811/TI_Stellaris/driverlib/hibernate.c **** {
 8809              		.loc 1 128 0
 8810              		.cfi_startproc
 8811              		@ args = 0, pretend = 0, frame = 8
 8812              		@ frame_needed = 1, uses_anonymous_args = 0
 8813 0000 80B5     		push	{r7, lr}
 8814              	.LCFI2:
 8815              		.cfi_def_cfa_offset 8
 8816 0002 82B0     		sub	sp, sp, #8
 8817              	.LCFI3:
 8818              		.cfi_def_cfa_offset 16
 8819 0004 00AF     		add	r7, sp, #0
 8820              		.cfi_offset 14, -4
 8821              		.cfi_offset 7, -8
 8822              	.LCFI4:
 8823              		.cfi_def_cfa_register 7
 8824 0006 7860     		str	r0, [r7, #4]
 129:/home/cuil/workspace/arm/lm3s811/TI_Stellaris/driverlib/hibernate.c ****     //
 130:/home/cuil/workspace/arm/lm3s811/TI_Stellaris/driverlib/hibernate.c ****     // Turn on the clock enable bit.
 131:/home/cuil/workspace/arm/lm3s811/TI_Stellaris/driverlib/hibernate.c ****     //
 132:/home/cuil/workspace/arm/lm3s811/TI_Stellaris/driverlib/hibernate.c ****     HWREG(HIB_CTL) |= HIB_CTL_CLK32EN;
 8825              		.loc 1 132 0
 8826 0008 174B     		ldr	r3, .L11
 8827 000a 174A     		ldr	r2, .L11
 8828 000c 1268     		ldr	r2, [r2, #0]
 8829 000e 42F04002 		orr	r2, r2, #64
 8830 0012 1A60     		str	r2, [r3, #0]
 133:/home/cuil/workspace/arm/lm3s811/TI_Stellaris/driverlib/hibernate.c **** 
 134:/home/cuil/workspace/arm/lm3s811/TI_Stellaris/driverlib/hibernate.c ****     //
 135:/home/cuil/workspace/arm/lm3s811/TI_Stellaris/driverlib/hibernate.c ****     // For Fury-class devices, compute the number of delay loops that must be
 136:/home/cuil/workspace/arm/lm3s811/TI_Stellaris/driverlib/hibernate.c ****     // used to achieve the desired delay for writes to the hibernation
 137:/home/cuil/workspace/arm/lm3s811/TI_Stellaris/driverlib/hibernate.c ****     // registers.  This value will be used in calls to SysCtlDelay().
 138:/home/cuil/workspace/arm/lm3s811/TI_Stellaris/driverlib/hibernate.c ****     //
 139:/home/cuil/workspace/arm/lm3s811/TI_Stellaris/driverlib/hibernate.c ****     if(CLASS_IS_FURY)
 8831              		.loc 1 139 0
 8832 0014 154B     		ldr	r3, .L11+4
 8833 0016 1A68     		ldr	r2, [r3, #0]
 8834 0018 154B     		ldr	r3, .L11+8
 8835 001a 02EA0303 		and	r3, r2, r3
 8836 001e 154A     		ldr	r2, .L11+12
 8837 0020 9342     		cmp	r3, r2
 8838 0022 1AD1     		bne	.L9
 140:/home/cuil/workspace/arm/lm3s811/TI_Stellaris/driverlib/hibernate.c ****     {
 141:/home/cuil/workspace/arm/lm3s811/TI_Stellaris/driverlib/hibernate.c ****         g_ulWriteDelay = (((ulHibClk / 1000) * DELAY_USECS) /
 8839              		.loc 1 141 0
 8840 0024 7A68     		ldr	r2, [r7, #4]
 8841 0026 144B     		ldr	r3, .L11+16
 8842 0028 A3FB0213 		umull	r1, r3, r3, r2
 8843 002c 4FEA9312 		lsr	r2, r3, #6
 8844 0030 1346     		mov	r3, r2
 8845 0032 4FEA4303 		lsl	r3, r3, #1
 8846 0036 9B18     		adds	r3, r3, r2
 8847 0038 4FEA4313 		lsl	r3, r3, #5
 8848 003c 9A1A     		subs	r2, r3, r2
 8849 003e 0F4B     		ldr	r3, .L11+20
 8850 0040 A3FB0213 		umull	r1, r3, r3, r2
 8851 0044 4FEA9312 		lsr	r2, r3, #6
 8852 0048 0D4B     		ldr	r3, .L11+24
 8853 004a 1A60     		str	r2, [r3, #0]
 142:/home/cuil/workspace/arm/lm3s811/TI_Stellaris/driverlib/hibernate.c ****                           (1000L * LOOP_CYCLES));
 143:/home/cuil/workspace/arm/lm3s811/TI_Stellaris/driverlib/hibernate.c ****         g_ulWriteDelay++;
 8854              		.loc 1 143 0
 8855 004c 0C4B     		ldr	r3, .L11+24
 8856 004e 1B68     		ldr	r3, [r3, #0]
 8857 0050 03F10102 		add	r2, r3, #1
 8858 0054 0A4B     		ldr	r3, .L11+24
 8859 0056 1A60     		str	r2, [r3, #0]
 8860 0058 01E0     		b	.L8
 8861              	.L9:
 144:/home/cuil/workspace/arm/lm3s811/TI_Stellaris/driverlib/hibernate.c ****     }
 145:/home/cuil/workspace/arm/lm3s811/TI_Stellaris/driverlib/hibernate.c ****     else
 146:/home/cuil/workspace/arm/lm3s811/TI_Stellaris/driverlib/hibernate.c ****     {
 147:/home/cuil/workspace/arm/lm3s811/TI_Stellaris/driverlib/hibernate.c ****         //
 148:/home/cuil/workspace/arm/lm3s811/TI_Stellaris/driverlib/hibernate.c ****         // Non-fury parts must wait for write complete following register
 149:/home/cuil/workspace/arm/lm3s811/TI_Stellaris/driverlib/hibernate.c ****         // load (above).
 150:/home/cuil/workspace/arm/lm3s811/TI_Stellaris/driverlib/hibernate.c ****         //
 151:/home/cuil/workspace/arm/lm3s811/TI_Stellaris/driverlib/hibernate.c ****         HibernateWriteComplete();
 8862              		.loc 1 151 0
 8863 005a FFF7FEFF 		bl	HibernateWriteComplete
 8864              	.L8:
 152:/home/cuil/workspace/arm/lm3s811/TI_Stellaris/driverlib/hibernate.c ****     }
 153:/home/cuil/workspace/arm/lm3s811/TI_Stellaris/driverlib/hibernate.c **** }
 8865              		.loc 1 153 0
 8866 005e 07F10807 		add	r7, r7, #8
 8867 0062 BD46     		mov	sp, r7
 8868 0064 80BD     		pop	{r7, pc}
 8869              	.L12:
 8870 0066 00BF     		.align	2
 8871              	.L11:
 8872 0068 10C00F40 		.word	1074774032
 8873 006c 00E00F40 		.word	1074782208
 8874 0070 0000FF70 		.word	1895759872
 8875 0074 00000110 		.word	268500992
 8876 0078 D34D6210 		.word	274877907
 8877 007c F1197605 		.word	91625969
 8878 0080 00000000 		.word	g_ulWriteDelay
 8879              		.cfi_endproc
 8880              	.LFE1:
 8882              		.section	.text.HibernateDisable,"ax",%progbits
 8883              		.align	2
 8884              		.global	HibernateDisable
 8885              		.thumb
 8886              		.thumb_func
 8888              	HibernateDisable:
 8889              	.LFB2:
 154:/home/cuil/workspace/arm/lm3s811/TI_Stellaris/driverlib/hibernate.c **** 
 155:/home/cuil/workspace/arm/lm3s811/TI_Stellaris/driverlib/hibernate.c **** //*****************************************************************************
 156:/home/cuil/workspace/arm/lm3s811/TI_Stellaris/driverlib/hibernate.c **** //
 157:/home/cuil/workspace/arm/lm3s811/TI_Stellaris/driverlib/hibernate.c **** //! Disables the Hibernation module for operation.
 158:/home/cuil/workspace/arm/lm3s811/TI_Stellaris/driverlib/hibernate.c **** //!
 159:/home/cuil/workspace/arm/lm3s811/TI_Stellaris/driverlib/hibernate.c **** //! This function disables the Hibernation module for operation.  After this 
 160:/home/cuil/workspace/arm/lm3s811/TI_Stellaris/driverlib/hibernate.c **** //! function is called, none of the Hibernation module features are available.
 161:/home/cuil/workspace/arm/lm3s811/TI_Stellaris/driverlib/hibernate.c **** //!
 162:/home/cuil/workspace/arm/lm3s811/TI_Stellaris/driverlib/hibernate.c **** //! \return None.
 163:/home/cuil/workspace/arm/lm3s811/TI_Stellaris/driverlib/hibernate.c **** //
 164:/home/cuil/workspace/arm/lm3s811/TI_Stellaris/driverlib/hibernate.c **** //*****************************************************************************
 165:/home/cuil/workspace/arm/lm3s811/TI_Stellaris/driverlib/hibernate.c **** void
 166:/home/cuil/workspace/arm/lm3s811/TI_Stellaris/driverlib/hibernate.c **** HibernateDisable(void)
 167:/home/cuil/workspace/arm/lm3s811/TI_Stellaris/driverlib/hibernate.c **** {
 8890              		.loc 1 167 0
 8891              		.cfi_startproc
 8892              		@ args = 0, pretend = 0, frame = 0
 8893              		@ frame_needed = 1, uses_anonymous_args = 0
 8894 0000 80B5     		push	{r7, lr}
 8895              	.LCFI5:
 8896              		.cfi_def_cfa_offset 8
 8897 0002 00AF     		add	r7, sp, #0
 8898              		.cfi_offset 14, -4
 8899              		.cfi_offset 7, -8
 8900              	.LCFI6:
 8901              		.cfi_def_cfa_register 7
 168:/home/cuil/workspace/arm/lm3s811/TI_Stellaris/driverlib/hibernate.c ****     //
 169:/home/cuil/workspace/arm/lm3s811/TI_Stellaris/driverlib/hibernate.c ****     // Turn off the clock enable bit.
 170:/home/cuil/workspace/arm/lm3s811/TI_Stellaris/driverlib/hibernate.c ****     //
 171:/home/cuil/workspace/arm/lm3s811/TI_Stellaris/driverlib/hibernate.c ****     HWREG(HIB_CTL) &= ~HIB_CTL_CLK32EN;
 8902              		.loc 1 171 0
 8903 0004 044B     		ldr	r3, .L14
 8904 0006 044A     		ldr	r2, .L14
 8905 0008 1268     		ldr	r2, [r2, #0]
 8906 000a 22F04002 		bic	r2, r2, #64
 8907 000e 1A60     		str	r2, [r3, #0]
 172:/home/cuil/workspace/arm/lm3s811/TI_Stellaris/driverlib/hibernate.c **** 
 173:/home/cuil/workspace/arm/lm3s811/TI_Stellaris/driverlib/hibernate.c ****     //
 174:/home/cuil/workspace/arm/lm3s811/TI_Stellaris/driverlib/hibernate.c ****     // Wait for write completion
 175:/home/cuil/workspace/arm/lm3s811/TI_Stellaris/driverlib/hibernate.c ****     //
 176:/home/cuil/workspace/arm/lm3s811/TI_Stellaris/driverlib/hibernate.c ****     HibernateWriteComplete();
 8908              		.loc 1 176 0
 8909 0010 FFF7FEFF 		bl	HibernateWriteComplete
 177:/home/cuil/workspace/arm/lm3s811/TI_Stellaris/driverlib/hibernate.c **** }
 8910              		.loc 1 177 0
 8911 0014 80BD     		pop	{r7, pc}
 8912              	.L15:
 8913 0016 00BF     		.align	2
 8914              	.L14:
 8915 0018 10C00F40 		.word	1074774032
 8916              		.cfi_endproc
 8917              	.LFE2:
 8919              		.section	.text.HibernateClockSelect,"ax",%progbits
 8920              		.align	2
 8921              		.global	HibernateClockSelect
 8922              		.thumb
 8923              		.thumb_func
 8925              	HibernateClockSelect:
 8926              	.LFB3:
 178:/home/cuil/workspace/arm/lm3s811/TI_Stellaris/driverlib/hibernate.c **** 
 179:/home/cuil/workspace/arm/lm3s811/TI_Stellaris/driverlib/hibernate.c **** //*****************************************************************************
 180:/home/cuil/workspace/arm/lm3s811/TI_Stellaris/driverlib/hibernate.c **** //
 181:/home/cuil/workspace/arm/lm3s811/TI_Stellaris/driverlib/hibernate.c **** //! Selects the clock input for the Hibernation module.
 182:/home/cuil/workspace/arm/lm3s811/TI_Stellaris/driverlib/hibernate.c **** //!
 183:/home/cuil/workspace/arm/lm3s811/TI_Stellaris/driverlib/hibernate.c **** //! \param ulClockInput specifies the clock input.
 184:/home/cuil/workspace/arm/lm3s811/TI_Stellaris/driverlib/hibernate.c **** //!
 185:/home/cuil/workspace/arm/lm3s811/TI_Stellaris/driverlib/hibernate.c **** //! This function configures the clock input for the Hibernation module.  The 
 186:/home/cuil/workspace/arm/lm3s811/TI_Stellaris/driverlib/hibernate.c **** //! configuration option chosen depends entirely on hardware design.  The clock
 187:/home/cuil/workspace/arm/lm3s811/TI_Stellaris/driverlib/hibernate.c **** //! input for the module is either a 32.768 kHz oscillator or a 4.194304 MHz 
 188:/home/cuil/workspace/arm/lm3s811/TI_Stellaris/driverlib/hibernate.c **** //! crystal. The \e ulClockFlags parameter must be one of the following:
 189:/home/cuil/workspace/arm/lm3s811/TI_Stellaris/driverlib/hibernate.c **** //!
 190:/home/cuil/workspace/arm/lm3s811/TI_Stellaris/driverlib/hibernate.c **** //! - \b HIBERNATE_CLOCK_SEL_RAW - use the raw signal from a 32.768 kHz
 191:/home/cuil/workspace/arm/lm3s811/TI_Stellaris/driverlib/hibernate.c **** //!   oscillator.
 192:/home/cuil/workspace/arm/lm3s811/TI_Stellaris/driverlib/hibernate.c **** //! - \b HIBERNATE_CLOCK_SEL_DIV128 - use the crystal input, divided by 128.
 193:/home/cuil/workspace/arm/lm3s811/TI_Stellaris/driverlib/hibernate.c **** //!
 194:/home/cuil/workspace/arm/lm3s811/TI_Stellaris/driverlib/hibernate.c **** //! \note The \b HIBERNATE_CLOCK_SEL_DIV128 setting is not available on all
 195:/home/cuil/workspace/arm/lm3s811/TI_Stellaris/driverlib/hibernate.c **** //! Stellaris devices.  Please consult the data sheet to determine if the
 196:/home/cuil/workspace/arm/lm3s811/TI_Stellaris/driverlib/hibernate.c **** //! device that you are using supports the 4.194304 crystal as a source for the
 197:/home/cuil/workspace/arm/lm3s811/TI_Stellaris/driverlib/hibernate.c **** //! Hibernation module.
 198:/home/cuil/workspace/arm/lm3s811/TI_Stellaris/driverlib/hibernate.c **** //!
 199:/home/cuil/workspace/arm/lm3s811/TI_Stellaris/driverlib/hibernate.c **** //! \return None.
 200:/home/cuil/workspace/arm/lm3s811/TI_Stellaris/driverlib/hibernate.c **** //
 201:/home/cuil/workspace/arm/lm3s811/TI_Stellaris/driverlib/hibernate.c **** //*****************************************************************************
 202:/home/cuil/workspace/arm/lm3s811/TI_Stellaris/driverlib/hibernate.c **** void
 203:/home/cuil/workspace/arm/lm3s811/TI_Stellaris/driverlib/hibernate.c **** HibernateClockSelect(unsigned long ulClockInput)
 204:/home/cuil/workspace/arm/lm3s811/TI_Stellaris/driverlib/hibernate.c **** {
 8927              		.loc 1 204 0
 8928              		.cfi_startproc
 8929              		@ args = 0, pretend = 0, frame = 8
 8930              		@ frame_needed = 1, uses_anonymous_args = 0
 8931 0000 80B5     		push	{r7, lr}
 8932              	.LCFI7:
 8933              		.cfi_def_cfa_offset 8
 8934 0002 82B0     		sub	sp, sp, #8
 8935              	.LCFI8:
 8936              		.cfi_def_cfa_offset 16
 8937 0004 00AF     		add	r7, sp, #0
 8938              		.cfi_offset 14, -4
 8939              		.cfi_offset 7, -8
 8940              	.LCFI9:
 8941              		.cfi_def_cfa_register 7
 8942 0006 7860     		str	r0, [r7, #4]
 205:/home/cuil/workspace/arm/lm3s811/TI_Stellaris/driverlib/hibernate.c ****     //
 206:/home/cuil/workspace/arm/lm3s811/TI_Stellaris/driverlib/hibernate.c ****     // Check the arguments.
 207:/home/cuil/workspace/arm/lm3s811/TI_Stellaris/driverlib/hibernate.c ****     //
 208:/home/cuil/workspace/arm/lm3s811/TI_Stellaris/driverlib/hibernate.c ****     ASSERT((ulClockInput == HIBERNATE_CLOCK_SEL_RAW) ||
 209:/home/cuil/workspace/arm/lm3s811/TI_Stellaris/driverlib/hibernate.c ****            (ulClockInput == HIBERNATE_CLOCK_SEL_DIV128));
 210:/home/cuil/workspace/arm/lm3s811/TI_Stellaris/driverlib/hibernate.c **** 
 211:/home/cuil/workspace/arm/lm3s811/TI_Stellaris/driverlib/hibernate.c ****     //
 212:/home/cuil/workspace/arm/lm3s811/TI_Stellaris/driverlib/hibernate.c ****     // Set the clock selection bit according to the parameter.
 213:/home/cuil/workspace/arm/lm3s811/TI_Stellaris/driverlib/hibernate.c ****     //
 214:/home/cuil/workspace/arm/lm3s811/TI_Stellaris/driverlib/hibernate.c ****     HWREG(HIB_CTL) = ulClockInput | (HWREG(HIB_CTL) & ~HIB_CTL_CLKSEL);
 8943              		.loc 1 214 0
 8944 0008 074B     		ldr	r3, .L17
 8945 000a 074A     		ldr	r2, .L17
 8946 000c 1268     		ldr	r2, [r2, #0]
 8947 000e 22F00401 		bic	r1, r2, #4
 8948 0012 7A68     		ldr	r2, [r7, #4]
 8949 0014 41EA0202 		orr	r2, r1, r2
 8950 0018 1A60     		str	r2, [r3, #0]
 215:/home/cuil/workspace/arm/lm3s811/TI_Stellaris/driverlib/hibernate.c **** 
 216:/home/cuil/workspace/arm/lm3s811/TI_Stellaris/driverlib/hibernate.c ****     //
 217:/home/cuil/workspace/arm/lm3s811/TI_Stellaris/driverlib/hibernate.c ****     // Wait for write completion
 218:/home/cuil/workspace/arm/lm3s811/TI_Stellaris/driverlib/hibernate.c ****     //
 219:/home/cuil/workspace/arm/lm3s811/TI_Stellaris/driverlib/hibernate.c ****     HibernateWriteComplete();
 8951              		.loc 1 219 0
 8952 001a FFF7FEFF 		bl	HibernateWriteComplete
 220:/home/cuil/workspace/arm/lm3s811/TI_Stellaris/driverlib/hibernate.c **** }
 8953              		.loc 1 220 0
 8954 001e 07F10807 		add	r7, r7, #8
 8955 0022 BD46     		mov	sp, r7
 8956 0024 80BD     		pop	{r7, pc}
 8957              	.L18:
 8958 0026 00BF     		.align	2
 8959              	.L17:
 8960 0028 10C00F40 		.word	1074774032
 8961              		.cfi_endproc
 8962              	.LFE3:
 8964              		.section	.text.HibernateClockConfig,"ax",%progbits
 8965              		.align	2
 8966              		.global	HibernateClockConfig
 8967              		.thumb
 8968              		.thumb_func
 8970              	HibernateClockConfig:
 8971              	.LFB4:
 221:/home/cuil/workspace/arm/lm3s811/TI_Stellaris/driverlib/hibernate.c **** 
 222:/home/cuil/workspace/arm/lm3s811/TI_Stellaris/driverlib/hibernate.c **** //*****************************************************************************
 223:/home/cuil/workspace/arm/lm3s811/TI_Stellaris/driverlib/hibernate.c **** //
 224:/home/cuil/workspace/arm/lm3s811/TI_Stellaris/driverlib/hibernate.c **** //! Configures the clock input for the Hibernation module.
 225:/home/cuil/workspace/arm/lm3s811/TI_Stellaris/driverlib/hibernate.c **** //!
 226:/home/cuil/workspace/arm/lm3s811/TI_Stellaris/driverlib/hibernate.c **** //! \param ulConfig is one of the possible configuration options for the clock
 227:/home/cuil/workspace/arm/lm3s811/TI_Stellaris/driverlib/hibernate.c **** //! input listed below.
 228:/home/cuil/workspace/arm/lm3s811/TI_Stellaris/driverlib/hibernate.c **** //!
 229:/home/cuil/workspace/arm/lm3s811/TI_Stellaris/driverlib/hibernate.c **** //! This function is used to configure the clock input for the Hibernation
 230:/home/cuil/workspace/arm/lm3s811/TI_Stellaris/driverlib/hibernate.c **** //! module.  The \e ulConfig parameter can be one of the following values:
 231:/home/cuil/workspace/arm/lm3s811/TI_Stellaris/driverlib/hibernate.c **** //!
 232:/home/cuil/workspace/arm/lm3s811/TI_Stellaris/driverlib/hibernate.c **** //! - \b HIBERNATE_OSC_DISABLE specifies that the internal oscillator
 233:/home/cuil/workspace/arm/lm3s811/TI_Stellaris/driverlib/hibernate.c **** //! is powered off and either an externally supplied clock source or no clock
 234:/home/cuil/workspace/arm/lm3s811/TI_Stellaris/driverlib/hibernate.c **** //! source is being used.
 235:/home/cuil/workspace/arm/lm3s811/TI_Stellaris/driverlib/hibernate.c **** //! - \b HIBERNATE_OSC_HIGHDRIVE specifies a higher drive strength when a 24pF
 236:/home/cuil/workspace/arm/lm3s811/TI_Stellaris/driverlib/hibernate.c **** //! filter capacitor is used with a crystal.
 237:/home/cuil/workspace/arm/lm3s811/TI_Stellaris/driverlib/hibernate.c **** //! - \b HIBERNATE_OSC_LOWDRIVE specifies a lower drive strength when a 12pF
 238:/home/cuil/workspace/arm/lm3s811/TI_Stellaris/driverlib/hibernate.c **** //! filter capacitor is used with a crystal.
 239:/home/cuil/workspace/arm/lm3s811/TI_Stellaris/driverlib/hibernate.c **** //!
 240:/home/cuil/workspace/arm/lm3s811/TI_Stellaris/driverlib/hibernate.c **** //! The \b HIBERNATE_OSC_DISABLE option is used to disable and power down the
 241:/home/cuil/workspace/arm/lm3s811/TI_Stellaris/driverlib/hibernate.c **** //! internal oscillator if an external clock source or no clock source is used
 242:/home/cuil/workspace/arm/lm3s811/TI_Stellaris/driverlib/hibernate.c **** //! instead of a 32.768 kHz crystal.  In the case where an external crystal is
 243:/home/cuil/workspace/arm/lm3s811/TI_Stellaris/driverlib/hibernate.c **** //! used, either the \b HIBERNATE_OSC_HIGHDRIVE or \b HIBERNATE_OSC_LOWDRIVE is
 244:/home/cuil/workspace/arm/lm3s811/TI_Stellaris/driverlib/hibernate.c **** //! used.  This optimizes the oscillator drive strength to match the size of
 245:/home/cuil/workspace/arm/lm3s811/TI_Stellaris/driverlib/hibernate.c **** //! the filter capacitor that is used with the external crystal circuit.
 246:/home/cuil/workspace/arm/lm3s811/TI_Stellaris/driverlib/hibernate.c **** //!
 247:/home/cuil/workspace/arm/lm3s811/TI_Stellaris/driverlib/hibernate.c **** //! \note The ability to configure the clock input in the Hibernation
 248:/home/cuil/workspace/arm/lm3s811/TI_Stellaris/driverlib/hibernate.c **** //! module is not available on all Stellaris devices.  Please consult the data
 249:/home/cuil/workspace/arm/lm3s811/TI_Stellaris/driverlib/hibernate.c **** //! sheet for the Stellaris device that you are using to determine if this
 250:/home/cuil/workspace/arm/lm3s811/TI_Stellaris/driverlib/hibernate.c **** //! feature is available.
 251:/home/cuil/workspace/arm/lm3s811/TI_Stellaris/driverlib/hibernate.c **** //!
 252:/home/cuil/workspace/arm/lm3s811/TI_Stellaris/driverlib/hibernate.c **** //! \return None.
 253:/home/cuil/workspace/arm/lm3s811/TI_Stellaris/driverlib/hibernate.c **** //
 254:/home/cuil/workspace/arm/lm3s811/TI_Stellaris/driverlib/hibernate.c **** //*****************************************************************************
 255:/home/cuil/workspace/arm/lm3s811/TI_Stellaris/driverlib/hibernate.c **** void
 256:/home/cuil/workspace/arm/lm3s811/TI_Stellaris/driverlib/hibernate.c **** HibernateClockConfig(unsigned long ulConfig)
 257:/home/cuil/workspace/arm/lm3s811/TI_Stellaris/driverlib/hibernate.c **** {
 8972              		.loc 1 257 0
 8973              		.cfi_startproc
 8974              		@ args = 0, pretend = 0, frame = 16
 8975              		@ frame_needed = 1, uses_anonymous_args = 0
 8976 0000 80B5     		push	{r7, lr}
 8977              	.LCFI10:
 8978              		.cfi_def_cfa_offset 8
 8979 0002 84B0     		sub	sp, sp, #16
 8980              	.LCFI11:
 8981              		.cfi_def_cfa_offset 24
 8982 0004 00AF     		add	r7, sp, #0
 8983              		.cfi_offset 14, -4
 8984              		.cfi_offset 7, -8
 8985              	.LCFI12:
 8986              		.cfi_def_cfa_register 7
 8987 0006 7860     		str	r0, [r7, #4]
 258:/home/cuil/workspace/arm/lm3s811/TI_Stellaris/driverlib/hibernate.c ****     unsigned long ulHIBCtl;
 259:/home/cuil/workspace/arm/lm3s811/TI_Stellaris/driverlib/hibernate.c **** 
 260:/home/cuil/workspace/arm/lm3s811/TI_Stellaris/driverlib/hibernate.c ****     ASSERT((ulConfig & (HIBERNATE_OSC_HIGHDRIVE | HIBERNATE_OSC_LOWDRIVE |
 261:/home/cuil/workspace/arm/lm3s811/TI_Stellaris/driverlib/hibernate.c ****                         HIBERNATE_OSC_DISABLE)) == 0);
 262:/home/cuil/workspace/arm/lm3s811/TI_Stellaris/driverlib/hibernate.c **** 
 263:/home/cuil/workspace/arm/lm3s811/TI_Stellaris/driverlib/hibernate.c ****     ulHIBCtl = HWREG(HIB_CTL);
 8988              		.loc 1 263 0
 8989 0008 0B4B     		ldr	r3, .L20
 8990 000a 1B68     		ldr	r3, [r3, #0]
 8991 000c FB60     		str	r3, [r7, #12]
 264:/home/cuil/workspace/arm/lm3s811/TI_Stellaris/driverlib/hibernate.c **** 
 265:/home/cuil/workspace/arm/lm3s811/TI_Stellaris/driverlib/hibernate.c ****     //
 266:/home/cuil/workspace/arm/lm3s811/TI_Stellaris/driverlib/hibernate.c ****     // Clear the current configuration bits.
 267:/home/cuil/workspace/arm/lm3s811/TI_Stellaris/driverlib/hibernate.c ****     //
 268:/home/cuil/workspace/arm/lm3s811/TI_Stellaris/driverlib/hibernate.c ****     ulHIBCtl &= ~(HIBERNATE_OSC_HIGHDRIVE | HIBERNATE_OSC_LOWDRIVE |
 8992              		.loc 1 268 0
 8993 000e FB68     		ldr	r3, [r7, #12]
 8994 0010 23F4E023 		bic	r3, r3, #458752
 8995 0014 FB60     		str	r3, [r7, #12]
 269:/home/cuil/workspace/arm/lm3s811/TI_Stellaris/driverlib/hibernate.c ****                   HIBERNATE_OSC_DISABLE);
 270:/home/cuil/workspace/arm/lm3s811/TI_Stellaris/driverlib/hibernate.c **** 
 271:/home/cuil/workspace/arm/lm3s811/TI_Stellaris/driverlib/hibernate.c ****     //
 272:/home/cuil/workspace/arm/lm3s811/TI_Stellaris/driverlib/hibernate.c ****     // Set the new configuration bits.
 273:/home/cuil/workspace/arm/lm3s811/TI_Stellaris/driverlib/hibernate.c ****     //
 274:/home/cuil/workspace/arm/lm3s811/TI_Stellaris/driverlib/hibernate.c ****     ulHIBCtl |= ulConfig & (HIBERNATE_OSC_HIGHDRIVE | HIBERNATE_OSC_LOWDRIVE |
 8996              		.loc 1 274 0
 8997 0016 7B68     		ldr	r3, [r7, #4]
 8998 0018 03F4E023 		and	r3, r3, #458752
 8999 001c FA68     		ldr	r2, [r7, #12]
 9000 001e 42EA0303 		orr	r3, r2, r3
 9001 0022 FB60     		str	r3, [r7, #12]
 275:/home/cuil/workspace/arm/lm3s811/TI_Stellaris/driverlib/hibernate.c ****                             HIBERNATE_OSC_DISABLE);
 276:/home/cuil/workspace/arm/lm3s811/TI_Stellaris/driverlib/hibernate.c **** 
 277:/home/cuil/workspace/arm/lm3s811/TI_Stellaris/driverlib/hibernate.c ****     //
 278:/home/cuil/workspace/arm/lm3s811/TI_Stellaris/driverlib/hibernate.c ****     // Set the hibernation clocking configuration.
 279:/home/cuil/workspace/arm/lm3s811/TI_Stellaris/driverlib/hibernate.c ****     //
 280:/home/cuil/workspace/arm/lm3s811/TI_Stellaris/driverlib/hibernate.c ****     HWREG(HIB_CTL) = ulHIBCtl;
 9002              		.loc 1 280 0
 9003 0024 044B     		ldr	r3, .L20
 9004 0026 FA68     		ldr	r2, [r7, #12]
 9005 0028 1A60     		str	r2, [r3, #0]
 281:/home/cuil/workspace/arm/lm3s811/TI_Stellaris/driverlib/hibernate.c **** 
 282:/home/cuil/workspace/arm/lm3s811/TI_Stellaris/driverlib/hibernate.c ****     //
 283:/home/cuil/workspace/arm/lm3s811/TI_Stellaris/driverlib/hibernate.c ****     // Wait for write completion
 284:/home/cuil/workspace/arm/lm3s811/TI_Stellaris/driverlib/hibernate.c ****     //
 285:/home/cuil/workspace/arm/lm3s811/TI_Stellaris/driverlib/hibernate.c ****     HibernateWriteComplete();
 9006              		.loc 1 285 0
 9007 002a FFF7FEFF 		bl	HibernateWriteComplete
 286:/home/cuil/workspace/arm/lm3s811/TI_Stellaris/driverlib/hibernate.c **** }
 9008              		.loc 1 286 0
 9009 002e 07F11007 		add	r7, r7, #16
 9010 0032 BD46     		mov	sp, r7
 9011 0034 80BD     		pop	{r7, pc}
 9012              	.L21:
 9013 0036 00BF     		.align	2
 9014              	.L20:
 9015 0038 10C00F40 		.word	1074774032
 9016              		.cfi_endproc
 9017              	.LFE4:
 9019              		.section	.text.HibernateRTCEnable,"ax",%progbits
 9020              		.align	2
 9021              		.global	HibernateRTCEnable
 9022              		.thumb
 9023              		.thumb_func
 9025              	HibernateRTCEnable:
 9026              	.LFB5:
 287:/home/cuil/workspace/arm/lm3s811/TI_Stellaris/driverlib/hibernate.c **** 
 288:/home/cuil/workspace/arm/lm3s811/TI_Stellaris/driverlib/hibernate.c **** //*****************************************************************************
 289:/home/cuil/workspace/arm/lm3s811/TI_Stellaris/driverlib/hibernate.c **** //
 290:/home/cuil/workspace/arm/lm3s811/TI_Stellaris/driverlib/hibernate.c **** //! Enables the RTC feature of the Hibernation module.
 291:/home/cuil/workspace/arm/lm3s811/TI_Stellaris/driverlib/hibernate.c **** //!
 292:/home/cuil/workspace/arm/lm3s811/TI_Stellaris/driverlib/hibernate.c **** //! This function enables the RTC in the Hibernation module.  The RTC can be 
 293:/home/cuil/workspace/arm/lm3s811/TI_Stellaris/driverlib/hibernate.c **** //! used to wake the processor from hibernation at a certain time, or to 
 294:/home/cuil/workspace/arm/lm3s811/TI_Stellaris/driverlib/hibernate.c **** //! generate interrupts at certain times.  This function must be called before 
 295:/home/cuil/workspace/arm/lm3s811/TI_Stellaris/driverlib/hibernate.c **** //! using any of the RTC features of the Hibernation module.
 296:/home/cuil/workspace/arm/lm3s811/TI_Stellaris/driverlib/hibernate.c **** //!
 297:/home/cuil/workspace/arm/lm3s811/TI_Stellaris/driverlib/hibernate.c **** //! \return None.
 298:/home/cuil/workspace/arm/lm3s811/TI_Stellaris/driverlib/hibernate.c **** //
 299:/home/cuil/workspace/arm/lm3s811/TI_Stellaris/driverlib/hibernate.c **** //*****************************************************************************
 300:/home/cuil/workspace/arm/lm3s811/TI_Stellaris/driverlib/hibernate.c **** void
 301:/home/cuil/workspace/arm/lm3s811/TI_Stellaris/driverlib/hibernate.c **** HibernateRTCEnable(void)
 302:/home/cuil/workspace/arm/lm3s811/TI_Stellaris/driverlib/hibernate.c **** {
 9027              		.loc 1 302 0
 9028              		.cfi_startproc
 9029              		@ args = 0, pretend = 0, frame = 0
 9030              		@ frame_needed = 1, uses_anonymous_args = 0
 9031 0000 80B5     		push	{r7, lr}
 9032              	.LCFI13:
 9033              		.cfi_def_cfa_offset 8
 9034 0002 00AF     		add	r7, sp, #0
 9035              		.cfi_offset 14, -4
 9036              		.cfi_offset 7, -8
 9037              	.LCFI14:
 9038              		.cfi_def_cfa_register 7
 303:/home/cuil/workspace/arm/lm3s811/TI_Stellaris/driverlib/hibernate.c ****     //
 304:/home/cuil/workspace/arm/lm3s811/TI_Stellaris/driverlib/hibernate.c ****     // Turn on the RTC enable bit.
 305:/home/cuil/workspace/arm/lm3s811/TI_Stellaris/driverlib/hibernate.c ****     //
 306:/home/cuil/workspace/arm/lm3s811/TI_Stellaris/driverlib/hibernate.c ****     HWREG(HIB_CTL) |= HIB_CTL_RTCEN;
 9039              		.loc 1 306 0
 9040 0004 044B     		ldr	r3, .L23
 9041 0006 044A     		ldr	r2, .L23
 9042 0008 1268     		ldr	r2, [r2, #0]
 9043 000a 42F00102 		orr	r2, r2, #1
 9044 000e 1A60     		str	r2, [r3, #0]
 307:/home/cuil/workspace/arm/lm3s811/TI_Stellaris/driverlib/hibernate.c **** 
 308:/home/cuil/workspace/arm/lm3s811/TI_Stellaris/driverlib/hibernate.c ****     //
 309:/home/cuil/workspace/arm/lm3s811/TI_Stellaris/driverlib/hibernate.c ****     // Wait for write completion
 310:/home/cuil/workspace/arm/lm3s811/TI_Stellaris/driverlib/hibernate.c ****     //
 311:/home/cuil/workspace/arm/lm3s811/TI_Stellaris/driverlib/hibernate.c ****     HibernateWriteComplete();
 9045              		.loc 1 311 0
 9046 0010 FFF7FEFF 		bl	HibernateWriteComplete
 312:/home/cuil/workspace/arm/lm3s811/TI_Stellaris/driverlib/hibernate.c **** }
 9047              		.loc 1 312 0
 9048 0014 80BD     		pop	{r7, pc}
 9049              	.L24:
 9050 0016 00BF     		.align	2
 9051              	.L23:
 9052 0018 10C00F40 		.word	1074774032
 9053              		.cfi_endproc
 9054              	.LFE5:
 9056              		.section	.text.HibernateRTCDisable,"ax",%progbits
 9057              		.align	2
 9058              		.global	HibernateRTCDisable
 9059              		.thumb
 9060              		.thumb_func
 9062              	HibernateRTCDisable:
 9063              	.LFB6:
 313:/home/cuil/workspace/arm/lm3s811/TI_Stellaris/driverlib/hibernate.c **** 
 314:/home/cuil/workspace/arm/lm3s811/TI_Stellaris/driverlib/hibernate.c **** //*****************************************************************************
 315:/home/cuil/workspace/arm/lm3s811/TI_Stellaris/driverlib/hibernate.c **** //
 316:/home/cuil/workspace/arm/lm3s811/TI_Stellaris/driverlib/hibernate.c **** //! Disables the RTC feature of the Hibernation module.
 317:/home/cuil/workspace/arm/lm3s811/TI_Stellaris/driverlib/hibernate.c **** //!
 318:/home/cuil/workspace/arm/lm3s811/TI_Stellaris/driverlib/hibernate.c **** //! This function disables the RTC in the Hibernation module.  After calling
 319:/home/cuil/workspace/arm/lm3s811/TI_Stellaris/driverlib/hibernate.c **** //! this function, the RTC features of the Hibernation module are not 
 320:/home/cuil/workspace/arm/lm3s811/TI_Stellaris/driverlib/hibernate.c **** //! available.
 321:/home/cuil/workspace/arm/lm3s811/TI_Stellaris/driverlib/hibernate.c **** //!
 322:/home/cuil/workspace/arm/lm3s811/TI_Stellaris/driverlib/hibernate.c **** //! \return None.
 323:/home/cuil/workspace/arm/lm3s811/TI_Stellaris/driverlib/hibernate.c **** //
 324:/home/cuil/workspace/arm/lm3s811/TI_Stellaris/driverlib/hibernate.c **** //*****************************************************************************
 325:/home/cuil/workspace/arm/lm3s811/TI_Stellaris/driverlib/hibernate.c **** void
 326:/home/cuil/workspace/arm/lm3s811/TI_Stellaris/driverlib/hibernate.c **** HibernateRTCDisable(void)
 327:/home/cuil/workspace/arm/lm3s811/TI_Stellaris/driverlib/hibernate.c **** {
 9064              		.loc 1 327 0
 9065              		.cfi_startproc
 9066              		@ args = 0, pretend = 0, frame = 0
 9067              		@ frame_needed = 1, uses_anonymous_args = 0
 9068 0000 80B5     		push	{r7, lr}
 9069              	.LCFI15:
 9070              		.cfi_def_cfa_offset 8
 9071 0002 00AF     		add	r7, sp, #0
 9072              		.cfi_offset 14, -4
 9073              		.cfi_offset 7, -8
 9074              	.LCFI16:
 9075              		.cfi_def_cfa_register 7
 328:/home/cuil/workspace/arm/lm3s811/TI_Stellaris/driverlib/hibernate.c ****     //
 329:/home/cuil/workspace/arm/lm3s811/TI_Stellaris/driverlib/hibernate.c ****     // Turn off the RTC enable bit.
 330:/home/cuil/workspace/arm/lm3s811/TI_Stellaris/driverlib/hibernate.c ****     //
 331:/home/cuil/workspace/arm/lm3s811/TI_Stellaris/driverlib/hibernate.c ****     HWREG(HIB_CTL) &= ~HIB_CTL_RTCEN;
 9076              		.loc 1 331 0
 9077 0004 044B     		ldr	r3, .L26
 9078 0006 044A     		ldr	r2, .L26
 9079 0008 1268     		ldr	r2, [r2, #0]
 9080 000a 22F00102 		bic	r2, r2, #1
 9081 000e 1A60     		str	r2, [r3, #0]
 332:/home/cuil/workspace/arm/lm3s811/TI_Stellaris/driverlib/hibernate.c **** 
 333:/home/cuil/workspace/arm/lm3s811/TI_Stellaris/driverlib/hibernate.c ****     //
 334:/home/cuil/workspace/arm/lm3s811/TI_Stellaris/driverlib/hibernate.c ****     // Wait for write completion
 335:/home/cuil/workspace/arm/lm3s811/TI_Stellaris/driverlib/hibernate.c ****     //
 336:/home/cuil/workspace/arm/lm3s811/TI_Stellaris/driverlib/hibernate.c ****     HibernateWriteComplete();
 9082              		.loc 1 336 0
 9083 0010 FFF7FEFF 		bl	HibernateWriteComplete
 337:/home/cuil/workspace/arm/lm3s811/TI_Stellaris/driverlib/hibernate.c **** }
 9084              		.loc 1 337 0
 9085 0014 80BD     		pop	{r7, pc}
 9086              	.L27:
 9087 0016 00BF     		.align	2
 9088              	.L26:
 9089 0018 10C00F40 		.word	1074774032
 9090              		.cfi_endproc
 9091              	.LFE6:
 9093              		.section	.text.HibernateBatCheckStart,"ax",%progbits
 9094              		.align	2
 9095              		.global	HibernateBatCheckStart
 9096              		.thumb
 9097              		.thumb_func
 9099              	HibernateBatCheckStart:
 9100              	.LFB7:
 338:/home/cuil/workspace/arm/lm3s811/TI_Stellaris/driverlib/hibernate.c **** 
 339:/home/cuil/workspace/arm/lm3s811/TI_Stellaris/driverlib/hibernate.c **** //*****************************************************************************
 340:/home/cuil/workspace/arm/lm3s811/TI_Stellaris/driverlib/hibernate.c **** //
 341:/home/cuil/workspace/arm/lm3s811/TI_Stellaris/driverlib/hibernate.c **** //! Forces the Hibernation module to initiate a check of the battery voltage.
 342:/home/cuil/workspace/arm/lm3s811/TI_Stellaris/driverlib/hibernate.c **** //!
 343:/home/cuil/workspace/arm/lm3s811/TI_Stellaris/driverlib/hibernate.c **** //! This function forces the Hibernation module to initiate a check of the
 344:/home/cuil/workspace/arm/lm3s811/TI_Stellaris/driverlib/hibernate.c **** //! battery voltage immediately rather than waiting for the next check interval
 345:/home/cuil/workspace/arm/lm3s811/TI_Stellaris/driverlib/hibernate.c **** //! to pass.  After calling this function, the application should call the
 346:/home/cuil/workspace/arm/lm3s811/TI_Stellaris/driverlib/hibernate.c **** //! () function and wait for the function to return a zero
 347:/home/cuil/workspace/arm/lm3s811/TI_Stellaris/driverlib/hibernate.c **** //! value before calling the HibernateIntStatus() to check if the return code
 348:/home/cuil/workspace/arm/lm3s811/TI_Stellaris/driverlib/hibernate.c **** //! has the \b HIBERNATE_INT_LOW_BAT set.  If \b HIBERNATE_INT_LOW_BAT is set
 349:/home/cuil/workspace/arm/lm3s811/TI_Stellaris/driverlib/hibernate.c **** //! this indicates that battery level is low.  The application can also enable
 350:/home/cuil/workspace/arm/lm3s811/TI_Stellaris/driverlib/hibernate.c **** //! the \b HIBERNATE_INT_LOW_BAT interrupt and wait for an interrupt to
 351:/home/cuil/workspace/arm/lm3s811/TI_Stellaris/driverlib/hibernate.c **** //! indicate that the battery level is low.
 352:/home/cuil/workspace/arm/lm3s811/TI_Stellaris/driverlib/hibernate.c **** //!
 353:/home/cuil/workspace/arm/lm3s811/TI_Stellaris/driverlib/hibernate.c **** //! \note A hibernation request is held off if a battery check is in progress.
 354:/home/cuil/workspace/arm/lm3s811/TI_Stellaris/driverlib/hibernate.c **** //! This function is only available on some Stellaris devices.
 355:/home/cuil/workspace/arm/lm3s811/TI_Stellaris/driverlib/hibernate.c **** //!
 356:/home/cuil/workspace/arm/lm3s811/TI_Stellaris/driverlib/hibernate.c **** //! \return None.
 357:/home/cuil/workspace/arm/lm3s811/TI_Stellaris/driverlib/hibernate.c **** //
 358:/home/cuil/workspace/arm/lm3s811/TI_Stellaris/driverlib/hibernate.c **** //*****************************************************************************
 359:/home/cuil/workspace/arm/lm3s811/TI_Stellaris/driverlib/hibernate.c **** void
 360:/home/cuil/workspace/arm/lm3s811/TI_Stellaris/driverlib/hibernate.c **** HibernateBatCheckStart(void)
 361:/home/cuil/workspace/arm/lm3s811/TI_Stellaris/driverlib/hibernate.c **** {
 9101              		.loc 1 361 0
 9102              		.cfi_startproc
 9103              		@ args = 0, pretend = 0, frame = 0
 9104              		@ frame_needed = 1, uses_anonymous_args = 0
 9105 0000 80B5     		push	{r7, lr}
 9106              	.LCFI17:
 9107              		.cfi_def_cfa_offset 8
 9108 0002 00AF     		add	r7, sp, #0
 9109              		.cfi_offset 14, -4
 9110              		.cfi_offset 7, -8
 9111              	.LCFI18:
 9112              		.cfi_def_cfa_register 7
 362:/home/cuil/workspace/arm/lm3s811/TI_Stellaris/driverlib/hibernate.c ****     //
 363:/home/cuil/workspace/arm/lm3s811/TI_Stellaris/driverlib/hibernate.c ****     // Initiated a forced battery check.
 364:/home/cuil/workspace/arm/lm3s811/TI_Stellaris/driverlib/hibernate.c ****     //
 365:/home/cuil/workspace/arm/lm3s811/TI_Stellaris/driverlib/hibernate.c ****     HWREG(HIB_CTL) |= HIB_CTL_BATCHK;
 9113              		.loc 1 365 0
 9114 0004 044B     		ldr	r3, .L29
 9115 0006 044A     		ldr	r2, .L29
 9116 0008 1268     		ldr	r2, [r2, #0]
 9117 000a 42F48062 		orr	r2, r2, #1024
 9118 000e 1A60     		str	r2, [r3, #0]
 366:/home/cuil/workspace/arm/lm3s811/TI_Stellaris/driverlib/hibernate.c **** 
 367:/home/cuil/workspace/arm/lm3s811/TI_Stellaris/driverlib/hibernate.c ****     //
 368:/home/cuil/workspace/arm/lm3s811/TI_Stellaris/driverlib/hibernate.c ****     // Wait for write completion
 369:/home/cuil/workspace/arm/lm3s811/TI_Stellaris/driverlib/hibernate.c ****     //
 370:/home/cuil/workspace/arm/lm3s811/TI_Stellaris/driverlib/hibernate.c ****     HibernateWriteComplete();
 9119              		.loc 1 370 0
 9120 0010 FFF7FEFF 		bl	HibernateWriteComplete
 371:/home/cuil/workspace/arm/lm3s811/TI_Stellaris/driverlib/hibernate.c **** }
 9121              		.loc 1 371 0
 9122 0014 80BD     		pop	{r7, pc}
 9123              	.L30:
 9124 0016 00BF     		.align	2
 9125              	.L29:
 9126 0018 10C00F40 		.word	1074774032
 9127              		.cfi_endproc
 9128              	.LFE7:
 9130              		.section	.text.HibernateBatCheckDone,"ax",%progbits
 9131              		.align	2
 9132              		.global	HibernateBatCheckDone
 9133              		.thumb
 9134              		.thumb_func
 9136              	HibernateBatCheckDone:
 9137              	.LFB8:
 372:/home/cuil/workspace/arm/lm3s811/TI_Stellaris/driverlib/hibernate.c **** 
 373:/home/cuil/workspace/arm/lm3s811/TI_Stellaris/driverlib/hibernate.c **** //*****************************************************************************
 374:/home/cuil/workspace/arm/lm3s811/TI_Stellaris/driverlib/hibernate.c **** //
 375:/home/cuil/workspace/arm/lm3s811/TI_Stellaris/driverlib/hibernate.c **** //! Returns if a forced battery check has completed.
 376:/home/cuil/workspace/arm/lm3s811/TI_Stellaris/driverlib/hibernate.c **** //!
 377:/home/cuil/workspace/arm/lm3s811/TI_Stellaris/driverlib/hibernate.c **** //! This function returns if the forced battery check initiated by a call to
 378:/home/cuil/workspace/arm/lm3s811/TI_Stellaris/driverlib/hibernate.c **** //! the HibernateBatCheckStart() function has completed.  This function 
 379:/home/cuil/workspace/arm/lm3s811/TI_Stellaris/driverlib/hibernate.c **** //! returns a non-zero value until the battery level check has completed.  Once
 380:/home/cuil/workspace/arm/lm3s811/TI_Stellaris/driverlib/hibernate.c **** //! this function returns a value of zero, the hibernation module has completed
 381:/home/cuil/workspace/arm/lm3s811/TI_Stellaris/driverlib/hibernate.c **** //! the battery check and the HibernateIntStatus() function can be used to
 382:/home/cuil/workspace/arm/lm3s811/TI_Stellaris/driverlib/hibernate.c **** //! check if the battery was low by checking if the value returned has the
 383:/home/cuil/workspace/arm/lm3s811/TI_Stellaris/driverlib/hibernate.c **** //! \b HIBERNATE_INT_LOW_BAT set.
 384:/home/cuil/workspace/arm/lm3s811/TI_Stellaris/driverlib/hibernate.c **** //!
 385:/home/cuil/workspace/arm/lm3s811/TI_Stellaris/driverlib/hibernate.c **** //! \note This function is only available on some Stellaris devices.
 386:/home/cuil/workspace/arm/lm3s811/TI_Stellaris/driverlib/hibernate.c **** //!
 387:/home/cuil/workspace/arm/lm3s811/TI_Stellaris/driverlib/hibernate.c **** //! \return The value is zero when the battery level check has completed or
 388:/home/cuil/workspace/arm/lm3s811/TI_Stellaris/driverlib/hibernate.c **** //! non-zero if the check is still in process.  
 389:/home/cuil/workspace/arm/lm3s811/TI_Stellaris/driverlib/hibernate.c **** //
 390:/home/cuil/workspace/arm/lm3s811/TI_Stellaris/driverlib/hibernate.c **** //*****************************************************************************
 391:/home/cuil/workspace/arm/lm3s811/TI_Stellaris/driverlib/hibernate.c **** unsigned long
 392:/home/cuil/workspace/arm/lm3s811/TI_Stellaris/driverlib/hibernate.c **** HibernateBatCheckDone(void)
 393:/home/cuil/workspace/arm/lm3s811/TI_Stellaris/driverlib/hibernate.c **** {
 9138              		.loc 1 393 0
 9139              		.cfi_startproc
 9140              		@ args = 0, pretend = 0, frame = 0
 9141              		@ frame_needed = 1, uses_anonymous_args = 0
 9142              		@ link register save eliminated.
 9143 0000 80B4     		push	{r7}
 9144              	.LCFI19:
 9145              		.cfi_def_cfa_offset 4
 9146 0002 00AF     		add	r7, sp, #0
 9147              		.cfi_offset 7, -4
 9148              	.LCFI20:
 9149              		.cfi_def_cfa_register 7
 394:/home/cuil/workspace/arm/lm3s811/TI_Stellaris/driverlib/hibernate.c ****     //
 395:/home/cuil/workspace/arm/lm3s811/TI_Stellaris/driverlib/hibernate.c ****     // Read the current state of the batter check.
 396:/home/cuil/workspace/arm/lm3s811/TI_Stellaris/driverlib/hibernate.c ****     //
 397:/home/cuil/workspace/arm/lm3s811/TI_Stellaris/driverlib/hibernate.c ****     return(HWREG(HIB_CTL) & HIB_CTL_BATCHK);
 9150              		.loc 1 397 0
 9151 0004 034B     		ldr	r3, .L32
 9152 0006 1B68     		ldr	r3, [r3, #0]
 9153 0008 03F48063 		and	r3, r3, #1024
 398:/home/cuil/workspace/arm/lm3s811/TI_Stellaris/driverlib/hibernate.c **** }
 9154              		.loc 1 398 0
 9155 000c 1846     		mov	r0, r3
 9156 000e BD46     		mov	sp, r7
 9157 0010 80BC     		pop	{r7}
 9158 0012 7047     		bx	lr
 9159              	.L33:
 9160              		.align	2
 9161              	.L32:
 9162 0014 10C00F40 		.word	1074774032
 9163              		.cfi_endproc
 9164              	.LFE8:
 9166              		.section	.text.HibernateWakeSet,"ax",%progbits
 9167              		.align	2
 9168              		.global	HibernateWakeSet
 9169              		.thumb
 9170              		.thumb_func
 9172              	HibernateWakeSet:
 9173              	.LFB9:
 399:/home/cuil/workspace/arm/lm3s811/TI_Stellaris/driverlib/hibernate.c **** 
 400:/home/cuil/workspace/arm/lm3s811/TI_Stellaris/driverlib/hibernate.c **** //*****************************************************************************
 401:/home/cuil/workspace/arm/lm3s811/TI_Stellaris/driverlib/hibernate.c **** //
 402:/home/cuil/workspace/arm/lm3s811/TI_Stellaris/driverlib/hibernate.c **** //! Configures the wake conditions for the Hibernation module.
 403:/home/cuil/workspace/arm/lm3s811/TI_Stellaris/driverlib/hibernate.c **** //!
 404:/home/cuil/workspace/arm/lm3s811/TI_Stellaris/driverlib/hibernate.c **** //! \param ulWakeFlags specifies which conditions should be used for waking.
 405:/home/cuil/workspace/arm/lm3s811/TI_Stellaris/driverlib/hibernate.c **** //!
 406:/home/cuil/workspace/arm/lm3s811/TI_Stellaris/driverlib/hibernate.c **** //! This function enables the conditions under which the Hibernation module 
 407:/home/cuil/workspace/arm/lm3s811/TI_Stellaris/driverlib/hibernate.c **** //! wakes.  The \e ulWakeFlags parameter is the logical OR of any combination 
 408:/home/cuil/workspace/arm/lm3s811/TI_Stellaris/driverlib/hibernate.c **** //! of the following:
 409:/home/cuil/workspace/arm/lm3s811/TI_Stellaris/driverlib/hibernate.c **** //!
 410:/home/cuil/workspace/arm/lm3s811/TI_Stellaris/driverlib/hibernate.c **** //! - \b HIBERNATE_WAKE_PIN - wake when the external wake pin is asserted.
 411:/home/cuil/workspace/arm/lm3s811/TI_Stellaris/driverlib/hibernate.c **** //! - \b HIBERNATE_WAKE_RTC - wake when one of the RTC matches occurs.
 412:/home/cuil/workspace/arm/lm3s811/TI_Stellaris/driverlib/hibernate.c **** //! - \b HIBERNATE_WAKE_LOW_BAT - wake from hibernate due to a low battery
 413:/home/cuil/workspace/arm/lm3s811/TI_Stellaris/driverlib/hibernate.c **** //! level being detected.
 414:/home/cuil/workspace/arm/lm3s811/TI_Stellaris/driverlib/hibernate.c **** //!
 415:/home/cuil/workspace/arm/lm3s811/TI_Stellaris/driverlib/hibernate.c **** //! \note The \b HIBERNATE_WAKE_LOW_BAT parameter is only available on some
 416:/home/cuil/workspace/arm/lm3s811/TI_Stellaris/driverlib/hibernate.c **** //! Stellaris devices.
 417:/home/cuil/workspace/arm/lm3s811/TI_Stellaris/driverlib/hibernate.c **** //!
 418:/home/cuil/workspace/arm/lm3s811/TI_Stellaris/driverlib/hibernate.c **** //! \return None.
 419:/home/cuil/workspace/arm/lm3s811/TI_Stellaris/driverlib/hibernate.c **** //
 420:/home/cuil/workspace/arm/lm3s811/TI_Stellaris/driverlib/hibernate.c **** //*****************************************************************************
 421:/home/cuil/workspace/arm/lm3s811/TI_Stellaris/driverlib/hibernate.c **** void
 422:/home/cuil/workspace/arm/lm3s811/TI_Stellaris/driverlib/hibernate.c **** HibernateWakeSet(unsigned long ulWakeFlags)
 423:/home/cuil/workspace/arm/lm3s811/TI_Stellaris/driverlib/hibernate.c **** {
 9174              		.loc 1 423 0
 9175              		.cfi_startproc
 9176              		@ args = 0, pretend = 0, frame = 8
 9177              		@ frame_needed = 1, uses_anonymous_args = 0
 9178 0000 80B5     		push	{r7, lr}
 9179              	.LCFI21:
 9180              		.cfi_def_cfa_offset 8
 9181 0002 82B0     		sub	sp, sp, #8
 9182              	.LCFI22:
 9183              		.cfi_def_cfa_offset 16
 9184 0004 00AF     		add	r7, sp, #0
 9185              		.cfi_offset 14, -4
 9186              		.cfi_offset 7, -8
 9187              	.LCFI23:
 9188              		.cfi_def_cfa_register 7
 9189 0006 7860     		str	r0, [r7, #4]
 424:/home/cuil/workspace/arm/lm3s811/TI_Stellaris/driverlib/hibernate.c ****     //
 425:/home/cuil/workspace/arm/lm3s811/TI_Stellaris/driverlib/hibernate.c ****     // Check the arguments.
 426:/home/cuil/workspace/arm/lm3s811/TI_Stellaris/driverlib/hibernate.c ****     //
 427:/home/cuil/workspace/arm/lm3s811/TI_Stellaris/driverlib/hibernate.c ****     ASSERT(!(ulWakeFlags & ~(HIBERNATE_WAKE_PIN | HIBERNATE_WAKE_RTC |
 428:/home/cuil/workspace/arm/lm3s811/TI_Stellaris/driverlib/hibernate.c ****                             HIBERNATE_WAKE_LOW_BAT)));
 429:/home/cuil/workspace/arm/lm3s811/TI_Stellaris/driverlib/hibernate.c **** 
 430:/home/cuil/workspace/arm/lm3s811/TI_Stellaris/driverlib/hibernate.c ****     //
 431:/home/cuil/workspace/arm/lm3s811/TI_Stellaris/driverlib/hibernate.c ****     // Set the specified wake flags in the control register.
 432:/home/cuil/workspace/arm/lm3s811/TI_Stellaris/driverlib/hibernate.c ****     //
 433:/home/cuil/workspace/arm/lm3s811/TI_Stellaris/driverlib/hibernate.c ****     HWREG(HIB_CTL) = (ulWakeFlags |
 9190              		.loc 1 433 0
 9191 0008 074B     		ldr	r3, .L35
 434:/home/cuil/workspace/arm/lm3s811/TI_Stellaris/driverlib/hibernate.c ****                       (HWREG(HIB_CTL) & ~(HIBERNATE_WAKE_PIN
 9192              		.loc 1 434 0
 9193 000a 074A     		ldr	r2, .L35
 9194 000c 1268     		ldr	r2, [r2, #0]
 9195 000e 22F40671 		bic	r1, r2, #536
 433:/home/cuil/workspace/arm/lm3s811/TI_Stellaris/driverlib/hibernate.c ****     HWREG(HIB_CTL) = (ulWakeFlags |
 9196              		.loc 1 433 0
 9197 0012 7A68     		ldr	r2, [r7, #4]
 9198 0014 41EA0202 		orr	r2, r1, r2
 9199 0018 1A60     		str	r2, [r3, #0]
 435:/home/cuil/workspace/arm/lm3s811/TI_Stellaris/driverlib/hibernate.c ****                                           | HIBERNATE_WAKE_RTC |
 436:/home/cuil/workspace/arm/lm3s811/TI_Stellaris/driverlib/hibernate.c ****                                           HIBERNATE_WAKE_LOW_BAT)));
 437:/home/cuil/workspace/arm/lm3s811/TI_Stellaris/driverlib/hibernate.c **** 
 438:/home/cuil/workspace/arm/lm3s811/TI_Stellaris/driverlib/hibernate.c ****     //
 439:/home/cuil/workspace/arm/lm3s811/TI_Stellaris/driverlib/hibernate.c ****     // Wait for write completion
 440:/home/cuil/workspace/arm/lm3s811/TI_Stellaris/driverlib/hibernate.c ****     //
 441:/home/cuil/workspace/arm/lm3s811/TI_Stellaris/driverlib/hibernate.c ****     HibernateWriteComplete();
 9200              		.loc 1 441 0
 9201 001a FFF7FEFF 		bl	HibernateWriteComplete
 442:/home/cuil/workspace/arm/lm3s811/TI_Stellaris/driverlib/hibernate.c **** }
 9202              		.loc 1 442 0
 9203 001e 07F10807 		add	r7, r7, #8
 9204 0022 BD46     		mov	sp, r7
 9205 0024 80BD     		pop	{r7, pc}
 9206              	.L36:
 9207 0026 00BF     		.align	2
 9208              	.L35:
 9209 0028 10C00F40 		.word	1074774032
 9210              		.cfi_endproc
 9211              	.LFE9:
 9213              		.section	.text.HibernateWakeGet,"ax",%progbits
 9214              		.align	2
 9215              		.global	HibernateWakeGet
 9216              		.thumb
 9217              		.thumb_func
 9219              	HibernateWakeGet:
 9220              	.LFB10:
 443:/home/cuil/workspace/arm/lm3s811/TI_Stellaris/driverlib/hibernate.c **** 
 444:/home/cuil/workspace/arm/lm3s811/TI_Stellaris/driverlib/hibernate.c **** //*****************************************************************************
 445:/home/cuil/workspace/arm/lm3s811/TI_Stellaris/driverlib/hibernate.c **** //
 446:/home/cuil/workspace/arm/lm3s811/TI_Stellaris/driverlib/hibernate.c **** //! Gets the currently configured wake conditions for the Hibernation module.
 447:/home/cuil/workspace/arm/lm3s811/TI_Stellaris/driverlib/hibernate.c **** //!
 448:/home/cuil/workspace/arm/lm3s811/TI_Stellaris/driverlib/hibernate.c **** //! This function returns the flags representing the wake configuration for the
 449:/home/cuil/workspace/arm/lm3s811/TI_Stellaris/driverlib/hibernate.c **** //! Hibernation module.  The return value is a combination of the following
 450:/home/cuil/workspace/arm/lm3s811/TI_Stellaris/driverlib/hibernate.c **** //! flags:
 451:/home/cuil/workspace/arm/lm3s811/TI_Stellaris/driverlib/hibernate.c **** //!
 452:/home/cuil/workspace/arm/lm3s811/TI_Stellaris/driverlib/hibernate.c **** //! - \b HIBERNATE_WAKE_PIN - wake when the external wake pin is asserted.
 453:/home/cuil/workspace/arm/lm3s811/TI_Stellaris/driverlib/hibernate.c **** //! - \b HIBERNATE_WAKE_RTC - wake when one of the RTC matches occurs.
 454:/home/cuil/workspace/arm/lm3s811/TI_Stellaris/driverlib/hibernate.c **** //! - \b HIBERNATE_WAKE_LOW_BAT - wake from hibernate due to a low battery
 455:/home/cuil/workspace/arm/lm3s811/TI_Stellaris/driverlib/hibernate.c **** //! level being detected.
 456:/home/cuil/workspace/arm/lm3s811/TI_Stellaris/driverlib/hibernate.c **** //!
 457:/home/cuil/workspace/arm/lm3s811/TI_Stellaris/driverlib/hibernate.c **** //! \note The \b HIBERNATE_WAKE_LOW_BAT parameter is only available on some
 458:/home/cuil/workspace/arm/lm3s811/TI_Stellaris/driverlib/hibernate.c **** //! Stellaris devices.
 459:/home/cuil/workspace/arm/lm3s811/TI_Stellaris/driverlib/hibernate.c **** //!
 460:/home/cuil/workspace/arm/lm3s811/TI_Stellaris/driverlib/hibernate.c **** //! \return Returns flags indicating the configured wake conditions.
 461:/home/cuil/workspace/arm/lm3s811/TI_Stellaris/driverlib/hibernate.c **** //
 462:/home/cuil/workspace/arm/lm3s811/TI_Stellaris/driverlib/hibernate.c **** //*****************************************************************************
 463:/home/cuil/workspace/arm/lm3s811/TI_Stellaris/driverlib/hibernate.c **** unsigned long
 464:/home/cuil/workspace/arm/lm3s811/TI_Stellaris/driverlib/hibernate.c **** HibernateWakeGet(void)
 465:/home/cuil/workspace/arm/lm3s811/TI_Stellaris/driverlib/hibernate.c **** {
 9221              		.loc 1 465 0
 9222              		.cfi_startproc
 9223              		@ args = 0, pretend = 0, frame = 0
 9224              		@ frame_needed = 1, uses_anonymous_args = 0
 9225              		@ link register save eliminated.
 9226 0000 80B4     		push	{r7}
 9227              	.LCFI24:
 9228              		.cfi_def_cfa_offset 4
 9229 0002 00AF     		add	r7, sp, #0
 9230              		.cfi_offset 7, -4
 9231              	.LCFI25:
 9232              		.cfi_def_cfa_register 7
 466:/home/cuil/workspace/arm/lm3s811/TI_Stellaris/driverlib/hibernate.c ****     //
 467:/home/cuil/workspace/arm/lm3s811/TI_Stellaris/driverlib/hibernate.c ****     // Read the wake bits from the control register and return
 468:/home/cuil/workspace/arm/lm3s811/TI_Stellaris/driverlib/hibernate.c ****     // those bits to the caller.
 469:/home/cuil/workspace/arm/lm3s811/TI_Stellaris/driverlib/hibernate.c ****     //
 470:/home/cuil/workspace/arm/lm3s811/TI_Stellaris/driverlib/hibernate.c ****     return(HWREG(HIB_CTL) & (HIBERNATE_WAKE_PIN | HIBERNATE_WAKE_RTC
 9233              		.loc 1 470 0
 9234 0004 034B     		ldr	r3, .L38
 9235 0006 1B68     		ldr	r3, [r3, #0]
 9236 0008 03F40673 		and	r3, r3, #536
 471:/home/cuil/workspace/arm/lm3s811/TI_Stellaris/driverlib/hibernate.c ****                              | HIBERNATE_WAKE_LOW_BAT));
 472:/home/cuil/workspace/arm/lm3s811/TI_Stellaris/driverlib/hibernate.c **** }
 9237              		.loc 1 472 0
 9238 000c 1846     		mov	r0, r3
 9239 000e BD46     		mov	sp, r7
 9240 0010 80BC     		pop	{r7}
 9241 0012 7047     		bx	lr
 9242              	.L39:
 9243              		.align	2
 9244              	.L38:
 9245 0014 10C00F40 		.word	1074774032
 9246              		.cfi_endproc
 9247              	.LFE10:
 9249              		.section	.text.HibernateLowBatSet,"ax",%progbits
 9250              		.align	2
 9251              		.global	HibernateLowBatSet
 9252              		.thumb
 9253              		.thumb_func
 9255              	HibernateLowBatSet:
 9256              	.LFB11:
 473:/home/cuil/workspace/arm/lm3s811/TI_Stellaris/driverlib/hibernate.c **** 
 474:/home/cuil/workspace/arm/lm3s811/TI_Stellaris/driverlib/hibernate.c **** //*****************************************************************************
 475:/home/cuil/workspace/arm/lm3s811/TI_Stellaris/driverlib/hibernate.c **** //
 476:/home/cuil/workspace/arm/lm3s811/TI_Stellaris/driverlib/hibernate.c **** //! Configures the low battery detection.
 477:/home/cuil/workspace/arm/lm3s811/TI_Stellaris/driverlib/hibernate.c **** //!
 478:/home/cuil/workspace/arm/lm3s811/TI_Stellaris/driverlib/hibernate.c **** //! \param ulLowBatFlags specifies behavior of low battery detection.
 479:/home/cuil/workspace/arm/lm3s811/TI_Stellaris/driverlib/hibernate.c **** //!
 480:/home/cuil/workspace/arm/lm3s811/TI_Stellaris/driverlib/hibernate.c **** //! This function enables the low battery detection and whether hibernation is 
 481:/home/cuil/workspace/arm/lm3s811/TI_Stellaris/driverlib/hibernate.c **** //! allowed if a low battery is detected.  If low battery detection is enabled, 
 482:/home/cuil/workspace/arm/lm3s811/TI_Stellaris/driverlib/hibernate.c **** //! then a low battery condition is indicated in the raw interrupt status 
 483:/home/cuil/workspace/arm/lm3s811/TI_Stellaris/driverlib/hibernate.c **** //! register, and can also trigger an interrupt.  Optionally, hibernation can be 
 484:/home/cuil/workspace/arm/lm3s811/TI_Stellaris/driverlib/hibernate.c **** //! aborted if a low battery is detected.
 485:/home/cuil/workspace/arm/lm3s811/TI_Stellaris/driverlib/hibernate.c **** //!
 486:/home/cuil/workspace/arm/lm3s811/TI_Stellaris/driverlib/hibernate.c **** //! The \e ulLowBatFlags parameter is one of the following values:
 487:/home/cuil/workspace/arm/lm3s811/TI_Stellaris/driverlib/hibernate.c **** //!
 488:/home/cuil/workspace/arm/lm3s811/TI_Stellaris/driverlib/hibernate.c **** //! - \b HIBERNATE_LOW_BAT_DETECT - detect a low battery condition.
 489:/home/cuil/workspace/arm/lm3s811/TI_Stellaris/driverlib/hibernate.c **** //! - \b HIBERNATE_LOW_BAT_ABORT - detect a low battery condition, and abort
 490:/home/cuil/workspace/arm/lm3s811/TI_Stellaris/driverlib/hibernate.c **** //!   hibernation if low battery is detected.
 491:/home/cuil/workspace/arm/lm3s811/TI_Stellaris/driverlib/hibernate.c **** //!
 492:/home/cuil/workspace/arm/lm3s811/TI_Stellaris/driverlib/hibernate.c **** //! The other setting in the \e ulLowBatFlags allows the caller to set one of
 493:/home/cuil/workspace/arm/lm3s811/TI_Stellaris/driverlib/hibernate.c **** //! the following voltage level trigger values :
 494:/home/cuil/workspace/arm/lm3s811/TI_Stellaris/driverlib/hibernate.c **** //!
 495:/home/cuil/workspace/arm/lm3s811/TI_Stellaris/driverlib/hibernate.c **** //! - \b HIBERNATE_LOW_BAT_1_9V - voltage low level is 1.9V
 496:/home/cuil/workspace/arm/lm3s811/TI_Stellaris/driverlib/hibernate.c **** //! - \b HIBERNATE_LOW_BAT_2_1V - voltage low level is 2.1V
 497:/home/cuil/workspace/arm/lm3s811/TI_Stellaris/driverlib/hibernate.c **** //! - \b HIBERNATE_LOW_BAT_2_3V - voltage low level is 2.3V
 498:/home/cuil/workspace/arm/lm3s811/TI_Stellaris/driverlib/hibernate.c **** //! - \b HIBERNATE_LOW_BAT_2_5V - voltage low level is 2.5V
 499:/home/cuil/workspace/arm/lm3s811/TI_Stellaris/driverlib/hibernate.c **** //!
 500:/home/cuil/workspace/arm/lm3s811/TI_Stellaris/driverlib/hibernate.c **** //! \b Example: Abort hibernate if the voltage level is below 2.1V.
 501:/home/cuil/workspace/arm/lm3s811/TI_Stellaris/driverlib/hibernate.c **** //!
 502:/home/cuil/workspace/arm/lm3s811/TI_Stellaris/driverlib/hibernate.c **** //! \verbatim
 503:/home/cuil/workspace/arm/lm3s811/TI_Stellaris/driverlib/hibernate.c **** //! HibernateLowBatSet(HIBERNATE_LOW_BAT_ABORT | HIBERNATE_LOW_BAT_2_1V);
 504:/home/cuil/workspace/arm/lm3s811/TI_Stellaris/driverlib/hibernate.c **** //! \endverbatim
 505:/home/cuil/workspace/arm/lm3s811/TI_Stellaris/driverlib/hibernate.c **** //!
 506:/home/cuil/workspace/arm/lm3s811/TI_Stellaris/driverlib/hibernate.c **** //! \note The parameters with the specific voltage levels are only available on 
 507:/home/cuil/workspace/arm/lm3s811/TI_Stellaris/driverlib/hibernate.c **** //! some Stellaris devices.
 508:/home/cuil/workspace/arm/lm3s811/TI_Stellaris/driverlib/hibernate.c **** //!
 509:/home/cuil/workspace/arm/lm3s811/TI_Stellaris/driverlib/hibernate.c **** //! \return None.
 510:/home/cuil/workspace/arm/lm3s811/TI_Stellaris/driverlib/hibernate.c **** //
 511:/home/cuil/workspace/arm/lm3s811/TI_Stellaris/driverlib/hibernate.c **** //*****************************************************************************
 512:/home/cuil/workspace/arm/lm3s811/TI_Stellaris/driverlib/hibernate.c **** void
 513:/home/cuil/workspace/arm/lm3s811/TI_Stellaris/driverlib/hibernate.c **** HibernateLowBatSet(unsigned long ulLowBatFlags)
 514:/home/cuil/workspace/arm/lm3s811/TI_Stellaris/driverlib/hibernate.c **** {
 9257              		.loc 1 514 0
 9258              		.cfi_startproc
 9259              		@ args = 0, pretend = 0, frame = 8
 9260              		@ frame_needed = 1, uses_anonymous_args = 0
 9261 0000 80B5     		push	{r7, lr}
 9262              	.LCFI26:
 9263              		.cfi_def_cfa_offset 8
 9264 0002 82B0     		sub	sp, sp, #8
 9265              	.LCFI27:
 9266              		.cfi_def_cfa_offset 16
 9267 0004 00AF     		add	r7, sp, #0
 9268              		.cfi_offset 14, -4
 9269              		.cfi_offset 7, -8
 9270              	.LCFI28:
 9271              		.cfi_def_cfa_register 7
 9272 0006 7860     		str	r0, [r7, #4]
 515:/home/cuil/workspace/arm/lm3s811/TI_Stellaris/driverlib/hibernate.c ****     //
 516:/home/cuil/workspace/arm/lm3s811/TI_Stellaris/driverlib/hibernate.c ****     // Check the arguments.
 517:/home/cuil/workspace/arm/lm3s811/TI_Stellaris/driverlib/hibernate.c ****     //
 518:/home/cuil/workspace/arm/lm3s811/TI_Stellaris/driverlib/hibernate.c ****     ASSERT(!(ulLowBatFlags & ~(HIB_CTL_VBATSEL_M | HIBERNATE_LOW_BAT_ABORT)));
 519:/home/cuil/workspace/arm/lm3s811/TI_Stellaris/driverlib/hibernate.c **** 
 520:/home/cuil/workspace/arm/lm3s811/TI_Stellaris/driverlib/hibernate.c ****     //
 521:/home/cuil/workspace/arm/lm3s811/TI_Stellaris/driverlib/hibernate.c ****     // Set the low battery detect and abort bits in the control register,
 522:/home/cuil/workspace/arm/lm3s811/TI_Stellaris/driverlib/hibernate.c ****     // according to the parameter.
 523:/home/cuil/workspace/arm/lm3s811/TI_Stellaris/driverlib/hibernate.c ****     //
 524:/home/cuil/workspace/arm/lm3s811/TI_Stellaris/driverlib/hibernate.c ****     HWREG(HIB_CTL) = (ulLowBatFlags |
 9273              		.loc 1 524 0
 9274 0008 074A     		ldr	r2, .L41
 525:/home/cuil/workspace/arm/lm3s811/TI_Stellaris/driverlib/hibernate.c ****                       (HWREG(HIB_CTL) & ~(HIB_CTL_VBATSEL_M
 9275              		.loc 1 525 0
 9276 000a 074B     		ldr	r3, .L41
 9277 000c 1B68     		ldr	r3, [r3, #0]
 9278 000e 23F4C043 		bic	r3, r3, #24576
 9279 0012 23F0A003 		bic	r3, r3, #160
 524:/home/cuil/workspace/arm/lm3s811/TI_Stellaris/driverlib/hibernate.c ****     HWREG(HIB_CTL) = (ulLowBatFlags |
 9280              		.loc 1 524 0
 9281 0016 7968     		ldr	r1, [r7, #4]
 9282 0018 0B43     		orrs	r3, r3, r1
 9283 001a 1360     		str	r3, [r2, #0]
 526:/home/cuil/workspace/arm/lm3s811/TI_Stellaris/driverlib/hibernate.c ****                                           | HIBERNATE_LOW_BAT_ABORT)));
 527:/home/cuil/workspace/arm/lm3s811/TI_Stellaris/driverlib/hibernate.c **** 
 528:/home/cuil/workspace/arm/lm3s811/TI_Stellaris/driverlib/hibernate.c ****     //
 529:/home/cuil/workspace/arm/lm3s811/TI_Stellaris/driverlib/hibernate.c ****     // Wait for write completion
 530:/home/cuil/workspace/arm/lm3s811/TI_Stellaris/driverlib/hibernate.c ****     //
 531:/home/cuil/workspace/arm/lm3s811/TI_Stellaris/driverlib/hibernate.c ****     HibernateWriteComplete();
 9284              		.loc 1 531 0
 9285 001c FFF7FEFF 		bl	HibernateWriteComplete
 532:/home/cuil/workspace/arm/lm3s811/TI_Stellaris/driverlib/hibernate.c **** }
 9286              		.loc 1 532 0
 9287 0020 07F10807 		add	r7, r7, #8
 9288 0024 BD46     		mov	sp, r7
 9289 0026 80BD     		pop	{r7, pc}
 9290              	.L42:
 9291              		.align	2
 9292              	.L41:
 9293 0028 10C00F40 		.word	1074774032
 9294              		.cfi_endproc
 9295              	.LFE11:
 9297              		.section	.text.HibernateLowBatGet,"ax",%progbits
 9298              		.align	2
 9299              		.global	HibernateLowBatGet
 9300              		.thumb
 9301              		.thumb_func
 9303              	HibernateLowBatGet:
 9304              	.LFB12:
 533:/home/cuil/workspace/arm/lm3s811/TI_Stellaris/driverlib/hibernate.c **** 
 534:/home/cuil/workspace/arm/lm3s811/TI_Stellaris/driverlib/hibernate.c **** //*****************************************************************************
 535:/home/cuil/workspace/arm/lm3s811/TI_Stellaris/driverlib/hibernate.c **** //
 536:/home/cuil/workspace/arm/lm3s811/TI_Stellaris/driverlib/hibernate.c **** //! Gets the currently configured low battery detection behavior.
 537:/home/cuil/workspace/arm/lm3s811/TI_Stellaris/driverlib/hibernate.c **** //!
 538:/home/cuil/workspace/arm/lm3s811/TI_Stellaris/driverlib/hibernate.c **** //! This function returns a value representing the currently configured low
 539:/home/cuil/workspace/arm/lm3s811/TI_Stellaris/driverlib/hibernate.c **** //! battery detection behavior.
 540:/home/cuil/workspace/arm/lm3s811/TI_Stellaris/driverlib/hibernate.c **** //!
 541:/home/cuil/workspace/arm/lm3s811/TI_Stellaris/driverlib/hibernate.c **** //! The return value is a combination of the values described in the
 542:/home/cuil/workspace/arm/lm3s811/TI_Stellaris/driverlib/hibernate.c **** //! HibernateLowBatSet() function.
 543:/home/cuil/workspace/arm/lm3s811/TI_Stellaris/driverlib/hibernate.c **** //!
 544:/home/cuil/workspace/arm/lm3s811/TI_Stellaris/driverlib/hibernate.c **** //! \return Returns a value indicating the configured low battery detection.
 545:/home/cuil/workspace/arm/lm3s811/TI_Stellaris/driverlib/hibernate.c **** //
 546:/home/cuil/workspace/arm/lm3s811/TI_Stellaris/driverlib/hibernate.c **** //*****************************************************************************
 547:/home/cuil/workspace/arm/lm3s811/TI_Stellaris/driverlib/hibernate.c **** unsigned long
 548:/home/cuil/workspace/arm/lm3s811/TI_Stellaris/driverlib/hibernate.c **** HibernateLowBatGet(void)
 549:/home/cuil/workspace/arm/lm3s811/TI_Stellaris/driverlib/hibernate.c **** {
 9305              		.loc 1 549 0
 9306              		.cfi_startproc
 9307              		@ args = 0, pretend = 0, frame = 0
 9308              		@ frame_needed = 1, uses_anonymous_args = 0
 9309              		@ link register save eliminated.
 9310 0000 80B4     		push	{r7}
 9311              	.LCFI29:
 9312              		.cfi_def_cfa_offset 4
 9313 0002 00AF     		add	r7, sp, #0
 9314              		.cfi_offset 7, -4
 9315              	.LCFI30:
 9316              		.cfi_def_cfa_register 7
 550:/home/cuil/workspace/arm/lm3s811/TI_Stellaris/driverlib/hibernate.c ****     //
 551:/home/cuil/workspace/arm/lm3s811/TI_Stellaris/driverlib/hibernate.c ****     // Read the supported low bat bits from the control register and return
 552:/home/cuil/workspace/arm/lm3s811/TI_Stellaris/driverlib/hibernate.c ****     // those bits to the caller.
 553:/home/cuil/workspace/arm/lm3s811/TI_Stellaris/driverlib/hibernate.c ****     //
 554:/home/cuil/workspace/arm/lm3s811/TI_Stellaris/driverlib/hibernate.c ****     return(HWREG(HIB_CTL) & (HIB_CTL_VBATSEL_M | HIBERNATE_LOW_BAT_ABORT));
 9317              		.loc 1 554 0
 9318 0004 044B     		ldr	r3, .L44
 9319 0006 1A68     		ldr	r2, [r3, #0]
 9320 0008 46F2A003 		movw	r3, #24736
 9321 000c 02EA0303 		and	r3, r2, r3
 555:/home/cuil/workspace/arm/lm3s811/TI_Stellaris/driverlib/hibernate.c **** }
 9322              		.loc 1 555 0
 9323 0010 1846     		mov	r0, r3
 9324 0012 BD46     		mov	sp, r7
 9325 0014 80BC     		pop	{r7}
 9326 0016 7047     		bx	lr
 9327              	.L45:
 9328              		.align	2
 9329              	.L44:
 9330 0018 10C00F40 		.word	1074774032
 9331              		.cfi_endproc
 9332              	.LFE12:
 9334              		.section	.text.HibernateRTCSet,"ax",%progbits
 9335              		.align	2
 9336              		.global	HibernateRTCSet
 9337              		.thumb
 9338              		.thumb_func
 9340              	HibernateRTCSet:
 9341              	.LFB13:
 556:/home/cuil/workspace/arm/lm3s811/TI_Stellaris/driverlib/hibernate.c **** 
 557:/home/cuil/workspace/arm/lm3s811/TI_Stellaris/driverlib/hibernate.c **** //*****************************************************************************
 558:/home/cuil/workspace/arm/lm3s811/TI_Stellaris/driverlib/hibernate.c **** //
 559:/home/cuil/workspace/arm/lm3s811/TI_Stellaris/driverlib/hibernate.c **** //! Sets the value of the real time clock (RTC) counter.
 560:/home/cuil/workspace/arm/lm3s811/TI_Stellaris/driverlib/hibernate.c **** //!
 561:/home/cuil/workspace/arm/lm3s811/TI_Stellaris/driverlib/hibernate.c **** //! \param ulRTCValue is the new value for the RTC.
 562:/home/cuil/workspace/arm/lm3s811/TI_Stellaris/driverlib/hibernate.c **** //!
 563:/home/cuil/workspace/arm/lm3s811/TI_Stellaris/driverlib/hibernate.c **** //! This function sets the value of the RTC.  The RTC count seconds if the 
 564:/home/cuil/workspace/arm/lm3s811/TI_Stellaris/driverlib/hibernate.c **** //! hardware is configured correctly.  The RTC must be enabled by calling
 565:/home/cuil/workspace/arm/lm3s811/TI_Stellaris/driverlib/hibernate.c **** //! HibernateRTCEnable() before calling this function.
 566:/home/cuil/workspace/arm/lm3s811/TI_Stellaris/driverlib/hibernate.c **** //!
 567:/home/cuil/workspace/arm/lm3s811/TI_Stellaris/driverlib/hibernate.c **** //! \return None.
 568:/home/cuil/workspace/arm/lm3s811/TI_Stellaris/driverlib/hibernate.c **** //
 569:/home/cuil/workspace/arm/lm3s811/TI_Stellaris/driverlib/hibernate.c **** //*****************************************************************************
 570:/home/cuil/workspace/arm/lm3s811/TI_Stellaris/driverlib/hibernate.c **** void
 571:/home/cuil/workspace/arm/lm3s811/TI_Stellaris/driverlib/hibernate.c **** HibernateRTCSet(unsigned long ulRTCValue)
 572:/home/cuil/workspace/arm/lm3s811/TI_Stellaris/driverlib/hibernate.c **** {
 9342              		.loc 1 572 0
 9343              		.cfi_startproc
 9344              		@ args = 0, pretend = 0, frame = 8
 9345              		@ frame_needed = 1, uses_anonymous_args = 0
 9346 0000 80B5     		push	{r7, lr}
 9347              	.LCFI31:
 9348              		.cfi_def_cfa_offset 8
 9349 0002 82B0     		sub	sp, sp, #8
 9350              	.LCFI32:
 9351              		.cfi_def_cfa_offset 16
 9352 0004 00AF     		add	r7, sp, #0
 9353              		.cfi_offset 14, -4
 9354              		.cfi_offset 7, -8
 9355              	.LCFI33:
 9356              		.cfi_def_cfa_register 7
 9357 0006 7860     		str	r0, [r7, #4]
 573:/home/cuil/workspace/arm/lm3s811/TI_Stellaris/driverlib/hibernate.c ****     //
 574:/home/cuil/workspace/arm/lm3s811/TI_Stellaris/driverlib/hibernate.c ****     // Write the new RTC value to the RTC load register.
 575:/home/cuil/workspace/arm/lm3s811/TI_Stellaris/driverlib/hibernate.c ****     //
 576:/home/cuil/workspace/arm/lm3s811/TI_Stellaris/driverlib/hibernate.c ****     HWREG(HIB_RTCLD) = ulRTCValue;
 9358              		.loc 1 576 0
 9359 0008 044B     		ldr	r3, .L47
 9360 000a 7A68     		ldr	r2, [r7, #4]
 9361 000c 1A60     		str	r2, [r3, #0]
 577:/home/cuil/workspace/arm/lm3s811/TI_Stellaris/driverlib/hibernate.c **** 
 578:/home/cuil/workspace/arm/lm3s811/TI_Stellaris/driverlib/hibernate.c ****     //
 579:/home/cuil/workspace/arm/lm3s811/TI_Stellaris/driverlib/hibernate.c ****     // Wait for write completion
 580:/home/cuil/workspace/arm/lm3s811/TI_Stellaris/driverlib/hibernate.c ****     //
 581:/home/cuil/workspace/arm/lm3s811/TI_Stellaris/driverlib/hibernate.c ****     HibernateWriteComplete();
 9362              		.loc 1 581 0
 9363 000e FFF7FEFF 		bl	HibernateWriteComplete
 582:/home/cuil/workspace/arm/lm3s811/TI_Stellaris/driverlib/hibernate.c **** }
 9364              		.loc 1 582 0
 9365 0012 07F10807 		add	r7, r7, #8
 9366 0016 BD46     		mov	sp, r7
 9367 0018 80BD     		pop	{r7, pc}
 9368              	.L48:
 9369 001a 00BF     		.align	2
 9370              	.L47:
 9371 001c 0CC00F40 		.word	1074774028
 9372              		.cfi_endproc
 9373              	.LFE13:
 9375              		.section	.text.HibernateRTCGet,"ax",%progbits
 9376              		.align	2
 9377              		.global	HibernateRTCGet
 9378              		.thumb
 9379              		.thumb_func
 9381              	HibernateRTCGet:
 9382              	.LFB14:
 583:/home/cuil/workspace/arm/lm3s811/TI_Stellaris/driverlib/hibernate.c **** 
 584:/home/cuil/workspace/arm/lm3s811/TI_Stellaris/driverlib/hibernate.c **** //*****************************************************************************
 585:/home/cuil/workspace/arm/lm3s811/TI_Stellaris/driverlib/hibernate.c **** //
 586:/home/cuil/workspace/arm/lm3s811/TI_Stellaris/driverlib/hibernate.c **** //! Gets the value of the real time clock (RTC) counter.
 587:/home/cuil/workspace/arm/lm3s811/TI_Stellaris/driverlib/hibernate.c **** //!
 588:/home/cuil/workspace/arm/lm3s811/TI_Stellaris/driverlib/hibernate.c **** //! This function gets the value of the RTC and returns it to the caller.
 589:/home/cuil/workspace/arm/lm3s811/TI_Stellaris/driverlib/hibernate.c **** //!
 590:/home/cuil/workspace/arm/lm3s811/TI_Stellaris/driverlib/hibernate.c **** //! \return Returns the value of the RTC.
 591:/home/cuil/workspace/arm/lm3s811/TI_Stellaris/driverlib/hibernate.c **** //
 592:/home/cuil/workspace/arm/lm3s811/TI_Stellaris/driverlib/hibernate.c **** //*****************************************************************************
 593:/home/cuil/workspace/arm/lm3s811/TI_Stellaris/driverlib/hibernate.c **** unsigned long
 594:/home/cuil/workspace/arm/lm3s811/TI_Stellaris/driverlib/hibernate.c **** HibernateRTCGet(void)
 595:/home/cuil/workspace/arm/lm3s811/TI_Stellaris/driverlib/hibernate.c **** {
 9383              		.loc 1 595 0
 9384              		.cfi_startproc
 9385              		@ args = 0, pretend = 0, frame = 0
 9386              		@ frame_needed = 1, uses_anonymous_args = 0
 9387              		@ link register save eliminated.
 9388 0000 80B4     		push	{r7}
 9389              	.LCFI34:
 9390              		.cfi_def_cfa_offset 4
 9391 0002 00AF     		add	r7, sp, #0
 9392              		.cfi_offset 7, -4
 9393              	.LCFI35:
 9394              		.cfi_def_cfa_register 7
 596:/home/cuil/workspace/arm/lm3s811/TI_Stellaris/driverlib/hibernate.c ****     //
 597:/home/cuil/workspace/arm/lm3s811/TI_Stellaris/driverlib/hibernate.c ****     // Return the value of the RTC counter register to the caller.
 598:/home/cuil/workspace/arm/lm3s811/TI_Stellaris/driverlib/hibernate.c ****     //
 599:/home/cuil/workspace/arm/lm3s811/TI_Stellaris/driverlib/hibernate.c ****     return(HWREG(HIB_RTCC));
 9395              		.loc 1 599 0
 9396 0004 024B     		ldr	r3, .L50
 9397 0006 1B68     		ldr	r3, [r3, #0]
 600:/home/cuil/workspace/arm/lm3s811/TI_Stellaris/driverlib/hibernate.c **** }
 9398              		.loc 1 600 0
 9399 0008 1846     		mov	r0, r3
 9400 000a BD46     		mov	sp, r7
 9401 000c 80BC     		pop	{r7}
 9402 000e 7047     		bx	lr
 9403              	.L51:
 9404              		.align	2
 9405              	.L50:
 9406 0010 00C00F40 		.word	1074774016
 9407              		.cfi_endproc
 9408              	.LFE14:
 9410              		.section	.text.HibernateRTCMatch0Set,"ax",%progbits
 9411              		.align	2
 9412              		.global	HibernateRTCMatch0Set
 9413              		.thumb
 9414              		.thumb_func
 9416              	HibernateRTCMatch0Set:
 9417              	.LFB15:
 601:/home/cuil/workspace/arm/lm3s811/TI_Stellaris/driverlib/hibernate.c **** 
 602:/home/cuil/workspace/arm/lm3s811/TI_Stellaris/driverlib/hibernate.c **** //*****************************************************************************
 603:/home/cuil/workspace/arm/lm3s811/TI_Stellaris/driverlib/hibernate.c **** //
 604:/home/cuil/workspace/arm/lm3s811/TI_Stellaris/driverlib/hibernate.c **** //! Sets the value of the RTC match 0 register.
 605:/home/cuil/workspace/arm/lm3s811/TI_Stellaris/driverlib/hibernate.c **** //!
 606:/home/cuil/workspace/arm/lm3s811/TI_Stellaris/driverlib/hibernate.c **** //! \param ulMatch is the value for the match register.
 607:/home/cuil/workspace/arm/lm3s811/TI_Stellaris/driverlib/hibernate.c **** //!
 608:/home/cuil/workspace/arm/lm3s811/TI_Stellaris/driverlib/hibernate.c **** //! This function sets the match 0 register for the RTC.  The Hibernation 
 609:/home/cuil/workspace/arm/lm3s811/TI_Stellaris/driverlib/hibernate.c **** //! module can be configured to wake from hibernation, and/or generate an 
 610:/home/cuil/workspace/arm/lm3s811/TI_Stellaris/driverlib/hibernate.c **** //! interrupt when the value of the RTC counter is the same as the match 
 611:/home/cuil/workspace/arm/lm3s811/TI_Stellaris/driverlib/hibernate.c **** //! register.
 612:/home/cuil/workspace/arm/lm3s811/TI_Stellaris/driverlib/hibernate.c **** //!
 613:/home/cuil/workspace/arm/lm3s811/TI_Stellaris/driverlib/hibernate.c **** //! \return None.
 614:/home/cuil/workspace/arm/lm3s811/TI_Stellaris/driverlib/hibernate.c **** //
 615:/home/cuil/workspace/arm/lm3s811/TI_Stellaris/driverlib/hibernate.c **** //*****************************************************************************
 616:/home/cuil/workspace/arm/lm3s811/TI_Stellaris/driverlib/hibernate.c **** void
 617:/home/cuil/workspace/arm/lm3s811/TI_Stellaris/driverlib/hibernate.c **** HibernateRTCMatch0Set(unsigned long ulMatch)
 618:/home/cuil/workspace/arm/lm3s811/TI_Stellaris/driverlib/hibernate.c **** {
 9418              		.loc 1 618 0
 9419              		.cfi_startproc
 9420              		@ args = 0, pretend = 0, frame = 8
 9421              		@ frame_needed = 1, uses_anonymous_args = 0
 9422 0000 80B5     		push	{r7, lr}
 9423              	.LCFI36:
 9424              		.cfi_def_cfa_offset 8
 9425 0002 82B0     		sub	sp, sp, #8
 9426              	.LCFI37:
 9427              		.cfi_def_cfa_offset 16
 9428 0004 00AF     		add	r7, sp, #0
 9429              		.cfi_offset 14, -4
 9430              		.cfi_offset 7, -8
 9431              	.LCFI38:
 9432              		.cfi_def_cfa_register 7
 9433 0006 7860     		str	r0, [r7, #4]
 619:/home/cuil/workspace/arm/lm3s811/TI_Stellaris/driverlib/hibernate.c ****     //
 620:/home/cuil/workspace/arm/lm3s811/TI_Stellaris/driverlib/hibernate.c ****     // Write the new match value to the match register.
 621:/home/cuil/workspace/arm/lm3s811/TI_Stellaris/driverlib/hibernate.c ****     //
 622:/home/cuil/workspace/arm/lm3s811/TI_Stellaris/driverlib/hibernate.c ****     HWREG(HIB_RTCM0) = ulMatch;
 9434              		.loc 1 622 0
 9435 0008 044B     		ldr	r3, .L53
 9436 000a 7A68     		ldr	r2, [r7, #4]
 9437 000c 1A60     		str	r2, [r3, #0]
 623:/home/cuil/workspace/arm/lm3s811/TI_Stellaris/driverlib/hibernate.c **** 
 624:/home/cuil/workspace/arm/lm3s811/TI_Stellaris/driverlib/hibernate.c ****     //
 625:/home/cuil/workspace/arm/lm3s811/TI_Stellaris/driverlib/hibernate.c ****     // Wait for write completion
 626:/home/cuil/workspace/arm/lm3s811/TI_Stellaris/driverlib/hibernate.c ****     //
 627:/home/cuil/workspace/arm/lm3s811/TI_Stellaris/driverlib/hibernate.c ****     HibernateWriteComplete();
 9438              		.loc 1 627 0
 9439 000e FFF7FEFF 		bl	HibernateWriteComplete
 628:/home/cuil/workspace/arm/lm3s811/TI_Stellaris/driverlib/hibernate.c **** }
 9440              		.loc 1 628 0
 9441 0012 07F10807 		add	r7, r7, #8
 9442 0016 BD46     		mov	sp, r7
 9443 0018 80BD     		pop	{r7, pc}
 9444              	.L54:
 9445 001a 00BF     		.align	2
 9446              	.L53:
 9447 001c 04C00F40 		.word	1074774020
 9448              		.cfi_endproc
 9449              	.LFE15:
 9451              		.section	.text.HibernateRTCMatch0Get,"ax",%progbits
 9452              		.align	2
 9453              		.global	HibernateRTCMatch0Get
 9454              		.thumb
 9455              		.thumb_func
 9457              	HibernateRTCMatch0Get:
 9458              	.LFB16:
 629:/home/cuil/workspace/arm/lm3s811/TI_Stellaris/driverlib/hibernate.c **** 
 630:/home/cuil/workspace/arm/lm3s811/TI_Stellaris/driverlib/hibernate.c **** //*****************************************************************************
 631:/home/cuil/workspace/arm/lm3s811/TI_Stellaris/driverlib/hibernate.c **** //
 632:/home/cuil/workspace/arm/lm3s811/TI_Stellaris/driverlib/hibernate.c **** //! Gets the value of the RTC match 0 register.
 633:/home/cuil/workspace/arm/lm3s811/TI_Stellaris/driverlib/hibernate.c **** //!
 634:/home/cuil/workspace/arm/lm3s811/TI_Stellaris/driverlib/hibernate.c **** //! This function gets the value of the match 0 register for the RTC.
 635:/home/cuil/workspace/arm/lm3s811/TI_Stellaris/driverlib/hibernate.c **** //!
 636:/home/cuil/workspace/arm/lm3s811/TI_Stellaris/driverlib/hibernate.c **** //! \return Returns the value of the match register.
 637:/home/cuil/workspace/arm/lm3s811/TI_Stellaris/driverlib/hibernate.c **** //
 638:/home/cuil/workspace/arm/lm3s811/TI_Stellaris/driverlib/hibernate.c **** //*****************************************************************************
 639:/home/cuil/workspace/arm/lm3s811/TI_Stellaris/driverlib/hibernate.c **** unsigned long
 640:/home/cuil/workspace/arm/lm3s811/TI_Stellaris/driverlib/hibernate.c **** HibernateRTCMatch0Get(void)
 641:/home/cuil/workspace/arm/lm3s811/TI_Stellaris/driverlib/hibernate.c **** {
 9459              		.loc 1 641 0
 9460              		.cfi_startproc
 9461              		@ args = 0, pretend = 0, frame = 0
 9462              		@ frame_needed = 1, uses_anonymous_args = 0
 9463              		@ link register save eliminated.
 9464 0000 80B4     		push	{r7}
 9465              	.LCFI39:
 9466              		.cfi_def_cfa_offset 4
 9467 0002 00AF     		add	r7, sp, #0
 9468              		.cfi_offset 7, -4
 9469              	.LCFI40:
 9470              		.cfi_def_cfa_register 7
 642:/home/cuil/workspace/arm/lm3s811/TI_Stellaris/driverlib/hibernate.c ****     //
 643:/home/cuil/workspace/arm/lm3s811/TI_Stellaris/driverlib/hibernate.c ****     // Return the value of the match register to the caller.
 644:/home/cuil/workspace/arm/lm3s811/TI_Stellaris/driverlib/hibernate.c ****     //
 645:/home/cuil/workspace/arm/lm3s811/TI_Stellaris/driverlib/hibernate.c ****     return(HWREG(HIB_RTCM0));
 9471              		.loc 1 645 0
 9472 0004 024B     		ldr	r3, .L56
 9473 0006 1B68     		ldr	r3, [r3, #0]
 646:/home/cuil/workspace/arm/lm3s811/TI_Stellaris/driverlib/hibernate.c **** }
 9474              		.loc 1 646 0
 9475 0008 1846     		mov	r0, r3
 9476 000a BD46     		mov	sp, r7
 9477 000c 80BC     		pop	{r7}
 9478 000e 7047     		bx	lr
 9479              	.L57:
 9480              		.align	2
 9481              	.L56:
 9482 0010 04C00F40 		.word	1074774020
 9483              		.cfi_endproc
 9484              	.LFE16:
 9486              		.section	.text.HibernateRTCMatch1Set,"ax",%progbits
 9487              		.align	2
 9488              		.global	HibernateRTCMatch1Set
 9489              		.thumb
 9490              		.thumb_func
 9492              	HibernateRTCMatch1Set:
 9493              	.LFB17:
 647:/home/cuil/workspace/arm/lm3s811/TI_Stellaris/driverlib/hibernate.c **** 
 648:/home/cuil/workspace/arm/lm3s811/TI_Stellaris/driverlib/hibernate.c **** //*****************************************************************************
 649:/home/cuil/workspace/arm/lm3s811/TI_Stellaris/driverlib/hibernate.c **** //
 650:/home/cuil/workspace/arm/lm3s811/TI_Stellaris/driverlib/hibernate.c **** //! Sets the value of the RTC match 1 register.
 651:/home/cuil/workspace/arm/lm3s811/TI_Stellaris/driverlib/hibernate.c **** //!
 652:/home/cuil/workspace/arm/lm3s811/TI_Stellaris/driverlib/hibernate.c **** //! \param ulMatch is the value for the match register.
 653:/home/cuil/workspace/arm/lm3s811/TI_Stellaris/driverlib/hibernate.c **** //!
 654:/home/cuil/workspace/arm/lm3s811/TI_Stellaris/driverlib/hibernate.c **** //! This function sets the match 1 register for the RTC.  The Hibernation 
 655:/home/cuil/workspace/arm/lm3s811/TI_Stellaris/driverlib/hibernate.c **** //! module can be configured to wake from hibernation, and/or generate an 
 656:/home/cuil/workspace/arm/lm3s811/TI_Stellaris/driverlib/hibernate.c **** //! interrupt when the value of the RTC counter is the same as the match 
 657:/home/cuil/workspace/arm/lm3s811/TI_Stellaris/driverlib/hibernate.c **** //! register.
 658:/home/cuil/workspace/arm/lm3s811/TI_Stellaris/driverlib/hibernate.c **** //!
 659:/home/cuil/workspace/arm/lm3s811/TI_Stellaris/driverlib/hibernate.c **** //! \note The Hibernation RTC Match 1 feature is not available on all Stellaris
 660:/home/cuil/workspace/arm/lm3s811/TI_Stellaris/driverlib/hibernate.c **** //! devices.  Please consult the data sheet for the Stellaris device that you
 661:/home/cuil/workspace/arm/lm3s811/TI_Stellaris/driverlib/hibernate.c **** //! are using to determine if this feature is available.
 662:/home/cuil/workspace/arm/lm3s811/TI_Stellaris/driverlib/hibernate.c **** //!
 663:/home/cuil/workspace/arm/lm3s811/TI_Stellaris/driverlib/hibernate.c **** //! \return None.
 664:/home/cuil/workspace/arm/lm3s811/TI_Stellaris/driverlib/hibernate.c **** //
 665:/home/cuil/workspace/arm/lm3s811/TI_Stellaris/driverlib/hibernate.c **** //*****************************************************************************
 666:/home/cuil/workspace/arm/lm3s811/TI_Stellaris/driverlib/hibernate.c **** void
 667:/home/cuil/workspace/arm/lm3s811/TI_Stellaris/driverlib/hibernate.c **** HibernateRTCMatch1Set(unsigned long ulMatch)
 668:/home/cuil/workspace/arm/lm3s811/TI_Stellaris/driverlib/hibernate.c **** {
 9494              		.loc 1 668 0
 9495              		.cfi_startproc
 9496              		@ args = 0, pretend = 0, frame = 8
 9497              		@ frame_needed = 1, uses_anonymous_args = 0
 9498 0000 80B5     		push	{r7, lr}
 9499              	.LCFI41:
 9500              		.cfi_def_cfa_offset 8
 9501 0002 82B0     		sub	sp, sp, #8
 9502              	.LCFI42:
 9503              		.cfi_def_cfa_offset 16
 9504 0004 00AF     		add	r7, sp, #0
 9505              		.cfi_offset 14, -4
 9506              		.cfi_offset 7, -8
 9507              	.LCFI43:
 9508              		.cfi_def_cfa_register 7
 9509 0006 7860     		str	r0, [r7, #4]
 669:/home/cuil/workspace/arm/lm3s811/TI_Stellaris/driverlib/hibernate.c ****     //
 670:/home/cuil/workspace/arm/lm3s811/TI_Stellaris/driverlib/hibernate.c ****     // Write the new match value to the match register.
 671:/home/cuil/workspace/arm/lm3s811/TI_Stellaris/driverlib/hibernate.c ****     //
 672:/home/cuil/workspace/arm/lm3s811/TI_Stellaris/driverlib/hibernate.c ****     HWREG(HIB_RTCM1) = ulMatch;
 9510              		.loc 1 672 0
 9511 0008 044B     		ldr	r3, .L59
 9512 000a 7A68     		ldr	r2, [r7, #4]
 9513 000c 1A60     		str	r2, [r3, #0]
 673:/home/cuil/workspace/arm/lm3s811/TI_Stellaris/driverlib/hibernate.c **** 
 674:/home/cuil/workspace/arm/lm3s811/TI_Stellaris/driverlib/hibernate.c ****     //
 675:/home/cuil/workspace/arm/lm3s811/TI_Stellaris/driverlib/hibernate.c ****     // Wait for write completion
 676:/home/cuil/workspace/arm/lm3s811/TI_Stellaris/driverlib/hibernate.c ****     //
 677:/home/cuil/workspace/arm/lm3s811/TI_Stellaris/driverlib/hibernate.c ****     HibernateWriteComplete();
 9514              		.loc 1 677 0
 9515 000e FFF7FEFF 		bl	HibernateWriteComplete
 678:/home/cuil/workspace/arm/lm3s811/TI_Stellaris/driverlib/hibernate.c **** }
 9516              		.loc 1 678 0
 9517 0012 07F10807 		add	r7, r7, #8
 9518 0016 BD46     		mov	sp, r7
 9519 0018 80BD     		pop	{r7, pc}
 9520              	.L60:
 9521 001a 00BF     		.align	2
 9522              	.L59:
 9523 001c 08C00F40 		.word	1074774024
 9524              		.cfi_endproc
 9525              	.LFE17:
 9527              		.section	.text.HibernateRTCMatch1Get,"ax",%progbits
 9528              		.align	2
 9529              		.global	HibernateRTCMatch1Get
 9530              		.thumb
 9531              		.thumb_func
 9533              	HibernateRTCMatch1Get:
 9534              	.LFB18:
 679:/home/cuil/workspace/arm/lm3s811/TI_Stellaris/driverlib/hibernate.c **** 
 680:/home/cuil/workspace/arm/lm3s811/TI_Stellaris/driverlib/hibernate.c **** //*****************************************************************************
 681:/home/cuil/workspace/arm/lm3s811/TI_Stellaris/driverlib/hibernate.c **** //
 682:/home/cuil/workspace/arm/lm3s811/TI_Stellaris/driverlib/hibernate.c **** //! Gets the value of the RTC match 1 register.
 683:/home/cuil/workspace/arm/lm3s811/TI_Stellaris/driverlib/hibernate.c **** //!
 684:/home/cuil/workspace/arm/lm3s811/TI_Stellaris/driverlib/hibernate.c **** //! This function gets the value of the match 1 register for the RTC.
 685:/home/cuil/workspace/arm/lm3s811/TI_Stellaris/driverlib/hibernate.c **** //!
 686:/home/cuil/workspace/arm/lm3s811/TI_Stellaris/driverlib/hibernate.c **** //! \note The Hibernation RTC Match 1 feature is not available on all Stellaris
 687:/home/cuil/workspace/arm/lm3s811/TI_Stellaris/driverlib/hibernate.c **** //! devices.  Please consult the data sheet for the Stellaris device that you
 688:/home/cuil/workspace/arm/lm3s811/TI_Stellaris/driverlib/hibernate.c **** //! are using to determine if this feature is available.
 689:/home/cuil/workspace/arm/lm3s811/TI_Stellaris/driverlib/hibernate.c **** //!
 690:/home/cuil/workspace/arm/lm3s811/TI_Stellaris/driverlib/hibernate.c **** //! \return Returns the value of the match register.
 691:/home/cuil/workspace/arm/lm3s811/TI_Stellaris/driverlib/hibernate.c **** //
 692:/home/cuil/workspace/arm/lm3s811/TI_Stellaris/driverlib/hibernate.c **** //*****************************************************************************
 693:/home/cuil/workspace/arm/lm3s811/TI_Stellaris/driverlib/hibernate.c **** unsigned long
 694:/home/cuil/workspace/arm/lm3s811/TI_Stellaris/driverlib/hibernate.c **** HibernateRTCMatch1Get(void)
 695:/home/cuil/workspace/arm/lm3s811/TI_Stellaris/driverlib/hibernate.c **** {
 9535              		.loc 1 695 0
 9536              		.cfi_startproc
 9537              		@ args = 0, pretend = 0, frame = 0
 9538              		@ frame_needed = 1, uses_anonymous_args = 0
 9539              		@ link register save eliminated.
 9540 0000 80B4     		push	{r7}
 9541              	.LCFI44:
 9542              		.cfi_def_cfa_offset 4
 9543 0002 00AF     		add	r7, sp, #0
 9544              		.cfi_offset 7, -4
 9545              	.LCFI45:
 9546              		.cfi_def_cfa_register 7
 696:/home/cuil/workspace/arm/lm3s811/TI_Stellaris/driverlib/hibernate.c ****     //
 697:/home/cuil/workspace/arm/lm3s811/TI_Stellaris/driverlib/hibernate.c ****     // Return the value of the match register to the caller.
 698:/home/cuil/workspace/arm/lm3s811/TI_Stellaris/driverlib/hibernate.c ****     //
 699:/home/cuil/workspace/arm/lm3s811/TI_Stellaris/driverlib/hibernate.c ****     return(HWREG(HIB_RTCM1));
 9547              		.loc 1 699 0
 9548 0004 024B     		ldr	r3, .L62
 9549 0006 1B68     		ldr	r3, [r3, #0]
 700:/home/cuil/workspace/arm/lm3s811/TI_Stellaris/driverlib/hibernate.c **** }
 9550              		.loc 1 700 0
 9551 0008 1846     		mov	r0, r3
 9552 000a BD46     		mov	sp, r7
 9553 000c 80BC     		pop	{r7}
 9554 000e 7047     		bx	lr
 9555              	.L63:
 9556              		.align	2
 9557              	.L62:
 9558 0010 08C00F40 		.word	1074774024
 9559              		.cfi_endproc
 9560              	.LFE18:
 9562              		.section	.text.HibernateRTCSSMatch0Set,"ax",%progbits
 9563              		.align	2
 9564              		.global	HibernateRTCSSMatch0Set
 9565              		.thumb
 9566              		.thumb_func
 9568              	HibernateRTCSSMatch0Set:
 9569              	.LFB19:
 701:/home/cuil/workspace/arm/lm3s811/TI_Stellaris/driverlib/hibernate.c **** 
 702:/home/cuil/workspace/arm/lm3s811/TI_Stellaris/driverlib/hibernate.c **** //*****************************************************************************
 703:/home/cuil/workspace/arm/lm3s811/TI_Stellaris/driverlib/hibernate.c **** //
 704:/home/cuil/workspace/arm/lm3s811/TI_Stellaris/driverlib/hibernate.c **** //! Sets the value of the RTC sub second match 0 register.
 705:/home/cuil/workspace/arm/lm3s811/TI_Stellaris/driverlib/hibernate.c **** //!
 706:/home/cuil/workspace/arm/lm3s811/TI_Stellaris/driverlib/hibernate.c **** //! \param ulMatch is the value for the sub second match register.
 707:/home/cuil/workspace/arm/lm3s811/TI_Stellaris/driverlib/hibernate.c **** //!
 708:/home/cuil/workspace/arm/lm3s811/TI_Stellaris/driverlib/hibernate.c **** //! This function sets the sub second match 0 register for the RTC in 1/32768 
 709:/home/cuil/workspace/arm/lm3s811/TI_Stellaris/driverlib/hibernate.c **** //! of a second increments.  The Hibernation module can be configured to wake 
 710:/home/cuil/workspace/arm/lm3s811/TI_Stellaris/driverlib/hibernate.c **** //! from hibernation, and/or generate an interrupt when the value of the RTC 
 711:/home/cuil/workspace/arm/lm3s811/TI_Stellaris/driverlib/hibernate.c **** //! counter is the same as the match combined with the sub second match 
 712:/home/cuil/workspace/arm/lm3s811/TI_Stellaris/driverlib/hibernate.c **** //! register.
 713:/home/cuil/workspace/arm/lm3s811/TI_Stellaris/driverlib/hibernate.c **** //!
 714:/home/cuil/workspace/arm/lm3s811/TI_Stellaris/driverlib/hibernate.c **** //! \note The Hibernation sub second RTC Match 0 feature is not available on
 715:/home/cuil/workspace/arm/lm3s811/TI_Stellaris/driverlib/hibernate.c **** //! all Stellaris devices.  Please consult the data sheet for the Stellaris
 716:/home/cuil/workspace/arm/lm3s811/TI_Stellaris/driverlib/hibernate.c **** //! device that you are using to determine if this feature is available.
 717:/home/cuil/workspace/arm/lm3s811/TI_Stellaris/driverlib/hibernate.c **** //!
 718:/home/cuil/workspace/arm/lm3s811/TI_Stellaris/driverlib/hibernate.c **** //! \return None.
 719:/home/cuil/workspace/arm/lm3s811/TI_Stellaris/driverlib/hibernate.c **** //
 720:/home/cuil/workspace/arm/lm3s811/TI_Stellaris/driverlib/hibernate.c **** //*****************************************************************************
 721:/home/cuil/workspace/arm/lm3s811/TI_Stellaris/driverlib/hibernate.c **** void
 722:/home/cuil/workspace/arm/lm3s811/TI_Stellaris/driverlib/hibernate.c **** HibernateRTCSSMatch0Set(unsigned long ulMatch)
 723:/home/cuil/workspace/arm/lm3s811/TI_Stellaris/driverlib/hibernate.c **** {
 9570              		.loc 1 723 0
 9571              		.cfi_startproc
 9572              		@ args = 0, pretend = 0, frame = 8
 9573              		@ frame_needed = 1, uses_anonymous_args = 0
 9574 0000 80B5     		push	{r7, lr}
 9575              	.LCFI46:
 9576              		.cfi_def_cfa_offset 8
 9577 0002 82B0     		sub	sp, sp, #8
 9578              	.LCFI47:
 9579              		.cfi_def_cfa_offset 16
 9580 0004 00AF     		add	r7, sp, #0
 9581              		.cfi_offset 14, -4
 9582              		.cfi_offset 7, -8
 9583              	.LCFI48:
 9584              		.cfi_def_cfa_register 7
 9585 0006 7860     		str	r0, [r7, #4]
 724:/home/cuil/workspace/arm/lm3s811/TI_Stellaris/driverlib/hibernate.c ****     //
 725:/home/cuil/workspace/arm/lm3s811/TI_Stellaris/driverlib/hibernate.c ****     // Write the new sub second match value to the sub second match register.
 726:/home/cuil/workspace/arm/lm3s811/TI_Stellaris/driverlib/hibernate.c ****     //
 727:/home/cuil/workspace/arm/lm3s811/TI_Stellaris/driverlib/hibernate.c ****     HWREG(HIB_RTCSS) = ulMatch << HIB_RTCSS_RTCSSM_S;
 9586              		.loc 1 727 0
 9587 0008 054B     		ldr	r3, .L65
 9588 000a 7A68     		ldr	r2, [r7, #4]
 9589 000c 4FEA0242 		lsl	r2, r2, #16
 9590 0010 1A60     		str	r2, [r3, #0]
 728:/home/cuil/workspace/arm/lm3s811/TI_Stellaris/driverlib/hibernate.c **** 
 729:/home/cuil/workspace/arm/lm3s811/TI_Stellaris/driverlib/hibernate.c ****     //
 730:/home/cuil/workspace/arm/lm3s811/TI_Stellaris/driverlib/hibernate.c ****     // Wait for write complete to be signaled on later devices.
 731:/home/cuil/workspace/arm/lm3s811/TI_Stellaris/driverlib/hibernate.c ****     //
 732:/home/cuil/workspace/arm/lm3s811/TI_Stellaris/driverlib/hibernate.c ****     HibernateWriteComplete();
 9591              		.loc 1 732 0
 9592 0012 FFF7FEFF 		bl	HibernateWriteComplete
 733:/home/cuil/workspace/arm/lm3s811/TI_Stellaris/driverlib/hibernate.c **** }
 9593              		.loc 1 733 0
 9594 0016 07F10807 		add	r7, r7, #8
 9595 001a BD46     		mov	sp, r7
 9596 001c 80BD     		pop	{r7, pc}
 9597              	.L66:
 9598 001e 00BF     		.align	2
 9599              	.L65:
 9600 0020 28C00F40 		.word	1074774056
 9601              		.cfi_endproc
 9602              	.LFE19:
 9604              		.section	.text.HibernateRTCSSMatch0Get,"ax",%progbits
 9605              		.align	2
 9606              		.global	HibernateRTCSSMatch0Get
 9607              		.thumb
 9608              		.thumb_func
 9610              	HibernateRTCSSMatch0Get:
 9611              	.LFB20:
 734:/home/cuil/workspace/arm/lm3s811/TI_Stellaris/driverlib/hibernate.c **** 
 735:/home/cuil/workspace/arm/lm3s811/TI_Stellaris/driverlib/hibernate.c **** //*****************************************************************************
 736:/home/cuil/workspace/arm/lm3s811/TI_Stellaris/driverlib/hibernate.c **** //
 737:/home/cuil/workspace/arm/lm3s811/TI_Stellaris/driverlib/hibernate.c **** //! Returns the value of the RTC sub second match 0 register.
 738:/home/cuil/workspace/arm/lm3s811/TI_Stellaris/driverlib/hibernate.c **** //!
 739:/home/cuil/workspace/arm/lm3s811/TI_Stellaris/driverlib/hibernate.c **** //! This function returns the current value of the sub second match 0 register
 740:/home/cuil/workspace/arm/lm3s811/TI_Stellaris/driverlib/hibernate.c **** //! for the RTC.  The value returned is in 1/32768 second increments.
 741:/home/cuil/workspace/arm/lm3s811/TI_Stellaris/driverlib/hibernate.c **** //!
 742:/home/cuil/workspace/arm/lm3s811/TI_Stellaris/driverlib/hibernate.c **** //! \note The Hibernation sub second RTC Match 0 feature is not available on
 743:/home/cuil/workspace/arm/lm3s811/TI_Stellaris/driverlib/hibernate.c **** //! all Stellaris devices.  Please consult the data sheet for the Stellaris
 744:/home/cuil/workspace/arm/lm3s811/TI_Stellaris/driverlib/hibernate.c **** //! device that you are using to determine if this feature is available.
 745:/home/cuil/workspace/arm/lm3s811/TI_Stellaris/driverlib/hibernate.c **** //!
 746:/home/cuil/workspace/arm/lm3s811/TI_Stellaris/driverlib/hibernate.c **** //! \return Returns the value of the sub section match register.
 747:/home/cuil/workspace/arm/lm3s811/TI_Stellaris/driverlib/hibernate.c **** //
 748:/home/cuil/workspace/arm/lm3s811/TI_Stellaris/driverlib/hibernate.c **** //*****************************************************************************
 749:/home/cuil/workspace/arm/lm3s811/TI_Stellaris/driverlib/hibernate.c **** unsigned long
 750:/home/cuil/workspace/arm/lm3s811/TI_Stellaris/driverlib/hibernate.c **** HibernateRTCSSMatch0Get(void)
 751:/home/cuil/workspace/arm/lm3s811/TI_Stellaris/driverlib/hibernate.c **** {
 9612              		.loc 1 751 0
 9613              		.cfi_startproc
 9614              		@ args = 0, pretend = 0, frame = 0
 9615              		@ frame_needed = 1, uses_anonymous_args = 0
 9616              		@ link register save eliminated.
 9617 0000 80B4     		push	{r7}
 9618              	.LCFI49:
 9619              		.cfi_def_cfa_offset 4
 9620 0002 00AF     		add	r7, sp, #0
 9621              		.cfi_offset 7, -4
 9622              	.LCFI50:
 9623              		.cfi_def_cfa_register 7
 752:/home/cuil/workspace/arm/lm3s811/TI_Stellaris/driverlib/hibernate.c ****     //
 753:/home/cuil/workspace/arm/lm3s811/TI_Stellaris/driverlib/hibernate.c ****     // Read the current second RTC count.
 754:/home/cuil/workspace/arm/lm3s811/TI_Stellaris/driverlib/hibernate.c ****     //
 755:/home/cuil/workspace/arm/lm3s811/TI_Stellaris/driverlib/hibernate.c ****     return(HWREG(HIB_RTCSS) >> HIB_RTCSS_RTCSSM_S);
 9624              		.loc 1 755 0
 9625 0004 034B     		ldr	r3, .L68
 9626 0006 1B68     		ldr	r3, [r3, #0]
 9627 0008 4FEA1343 		lsr	r3, r3, #16
 756:/home/cuil/workspace/arm/lm3s811/TI_Stellaris/driverlib/hibernate.c **** }
 9628              		.loc 1 756 0
 9629 000c 1846     		mov	r0, r3
 9630 000e BD46     		mov	sp, r7
 9631 0010 80BC     		pop	{r7}
 9632 0012 7047     		bx	lr
 9633              	.L69:
 9634              		.align	2
 9635              	.L68:
 9636 0014 28C00F40 		.word	1074774056
 9637              		.cfi_endproc
 9638              	.LFE20:
 9640              		.section	.text.HibernateRTCSSGet,"ax",%progbits
 9641              		.align	2
 9642              		.global	HibernateRTCSSGet
 9643              		.thumb
 9644              		.thumb_func
 9646              	HibernateRTCSSGet:
 9647              	.LFB21:
 757:/home/cuil/workspace/arm/lm3s811/TI_Stellaris/driverlib/hibernate.c **** 
 758:/home/cuil/workspace/arm/lm3s811/TI_Stellaris/driverlib/hibernate.c **** //*****************************************************************************
 759:/home/cuil/workspace/arm/lm3s811/TI_Stellaris/driverlib/hibernate.c **** //
 760:/home/cuil/workspace/arm/lm3s811/TI_Stellaris/driverlib/hibernate.c **** //! Returns the current value of the RTC sub second count.
 761:/home/cuil/workspace/arm/lm3s811/TI_Stellaris/driverlib/hibernate.c **** //!
 762:/home/cuil/workspace/arm/lm3s811/TI_Stellaris/driverlib/hibernate.c **** //! This function returns the current value of the sub second count for the
 763:/home/cuil/workspace/arm/lm3s811/TI_Stellaris/driverlib/hibernate.c **** //! for the RTC in 1/32768 of a second increments.
 764:/home/cuil/workspace/arm/lm3s811/TI_Stellaris/driverlib/hibernate.c **** //!
 765:/home/cuil/workspace/arm/lm3s811/TI_Stellaris/driverlib/hibernate.c **** //! \note The Hibernation sub second RTC Match 0 feature is not available on
 766:/home/cuil/workspace/arm/lm3s811/TI_Stellaris/driverlib/hibernate.c **** //! all Stellaris devices.  Please consult the data sheet for the Stellaris
 767:/home/cuil/workspace/arm/lm3s811/TI_Stellaris/driverlib/hibernate.c **** //! device that you are using to determine if this feature is available.
 768:/home/cuil/workspace/arm/lm3s811/TI_Stellaris/driverlib/hibernate.c **** //!
 769:/home/cuil/workspace/arm/lm3s811/TI_Stellaris/driverlib/hibernate.c **** //! \return The current RTC sub second count in 1/32768 seconds.
 770:/home/cuil/workspace/arm/lm3s811/TI_Stellaris/driverlib/hibernate.c **** //
 771:/home/cuil/workspace/arm/lm3s811/TI_Stellaris/driverlib/hibernate.c **** //*****************************************************************************
 772:/home/cuil/workspace/arm/lm3s811/TI_Stellaris/driverlib/hibernate.c **** unsigned long
 773:/home/cuil/workspace/arm/lm3s811/TI_Stellaris/driverlib/hibernate.c **** HibernateRTCSSGet(void)
 774:/home/cuil/workspace/arm/lm3s811/TI_Stellaris/driverlib/hibernate.c **** {
 9648              		.loc 1 774 0
 9649              		.cfi_startproc
 9650              		@ args = 0, pretend = 0, frame = 0
 9651              		@ frame_needed = 1, uses_anonymous_args = 0
 9652              		@ link register save eliminated.
 9653 0000 80B4     		push	{r7}
 9654              	.LCFI51:
 9655              		.cfi_def_cfa_offset 4
 9656 0002 00AF     		add	r7, sp, #0
 9657              		.cfi_offset 7, -4
 9658              	.LCFI52:
 9659              		.cfi_def_cfa_register 7
 775:/home/cuil/workspace/arm/lm3s811/TI_Stellaris/driverlib/hibernate.c ****     //
 776:/home/cuil/workspace/arm/lm3s811/TI_Stellaris/driverlib/hibernate.c ****     // Read the current second RTC count.
 777:/home/cuil/workspace/arm/lm3s811/TI_Stellaris/driverlib/hibernate.c ****     //
 778:/home/cuil/workspace/arm/lm3s811/TI_Stellaris/driverlib/hibernate.c ****     return(HWREG(HIB_RTCSS) & HIB_RTCSS_RTCSSC_M);
 9660              		.loc 1 778 0
 9661 0004 044B     		ldr	r3, .L71
 9662 0006 1B68     		ldr	r3, [r3, #0]
 9663 0008 4FEA4343 		lsl	r3, r3, #17
 9664 000c 4FEA5343 		lsr	r3, r3, #17
 779:/home/cuil/workspace/arm/lm3s811/TI_Stellaris/driverlib/hibernate.c **** }
 9665              		.loc 1 779 0
 9666 0010 1846     		mov	r0, r3
 9667 0012 BD46     		mov	sp, r7
 9668 0014 80BC     		pop	{r7}
 9669 0016 7047     		bx	lr
 9670              	.L72:
 9671              		.align	2
 9672              	.L71:
 9673 0018 28C00F40 		.word	1074774056
 9674              		.cfi_endproc
 9675              	.LFE21:
 9677              		.section	.text.HibernateRTCTrimSet,"ax",%progbits
 9678              		.align	2
 9679              		.global	HibernateRTCTrimSet
 9680              		.thumb
 9681              		.thumb_func
 9683              	HibernateRTCTrimSet:
 9684              	.LFB22:
 780:/home/cuil/workspace/arm/lm3s811/TI_Stellaris/driverlib/hibernate.c **** 
 781:/home/cuil/workspace/arm/lm3s811/TI_Stellaris/driverlib/hibernate.c **** //*****************************************************************************
 782:/home/cuil/workspace/arm/lm3s811/TI_Stellaris/driverlib/hibernate.c **** //
 783:/home/cuil/workspace/arm/lm3s811/TI_Stellaris/driverlib/hibernate.c **** //! Sets the value of the RTC predivider trim register.
 784:/home/cuil/workspace/arm/lm3s811/TI_Stellaris/driverlib/hibernate.c **** //!
 785:/home/cuil/workspace/arm/lm3s811/TI_Stellaris/driverlib/hibernate.c **** //! \param ulTrim is the new value for the pre-divider trim register.
 786:/home/cuil/workspace/arm/lm3s811/TI_Stellaris/driverlib/hibernate.c **** //!
 787:/home/cuil/workspace/arm/lm3s811/TI_Stellaris/driverlib/hibernate.c **** //! This function sets the value of the pre-divider trim register.  The input 
 788:/home/cuil/workspace/arm/lm3s811/TI_Stellaris/driverlib/hibernate.c **** //! time source is divided by the pre-divider to achieve a one-second clock 
 789:/home/cuil/workspace/arm/lm3s811/TI_Stellaris/driverlib/hibernate.c **** //! rate.  Once every 64 seconds, the value of the pre-divider trim register is
 790:/home/cuil/workspace/arm/lm3s811/TI_Stellaris/driverlib/hibernate.c **** //! applied to the predivider to allow fine-tuning of the RTC rate, in order
 791:/home/cuil/workspace/arm/lm3s811/TI_Stellaris/driverlib/hibernate.c **** //! to make corrections to the rate.  The software application can make 
 792:/home/cuil/workspace/arm/lm3s811/TI_Stellaris/driverlib/hibernate.c **** //! adjustments to the predivider trim register to account for variations in 
 793:/home/cuil/workspace/arm/lm3s811/TI_Stellaris/driverlib/hibernate.c **** //! the accuracy of the input time source.  The nominal value is 0x7FFF, and it 
 794:/home/cuil/workspace/arm/lm3s811/TI_Stellaris/driverlib/hibernate.c **** //! can be adjusted up or down in order to fine-tune the RTC rate.
 795:/home/cuil/workspace/arm/lm3s811/TI_Stellaris/driverlib/hibernate.c **** //!
 796:/home/cuil/workspace/arm/lm3s811/TI_Stellaris/driverlib/hibernate.c **** //! \return None.
 797:/home/cuil/workspace/arm/lm3s811/TI_Stellaris/driverlib/hibernate.c **** //
 798:/home/cuil/workspace/arm/lm3s811/TI_Stellaris/driverlib/hibernate.c **** //*****************************************************************************
 799:/home/cuil/workspace/arm/lm3s811/TI_Stellaris/driverlib/hibernate.c **** void
 800:/home/cuil/workspace/arm/lm3s811/TI_Stellaris/driverlib/hibernate.c **** HibernateRTCTrimSet(unsigned long ulTrim)
 801:/home/cuil/workspace/arm/lm3s811/TI_Stellaris/driverlib/hibernate.c **** {
 9685              		.loc 1 801 0
 9686              		.cfi_startproc
 9687              		@ args = 0, pretend = 0, frame = 8
 9688              		@ frame_needed = 1, uses_anonymous_args = 0
 9689 0000 80B5     		push	{r7, lr}
 9690              	.LCFI53:
 9691              		.cfi_def_cfa_offset 8
 9692 0002 82B0     		sub	sp, sp, #8
 9693              	.LCFI54:
 9694              		.cfi_def_cfa_offset 16
 9695 0004 00AF     		add	r7, sp, #0
 9696              		.cfi_offset 14, -4
 9697              		.cfi_offset 7, -8
 9698              	.LCFI55:
 9699              		.cfi_def_cfa_register 7
 9700 0006 7860     		str	r0, [r7, #4]
 802:/home/cuil/workspace/arm/lm3s811/TI_Stellaris/driverlib/hibernate.c ****     //
 803:/home/cuil/workspace/arm/lm3s811/TI_Stellaris/driverlib/hibernate.c ****     // Check the arguments.
 804:/home/cuil/workspace/arm/lm3s811/TI_Stellaris/driverlib/hibernate.c ****     //
 805:/home/cuil/workspace/arm/lm3s811/TI_Stellaris/driverlib/hibernate.c ****     ASSERT(ulTrim < 0x10000);
 806:/home/cuil/workspace/arm/lm3s811/TI_Stellaris/driverlib/hibernate.c **** 
 807:/home/cuil/workspace/arm/lm3s811/TI_Stellaris/driverlib/hibernate.c ****     //
 808:/home/cuil/workspace/arm/lm3s811/TI_Stellaris/driverlib/hibernate.c ****     // Write the new trim value to the trim register.
 809:/home/cuil/workspace/arm/lm3s811/TI_Stellaris/driverlib/hibernate.c ****     //
 810:/home/cuil/workspace/arm/lm3s811/TI_Stellaris/driverlib/hibernate.c ****     HWREG(HIB_RTCT) = ulTrim;
 9701              		.loc 1 810 0
 9702 0008 044B     		ldr	r3, .L74
 9703 000a 7A68     		ldr	r2, [r7, #4]
 9704 000c 1A60     		str	r2, [r3, #0]
 811:/home/cuil/workspace/arm/lm3s811/TI_Stellaris/driverlib/hibernate.c **** 
 812:/home/cuil/workspace/arm/lm3s811/TI_Stellaris/driverlib/hibernate.c ****     //
 813:/home/cuil/workspace/arm/lm3s811/TI_Stellaris/driverlib/hibernate.c ****     // Wait for write completion
 814:/home/cuil/workspace/arm/lm3s811/TI_Stellaris/driverlib/hibernate.c ****     //
 815:/home/cuil/workspace/arm/lm3s811/TI_Stellaris/driverlib/hibernate.c ****     HibernateWriteComplete();
 9705              		.loc 1 815 0
 9706 000e FFF7FEFF 		bl	HibernateWriteComplete
 816:/home/cuil/workspace/arm/lm3s811/TI_Stellaris/driverlib/hibernate.c **** }
 9707              		.loc 1 816 0
 9708 0012 07F10807 		add	r7, r7, #8
 9709 0016 BD46     		mov	sp, r7
 9710 0018 80BD     		pop	{r7, pc}
 9711              	.L75:
 9712 001a 00BF     		.align	2
 9713              	.L74:
 9714 001c 24C00F40 		.word	1074774052
 9715              		.cfi_endproc
 9716              	.LFE22:
 9718              		.section	.text.HibernateRTCTrimGet,"ax",%progbits
 9719              		.align	2
 9720              		.global	HibernateRTCTrimGet
 9721              		.thumb
 9722              		.thumb_func
 9724              	HibernateRTCTrimGet:
 9725              	.LFB23:
 817:/home/cuil/workspace/arm/lm3s811/TI_Stellaris/driverlib/hibernate.c **** 
 818:/home/cuil/workspace/arm/lm3s811/TI_Stellaris/driverlib/hibernate.c **** //*****************************************************************************
 819:/home/cuil/workspace/arm/lm3s811/TI_Stellaris/driverlib/hibernate.c **** //
 820:/home/cuil/workspace/arm/lm3s811/TI_Stellaris/driverlib/hibernate.c **** //! Gets the value of the RTC predivider trim register.
 821:/home/cuil/workspace/arm/lm3s811/TI_Stellaris/driverlib/hibernate.c **** //!
 822:/home/cuil/workspace/arm/lm3s811/TI_Stellaris/driverlib/hibernate.c **** //! This function gets the value of the pre-divider trim register.  This 
 823:/home/cuil/workspace/arm/lm3s811/TI_Stellaris/driverlib/hibernate.c **** //! function can be used to get the current value of the trim register prior 
 824:/home/cuil/workspace/arm/lm3s811/TI_Stellaris/driverlib/hibernate.c **** //! to making an adjustment by using the HibernateRTCTrimSet() function.
 825:/home/cuil/workspace/arm/lm3s811/TI_Stellaris/driverlib/hibernate.c **** //!
 826:/home/cuil/workspace/arm/lm3s811/TI_Stellaris/driverlib/hibernate.c **** //! \return None.
 827:/home/cuil/workspace/arm/lm3s811/TI_Stellaris/driverlib/hibernate.c **** //
 828:/home/cuil/workspace/arm/lm3s811/TI_Stellaris/driverlib/hibernate.c **** //*****************************************************************************
 829:/home/cuil/workspace/arm/lm3s811/TI_Stellaris/driverlib/hibernate.c **** unsigned long
 830:/home/cuil/workspace/arm/lm3s811/TI_Stellaris/driverlib/hibernate.c **** HibernateRTCTrimGet(void)
 831:/home/cuil/workspace/arm/lm3s811/TI_Stellaris/driverlib/hibernate.c **** {
 9726              		.loc 1 831 0
 9727              		.cfi_startproc
 9728              		@ args = 0, pretend = 0, frame = 0
 9729              		@ frame_needed = 1, uses_anonymous_args = 0
 9730              		@ link register save eliminated.
 9731 0000 80B4     		push	{r7}
 9732              	.LCFI56:
 9733              		.cfi_def_cfa_offset 4
 9734 0002 00AF     		add	r7, sp, #0
 9735              		.cfi_offset 7, -4
 9736              	.LCFI57:
 9737              		.cfi_def_cfa_register 7
 832:/home/cuil/workspace/arm/lm3s811/TI_Stellaris/driverlib/hibernate.c ****     //
 833:/home/cuil/workspace/arm/lm3s811/TI_Stellaris/driverlib/hibernate.c ****     // Return the value of the trim register to the caller.
 834:/home/cuil/workspace/arm/lm3s811/TI_Stellaris/driverlib/hibernate.c ****     //
 835:/home/cuil/workspace/arm/lm3s811/TI_Stellaris/driverlib/hibernate.c ****     return(HWREG(HIB_RTCT));
 9738              		.loc 1 835 0
 9739 0004 024B     		ldr	r3, .L77
 9740 0006 1B68     		ldr	r3, [r3, #0]
 836:/home/cuil/workspace/arm/lm3s811/TI_Stellaris/driverlib/hibernate.c **** }
 9741              		.loc 1 836 0
 9742 0008 1846     		mov	r0, r3
 9743 000a BD46     		mov	sp, r7
 9744 000c 80BC     		pop	{r7}
 9745 000e 7047     		bx	lr
 9746              	.L78:
 9747              		.align	2
 9748              	.L77:
 9749 0010 24C00F40 		.word	1074774052
 9750              		.cfi_endproc
 9751              	.LFE23:
 9753              		.section	.text.HibernateDataSet,"ax",%progbits
 9754              		.align	2
 9755              		.global	HibernateDataSet
 9756              		.thumb
 9757              		.thumb_func
 9759              	HibernateDataSet:
 9760              	.LFB24:
 837:/home/cuil/workspace/arm/lm3s811/TI_Stellaris/driverlib/hibernate.c **** 
 838:/home/cuil/workspace/arm/lm3s811/TI_Stellaris/driverlib/hibernate.c **** //*****************************************************************************
 839:/home/cuil/workspace/arm/lm3s811/TI_Stellaris/driverlib/hibernate.c **** //
 840:/home/cuil/workspace/arm/lm3s811/TI_Stellaris/driverlib/hibernate.c **** //! Stores data in the battery-backed memory of the Hibernation module.
 841:/home/cuil/workspace/arm/lm3s811/TI_Stellaris/driverlib/hibernate.c **** //!
 842:/home/cuil/workspace/arm/lm3s811/TI_Stellaris/driverlib/hibernate.c **** //! \param pulData points to the data that the caller wants to store in the
 843:/home/cuil/workspace/arm/lm3s811/TI_Stellaris/driverlib/hibernate.c **** //! memory of the Hibernation module.
 844:/home/cuil/workspace/arm/lm3s811/TI_Stellaris/driverlib/hibernate.c **** //! \param ulCount is the count of 32-bit words to store.
 845:/home/cuil/workspace/arm/lm3s811/TI_Stellaris/driverlib/hibernate.c **** //!
 846:/home/cuil/workspace/arm/lm3s811/TI_Stellaris/driverlib/hibernate.c **** //! Stores a set of data in the Hibernation module battery-backed memory. 
 847:/home/cuil/workspace/arm/lm3s811/TI_Stellaris/driverlib/hibernate.c **** //! This memory is preserved when the power to the processor is turned off, 
 848:/home/cuil/workspace/arm/lm3s811/TI_Stellaris/driverlib/hibernate.c **** //! and can be used to store application state information which is available
 849:/home/cuil/workspace/arm/lm3s811/TI_Stellaris/driverlib/hibernate.c **** //! when the processor wakes.  Up to 64 32-bit words can be stored in the
 850:/home/cuil/workspace/arm/lm3s811/TI_Stellaris/driverlib/hibernate.c **** //! battery-backed memory.  The data can be restored by calling the
 851:/home/cuil/workspace/arm/lm3s811/TI_Stellaris/driverlib/hibernate.c **** //! HibernateDataGet() function.
 852:/home/cuil/workspace/arm/lm3s811/TI_Stellaris/driverlib/hibernate.c **** //!
 853:/home/cuil/workspace/arm/lm3s811/TI_Stellaris/driverlib/hibernate.c **** //! \note The amount of memory available in the Hibernation module varies
 854:/home/cuil/workspace/arm/lm3s811/TI_Stellaris/driverlib/hibernate.c **** //! across Stellaris devices.  Please consult the data sheet for the Stellaris
 855:/home/cuil/workspace/arm/lm3s811/TI_Stellaris/driverlib/hibernate.c **** //! device that you are using to determine the amount of memory available in
 856:/home/cuil/workspace/arm/lm3s811/TI_Stellaris/driverlib/hibernate.c **** //! the Hibernation module.
 857:/home/cuil/workspace/arm/lm3s811/TI_Stellaris/driverlib/hibernate.c **** //!
 858:/home/cuil/workspace/arm/lm3s811/TI_Stellaris/driverlib/hibernate.c **** //! \return None.
 859:/home/cuil/workspace/arm/lm3s811/TI_Stellaris/driverlib/hibernate.c **** //
 860:/home/cuil/workspace/arm/lm3s811/TI_Stellaris/driverlib/hibernate.c **** //*****************************************************************************
 861:/home/cuil/workspace/arm/lm3s811/TI_Stellaris/driverlib/hibernate.c **** void
 862:/home/cuil/workspace/arm/lm3s811/TI_Stellaris/driverlib/hibernate.c **** HibernateDataSet(unsigned long *pulData, unsigned long ulCount)
 863:/home/cuil/workspace/arm/lm3s811/TI_Stellaris/driverlib/hibernate.c **** {
 9761              		.loc 1 863 0
 9762              		.cfi_startproc
 9763              		@ args = 0, pretend = 0, frame = 16
 9764              		@ frame_needed = 1, uses_anonymous_args = 0
 9765 0000 80B5     		push	{r7, lr}
 9766              	.LCFI58:
 9767              		.cfi_def_cfa_offset 8
 9768 0002 84B0     		sub	sp, sp, #16
 9769              	.LCFI59:
 9770              		.cfi_def_cfa_offset 24
 9771 0004 00AF     		add	r7, sp, #0
 9772              		.cfi_offset 14, -4
 9773              		.cfi_offset 7, -8
 9774              	.LCFI60:
 9775              		.cfi_def_cfa_register 7
 9776 0006 7860     		str	r0, [r7, #4]
 9777 0008 3960     		str	r1, [r7, #0]
 864:/home/cuil/workspace/arm/lm3s811/TI_Stellaris/driverlib/hibernate.c ****     unsigned long ulIdx;
 865:/home/cuil/workspace/arm/lm3s811/TI_Stellaris/driverlib/hibernate.c **** 
 866:/home/cuil/workspace/arm/lm3s811/TI_Stellaris/driverlib/hibernate.c ****     //
 867:/home/cuil/workspace/arm/lm3s811/TI_Stellaris/driverlib/hibernate.c ****     // Check the arguments.
 868:/home/cuil/workspace/arm/lm3s811/TI_Stellaris/driverlib/hibernate.c ****     //
 869:/home/cuil/workspace/arm/lm3s811/TI_Stellaris/driverlib/hibernate.c ****     ASSERT(ulCount <= 64);
 870:/home/cuil/workspace/arm/lm3s811/TI_Stellaris/driverlib/hibernate.c ****     ASSERT(pulData != 0);
 871:/home/cuil/workspace/arm/lm3s811/TI_Stellaris/driverlib/hibernate.c **** 
 872:/home/cuil/workspace/arm/lm3s811/TI_Stellaris/driverlib/hibernate.c ****     //
 873:/home/cuil/workspace/arm/lm3s811/TI_Stellaris/driverlib/hibernate.c ****     // Loop through all the words to be stored, storing one at a time.
 874:/home/cuil/workspace/arm/lm3s811/TI_Stellaris/driverlib/hibernate.c ****     //
 875:/home/cuil/workspace/arm/lm3s811/TI_Stellaris/driverlib/hibernate.c ****     for(ulIdx = 0; ulIdx < ulCount; ulIdx++)
 9778              		.loc 1 875 0
 9779 000a 4FF00003 		mov	r3, #0
 9780 000e FB60     		str	r3, [r7, #12]
 9781 0010 11E0     		b	.L80
 9782              	.L81:
 876:/home/cuil/workspace/arm/lm3s811/TI_Stellaris/driverlib/hibernate.c ****     {
 877:/home/cuil/workspace/arm/lm3s811/TI_Stellaris/driverlib/hibernate.c ****         //
 878:/home/cuil/workspace/arm/lm3s811/TI_Stellaris/driverlib/hibernate.c ****         // Write a word to the battery-backed storage area.
 879:/home/cuil/workspace/arm/lm3s811/TI_Stellaris/driverlib/hibernate.c ****         //
 880:/home/cuil/workspace/arm/lm3s811/TI_Stellaris/driverlib/hibernate.c ****         HWREG(HIB_DATA + (ulIdx * 4)) = pulData[ulIdx];
 9783              		.loc 1 880 0 discriminator 2
 9784 0012 FA68     		ldr	r2, [r7, #12]
 9785 0014 0C4B     		ldr	r3, .L82
 9786 0016 D318     		adds	r3, r2, r3
 9787 0018 4FEA8303 		lsl	r3, r3, #2
 9788 001c FA68     		ldr	r2, [r7, #12]
 9789 001e 4FEA8202 		lsl	r2, r2, #2
 9790 0022 7968     		ldr	r1, [r7, #4]
 9791 0024 8A18     		adds	r2, r1, r2
 9792 0026 1268     		ldr	r2, [r2, #0]
 9793 0028 1A60     		str	r2, [r3, #0]
 881:/home/cuil/workspace/arm/lm3s811/TI_Stellaris/driverlib/hibernate.c **** 
 882:/home/cuil/workspace/arm/lm3s811/TI_Stellaris/driverlib/hibernate.c ****         //
 883:/home/cuil/workspace/arm/lm3s811/TI_Stellaris/driverlib/hibernate.c ****         // Wait for write completion
 884:/home/cuil/workspace/arm/lm3s811/TI_Stellaris/driverlib/hibernate.c ****         //
 885:/home/cuil/workspace/arm/lm3s811/TI_Stellaris/driverlib/hibernate.c ****         HibernateWriteComplete();
 9794              		.loc 1 885 0 discriminator 2
 9795 002a FFF7FEFF 		bl	HibernateWriteComplete
 875:/home/cuil/workspace/arm/lm3s811/TI_Stellaris/driverlib/hibernate.c ****     for(ulIdx = 0; ulIdx < ulCount; ulIdx++)
 9796              		.loc 1 875 0 discriminator 2
 9797 002e FB68     		ldr	r3, [r7, #12]
 9798 0030 03F10103 		add	r3, r3, #1
 9799 0034 FB60     		str	r3, [r7, #12]
 9800              	.L80:
 875:/home/cuil/workspace/arm/lm3s811/TI_Stellaris/driverlib/hibernate.c ****     for(ulIdx = 0; ulIdx < ulCount; ulIdx++)
 9801              		.loc 1 875 0 is_stmt 0 discriminator 1
 9802 0036 FA68     		ldr	r2, [r7, #12]
 9803 0038 3B68     		ldr	r3, [r7, #0]
 9804 003a 9A42     		cmp	r2, r3
 9805 003c E9D3     		bcc	.L81
 886:/home/cuil/workspace/arm/lm3s811/TI_Stellaris/driverlib/hibernate.c ****     }
 887:/home/cuil/workspace/arm/lm3s811/TI_Stellaris/driverlib/hibernate.c **** }
 9806              		.loc 1 887 0 is_stmt 1
 9807 003e 07F11007 		add	r7, r7, #16
 9808 0042 BD46     		mov	sp, r7
 9809 0044 80BD     		pop	{r7, pc}
 9810              	.L83:
 9811 0046 00BF     		.align	2
 9812              	.L82:
 9813 0048 0CF00310 		.word	268693516
 9814              		.cfi_endproc
 9815              	.LFE24:
 9817              		.section	.text.HibernateDataGet,"ax",%progbits
 9818              		.align	2
 9819              		.global	HibernateDataGet
 9820              		.thumb
 9821              		.thumb_func
 9823              	HibernateDataGet:
 9824              	.LFB25:
 888:/home/cuil/workspace/arm/lm3s811/TI_Stellaris/driverlib/hibernate.c **** 
 889:/home/cuil/workspace/arm/lm3s811/TI_Stellaris/driverlib/hibernate.c **** //*****************************************************************************
 890:/home/cuil/workspace/arm/lm3s811/TI_Stellaris/driverlib/hibernate.c **** //
 891:/home/cuil/workspace/arm/lm3s811/TI_Stellaris/driverlib/hibernate.c **** //! Reads a set of data from the battery-backed memory of the Hibernation 
 892:/home/cuil/workspace/arm/lm3s811/TI_Stellaris/driverlib/hibernate.c **** //! module.
 893:/home/cuil/workspace/arm/lm3s811/TI_Stellaris/driverlib/hibernate.c **** //!
 894:/home/cuil/workspace/arm/lm3s811/TI_Stellaris/driverlib/hibernate.c **** //! \param pulData points to a location where the data that is read from the
 895:/home/cuil/workspace/arm/lm3s811/TI_Stellaris/driverlib/hibernate.c **** //! Hibernation module is stored.
 896:/home/cuil/workspace/arm/lm3s811/TI_Stellaris/driverlib/hibernate.c **** //! \param ulCount is the count of 32-bit words to read.
 897:/home/cuil/workspace/arm/lm3s811/TI_Stellaris/driverlib/hibernate.c **** //!
 898:/home/cuil/workspace/arm/lm3s811/TI_Stellaris/driverlib/hibernate.c **** //! This function retrieves a set of data from the Hibernation module battery-
 899:/home/cuil/workspace/arm/lm3s811/TI_Stellaris/driverlib/hibernate.c **** //! backed memory that was previously stored with the HibernateDataSet() 
 900:/home/cuil/workspace/arm/lm3s811/TI_Stellaris/driverlib/hibernate.c **** //! function.  The caller must ensure that \e pulData points to a large enough 
 901:/home/cuil/workspace/arm/lm3s811/TI_Stellaris/driverlib/hibernate.c **** //! memory block to hold all the data that is read from the battery-backed 
 902:/home/cuil/workspace/arm/lm3s811/TI_Stellaris/driverlib/hibernate.c **** //! memory.
 903:/home/cuil/workspace/arm/lm3s811/TI_Stellaris/driverlib/hibernate.c **** //!
 904:/home/cuil/workspace/arm/lm3s811/TI_Stellaris/driverlib/hibernate.c **** //! \note The amount of memory available in the Hibernation module varies
 905:/home/cuil/workspace/arm/lm3s811/TI_Stellaris/driverlib/hibernate.c **** //! across Stellaris devices.  Please consult the data sheet for the Stellaris
 906:/home/cuil/workspace/arm/lm3s811/TI_Stellaris/driverlib/hibernate.c **** //! device that you are using to determine the amount of memory available in
 907:/home/cuil/workspace/arm/lm3s811/TI_Stellaris/driverlib/hibernate.c **** //! the Hibernation module.
 908:/home/cuil/workspace/arm/lm3s811/TI_Stellaris/driverlib/hibernate.c **** //!
 909:/home/cuil/workspace/arm/lm3s811/TI_Stellaris/driverlib/hibernate.c **** //! \return None.
 910:/home/cuil/workspace/arm/lm3s811/TI_Stellaris/driverlib/hibernate.c **** //
 911:/home/cuil/workspace/arm/lm3s811/TI_Stellaris/driverlib/hibernate.c **** //*****************************************************************************
 912:/home/cuil/workspace/arm/lm3s811/TI_Stellaris/driverlib/hibernate.c **** void
 913:/home/cuil/workspace/arm/lm3s811/TI_Stellaris/driverlib/hibernate.c **** HibernateDataGet(unsigned long *pulData, unsigned long ulCount)
 914:/home/cuil/workspace/arm/lm3s811/TI_Stellaris/driverlib/hibernate.c **** {
 9825              		.loc 1 914 0
 9826              		.cfi_startproc
 9827              		@ args = 0, pretend = 0, frame = 16
 9828              		@ frame_needed = 1, uses_anonymous_args = 0
 9829              		@ link register save eliminated.
 9830 0000 80B4     		push	{r7}
 9831              	.LCFI61:
 9832              		.cfi_def_cfa_offset 4
 9833 0002 85B0     		sub	sp, sp, #20
 9834              	.LCFI62:
 9835              		.cfi_def_cfa_offset 24
 9836 0004 00AF     		add	r7, sp, #0
 9837              		.cfi_offset 7, -4
 9838              	.LCFI63:
 9839              		.cfi_def_cfa_register 7
 9840 0006 7860     		str	r0, [r7, #4]
 9841 0008 3960     		str	r1, [r7, #0]
 915:/home/cuil/workspace/arm/lm3s811/TI_Stellaris/driverlib/hibernate.c ****     unsigned long ulIdx;
 916:/home/cuil/workspace/arm/lm3s811/TI_Stellaris/driverlib/hibernate.c **** 
 917:/home/cuil/workspace/arm/lm3s811/TI_Stellaris/driverlib/hibernate.c ****     //
 918:/home/cuil/workspace/arm/lm3s811/TI_Stellaris/driverlib/hibernate.c ****     // Check the arguments.
 919:/home/cuil/workspace/arm/lm3s811/TI_Stellaris/driverlib/hibernate.c ****     //
 920:/home/cuil/workspace/arm/lm3s811/TI_Stellaris/driverlib/hibernate.c ****     ASSERT(ulCount <= 64);
 921:/home/cuil/workspace/arm/lm3s811/TI_Stellaris/driverlib/hibernate.c ****     ASSERT(pulData != 0);
 922:/home/cuil/workspace/arm/lm3s811/TI_Stellaris/driverlib/hibernate.c **** 
 923:/home/cuil/workspace/arm/lm3s811/TI_Stellaris/driverlib/hibernate.c ****     //
 924:/home/cuil/workspace/arm/lm3s811/TI_Stellaris/driverlib/hibernate.c ****     // Loop through all the words to be restored, reading one at a time.
 925:/home/cuil/workspace/arm/lm3s811/TI_Stellaris/driverlib/hibernate.c ****     //
 926:/home/cuil/workspace/arm/lm3s811/TI_Stellaris/driverlib/hibernate.c ****     for(ulIdx = 0; ulIdx < ulCount; ulIdx++)
 9842              		.loc 1 926 0
 9843 000a 4FF00003 		mov	r3, #0
 9844 000e FB60     		str	r3, [r7, #12]
 9845 0010 0FE0     		b	.L85
 9846              	.L86:
 927:/home/cuil/workspace/arm/lm3s811/TI_Stellaris/driverlib/hibernate.c ****     {
 928:/home/cuil/workspace/arm/lm3s811/TI_Stellaris/driverlib/hibernate.c ****         //
 929:/home/cuil/workspace/arm/lm3s811/TI_Stellaris/driverlib/hibernate.c ****         // Read a word from the battery-backed storage area.  No delay is
 930:/home/cuil/workspace/arm/lm3s811/TI_Stellaris/driverlib/hibernate.c ****         // required between reads.
 931:/home/cuil/workspace/arm/lm3s811/TI_Stellaris/driverlib/hibernate.c ****         //
 932:/home/cuil/workspace/arm/lm3s811/TI_Stellaris/driverlib/hibernate.c ****         pulData[ulIdx] = HWREG(HIB_DATA + (ulIdx * 4));
 9847              		.loc 1 932 0 discriminator 2
 9848 0012 FB68     		ldr	r3, [r7, #12]
 9849 0014 4FEA8303 		lsl	r3, r3, #2
 9850 0018 7A68     		ldr	r2, [r7, #4]
 9851 001a D218     		adds	r2, r2, r3
 9852 001c F968     		ldr	r1, [r7, #12]
 9853 001e 094B     		ldr	r3, .L87
 9854 0020 CB18     		adds	r3, r1, r3
 9855 0022 4FEA8303 		lsl	r3, r3, #2
 9856 0026 1B68     		ldr	r3, [r3, #0]
 9857 0028 1360     		str	r3, [r2, #0]
 926:/home/cuil/workspace/arm/lm3s811/TI_Stellaris/driverlib/hibernate.c ****     for(ulIdx = 0; ulIdx < ulCount; ulIdx++)
 9858              		.loc 1 926 0 discriminator 2
 9859 002a FB68     		ldr	r3, [r7, #12]
 9860 002c 03F10103 		add	r3, r3, #1
 9861 0030 FB60     		str	r3, [r7, #12]
 9862              	.L85:
 926:/home/cuil/workspace/arm/lm3s811/TI_Stellaris/driverlib/hibernate.c ****     for(ulIdx = 0; ulIdx < ulCount; ulIdx++)
 9863              		.loc 1 926 0 is_stmt 0 discriminator 1
 9864 0032 FA68     		ldr	r2, [r7, #12]
 9865 0034 3B68     		ldr	r3, [r7, #0]
 9866 0036 9A42     		cmp	r2, r3
 9867 0038 EBD3     		bcc	.L86
 933:/home/cuil/workspace/arm/lm3s811/TI_Stellaris/driverlib/hibernate.c ****     }
 934:/home/cuil/workspace/arm/lm3s811/TI_Stellaris/driverlib/hibernate.c **** }
 9868              		.loc 1 934 0 is_stmt 1
 9869 003a 07F11407 		add	r7, r7, #20
 9870 003e BD46     		mov	sp, r7
 9871 0040 80BC     		pop	{r7}
 9872 0042 7047     		bx	lr
 9873              	.L88:
 9874              		.align	2
 9875              	.L87:
 9876 0044 0CF00310 		.word	268693516
 9877              		.cfi_endproc
 9878              	.LFE25:
 9880              		.section	.text.HibernateRequest,"ax",%progbits
 9881              		.align	2
 9882              		.global	HibernateRequest
 9883              		.thumb
 9884              		.thumb_func
 9886              	HibernateRequest:
 9887              	.LFB26:
 935:/home/cuil/workspace/arm/lm3s811/TI_Stellaris/driverlib/hibernate.c **** 
 936:/home/cuil/workspace/arm/lm3s811/TI_Stellaris/driverlib/hibernate.c **** //*****************************************************************************
 937:/home/cuil/workspace/arm/lm3s811/TI_Stellaris/driverlib/hibernate.c **** //
 938:/home/cuil/workspace/arm/lm3s811/TI_Stellaris/driverlib/hibernate.c **** //! Requests hibernation mode.
 939:/home/cuil/workspace/arm/lm3s811/TI_Stellaris/driverlib/hibernate.c **** //!
 940:/home/cuil/workspace/arm/lm3s811/TI_Stellaris/driverlib/hibernate.c **** //! This function requests the Hibernation module to disable the external
 941:/home/cuil/workspace/arm/lm3s811/TI_Stellaris/driverlib/hibernate.c **** //! regulator, thus removing power from the processor and all peripherals.  The
 942:/home/cuil/workspace/arm/lm3s811/TI_Stellaris/driverlib/hibernate.c **** //! Hibernation module remains powered from the battery or auxiliary power
 943:/home/cuil/workspace/arm/lm3s811/TI_Stellaris/driverlib/hibernate.c **** //! supply.
 944:/home/cuil/workspace/arm/lm3s811/TI_Stellaris/driverlib/hibernate.c **** //!
 945:/home/cuil/workspace/arm/lm3s811/TI_Stellaris/driverlib/hibernate.c **** //! The Hibernation module re-enables the external regulator when one of
 946:/home/cuil/workspace/arm/lm3s811/TI_Stellaris/driverlib/hibernate.c **** //! the configured wake conditions occurs (such as RTC match or external
 947:/home/cuil/workspace/arm/lm3s811/TI_Stellaris/driverlib/hibernate.c **** //! \b WAKE pin).  When the power is restored the processor goes through a
 948:/home/cuil/workspace/arm/lm3s811/TI_Stellaris/driverlib/hibernate.c **** //! power-on reset although the Hibernation module is not reset.  The processor 
 949:/home/cuil/workspace/arm/lm3s811/TI_Stellaris/driverlib/hibernate.c **** //! can retrieve saved state information with the HibernateDataGet() function.  
 950:/home/cuil/workspace/arm/lm3s811/TI_Stellaris/driverlib/hibernate.c **** //! Prior to calling the function to request hibernation mode, the conditions 
 951:/home/cuil/workspace/arm/lm3s811/TI_Stellaris/driverlib/hibernate.c **** //! for waking must have already been set by using the HibernateWakeSet() 
 952:/home/cuil/workspace/arm/lm3s811/TI_Stellaris/driverlib/hibernate.c **** //! function.
 953:/home/cuil/workspace/arm/lm3s811/TI_Stellaris/driverlib/hibernate.c **** //!
 954:/home/cuil/workspace/arm/lm3s811/TI_Stellaris/driverlib/hibernate.c **** //! Note that this function may return because some time may elapse before the
 955:/home/cuil/workspace/arm/lm3s811/TI_Stellaris/driverlib/hibernate.c **** //! power is actually removed, or it may not be removed at all.  For this
 956:/home/cuil/workspace/arm/lm3s811/TI_Stellaris/driverlib/hibernate.c **** //! reason, the processor continues to execute instructions for some time
 957:/home/cuil/workspace/arm/lm3s811/TI_Stellaris/driverlib/hibernate.c **** //! and the caller should be prepared for this function to return.  There are
 958:/home/cuil/workspace/arm/lm3s811/TI_Stellaris/driverlib/hibernate.c **** //! various reasons why the power may not be removed.  For example, if the
 959:/home/cuil/workspace/arm/lm3s811/TI_Stellaris/driverlib/hibernate.c **** //! HibernateLowBatSet() function was used to configure an abort if low
 960:/home/cuil/workspace/arm/lm3s811/TI_Stellaris/driverlib/hibernate.c **** //! battery is detected, then the power is not removed if the battery
 961:/home/cuil/workspace/arm/lm3s811/TI_Stellaris/driverlib/hibernate.c **** //! voltage is too low.  There may be other reasons, related to the external
 962:/home/cuil/workspace/arm/lm3s811/TI_Stellaris/driverlib/hibernate.c **** //! circuit design, that a request for hibernation may not actually occur.
 963:/home/cuil/workspace/arm/lm3s811/TI_Stellaris/driverlib/hibernate.c **** //!
 964:/home/cuil/workspace/arm/lm3s811/TI_Stellaris/driverlib/hibernate.c **** //! For all these reasons, the caller must be prepared for this function to
 965:/home/cuil/workspace/arm/lm3s811/TI_Stellaris/driverlib/hibernate.c **** //! return.  The simplest way to handle it is to just enter an infinite loop
 966:/home/cuil/workspace/arm/lm3s811/TI_Stellaris/driverlib/hibernate.c **** //! and wait for the power to be removed.
 967:/home/cuil/workspace/arm/lm3s811/TI_Stellaris/driverlib/hibernate.c **** //!
 968:/home/cuil/workspace/arm/lm3s811/TI_Stellaris/driverlib/hibernate.c **** //! \return None.
 969:/home/cuil/workspace/arm/lm3s811/TI_Stellaris/driverlib/hibernate.c **** //
 970:/home/cuil/workspace/arm/lm3s811/TI_Stellaris/driverlib/hibernate.c **** //*****************************************************************************
 971:/home/cuil/workspace/arm/lm3s811/TI_Stellaris/driverlib/hibernate.c **** void
 972:/home/cuil/workspace/arm/lm3s811/TI_Stellaris/driverlib/hibernate.c **** HibernateRequest(void)
 973:/home/cuil/workspace/arm/lm3s811/TI_Stellaris/driverlib/hibernate.c **** {
 9888              		.loc 1 973 0
 9889              		.cfi_startproc
 9890              		@ args = 0, pretend = 0, frame = 0
 9891              		@ frame_needed = 1, uses_anonymous_args = 0
 9892 0000 80B5     		push	{r7, lr}
 9893              	.LCFI64:
 9894              		.cfi_def_cfa_offset 8
 9895 0002 00AF     		add	r7, sp, #0
 9896              		.cfi_offset 14, -4
 9897              		.cfi_offset 7, -8
 9898              	.LCFI65:
 9899              		.cfi_def_cfa_register 7
 974:/home/cuil/workspace/arm/lm3s811/TI_Stellaris/driverlib/hibernate.c ****     //
 975:/home/cuil/workspace/arm/lm3s811/TI_Stellaris/driverlib/hibernate.c ****     // Set the bit in the control register to cut main power to the processor.
 976:/home/cuil/workspace/arm/lm3s811/TI_Stellaris/driverlib/hibernate.c ****     //
 977:/home/cuil/workspace/arm/lm3s811/TI_Stellaris/driverlib/hibernate.c ****     HWREG(HIB_CTL) |= HIB_CTL_HIBREQ;
 9900              		.loc 1 977 0
 9901 0004 044B     		ldr	r3, .L90
 9902 0006 044A     		ldr	r2, .L90
 9903 0008 1268     		ldr	r2, [r2, #0]
 9904 000a 42F00202 		orr	r2, r2, #2
 9905 000e 1A60     		str	r2, [r3, #0]
 978:/home/cuil/workspace/arm/lm3s811/TI_Stellaris/driverlib/hibernate.c **** 
 979:/home/cuil/workspace/arm/lm3s811/TI_Stellaris/driverlib/hibernate.c ****     //
 980:/home/cuil/workspace/arm/lm3s811/TI_Stellaris/driverlib/hibernate.c ****     // Wait for write completion
 981:/home/cuil/workspace/arm/lm3s811/TI_Stellaris/driverlib/hibernate.c ****     //
 982:/home/cuil/workspace/arm/lm3s811/TI_Stellaris/driverlib/hibernate.c ****     HibernateWriteComplete();
 9906              		.loc 1 982 0
 9907 0010 FFF7FEFF 		bl	HibernateWriteComplete
 983:/home/cuil/workspace/arm/lm3s811/TI_Stellaris/driverlib/hibernate.c **** }
 9908              		.loc 1 983 0
 9909 0014 80BD     		pop	{r7, pc}
 9910              	.L91:
 9911 0016 00BF     		.align	2
 9912              	.L90:
 9913 0018 10C00F40 		.word	1074774032
 9914              		.cfi_endproc
 9915              	.LFE26:
 9917              		.section	.text.HibernateIntEnable,"ax",%progbits
 9918              		.align	2
 9919              		.global	HibernateIntEnable
 9920              		.thumb
 9921              		.thumb_func
 9923              	HibernateIntEnable:
 9924              	.LFB27:
 984:/home/cuil/workspace/arm/lm3s811/TI_Stellaris/driverlib/hibernate.c **** 
 985:/home/cuil/workspace/arm/lm3s811/TI_Stellaris/driverlib/hibernate.c **** //*****************************************************************************
 986:/home/cuil/workspace/arm/lm3s811/TI_Stellaris/driverlib/hibernate.c **** //
 987:/home/cuil/workspace/arm/lm3s811/TI_Stellaris/driverlib/hibernate.c **** //! Enables interrupts for the Hibernation module.
 988:/home/cuil/workspace/arm/lm3s811/TI_Stellaris/driverlib/hibernate.c **** //!
 989:/home/cuil/workspace/arm/lm3s811/TI_Stellaris/driverlib/hibernate.c **** //! \param ulIntFlags is the bit mask of the interrupts to be enabled.
 990:/home/cuil/workspace/arm/lm3s811/TI_Stellaris/driverlib/hibernate.c **** //!
 991:/home/cuil/workspace/arm/lm3s811/TI_Stellaris/driverlib/hibernate.c **** //! This function enables the specified interrupt sources from the Hibernation
 992:/home/cuil/workspace/arm/lm3s811/TI_Stellaris/driverlib/hibernate.c **** //! module.
 993:/home/cuil/workspace/arm/lm3s811/TI_Stellaris/driverlib/hibernate.c **** //!
 994:/home/cuil/workspace/arm/lm3s811/TI_Stellaris/driverlib/hibernate.c **** //! The \e ulIntFlags parameter must be the logical OR of any combination of
 995:/home/cuil/workspace/arm/lm3s811/TI_Stellaris/driverlib/hibernate.c **** //! the following:
 996:/home/cuil/workspace/arm/lm3s811/TI_Stellaris/driverlib/hibernate.c **** //!
 997:/home/cuil/workspace/arm/lm3s811/TI_Stellaris/driverlib/hibernate.c **** //! - \b HIBERNATE_INT_WR_COMPLETE - write complete interrupt
 998:/home/cuil/workspace/arm/lm3s811/TI_Stellaris/driverlib/hibernate.c **** //! - \b HIBERNATE_INT_PIN_WAKE - wake from pin interrupt
 999:/home/cuil/workspace/arm/lm3s811/TI_Stellaris/driverlib/hibernate.c **** //! - \b HIBERNATE_INT_LOW_BAT - low battery interrupt
1000:/home/cuil/workspace/arm/lm3s811/TI_Stellaris/driverlib/hibernate.c **** //! - \b HIBERNATE_INT_RTC_MATCH_0 - RTC match 0 interrupt
1001:/home/cuil/workspace/arm/lm3s811/TI_Stellaris/driverlib/hibernate.c **** //! - \b HIBERNATE_INT_RTC_MATCH_1 - RTC match 1 interrupt
1002:/home/cuil/workspace/arm/lm3s811/TI_Stellaris/driverlib/hibernate.c **** //!
1003:/home/cuil/workspace/arm/lm3s811/TI_Stellaris/driverlib/hibernate.c **** //! \note The \b HIBERNATE_INT_WR_COMPLETE and \b HIBERNATE_INT_RTC_MATCH_1 
1004:/home/cuil/workspace/arm/lm3s811/TI_Stellaris/driverlib/hibernate.c **** //! settings are not available on all Stellaris devices.  Please consult the 
1005:/home/cuil/workspace/arm/lm3s811/TI_Stellaris/driverlib/hibernate.c **** //! data sheet for the Stellaris device that you are using to determine if  
1006:/home/cuil/workspace/arm/lm3s811/TI_Stellaris/driverlib/hibernate.c **** //! these interrupt sources are available.
1007:/home/cuil/workspace/arm/lm3s811/TI_Stellaris/driverlib/hibernate.c **** //!
1008:/home/cuil/workspace/arm/lm3s811/TI_Stellaris/driverlib/hibernate.c **** //! \return None.
1009:/home/cuil/workspace/arm/lm3s811/TI_Stellaris/driverlib/hibernate.c **** //
1010:/home/cuil/workspace/arm/lm3s811/TI_Stellaris/driverlib/hibernate.c **** //*****************************************************************************
1011:/home/cuil/workspace/arm/lm3s811/TI_Stellaris/driverlib/hibernate.c **** void
1012:/home/cuil/workspace/arm/lm3s811/TI_Stellaris/driverlib/hibernate.c **** HibernateIntEnable(unsigned long ulIntFlags)
1013:/home/cuil/workspace/arm/lm3s811/TI_Stellaris/driverlib/hibernate.c **** {
 9925              		.loc 1 1013 0
 9926              		.cfi_startproc
 9927              		@ args = 0, pretend = 0, frame = 8
 9928              		@ frame_needed = 1, uses_anonymous_args = 0
 9929 0000 80B5     		push	{r7, lr}
 9930              	.LCFI66:
 9931              		.cfi_def_cfa_offset 8
 9932 0002 82B0     		sub	sp, sp, #8
 9933              	.LCFI67:
 9934              		.cfi_def_cfa_offset 16
 9935 0004 00AF     		add	r7, sp, #0
 9936              		.cfi_offset 14, -4
 9937              		.cfi_offset 7, -8
 9938              	.LCFI68:
 9939              		.cfi_def_cfa_register 7
 9940 0006 7860     		str	r0, [r7, #4]
1014:/home/cuil/workspace/arm/lm3s811/TI_Stellaris/driverlib/hibernate.c ****     //
1015:/home/cuil/workspace/arm/lm3s811/TI_Stellaris/driverlib/hibernate.c ****     // Check the arguments.
1016:/home/cuil/workspace/arm/lm3s811/TI_Stellaris/driverlib/hibernate.c ****     //
1017:/home/cuil/workspace/arm/lm3s811/TI_Stellaris/driverlib/hibernate.c ****     ASSERT(!(ulIntFlags & ~(HIBERNATE_INT_PIN_WAKE | HIBERNATE_INT_LOW_BAT |
1018:/home/cuil/workspace/arm/lm3s811/TI_Stellaris/driverlib/hibernate.c ****                             HIBERNATE_INT_RTC_MATCH_0 |
1019:/home/cuil/workspace/arm/lm3s811/TI_Stellaris/driverlib/hibernate.c ****                             HIBERNATE_INT_RTC_MATCH_1 |
1020:/home/cuil/workspace/arm/lm3s811/TI_Stellaris/driverlib/hibernate.c ****                             HIBERNATE_INT_WR_COMPLETE)));
1021:/home/cuil/workspace/arm/lm3s811/TI_Stellaris/driverlib/hibernate.c **** 
1022:/home/cuil/workspace/arm/lm3s811/TI_Stellaris/driverlib/hibernate.c ****     //
1023:/home/cuil/workspace/arm/lm3s811/TI_Stellaris/driverlib/hibernate.c ****     // Set the specified interrupt mask bits.
1024:/home/cuil/workspace/arm/lm3s811/TI_Stellaris/driverlib/hibernate.c ****     //
1025:/home/cuil/workspace/arm/lm3s811/TI_Stellaris/driverlib/hibernate.c ****     HWREG(HIB_IM) |= ulIntFlags;
 9941              		.loc 1 1025 0
 9942 0008 064B     		ldr	r3, .L93
 9943 000a 064A     		ldr	r2, .L93
 9944 000c 1168     		ldr	r1, [r2, #0]
 9945 000e 7A68     		ldr	r2, [r7, #4]
 9946 0010 41EA0202 		orr	r2, r1, r2
 9947 0014 1A60     		str	r2, [r3, #0]
1026:/home/cuil/workspace/arm/lm3s811/TI_Stellaris/driverlib/hibernate.c **** 
1027:/home/cuil/workspace/arm/lm3s811/TI_Stellaris/driverlib/hibernate.c ****     //
1028:/home/cuil/workspace/arm/lm3s811/TI_Stellaris/driverlib/hibernate.c ****     // Wait for write completion
1029:/home/cuil/workspace/arm/lm3s811/TI_Stellaris/driverlib/hibernate.c ****     //
1030:/home/cuil/workspace/arm/lm3s811/TI_Stellaris/driverlib/hibernate.c ****     HibernateWriteComplete();
 9948              		.loc 1 1030 0
 9949 0016 FFF7FEFF 		bl	HibernateWriteComplete
1031:/home/cuil/workspace/arm/lm3s811/TI_Stellaris/driverlib/hibernate.c **** }
 9950              		.loc 1 1031 0
 9951 001a 07F10807 		add	r7, r7, #8
 9952 001e BD46     		mov	sp, r7
 9953 0020 80BD     		pop	{r7, pc}
 9954              	.L94:
 9955 0022 00BF     		.align	2
 9956              	.L93:
 9957 0024 14C00F40 		.word	1074774036
 9958              		.cfi_endproc
 9959              	.LFE27:
 9961              		.section	.text.HibernateIntDisable,"ax",%progbits
 9962              		.align	2
 9963              		.global	HibernateIntDisable
 9964              		.thumb
 9965              		.thumb_func
 9967              	HibernateIntDisable:
 9968              	.LFB28:
1032:/home/cuil/workspace/arm/lm3s811/TI_Stellaris/driverlib/hibernate.c **** 
1033:/home/cuil/workspace/arm/lm3s811/TI_Stellaris/driverlib/hibernate.c **** //*****************************************************************************
1034:/home/cuil/workspace/arm/lm3s811/TI_Stellaris/driverlib/hibernate.c **** //
1035:/home/cuil/workspace/arm/lm3s811/TI_Stellaris/driverlib/hibernate.c **** //! Disables interrupts for the Hibernation module.
1036:/home/cuil/workspace/arm/lm3s811/TI_Stellaris/driverlib/hibernate.c **** //!
1037:/home/cuil/workspace/arm/lm3s811/TI_Stellaris/driverlib/hibernate.c **** //! \param ulIntFlags is the bit mask of the interrupts to be disabled.
1038:/home/cuil/workspace/arm/lm3s811/TI_Stellaris/driverlib/hibernate.c **** //!
1039:/home/cuil/workspace/arm/lm3s811/TI_Stellaris/driverlib/hibernate.c **** //! This function disables the specified interrupt sources from the 
1040:/home/cuil/workspace/arm/lm3s811/TI_Stellaris/driverlib/hibernate.c **** //! Hibernation module.
1041:/home/cuil/workspace/arm/lm3s811/TI_Stellaris/driverlib/hibernate.c **** //!
1042:/home/cuil/workspace/arm/lm3s811/TI_Stellaris/driverlib/hibernate.c **** //! The \e ulIntFlags parameter has the same definition as the \e ulIntFlags
1043:/home/cuil/workspace/arm/lm3s811/TI_Stellaris/driverlib/hibernate.c **** //! parameter to the HibernateIntEnable() function.
1044:/home/cuil/workspace/arm/lm3s811/TI_Stellaris/driverlib/hibernate.c **** //!
1045:/home/cuil/workspace/arm/lm3s811/TI_Stellaris/driverlib/hibernate.c **** //! \return None.
1046:/home/cuil/workspace/arm/lm3s811/TI_Stellaris/driverlib/hibernate.c **** //
1047:/home/cuil/workspace/arm/lm3s811/TI_Stellaris/driverlib/hibernate.c **** //*****************************************************************************
1048:/home/cuil/workspace/arm/lm3s811/TI_Stellaris/driverlib/hibernate.c **** void
1049:/home/cuil/workspace/arm/lm3s811/TI_Stellaris/driverlib/hibernate.c **** HibernateIntDisable(unsigned long ulIntFlags)
1050:/home/cuil/workspace/arm/lm3s811/TI_Stellaris/driverlib/hibernate.c **** {
 9969              		.loc 1 1050 0
 9970              		.cfi_startproc
 9971              		@ args = 0, pretend = 0, frame = 8
 9972              		@ frame_needed = 1, uses_anonymous_args = 0
 9973 0000 80B5     		push	{r7, lr}
 9974              	.LCFI69:
 9975              		.cfi_def_cfa_offset 8
 9976 0002 82B0     		sub	sp, sp, #8
 9977              	.LCFI70:
 9978              		.cfi_def_cfa_offset 16
 9979 0004 00AF     		add	r7, sp, #0
 9980              		.cfi_offset 14, -4
 9981              		.cfi_offset 7, -8
 9982              	.LCFI71:
 9983              		.cfi_def_cfa_register 7
 9984 0006 7860     		str	r0, [r7, #4]
1051:/home/cuil/workspace/arm/lm3s811/TI_Stellaris/driverlib/hibernate.c ****     //
1052:/home/cuil/workspace/arm/lm3s811/TI_Stellaris/driverlib/hibernate.c ****     // Check the arguments.
1053:/home/cuil/workspace/arm/lm3s811/TI_Stellaris/driverlib/hibernate.c ****     //
1054:/home/cuil/workspace/arm/lm3s811/TI_Stellaris/driverlib/hibernate.c ****     ASSERT(!(ulIntFlags & ~(HIBERNATE_INT_PIN_WAKE | HIBERNATE_INT_LOW_BAT |
1055:/home/cuil/workspace/arm/lm3s811/TI_Stellaris/driverlib/hibernate.c ****                             HIBERNATE_INT_RTC_MATCH_0 |
1056:/home/cuil/workspace/arm/lm3s811/TI_Stellaris/driverlib/hibernate.c ****                             HIBERNATE_INT_RTC_MATCH_1 |
1057:/home/cuil/workspace/arm/lm3s811/TI_Stellaris/driverlib/hibernate.c ****                             HIBERNATE_INT_WR_COMPLETE)));
1058:/home/cuil/workspace/arm/lm3s811/TI_Stellaris/driverlib/hibernate.c **** 
1059:/home/cuil/workspace/arm/lm3s811/TI_Stellaris/driverlib/hibernate.c ****     //
1060:/home/cuil/workspace/arm/lm3s811/TI_Stellaris/driverlib/hibernate.c ****     // Clear the specified interrupt mask bits.
1061:/home/cuil/workspace/arm/lm3s811/TI_Stellaris/driverlib/hibernate.c ****     //
1062:/home/cuil/workspace/arm/lm3s811/TI_Stellaris/driverlib/hibernate.c ****     HWREG(HIB_IM) &= ~ulIntFlags;
 9985              		.loc 1 1062 0
 9986 0008 074B     		ldr	r3, .L96
 9987 000a 074A     		ldr	r2, .L96
 9988 000c 1168     		ldr	r1, [r2, #0]
 9989 000e 7A68     		ldr	r2, [r7, #4]
 9990 0010 6FEA0202 		mvn	r2, r2
 9991 0014 01EA0202 		and	r2, r1, r2
 9992 0018 1A60     		str	r2, [r3, #0]
1063:/home/cuil/workspace/arm/lm3s811/TI_Stellaris/driverlib/hibernate.c **** 
1064:/home/cuil/workspace/arm/lm3s811/TI_Stellaris/driverlib/hibernate.c ****     //
1065:/home/cuil/workspace/arm/lm3s811/TI_Stellaris/driverlib/hibernate.c ****     // Wait for write completion
1066:/home/cuil/workspace/arm/lm3s811/TI_Stellaris/driverlib/hibernate.c ****     //
1067:/home/cuil/workspace/arm/lm3s811/TI_Stellaris/driverlib/hibernate.c ****     HibernateWriteComplete();
 9993              		.loc 1 1067 0
 9994 001a FFF7FEFF 		bl	HibernateWriteComplete
1068:/home/cuil/workspace/arm/lm3s811/TI_Stellaris/driverlib/hibernate.c **** }
 9995              		.loc 1 1068 0
 9996 001e 07F10807 		add	r7, r7, #8
 9997 0022 BD46     		mov	sp, r7
 9998 0024 80BD     		pop	{r7, pc}
 9999              	.L97:
 10000 0026 00BF     		.align	2
 10001              	.L96:
 10002 0028 14C00F40 		.word	1074774036
 10003              		.cfi_endproc
 10004              	.LFE28:
 10006              		.section	.text.HibernateIntRegister,"ax",%progbits
 10007              		.align	2
 10008              		.global	HibernateIntRegister
 10009              		.thumb
 10010              		.thumb_func
 10012              	HibernateIntRegister:
 10013              	.LFB29:
1069:/home/cuil/workspace/arm/lm3s811/TI_Stellaris/driverlib/hibernate.c **** 
1070:/home/cuil/workspace/arm/lm3s811/TI_Stellaris/driverlib/hibernate.c **** //*****************************************************************************
1071:/home/cuil/workspace/arm/lm3s811/TI_Stellaris/driverlib/hibernate.c **** //
1072:/home/cuil/workspace/arm/lm3s811/TI_Stellaris/driverlib/hibernate.c **** //! Registers an interrupt handler for the Hibernation module interrupt.
1073:/home/cuil/workspace/arm/lm3s811/TI_Stellaris/driverlib/hibernate.c **** //!
1074:/home/cuil/workspace/arm/lm3s811/TI_Stellaris/driverlib/hibernate.c **** //! \param pfnHandler points to the function to be called when a hibernation
1075:/home/cuil/workspace/arm/lm3s811/TI_Stellaris/driverlib/hibernate.c **** //! interrupt occurs.
1076:/home/cuil/workspace/arm/lm3s811/TI_Stellaris/driverlib/hibernate.c **** //!
1077:/home/cuil/workspace/arm/lm3s811/TI_Stellaris/driverlib/hibernate.c **** //! This function registers the interrupt handler in the system interrupt 
1078:/home/cuil/workspace/arm/lm3s811/TI_Stellaris/driverlib/hibernate.c **** //! controller.  The interrupt is enabled at the global level, but individual 
1079:/home/cuil/workspace/arm/lm3s811/TI_Stellaris/driverlib/hibernate.c **** //! interrupt sources must still be enabled with a call to 
1080:/home/cuil/workspace/arm/lm3s811/TI_Stellaris/driverlib/hibernate.c **** //! HibernateIntEnable().
1081:/home/cuil/workspace/arm/lm3s811/TI_Stellaris/driverlib/hibernate.c **** //!
1082:/home/cuil/workspace/arm/lm3s811/TI_Stellaris/driverlib/hibernate.c **** //! \sa IntRegister() for important information about registering interrupt
1083:/home/cuil/workspace/arm/lm3s811/TI_Stellaris/driverlib/hibernate.c **** //! handlers.
1084:/home/cuil/workspace/arm/lm3s811/TI_Stellaris/driverlib/hibernate.c **** //!
1085:/home/cuil/workspace/arm/lm3s811/TI_Stellaris/driverlib/hibernate.c **** //! \return None.
1086:/home/cuil/workspace/arm/lm3s811/TI_Stellaris/driverlib/hibernate.c **** //
1087:/home/cuil/workspace/arm/lm3s811/TI_Stellaris/driverlib/hibernate.c **** //*****************************************************************************
1088:/home/cuil/workspace/arm/lm3s811/TI_Stellaris/driverlib/hibernate.c **** void
1089:/home/cuil/workspace/arm/lm3s811/TI_Stellaris/driverlib/hibernate.c **** HibernateIntRegister(void (*pfnHandler)(void))
1090:/home/cuil/workspace/arm/lm3s811/TI_Stellaris/driverlib/hibernate.c **** {
 10014              		.loc 1 1090 0
 10015              		.cfi_startproc
 10016              		@ args = 0, pretend = 0, frame = 8
 10017              		@ frame_needed = 1, uses_anonymous_args = 0
 10018 0000 80B5     		push	{r7, lr}
 10019              	.LCFI72:
 10020              		.cfi_def_cfa_offset 8
 10021 0002 82B0     		sub	sp, sp, #8
 10022              	.LCFI73:
 10023              		.cfi_def_cfa_offset 16
 10024 0004 00AF     		add	r7, sp, #0
 10025              		.cfi_offset 14, -4
 10026              		.cfi_offset 7, -8
 10027              	.LCFI74:
 10028              		.cfi_def_cfa_register 7
 10029 0006 7860     		str	r0, [r7, #4]
1091:/home/cuil/workspace/arm/lm3s811/TI_Stellaris/driverlib/hibernate.c ****     //
1092:/home/cuil/workspace/arm/lm3s811/TI_Stellaris/driverlib/hibernate.c ****     // Register the interrupt handler.
1093:/home/cuil/workspace/arm/lm3s811/TI_Stellaris/driverlib/hibernate.c ****     //
1094:/home/cuil/workspace/arm/lm3s811/TI_Stellaris/driverlib/hibernate.c ****     IntRegister(INT_HIBERNATE, pfnHandler);
 10030              		.loc 1 1094 0
 10031 0008 4FF03B00 		mov	r0, #59
 10032 000c 7968     		ldr	r1, [r7, #4]
 10033 000e FFF7FEFF 		bl	IntRegister
1095:/home/cuil/workspace/arm/lm3s811/TI_Stellaris/driverlib/hibernate.c **** 
1096:/home/cuil/workspace/arm/lm3s811/TI_Stellaris/driverlib/hibernate.c ****     //
1097:/home/cuil/workspace/arm/lm3s811/TI_Stellaris/driverlib/hibernate.c ****     // Enable the hibernate module interrupt.
1098:/home/cuil/workspace/arm/lm3s811/TI_Stellaris/driverlib/hibernate.c ****     //
1099:/home/cuil/workspace/arm/lm3s811/TI_Stellaris/driverlib/hibernate.c ****     IntEnable(INT_HIBERNATE);
 10034              		.loc 1 1099 0
 10035 0012 4FF03B00 		mov	r0, #59
 10036 0016 FFF7FEFF 		bl	IntEnable
1100:/home/cuil/workspace/arm/lm3s811/TI_Stellaris/driverlib/hibernate.c **** }
 10037              		.loc 1 1100 0
 10038 001a 07F10807 		add	r7, r7, #8
 10039 001e BD46     		mov	sp, r7
 10040 0020 80BD     		pop	{r7, pc}
 10041              		.cfi_endproc
 10042              	.LFE29:
 10044 0022 00BF     		.section	.text.HibernateIntUnregister,"ax",%progbits
 10045              		.align	2
 10046              		.global	HibernateIntUnregister
 10047              		.thumb
 10048              		.thumb_func
 10050              	HibernateIntUnregister:
 10051              	.LFB30:
1101:/home/cuil/workspace/arm/lm3s811/TI_Stellaris/driverlib/hibernate.c **** 
1102:/home/cuil/workspace/arm/lm3s811/TI_Stellaris/driverlib/hibernate.c **** //*****************************************************************************
1103:/home/cuil/workspace/arm/lm3s811/TI_Stellaris/driverlib/hibernate.c **** //
1104:/home/cuil/workspace/arm/lm3s811/TI_Stellaris/driverlib/hibernate.c **** //! Unregisters an interrupt handler for the Hibernation module interrupt.
1105:/home/cuil/workspace/arm/lm3s811/TI_Stellaris/driverlib/hibernate.c **** //!
1106:/home/cuil/workspace/arm/lm3s811/TI_Stellaris/driverlib/hibernate.c **** //! This function unregisters the interrupt handler in the system interrupt 
1107:/home/cuil/workspace/arm/lm3s811/TI_Stellaris/driverlib/hibernate.c **** //! controller.  The interrupt is disabled at the global level, and the 
1108:/home/cuil/workspace/arm/lm3s811/TI_Stellaris/driverlib/hibernate.c **** //! interrupt handler is longer called.
1109:/home/cuil/workspace/arm/lm3s811/TI_Stellaris/driverlib/hibernate.c **** //!
1110:/home/cuil/workspace/arm/lm3s811/TI_Stellaris/driverlib/hibernate.c **** //! \sa IntRegister() for important information about registering interrupt
1111:/home/cuil/workspace/arm/lm3s811/TI_Stellaris/driverlib/hibernate.c **** //! handlers.
1112:/home/cuil/workspace/arm/lm3s811/TI_Stellaris/driverlib/hibernate.c **** //!
1113:/home/cuil/workspace/arm/lm3s811/TI_Stellaris/driverlib/hibernate.c **** //! \return None.
1114:/home/cuil/workspace/arm/lm3s811/TI_Stellaris/driverlib/hibernate.c **** //
1115:/home/cuil/workspace/arm/lm3s811/TI_Stellaris/driverlib/hibernate.c **** //*****************************************************************************
1116:/home/cuil/workspace/arm/lm3s811/TI_Stellaris/driverlib/hibernate.c **** void
1117:/home/cuil/workspace/arm/lm3s811/TI_Stellaris/driverlib/hibernate.c **** HibernateIntUnregister(void)
1118:/home/cuil/workspace/arm/lm3s811/TI_Stellaris/driverlib/hibernate.c **** {
 10052              		.loc 1 1118 0
 10053              		.cfi_startproc
 10054              		@ args = 0, pretend = 0, frame = 0
 10055              		@ frame_needed = 1, uses_anonymous_args = 0
 10056 0000 80B5     		push	{r7, lr}
 10057              	.LCFI75:
 10058              		.cfi_def_cfa_offset 8
 10059 0002 00AF     		add	r7, sp, #0
 10060              		.cfi_offset 14, -4
 10061              		.cfi_offset 7, -8
 10062              	.LCFI76:
 10063              		.cfi_def_cfa_register 7
1119:/home/cuil/workspace/arm/lm3s811/TI_Stellaris/driverlib/hibernate.c ****     //
1120:/home/cuil/workspace/arm/lm3s811/TI_Stellaris/driverlib/hibernate.c ****     // Disable the hibernate interrupt.
1121:/home/cuil/workspace/arm/lm3s811/TI_Stellaris/driverlib/hibernate.c ****     //
1122:/home/cuil/workspace/arm/lm3s811/TI_Stellaris/driverlib/hibernate.c ****     IntDisable(INT_HIBERNATE);
 10064              		.loc 1 1122 0
 10065 0004 4FF03B00 		mov	r0, #59
 10066 0008 FFF7FEFF 		bl	IntDisable
1123:/home/cuil/workspace/arm/lm3s811/TI_Stellaris/driverlib/hibernate.c **** 
1124:/home/cuil/workspace/arm/lm3s811/TI_Stellaris/driverlib/hibernate.c ****     //
1125:/home/cuil/workspace/arm/lm3s811/TI_Stellaris/driverlib/hibernate.c ****     // Unregister the interrupt handler.
1126:/home/cuil/workspace/arm/lm3s811/TI_Stellaris/driverlib/hibernate.c ****     //
1127:/home/cuil/workspace/arm/lm3s811/TI_Stellaris/driverlib/hibernate.c ****     IntUnregister(INT_HIBERNATE);
 10067              		.loc 1 1127 0
 10068 000c 4FF03B00 		mov	r0, #59
 10069 0010 FFF7FEFF 		bl	IntUnregister
1128:/home/cuil/workspace/arm/lm3s811/TI_Stellaris/driverlib/hibernate.c **** }
 10070              		.loc 1 1128 0
 10071 0014 80BD     		pop	{r7, pc}
 10072              		.cfi_endproc
 10073              	.LFE30:
 10075 0016 00BF     		.section	.text.HibernateIntStatus,"ax",%progbits
 10076              		.align	2
 10077              		.global	HibernateIntStatus
 10078              		.thumb
 10079              		.thumb_func
 10081              	HibernateIntStatus:
 10082              	.LFB31:
1129:/home/cuil/workspace/arm/lm3s811/TI_Stellaris/driverlib/hibernate.c **** 
1130:/home/cuil/workspace/arm/lm3s811/TI_Stellaris/driverlib/hibernate.c **** //*****************************************************************************
1131:/home/cuil/workspace/arm/lm3s811/TI_Stellaris/driverlib/hibernate.c **** //
1132:/home/cuil/workspace/arm/lm3s811/TI_Stellaris/driverlib/hibernate.c **** //! Gets the current interrupt status of the Hibernation module.
1133:/home/cuil/workspace/arm/lm3s811/TI_Stellaris/driverlib/hibernate.c **** //!
1134:/home/cuil/workspace/arm/lm3s811/TI_Stellaris/driverlib/hibernate.c **** //! \param bMasked is false to retrieve the raw interrupt status, and true to
1135:/home/cuil/workspace/arm/lm3s811/TI_Stellaris/driverlib/hibernate.c **** //! retrieve the masked interrupt status.
1136:/home/cuil/workspace/arm/lm3s811/TI_Stellaris/driverlib/hibernate.c **** //!
1137:/home/cuil/workspace/arm/lm3s811/TI_Stellaris/driverlib/hibernate.c **** //! This function returns the interrupt status of the Hibernation module.  The 
1138:/home/cuil/workspace/arm/lm3s811/TI_Stellaris/driverlib/hibernate.c **** //! caller can use this function to determine the cause of a hibernation 
1139:/home/cuil/workspace/arm/lm3s811/TI_Stellaris/driverlib/hibernate.c **** //! interrupt.  Either the masked or raw interrupt status can be returned.
1140:/home/cuil/workspace/arm/lm3s811/TI_Stellaris/driverlib/hibernate.c **** //!
1141:/home/cuil/workspace/arm/lm3s811/TI_Stellaris/driverlib/hibernate.c **** //! \return Returns the interrupt status as a bit field with the values as
1142:/home/cuil/workspace/arm/lm3s811/TI_Stellaris/driverlib/hibernate.c **** //! described in the HibernateIntEnable() function.
1143:/home/cuil/workspace/arm/lm3s811/TI_Stellaris/driverlib/hibernate.c **** //
1144:/home/cuil/workspace/arm/lm3s811/TI_Stellaris/driverlib/hibernate.c **** //*****************************************************************************
1145:/home/cuil/workspace/arm/lm3s811/TI_Stellaris/driverlib/hibernate.c **** unsigned long
1146:/home/cuil/workspace/arm/lm3s811/TI_Stellaris/driverlib/hibernate.c **** HibernateIntStatus(tBoolean bMasked)
1147:/home/cuil/workspace/arm/lm3s811/TI_Stellaris/driverlib/hibernate.c **** {
 10083              		.loc 1 1147 0
 10084              		.cfi_startproc
 10085              		@ args = 0, pretend = 0, frame = 8
 10086              		@ frame_needed = 1, uses_anonymous_args = 0
 10087              		@ link register save eliminated.
 10088 0000 80B4     		push	{r7}
 10089              	.LCFI77:
 10090              		.cfi_def_cfa_offset 4
 10091 0002 83B0     		sub	sp, sp, #12
 10092              	.LCFI78:
 10093              		.cfi_def_cfa_offset 16
 10094 0004 00AF     		add	r7, sp, #0
 10095              		.cfi_offset 7, -4
 10096              	.LCFI79:
 10097              		.cfi_def_cfa_register 7
 10098 0006 0346     		mov	r3, r0
 10099 0008 FB71     		strb	r3, [r7, #7]
1148:/home/cuil/workspace/arm/lm3s811/TI_Stellaris/driverlib/hibernate.c ****     //
1149:/home/cuil/workspace/arm/lm3s811/TI_Stellaris/driverlib/hibernate.c ****     // Read and return the Hibernation module raw or masked interrupt status.
1150:/home/cuil/workspace/arm/lm3s811/TI_Stellaris/driverlib/hibernate.c ****     //
1151:/home/cuil/workspace/arm/lm3s811/TI_Stellaris/driverlib/hibernate.c ****     if(bMasked == true)
 10100              		.loc 1 1151 0
 10101 000a FB79     		ldrb	r3, [r7, #7]	@ zero_extendqisi2
 10102 000c 012B     		cmp	r3, #1
 10103 000e 04D1     		bne	.L101
1152:/home/cuil/workspace/arm/lm3s811/TI_Stellaris/driverlib/hibernate.c ****     {
1153:/home/cuil/workspace/arm/lm3s811/TI_Stellaris/driverlib/hibernate.c ****         return(HWREG(HIB_MIS) & 0xf);
 10104              		.loc 1 1153 0
 10105 0010 074B     		ldr	r3, .L103
 10106 0012 1B68     		ldr	r3, [r3, #0]
 10107 0014 03F00F03 		and	r3, r3, #15
 10108 0018 03E0     		b	.L102
 10109              	.L101:
1154:/home/cuil/workspace/arm/lm3s811/TI_Stellaris/driverlib/hibernate.c ****     }
1155:/home/cuil/workspace/arm/lm3s811/TI_Stellaris/driverlib/hibernate.c ****     else
1156:/home/cuil/workspace/arm/lm3s811/TI_Stellaris/driverlib/hibernate.c ****     {
1157:/home/cuil/workspace/arm/lm3s811/TI_Stellaris/driverlib/hibernate.c ****         return(HWREG(HIB_RIS) & 0xf);
 10110              		.loc 1 1157 0
 10111 001a 064B     		ldr	r3, .L103+4
 10112 001c 1B68     		ldr	r3, [r3, #0]
 10113 001e 03F00F03 		and	r3, r3, #15
 10114              	.L102:
1158:/home/cuil/workspace/arm/lm3s811/TI_Stellaris/driverlib/hibernate.c ****     }
1159:/home/cuil/workspace/arm/lm3s811/TI_Stellaris/driverlib/hibernate.c **** }
 10115              		.loc 1 1159 0
 10116 0022 1846     		mov	r0, r3
 10117 0024 07F10C07 		add	r7, r7, #12
 10118 0028 BD46     		mov	sp, r7
 10119 002a 80BC     		pop	{r7}
 10120 002c 7047     		bx	lr
 10121              	.L104:
 10122 002e 00BF     		.align	2
 10123              	.L103:
 10124 0030 1CC00F40 		.word	1074774044
 10125 0034 18C00F40 		.word	1074774040
 10126              		.cfi_endproc
 10127              	.LFE31:
 10129              		.section	.text.HibernateIntClear,"ax",%progbits
 10130              		.align	2
 10131              		.global	HibernateIntClear
 10132              		.thumb
 10133              		.thumb_func
 10135              	HibernateIntClear:
 10136              	.LFB32:
1160:/home/cuil/workspace/arm/lm3s811/TI_Stellaris/driverlib/hibernate.c **** 
1161:/home/cuil/workspace/arm/lm3s811/TI_Stellaris/driverlib/hibernate.c **** //*****************************************************************************
1162:/home/cuil/workspace/arm/lm3s811/TI_Stellaris/driverlib/hibernate.c **** //
1163:/home/cuil/workspace/arm/lm3s811/TI_Stellaris/driverlib/hibernate.c **** //! Clears pending interrupts from the Hibernation module.
1164:/home/cuil/workspace/arm/lm3s811/TI_Stellaris/driverlib/hibernate.c **** //!
1165:/home/cuil/workspace/arm/lm3s811/TI_Stellaris/driverlib/hibernate.c **** //! \param ulIntFlags is the bit mask of the interrupts to be cleared.
1166:/home/cuil/workspace/arm/lm3s811/TI_Stellaris/driverlib/hibernate.c **** //!
1167:/home/cuil/workspace/arm/lm3s811/TI_Stellaris/driverlib/hibernate.c **** //! This function clears the specified interrupt sources.  This function must 
1168:/home/cuil/workspace/arm/lm3s811/TI_Stellaris/driverlib/hibernate.c **** //! be called within the interrupt handler or else the handler is called again 
1169:/home/cuil/workspace/arm/lm3s811/TI_Stellaris/driverlib/hibernate.c **** //! upon exit.
1170:/home/cuil/workspace/arm/lm3s811/TI_Stellaris/driverlib/hibernate.c **** //!
1171:/home/cuil/workspace/arm/lm3s811/TI_Stellaris/driverlib/hibernate.c **** //! The \e ulIntFlags parameter has the same definition as the \e ulIntFlags
1172:/home/cuil/workspace/arm/lm3s811/TI_Stellaris/driverlib/hibernate.c **** //! parameter to the HibernateIntEnable() function.
1173:/home/cuil/workspace/arm/lm3s811/TI_Stellaris/driverlib/hibernate.c **** //!
1174:/home/cuil/workspace/arm/lm3s811/TI_Stellaris/driverlib/hibernate.c **** //! \note Because there is a write buffer in the Cortex-M processor, it may
1175:/home/cuil/workspace/arm/lm3s811/TI_Stellaris/driverlib/hibernate.c **** //! take several clock cycles before the interrupt source is actually cleared.
1176:/home/cuil/workspace/arm/lm3s811/TI_Stellaris/driverlib/hibernate.c **** //! Therefore, it is recommended that the interrupt source be cleared early in
1177:/home/cuil/workspace/arm/lm3s811/TI_Stellaris/driverlib/hibernate.c **** //! the interrupt handler (as opposed to the very last action) to avoid
1178:/home/cuil/workspace/arm/lm3s811/TI_Stellaris/driverlib/hibernate.c **** //! returning from the interrupt handler before the interrupt source is
1179:/home/cuil/workspace/arm/lm3s811/TI_Stellaris/driverlib/hibernate.c **** //! actually cleared.  Failure to do so may result in the interrupt handler
1180:/home/cuil/workspace/arm/lm3s811/TI_Stellaris/driverlib/hibernate.c **** //! being immediately reentered (because the interrupt controller still sees
1181:/home/cuil/workspace/arm/lm3s811/TI_Stellaris/driverlib/hibernate.c **** //! the interrupt source asserted).
1182:/home/cuil/workspace/arm/lm3s811/TI_Stellaris/driverlib/hibernate.c **** //!
1183:/home/cuil/workspace/arm/lm3s811/TI_Stellaris/driverlib/hibernate.c **** //! \return None.
1184:/home/cuil/workspace/arm/lm3s811/TI_Stellaris/driverlib/hibernate.c **** //
1185:/home/cuil/workspace/arm/lm3s811/TI_Stellaris/driverlib/hibernate.c **** //*****************************************************************************
1186:/home/cuil/workspace/arm/lm3s811/TI_Stellaris/driverlib/hibernate.c **** void
1187:/home/cuil/workspace/arm/lm3s811/TI_Stellaris/driverlib/hibernate.c **** HibernateIntClear(unsigned long ulIntFlags)
1188:/home/cuil/workspace/arm/lm3s811/TI_Stellaris/driverlib/hibernate.c **** {
 10137              		.loc 1 1188 0
 10138              		.cfi_startproc
 10139              		@ args = 0, pretend = 0, frame = 8
 10140              		@ frame_needed = 1, uses_anonymous_args = 0
 10141 0000 80B5     		push	{r7, lr}
 10142              	.LCFI80:
 10143              		.cfi_def_cfa_offset 8
 10144 0002 82B0     		sub	sp, sp, #8
 10145              	.LCFI81:
 10146              		.cfi_def_cfa_offset 16
 10147 0004 00AF     		add	r7, sp, #0
 10148              		.cfi_offset 14, -4
 10149              		.cfi_offset 7, -8
 10150              	.LCFI82:
 10151              		.cfi_def_cfa_register 7
 10152 0006 7860     		str	r0, [r7, #4]
1189:/home/cuil/workspace/arm/lm3s811/TI_Stellaris/driverlib/hibernate.c ****     //
1190:/home/cuil/workspace/arm/lm3s811/TI_Stellaris/driverlib/hibernate.c ****     // Check the arguments.
1191:/home/cuil/workspace/arm/lm3s811/TI_Stellaris/driverlib/hibernate.c ****     //
1192:/home/cuil/workspace/arm/lm3s811/TI_Stellaris/driverlib/hibernate.c ****     ASSERT(!(ulIntFlags & ~(HIBERNATE_INT_PIN_WAKE | HIBERNATE_INT_LOW_BAT |
1193:/home/cuil/workspace/arm/lm3s811/TI_Stellaris/driverlib/hibernate.c ****                             HIBERNATE_INT_RTC_MATCH_0 |
1194:/home/cuil/workspace/arm/lm3s811/TI_Stellaris/driverlib/hibernate.c ****                             HIBERNATE_INT_RTC_MATCH_1)));
1195:/home/cuil/workspace/arm/lm3s811/TI_Stellaris/driverlib/hibernate.c **** 
1196:/home/cuil/workspace/arm/lm3s811/TI_Stellaris/driverlib/hibernate.c ****     //
1197:/home/cuil/workspace/arm/lm3s811/TI_Stellaris/driverlib/hibernate.c ****     // Write the specified interrupt bits into the interrupt clear register.
1198:/home/cuil/workspace/arm/lm3s811/TI_Stellaris/driverlib/hibernate.c ****     //
1199:/home/cuil/workspace/arm/lm3s811/TI_Stellaris/driverlib/hibernate.c ****     HWREG(HIB_IC) |= ulIntFlags;
 10153              		.loc 1 1199 0
 10154 0008 064B     		ldr	r3, .L106
 10155 000a 064A     		ldr	r2, .L106
 10156 000c 1168     		ldr	r1, [r2, #0]
 10157 000e 7A68     		ldr	r2, [r7, #4]
 10158 0010 41EA0202 		orr	r2, r1, r2
 10159 0014 1A60     		str	r2, [r3, #0]
1200:/home/cuil/workspace/arm/lm3s811/TI_Stellaris/driverlib/hibernate.c **** 
1201:/home/cuil/workspace/arm/lm3s811/TI_Stellaris/driverlib/hibernate.c ****     //
1202:/home/cuil/workspace/arm/lm3s811/TI_Stellaris/driverlib/hibernate.c ****     // Wait for write completion
1203:/home/cuil/workspace/arm/lm3s811/TI_Stellaris/driverlib/hibernate.c ****     //
1204:/home/cuil/workspace/arm/lm3s811/TI_Stellaris/driverlib/hibernate.c ****     HibernateWriteComplete();
 10160              		.loc 1 1204 0
 10161 0016 FFF7FEFF 		bl	HibernateWriteComplete
1205:/home/cuil/workspace/arm/lm3s811/TI_Stellaris/driverlib/hibernate.c **** }
 10162              		.loc 1 1205 0
 10163 001a 07F10807 		add	r7, r7, #8
 10164 001e BD46     		mov	sp, r7
 10165 0020 80BD     		pop	{r7, pc}
 10166              	.L107:
 10167 0022 00BF     		.align	2
 10168              	.L106:
 10169 0024 20C00F40 		.word	1074774048
 10170              		.cfi_endproc
 10171              	.LFE32:
 10173              		.section	.text.HibernateIsActive,"ax",%progbits
 10174              		.align	2
 10175              		.global	HibernateIsActive
 10176              		.thumb
 10177              		.thumb_func
 10179              	HibernateIsActive:
 10180              	.LFB33:
1206:/home/cuil/workspace/arm/lm3s811/TI_Stellaris/driverlib/hibernate.c **** 
1207:/home/cuil/workspace/arm/lm3s811/TI_Stellaris/driverlib/hibernate.c **** //*****************************************************************************
1208:/home/cuil/workspace/arm/lm3s811/TI_Stellaris/driverlib/hibernate.c **** //
1209:/home/cuil/workspace/arm/lm3s811/TI_Stellaris/driverlib/hibernate.c **** //! Checks to see if the Hibernation module is already powered up.
1210:/home/cuil/workspace/arm/lm3s811/TI_Stellaris/driverlib/hibernate.c **** //!
1211:/home/cuil/workspace/arm/lm3s811/TI_Stellaris/driverlib/hibernate.c **** //! This function queries the control register to determine if the module is
1212:/home/cuil/workspace/arm/lm3s811/TI_Stellaris/driverlib/hibernate.c **** //! already active.  This function can be called at a power-on reset to help
1213:/home/cuil/workspace/arm/lm3s811/TI_Stellaris/driverlib/hibernate.c **** //! determine if the reset is due to a wake from hibernation or a cold start.
1214:/home/cuil/workspace/arm/lm3s811/TI_Stellaris/driverlib/hibernate.c **** //! If the Hibernation module is already active, then it does not need to be
1215:/home/cuil/workspace/arm/lm3s811/TI_Stellaris/driverlib/hibernate.c **** //! re-enabled and its status can be queried immediately.
1216:/home/cuil/workspace/arm/lm3s811/TI_Stellaris/driverlib/hibernate.c **** //!
1217:/home/cuil/workspace/arm/lm3s811/TI_Stellaris/driverlib/hibernate.c **** //! The software application should also use the HibernateIntStatus() function
1218:/home/cuil/workspace/arm/lm3s811/TI_Stellaris/driverlib/hibernate.c **** //! to read the raw interrupt status to determine the cause of the wake.  The
1219:/home/cuil/workspace/arm/lm3s811/TI_Stellaris/driverlib/hibernate.c **** //! HibernateDataGet() function can be used to restore state.  These
1220:/home/cuil/workspace/arm/lm3s811/TI_Stellaris/driverlib/hibernate.c **** //! combinations of functions can be used by the software to determine if the
1221:/home/cuil/workspace/arm/lm3s811/TI_Stellaris/driverlib/hibernate.c **** //! processor is waking from hibernation and the appropriate action to take as
1222:/home/cuil/workspace/arm/lm3s811/TI_Stellaris/driverlib/hibernate.c **** //! a result.
1223:/home/cuil/workspace/arm/lm3s811/TI_Stellaris/driverlib/hibernate.c **** //!
1224:/home/cuil/workspace/arm/lm3s811/TI_Stellaris/driverlib/hibernate.c **** //! \return Returns \b true if the module is already active, and \b false if
1225:/home/cuil/workspace/arm/lm3s811/TI_Stellaris/driverlib/hibernate.c **** //! not.
1226:/home/cuil/workspace/arm/lm3s811/TI_Stellaris/driverlib/hibernate.c **** //
1227:/home/cuil/workspace/arm/lm3s811/TI_Stellaris/driverlib/hibernate.c **** //*****************************************************************************
1228:/home/cuil/workspace/arm/lm3s811/TI_Stellaris/driverlib/hibernate.c **** unsigned long
1229:/home/cuil/workspace/arm/lm3s811/TI_Stellaris/driverlib/hibernate.c **** HibernateIsActive(void)
1230:/home/cuil/workspace/arm/lm3s811/TI_Stellaris/driverlib/hibernate.c **** {
 10181              		.loc 1 1230 0
 10182              		.cfi_startproc
 10183              		@ args = 0, pretend = 0, frame = 0
 10184              		@ frame_needed = 1, uses_anonymous_args = 0
 10185              		@ link register save eliminated.
 10186 0000 80B4     		push	{r7}
 10187              	.LCFI83:
 10188              		.cfi_def_cfa_offset 4
 10189 0002 00AF     		add	r7, sp, #0
 10190              		.cfi_offset 7, -4
 10191              	.LCFI84:
 10192              		.cfi_def_cfa_register 7
1231:/home/cuil/workspace/arm/lm3s811/TI_Stellaris/driverlib/hibernate.c ****     //
1232:/home/cuil/workspace/arm/lm3s811/TI_Stellaris/driverlib/hibernate.c ****     // Read the control register, and return true if the module is enabled.
1233:/home/cuil/workspace/arm/lm3s811/TI_Stellaris/driverlib/hibernate.c ****     //
1234:/home/cuil/workspace/arm/lm3s811/TI_Stellaris/driverlib/hibernate.c ****     return(HWREG(HIB_CTL) & HIB_CTL_CLK32EN ? 1 : 0);
 10193              		.loc 1 1234 0
 10194 0004 054B     		ldr	r3, .L109
 10195 0006 1B68     		ldr	r3, [r3, #0]
 10196 0008 03F04003 		and	r3, r3, #64
 10197 000c 002B     		cmp	r3, #0
 10198 000e 0CBF     		ite	eq
 10199 0010 0023     		moveq	r3, #0
 10200 0012 0123     		movne	r3, #1
1235:/home/cuil/workspace/arm/lm3s811/TI_Stellaris/driverlib/hibernate.c **** }
 10201              		.loc 1 1235 0
 10202 0014 1846     		mov	r0, r3
 10203 0016 BD46     		mov	sp, r7
 10204 0018 80BC     		pop	{r7}
 10205 001a 7047     		bx	lr
 10206              	.L110:
 10207              		.align	2
 10208              	.L109:
 10209 001c 10C00F40 		.word	1074774032
 10210              		.cfi_endproc
 10211              	.LFE33:
 10213              		.text
 10214              	.Letext0: