   1              		.syntax unified
   2              		.cpu cortex-m3
   3              		.fpu softvfp
   4              		.eabi_attribute 20, 1
   5              		.eabi_attribute 21, 1
   6              		.eabi_attribute 23, 3
   7              		.eabi_attribute 24, 1
   8              		.eabi_attribute 25, 1
   9              		.eabi_attribute 26, 1
  10              		.eabi_attribute 30, 6
  11              		.eabi_attribute 18, 4
  12              		.thumb
  13              		.file	"i2c.c"
  23              	.Ltext0:
  24              		.file 1 "/home/cuil/workspace/arm/lm3s811/TI_Stellaris/driverlib/i2c.c"
 9278              		.align	2
 9281              	g_ppulI2CIntMap:
 9282 0000 00000240 		.word	1073872896
 9283 0004 18000000 		.word	24
 9284 0008 00100240 		.word	1073876992
 9285 000c 35000000 		.word	53
 9286 0010 00200240 		.word	1073881088
 9287 0014 54000000 		.word	84
 9288 0018 00300240 		.word	1073885184
 9289 001c 55000000 		.word	85
 9290 0020 00000C40 		.word	1074528256
 9291 0024 7D000000 		.word	125
 9292 0028 00100C40 		.word	1074532352
 9293 002c 7E000000 		.word	126
 9294              		.section	.text.I2CIntNumberGet,"ax",%progbits
 9295              		.align	2
 9296              		.thumb
 9297              		.thumb_func
 9299              	I2CIntNumberGet:
 9300              	.LFB0:
   1:/home/cuil/workspace/arm/lm3s811/TI_Stellaris/driverlib/i2c.c **** //*****************************************************************************
   2:/home/cuil/workspace/arm/lm3s811/TI_Stellaris/driverlib/i2c.c **** //
   3:/home/cuil/workspace/arm/lm3s811/TI_Stellaris/driverlib/i2c.c **** // i2c.c - Driver for Inter-IC (I2C) bus block.
   4:/home/cuil/workspace/arm/lm3s811/TI_Stellaris/driverlib/i2c.c **** //
   5:/home/cuil/workspace/arm/lm3s811/TI_Stellaris/driverlib/i2c.c **** // Copyright (c) 2005-2011 Texas Instruments Incorporated.  All rights reserved.
   6:/home/cuil/workspace/arm/lm3s811/TI_Stellaris/driverlib/i2c.c **** // Software License Agreement
   7:/home/cuil/workspace/arm/lm3s811/TI_Stellaris/driverlib/i2c.c **** // 
   8:/home/cuil/workspace/arm/lm3s811/TI_Stellaris/driverlib/i2c.c **** // Texas Instruments (TI) is supplying this software for use solely and
   9:/home/cuil/workspace/arm/lm3s811/TI_Stellaris/driverlib/i2c.c **** // exclusively on TI's microcontroller products. The software is owned by
  10:/home/cuil/workspace/arm/lm3s811/TI_Stellaris/driverlib/i2c.c **** // TI and/or its suppliers, and is protected under applicable copyright
  11:/home/cuil/workspace/arm/lm3s811/TI_Stellaris/driverlib/i2c.c **** // laws. You may not combine this software with "viral" open-source
  12:/home/cuil/workspace/arm/lm3s811/TI_Stellaris/driverlib/i2c.c **** // software in order to form a larger program.
  13:/home/cuil/workspace/arm/lm3s811/TI_Stellaris/driverlib/i2c.c **** // 
  14:/home/cuil/workspace/arm/lm3s811/TI_Stellaris/driverlib/i2c.c **** // THIS SOFTWARE IS PROVIDED "AS IS" AND WITH ALL FAULTS.
  15:/home/cuil/workspace/arm/lm3s811/TI_Stellaris/driverlib/i2c.c **** // NO WARRANTIES, WHETHER EXPRESS, IMPLIED OR STATUTORY, INCLUDING, BUT
  16:/home/cuil/workspace/arm/lm3s811/TI_Stellaris/driverlib/i2c.c **** // NOT LIMITED TO, IMPLIED WARRANTIES OF MERCHANTABILITY AND FITNESS FOR
  17:/home/cuil/workspace/arm/lm3s811/TI_Stellaris/driverlib/i2c.c **** // A PARTICULAR PURPOSE APPLY TO THIS SOFTWARE. TI SHALL NOT, UNDER ANY
  18:/home/cuil/workspace/arm/lm3s811/TI_Stellaris/driverlib/i2c.c **** // CIRCUMSTANCES, BE LIABLE FOR SPECIAL, INCIDENTAL, OR CONSEQUENTIAL
  19:/home/cuil/workspace/arm/lm3s811/TI_Stellaris/driverlib/i2c.c **** // DAMAGES, FOR ANY REASON WHATSOEVER.
  20:/home/cuil/workspace/arm/lm3s811/TI_Stellaris/driverlib/i2c.c **** // 
  21:/home/cuil/workspace/arm/lm3s811/TI_Stellaris/driverlib/i2c.c **** // This is part of revision 8264 of the Stellaris Peripheral Driver Library.
  22:/home/cuil/workspace/arm/lm3s811/TI_Stellaris/driverlib/i2c.c **** //
  23:/home/cuil/workspace/arm/lm3s811/TI_Stellaris/driverlib/i2c.c **** //*****************************************************************************
  24:/home/cuil/workspace/arm/lm3s811/TI_Stellaris/driverlib/i2c.c **** 
  25:/home/cuil/workspace/arm/lm3s811/TI_Stellaris/driverlib/i2c.c **** //*****************************************************************************
  26:/home/cuil/workspace/arm/lm3s811/TI_Stellaris/driverlib/i2c.c **** //
  27:/home/cuil/workspace/arm/lm3s811/TI_Stellaris/driverlib/i2c.c **** //! \addtogroup i2c_api
  28:/home/cuil/workspace/arm/lm3s811/TI_Stellaris/driverlib/i2c.c **** //! @{
  29:/home/cuil/workspace/arm/lm3s811/TI_Stellaris/driverlib/i2c.c **** //
  30:/home/cuil/workspace/arm/lm3s811/TI_Stellaris/driverlib/i2c.c **** //*****************************************************************************
  31:/home/cuil/workspace/arm/lm3s811/TI_Stellaris/driverlib/i2c.c **** 
  32:/home/cuil/workspace/arm/lm3s811/TI_Stellaris/driverlib/i2c.c **** #include "inc/hw_i2c.h"
  33:/home/cuil/workspace/arm/lm3s811/TI_Stellaris/driverlib/i2c.c **** #include "inc/hw_ints.h"
  34:/home/cuil/workspace/arm/lm3s811/TI_Stellaris/driverlib/i2c.c **** #include "inc/hw_memmap.h"
  35:/home/cuil/workspace/arm/lm3s811/TI_Stellaris/driverlib/i2c.c **** #include "inc/hw_sysctl.h"
  36:/home/cuil/workspace/arm/lm3s811/TI_Stellaris/driverlib/i2c.c **** #include "inc/hw_types.h"
  37:/home/cuil/workspace/arm/lm3s811/TI_Stellaris/driverlib/i2c.c **** #include "driverlib/debug.h"
  38:/home/cuil/workspace/arm/lm3s811/TI_Stellaris/driverlib/i2c.c **** #include "driverlib/i2c.h"
  39:/home/cuil/workspace/arm/lm3s811/TI_Stellaris/driverlib/i2c.c **** #include "driverlib/interrupt.h"
  40:/home/cuil/workspace/arm/lm3s811/TI_Stellaris/driverlib/i2c.c **** 
  41:/home/cuil/workspace/arm/lm3s811/TI_Stellaris/driverlib/i2c.c **** //*****************************************************************************
  42:/home/cuil/workspace/arm/lm3s811/TI_Stellaris/driverlib/i2c.c **** //
  43:/home/cuil/workspace/arm/lm3s811/TI_Stellaris/driverlib/i2c.c **** // A mapping of I2C base address to interupt number.
  44:/home/cuil/workspace/arm/lm3s811/TI_Stellaris/driverlib/i2c.c **** //
  45:/home/cuil/workspace/arm/lm3s811/TI_Stellaris/driverlib/i2c.c **** //*****************************************************************************
  46:/home/cuil/workspace/arm/lm3s811/TI_Stellaris/driverlib/i2c.c **** static const unsigned long g_ppulI2CIntMap[][2] =
  47:/home/cuil/workspace/arm/lm3s811/TI_Stellaris/driverlib/i2c.c **** {
  48:/home/cuil/workspace/arm/lm3s811/TI_Stellaris/driverlib/i2c.c ****     { I2C0_MASTER_BASE, INT_I2C0 },
  49:/home/cuil/workspace/arm/lm3s811/TI_Stellaris/driverlib/i2c.c ****     { I2C1_MASTER_BASE, INT_I2C1 },
  50:/home/cuil/workspace/arm/lm3s811/TI_Stellaris/driverlib/i2c.c ****     { I2C2_MASTER_BASE, INT_I2C2 },
  51:/home/cuil/workspace/arm/lm3s811/TI_Stellaris/driverlib/i2c.c ****     { I2C3_MASTER_BASE, INT_I2C3 },
  52:/home/cuil/workspace/arm/lm3s811/TI_Stellaris/driverlib/i2c.c ****     { I2C4_MASTER_BASE, INT_I2C4 },
  53:/home/cuil/workspace/arm/lm3s811/TI_Stellaris/driverlib/i2c.c ****     { I2C5_MASTER_BASE, INT_I2C5 },
  54:/home/cuil/workspace/arm/lm3s811/TI_Stellaris/driverlib/i2c.c **** };
  55:/home/cuil/workspace/arm/lm3s811/TI_Stellaris/driverlib/i2c.c **** 
  56:/home/cuil/workspace/arm/lm3s811/TI_Stellaris/driverlib/i2c.c **** //*****************************************************************************
  57:/home/cuil/workspace/arm/lm3s811/TI_Stellaris/driverlib/i2c.c **** //
  58:/home/cuil/workspace/arm/lm3s811/TI_Stellaris/driverlib/i2c.c **** //! \internal
  59:/home/cuil/workspace/arm/lm3s811/TI_Stellaris/driverlib/i2c.c **** //! Checks a I2C master base address.
  60:/home/cuil/workspace/arm/lm3s811/TI_Stellaris/driverlib/i2c.c **** //!
  61:/home/cuil/workspace/arm/lm3s811/TI_Stellaris/driverlib/i2c.c **** //! \param ulBase is the base address of the I2C Master module.
  62:/home/cuil/workspace/arm/lm3s811/TI_Stellaris/driverlib/i2c.c **** //!
  63:/home/cuil/workspace/arm/lm3s811/TI_Stellaris/driverlib/i2c.c **** //! This function determines if a I2C master module base address is valid.
  64:/home/cuil/workspace/arm/lm3s811/TI_Stellaris/driverlib/i2c.c **** //!
  65:/home/cuil/workspace/arm/lm3s811/TI_Stellaris/driverlib/i2c.c **** //! \return Returns \b true if the base address is valid and \b false
  66:/home/cuil/workspace/arm/lm3s811/TI_Stellaris/driverlib/i2c.c **** //! otherwise.
  67:/home/cuil/workspace/arm/lm3s811/TI_Stellaris/driverlib/i2c.c **** //
  68:/home/cuil/workspace/arm/lm3s811/TI_Stellaris/driverlib/i2c.c **** //*****************************************************************************
  69:/home/cuil/workspace/arm/lm3s811/TI_Stellaris/driverlib/i2c.c **** #ifdef DEBUG
  70:/home/cuil/workspace/arm/lm3s811/TI_Stellaris/driverlib/i2c.c **** static tBoolean
  71:/home/cuil/workspace/arm/lm3s811/TI_Stellaris/driverlib/i2c.c **** I2CMasterBaseValid(unsigned long ulBase)
  72:/home/cuil/workspace/arm/lm3s811/TI_Stellaris/driverlib/i2c.c **** {
  73:/home/cuil/workspace/arm/lm3s811/TI_Stellaris/driverlib/i2c.c ****     return((ulBase == I2C0_MASTER_BASE) || (ulBase == I2C1_MASTER_BASE) ||
  74:/home/cuil/workspace/arm/lm3s811/TI_Stellaris/driverlib/i2c.c ****            (ulBase == I2C2_MASTER_BASE) || (ulBase == I2C3_MASTER_BASE) ||
  75:/home/cuil/workspace/arm/lm3s811/TI_Stellaris/driverlib/i2c.c ****            (ulBase == I2C4_MASTER_BASE) || (ulBase == I2C5_MASTER_BASE));
  76:/home/cuil/workspace/arm/lm3s811/TI_Stellaris/driverlib/i2c.c **** }
  77:/home/cuil/workspace/arm/lm3s811/TI_Stellaris/driverlib/i2c.c **** #endif
  78:/home/cuil/workspace/arm/lm3s811/TI_Stellaris/driverlib/i2c.c **** 
  79:/home/cuil/workspace/arm/lm3s811/TI_Stellaris/driverlib/i2c.c **** //*****************************************************************************
  80:/home/cuil/workspace/arm/lm3s811/TI_Stellaris/driverlib/i2c.c **** //
  81:/home/cuil/workspace/arm/lm3s811/TI_Stellaris/driverlib/i2c.c **** //! \internal
  82:/home/cuil/workspace/arm/lm3s811/TI_Stellaris/driverlib/i2c.c **** //! Checks a I2C slave base address.
  83:/home/cuil/workspace/arm/lm3s811/TI_Stellaris/driverlib/i2c.c **** //!
  84:/home/cuil/workspace/arm/lm3s811/TI_Stellaris/driverlib/i2c.c **** //! \param ulBase is the base address of the I2C Slave module.
  85:/home/cuil/workspace/arm/lm3s811/TI_Stellaris/driverlib/i2c.c **** //!
  86:/home/cuil/workspace/arm/lm3s811/TI_Stellaris/driverlib/i2c.c **** //! This function determines if a I2C slave module base address is valid.
  87:/home/cuil/workspace/arm/lm3s811/TI_Stellaris/driverlib/i2c.c **** //!
  88:/home/cuil/workspace/arm/lm3s811/TI_Stellaris/driverlib/i2c.c **** //! \return Returns \b true if the base address is valid and \b false
  89:/home/cuil/workspace/arm/lm3s811/TI_Stellaris/driverlib/i2c.c **** //! otherwise.
  90:/home/cuil/workspace/arm/lm3s811/TI_Stellaris/driverlib/i2c.c **** //
  91:/home/cuil/workspace/arm/lm3s811/TI_Stellaris/driverlib/i2c.c **** //*****************************************************************************
  92:/home/cuil/workspace/arm/lm3s811/TI_Stellaris/driverlib/i2c.c **** #ifdef DEBUG
  93:/home/cuil/workspace/arm/lm3s811/TI_Stellaris/driverlib/i2c.c **** static tBoolean
  94:/home/cuil/workspace/arm/lm3s811/TI_Stellaris/driverlib/i2c.c **** I2CSlaveBaseValid(unsigned long ulBase)
  95:/home/cuil/workspace/arm/lm3s811/TI_Stellaris/driverlib/i2c.c **** {
  96:/home/cuil/workspace/arm/lm3s811/TI_Stellaris/driverlib/i2c.c ****     return((ulBase == I2C0_SLAVE_BASE) || (ulBase == I2C1_SLAVE_BASE) ||
  97:/home/cuil/workspace/arm/lm3s811/TI_Stellaris/driverlib/i2c.c ****            (ulBase == I2C2_SLAVE_BASE) || (ulBase == I2C3_SLAVE_BASE) ||
  98:/home/cuil/workspace/arm/lm3s811/TI_Stellaris/driverlib/i2c.c ****            (ulBase == I2C4_SLAVE_BASE) || (ulBase == I2C5_SLAVE_BASE));
  99:/home/cuil/workspace/arm/lm3s811/TI_Stellaris/driverlib/i2c.c **** }
 100:/home/cuil/workspace/arm/lm3s811/TI_Stellaris/driverlib/i2c.c **** #endif
 101:/home/cuil/workspace/arm/lm3s811/TI_Stellaris/driverlib/i2c.c **** 
 102:/home/cuil/workspace/arm/lm3s811/TI_Stellaris/driverlib/i2c.c **** //*****************************************************************************
 103:/home/cuil/workspace/arm/lm3s811/TI_Stellaris/driverlib/i2c.c **** //
 104:/home/cuil/workspace/arm/lm3s811/TI_Stellaris/driverlib/i2c.c **** //! \internal
 105:/home/cuil/workspace/arm/lm3s811/TI_Stellaris/driverlib/i2c.c **** //! Gets the I2C interrupt number.
 106:/home/cuil/workspace/arm/lm3s811/TI_Stellaris/driverlib/i2c.c **** //!
 107:/home/cuil/workspace/arm/lm3s811/TI_Stellaris/driverlib/i2c.c **** //! \param ulBase is the base address of the I2C Master module.
 108:/home/cuil/workspace/arm/lm3s811/TI_Stellaris/driverlib/i2c.c **** //!
 109:/home/cuil/workspace/arm/lm3s811/TI_Stellaris/driverlib/i2c.c **** //! Given a I2C base address, this function returns the corresponding 
 110:/home/cuil/workspace/arm/lm3s811/TI_Stellaris/driverlib/i2c.c **** //! interrupt number.
 111:/home/cuil/workspace/arm/lm3s811/TI_Stellaris/driverlib/i2c.c **** //!
 112:/home/cuil/workspace/arm/lm3s811/TI_Stellaris/driverlib/i2c.c **** //! \return Returns an I2C interrupt number, or -1 if \e ulBase is invalid.
 113:/home/cuil/workspace/arm/lm3s811/TI_Stellaris/driverlib/i2c.c **** //
 114:/home/cuil/workspace/arm/lm3s811/TI_Stellaris/driverlib/i2c.c **** //*****************************************************************************
 115:/home/cuil/workspace/arm/lm3s811/TI_Stellaris/driverlib/i2c.c **** static long
 116:/home/cuil/workspace/arm/lm3s811/TI_Stellaris/driverlib/i2c.c **** I2CIntNumberGet(unsigned long ulBase)
 117:/home/cuil/workspace/arm/lm3s811/TI_Stellaris/driverlib/i2c.c **** {
 9301              		.loc 1 117 0
 9302              		.cfi_startproc
 9303              		@ args = 0, pretend = 0, frame = 16
 9304              		@ frame_needed = 1, uses_anonymous_args = 0
 9305              		@ link register save eliminated.
 9306 0000 80B4     		push	{r7}
 9307              	.LCFI0:
 9308              		.cfi_def_cfa_offset 4
 9309 0002 85B0     		sub	sp, sp, #20
 9310              	.LCFI1:
 9311              		.cfi_def_cfa_offset 24
 9312 0004 00AF     		add	r7, sp, #0
 9313              		.cfi_offset 7, -4
 9314              	.LCFI2:
 9315              		.cfi_def_cfa_register 7
 9316 0006 7860     		str	r0, [r7, #4]
 118:/home/cuil/workspace/arm/lm3s811/TI_Stellaris/driverlib/i2c.c ****     unsigned long ulIdx;
 119:/home/cuil/workspace/arm/lm3s811/TI_Stellaris/driverlib/i2c.c **** 
 120:/home/cuil/workspace/arm/lm3s811/TI_Stellaris/driverlib/i2c.c ****     //
 121:/home/cuil/workspace/arm/lm3s811/TI_Stellaris/driverlib/i2c.c ****     // Loop through the table that maps I2C base addresses to interrupt
 122:/home/cuil/workspace/arm/lm3s811/TI_Stellaris/driverlib/i2c.c ****     // numbers.
 123:/home/cuil/workspace/arm/lm3s811/TI_Stellaris/driverlib/i2c.c ****     //
 124:/home/cuil/workspace/arm/lm3s811/TI_Stellaris/driverlib/i2c.c ****     for(ulIdx = 0; ulIdx < (sizeof(g_ppulI2CIntMap) /
 9317              		.loc 1 124 0
 9318 0008 4FF00003 		mov	r3, #0
 9319 000c FB60     		str	r3, [r7, #12]
 9320 000e 11E0     		b	.L2
 9321              	.L5:
 125:/home/cuil/workspace/arm/lm3s811/TI_Stellaris/driverlib/i2c.c ****                             sizeof(g_ppulI2CIntMap[0])); ulIdx++)
 126:/home/cuil/workspace/arm/lm3s811/TI_Stellaris/driverlib/i2c.c ****     {
 127:/home/cuil/workspace/arm/lm3s811/TI_Stellaris/driverlib/i2c.c ****         //
 128:/home/cuil/workspace/arm/lm3s811/TI_Stellaris/driverlib/i2c.c ****         // See if this base address matches.
 129:/home/cuil/workspace/arm/lm3s811/TI_Stellaris/driverlib/i2c.c ****         //
 130:/home/cuil/workspace/arm/lm3s811/TI_Stellaris/driverlib/i2c.c ****         if(g_ppulI2CIntMap[ulIdx][0] == ulBase)
 9322              		.loc 1 130 0
 9323 0010 0E4B     		ldr	r3, .L6
 9324 0012 FA68     		ldr	r2, [r7, #12]
 9325 0014 53F83220 		ldr	r2, [r3, r2, lsl #3]
 9326 0018 7B68     		ldr	r3, [r7, #4]
 9327 001a 9A42     		cmp	r2, r3
 9328 001c 06D1     		bne	.L3
 131:/home/cuil/workspace/arm/lm3s811/TI_Stellaris/driverlib/i2c.c ****         {
 132:/home/cuil/workspace/arm/lm3s811/TI_Stellaris/driverlib/i2c.c ****             //
 133:/home/cuil/workspace/arm/lm3s811/TI_Stellaris/driverlib/i2c.c ****             // Return the corresponding interrupt number.
 134:/home/cuil/workspace/arm/lm3s811/TI_Stellaris/driverlib/i2c.c ****             //
 135:/home/cuil/workspace/arm/lm3s811/TI_Stellaris/driverlib/i2c.c ****             return(g_ppulI2CIntMap[ulIdx][1]);
 9329              		.loc 1 135 0
 9330 001e 0B4A     		ldr	r2, .L6
 9331 0020 FB68     		ldr	r3, [r7, #12]
 9332 0022 4FEAC303 		lsl	r3, r3, #3
 9333 0026 D318     		adds	r3, r2, r3
 9334 0028 5B68     		ldr	r3, [r3, #4]
 9335 002a 08E0     		b	.L4
 9336              	.L3:
 125:/home/cuil/workspace/arm/lm3s811/TI_Stellaris/driverlib/i2c.c ****                             sizeof(g_ppulI2CIntMap[0])); ulIdx++)
 9337              		.loc 1 125 0
 9338 002c FB68     		ldr	r3, [r7, #12]
 9339 002e 03F10103 		add	r3, r3, #1
 9340 0032 FB60     		str	r3, [r7, #12]
 9341              	.L2:
 124:/home/cuil/workspace/arm/lm3s811/TI_Stellaris/driverlib/i2c.c ****     for(ulIdx = 0; ulIdx < (sizeof(g_ppulI2CIntMap) /
 9342              		.loc 1 124 0 discriminator 1
 9343 0034 FB68     		ldr	r3, [r7, #12]
 9344 0036 052B     		cmp	r3, #5
 9345 0038 EAD9     		bls	.L5
 136:/home/cuil/workspace/arm/lm3s811/TI_Stellaris/driverlib/i2c.c ****         }
 137:/home/cuil/workspace/arm/lm3s811/TI_Stellaris/driverlib/i2c.c ****     }
 138:/home/cuil/workspace/arm/lm3s811/TI_Stellaris/driverlib/i2c.c **** 
 139:/home/cuil/workspace/arm/lm3s811/TI_Stellaris/driverlib/i2c.c ****     //
 140:/home/cuil/workspace/arm/lm3s811/TI_Stellaris/driverlib/i2c.c ****     // The base address could not be found, so return an error.
 141:/home/cuil/workspace/arm/lm3s811/TI_Stellaris/driverlib/i2c.c ****     //
 142:/home/cuil/workspace/arm/lm3s811/TI_Stellaris/driverlib/i2c.c ****     return(-1);
 9346              		.loc 1 142 0
 9347 003a 4FF0FF33 		mov	r3, #-1
 9348              	.L4:
 143:/home/cuil/workspace/arm/lm3s811/TI_Stellaris/driverlib/i2c.c **** }
 9349              		.loc 1 143 0
 9350 003e 1846     		mov	r0, r3
 9351 0040 07F11407 		add	r7, r7, #20
 9352 0044 BD46     		mov	sp, r7
 9353 0046 80BC     		pop	{r7}
 9354 0048 7047     		bx	lr
 9355              	.L7:
 9356 004a 00BF     		.align	2
 9357              	.L6:
 9358 004c 00000000 		.word	g_ppulI2CIntMap
 9359              		.cfi_endproc
 9360              	.LFE0:
 9362              		.section	.text.I2CMasterInitExpClk,"ax",%progbits
 9363              		.align	2
 9364              		.global	I2CMasterInitExpClk
 9365              		.thumb
 9366              		.thumb_func
 9368              	I2CMasterInitExpClk:
 9369              	.LFB1:
 144:/home/cuil/workspace/arm/lm3s811/TI_Stellaris/driverlib/i2c.c **** 
 145:/home/cuil/workspace/arm/lm3s811/TI_Stellaris/driverlib/i2c.c **** //*****************************************************************************
 146:/home/cuil/workspace/arm/lm3s811/TI_Stellaris/driverlib/i2c.c **** //
 147:/home/cuil/workspace/arm/lm3s811/TI_Stellaris/driverlib/i2c.c **** //! Initializes the I2C Master block.
 148:/home/cuil/workspace/arm/lm3s811/TI_Stellaris/driverlib/i2c.c **** //!
 149:/home/cuil/workspace/arm/lm3s811/TI_Stellaris/driverlib/i2c.c **** //! \param ulBase is the base address of the I2C Master module.
 150:/home/cuil/workspace/arm/lm3s811/TI_Stellaris/driverlib/i2c.c **** //! \param ulI2CClk is the rate of the clock supplied to the I2C module.
 151:/home/cuil/workspace/arm/lm3s811/TI_Stellaris/driverlib/i2c.c **** //! \param bFast set up for fast data transfers
 152:/home/cuil/workspace/arm/lm3s811/TI_Stellaris/driverlib/i2c.c **** //!
 153:/home/cuil/workspace/arm/lm3s811/TI_Stellaris/driverlib/i2c.c **** //! This function initializes operation of the I2C Master block by configuring 
 154:/home/cuil/workspace/arm/lm3s811/TI_Stellaris/driverlib/i2c.c **** //! the bus speed for the master and enabling the I2C Master block.
 155:/home/cuil/workspace/arm/lm3s811/TI_Stellaris/driverlib/i2c.c **** //!
 156:/home/cuil/workspace/arm/lm3s811/TI_Stellaris/driverlib/i2c.c **** //! If the parameter \e bFast is \b true, then the master block is set up to
 157:/home/cuil/workspace/arm/lm3s811/TI_Stellaris/driverlib/i2c.c **** //! transfer data at 400 kbps; otherwise, it is set up to transfer data at
 158:/home/cuil/workspace/arm/lm3s811/TI_Stellaris/driverlib/i2c.c **** //! 100 kbps.
 159:/home/cuil/workspace/arm/lm3s811/TI_Stellaris/driverlib/i2c.c **** //!
 160:/home/cuil/workspace/arm/lm3s811/TI_Stellaris/driverlib/i2c.c **** //! The peripheral clock is the same as the processor clock.  This value is
 161:/home/cuil/workspace/arm/lm3s811/TI_Stellaris/driverlib/i2c.c **** //! returned by SysCtlClockGet(), or it can be explicitly hard coded if it is
 162:/home/cuil/workspace/arm/lm3s811/TI_Stellaris/driverlib/i2c.c **** //! constant and known (to save the code/execution overhead of a call to
 163:/home/cuil/workspace/arm/lm3s811/TI_Stellaris/driverlib/i2c.c **** //! SysCtlClockGet()).
 164:/home/cuil/workspace/arm/lm3s811/TI_Stellaris/driverlib/i2c.c **** //!
 165:/home/cuil/workspace/arm/lm3s811/TI_Stellaris/driverlib/i2c.c **** //! This function replaces the original I2CMasterInit() API and performs the
 166:/home/cuil/workspace/arm/lm3s811/TI_Stellaris/driverlib/i2c.c **** //! same actions.  A macro is provided in <tt>i2c.h</tt> to map the original
 167:/home/cuil/workspace/arm/lm3s811/TI_Stellaris/driverlib/i2c.c **** //! API to this API.
 168:/home/cuil/workspace/arm/lm3s811/TI_Stellaris/driverlib/i2c.c **** //!
 169:/home/cuil/workspace/arm/lm3s811/TI_Stellaris/driverlib/i2c.c **** //! \return None.
 170:/home/cuil/workspace/arm/lm3s811/TI_Stellaris/driverlib/i2c.c **** //
 171:/home/cuil/workspace/arm/lm3s811/TI_Stellaris/driverlib/i2c.c **** //*****************************************************************************
 172:/home/cuil/workspace/arm/lm3s811/TI_Stellaris/driverlib/i2c.c **** void
 173:/home/cuil/workspace/arm/lm3s811/TI_Stellaris/driverlib/i2c.c **** I2CMasterInitExpClk(unsigned long ulBase, unsigned long ulI2CClk,
 174:/home/cuil/workspace/arm/lm3s811/TI_Stellaris/driverlib/i2c.c ****                     tBoolean bFast)
 175:/home/cuil/workspace/arm/lm3s811/TI_Stellaris/driverlib/i2c.c **** {
 9370              		.loc 1 175 0
 9371              		.cfi_startproc
 9372              		@ args = 0, pretend = 0, frame = 24
 9373              		@ frame_needed = 1, uses_anonymous_args = 0
 9374 0000 80B5     		push	{r7, lr}
 9375              	.LCFI3:
 9376              		.cfi_def_cfa_offset 8
 9377 0002 86B0     		sub	sp, sp, #24
 9378              	.LCFI4:
 9379              		.cfi_def_cfa_offset 32
 9380 0004 00AF     		add	r7, sp, #0
 9381              		.cfi_offset 14, -4
 9382              		.cfi_offset 7, -8
 9383              	.LCFI5:
 9384              		.cfi_def_cfa_register 7
 9385 0006 F860     		str	r0, [r7, #12]
 9386 0008 B960     		str	r1, [r7, #8]
 9387 000a 1346     		mov	r3, r2
 9388 000c FB71     		strb	r3, [r7, #7]
 176:/home/cuil/workspace/arm/lm3s811/TI_Stellaris/driverlib/i2c.c ****     unsigned long ulSCLFreq;
 177:/home/cuil/workspace/arm/lm3s811/TI_Stellaris/driverlib/i2c.c ****     unsigned long ulTPR;
 178:/home/cuil/workspace/arm/lm3s811/TI_Stellaris/driverlib/i2c.c **** 
 179:/home/cuil/workspace/arm/lm3s811/TI_Stellaris/driverlib/i2c.c ****     //
 180:/home/cuil/workspace/arm/lm3s811/TI_Stellaris/driverlib/i2c.c ****     // Check the arguments.
 181:/home/cuil/workspace/arm/lm3s811/TI_Stellaris/driverlib/i2c.c ****     //
 182:/home/cuil/workspace/arm/lm3s811/TI_Stellaris/driverlib/i2c.c ****     ASSERT(I2CMasterBaseValid(ulBase));
 183:/home/cuil/workspace/arm/lm3s811/TI_Stellaris/driverlib/i2c.c **** 
 184:/home/cuil/workspace/arm/lm3s811/TI_Stellaris/driverlib/i2c.c ****     //
 185:/home/cuil/workspace/arm/lm3s811/TI_Stellaris/driverlib/i2c.c ****     // Must enable the device before doing anything else.
 186:/home/cuil/workspace/arm/lm3s811/TI_Stellaris/driverlib/i2c.c ****     //
 187:/home/cuil/workspace/arm/lm3s811/TI_Stellaris/driverlib/i2c.c ****     I2CMasterEnable(ulBase);
 9389              		.loc 1 187 0
 9390 000e F868     		ldr	r0, [r7, #12]
 9391 0010 FFF7FEFF 		bl	I2CMasterEnable
 188:/home/cuil/workspace/arm/lm3s811/TI_Stellaris/driverlib/i2c.c **** 
 189:/home/cuil/workspace/arm/lm3s811/TI_Stellaris/driverlib/i2c.c ****     //
 190:/home/cuil/workspace/arm/lm3s811/TI_Stellaris/driverlib/i2c.c ****     // Get the desired SCL speed.
 191:/home/cuil/workspace/arm/lm3s811/TI_Stellaris/driverlib/i2c.c ****     //
 192:/home/cuil/workspace/arm/lm3s811/TI_Stellaris/driverlib/i2c.c ****     if(bFast == true)
 9392              		.loc 1 192 0
 9393 0014 FB79     		ldrb	r3, [r7, #7]	@ zero_extendqisi2
 9394 0016 012B     		cmp	r3, #1
 9395 0018 02D1     		bne	.L9
 193:/home/cuil/workspace/arm/lm3s811/TI_Stellaris/driverlib/i2c.c ****     {
 194:/home/cuil/workspace/arm/lm3s811/TI_Stellaris/driverlib/i2c.c ****         ulSCLFreq = 400000;
 9396              		.loc 1 194 0
 9397 001a 134B     		ldr	r3, .L11
 9398 001c 7B61     		str	r3, [r7, #20]
 9399 001e 01E0     		b	.L10
 9400              	.L9:
 195:/home/cuil/workspace/arm/lm3s811/TI_Stellaris/driverlib/i2c.c ****     }
 196:/home/cuil/workspace/arm/lm3s811/TI_Stellaris/driverlib/i2c.c ****     else
 197:/home/cuil/workspace/arm/lm3s811/TI_Stellaris/driverlib/i2c.c ****     {
 198:/home/cuil/workspace/arm/lm3s811/TI_Stellaris/driverlib/i2c.c ****         ulSCLFreq = 100000;
 9401              		.loc 1 198 0
 9402 0020 124B     		ldr	r3, .L11+4
 9403 0022 7B61     		str	r3, [r7, #20]
 9404              	.L10:
 199:/home/cuil/workspace/arm/lm3s811/TI_Stellaris/driverlib/i2c.c ****     }
 200:/home/cuil/workspace/arm/lm3s811/TI_Stellaris/driverlib/i2c.c **** 
 201:/home/cuil/workspace/arm/lm3s811/TI_Stellaris/driverlib/i2c.c ****     //
 202:/home/cuil/workspace/arm/lm3s811/TI_Stellaris/driverlib/i2c.c ****     // Compute the clock divider that achieves the fastest speed less than or
 203:/home/cuil/workspace/arm/lm3s811/TI_Stellaris/driverlib/i2c.c ****     // equal to the desired speed.  The numerator is biased to favor a larger
 204:/home/cuil/workspace/arm/lm3s811/TI_Stellaris/driverlib/i2c.c ****     // clock divider so that the resulting clock is always less than or equal
 205:/home/cuil/workspace/arm/lm3s811/TI_Stellaris/driverlib/i2c.c ****     // to the desired clock, never greater.
 206:/home/cuil/workspace/arm/lm3s811/TI_Stellaris/driverlib/i2c.c ****     //
 207:/home/cuil/workspace/arm/lm3s811/TI_Stellaris/driverlib/i2c.c ****     ulTPR = ((ulI2CClk + (2 * 10 * ulSCLFreq) - 1) / (2 * 10 * ulSCLFreq)) - 1;
 9405              		.loc 1 207 0
 9406 0024 7A69     		ldr	r2, [r7, #20]
 9407 0026 1346     		mov	r3, r2
 9408 0028 4FEA8303 		lsl	r3, r3, #2
 9409 002c 9B18     		adds	r3, r3, r2
 9410 002e 4FEA8303 		lsl	r3, r3, #2
 9411 0032 1A46     		mov	r2, r3
 9412 0034 BB68     		ldr	r3, [r7, #8]
 9413 0036 D318     		adds	r3, r2, r3
 9414 0038 03F1FF31 		add	r1, r3, #-1
 9415 003c 7A69     		ldr	r2, [r7, #20]
 9416 003e 1346     		mov	r3, r2
 9417 0040 4FEA8303 		lsl	r3, r3, #2
 9418 0044 9B18     		adds	r3, r3, r2
 9419 0046 4FEA8303 		lsl	r3, r3, #2
 9420 004a B1FBF3F3 		udiv	r3, r1, r3
 9421 004e 03F1FF33 		add	r3, r3, #-1
 9422 0052 3B61     		str	r3, [r7, #16]
 208:/home/cuil/workspace/arm/lm3s811/TI_Stellaris/driverlib/i2c.c ****     HWREG(ulBase + I2C_O_MTPR) = ulTPR;
 9423              		.loc 1 208 0
 9424 0054 FB68     		ldr	r3, [r7, #12]
 9425 0056 03F10C03 		add	r3, r3, #12
 9426 005a 3A69     		ldr	r2, [r7, #16]
 9427 005c 1A60     		str	r2, [r3, #0]
 209:/home/cuil/workspace/arm/lm3s811/TI_Stellaris/driverlib/i2c.c **** }
 9428              		.loc 1 209 0
 9429 005e 07F11807 		add	r7, r7, #24
 9430 0062 BD46     		mov	sp, r7
 9431 0064 80BD     		pop	{r7, pc}
 9432              	.L12:
 9433 0066 00BF     		.align	2
 9434              	.L11:
 9435 0068 801A0600 		.word	400000
 9436 006c A0860100 		.word	100000
 9437              		.cfi_endproc
 9438              	.LFE1:
 9440              		.section	.text.I2CSlaveInit,"ax",%progbits
 9441              		.align	2
 9442              		.global	I2CSlaveInit
 9443              		.thumb
 9444              		.thumb_func
 9446              	I2CSlaveInit:
 9447              	.LFB2:
 210:/home/cuil/workspace/arm/lm3s811/TI_Stellaris/driverlib/i2c.c **** 
 211:/home/cuil/workspace/arm/lm3s811/TI_Stellaris/driverlib/i2c.c **** //*****************************************************************************
 212:/home/cuil/workspace/arm/lm3s811/TI_Stellaris/driverlib/i2c.c **** //
 213:/home/cuil/workspace/arm/lm3s811/TI_Stellaris/driverlib/i2c.c **** //! Initializes the I2C Slave block.
 214:/home/cuil/workspace/arm/lm3s811/TI_Stellaris/driverlib/i2c.c **** //!
 215:/home/cuil/workspace/arm/lm3s811/TI_Stellaris/driverlib/i2c.c **** //! \param ulBase is the base address of the I2C Slave module.
 216:/home/cuil/workspace/arm/lm3s811/TI_Stellaris/driverlib/i2c.c **** //! \param ucSlaveAddr 7-bit slave address
 217:/home/cuil/workspace/arm/lm3s811/TI_Stellaris/driverlib/i2c.c **** //!
 218:/home/cuil/workspace/arm/lm3s811/TI_Stellaris/driverlib/i2c.c **** //! This function initializes operation of the I2C Slave block by configuring
 219:/home/cuil/workspace/arm/lm3s811/TI_Stellaris/driverlib/i2c.c **** //! the slave address and enabling the I2C Slave block.
 220:/home/cuil/workspace/arm/lm3s811/TI_Stellaris/driverlib/i2c.c **** //!
 221:/home/cuil/workspace/arm/lm3s811/TI_Stellaris/driverlib/i2c.c **** //! The parameter \e ucSlaveAddr is the value that is compared against the
 222:/home/cuil/workspace/arm/lm3s811/TI_Stellaris/driverlib/i2c.c **** //! slave address sent by an I2C master.
 223:/home/cuil/workspace/arm/lm3s811/TI_Stellaris/driverlib/i2c.c **** //!
 224:/home/cuil/workspace/arm/lm3s811/TI_Stellaris/driverlib/i2c.c **** //! \return None.
 225:/home/cuil/workspace/arm/lm3s811/TI_Stellaris/driverlib/i2c.c **** //
 226:/home/cuil/workspace/arm/lm3s811/TI_Stellaris/driverlib/i2c.c **** //*****************************************************************************
 227:/home/cuil/workspace/arm/lm3s811/TI_Stellaris/driverlib/i2c.c **** void
 228:/home/cuil/workspace/arm/lm3s811/TI_Stellaris/driverlib/i2c.c **** I2CSlaveInit(unsigned long ulBase, unsigned char ucSlaveAddr)
 229:/home/cuil/workspace/arm/lm3s811/TI_Stellaris/driverlib/i2c.c **** {
 9448              		.loc 1 229 0
 9449              		.cfi_startproc
 9450              		@ args = 0, pretend = 0, frame = 8
 9451              		@ frame_needed = 1, uses_anonymous_args = 0
 9452 0000 80B5     		push	{r7, lr}
 9453              	.LCFI6:
 9454              		.cfi_def_cfa_offset 8
 9455 0002 82B0     		sub	sp, sp, #8
 9456              	.LCFI7:
 9457              		.cfi_def_cfa_offset 16
 9458 0004 00AF     		add	r7, sp, #0
 9459              		.cfi_offset 14, -4
 9460              		.cfi_offset 7, -8
 9461              	.LCFI8:
 9462              		.cfi_def_cfa_register 7
 9463 0006 7860     		str	r0, [r7, #4]
 9464 0008 0B46     		mov	r3, r1
 9465 000a FB70     		strb	r3, [r7, #3]
 230:/home/cuil/workspace/arm/lm3s811/TI_Stellaris/driverlib/i2c.c ****     //
 231:/home/cuil/workspace/arm/lm3s811/TI_Stellaris/driverlib/i2c.c ****     // Check the arguments.
 232:/home/cuil/workspace/arm/lm3s811/TI_Stellaris/driverlib/i2c.c ****     //
 233:/home/cuil/workspace/arm/lm3s811/TI_Stellaris/driverlib/i2c.c ****     ASSERT(I2CSlaveBaseValid(ulBase));
 234:/home/cuil/workspace/arm/lm3s811/TI_Stellaris/driverlib/i2c.c ****     ASSERT(!(ucSlaveAddr & 0x80));
 235:/home/cuil/workspace/arm/lm3s811/TI_Stellaris/driverlib/i2c.c **** 
 236:/home/cuil/workspace/arm/lm3s811/TI_Stellaris/driverlib/i2c.c ****     //
 237:/home/cuil/workspace/arm/lm3s811/TI_Stellaris/driverlib/i2c.c ****     // Must enable the device before doing anything else.
 238:/home/cuil/workspace/arm/lm3s811/TI_Stellaris/driverlib/i2c.c ****     //
 239:/home/cuil/workspace/arm/lm3s811/TI_Stellaris/driverlib/i2c.c ****     I2CSlaveEnable(ulBase);
 9466              		.loc 1 239 0
 9467 000c 7868     		ldr	r0, [r7, #4]
 9468 000e FFF7FEFF 		bl	I2CSlaveEnable
 240:/home/cuil/workspace/arm/lm3s811/TI_Stellaris/driverlib/i2c.c **** 
 241:/home/cuil/workspace/arm/lm3s811/TI_Stellaris/driverlib/i2c.c ****     //
 242:/home/cuil/workspace/arm/lm3s811/TI_Stellaris/driverlib/i2c.c ****     // Set up the slave address.
 243:/home/cuil/workspace/arm/lm3s811/TI_Stellaris/driverlib/i2c.c ****     //
 244:/home/cuil/workspace/arm/lm3s811/TI_Stellaris/driverlib/i2c.c ****     HWREG(ulBase + I2C_O_SOAR) = ucSlaveAddr;
 9469              		.loc 1 244 0
 9470 0012 7B68     		ldr	r3, [r7, #4]
 9471 0014 FA78     		ldrb	r2, [r7, #3]	@ zero_extendqisi2
 9472 0016 1A60     		str	r2, [r3, #0]
 245:/home/cuil/workspace/arm/lm3s811/TI_Stellaris/driverlib/i2c.c **** }
 9473              		.loc 1 245 0
 9474 0018 07F10807 		add	r7, r7, #8
 9475 001c BD46     		mov	sp, r7
 9476 001e 80BD     		pop	{r7, pc}
 9477              		.cfi_endproc
 9478              	.LFE2:
 9480              		.section	.text.I2CSlaveAddressSet,"ax",%progbits
 9481              		.align	2
 9482              		.global	I2CSlaveAddressSet
 9483              		.thumb
 9484              		.thumb_func
 9486              	I2CSlaveAddressSet:
 9487              	.LFB3:
 246:/home/cuil/workspace/arm/lm3s811/TI_Stellaris/driverlib/i2c.c **** 
 247:/home/cuil/workspace/arm/lm3s811/TI_Stellaris/driverlib/i2c.c **** //*****************************************************************************
 248:/home/cuil/workspace/arm/lm3s811/TI_Stellaris/driverlib/i2c.c **** //
 249:/home/cuil/workspace/arm/lm3s811/TI_Stellaris/driverlib/i2c.c **** //! Sets the I2C slave address.
 250:/home/cuil/workspace/arm/lm3s811/TI_Stellaris/driverlib/i2c.c **** //!
 251:/home/cuil/workspace/arm/lm3s811/TI_Stellaris/driverlib/i2c.c **** //! \param ulBase is the base address of the I2C Slave module.
 252:/home/cuil/workspace/arm/lm3s811/TI_Stellaris/driverlib/i2c.c **** //! \param ucAddrNum determines which slave address is set.
 253:/home/cuil/workspace/arm/lm3s811/TI_Stellaris/driverlib/i2c.c **** //! \param ucSlaveAddr 7-bit slave address
 254:/home/cuil/workspace/arm/lm3s811/TI_Stellaris/driverlib/i2c.c **** //!
 255:/home/cuil/workspace/arm/lm3s811/TI_Stellaris/driverlib/i2c.c **** //! This function writes the specified slave address.  The \e ulAddrNum field
 256:/home/cuil/workspace/arm/lm3s811/TI_Stellaris/driverlib/i2c.c **** //! dictates which slave address is configured.  For example, a value of 0
 257:/home/cuil/workspace/arm/lm3s811/TI_Stellaris/driverlib/i2c.c **** //! configures the primary address and a value of 1, the secondary.
 258:/home/cuil/workspace/arm/lm3s811/TI_Stellaris/driverlib/i2c.c **** //!
 259:/home/cuil/workspace/arm/lm3s811/TI_Stellaris/driverlib/i2c.c **** //! \note Not all Stellaris devices support a secondary address. Please consult  
 260:/home/cuil/workspace/arm/lm3s811/TI_Stellaris/driverlib/i2c.c **** //! the device data sheet to know if this feature is supported.
 261:/home/cuil/workspace/arm/lm3s811/TI_Stellaris/driverlib/i2c.c **** //!
 262:/home/cuil/workspace/arm/lm3s811/TI_Stellaris/driverlib/i2c.c **** //! \return None.
 263:/home/cuil/workspace/arm/lm3s811/TI_Stellaris/driverlib/i2c.c **** //
 264:/home/cuil/workspace/arm/lm3s811/TI_Stellaris/driverlib/i2c.c **** //*****************************************************************************
 265:/home/cuil/workspace/arm/lm3s811/TI_Stellaris/driverlib/i2c.c **** void
 266:/home/cuil/workspace/arm/lm3s811/TI_Stellaris/driverlib/i2c.c **** I2CSlaveAddressSet(unsigned long ulBase, unsigned char ucAddrNum,
 267:/home/cuil/workspace/arm/lm3s811/TI_Stellaris/driverlib/i2c.c ****                    unsigned char ucSlaveAddr)
 268:/home/cuil/workspace/arm/lm3s811/TI_Stellaris/driverlib/i2c.c **** {
 9488              		.loc 1 268 0
 9489              		.cfi_startproc
 9490              		@ args = 0, pretend = 0, frame = 8
 9491              		@ frame_needed = 1, uses_anonymous_args = 0
 9492              		@ link register save eliminated.
 9493 0000 80B4     		push	{r7}
 9494              	.LCFI9:
 9495              		.cfi_def_cfa_offset 4
 9496 0002 83B0     		sub	sp, sp, #12
 9497              	.LCFI10:
 9498              		.cfi_def_cfa_offset 16
 9499 0004 00AF     		add	r7, sp, #0
 9500              		.cfi_offset 7, -4
 9501              	.LCFI11:
 9502              		.cfi_def_cfa_register 7
 9503 0006 7860     		str	r0, [r7, #4]
 9504 0008 1346     		mov	r3, r2
 9505 000a 0A46     		mov	r2, r1
 9506 000c FA70     		strb	r2, [r7, #3]
 9507 000e BB70     		strb	r3, [r7, #2]
 269:/home/cuil/workspace/arm/lm3s811/TI_Stellaris/driverlib/i2c.c ****     //
 270:/home/cuil/workspace/arm/lm3s811/TI_Stellaris/driverlib/i2c.c ****     // Check the arguments.
 271:/home/cuil/workspace/arm/lm3s811/TI_Stellaris/driverlib/i2c.c ****     //
 272:/home/cuil/workspace/arm/lm3s811/TI_Stellaris/driverlib/i2c.c ****     ASSERT(I2CSlaveBaseValid(ulBase));
 273:/home/cuil/workspace/arm/lm3s811/TI_Stellaris/driverlib/i2c.c ****     ASSERT(!(ucAddrNum > 1));
 274:/home/cuil/workspace/arm/lm3s811/TI_Stellaris/driverlib/i2c.c ****     ASSERT(!(ucSlaveAddr & 0x80));
 275:/home/cuil/workspace/arm/lm3s811/TI_Stellaris/driverlib/i2c.c **** 
 276:/home/cuil/workspace/arm/lm3s811/TI_Stellaris/driverlib/i2c.c ****     //
 277:/home/cuil/workspace/arm/lm3s811/TI_Stellaris/driverlib/i2c.c ****     // Determine which slave address is being set.
 278:/home/cuil/workspace/arm/lm3s811/TI_Stellaris/driverlib/i2c.c ****     //
 279:/home/cuil/workspace/arm/lm3s811/TI_Stellaris/driverlib/i2c.c ****     switch(ucAddrNum)
 9508              		.loc 1 279 0
 9509 0010 FB78     		ldrb	r3, [r7, #3]	@ zero_extendqisi2
 9510 0012 002B     		cmp	r3, #0
 9511 0014 02D0     		beq	.L16
 9512 0016 012B     		cmp	r3, #1
 9513 0018 04D0     		beq	.L17
 9514 001a 0CE0     		b	.L14
 9515              	.L16:
 280:/home/cuil/workspace/arm/lm3s811/TI_Stellaris/driverlib/i2c.c ****     {
 281:/home/cuil/workspace/arm/lm3s811/TI_Stellaris/driverlib/i2c.c ****         //
 282:/home/cuil/workspace/arm/lm3s811/TI_Stellaris/driverlib/i2c.c ****         // Set up the primary slave address.
 283:/home/cuil/workspace/arm/lm3s811/TI_Stellaris/driverlib/i2c.c ****         //
 284:/home/cuil/workspace/arm/lm3s811/TI_Stellaris/driverlib/i2c.c ****         case 0:
 285:/home/cuil/workspace/arm/lm3s811/TI_Stellaris/driverlib/i2c.c ****         {
 286:/home/cuil/workspace/arm/lm3s811/TI_Stellaris/driverlib/i2c.c ****             HWREG(ulBase + I2C_O_SOAR) = ucSlaveAddr;
 9516              		.loc 1 286 0
 9517 001c 7B68     		ldr	r3, [r7, #4]
 9518 001e BA78     		ldrb	r2, [r7, #2]	@ zero_extendqisi2
 9519 0020 1A60     		str	r2, [r3, #0]
 287:/home/cuil/workspace/arm/lm3s811/TI_Stellaris/driverlib/i2c.c ****             break;
 9520              		.loc 1 287 0
 9521 0022 08E0     		b	.L14
 9522              	.L17:
 288:/home/cuil/workspace/arm/lm3s811/TI_Stellaris/driverlib/i2c.c ****         }
 289:/home/cuil/workspace/arm/lm3s811/TI_Stellaris/driverlib/i2c.c **** 
 290:/home/cuil/workspace/arm/lm3s811/TI_Stellaris/driverlib/i2c.c ****         //
 291:/home/cuil/workspace/arm/lm3s811/TI_Stellaris/driverlib/i2c.c ****         // Set up and enable the secondary slave address.
 292:/home/cuil/workspace/arm/lm3s811/TI_Stellaris/driverlib/i2c.c ****         //
 293:/home/cuil/workspace/arm/lm3s811/TI_Stellaris/driverlib/i2c.c ****         case 1:
 294:/home/cuil/workspace/arm/lm3s811/TI_Stellaris/driverlib/i2c.c ****         {
 295:/home/cuil/workspace/arm/lm3s811/TI_Stellaris/driverlib/i2c.c ****             HWREG(ulBase + I2C_O_SOAR2) = I2C_SOAR2_OAR2EN | ucSlaveAddr;
 9523              		.loc 1 295 0
 9524 0024 7B68     		ldr	r3, [r7, #4]
 9525 0026 03F11C03 		add	r3, r3, #28
 9526 002a BA78     		ldrb	r2, [r7, #2]
 9527 002c 62F07F02 		orn	r2, r2, #127
 9528 0030 D2B2     		uxtb	r2, r2
 9529 0032 1A60     		str	r2, [r3, #0]
 296:/home/cuil/workspace/arm/lm3s811/TI_Stellaris/driverlib/i2c.c ****             break;
 9530              		.loc 1 296 0
 9531 0034 00BF     		nop
 9532              	.L14:
 297:/home/cuil/workspace/arm/lm3s811/TI_Stellaris/driverlib/i2c.c ****         }
 298:/home/cuil/workspace/arm/lm3s811/TI_Stellaris/driverlib/i2c.c ****     }
 299:/home/cuil/workspace/arm/lm3s811/TI_Stellaris/driverlib/i2c.c **** }
 9533              		.loc 1 299 0
 9534 0036 07F10C07 		add	r7, r7, #12
 9535 003a BD46     		mov	sp, r7
 9536 003c 80BC     		pop	{r7}
 9537 003e 7047     		bx	lr
 9538              		.cfi_endproc
 9539              	.LFE3:
 9541              		.section	.text.I2CMasterEnable,"ax",%progbits
 9542              		.align	2
 9543              		.global	I2CMasterEnable
 9544              		.thumb
 9545              		.thumb_func
 9547              	I2CMasterEnable:
 9548              	.LFB4:
 300:/home/cuil/workspace/arm/lm3s811/TI_Stellaris/driverlib/i2c.c **** 
 301:/home/cuil/workspace/arm/lm3s811/TI_Stellaris/driverlib/i2c.c **** //*****************************************************************************
 302:/home/cuil/workspace/arm/lm3s811/TI_Stellaris/driverlib/i2c.c **** //
 303:/home/cuil/workspace/arm/lm3s811/TI_Stellaris/driverlib/i2c.c **** //! Enables the I2C Master block.
 304:/home/cuil/workspace/arm/lm3s811/TI_Stellaris/driverlib/i2c.c **** //!
 305:/home/cuil/workspace/arm/lm3s811/TI_Stellaris/driverlib/i2c.c **** //! \param ulBase is the base address of the I2C Master module.
 306:/home/cuil/workspace/arm/lm3s811/TI_Stellaris/driverlib/i2c.c **** //!
 307:/home/cuil/workspace/arm/lm3s811/TI_Stellaris/driverlib/i2c.c **** //! This function enables operation of the I2C Master block.
 308:/home/cuil/workspace/arm/lm3s811/TI_Stellaris/driverlib/i2c.c **** //!
 309:/home/cuil/workspace/arm/lm3s811/TI_Stellaris/driverlib/i2c.c **** //! \return None.
 310:/home/cuil/workspace/arm/lm3s811/TI_Stellaris/driverlib/i2c.c **** //
 311:/home/cuil/workspace/arm/lm3s811/TI_Stellaris/driverlib/i2c.c **** //*****************************************************************************
 312:/home/cuil/workspace/arm/lm3s811/TI_Stellaris/driverlib/i2c.c **** void
 313:/home/cuil/workspace/arm/lm3s811/TI_Stellaris/driverlib/i2c.c **** I2CMasterEnable(unsigned long ulBase)
 314:/home/cuil/workspace/arm/lm3s811/TI_Stellaris/driverlib/i2c.c **** {
 9549              		.loc 1 314 0
 9550              		.cfi_startproc
 9551              		@ args = 0, pretend = 0, frame = 8
 9552              		@ frame_needed = 1, uses_anonymous_args = 0
 9553              		@ link register save eliminated.
 9554 0000 80B4     		push	{r7}
 9555              	.LCFI12:
 9556              		.cfi_def_cfa_offset 4
 9557 0002 83B0     		sub	sp, sp, #12
 9558              	.LCFI13:
 9559              		.cfi_def_cfa_offset 16
 9560 0004 00AF     		add	r7, sp, #0
 9561              		.cfi_offset 7, -4
 9562              	.LCFI14:
 9563              		.cfi_def_cfa_register 7
 9564 0006 7860     		str	r0, [r7, #4]
 315:/home/cuil/workspace/arm/lm3s811/TI_Stellaris/driverlib/i2c.c ****     //
 316:/home/cuil/workspace/arm/lm3s811/TI_Stellaris/driverlib/i2c.c ****     // Check the arguments.
 317:/home/cuil/workspace/arm/lm3s811/TI_Stellaris/driverlib/i2c.c ****     //
 318:/home/cuil/workspace/arm/lm3s811/TI_Stellaris/driverlib/i2c.c ****     ASSERT(I2CMasterBaseValid(ulBase));
 319:/home/cuil/workspace/arm/lm3s811/TI_Stellaris/driverlib/i2c.c **** 
 320:/home/cuil/workspace/arm/lm3s811/TI_Stellaris/driverlib/i2c.c ****     //
 321:/home/cuil/workspace/arm/lm3s811/TI_Stellaris/driverlib/i2c.c ****     // Enable the master block.
 322:/home/cuil/workspace/arm/lm3s811/TI_Stellaris/driverlib/i2c.c ****     //
 323:/home/cuil/workspace/arm/lm3s811/TI_Stellaris/driverlib/i2c.c ****     HWREG(ulBase + I2C_O_MCR) |= I2C_MCR_MFE;
 9565              		.loc 1 323 0
 9566 0008 7B68     		ldr	r3, [r7, #4]
 9567 000a 03F12003 		add	r3, r3, #32
 9568 000e 7A68     		ldr	r2, [r7, #4]
 9569 0010 02F12002 		add	r2, r2, #32
 9570 0014 1268     		ldr	r2, [r2, #0]
 9571 0016 42F01002 		orr	r2, r2, #16
 9572 001a 1A60     		str	r2, [r3, #0]
 324:/home/cuil/workspace/arm/lm3s811/TI_Stellaris/driverlib/i2c.c **** }
 9573              		.loc 1 324 0
 9574 001c 07F10C07 		add	r7, r7, #12
 9575 0020 BD46     		mov	sp, r7
 9576 0022 80BC     		pop	{r7}
 9577 0024 7047     		bx	lr
 9578              		.cfi_endproc
 9579              	.LFE4:
 9581 0026 00BF     		.section	.text.I2CSlaveEnable,"ax",%progbits
 9582              		.align	2
 9583              		.global	I2CSlaveEnable
 9584              		.thumb
 9585              		.thumb_func
 9587              	I2CSlaveEnable:
 9588              	.LFB5:
 325:/home/cuil/workspace/arm/lm3s811/TI_Stellaris/driverlib/i2c.c **** 
 326:/home/cuil/workspace/arm/lm3s811/TI_Stellaris/driverlib/i2c.c **** //*****************************************************************************
 327:/home/cuil/workspace/arm/lm3s811/TI_Stellaris/driverlib/i2c.c **** //
 328:/home/cuil/workspace/arm/lm3s811/TI_Stellaris/driverlib/i2c.c **** //! Enables the I2C Slave block.
 329:/home/cuil/workspace/arm/lm3s811/TI_Stellaris/driverlib/i2c.c **** //!
 330:/home/cuil/workspace/arm/lm3s811/TI_Stellaris/driverlib/i2c.c **** //! \param ulBase is the base address of the I2C Slave module.
 331:/home/cuil/workspace/arm/lm3s811/TI_Stellaris/driverlib/i2c.c **** //!
 332:/home/cuil/workspace/arm/lm3s811/TI_Stellaris/driverlib/i2c.c **** //! This fucntion enables operation of the I2C Slave block.
 333:/home/cuil/workspace/arm/lm3s811/TI_Stellaris/driverlib/i2c.c **** //!
 334:/home/cuil/workspace/arm/lm3s811/TI_Stellaris/driverlib/i2c.c **** //! \return None.
 335:/home/cuil/workspace/arm/lm3s811/TI_Stellaris/driverlib/i2c.c **** //
 336:/home/cuil/workspace/arm/lm3s811/TI_Stellaris/driverlib/i2c.c **** //*****************************************************************************
 337:/home/cuil/workspace/arm/lm3s811/TI_Stellaris/driverlib/i2c.c **** void
 338:/home/cuil/workspace/arm/lm3s811/TI_Stellaris/driverlib/i2c.c **** I2CSlaveEnable(unsigned long ulBase)
 339:/home/cuil/workspace/arm/lm3s811/TI_Stellaris/driverlib/i2c.c **** {
 9589              		.loc 1 339 0
 9590              		.cfi_startproc
 9591              		@ args = 0, pretend = 0, frame = 8
 9592              		@ frame_needed = 1, uses_anonymous_args = 0
 9593              		@ link register save eliminated.
 9594 0000 80B4     		push	{r7}
 9595              	.LCFI15:
 9596              		.cfi_def_cfa_offset 4
 9597 0002 83B0     		sub	sp, sp, #12
 9598              	.LCFI16:
 9599              		.cfi_def_cfa_offset 16
 9600 0004 00AF     		add	r7, sp, #0
 9601              		.cfi_offset 7, -4
 9602              	.LCFI17:
 9603              		.cfi_def_cfa_register 7
 9604 0006 7860     		str	r0, [r7, #4]
 340:/home/cuil/workspace/arm/lm3s811/TI_Stellaris/driverlib/i2c.c ****     //
 341:/home/cuil/workspace/arm/lm3s811/TI_Stellaris/driverlib/i2c.c ****     // Check the arguments.
 342:/home/cuil/workspace/arm/lm3s811/TI_Stellaris/driverlib/i2c.c ****     //
 343:/home/cuil/workspace/arm/lm3s811/TI_Stellaris/driverlib/i2c.c ****     ASSERT(I2CSlaveBaseValid(ulBase));
 344:/home/cuil/workspace/arm/lm3s811/TI_Stellaris/driverlib/i2c.c **** 
 345:/home/cuil/workspace/arm/lm3s811/TI_Stellaris/driverlib/i2c.c ****     //
 346:/home/cuil/workspace/arm/lm3s811/TI_Stellaris/driverlib/i2c.c ****     // Enable the clock to the slave block.
 347:/home/cuil/workspace/arm/lm3s811/TI_Stellaris/driverlib/i2c.c ****     //
 348:/home/cuil/workspace/arm/lm3s811/TI_Stellaris/driverlib/i2c.c ****     HWREG(ulBase - I2C0_SLAVE_BASE + I2C0_MASTER_BASE + I2C_O_MCR) |=
 9605              		.loc 1 348 0
 9606 0008 7B68     		ldr	r3, [r7, #4]
 9607 000a A3F5FC63 		sub	r3, r3, #2016
 9608 000e 7A68     		ldr	r2, [r7, #4]
 9609 0010 A2F5FC62 		sub	r2, r2, #2016
 9610 0014 1268     		ldr	r2, [r2, #0]
 9611 0016 42F02002 		orr	r2, r2, #32
 9612 001a 1A60     		str	r2, [r3, #0]
 349:/home/cuil/workspace/arm/lm3s811/TI_Stellaris/driverlib/i2c.c ****         I2C_MCR_SFE;
 350:/home/cuil/workspace/arm/lm3s811/TI_Stellaris/driverlib/i2c.c **** 
 351:/home/cuil/workspace/arm/lm3s811/TI_Stellaris/driverlib/i2c.c ****     //
 352:/home/cuil/workspace/arm/lm3s811/TI_Stellaris/driverlib/i2c.c ****     // Enable the slave.
 353:/home/cuil/workspace/arm/lm3s811/TI_Stellaris/driverlib/i2c.c ****     //
 354:/home/cuil/workspace/arm/lm3s811/TI_Stellaris/driverlib/i2c.c ****     HWREG(ulBase + I2C_O_SCSR) = I2C_SCSR_DA;
 9613              		.loc 1 354 0
 9614 001c 7B68     		ldr	r3, [r7, #4]
 9615 001e 03F10403 		add	r3, r3, #4
 9616 0022 4FF00102 		mov	r2, #1
 9617 0026 1A60     		str	r2, [r3, #0]
 355:/home/cuil/workspace/arm/lm3s811/TI_Stellaris/driverlib/i2c.c **** }
 9618              		.loc 1 355 0
 9619 0028 07F10C07 		add	r7, r7, #12
 9620 002c BD46     		mov	sp, r7
 9621 002e 80BC     		pop	{r7}
 9622 0030 7047     		bx	lr
 9623              		.cfi_endproc
 9624              	.LFE5:
 9626 0032 00BF     		.section	.text.I2CMasterDisable,"ax",%progbits
 9627              		.align	2
 9628              		.global	I2CMasterDisable
 9629              		.thumb
 9630              		.thumb_func
 9632              	I2CMasterDisable:
 9633              	.LFB6:
 356:/home/cuil/workspace/arm/lm3s811/TI_Stellaris/driverlib/i2c.c **** 
 357:/home/cuil/workspace/arm/lm3s811/TI_Stellaris/driverlib/i2c.c **** //*****************************************************************************
 358:/home/cuil/workspace/arm/lm3s811/TI_Stellaris/driverlib/i2c.c **** //
 359:/home/cuil/workspace/arm/lm3s811/TI_Stellaris/driverlib/i2c.c **** //! Disables the I2C master block.
 360:/home/cuil/workspace/arm/lm3s811/TI_Stellaris/driverlib/i2c.c **** //!
 361:/home/cuil/workspace/arm/lm3s811/TI_Stellaris/driverlib/i2c.c **** //! \param ulBase is the base address of the I2C Master module.
 362:/home/cuil/workspace/arm/lm3s811/TI_Stellaris/driverlib/i2c.c **** //!
 363:/home/cuil/workspace/arm/lm3s811/TI_Stellaris/driverlib/i2c.c **** //! This function disables operation of the I2C master block.
 364:/home/cuil/workspace/arm/lm3s811/TI_Stellaris/driverlib/i2c.c **** //!
 365:/home/cuil/workspace/arm/lm3s811/TI_Stellaris/driverlib/i2c.c **** //! \return None.
 366:/home/cuil/workspace/arm/lm3s811/TI_Stellaris/driverlib/i2c.c **** //
 367:/home/cuil/workspace/arm/lm3s811/TI_Stellaris/driverlib/i2c.c **** //*****************************************************************************
 368:/home/cuil/workspace/arm/lm3s811/TI_Stellaris/driverlib/i2c.c **** void
 369:/home/cuil/workspace/arm/lm3s811/TI_Stellaris/driverlib/i2c.c **** I2CMasterDisable(unsigned long ulBase)
 370:/home/cuil/workspace/arm/lm3s811/TI_Stellaris/driverlib/i2c.c **** {
 9634              		.loc 1 370 0
 9635              		.cfi_startproc
 9636              		@ args = 0, pretend = 0, frame = 8
 9637              		@ frame_needed = 1, uses_anonymous_args = 0
 9638              		@ link register save eliminated.
 9639 0000 80B4     		push	{r7}
 9640              	.LCFI18:
 9641              		.cfi_def_cfa_offset 4
 9642 0002 83B0     		sub	sp, sp, #12
 9643              	.LCFI19:
 9644              		.cfi_def_cfa_offset 16
 9645 0004 00AF     		add	r7, sp, #0
 9646              		.cfi_offset 7, -4
 9647              	.LCFI20:
 9648              		.cfi_def_cfa_register 7
 9649 0006 7860     		str	r0, [r7, #4]
 371:/home/cuil/workspace/arm/lm3s811/TI_Stellaris/driverlib/i2c.c ****     //
 372:/home/cuil/workspace/arm/lm3s811/TI_Stellaris/driverlib/i2c.c ****     // Check the arguments.
 373:/home/cuil/workspace/arm/lm3s811/TI_Stellaris/driverlib/i2c.c ****     //
 374:/home/cuil/workspace/arm/lm3s811/TI_Stellaris/driverlib/i2c.c ****     ASSERT(I2CMasterBaseValid(ulBase));
 375:/home/cuil/workspace/arm/lm3s811/TI_Stellaris/driverlib/i2c.c **** 
 376:/home/cuil/workspace/arm/lm3s811/TI_Stellaris/driverlib/i2c.c ****     //
 377:/home/cuil/workspace/arm/lm3s811/TI_Stellaris/driverlib/i2c.c ****     // Disable the master block.
 378:/home/cuil/workspace/arm/lm3s811/TI_Stellaris/driverlib/i2c.c ****     //
 379:/home/cuil/workspace/arm/lm3s811/TI_Stellaris/driverlib/i2c.c ****     HWREG(ulBase + I2C_O_MCR) &= ~(I2C_MCR_MFE);
 9650              		.loc 1 379 0
 9651 0008 7B68     		ldr	r3, [r7, #4]
 9652 000a 03F12003 		add	r3, r3, #32
 9653 000e 7A68     		ldr	r2, [r7, #4]
 9654 0010 02F12002 		add	r2, r2, #32
 9655 0014 1268     		ldr	r2, [r2, #0]
 9656 0016 22F01002 		bic	r2, r2, #16
 9657 001a 1A60     		str	r2, [r3, #0]
 380:/home/cuil/workspace/arm/lm3s811/TI_Stellaris/driverlib/i2c.c **** }
 9658              		.loc 1 380 0
 9659 001c 07F10C07 		add	r7, r7, #12
 9660 0020 BD46     		mov	sp, r7
 9661 0022 80BC     		pop	{r7}
 9662 0024 7047     		bx	lr
 9663              		.cfi_endproc
 9664              	.LFE6:
 9666 0026 00BF     		.section	.text.I2CSlaveDisable,"ax",%progbits
 9667              		.align	2
 9668              		.global	I2CSlaveDisable
 9669              		.thumb
 9670              		.thumb_func
 9672              	I2CSlaveDisable:
 9673              	.LFB7:
 381:/home/cuil/workspace/arm/lm3s811/TI_Stellaris/driverlib/i2c.c **** 
 382:/home/cuil/workspace/arm/lm3s811/TI_Stellaris/driverlib/i2c.c **** //*****************************************************************************
 383:/home/cuil/workspace/arm/lm3s811/TI_Stellaris/driverlib/i2c.c **** //
 384:/home/cuil/workspace/arm/lm3s811/TI_Stellaris/driverlib/i2c.c **** //! Disables the I2C slave block.
 385:/home/cuil/workspace/arm/lm3s811/TI_Stellaris/driverlib/i2c.c **** //!
 386:/home/cuil/workspace/arm/lm3s811/TI_Stellaris/driverlib/i2c.c **** //! \param ulBase is the base address of the I2C Slave module.
 387:/home/cuil/workspace/arm/lm3s811/TI_Stellaris/driverlib/i2c.c **** //!
 388:/home/cuil/workspace/arm/lm3s811/TI_Stellaris/driverlib/i2c.c **** //! This function disables operation of the I2C slave block.
 389:/home/cuil/workspace/arm/lm3s811/TI_Stellaris/driverlib/i2c.c **** //!
 390:/home/cuil/workspace/arm/lm3s811/TI_Stellaris/driverlib/i2c.c **** //! \return None.
 391:/home/cuil/workspace/arm/lm3s811/TI_Stellaris/driverlib/i2c.c **** //
 392:/home/cuil/workspace/arm/lm3s811/TI_Stellaris/driverlib/i2c.c **** //*****************************************************************************
 393:/home/cuil/workspace/arm/lm3s811/TI_Stellaris/driverlib/i2c.c **** void
 394:/home/cuil/workspace/arm/lm3s811/TI_Stellaris/driverlib/i2c.c **** I2CSlaveDisable(unsigned long ulBase)
 395:/home/cuil/workspace/arm/lm3s811/TI_Stellaris/driverlib/i2c.c **** {
 9674              		.loc 1 395 0
 9675              		.cfi_startproc
 9676              		@ args = 0, pretend = 0, frame = 8
 9677              		@ frame_needed = 1, uses_anonymous_args = 0
 9678              		@ link register save eliminated.
 9679 0000 80B4     		push	{r7}
 9680              	.LCFI21:
 9681              		.cfi_def_cfa_offset 4
 9682 0002 83B0     		sub	sp, sp, #12
 9683              	.LCFI22:
 9684              		.cfi_def_cfa_offset 16
 9685 0004 00AF     		add	r7, sp, #0
 9686              		.cfi_offset 7, -4
 9687              	.LCFI23:
 9688              		.cfi_def_cfa_register 7
 9689 0006 7860     		str	r0, [r7, #4]
 396:/home/cuil/workspace/arm/lm3s811/TI_Stellaris/driverlib/i2c.c ****     //
 397:/home/cuil/workspace/arm/lm3s811/TI_Stellaris/driverlib/i2c.c ****     // Check the arguments.
 398:/home/cuil/workspace/arm/lm3s811/TI_Stellaris/driverlib/i2c.c ****     //
 399:/home/cuil/workspace/arm/lm3s811/TI_Stellaris/driverlib/i2c.c ****     ASSERT(I2CSlaveBaseValid(ulBase));
 400:/home/cuil/workspace/arm/lm3s811/TI_Stellaris/driverlib/i2c.c **** 
 401:/home/cuil/workspace/arm/lm3s811/TI_Stellaris/driverlib/i2c.c ****     //
 402:/home/cuil/workspace/arm/lm3s811/TI_Stellaris/driverlib/i2c.c ****     // Disable the slave.
 403:/home/cuil/workspace/arm/lm3s811/TI_Stellaris/driverlib/i2c.c ****     //
 404:/home/cuil/workspace/arm/lm3s811/TI_Stellaris/driverlib/i2c.c ****     HWREG(ulBase + I2C_O_SCSR) = 0;
 9690              		.loc 1 404 0
 9691 0008 7B68     		ldr	r3, [r7, #4]
 9692 000a 03F10403 		add	r3, r3, #4
 9693 000e 4FF00002 		mov	r2, #0
 9694 0012 1A60     		str	r2, [r3, #0]
 405:/home/cuil/workspace/arm/lm3s811/TI_Stellaris/driverlib/i2c.c **** 
 406:/home/cuil/workspace/arm/lm3s811/TI_Stellaris/driverlib/i2c.c ****     //
 407:/home/cuil/workspace/arm/lm3s811/TI_Stellaris/driverlib/i2c.c ****     // Disable the clock to the slave block.
 408:/home/cuil/workspace/arm/lm3s811/TI_Stellaris/driverlib/i2c.c ****     //
 409:/home/cuil/workspace/arm/lm3s811/TI_Stellaris/driverlib/i2c.c ****     HWREG(ulBase - I2C0_SLAVE_BASE + I2C0_MASTER_BASE + I2C_O_MCR) &=
 9695              		.loc 1 409 0
 9696 0014 7B68     		ldr	r3, [r7, #4]
 9697 0016 A3F5FC63 		sub	r3, r3, #2016
 9698 001a 7A68     		ldr	r2, [r7, #4]
 9699 001c A2F5FC62 		sub	r2, r2, #2016
 9700 0020 1268     		ldr	r2, [r2, #0]
 9701 0022 22F02002 		bic	r2, r2, #32
 9702 0026 1A60     		str	r2, [r3, #0]
 410:/home/cuil/workspace/arm/lm3s811/TI_Stellaris/driverlib/i2c.c ****         ~(I2C_MCR_SFE);
 411:/home/cuil/workspace/arm/lm3s811/TI_Stellaris/driverlib/i2c.c **** }
 9703              		.loc 1 411 0
 9704 0028 07F10C07 		add	r7, r7, #12
 9705 002c BD46     		mov	sp, r7
 9706 002e 80BC     		pop	{r7}
 9707 0030 7047     		bx	lr
 9708              		.cfi_endproc
 9709              	.LFE7:
 9711 0032 00BF     		.section	.text.I2CIntRegister,"ax",%progbits
 9712              		.align	2
 9713              		.global	I2CIntRegister
 9714              		.thumb
 9715              		.thumb_func
 9717              	I2CIntRegister:
 9718              	.LFB8:
 412:/home/cuil/workspace/arm/lm3s811/TI_Stellaris/driverlib/i2c.c **** 
 413:/home/cuil/workspace/arm/lm3s811/TI_Stellaris/driverlib/i2c.c **** //*****************************************************************************
 414:/home/cuil/workspace/arm/lm3s811/TI_Stellaris/driverlib/i2c.c **** //
 415:/home/cuil/workspace/arm/lm3s811/TI_Stellaris/driverlib/i2c.c **** //! Registers an interrupt handler for the I2C module.
 416:/home/cuil/workspace/arm/lm3s811/TI_Stellaris/driverlib/i2c.c **** //!
 417:/home/cuil/workspace/arm/lm3s811/TI_Stellaris/driverlib/i2c.c **** //! \param ulBase is the base address of the I2C Master module.
 418:/home/cuil/workspace/arm/lm3s811/TI_Stellaris/driverlib/i2c.c **** //! \param pfnHandler is a pointer to the function to be called when the
 419:/home/cuil/workspace/arm/lm3s811/TI_Stellaris/driverlib/i2c.c **** //! I2C interrupt occurs.
 420:/home/cuil/workspace/arm/lm3s811/TI_Stellaris/driverlib/i2c.c **** //!
 421:/home/cuil/workspace/arm/lm3s811/TI_Stellaris/driverlib/i2c.c **** //! This function sets the handler to be called when an I2C interrupt occurs.  
 422:/home/cuil/workspace/arm/lm3s811/TI_Stellaris/driverlib/i2c.c **** //! This function enables the global interrupt in the interrupt controller; 
 423:/home/cuil/workspace/arm/lm3s811/TI_Stellaris/driverlib/i2c.c **** //! specific I2C interrupts must be enabled via I2CMasterIntEnable() and
 424:/home/cuil/workspace/arm/lm3s811/TI_Stellaris/driverlib/i2c.c **** //! I2CSlaveIntEnable().  If necessary, it is the interrupt handler's
 425:/home/cuil/workspace/arm/lm3s811/TI_Stellaris/driverlib/i2c.c **** //! responsibility to clear the interrupt source via I2CMasterIntClear() and
 426:/home/cuil/workspace/arm/lm3s811/TI_Stellaris/driverlib/i2c.c **** //! I2CSlaveIntClear().
 427:/home/cuil/workspace/arm/lm3s811/TI_Stellaris/driverlib/i2c.c **** //!
 428:/home/cuil/workspace/arm/lm3s811/TI_Stellaris/driverlib/i2c.c **** //! \sa IntRegister() for important information about registering interrupt
 429:/home/cuil/workspace/arm/lm3s811/TI_Stellaris/driverlib/i2c.c **** //! handlers.
 430:/home/cuil/workspace/arm/lm3s811/TI_Stellaris/driverlib/i2c.c **** //!
 431:/home/cuil/workspace/arm/lm3s811/TI_Stellaris/driverlib/i2c.c **** //! \return None.
 432:/home/cuil/workspace/arm/lm3s811/TI_Stellaris/driverlib/i2c.c **** //
 433:/home/cuil/workspace/arm/lm3s811/TI_Stellaris/driverlib/i2c.c **** //*****************************************************************************
 434:/home/cuil/workspace/arm/lm3s811/TI_Stellaris/driverlib/i2c.c **** void
 435:/home/cuil/workspace/arm/lm3s811/TI_Stellaris/driverlib/i2c.c **** I2CIntRegister(unsigned long ulBase, void (*pfnHandler)(void))
 436:/home/cuil/workspace/arm/lm3s811/TI_Stellaris/driverlib/i2c.c **** {
 9719              		.loc 1 436 0
 9720              		.cfi_startproc
 9721              		@ args = 0, pretend = 0, frame = 16
 9722              		@ frame_needed = 1, uses_anonymous_args = 0
 9723 0000 80B5     		push	{r7, lr}
 9724              	.LCFI24:
 9725              		.cfi_def_cfa_offset 8
 9726 0002 84B0     		sub	sp, sp, #16
 9727              	.LCFI25:
 9728              		.cfi_def_cfa_offset 24
 9729 0004 00AF     		add	r7, sp, #0
 9730              		.cfi_offset 14, -4
 9731              		.cfi_offset 7, -8
 9732              	.LCFI26:
 9733              		.cfi_def_cfa_register 7
 9734 0006 7860     		str	r0, [r7, #4]
 9735 0008 3960     		str	r1, [r7, #0]
 437:/home/cuil/workspace/arm/lm3s811/TI_Stellaris/driverlib/i2c.c ****     unsigned long ulInt;
 438:/home/cuil/workspace/arm/lm3s811/TI_Stellaris/driverlib/i2c.c **** 
 439:/home/cuil/workspace/arm/lm3s811/TI_Stellaris/driverlib/i2c.c ****     //
 440:/home/cuil/workspace/arm/lm3s811/TI_Stellaris/driverlib/i2c.c ****     // Check the arguments.
 441:/home/cuil/workspace/arm/lm3s811/TI_Stellaris/driverlib/i2c.c ****     //
 442:/home/cuil/workspace/arm/lm3s811/TI_Stellaris/driverlib/i2c.c ****     ASSERT(I2CMasterBaseValid(ulBase));
 443:/home/cuil/workspace/arm/lm3s811/TI_Stellaris/driverlib/i2c.c **** 
 444:/home/cuil/workspace/arm/lm3s811/TI_Stellaris/driverlib/i2c.c ****     //
 445:/home/cuil/workspace/arm/lm3s811/TI_Stellaris/driverlib/i2c.c ****     // Determine the interrupt number based on the I2C port.
 446:/home/cuil/workspace/arm/lm3s811/TI_Stellaris/driverlib/i2c.c ****     //
 447:/home/cuil/workspace/arm/lm3s811/TI_Stellaris/driverlib/i2c.c ****     ulInt = I2CIntNumberGet(ulBase);
 9736              		.loc 1 447 0
 9737 000a 7868     		ldr	r0, [r7, #4]
 9738 000c FFF7FEFF 		bl	I2CIntNumberGet
 9739 0010 0346     		mov	r3, r0
 9740 0012 FB60     		str	r3, [r7, #12]
 448:/home/cuil/workspace/arm/lm3s811/TI_Stellaris/driverlib/i2c.c **** 
 449:/home/cuil/workspace/arm/lm3s811/TI_Stellaris/driverlib/i2c.c ****     //
 450:/home/cuil/workspace/arm/lm3s811/TI_Stellaris/driverlib/i2c.c ****     // Register the interrupt handler, returning an error if an error occurs.
 451:/home/cuil/workspace/arm/lm3s811/TI_Stellaris/driverlib/i2c.c ****     //
 452:/home/cuil/workspace/arm/lm3s811/TI_Stellaris/driverlib/i2c.c ****     IntRegister(ulInt, pfnHandler);
 9741              		.loc 1 452 0
 9742 0014 F868     		ldr	r0, [r7, #12]
 9743 0016 3968     		ldr	r1, [r7, #0]
 9744 0018 FFF7FEFF 		bl	IntRegister
 453:/home/cuil/workspace/arm/lm3s811/TI_Stellaris/driverlib/i2c.c **** 
 454:/home/cuil/workspace/arm/lm3s811/TI_Stellaris/driverlib/i2c.c ****     //
 455:/home/cuil/workspace/arm/lm3s811/TI_Stellaris/driverlib/i2c.c ****     // Enable the I2C interrupt.
 456:/home/cuil/workspace/arm/lm3s811/TI_Stellaris/driverlib/i2c.c ****     //
 457:/home/cuil/workspace/arm/lm3s811/TI_Stellaris/driverlib/i2c.c ****     IntEnable(ulInt);
 9745              		.loc 1 457 0
 9746 001c F868     		ldr	r0, [r7, #12]
 9747 001e FFF7FEFF 		bl	IntEnable
 458:/home/cuil/workspace/arm/lm3s811/TI_Stellaris/driverlib/i2c.c **** }
 9748              		.loc 1 458 0
 9749 0022 07F11007 		add	r7, r7, #16
 9750 0026 BD46     		mov	sp, r7
 9751 0028 80BD     		pop	{r7, pc}
 9752              		.cfi_endproc
 9753              	.LFE8:
 9755 002a 00BF     		.section	.text.I2CIntUnregister,"ax",%progbits
 9756              		.align	2
 9757              		.global	I2CIntUnregister
 9758              		.thumb
 9759              		.thumb_func
 9761              	I2CIntUnregister:
 9762              	.LFB9:
 459:/home/cuil/workspace/arm/lm3s811/TI_Stellaris/driverlib/i2c.c **** 
 460:/home/cuil/workspace/arm/lm3s811/TI_Stellaris/driverlib/i2c.c **** //*****************************************************************************
 461:/home/cuil/workspace/arm/lm3s811/TI_Stellaris/driverlib/i2c.c **** //
 462:/home/cuil/workspace/arm/lm3s811/TI_Stellaris/driverlib/i2c.c **** //! Unregisters an interrupt handler for the I2C module.
 463:/home/cuil/workspace/arm/lm3s811/TI_Stellaris/driverlib/i2c.c **** //!
 464:/home/cuil/workspace/arm/lm3s811/TI_Stellaris/driverlib/i2c.c **** //! \param ulBase is the base address of the I2C Master module.
 465:/home/cuil/workspace/arm/lm3s811/TI_Stellaris/driverlib/i2c.c **** //!
 466:/home/cuil/workspace/arm/lm3s811/TI_Stellaris/driverlib/i2c.c **** //! This function clears the handler to be called when an I2C interrupt
 467:/home/cuil/workspace/arm/lm3s811/TI_Stellaris/driverlib/i2c.c **** //! occurs.  This function also masks off the interrupt in the interrupt r
 468:/home/cuil/workspace/arm/lm3s811/TI_Stellaris/driverlib/i2c.c **** //! controlle so that the interrupt handler no longer is called.
 469:/home/cuil/workspace/arm/lm3s811/TI_Stellaris/driverlib/i2c.c **** //!
 470:/home/cuil/workspace/arm/lm3s811/TI_Stellaris/driverlib/i2c.c **** //! \sa IntRegister() for important information about registering interrupt
 471:/home/cuil/workspace/arm/lm3s811/TI_Stellaris/driverlib/i2c.c **** //! handlers.
 472:/home/cuil/workspace/arm/lm3s811/TI_Stellaris/driverlib/i2c.c **** //!
 473:/home/cuil/workspace/arm/lm3s811/TI_Stellaris/driverlib/i2c.c **** //! \return None.
 474:/home/cuil/workspace/arm/lm3s811/TI_Stellaris/driverlib/i2c.c **** //
 475:/home/cuil/workspace/arm/lm3s811/TI_Stellaris/driverlib/i2c.c **** //*****************************************************************************
 476:/home/cuil/workspace/arm/lm3s811/TI_Stellaris/driverlib/i2c.c **** void
 477:/home/cuil/workspace/arm/lm3s811/TI_Stellaris/driverlib/i2c.c **** I2CIntUnregister(unsigned long ulBase)
 478:/home/cuil/workspace/arm/lm3s811/TI_Stellaris/driverlib/i2c.c **** {
 9763              		.loc 1 478 0
 9764              		.cfi_startproc
 9765              		@ args = 0, pretend = 0, frame = 16
 9766              		@ frame_needed = 1, uses_anonymous_args = 0
 9767 0000 80B5     		push	{r7, lr}
 9768              	.LCFI27:
 9769              		.cfi_def_cfa_offset 8
 9770 0002 84B0     		sub	sp, sp, #16
 9771              	.LCFI28:
 9772              		.cfi_def_cfa_offset 24
 9773 0004 00AF     		add	r7, sp, #0
 9774              		.cfi_offset 14, -4
 9775              		.cfi_offset 7, -8
 9776              	.LCFI29:
 9777              		.cfi_def_cfa_register 7
 9778 0006 7860     		str	r0, [r7, #4]
 479:/home/cuil/workspace/arm/lm3s811/TI_Stellaris/driverlib/i2c.c ****     unsigned long ulInt;
 480:/home/cuil/workspace/arm/lm3s811/TI_Stellaris/driverlib/i2c.c **** 
 481:/home/cuil/workspace/arm/lm3s811/TI_Stellaris/driverlib/i2c.c ****     //
 482:/home/cuil/workspace/arm/lm3s811/TI_Stellaris/driverlib/i2c.c ****     // Check the arguments.
 483:/home/cuil/workspace/arm/lm3s811/TI_Stellaris/driverlib/i2c.c ****     //
 484:/home/cuil/workspace/arm/lm3s811/TI_Stellaris/driverlib/i2c.c ****     ASSERT(I2CMasterBaseValid(ulBase));
 485:/home/cuil/workspace/arm/lm3s811/TI_Stellaris/driverlib/i2c.c **** 
 486:/home/cuil/workspace/arm/lm3s811/TI_Stellaris/driverlib/i2c.c ****     //
 487:/home/cuil/workspace/arm/lm3s811/TI_Stellaris/driverlib/i2c.c ****     // Determine the interrupt number based on the I2C port.
 488:/home/cuil/workspace/arm/lm3s811/TI_Stellaris/driverlib/i2c.c ****     //
 489:/home/cuil/workspace/arm/lm3s811/TI_Stellaris/driverlib/i2c.c ****     ulInt = I2CIntNumberGet(ulBase);
 9779              		.loc 1 489 0
 9780 0008 7868     		ldr	r0, [r7, #4]
 9781 000a FFF7FEFF 		bl	I2CIntNumberGet
 9782 000e 0346     		mov	r3, r0
 9783 0010 FB60     		str	r3, [r7, #12]
 490:/home/cuil/workspace/arm/lm3s811/TI_Stellaris/driverlib/i2c.c **** 
 491:/home/cuil/workspace/arm/lm3s811/TI_Stellaris/driverlib/i2c.c ****     //
 492:/home/cuil/workspace/arm/lm3s811/TI_Stellaris/driverlib/i2c.c ****     // Disable the interrupt.
 493:/home/cuil/workspace/arm/lm3s811/TI_Stellaris/driverlib/i2c.c ****     //
 494:/home/cuil/workspace/arm/lm3s811/TI_Stellaris/driverlib/i2c.c ****     IntDisable(ulInt);
 9784              		.loc 1 494 0
 9785 0012 F868     		ldr	r0, [r7, #12]
 9786 0014 FFF7FEFF 		bl	IntDisable
 495:/home/cuil/workspace/arm/lm3s811/TI_Stellaris/driverlib/i2c.c **** 
 496:/home/cuil/workspace/arm/lm3s811/TI_Stellaris/driverlib/i2c.c ****     //
 497:/home/cuil/workspace/arm/lm3s811/TI_Stellaris/driverlib/i2c.c ****     // Unregister the interrupt handler.
 498:/home/cuil/workspace/arm/lm3s811/TI_Stellaris/driverlib/i2c.c ****     //
 499:/home/cuil/workspace/arm/lm3s811/TI_Stellaris/driverlib/i2c.c ****     IntUnregister(ulInt);
 9787              		.loc 1 499 0
 9788 0018 F868     		ldr	r0, [r7, #12]
 9789 001a FFF7FEFF 		bl	IntUnregister
 500:/home/cuil/workspace/arm/lm3s811/TI_Stellaris/driverlib/i2c.c **** }
 9790              		.loc 1 500 0
 9791 001e 07F11007 		add	r7, r7, #16
 9792 0022 BD46     		mov	sp, r7
 9793 0024 80BD     		pop	{r7, pc}
 9794              		.cfi_endproc
 9795              	.LFE9:
 9797 0026 00BF     		.section	.text.I2CMasterIntEnable,"ax",%progbits
 9798              		.align	2
 9799              		.global	I2CMasterIntEnable
 9800              		.thumb
 9801              		.thumb_func
 9803              	I2CMasterIntEnable:
 9804              	.LFB10:
 501:/home/cuil/workspace/arm/lm3s811/TI_Stellaris/driverlib/i2c.c **** 
 502:/home/cuil/workspace/arm/lm3s811/TI_Stellaris/driverlib/i2c.c **** //*****************************************************************************
 503:/home/cuil/workspace/arm/lm3s811/TI_Stellaris/driverlib/i2c.c **** //
 504:/home/cuil/workspace/arm/lm3s811/TI_Stellaris/driverlib/i2c.c **** //! Enables the I2C Master interrupt.
 505:/home/cuil/workspace/arm/lm3s811/TI_Stellaris/driverlib/i2c.c **** //!
 506:/home/cuil/workspace/arm/lm3s811/TI_Stellaris/driverlib/i2c.c **** //! \param ulBase is the base address of the I2C Master module.
 507:/home/cuil/workspace/arm/lm3s811/TI_Stellaris/driverlib/i2c.c **** //!
 508:/home/cuil/workspace/arm/lm3s811/TI_Stellaris/driverlib/i2c.c **** //! This function enables the I2C Master interrupt source.
 509:/home/cuil/workspace/arm/lm3s811/TI_Stellaris/driverlib/i2c.c **** //!
 510:/home/cuil/workspace/arm/lm3s811/TI_Stellaris/driverlib/i2c.c **** //! \return None.
 511:/home/cuil/workspace/arm/lm3s811/TI_Stellaris/driverlib/i2c.c **** //
 512:/home/cuil/workspace/arm/lm3s811/TI_Stellaris/driverlib/i2c.c **** //*****************************************************************************
 513:/home/cuil/workspace/arm/lm3s811/TI_Stellaris/driverlib/i2c.c **** void
 514:/home/cuil/workspace/arm/lm3s811/TI_Stellaris/driverlib/i2c.c **** I2CMasterIntEnable(unsigned long ulBase)
 515:/home/cuil/workspace/arm/lm3s811/TI_Stellaris/driverlib/i2c.c **** {
 9805              		.loc 1 515 0
 9806              		.cfi_startproc
 9807              		@ args = 0, pretend = 0, frame = 8
 9808              		@ frame_needed = 1, uses_anonymous_args = 0
 9809              		@ link register save eliminated.
 9810 0000 80B4     		push	{r7}
 9811              	.LCFI30:
 9812              		.cfi_def_cfa_offset 4
 9813 0002 83B0     		sub	sp, sp, #12
 9814              	.LCFI31:
 9815              		.cfi_def_cfa_offset 16
 9816 0004 00AF     		add	r7, sp, #0
 9817              		.cfi_offset 7, -4
 9818              	.LCFI32:
 9819              		.cfi_def_cfa_register 7
 9820 0006 7860     		str	r0, [r7, #4]
 516:/home/cuil/workspace/arm/lm3s811/TI_Stellaris/driverlib/i2c.c ****     //
 517:/home/cuil/workspace/arm/lm3s811/TI_Stellaris/driverlib/i2c.c ****     // Check the arguments.
 518:/home/cuil/workspace/arm/lm3s811/TI_Stellaris/driverlib/i2c.c ****     //
 519:/home/cuil/workspace/arm/lm3s811/TI_Stellaris/driverlib/i2c.c ****     ASSERT(I2CMasterBaseValid(ulBase));
 520:/home/cuil/workspace/arm/lm3s811/TI_Stellaris/driverlib/i2c.c **** 
 521:/home/cuil/workspace/arm/lm3s811/TI_Stellaris/driverlib/i2c.c ****     //
 522:/home/cuil/workspace/arm/lm3s811/TI_Stellaris/driverlib/i2c.c ****     // Enable the master interrupt.
 523:/home/cuil/workspace/arm/lm3s811/TI_Stellaris/driverlib/i2c.c ****     //
 524:/home/cuil/workspace/arm/lm3s811/TI_Stellaris/driverlib/i2c.c ****     HWREG(ulBase + I2C_O_MIMR) = 1;
 9821              		.loc 1 524 0
 9822 0008 7B68     		ldr	r3, [r7, #4]
 9823 000a 03F11003 		add	r3, r3, #16
 9824 000e 4FF00102 		mov	r2, #1
 9825 0012 1A60     		str	r2, [r3, #0]
 525:/home/cuil/workspace/arm/lm3s811/TI_Stellaris/driverlib/i2c.c **** }
 9826              		.loc 1 525 0
 9827 0014 07F10C07 		add	r7, r7, #12
 9828 0018 BD46     		mov	sp, r7
 9829 001a 80BC     		pop	{r7}
 9830 001c 7047     		bx	lr
 9831              		.cfi_endproc
 9832              	.LFE10:
 9834 001e 00BF     		.section	.text.I2CMasterIntEnableEx,"ax",%progbits
 9835              		.align	2
 9836              		.global	I2CMasterIntEnableEx
 9837              		.thumb
 9838              		.thumb_func
 9840              	I2CMasterIntEnableEx:
 9841              	.LFB11:
 526:/home/cuil/workspace/arm/lm3s811/TI_Stellaris/driverlib/i2c.c **** 
 527:/home/cuil/workspace/arm/lm3s811/TI_Stellaris/driverlib/i2c.c **** //*****************************************************************************
 528:/home/cuil/workspace/arm/lm3s811/TI_Stellaris/driverlib/i2c.c **** //
 529:/home/cuil/workspace/arm/lm3s811/TI_Stellaris/driverlib/i2c.c **** //! Enables individual I2C Master interrupt sources.
 530:/home/cuil/workspace/arm/lm3s811/TI_Stellaris/driverlib/i2c.c **** //!
 531:/home/cuil/workspace/arm/lm3s811/TI_Stellaris/driverlib/i2c.c **** //! \param ulBase is the base address of the I2C Master module.
 532:/home/cuil/workspace/arm/lm3s811/TI_Stellaris/driverlib/i2c.c **** //! \param ulIntFlags is the bit mask of the interrupt sources to be enabled.
 533:/home/cuil/workspace/arm/lm3s811/TI_Stellaris/driverlib/i2c.c **** //!
 534:/home/cuil/workspace/arm/lm3s811/TI_Stellaris/driverlib/i2c.c **** //! This function enables the indicated I2C Master interrupt sources.  Only the 
 535:/home/cuil/workspace/arm/lm3s811/TI_Stellaris/driverlib/i2c.c **** //! sources that are enabled can be reflected to the processor interrupt; 
 536:/home/cuil/workspace/arm/lm3s811/TI_Stellaris/driverlib/i2c.c **** //! disabled sources have no effect on the processor.
 537:/home/cuil/workspace/arm/lm3s811/TI_Stellaris/driverlib/i2c.c **** //!
 538:/home/cuil/workspace/arm/lm3s811/TI_Stellaris/driverlib/i2c.c **** //! The \e ulIntFlags parameter is the logical OR of any of the following:
 539:/home/cuil/workspace/arm/lm3s811/TI_Stellaris/driverlib/i2c.c **** //!
 540:/home/cuil/workspace/arm/lm3s811/TI_Stellaris/driverlib/i2c.c **** //! - \b I2C_MASTER_INT_TIMEOUT - Clock Timeout interrupt
 541:/home/cuil/workspace/arm/lm3s811/TI_Stellaris/driverlib/i2c.c **** //! - \b I2C_MASTER_INT_DATA - Data interrupt
 542:/home/cuil/workspace/arm/lm3s811/TI_Stellaris/driverlib/i2c.c **** //!
 543:/home/cuil/workspace/arm/lm3s811/TI_Stellaris/driverlib/i2c.c **** //! \note Not all Stellaris devices support the Clock Timeout interrupt.
 544:/home/cuil/workspace/arm/lm3s811/TI_Stellaris/driverlib/i2c.c **** //! Please consult the device data sheet to know if this feature is 
 545:/home/cuil/workspace/arm/lm3s811/TI_Stellaris/driverlib/i2c.c **** //! supported.
 546:/home/cuil/workspace/arm/lm3s811/TI_Stellaris/driverlib/i2c.c **** //!
 547:/home/cuil/workspace/arm/lm3s811/TI_Stellaris/driverlib/i2c.c **** //! \return None.
 548:/home/cuil/workspace/arm/lm3s811/TI_Stellaris/driverlib/i2c.c **** //
 549:/home/cuil/workspace/arm/lm3s811/TI_Stellaris/driverlib/i2c.c **** //*****************************************************************************
 550:/home/cuil/workspace/arm/lm3s811/TI_Stellaris/driverlib/i2c.c **** void
 551:/home/cuil/workspace/arm/lm3s811/TI_Stellaris/driverlib/i2c.c **** I2CMasterIntEnableEx(unsigned long ulBase, unsigned long ulIntFlags)
 552:/home/cuil/workspace/arm/lm3s811/TI_Stellaris/driverlib/i2c.c **** {
 9842              		.loc 1 552 0
 9843              		.cfi_startproc
 9844              		@ args = 0, pretend = 0, frame = 8
 9845              		@ frame_needed = 1, uses_anonymous_args = 0
 9846              		@ link register save eliminated.
 9847 0000 80B4     		push	{r7}
 9848              	.LCFI33:
 9849              		.cfi_def_cfa_offset 4
 9850 0002 83B0     		sub	sp, sp, #12
 9851              	.LCFI34:
 9852              		.cfi_def_cfa_offset 16
 9853 0004 00AF     		add	r7, sp, #0
 9854              		.cfi_offset 7, -4
 9855              	.LCFI35:
 9856              		.cfi_def_cfa_register 7
 9857 0006 7860     		str	r0, [r7, #4]
 9858 0008 3960     		str	r1, [r7, #0]
 553:/home/cuil/workspace/arm/lm3s811/TI_Stellaris/driverlib/i2c.c ****     //
 554:/home/cuil/workspace/arm/lm3s811/TI_Stellaris/driverlib/i2c.c ****     // Check the arguments.
 555:/home/cuil/workspace/arm/lm3s811/TI_Stellaris/driverlib/i2c.c ****     //
 556:/home/cuil/workspace/arm/lm3s811/TI_Stellaris/driverlib/i2c.c ****     ASSERT(I2CMasterBaseValid(ulBase));
 557:/home/cuil/workspace/arm/lm3s811/TI_Stellaris/driverlib/i2c.c **** 
 558:/home/cuil/workspace/arm/lm3s811/TI_Stellaris/driverlib/i2c.c ****     //
 559:/home/cuil/workspace/arm/lm3s811/TI_Stellaris/driverlib/i2c.c ****     // Enable the master interrupt.
 560:/home/cuil/workspace/arm/lm3s811/TI_Stellaris/driverlib/i2c.c ****     //
 561:/home/cuil/workspace/arm/lm3s811/TI_Stellaris/driverlib/i2c.c ****     HWREG(ulBase + I2C_O_MIMR) |= ulIntFlags;
 9859              		.loc 1 561 0
 9860 000a 7B68     		ldr	r3, [r7, #4]
 9861 000c 03F11003 		add	r3, r3, #16
 9862 0010 7A68     		ldr	r2, [r7, #4]
 9863 0012 02F11002 		add	r2, r2, #16
 9864 0016 1168     		ldr	r1, [r2, #0]
 9865 0018 3A68     		ldr	r2, [r7, #0]
 9866 001a 41EA0202 		orr	r2, r1, r2
 9867 001e 1A60     		str	r2, [r3, #0]
 562:/home/cuil/workspace/arm/lm3s811/TI_Stellaris/driverlib/i2c.c **** }
 9868              		.loc 1 562 0
 9869 0020 07F10C07 		add	r7, r7, #12
 9870 0024 BD46     		mov	sp, r7
 9871 0026 80BC     		pop	{r7}
 9872 0028 7047     		bx	lr
 9873              		.cfi_endproc
 9874              	.LFE11:
 9876 002a 00BF     		.section	.text.I2CSlaveIntEnable,"ax",%progbits
 9877              		.align	2
 9878              		.global	I2CSlaveIntEnable
 9879              		.thumb
 9880              		.thumb_func
 9882              	I2CSlaveIntEnable:
 9883              	.LFB12:
 563:/home/cuil/workspace/arm/lm3s811/TI_Stellaris/driverlib/i2c.c **** 
 564:/home/cuil/workspace/arm/lm3s811/TI_Stellaris/driverlib/i2c.c **** //*****************************************************************************
 565:/home/cuil/workspace/arm/lm3s811/TI_Stellaris/driverlib/i2c.c **** //
 566:/home/cuil/workspace/arm/lm3s811/TI_Stellaris/driverlib/i2c.c **** //! Enables the I2C Slave interrupt.
 567:/home/cuil/workspace/arm/lm3s811/TI_Stellaris/driverlib/i2c.c **** //!
 568:/home/cuil/workspace/arm/lm3s811/TI_Stellaris/driverlib/i2c.c **** //! \param ulBase is the base address of the I2C Slave module.
 569:/home/cuil/workspace/arm/lm3s811/TI_Stellaris/driverlib/i2c.c **** //!
 570:/home/cuil/workspace/arm/lm3s811/TI_Stellaris/driverlib/i2c.c **** //! This function enables the I2C Slave interrupt source.
 571:/home/cuil/workspace/arm/lm3s811/TI_Stellaris/driverlib/i2c.c **** //!
 572:/home/cuil/workspace/arm/lm3s811/TI_Stellaris/driverlib/i2c.c **** //! \return None.
 573:/home/cuil/workspace/arm/lm3s811/TI_Stellaris/driverlib/i2c.c **** //
 574:/home/cuil/workspace/arm/lm3s811/TI_Stellaris/driverlib/i2c.c **** //*****************************************************************************
 575:/home/cuil/workspace/arm/lm3s811/TI_Stellaris/driverlib/i2c.c **** void
 576:/home/cuil/workspace/arm/lm3s811/TI_Stellaris/driverlib/i2c.c **** I2CSlaveIntEnable(unsigned long ulBase)
 577:/home/cuil/workspace/arm/lm3s811/TI_Stellaris/driverlib/i2c.c **** {
 9884              		.loc 1 577 0
 9885              		.cfi_startproc
 9886              		@ args = 0, pretend = 0, frame = 8
 9887              		@ frame_needed = 1, uses_anonymous_args = 0
 9888              		@ link register save eliminated.
 9889 0000 80B4     		push	{r7}
 9890              	.LCFI36:
 9891              		.cfi_def_cfa_offset 4
 9892 0002 83B0     		sub	sp, sp, #12
 9893              	.LCFI37:
 9894              		.cfi_def_cfa_offset 16
 9895 0004 00AF     		add	r7, sp, #0
 9896              		.cfi_offset 7, -4
 9897              	.LCFI38:
 9898              		.cfi_def_cfa_register 7
 9899 0006 7860     		str	r0, [r7, #4]
 578:/home/cuil/workspace/arm/lm3s811/TI_Stellaris/driverlib/i2c.c ****     //
 579:/home/cuil/workspace/arm/lm3s811/TI_Stellaris/driverlib/i2c.c ****     // Check the arguments.
 580:/home/cuil/workspace/arm/lm3s811/TI_Stellaris/driverlib/i2c.c ****     //
 581:/home/cuil/workspace/arm/lm3s811/TI_Stellaris/driverlib/i2c.c ****     ASSERT(I2CSlaveBaseValid(ulBase));
 582:/home/cuil/workspace/arm/lm3s811/TI_Stellaris/driverlib/i2c.c **** 
 583:/home/cuil/workspace/arm/lm3s811/TI_Stellaris/driverlib/i2c.c ****     //
 584:/home/cuil/workspace/arm/lm3s811/TI_Stellaris/driverlib/i2c.c ****     // Enable the slave interrupt.
 585:/home/cuil/workspace/arm/lm3s811/TI_Stellaris/driverlib/i2c.c ****     //
 586:/home/cuil/workspace/arm/lm3s811/TI_Stellaris/driverlib/i2c.c ****     HWREG(ulBase + I2C_O_SIMR) |= I2C_SLAVE_INT_DATA;
 9900              		.loc 1 586 0
 9901 0008 7B68     		ldr	r3, [r7, #4]
 9902 000a 03F10C03 		add	r3, r3, #12
 9903 000e 7A68     		ldr	r2, [r7, #4]
 9904 0010 02F10C02 		add	r2, r2, #12
 9905 0014 1268     		ldr	r2, [r2, #0]
 9906 0016 42F00102 		orr	r2, r2, #1
 9907 001a 1A60     		str	r2, [r3, #0]
 587:/home/cuil/workspace/arm/lm3s811/TI_Stellaris/driverlib/i2c.c **** }
 9908              		.loc 1 587 0
 9909 001c 07F10C07 		add	r7, r7, #12
 9910 0020 BD46     		mov	sp, r7
 9911 0022 80BC     		pop	{r7}
 9912 0024 7047     		bx	lr
 9913              		.cfi_endproc
 9914              	.LFE12:
 9916 0026 00BF     		.section	.text.I2CSlaveIntEnableEx,"ax",%progbits
 9917              		.align	2
 9918              		.global	I2CSlaveIntEnableEx
 9919              		.thumb
 9920              		.thumb_func
 9922              	I2CSlaveIntEnableEx:
 9923              	.LFB13:
 588:/home/cuil/workspace/arm/lm3s811/TI_Stellaris/driverlib/i2c.c **** 
 589:/home/cuil/workspace/arm/lm3s811/TI_Stellaris/driverlib/i2c.c **** //*****************************************************************************
 590:/home/cuil/workspace/arm/lm3s811/TI_Stellaris/driverlib/i2c.c **** //
 591:/home/cuil/workspace/arm/lm3s811/TI_Stellaris/driverlib/i2c.c **** //! Enables individual I2C Slave interrupt sources.
 592:/home/cuil/workspace/arm/lm3s811/TI_Stellaris/driverlib/i2c.c **** //!
 593:/home/cuil/workspace/arm/lm3s811/TI_Stellaris/driverlib/i2c.c **** //! \param ulBase is the base address of the I2C Slave module.
 594:/home/cuil/workspace/arm/lm3s811/TI_Stellaris/driverlib/i2c.c **** //! \param ulIntFlags is the bit mask of the interrupt sources to be enabled.
 595:/home/cuil/workspace/arm/lm3s811/TI_Stellaris/driverlib/i2c.c **** //!
 596:/home/cuil/workspace/arm/lm3s811/TI_Stellaris/driverlib/i2c.c **** //! This function enables the indicated I2C Slave interrupt sources.  Only the 
 597:/home/cuil/workspace/arm/lm3s811/TI_Stellaris/driverlib/i2c.c **** //! sources that are enabled can be reflected to the processor interrupt; 
 598:/home/cuil/workspace/arm/lm3s811/TI_Stellaris/driverlib/i2c.c **** //! disabled sources have no effect on the processor.
 599:/home/cuil/workspace/arm/lm3s811/TI_Stellaris/driverlib/i2c.c **** //!
 600:/home/cuil/workspace/arm/lm3s811/TI_Stellaris/driverlib/i2c.c **** //! The \e ulIntFlags parameter is the logical OR of any of the following:
 601:/home/cuil/workspace/arm/lm3s811/TI_Stellaris/driverlib/i2c.c **** //!
 602:/home/cuil/workspace/arm/lm3s811/TI_Stellaris/driverlib/i2c.c **** //! - \b I2C_SLAVE_INT_STOP - Stop condition detected interrupt
 603:/home/cuil/workspace/arm/lm3s811/TI_Stellaris/driverlib/i2c.c **** //! - \b I2C_SLAVE_INT_START - Start condition detected interrupt
 604:/home/cuil/workspace/arm/lm3s811/TI_Stellaris/driverlib/i2c.c **** //! - \b I2C_SLAVE_INT_DATA - Data interrupt
 605:/home/cuil/workspace/arm/lm3s811/TI_Stellaris/driverlib/i2c.c **** //!
 606:/home/cuil/workspace/arm/lm3s811/TI_Stellaris/driverlib/i2c.c **** //! \note Not all Stellaris devices support the Stop and Start condition 
 607:/home/cuil/workspace/arm/lm3s811/TI_Stellaris/driverlib/i2c.c **** //! interrupts. Please consult the device data sheet to know if these features  
 608:/home/cuil/workspace/arm/lm3s811/TI_Stellaris/driverlib/i2c.c **** //! are supported.
 609:/home/cuil/workspace/arm/lm3s811/TI_Stellaris/driverlib/i2c.c **** //!
 610:/home/cuil/workspace/arm/lm3s811/TI_Stellaris/driverlib/i2c.c **** //! \return None.
 611:/home/cuil/workspace/arm/lm3s811/TI_Stellaris/driverlib/i2c.c **** //
 612:/home/cuil/workspace/arm/lm3s811/TI_Stellaris/driverlib/i2c.c **** //*****************************************************************************
 613:/home/cuil/workspace/arm/lm3s811/TI_Stellaris/driverlib/i2c.c **** void
 614:/home/cuil/workspace/arm/lm3s811/TI_Stellaris/driverlib/i2c.c **** I2CSlaveIntEnableEx(unsigned long ulBase, unsigned long ulIntFlags)
 615:/home/cuil/workspace/arm/lm3s811/TI_Stellaris/driverlib/i2c.c **** {
 9924              		.loc 1 615 0
 9925              		.cfi_startproc
 9926              		@ args = 0, pretend = 0, frame = 8
 9927              		@ frame_needed = 1, uses_anonymous_args = 0
 9928              		@ link register save eliminated.
 9929 0000 80B4     		push	{r7}
 9930              	.LCFI39:
 9931              		.cfi_def_cfa_offset 4
 9932 0002 83B0     		sub	sp, sp, #12
 9933              	.LCFI40:
 9934              		.cfi_def_cfa_offset 16
 9935 0004 00AF     		add	r7, sp, #0
 9936              		.cfi_offset 7, -4
 9937              	.LCFI41:
 9938              		.cfi_def_cfa_register 7
 9939 0006 7860     		str	r0, [r7, #4]
 9940 0008 3960     		str	r1, [r7, #0]
 616:/home/cuil/workspace/arm/lm3s811/TI_Stellaris/driverlib/i2c.c ****     //
 617:/home/cuil/workspace/arm/lm3s811/TI_Stellaris/driverlib/i2c.c ****     // Check the arguments.
 618:/home/cuil/workspace/arm/lm3s811/TI_Stellaris/driverlib/i2c.c ****     //
 619:/home/cuil/workspace/arm/lm3s811/TI_Stellaris/driverlib/i2c.c ****     ASSERT(I2CSlaveBaseValid(ulBase));
 620:/home/cuil/workspace/arm/lm3s811/TI_Stellaris/driverlib/i2c.c **** 
 621:/home/cuil/workspace/arm/lm3s811/TI_Stellaris/driverlib/i2c.c ****     //
 622:/home/cuil/workspace/arm/lm3s811/TI_Stellaris/driverlib/i2c.c ****     // Enable the slave interrupt.
 623:/home/cuil/workspace/arm/lm3s811/TI_Stellaris/driverlib/i2c.c ****     //
 624:/home/cuil/workspace/arm/lm3s811/TI_Stellaris/driverlib/i2c.c ****     HWREG(ulBase + I2C_O_SIMR) |= ulIntFlags;
 9941              		.loc 1 624 0
 9942 000a 7B68     		ldr	r3, [r7, #4]
 9943 000c 03F10C03 		add	r3, r3, #12
 9944 0010 7A68     		ldr	r2, [r7, #4]
 9945 0012 02F10C02 		add	r2, r2, #12
 9946 0016 1168     		ldr	r1, [r2, #0]
 9947 0018 3A68     		ldr	r2, [r7, #0]
 9948 001a 41EA0202 		orr	r2, r1, r2
 9949 001e 1A60     		str	r2, [r3, #0]
 625:/home/cuil/workspace/arm/lm3s811/TI_Stellaris/driverlib/i2c.c **** }
 9950              		.loc 1 625 0
 9951 0020 07F10C07 		add	r7, r7, #12
 9952 0024 BD46     		mov	sp, r7
 9953 0026 80BC     		pop	{r7}
 9954 0028 7047     		bx	lr
 9955              		.cfi_endproc
 9956              	.LFE13:
 9958 002a 00BF     		.section	.text.I2CMasterIntDisable,"ax",%progbits
 9959              		.align	2
 9960              		.global	I2CMasterIntDisable
 9961              		.thumb
 9962              		.thumb_func
 9964              	I2CMasterIntDisable:
 9965              	.LFB14:
 626:/home/cuil/workspace/arm/lm3s811/TI_Stellaris/driverlib/i2c.c **** 
 627:/home/cuil/workspace/arm/lm3s811/TI_Stellaris/driverlib/i2c.c **** //*****************************************************************************
 628:/home/cuil/workspace/arm/lm3s811/TI_Stellaris/driverlib/i2c.c **** //
 629:/home/cuil/workspace/arm/lm3s811/TI_Stellaris/driverlib/i2c.c **** //! Disables the I2C Master interrupt.
 630:/home/cuil/workspace/arm/lm3s811/TI_Stellaris/driverlib/i2c.c **** //!
 631:/home/cuil/workspace/arm/lm3s811/TI_Stellaris/driverlib/i2c.c **** //! \param ulBase is the base address of the I2C Master module.
 632:/home/cuil/workspace/arm/lm3s811/TI_Stellaris/driverlib/i2c.c **** //!
 633:/home/cuil/workspace/arm/lm3s811/TI_Stellaris/driverlib/i2c.c **** //! This function disables the I2C Master interrupt source.
 634:/home/cuil/workspace/arm/lm3s811/TI_Stellaris/driverlib/i2c.c **** //!
 635:/home/cuil/workspace/arm/lm3s811/TI_Stellaris/driverlib/i2c.c **** //! \return None.
 636:/home/cuil/workspace/arm/lm3s811/TI_Stellaris/driverlib/i2c.c **** //
 637:/home/cuil/workspace/arm/lm3s811/TI_Stellaris/driverlib/i2c.c **** //*****************************************************************************
 638:/home/cuil/workspace/arm/lm3s811/TI_Stellaris/driverlib/i2c.c **** void
 639:/home/cuil/workspace/arm/lm3s811/TI_Stellaris/driverlib/i2c.c **** I2CMasterIntDisable(unsigned long ulBase)
 640:/home/cuil/workspace/arm/lm3s811/TI_Stellaris/driverlib/i2c.c **** {
 9966              		.loc 1 640 0
 9967              		.cfi_startproc
 9968              		@ args = 0, pretend = 0, frame = 8
 9969              		@ frame_needed = 1, uses_anonymous_args = 0
 9970              		@ link register save eliminated.
 9971 0000 80B4     		push	{r7}
 9972              	.LCFI42:
 9973              		.cfi_def_cfa_offset 4
 9974 0002 83B0     		sub	sp, sp, #12
 9975              	.LCFI43:
 9976              		.cfi_def_cfa_offset 16
 9977 0004 00AF     		add	r7, sp, #0
 9978              		.cfi_offset 7, -4
 9979              	.LCFI44:
 9980              		.cfi_def_cfa_register 7
 9981 0006 7860     		str	r0, [r7, #4]
 641:/home/cuil/workspace/arm/lm3s811/TI_Stellaris/driverlib/i2c.c ****     //
 642:/home/cuil/workspace/arm/lm3s811/TI_Stellaris/driverlib/i2c.c ****     // Check the arguments.
 643:/home/cuil/workspace/arm/lm3s811/TI_Stellaris/driverlib/i2c.c ****     //
 644:/home/cuil/workspace/arm/lm3s811/TI_Stellaris/driverlib/i2c.c ****     ASSERT(I2CMasterBaseValid(ulBase));
 645:/home/cuil/workspace/arm/lm3s811/TI_Stellaris/driverlib/i2c.c **** 
 646:/home/cuil/workspace/arm/lm3s811/TI_Stellaris/driverlib/i2c.c ****     //
 647:/home/cuil/workspace/arm/lm3s811/TI_Stellaris/driverlib/i2c.c ****     // Disable the master interrupt.
 648:/home/cuil/workspace/arm/lm3s811/TI_Stellaris/driverlib/i2c.c ****     //
 649:/home/cuil/workspace/arm/lm3s811/TI_Stellaris/driverlib/i2c.c ****     HWREG(ulBase + I2C_O_MIMR) = 0;
 9982              		.loc 1 649 0
 9983 0008 7B68     		ldr	r3, [r7, #4]
 9984 000a 03F11003 		add	r3, r3, #16
 9985 000e 4FF00002 		mov	r2, #0
 9986 0012 1A60     		str	r2, [r3, #0]
 650:/home/cuil/workspace/arm/lm3s811/TI_Stellaris/driverlib/i2c.c **** }
 9987              		.loc 1 650 0
 9988 0014 07F10C07 		add	r7, r7, #12
 9989 0018 BD46     		mov	sp, r7
 9990 001a 80BC     		pop	{r7}
 9991 001c 7047     		bx	lr
 9992              		.cfi_endproc
 9993              	.LFE14:
 9995 001e 00BF     		.section	.text.I2CMasterIntDisableEx,"ax",%progbits
 9996              		.align	2
 9997              		.global	I2CMasterIntDisableEx
 9998              		.thumb
 9999              		.thumb_func
 10001              	I2CMasterIntDisableEx:
 10002              	.LFB15:
 651:/home/cuil/workspace/arm/lm3s811/TI_Stellaris/driverlib/i2c.c **** 
 652:/home/cuil/workspace/arm/lm3s811/TI_Stellaris/driverlib/i2c.c **** //*****************************************************************************
 653:/home/cuil/workspace/arm/lm3s811/TI_Stellaris/driverlib/i2c.c **** //
 654:/home/cuil/workspace/arm/lm3s811/TI_Stellaris/driverlib/i2c.c **** //! Disables individual I2C Master interrupt sources.
 655:/home/cuil/workspace/arm/lm3s811/TI_Stellaris/driverlib/i2c.c **** //!
 656:/home/cuil/workspace/arm/lm3s811/TI_Stellaris/driverlib/i2c.c **** //! \param ulBase is the base address of the I2C Master module.
 657:/home/cuil/workspace/arm/lm3s811/TI_Stellaris/driverlib/i2c.c **** //! \param ulIntFlags is the bit mask of the interrupt sources to be disabled.
 658:/home/cuil/workspace/arm/lm3s811/TI_Stellaris/driverlib/i2c.c **** //!
 659:/home/cuil/workspace/arm/lm3s811/TI_Stellaris/driverlib/i2c.c **** //! This function disables the indicated I2C Master interrupt sources.  Only 
 660:/home/cuil/workspace/arm/lm3s811/TI_Stellaris/driverlib/i2c.c **** //! the sources that are enabled can be reflected to the processor interrupt;
 661:/home/cuil/workspace/arm/lm3s811/TI_Stellaris/driverlib/i2c.c **** //! disabled sources have no effect on the processor.
 662:/home/cuil/workspace/arm/lm3s811/TI_Stellaris/driverlib/i2c.c **** //!
 663:/home/cuil/workspace/arm/lm3s811/TI_Stellaris/driverlib/i2c.c **** //! The \e ulIntFlags parameter has the same definition as the \e ulIntFlags
 664:/home/cuil/workspace/arm/lm3s811/TI_Stellaris/driverlib/i2c.c **** //! parameter to I2CMasterIntEnableEx().
 665:/home/cuil/workspace/arm/lm3s811/TI_Stellaris/driverlib/i2c.c **** //!
 666:/home/cuil/workspace/arm/lm3s811/TI_Stellaris/driverlib/i2c.c **** //! \return None.
 667:/home/cuil/workspace/arm/lm3s811/TI_Stellaris/driverlib/i2c.c **** //
 668:/home/cuil/workspace/arm/lm3s811/TI_Stellaris/driverlib/i2c.c **** //*****************************************************************************
 669:/home/cuil/workspace/arm/lm3s811/TI_Stellaris/driverlib/i2c.c **** void
 670:/home/cuil/workspace/arm/lm3s811/TI_Stellaris/driverlib/i2c.c **** I2CMasterIntDisableEx(unsigned long ulBase, unsigned long ulIntFlags)
 671:/home/cuil/workspace/arm/lm3s811/TI_Stellaris/driverlib/i2c.c **** {
 10003              		.loc 1 671 0
 10004              		.cfi_startproc
 10005              		@ args = 0, pretend = 0, frame = 8
 10006              		@ frame_needed = 1, uses_anonymous_args = 0
 10007              		@ link register save eliminated.
 10008 0000 80B4     		push	{r7}
 10009              	.LCFI45:
 10010              		.cfi_def_cfa_offset 4
 10011 0002 83B0     		sub	sp, sp, #12
 10012              	.LCFI46:
 10013              		.cfi_def_cfa_offset 16
 10014 0004 00AF     		add	r7, sp, #0
 10015              		.cfi_offset 7, -4
 10016              	.LCFI47:
 10017              		.cfi_def_cfa_register 7
 10018 0006 7860     		str	r0, [r7, #4]
 10019 0008 3960     		str	r1, [r7, #0]
 672:/home/cuil/workspace/arm/lm3s811/TI_Stellaris/driverlib/i2c.c ****     //
 673:/home/cuil/workspace/arm/lm3s811/TI_Stellaris/driverlib/i2c.c ****     // Check the arguments.
 674:/home/cuil/workspace/arm/lm3s811/TI_Stellaris/driverlib/i2c.c ****     //
 675:/home/cuil/workspace/arm/lm3s811/TI_Stellaris/driverlib/i2c.c ****     ASSERT(I2CMasterBaseValid(ulBase));
 676:/home/cuil/workspace/arm/lm3s811/TI_Stellaris/driverlib/i2c.c **** 
 677:/home/cuil/workspace/arm/lm3s811/TI_Stellaris/driverlib/i2c.c ****     //
 678:/home/cuil/workspace/arm/lm3s811/TI_Stellaris/driverlib/i2c.c ****     // Disable the master interrupt.
 679:/home/cuil/workspace/arm/lm3s811/TI_Stellaris/driverlib/i2c.c ****     //
 680:/home/cuil/workspace/arm/lm3s811/TI_Stellaris/driverlib/i2c.c ****     HWREG(ulBase + I2C_O_MIMR) &= ~ulIntFlags;
 10020              		.loc 1 680 0
 10021 000a 7B68     		ldr	r3, [r7, #4]
 10022 000c 03F11003 		add	r3, r3, #16
 10023 0010 7A68     		ldr	r2, [r7, #4]
 10024 0012 02F11002 		add	r2, r2, #16
 10025 0016 1168     		ldr	r1, [r2, #0]
 10026 0018 3A68     		ldr	r2, [r7, #0]
 10027 001a 6FEA0202 		mvn	r2, r2
 10028 001e 01EA0202 		and	r2, r1, r2
 10029 0022 1A60     		str	r2, [r3, #0]
 681:/home/cuil/workspace/arm/lm3s811/TI_Stellaris/driverlib/i2c.c **** }
 10030              		.loc 1 681 0
 10031 0024 07F10C07 		add	r7, r7, #12
 10032 0028 BD46     		mov	sp, r7
 10033 002a 80BC     		pop	{r7}
 10034 002c 7047     		bx	lr
 10035              		.cfi_endproc
 10036              	.LFE15:
 10038 002e 00BF     		.section	.text.I2CSlaveIntDisable,"ax",%progbits
 10039              		.align	2
 10040              		.global	I2CSlaveIntDisable
 10041              		.thumb
 10042              		.thumb_func
 10044              	I2CSlaveIntDisable:
 10045              	.LFB16:
 682:/home/cuil/workspace/arm/lm3s811/TI_Stellaris/driverlib/i2c.c **** 
 683:/home/cuil/workspace/arm/lm3s811/TI_Stellaris/driverlib/i2c.c **** //*****************************************************************************
 684:/home/cuil/workspace/arm/lm3s811/TI_Stellaris/driverlib/i2c.c **** //
 685:/home/cuil/workspace/arm/lm3s811/TI_Stellaris/driverlib/i2c.c **** //! Disables the I2C Slave interrupt.
 686:/home/cuil/workspace/arm/lm3s811/TI_Stellaris/driverlib/i2c.c **** //!
 687:/home/cuil/workspace/arm/lm3s811/TI_Stellaris/driverlib/i2c.c **** //! \param ulBase is the base address of the I2C Slave module.
 688:/home/cuil/workspace/arm/lm3s811/TI_Stellaris/driverlib/i2c.c **** //!
 689:/home/cuil/workspace/arm/lm3s811/TI_Stellaris/driverlib/i2c.c **** //! This function disables the I2C Slave interrupt source.
 690:/home/cuil/workspace/arm/lm3s811/TI_Stellaris/driverlib/i2c.c **** //!
 691:/home/cuil/workspace/arm/lm3s811/TI_Stellaris/driverlib/i2c.c **** //! \return None.
 692:/home/cuil/workspace/arm/lm3s811/TI_Stellaris/driverlib/i2c.c **** //
 693:/home/cuil/workspace/arm/lm3s811/TI_Stellaris/driverlib/i2c.c **** //*****************************************************************************
 694:/home/cuil/workspace/arm/lm3s811/TI_Stellaris/driverlib/i2c.c **** void
 695:/home/cuil/workspace/arm/lm3s811/TI_Stellaris/driverlib/i2c.c **** I2CSlaveIntDisable(unsigned long ulBase)
 696:/home/cuil/workspace/arm/lm3s811/TI_Stellaris/driverlib/i2c.c **** {
 10046              		.loc 1 696 0
 10047              		.cfi_startproc
 10048              		@ args = 0, pretend = 0, frame = 8
 10049              		@ frame_needed = 1, uses_anonymous_args = 0
 10050              		@ link register save eliminated.
 10051 0000 80B4     		push	{r7}
 10052              	.LCFI48:
 10053              		.cfi_def_cfa_offset 4
 10054 0002 83B0     		sub	sp, sp, #12
 10055              	.LCFI49:
 10056              		.cfi_def_cfa_offset 16
 10057 0004 00AF     		add	r7, sp, #0
 10058              		.cfi_offset 7, -4
 10059              	.LCFI50:
 10060              		.cfi_def_cfa_register 7
 10061 0006 7860     		str	r0, [r7, #4]
 697:/home/cuil/workspace/arm/lm3s811/TI_Stellaris/driverlib/i2c.c ****     //
 698:/home/cuil/workspace/arm/lm3s811/TI_Stellaris/driverlib/i2c.c ****     // Check the arguments.
 699:/home/cuil/workspace/arm/lm3s811/TI_Stellaris/driverlib/i2c.c ****     //
 700:/home/cuil/workspace/arm/lm3s811/TI_Stellaris/driverlib/i2c.c ****     ASSERT(I2CSlaveBaseValid(ulBase));
 701:/home/cuil/workspace/arm/lm3s811/TI_Stellaris/driverlib/i2c.c **** 
 702:/home/cuil/workspace/arm/lm3s811/TI_Stellaris/driverlib/i2c.c ****     //
 703:/home/cuil/workspace/arm/lm3s811/TI_Stellaris/driverlib/i2c.c ****     // Disable the slave interrupt.
 704:/home/cuil/workspace/arm/lm3s811/TI_Stellaris/driverlib/i2c.c ****     //
 705:/home/cuil/workspace/arm/lm3s811/TI_Stellaris/driverlib/i2c.c ****     HWREG(ulBase + I2C_O_SIMR) &= ~I2C_SLAVE_INT_DATA;
 10062              		.loc 1 705 0
 10063 0008 7B68     		ldr	r3, [r7, #4]
 10064 000a 03F10C03 		add	r3, r3, #12
 10065 000e 7A68     		ldr	r2, [r7, #4]
 10066 0010 02F10C02 		add	r2, r2, #12
 10067 0014 1268     		ldr	r2, [r2, #0]
 10068 0016 22F00102 		bic	r2, r2, #1
 10069 001a 1A60     		str	r2, [r3, #0]
 706:/home/cuil/workspace/arm/lm3s811/TI_Stellaris/driverlib/i2c.c **** }
 10070              		.loc 1 706 0
 10071 001c 07F10C07 		add	r7, r7, #12
 10072 0020 BD46     		mov	sp, r7
 10073 0022 80BC     		pop	{r7}
 10074 0024 7047     		bx	lr
 10075              		.cfi_endproc
 10076              	.LFE16:
 10078 0026 00BF     		.section	.text.I2CSlaveIntDisableEx,"ax",%progbits
 10079              		.align	2
 10080              		.global	I2CSlaveIntDisableEx
 10081              		.thumb
 10082              		.thumb_func
 10084              	I2CSlaveIntDisableEx:
 10085              	.LFB17:
 707:/home/cuil/workspace/arm/lm3s811/TI_Stellaris/driverlib/i2c.c **** 
 708:/home/cuil/workspace/arm/lm3s811/TI_Stellaris/driverlib/i2c.c **** //*****************************************************************************
 709:/home/cuil/workspace/arm/lm3s811/TI_Stellaris/driverlib/i2c.c **** //
 710:/home/cuil/workspace/arm/lm3s811/TI_Stellaris/driverlib/i2c.c **** //! Disables individual I2C Slave interrupt sources.
 711:/home/cuil/workspace/arm/lm3s811/TI_Stellaris/driverlib/i2c.c **** //!
 712:/home/cuil/workspace/arm/lm3s811/TI_Stellaris/driverlib/i2c.c **** //! \param ulBase is the base address of the I2C Slave module.
 713:/home/cuil/workspace/arm/lm3s811/TI_Stellaris/driverlib/i2c.c **** //! \param ulIntFlags is the bit mask of the interrupt sources to be disabled.
 714:/home/cuil/workspace/arm/lm3s811/TI_Stellaris/driverlib/i2c.c **** //!
 715:/home/cuil/workspace/arm/lm3s811/TI_Stellaris/driverlib/i2c.c **** //! This function disables the indicated I2C Slave interrupt sources.  Only
 716:/home/cuil/workspace/arm/lm3s811/TI_Stellaris/driverlib/i2c.c **** //! the sources that are enabled can be reflected to the processor interrupt; 
 717:/home/cuil/workspace/arm/lm3s811/TI_Stellaris/driverlib/i2c.c **** //! disabled sources have no effect on the processor.
 718:/home/cuil/workspace/arm/lm3s811/TI_Stellaris/driverlib/i2c.c **** //!
 719:/home/cuil/workspace/arm/lm3s811/TI_Stellaris/driverlib/i2c.c **** //! The \e ulIntFlags parameter has the same definition as the \e ulIntFlags
 720:/home/cuil/workspace/arm/lm3s811/TI_Stellaris/driverlib/i2c.c **** //! parameter to I2CSlaveIntEnableEx().
 721:/home/cuil/workspace/arm/lm3s811/TI_Stellaris/driverlib/i2c.c **** //!
 722:/home/cuil/workspace/arm/lm3s811/TI_Stellaris/driverlib/i2c.c **** //! \return None.
 723:/home/cuil/workspace/arm/lm3s811/TI_Stellaris/driverlib/i2c.c **** //
 724:/home/cuil/workspace/arm/lm3s811/TI_Stellaris/driverlib/i2c.c **** //*****************************************************************************
 725:/home/cuil/workspace/arm/lm3s811/TI_Stellaris/driverlib/i2c.c **** void
 726:/home/cuil/workspace/arm/lm3s811/TI_Stellaris/driverlib/i2c.c **** I2CSlaveIntDisableEx(unsigned long ulBase, unsigned long ulIntFlags)
 727:/home/cuil/workspace/arm/lm3s811/TI_Stellaris/driverlib/i2c.c **** {
 10086              		.loc 1 727 0
 10087              		.cfi_startproc
 10088              		@ args = 0, pretend = 0, frame = 8
 10089              		@ frame_needed = 1, uses_anonymous_args = 0
 10090              		@ link register save eliminated.
 10091 0000 80B4     		push	{r7}
 10092              	.LCFI51:
 10093              		.cfi_def_cfa_offset 4
 10094 0002 83B0     		sub	sp, sp, #12
 10095              	.LCFI52:
 10096              		.cfi_def_cfa_offset 16
 10097 0004 00AF     		add	r7, sp, #0
 10098              		.cfi_offset 7, -4
 10099              	.LCFI53:
 10100              		.cfi_def_cfa_register 7
 10101 0006 7860     		str	r0, [r7, #4]
 10102 0008 3960     		str	r1, [r7, #0]
 728:/home/cuil/workspace/arm/lm3s811/TI_Stellaris/driverlib/i2c.c ****     //
 729:/home/cuil/workspace/arm/lm3s811/TI_Stellaris/driverlib/i2c.c ****     // Check the arguments.
 730:/home/cuil/workspace/arm/lm3s811/TI_Stellaris/driverlib/i2c.c ****     //
 731:/home/cuil/workspace/arm/lm3s811/TI_Stellaris/driverlib/i2c.c ****     ASSERT(I2CSlaveBaseValid(ulBase));
 732:/home/cuil/workspace/arm/lm3s811/TI_Stellaris/driverlib/i2c.c **** 
 733:/home/cuil/workspace/arm/lm3s811/TI_Stellaris/driverlib/i2c.c ****     //
 734:/home/cuil/workspace/arm/lm3s811/TI_Stellaris/driverlib/i2c.c ****     // Disable the slave interrupt.
 735:/home/cuil/workspace/arm/lm3s811/TI_Stellaris/driverlib/i2c.c ****     //
 736:/home/cuil/workspace/arm/lm3s811/TI_Stellaris/driverlib/i2c.c ****     HWREG(ulBase + I2C_O_SIMR) &= ~ulIntFlags;
 10103              		.loc 1 736 0
 10104 000a 7B68     		ldr	r3, [r7, #4]
 10105 000c 03F10C03 		add	r3, r3, #12
 10106 0010 7A68     		ldr	r2, [r7, #4]
 10107 0012 02F10C02 		add	r2, r2, #12
 10108 0016 1168     		ldr	r1, [r2, #0]
 10109 0018 3A68     		ldr	r2, [r7, #0]
 10110 001a 6FEA0202 		mvn	r2, r2
 10111 001e 01EA0202 		and	r2, r1, r2
 10112 0022 1A60     		str	r2, [r3, #0]
 737:/home/cuil/workspace/arm/lm3s811/TI_Stellaris/driverlib/i2c.c **** }
 10113              		.loc 1 737 0
 10114 0024 07F10C07 		add	r7, r7, #12
 10115 0028 BD46     		mov	sp, r7
 10116 002a 80BC     		pop	{r7}
 10117 002c 7047     		bx	lr
 10118              		.cfi_endproc
 10119              	.LFE17:
 10121 002e 00BF     		.section	.text.I2CMasterIntStatus,"ax",%progbits
 10122              		.align	2
 10123              		.global	I2CMasterIntStatus
 10124              		.thumb
 10125              		.thumb_func
 10127              	I2CMasterIntStatus:
 10128              	.LFB18:
 738:/home/cuil/workspace/arm/lm3s811/TI_Stellaris/driverlib/i2c.c **** 
 739:/home/cuil/workspace/arm/lm3s811/TI_Stellaris/driverlib/i2c.c **** //*****************************************************************************
 740:/home/cuil/workspace/arm/lm3s811/TI_Stellaris/driverlib/i2c.c **** //
 741:/home/cuil/workspace/arm/lm3s811/TI_Stellaris/driverlib/i2c.c **** //! Gets the current I2C Master interrupt status.
 742:/home/cuil/workspace/arm/lm3s811/TI_Stellaris/driverlib/i2c.c **** //!
 743:/home/cuil/workspace/arm/lm3s811/TI_Stellaris/driverlib/i2c.c **** //! \param ulBase is the base address of the I2C Master module.
 744:/home/cuil/workspace/arm/lm3s811/TI_Stellaris/driverlib/i2c.c **** //! \param bMasked is false if the raw interrupt status is requested and
 745:/home/cuil/workspace/arm/lm3s811/TI_Stellaris/driverlib/i2c.c **** //! true if the masked interrupt status is requested.
 746:/home/cuil/workspace/arm/lm3s811/TI_Stellaris/driverlib/i2c.c **** //!
 747:/home/cuil/workspace/arm/lm3s811/TI_Stellaris/driverlib/i2c.c **** //! This function returns the interrupt status for the I2C Master module.  
 748:/home/cuil/workspace/arm/lm3s811/TI_Stellaris/driverlib/i2c.c **** //! Either the raw interrupt status or the status of interrupts that are allowed to
 749:/home/cuil/workspace/arm/lm3s811/TI_Stellaris/driverlib/i2c.c **** //! reflect to the processor can be returned.
 750:/home/cuil/workspace/arm/lm3s811/TI_Stellaris/driverlib/i2c.c **** //!
 751:/home/cuil/workspace/arm/lm3s811/TI_Stellaris/driverlib/i2c.c **** //! \return The current interrupt status, returned as \b true if active
 752:/home/cuil/workspace/arm/lm3s811/TI_Stellaris/driverlib/i2c.c **** //! or \b false if not active.
 753:/home/cuil/workspace/arm/lm3s811/TI_Stellaris/driverlib/i2c.c **** //
 754:/home/cuil/workspace/arm/lm3s811/TI_Stellaris/driverlib/i2c.c **** //*****************************************************************************
 755:/home/cuil/workspace/arm/lm3s811/TI_Stellaris/driverlib/i2c.c **** tBoolean
 756:/home/cuil/workspace/arm/lm3s811/TI_Stellaris/driverlib/i2c.c **** I2CMasterIntStatus(unsigned long ulBase, tBoolean bMasked)
 757:/home/cuil/workspace/arm/lm3s811/TI_Stellaris/driverlib/i2c.c **** {
 10129              		.loc 1 757 0
 10130              		.cfi_startproc
 10131              		@ args = 0, pretend = 0, frame = 8
 10132              		@ frame_needed = 1, uses_anonymous_args = 0
 10133              		@ link register save eliminated.
 10134 0000 80B4     		push	{r7}
 10135              	.LCFI54:
 10136              		.cfi_def_cfa_offset 4
 10137 0002 83B0     		sub	sp, sp, #12
 10138              	.LCFI55:
 10139              		.cfi_def_cfa_offset 16
 10140 0004 00AF     		add	r7, sp, #0
 10141              		.cfi_offset 7, -4
 10142              	.LCFI56:
 10143              		.cfi_def_cfa_register 7
 10144 0006 7860     		str	r0, [r7, #4]
 10145 0008 0B46     		mov	r3, r1
 10146 000a FB70     		strb	r3, [r7, #3]
 758:/home/cuil/workspace/arm/lm3s811/TI_Stellaris/driverlib/i2c.c ****     //
 759:/home/cuil/workspace/arm/lm3s811/TI_Stellaris/driverlib/i2c.c ****     // Check the arguments.
 760:/home/cuil/workspace/arm/lm3s811/TI_Stellaris/driverlib/i2c.c ****     //
 761:/home/cuil/workspace/arm/lm3s811/TI_Stellaris/driverlib/i2c.c ****     ASSERT(I2CMasterBaseValid(ulBase));
 762:/home/cuil/workspace/arm/lm3s811/TI_Stellaris/driverlib/i2c.c **** 
 763:/home/cuil/workspace/arm/lm3s811/TI_Stellaris/driverlib/i2c.c ****     //
 764:/home/cuil/workspace/arm/lm3s811/TI_Stellaris/driverlib/i2c.c ****     // Return either the interrupt status or the raw interrupt status as
 765:/home/cuil/workspace/arm/lm3s811/TI_Stellaris/driverlib/i2c.c ****     // requested.
 766:/home/cuil/workspace/arm/lm3s811/TI_Stellaris/driverlib/i2c.c ****     //
 767:/home/cuil/workspace/arm/lm3s811/TI_Stellaris/driverlib/i2c.c ****     if(bMasked)
 10147              		.loc 1 767 0
 10148 000c FB78     		ldrb	r3, [r7, #3]	@ zero_extendqisi2
 10149 000e 002B     		cmp	r3, #0
 10150 0010 09D0     		beq	.L33
 768:/home/cuil/workspace/arm/lm3s811/TI_Stellaris/driverlib/i2c.c ****     {
 769:/home/cuil/workspace/arm/lm3s811/TI_Stellaris/driverlib/i2c.c ****         return((HWREG(ulBase + I2C_O_MMIS)) ? true : false);
 10151              		.loc 1 769 0
 10152 0012 7B68     		ldr	r3, [r7, #4]
 10153 0014 03F11803 		add	r3, r3, #24
 10154 0018 1B68     		ldr	r3, [r3, #0]
 10155 001a 002B     		cmp	r3, #0
 10156 001c 0CBF     		ite	eq
 10157 001e 0023     		moveq	r3, #0
 10158 0020 0123     		movne	r3, #1
 10159 0022 DBB2     		uxtb	r3, r3
 10160 0024 08E0     		b	.L34
 10161              	.L33:
 770:/home/cuil/workspace/arm/lm3s811/TI_Stellaris/driverlib/i2c.c ****     }
 771:/home/cuil/workspace/arm/lm3s811/TI_Stellaris/driverlib/i2c.c ****     else
 772:/home/cuil/workspace/arm/lm3s811/TI_Stellaris/driverlib/i2c.c ****     {
 773:/home/cuil/workspace/arm/lm3s811/TI_Stellaris/driverlib/i2c.c ****         return((HWREG(ulBase + I2C_O_MRIS)) ? true : false);
 10162              		.loc 1 773 0
 10163 0026 7B68     		ldr	r3, [r7, #4]
 10164 0028 03F11403 		add	r3, r3, #20
 10165 002c 1B68     		ldr	r3, [r3, #0]
 10166 002e 002B     		cmp	r3, #0
 10167 0030 0CBF     		ite	eq
 10168 0032 0023     		moveq	r3, #0
 10169 0034 0123     		movne	r3, #1
 10170 0036 DBB2     		uxtb	r3, r3
 10171              	.L34:
 774:/home/cuil/workspace/arm/lm3s811/TI_Stellaris/driverlib/i2c.c ****     }
 775:/home/cuil/workspace/arm/lm3s811/TI_Stellaris/driverlib/i2c.c **** }
 10172              		.loc 1 775 0
 10173 0038 1846     		mov	r0, r3
 10174 003a 07F10C07 		add	r7, r7, #12
 10175 003e BD46     		mov	sp, r7
 10176 0040 80BC     		pop	{r7}
 10177 0042 7047     		bx	lr
 10178              		.cfi_endproc
 10179              	.LFE18:
 10181              		.section	.text.I2CMasterIntStatusEx,"ax",%progbits
 10182              		.align	2
 10183              		.global	I2CMasterIntStatusEx
 10184              		.thumb
 10185              		.thumb_func
 10187              	I2CMasterIntStatusEx:
 10188              	.LFB19:
 776:/home/cuil/workspace/arm/lm3s811/TI_Stellaris/driverlib/i2c.c **** 
 777:/home/cuil/workspace/arm/lm3s811/TI_Stellaris/driverlib/i2c.c **** //*****************************************************************************
 778:/home/cuil/workspace/arm/lm3s811/TI_Stellaris/driverlib/i2c.c **** //
 779:/home/cuil/workspace/arm/lm3s811/TI_Stellaris/driverlib/i2c.c **** //! Gets the current I2C Master interrupt status.
 780:/home/cuil/workspace/arm/lm3s811/TI_Stellaris/driverlib/i2c.c **** //!
 781:/home/cuil/workspace/arm/lm3s811/TI_Stellaris/driverlib/i2c.c **** //! \param ulBase is the base address of the I2C Master module.
 782:/home/cuil/workspace/arm/lm3s811/TI_Stellaris/driverlib/i2c.c **** //! \param bMasked is false if the raw interrupt status is requested and
 783:/home/cuil/workspace/arm/lm3s811/TI_Stellaris/driverlib/i2c.c **** //! true if the masked interrupt status is requested.
 784:/home/cuil/workspace/arm/lm3s811/TI_Stellaris/driverlib/i2c.c **** //!
 785:/home/cuil/workspace/arm/lm3s811/TI_Stellaris/driverlib/i2c.c **** //! This function returns the interrupt status for the I2C Master module.  
 786:/home/cuil/workspace/arm/lm3s811/TI_Stellaris/driverlib/i2c.c **** //! Either the raw interrupt status or the status of interrupts that are 
 787:/home/cuil/workspace/arm/lm3s811/TI_Stellaris/driverlib/i2c.c **** //! allowed to reflect to the processor can be returned.
 788:/home/cuil/workspace/arm/lm3s811/TI_Stellaris/driverlib/i2c.c **** //!
 789:/home/cuil/workspace/arm/lm3s811/TI_Stellaris/driverlib/i2c.c **** //! \return Returns the current interrupt status, enumerated as a bit field of
 790:/home/cuil/workspace/arm/lm3s811/TI_Stellaris/driverlib/i2c.c **** //! values described in I2CMasterIntEnableEx().
 791:/home/cuil/workspace/arm/lm3s811/TI_Stellaris/driverlib/i2c.c **** //
 792:/home/cuil/workspace/arm/lm3s811/TI_Stellaris/driverlib/i2c.c **** //*****************************************************************************
 793:/home/cuil/workspace/arm/lm3s811/TI_Stellaris/driverlib/i2c.c **** unsigned long
 794:/home/cuil/workspace/arm/lm3s811/TI_Stellaris/driverlib/i2c.c **** I2CMasterIntStatusEx(unsigned long ulBase, tBoolean bMasked)
 795:/home/cuil/workspace/arm/lm3s811/TI_Stellaris/driverlib/i2c.c **** {
 10189              		.loc 1 795 0
 10190              		.cfi_startproc
 10191              		@ args = 0, pretend = 0, frame = 8
 10192              		@ frame_needed = 1, uses_anonymous_args = 0
 10193              		@ link register save eliminated.
 10194 0000 80B4     		push	{r7}
 10195              	.LCFI57:
 10196              		.cfi_def_cfa_offset 4
 10197 0002 83B0     		sub	sp, sp, #12
 10198              	.LCFI58:
 10199              		.cfi_def_cfa_offset 16
 10200 0004 00AF     		add	r7, sp, #0
 10201              		.cfi_offset 7, -4
 10202              	.LCFI59:
 10203              		.cfi_def_cfa_register 7
 10204 0006 7860     		str	r0, [r7, #4]
 10205 0008 0B46     		mov	r3, r1
 10206 000a FB70     		strb	r3, [r7, #3]
 796:/home/cuil/workspace/arm/lm3s811/TI_Stellaris/driverlib/i2c.c ****     //
 797:/home/cuil/workspace/arm/lm3s811/TI_Stellaris/driverlib/i2c.c ****     // Check the arguments.
 798:/home/cuil/workspace/arm/lm3s811/TI_Stellaris/driverlib/i2c.c ****     //
 799:/home/cuil/workspace/arm/lm3s811/TI_Stellaris/driverlib/i2c.c ****     ASSERT(I2CMasterBaseValid(ulBase));
 800:/home/cuil/workspace/arm/lm3s811/TI_Stellaris/driverlib/i2c.c **** 
 801:/home/cuil/workspace/arm/lm3s811/TI_Stellaris/driverlib/i2c.c ****     //
 802:/home/cuil/workspace/arm/lm3s811/TI_Stellaris/driverlib/i2c.c ****     // Return either the interrupt status or the raw interrupt status as
 803:/home/cuil/workspace/arm/lm3s811/TI_Stellaris/driverlib/i2c.c ****     // requested.
 804:/home/cuil/workspace/arm/lm3s811/TI_Stellaris/driverlib/i2c.c ****     //
 805:/home/cuil/workspace/arm/lm3s811/TI_Stellaris/driverlib/i2c.c ****     if(bMasked)
 10207              		.loc 1 805 0
 10208 000c FB78     		ldrb	r3, [r7, #3]	@ zero_extendqisi2
 10209 000e 002B     		cmp	r3, #0
 10210 0010 04D0     		beq	.L36
 806:/home/cuil/workspace/arm/lm3s811/TI_Stellaris/driverlib/i2c.c ****     {
 807:/home/cuil/workspace/arm/lm3s811/TI_Stellaris/driverlib/i2c.c ****         return(HWREG(ulBase + I2C_O_MMIS));
 10211              		.loc 1 807 0
 10212 0012 7B68     		ldr	r3, [r7, #4]
 10213 0014 03F11803 		add	r3, r3, #24
 10214 0018 1B68     		ldr	r3, [r3, #0]
 10215 001a 03E0     		b	.L37
 10216              	.L36:
 808:/home/cuil/workspace/arm/lm3s811/TI_Stellaris/driverlib/i2c.c ****     }
 809:/home/cuil/workspace/arm/lm3s811/TI_Stellaris/driverlib/i2c.c ****     else
 810:/home/cuil/workspace/arm/lm3s811/TI_Stellaris/driverlib/i2c.c ****     {
 811:/home/cuil/workspace/arm/lm3s811/TI_Stellaris/driverlib/i2c.c ****         return(HWREG(ulBase + I2C_O_MRIS));
 10217              		.loc 1 811 0
 10218 001c 7B68     		ldr	r3, [r7, #4]
 10219 001e 03F11403 		add	r3, r3, #20
 10220 0022 1B68     		ldr	r3, [r3, #0]
 10221              	.L37:
 812:/home/cuil/workspace/arm/lm3s811/TI_Stellaris/driverlib/i2c.c ****     }
 813:/home/cuil/workspace/arm/lm3s811/TI_Stellaris/driverlib/i2c.c **** }
 10222              		.loc 1 813 0
 10223 0024 1846     		mov	r0, r3
 10224 0026 07F10C07 		add	r7, r7, #12
 10225 002a BD46     		mov	sp, r7
 10226 002c 80BC     		pop	{r7}
 10227 002e 7047     		bx	lr
 10228              		.cfi_endproc
 10229              	.LFE19:
 10231              		.section	.text.I2CSlaveIntStatus,"ax",%progbits
 10232              		.align	2
 10233              		.global	I2CSlaveIntStatus
 10234              		.thumb
 10235              		.thumb_func
 10237              	I2CSlaveIntStatus:
 10238              	.LFB20:
 814:/home/cuil/workspace/arm/lm3s811/TI_Stellaris/driverlib/i2c.c **** 
 815:/home/cuil/workspace/arm/lm3s811/TI_Stellaris/driverlib/i2c.c **** //*****************************************************************************
 816:/home/cuil/workspace/arm/lm3s811/TI_Stellaris/driverlib/i2c.c **** //
 817:/home/cuil/workspace/arm/lm3s811/TI_Stellaris/driverlib/i2c.c **** //! Gets the current I2C Slave interrupt status.
 818:/home/cuil/workspace/arm/lm3s811/TI_Stellaris/driverlib/i2c.c **** //!
 819:/home/cuil/workspace/arm/lm3s811/TI_Stellaris/driverlib/i2c.c **** //! \param ulBase is the base address of the I2C Slave module.
 820:/home/cuil/workspace/arm/lm3s811/TI_Stellaris/driverlib/i2c.c **** //! \param bMasked is false if the raw interrupt status is requested and
 821:/home/cuil/workspace/arm/lm3s811/TI_Stellaris/driverlib/i2c.c **** //! true if the masked interrupt status is requested.
 822:/home/cuil/workspace/arm/lm3s811/TI_Stellaris/driverlib/i2c.c **** //!
 823:/home/cuil/workspace/arm/lm3s811/TI_Stellaris/driverlib/i2c.c **** //! This function returns the interrupt status for the I2C Slave module.  
 824:/home/cuil/workspace/arm/lm3s811/TI_Stellaris/driverlib/i2c.c **** //! Either the raw interrupt status or the status of interrupts that are 
 825:/home/cuil/workspace/arm/lm3s811/TI_Stellaris/driverlib/i2c.c **** //! allowed to reflect to the processor can be returned.
 826:/home/cuil/workspace/arm/lm3s811/TI_Stellaris/driverlib/i2c.c **** //!
 827:/home/cuil/workspace/arm/lm3s811/TI_Stellaris/driverlib/i2c.c **** //! \return The current interrupt status, returned as \b true if active
 828:/home/cuil/workspace/arm/lm3s811/TI_Stellaris/driverlib/i2c.c **** //! or \b false if not active.
 829:/home/cuil/workspace/arm/lm3s811/TI_Stellaris/driverlib/i2c.c **** //
 830:/home/cuil/workspace/arm/lm3s811/TI_Stellaris/driverlib/i2c.c **** //*****************************************************************************
 831:/home/cuil/workspace/arm/lm3s811/TI_Stellaris/driverlib/i2c.c **** tBoolean
 832:/home/cuil/workspace/arm/lm3s811/TI_Stellaris/driverlib/i2c.c **** I2CSlaveIntStatus(unsigned long ulBase, tBoolean bMasked)
 833:/home/cuil/workspace/arm/lm3s811/TI_Stellaris/driverlib/i2c.c **** {
 10239              		.loc 1 833 0
 10240              		.cfi_startproc
 10241              		@ args = 0, pretend = 0, frame = 8
 10242              		@ frame_needed = 1, uses_anonymous_args = 0
 10243              		@ link register save eliminated.
 10244 0000 80B4     		push	{r7}
 10245              	.LCFI60:
 10246              		.cfi_def_cfa_offset 4
 10247 0002 83B0     		sub	sp, sp, #12
 10248              	.LCFI61:
 10249              		.cfi_def_cfa_offset 16
 10250 0004 00AF     		add	r7, sp, #0
 10251              		.cfi_offset 7, -4
 10252              	.LCFI62:
 10253              		.cfi_def_cfa_register 7
 10254 0006 7860     		str	r0, [r7, #4]
 10255 0008 0B46     		mov	r3, r1
 10256 000a FB70     		strb	r3, [r7, #3]
 834:/home/cuil/workspace/arm/lm3s811/TI_Stellaris/driverlib/i2c.c ****     //
 835:/home/cuil/workspace/arm/lm3s811/TI_Stellaris/driverlib/i2c.c ****     // Check the arguments.
 836:/home/cuil/workspace/arm/lm3s811/TI_Stellaris/driverlib/i2c.c ****     //
 837:/home/cuil/workspace/arm/lm3s811/TI_Stellaris/driverlib/i2c.c ****     ASSERT(I2CSlaveBaseValid(ulBase));
 838:/home/cuil/workspace/arm/lm3s811/TI_Stellaris/driverlib/i2c.c **** 
 839:/home/cuil/workspace/arm/lm3s811/TI_Stellaris/driverlib/i2c.c ****     //
 840:/home/cuil/workspace/arm/lm3s811/TI_Stellaris/driverlib/i2c.c ****     // Return either the interrupt status or the raw interrupt status as
 841:/home/cuil/workspace/arm/lm3s811/TI_Stellaris/driverlib/i2c.c ****     // requested.
 842:/home/cuil/workspace/arm/lm3s811/TI_Stellaris/driverlib/i2c.c ****     //
 843:/home/cuil/workspace/arm/lm3s811/TI_Stellaris/driverlib/i2c.c ****     if(bMasked)
 10257              		.loc 1 843 0
 10258 000c FB78     		ldrb	r3, [r7, #3]	@ zero_extendqisi2
 10259 000e 002B     		cmp	r3, #0
 10260 0010 09D0     		beq	.L39
 844:/home/cuil/workspace/arm/lm3s811/TI_Stellaris/driverlib/i2c.c ****     {
 845:/home/cuil/workspace/arm/lm3s811/TI_Stellaris/driverlib/i2c.c ****         return((HWREG(ulBase + I2C_O_SMIS)) ? true : false);
 10261              		.loc 1 845 0
 10262 0012 7B68     		ldr	r3, [r7, #4]
 10263 0014 03F11403 		add	r3, r3, #20
 10264 0018 1B68     		ldr	r3, [r3, #0]
 10265 001a 002B     		cmp	r3, #0
 10266 001c 0CBF     		ite	eq
 10267 001e 0023     		moveq	r3, #0
 10268 0020 0123     		movne	r3, #1
 10269 0022 DBB2     		uxtb	r3, r3
 10270 0024 08E0     		b	.L40
 10271              	.L39:
 846:/home/cuil/workspace/arm/lm3s811/TI_Stellaris/driverlib/i2c.c ****     }
 847:/home/cuil/workspace/arm/lm3s811/TI_Stellaris/driverlib/i2c.c ****     else
 848:/home/cuil/workspace/arm/lm3s811/TI_Stellaris/driverlib/i2c.c ****     {
 849:/home/cuil/workspace/arm/lm3s811/TI_Stellaris/driverlib/i2c.c ****         return((HWREG(ulBase + I2C_O_SRIS)) ? true : false);
 10272              		.loc 1 849 0
 10273 0026 7B68     		ldr	r3, [r7, #4]
 10274 0028 03F11003 		add	r3, r3, #16
 10275 002c 1B68     		ldr	r3, [r3, #0]
 10276 002e 002B     		cmp	r3, #0
 10277 0030 0CBF     		ite	eq
 10278 0032 0023     		moveq	r3, #0
 10279 0034 0123     		movne	r3, #1
 10280 0036 DBB2     		uxtb	r3, r3
 10281              	.L40:
 850:/home/cuil/workspace/arm/lm3s811/TI_Stellaris/driverlib/i2c.c ****     }
 851:/home/cuil/workspace/arm/lm3s811/TI_Stellaris/driverlib/i2c.c **** }
 10282              		.loc 1 851 0
 10283 0038 1846     		mov	r0, r3
 10284 003a 07F10C07 		add	r7, r7, #12
 10285 003e BD46     		mov	sp, r7
 10286 0040 80BC     		pop	{r7}
 10287 0042 7047     		bx	lr
 10288              		.cfi_endproc
 10289              	.LFE20:
 10291              		.section	.text.I2CSlaveIntStatusEx,"ax",%progbits
 10292              		.align	2
 10293              		.global	I2CSlaveIntStatusEx
 10294              		.thumb
 10295              		.thumb_func
 10297              	I2CSlaveIntStatusEx:
 10298              	.LFB21:
 852:/home/cuil/workspace/arm/lm3s811/TI_Stellaris/driverlib/i2c.c **** 
 853:/home/cuil/workspace/arm/lm3s811/TI_Stellaris/driverlib/i2c.c **** //*****************************************************************************
 854:/home/cuil/workspace/arm/lm3s811/TI_Stellaris/driverlib/i2c.c **** //
 855:/home/cuil/workspace/arm/lm3s811/TI_Stellaris/driverlib/i2c.c **** //! Gets the current I2C Slave interrupt status.
 856:/home/cuil/workspace/arm/lm3s811/TI_Stellaris/driverlib/i2c.c **** //!
 857:/home/cuil/workspace/arm/lm3s811/TI_Stellaris/driverlib/i2c.c **** //! \param ulBase is the base address of the I2C Slave module.
 858:/home/cuil/workspace/arm/lm3s811/TI_Stellaris/driverlib/i2c.c **** //! \param bMasked is false if the raw interrupt status is requested and
 859:/home/cuil/workspace/arm/lm3s811/TI_Stellaris/driverlib/i2c.c **** //! true if the masked interrupt status is requested.
 860:/home/cuil/workspace/arm/lm3s811/TI_Stellaris/driverlib/i2c.c **** //!
 861:/home/cuil/workspace/arm/lm3s811/TI_Stellaris/driverlib/i2c.c **** //! This function returns the interrupt status for the I2C Slave module. 
 862:/home/cuil/workspace/arm/lm3s811/TI_Stellaris/driverlib/i2c.c **** //! Either the raw interrupt status or the status of interrupts that are 
 863:/home/cuil/workspace/arm/lm3s811/TI_Stellaris/driverlib/i2c.c **** //! allowed to reflect to the processor can be returned.
 864:/home/cuil/workspace/arm/lm3s811/TI_Stellaris/driverlib/i2c.c **** //!
 865:/home/cuil/workspace/arm/lm3s811/TI_Stellaris/driverlib/i2c.c **** //! \return Returns the current interrupt status, enumerated as a bit field of
 866:/home/cuil/workspace/arm/lm3s811/TI_Stellaris/driverlib/i2c.c **** //! values described in I2CSlaveIntEnableEx().
 867:/home/cuil/workspace/arm/lm3s811/TI_Stellaris/driverlib/i2c.c **** //
 868:/home/cuil/workspace/arm/lm3s811/TI_Stellaris/driverlib/i2c.c **** //*****************************************************************************
 869:/home/cuil/workspace/arm/lm3s811/TI_Stellaris/driverlib/i2c.c **** unsigned long
 870:/home/cuil/workspace/arm/lm3s811/TI_Stellaris/driverlib/i2c.c **** I2CSlaveIntStatusEx(unsigned long ulBase, tBoolean bMasked)
 871:/home/cuil/workspace/arm/lm3s811/TI_Stellaris/driverlib/i2c.c **** {
 10299              		.loc 1 871 0
 10300              		.cfi_startproc
 10301              		@ args = 0, pretend = 0, frame = 16
 10302              		@ frame_needed = 1, uses_anonymous_args = 0
 10303              		@ link register save eliminated.
 10304 0000 80B4     		push	{r7}
 10305              	.LCFI63:
 10306              		.cfi_def_cfa_offset 4
 10307 0002 85B0     		sub	sp, sp, #20
 10308              	.LCFI64:
 10309              		.cfi_def_cfa_offset 24
 10310 0004 00AF     		add	r7, sp, #0
 10311              		.cfi_offset 7, -4
 10312              	.LCFI65:
 10313              		.cfi_def_cfa_register 7
 10314 0006 7860     		str	r0, [r7, #4]
 10315 0008 0B46     		mov	r3, r1
 10316 000a FB70     		strb	r3, [r7, #3]
 872:/home/cuil/workspace/arm/lm3s811/TI_Stellaris/driverlib/i2c.c ****     unsigned long ulValue;
 873:/home/cuil/workspace/arm/lm3s811/TI_Stellaris/driverlib/i2c.c **** 
 874:/home/cuil/workspace/arm/lm3s811/TI_Stellaris/driverlib/i2c.c ****     //
 875:/home/cuil/workspace/arm/lm3s811/TI_Stellaris/driverlib/i2c.c ****     // Check the arguments.
 876:/home/cuil/workspace/arm/lm3s811/TI_Stellaris/driverlib/i2c.c ****     //
 877:/home/cuil/workspace/arm/lm3s811/TI_Stellaris/driverlib/i2c.c ****     ASSERT(I2CSlaveBaseValid(ulBase));
 878:/home/cuil/workspace/arm/lm3s811/TI_Stellaris/driverlib/i2c.c **** 
 879:/home/cuil/workspace/arm/lm3s811/TI_Stellaris/driverlib/i2c.c ****     //
 880:/home/cuil/workspace/arm/lm3s811/TI_Stellaris/driverlib/i2c.c ****     // Return either the interrupt status or the raw interrupt status as
 881:/home/cuil/workspace/arm/lm3s811/TI_Stellaris/driverlib/i2c.c ****     // requested.
 882:/home/cuil/workspace/arm/lm3s811/TI_Stellaris/driverlib/i2c.c ****     //
 883:/home/cuil/workspace/arm/lm3s811/TI_Stellaris/driverlib/i2c.c ****     if(bMasked)
 10317              		.loc 1 883 0
 10318 000c FB78     		ldrb	r3, [r7, #3]	@ zero_extendqisi2
 10319 000e 002B     		cmp	r3, #0
 10320 0010 21D0     		beq	.L42
 884:/home/cuil/workspace/arm/lm3s811/TI_Stellaris/driverlib/i2c.c ****     {
 885:/home/cuil/workspace/arm/lm3s811/TI_Stellaris/driverlib/i2c.c ****         //
 886:/home/cuil/workspace/arm/lm3s811/TI_Stellaris/driverlib/i2c.c ****         // Workaround for I2C slave masked interrupt status register errata
 887:/home/cuil/workspace/arm/lm3s811/TI_Stellaris/driverlib/i2c.c ****         // (7.1) for Dustdevil Rev A0 devices.
 888:/home/cuil/workspace/arm/lm3s811/TI_Stellaris/driverlib/i2c.c ****         //
 889:/home/cuil/workspace/arm/lm3s811/TI_Stellaris/driverlib/i2c.c ****         if(CLASS_IS_DUSTDEVIL && REVISION_IS_A0)
 10321              		.loc 1 889 0
 10322 0012 164B     		ldr	r3, .L45
 10323 0014 1A68     		ldr	r2, [r3, #0]
 10324 0016 164B     		ldr	r3, .L45+4
 10325 0018 02EA0303 		and	r3, r2, r3
 10326 001c 154A     		ldr	r2, .L45+8
 10327 001e 9342     		cmp	r3, r2
 10328 0020 14D1     		bne	.L43
 10329              		.loc 1 889 0 is_stmt 0 discriminator 1
 10330 0022 124B     		ldr	r3, .L45
 10331 0024 1B68     		ldr	r3, [r3, #0]
 10332 0026 4FEA0343 		lsl	r3, r3, #16
 10333 002a 4FEA1343 		lsr	r3, r3, #16
 10334 002e 002B     		cmp	r3, #0
 10335 0030 0CD1     		bne	.L43
 890:/home/cuil/workspace/arm/lm3s811/TI_Stellaris/driverlib/i2c.c ****         {
 891:/home/cuil/workspace/arm/lm3s811/TI_Stellaris/driverlib/i2c.c ****             ulValue = HWREG(ulBase + I2C_O_SRIS);
 10336              		.loc 1 891 0 is_stmt 1
 10337 0032 7B68     		ldr	r3, [r7, #4]
 10338 0034 03F11003 		add	r3, r3, #16
 10339 0038 1B68     		ldr	r3, [r3, #0]
 10340 003a FB60     		str	r3, [r7, #12]
 892:/home/cuil/workspace/arm/lm3s811/TI_Stellaris/driverlib/i2c.c ****             return(ulValue & HWREG(ulBase + I2C_O_SIMR));
 10341              		.loc 1 892 0
 10342 003c 7B68     		ldr	r3, [r7, #4]
 10343 003e 03F10C03 		add	r3, r3, #12
 10344 0042 1A68     		ldr	r2, [r3, #0]
 10345 0044 FB68     		ldr	r3, [r7, #12]
 10346 0046 02EA0303 		and	r3, r2, r3
 10347 004a 08E0     		b	.L44
 10348              	.L43:
 893:/home/cuil/workspace/arm/lm3s811/TI_Stellaris/driverlib/i2c.c ****         }
 894:/home/cuil/workspace/arm/lm3s811/TI_Stellaris/driverlib/i2c.c ****         else
 895:/home/cuil/workspace/arm/lm3s811/TI_Stellaris/driverlib/i2c.c ****         {
 896:/home/cuil/workspace/arm/lm3s811/TI_Stellaris/driverlib/i2c.c ****             return(HWREG(ulBase + I2C_O_SMIS));
 10349              		.loc 1 896 0
 10350 004c 7B68     		ldr	r3, [r7, #4]
 10351 004e 03F11403 		add	r3, r3, #20
 10352 0052 1B68     		ldr	r3, [r3, #0]
 10353 0054 03E0     		b	.L44
 10354              	.L42:
 897:/home/cuil/workspace/arm/lm3s811/TI_Stellaris/driverlib/i2c.c ****         }
 898:/home/cuil/workspace/arm/lm3s811/TI_Stellaris/driverlib/i2c.c ****     }
 899:/home/cuil/workspace/arm/lm3s811/TI_Stellaris/driverlib/i2c.c ****     else
 900:/home/cuil/workspace/arm/lm3s811/TI_Stellaris/driverlib/i2c.c ****     {
 901:/home/cuil/workspace/arm/lm3s811/TI_Stellaris/driverlib/i2c.c ****         return(HWREG(ulBase + I2C_O_SRIS));
 10355              		.loc 1 901 0
 10356 0056 7B68     		ldr	r3, [r7, #4]
 10357 0058 03F11003 		add	r3, r3, #16
 10358 005c 1B68     		ldr	r3, [r3, #0]
 10359              	.L44:
 902:/home/cuil/workspace/arm/lm3s811/TI_Stellaris/driverlib/i2c.c ****     }
 903:/home/cuil/workspace/arm/lm3s811/TI_Stellaris/driverlib/i2c.c **** }
 10360              		.loc 1 903 0
 10361 005e 1846     		mov	r0, r3
 10362 0060 07F11407 		add	r7, r7, #20
 10363 0064 BD46     		mov	sp, r7
 10364 0066 80BC     		pop	{r7}
 10365 0068 7047     		bx	lr
 10366              	.L46:
 10367 006a 00BF     		.align	2
 10368              	.L45:
 10369 006c 00E00F40 		.word	1074782208
 10370 0070 0000FF70 		.word	1895759872
 10371 0074 00000310 		.word	268632064
 10372              		.cfi_endproc
 10373              	.LFE21:
 10375              		.section	.text.I2CMasterIntClear,"ax",%progbits
 10376              		.align	2
 10377              		.global	I2CMasterIntClear
 10378              		.thumb
 10379              		.thumb_func
 10381              	I2CMasterIntClear:
 10382              	.LFB22:
 904:/home/cuil/workspace/arm/lm3s811/TI_Stellaris/driverlib/i2c.c **** 
 905:/home/cuil/workspace/arm/lm3s811/TI_Stellaris/driverlib/i2c.c **** //*****************************************************************************
 906:/home/cuil/workspace/arm/lm3s811/TI_Stellaris/driverlib/i2c.c **** //
 907:/home/cuil/workspace/arm/lm3s811/TI_Stellaris/driverlib/i2c.c **** //! Clears I2C Master interrupt sources.
 908:/home/cuil/workspace/arm/lm3s811/TI_Stellaris/driverlib/i2c.c **** //!
 909:/home/cuil/workspace/arm/lm3s811/TI_Stellaris/driverlib/i2c.c **** //! \param ulBase is the base address of the I2C Master module.
 910:/home/cuil/workspace/arm/lm3s811/TI_Stellaris/driverlib/i2c.c **** //!
 911:/home/cuil/workspace/arm/lm3s811/TI_Stellaris/driverlib/i2c.c **** //! The I2C Master interrupt source is cleared, so that it no longer asserts.
 912:/home/cuil/workspace/arm/lm3s811/TI_Stellaris/driverlib/i2c.c **** //! This function must be called in the interrupt handler to keep the interrupt 
 913:/home/cuil/workspace/arm/lm3s811/TI_Stellaris/driverlib/i2c.c **** //! from being triggered again immediately upon exit.
 914:/home/cuil/workspace/arm/lm3s811/TI_Stellaris/driverlib/i2c.c **** //!
 915:/home/cuil/workspace/arm/lm3s811/TI_Stellaris/driverlib/i2c.c **** //! \note Because there is a write buffer in the Cortex-M processor, it may
 916:/home/cuil/workspace/arm/lm3s811/TI_Stellaris/driverlib/i2c.c **** //! take several clock cycles before the interrupt source is actually cleared.
 917:/home/cuil/workspace/arm/lm3s811/TI_Stellaris/driverlib/i2c.c **** //! Therefore, it is recommended that the interrupt source be cleared early in
 918:/home/cuil/workspace/arm/lm3s811/TI_Stellaris/driverlib/i2c.c **** //! the interrupt handler (as opposed to the very last action) to avoid
 919:/home/cuil/workspace/arm/lm3s811/TI_Stellaris/driverlib/i2c.c **** //! returning from the interrupt handler before the interrupt source is
 920:/home/cuil/workspace/arm/lm3s811/TI_Stellaris/driverlib/i2c.c **** //! actually cleared.  Failure to do so may result in the interrupt handler
 921:/home/cuil/workspace/arm/lm3s811/TI_Stellaris/driverlib/i2c.c **** //! being immediately reentered (because the interrupt controller still sees
 922:/home/cuil/workspace/arm/lm3s811/TI_Stellaris/driverlib/i2c.c **** //! the interrupt source asserted).
 923:/home/cuil/workspace/arm/lm3s811/TI_Stellaris/driverlib/i2c.c **** //!
 924:/home/cuil/workspace/arm/lm3s811/TI_Stellaris/driverlib/i2c.c **** //! \return None.
 925:/home/cuil/workspace/arm/lm3s811/TI_Stellaris/driverlib/i2c.c **** //
 926:/home/cuil/workspace/arm/lm3s811/TI_Stellaris/driverlib/i2c.c **** //*****************************************************************************
 927:/home/cuil/workspace/arm/lm3s811/TI_Stellaris/driverlib/i2c.c **** void
 928:/home/cuil/workspace/arm/lm3s811/TI_Stellaris/driverlib/i2c.c **** I2CMasterIntClear(unsigned long ulBase)
 929:/home/cuil/workspace/arm/lm3s811/TI_Stellaris/driverlib/i2c.c **** {
 10383              		.loc 1 929 0
 10384              		.cfi_startproc
 10385              		@ args = 0, pretend = 0, frame = 8
 10386              		@ frame_needed = 1, uses_anonymous_args = 0
 10387              		@ link register save eliminated.
 10388 0000 80B4     		push	{r7}
 10389              	.LCFI66:
 10390              		.cfi_def_cfa_offset 4
 10391 0002 83B0     		sub	sp, sp, #12
 10392              	.LCFI67:
 10393              		.cfi_def_cfa_offset 16
 10394 0004 00AF     		add	r7, sp, #0
 10395              		.cfi_offset 7, -4
 10396              	.LCFI68:
 10397              		.cfi_def_cfa_register 7
 10398 0006 7860     		str	r0, [r7, #4]
 930:/home/cuil/workspace/arm/lm3s811/TI_Stellaris/driverlib/i2c.c ****     //
 931:/home/cuil/workspace/arm/lm3s811/TI_Stellaris/driverlib/i2c.c ****     // Check the arguments.
 932:/home/cuil/workspace/arm/lm3s811/TI_Stellaris/driverlib/i2c.c ****     //
 933:/home/cuil/workspace/arm/lm3s811/TI_Stellaris/driverlib/i2c.c ****     ASSERT(I2CMasterBaseValid(ulBase));
 934:/home/cuil/workspace/arm/lm3s811/TI_Stellaris/driverlib/i2c.c **** 
 935:/home/cuil/workspace/arm/lm3s811/TI_Stellaris/driverlib/i2c.c ****     //
 936:/home/cuil/workspace/arm/lm3s811/TI_Stellaris/driverlib/i2c.c ****     // Clear the I2C master interrupt source.
 937:/home/cuil/workspace/arm/lm3s811/TI_Stellaris/driverlib/i2c.c ****     //
 938:/home/cuil/workspace/arm/lm3s811/TI_Stellaris/driverlib/i2c.c ****     HWREG(ulBase + I2C_O_MICR) = I2C_MICR_IC;
 10399              		.loc 1 938 0
 10400 0008 7B68     		ldr	r3, [r7, #4]
 10401 000a 03F11C03 		add	r3, r3, #28
 10402 000e 4FF00102 		mov	r2, #1
 10403 0012 1A60     		str	r2, [r3, #0]
 939:/home/cuil/workspace/arm/lm3s811/TI_Stellaris/driverlib/i2c.c **** 
 940:/home/cuil/workspace/arm/lm3s811/TI_Stellaris/driverlib/i2c.c ****     //
 941:/home/cuil/workspace/arm/lm3s811/TI_Stellaris/driverlib/i2c.c ****     // Workaround for I2C master interrupt clear errata for rev B Stellaris
 942:/home/cuil/workspace/arm/lm3s811/TI_Stellaris/driverlib/i2c.c ****     // devices.  For later devices, this write is ignored and therefore
 943:/home/cuil/workspace/arm/lm3s811/TI_Stellaris/driverlib/i2c.c ****     // harmless (other than the slight performance hit).
 944:/home/cuil/workspace/arm/lm3s811/TI_Stellaris/driverlib/i2c.c ****     //
 945:/home/cuil/workspace/arm/lm3s811/TI_Stellaris/driverlib/i2c.c ****     HWREG(ulBase + I2C_O_MMIS) = I2C_MICR_IC;
 10404              		.loc 1 945 0
 10405 0014 7B68     		ldr	r3, [r7, #4]
 10406 0016 03F11803 		add	r3, r3, #24
 10407 001a 4FF00102 		mov	r2, #1
 10408 001e 1A60     		str	r2, [r3, #0]
 946:/home/cuil/workspace/arm/lm3s811/TI_Stellaris/driverlib/i2c.c **** }
 10409              		.loc 1 946 0
 10410 0020 07F10C07 		add	r7, r7, #12
 10411 0024 BD46     		mov	sp, r7
 10412 0026 80BC     		pop	{r7}
 10413 0028 7047     		bx	lr
 10414              		.cfi_endproc
 10415              	.LFE22:
 10417 002a 00BF     		.section	.text.I2CMasterIntClearEx,"ax",%progbits
 10418              		.align	2
 10419              		.global	I2CMasterIntClearEx
 10420              		.thumb
 10421              		.thumb_func
 10423              	I2CMasterIntClearEx:
 10424              	.LFB23:
 947:/home/cuil/workspace/arm/lm3s811/TI_Stellaris/driverlib/i2c.c **** 
 948:/home/cuil/workspace/arm/lm3s811/TI_Stellaris/driverlib/i2c.c **** //*****************************************************************************
 949:/home/cuil/workspace/arm/lm3s811/TI_Stellaris/driverlib/i2c.c **** //
 950:/home/cuil/workspace/arm/lm3s811/TI_Stellaris/driverlib/i2c.c **** //! Clears I2C Master interrupt sources.
 951:/home/cuil/workspace/arm/lm3s811/TI_Stellaris/driverlib/i2c.c **** //!
 952:/home/cuil/workspace/arm/lm3s811/TI_Stellaris/driverlib/i2c.c **** //! \param ulBase is the base address of the I2C Master module.
 953:/home/cuil/workspace/arm/lm3s811/TI_Stellaris/driverlib/i2c.c **** //! \param ulIntFlags is a bit mask of the interrupt sources to be cleared.
 954:/home/cuil/workspace/arm/lm3s811/TI_Stellaris/driverlib/i2c.c **** //!
 955:/home/cuil/workspace/arm/lm3s811/TI_Stellaris/driverlib/i2c.c **** //! The specified I2C Master interrupt sources are cleared, so that they no
 956:/home/cuil/workspace/arm/lm3s811/TI_Stellaris/driverlib/i2c.c **** //! longer assert.  This function must be called in the interrupt handler to 
 957:/home/cuil/workspace/arm/lm3s811/TI_Stellaris/driverlib/i2c.c **** //! keep the interrupt from being triggered again immediately upon exit.
 958:/home/cuil/workspace/arm/lm3s811/TI_Stellaris/driverlib/i2c.c **** //!
 959:/home/cuil/workspace/arm/lm3s811/TI_Stellaris/driverlib/i2c.c **** //! The \e ulIntFlags parameter has the same definition as the \e ulIntFlags
 960:/home/cuil/workspace/arm/lm3s811/TI_Stellaris/driverlib/i2c.c **** //! parameter to I2CMasterIntEnableEx().
 961:/home/cuil/workspace/arm/lm3s811/TI_Stellaris/driverlib/i2c.c **** //!
 962:/home/cuil/workspace/arm/lm3s811/TI_Stellaris/driverlib/i2c.c **** //! \note Because there is a write buffer in the Cortex-M processor, it may
 963:/home/cuil/workspace/arm/lm3s811/TI_Stellaris/driverlib/i2c.c **** //! take several clock cycles before the interrupt source is actually cleared.
 964:/home/cuil/workspace/arm/lm3s811/TI_Stellaris/driverlib/i2c.c **** //! Therefore, it is recommended that the interrupt source be cleared early in
 965:/home/cuil/workspace/arm/lm3s811/TI_Stellaris/driverlib/i2c.c **** //! the interrupt handler (as opposed to the very last action) to avoid
 966:/home/cuil/workspace/arm/lm3s811/TI_Stellaris/driverlib/i2c.c **** //! returning from the interrupt handler before the interrupt source is
 967:/home/cuil/workspace/arm/lm3s811/TI_Stellaris/driverlib/i2c.c **** //! actually cleared.  Failure to do so may result in the interrupt handler
 968:/home/cuil/workspace/arm/lm3s811/TI_Stellaris/driverlib/i2c.c **** //! being immediately reentered (because the interrupt controller still sees
 969:/home/cuil/workspace/arm/lm3s811/TI_Stellaris/driverlib/i2c.c **** //! the interrupt source asserted).
 970:/home/cuil/workspace/arm/lm3s811/TI_Stellaris/driverlib/i2c.c **** //!
 971:/home/cuil/workspace/arm/lm3s811/TI_Stellaris/driverlib/i2c.c **** //! \return None.
 972:/home/cuil/workspace/arm/lm3s811/TI_Stellaris/driverlib/i2c.c **** //
 973:/home/cuil/workspace/arm/lm3s811/TI_Stellaris/driverlib/i2c.c **** //*****************************************************************************
 974:/home/cuil/workspace/arm/lm3s811/TI_Stellaris/driverlib/i2c.c **** void
 975:/home/cuil/workspace/arm/lm3s811/TI_Stellaris/driverlib/i2c.c **** I2CMasterIntClearEx(unsigned long ulBase, unsigned long ulIntFlags)
 976:/home/cuil/workspace/arm/lm3s811/TI_Stellaris/driverlib/i2c.c **** {
 10425              		.loc 1 976 0
 10426              		.cfi_startproc
 10427              		@ args = 0, pretend = 0, frame = 8
 10428              		@ frame_needed = 1, uses_anonymous_args = 0
 10429              		@ link register save eliminated.
 10430 0000 80B4     		push	{r7}
 10431              	.LCFI69:
 10432              		.cfi_def_cfa_offset 4
 10433 0002 83B0     		sub	sp, sp, #12
 10434              	.LCFI70:
 10435              		.cfi_def_cfa_offset 16
 10436 0004 00AF     		add	r7, sp, #0
 10437              		.cfi_offset 7, -4
 10438              	.LCFI71:
 10439              		.cfi_def_cfa_register 7
 10440 0006 7860     		str	r0, [r7, #4]
 10441 0008 3960     		str	r1, [r7, #0]
 977:/home/cuil/workspace/arm/lm3s811/TI_Stellaris/driverlib/i2c.c ****     //
 978:/home/cuil/workspace/arm/lm3s811/TI_Stellaris/driverlib/i2c.c ****     // Check the arguments.
 979:/home/cuil/workspace/arm/lm3s811/TI_Stellaris/driverlib/i2c.c ****     //
 980:/home/cuil/workspace/arm/lm3s811/TI_Stellaris/driverlib/i2c.c ****     ASSERT(I2CMasterBaseValid(ulBase));
 981:/home/cuil/workspace/arm/lm3s811/TI_Stellaris/driverlib/i2c.c **** 
 982:/home/cuil/workspace/arm/lm3s811/TI_Stellaris/driverlib/i2c.c ****     //
 983:/home/cuil/workspace/arm/lm3s811/TI_Stellaris/driverlib/i2c.c ****     // Clear the I2C master interrupt source.
 984:/home/cuil/workspace/arm/lm3s811/TI_Stellaris/driverlib/i2c.c ****     //
 985:/home/cuil/workspace/arm/lm3s811/TI_Stellaris/driverlib/i2c.c ****     HWREG(ulBase + I2C_O_MICR) = ulIntFlags;
 10442              		.loc 1 985 0
 10443 000a 7B68     		ldr	r3, [r7, #4]
 10444 000c 03F11C03 		add	r3, r3, #28
 10445 0010 3A68     		ldr	r2, [r7, #0]
 10446 0012 1A60     		str	r2, [r3, #0]
 986:/home/cuil/workspace/arm/lm3s811/TI_Stellaris/driverlib/i2c.c **** }
 10447              		.loc 1 986 0
 10448 0014 07F10C07 		add	r7, r7, #12
 10449 0018 BD46     		mov	sp, r7
 10450 001a 80BC     		pop	{r7}
 10451 001c 7047     		bx	lr
 10452              		.cfi_endproc
 10453              	.LFE23:
 10455 001e 00BF     		.section	.text.I2CSlaveIntClear,"ax",%progbits
 10456              		.align	2
 10457              		.global	I2CSlaveIntClear
 10458              		.thumb
 10459              		.thumb_func
 10461              	I2CSlaveIntClear:
 10462              	.LFB24:
 987:/home/cuil/workspace/arm/lm3s811/TI_Stellaris/driverlib/i2c.c **** 
 988:/home/cuil/workspace/arm/lm3s811/TI_Stellaris/driverlib/i2c.c **** //*****************************************************************************
 989:/home/cuil/workspace/arm/lm3s811/TI_Stellaris/driverlib/i2c.c **** //
 990:/home/cuil/workspace/arm/lm3s811/TI_Stellaris/driverlib/i2c.c **** //! Clears I2C Slave interrupt sources.
 991:/home/cuil/workspace/arm/lm3s811/TI_Stellaris/driverlib/i2c.c **** //!
 992:/home/cuil/workspace/arm/lm3s811/TI_Stellaris/driverlib/i2c.c **** //! \param ulBase is the base address of the I2C Slave module.
 993:/home/cuil/workspace/arm/lm3s811/TI_Stellaris/driverlib/i2c.c **** //!
 994:/home/cuil/workspace/arm/lm3s811/TI_Stellaris/driverlib/i2c.c **** //! The I2C Slave interrupt source is cleared, so that it no longer asserts.
 995:/home/cuil/workspace/arm/lm3s811/TI_Stellaris/driverlib/i2c.c **** //! This function must be called in the interrupt handler to keep the interrupt 
 996:/home/cuil/workspace/arm/lm3s811/TI_Stellaris/driverlib/i2c.c **** //! from being triggered again immediately upon exit.
 997:/home/cuil/workspace/arm/lm3s811/TI_Stellaris/driverlib/i2c.c **** //!
 998:/home/cuil/workspace/arm/lm3s811/TI_Stellaris/driverlib/i2c.c **** //! \note Because there is a write buffer in the Cortex-M processor, it may
 999:/home/cuil/workspace/arm/lm3s811/TI_Stellaris/driverlib/i2c.c **** //! take several clock cycles before the interrupt source is actually cleared.
1000:/home/cuil/workspace/arm/lm3s811/TI_Stellaris/driverlib/i2c.c **** //! Therefore, it is recommended that the interrupt source be cleared early in
1001:/home/cuil/workspace/arm/lm3s811/TI_Stellaris/driverlib/i2c.c **** //! the interrupt handler (as opposed to the very last action) to avoid
1002:/home/cuil/workspace/arm/lm3s811/TI_Stellaris/driverlib/i2c.c **** //! returning from the interrupt handler before the interrupt source is
1003:/home/cuil/workspace/arm/lm3s811/TI_Stellaris/driverlib/i2c.c **** //! actually cleared.  Failure to do so may result in the interrupt handler
1004:/home/cuil/workspace/arm/lm3s811/TI_Stellaris/driverlib/i2c.c **** //! being immediately reentered (because the interrupt controller still sees
1005:/home/cuil/workspace/arm/lm3s811/TI_Stellaris/driverlib/i2c.c **** //! the interrupt source asserted).
1006:/home/cuil/workspace/arm/lm3s811/TI_Stellaris/driverlib/i2c.c **** //!
1007:/home/cuil/workspace/arm/lm3s811/TI_Stellaris/driverlib/i2c.c **** //! \return None.
1008:/home/cuil/workspace/arm/lm3s811/TI_Stellaris/driverlib/i2c.c **** //
1009:/home/cuil/workspace/arm/lm3s811/TI_Stellaris/driverlib/i2c.c **** //*****************************************************************************
1010:/home/cuil/workspace/arm/lm3s811/TI_Stellaris/driverlib/i2c.c **** void
1011:/home/cuil/workspace/arm/lm3s811/TI_Stellaris/driverlib/i2c.c **** I2CSlaveIntClear(unsigned long ulBase)
1012:/home/cuil/workspace/arm/lm3s811/TI_Stellaris/driverlib/i2c.c **** {
 10463              		.loc 1 1012 0
 10464              		.cfi_startproc
 10465              		@ args = 0, pretend = 0, frame = 8
 10466              		@ frame_needed = 1, uses_anonymous_args = 0
 10467              		@ link register save eliminated.
 10468 0000 80B4     		push	{r7}
 10469              	.LCFI72:
 10470              		.cfi_def_cfa_offset 4
 10471 0002 83B0     		sub	sp, sp, #12
 10472              	.LCFI73:
 10473              		.cfi_def_cfa_offset 16
 10474 0004 00AF     		add	r7, sp, #0
 10475              		.cfi_offset 7, -4
 10476              	.LCFI74:
 10477              		.cfi_def_cfa_register 7
 10478 0006 7860     		str	r0, [r7, #4]
1013:/home/cuil/workspace/arm/lm3s811/TI_Stellaris/driverlib/i2c.c ****     //
1014:/home/cuil/workspace/arm/lm3s811/TI_Stellaris/driverlib/i2c.c ****     // Check the arguments.
1015:/home/cuil/workspace/arm/lm3s811/TI_Stellaris/driverlib/i2c.c ****     //
1016:/home/cuil/workspace/arm/lm3s811/TI_Stellaris/driverlib/i2c.c ****     ASSERT(I2CSlaveBaseValid(ulBase));
1017:/home/cuil/workspace/arm/lm3s811/TI_Stellaris/driverlib/i2c.c **** 
1018:/home/cuil/workspace/arm/lm3s811/TI_Stellaris/driverlib/i2c.c ****     //
1019:/home/cuil/workspace/arm/lm3s811/TI_Stellaris/driverlib/i2c.c ****     // Clear the I2C slave interrupt source.
1020:/home/cuil/workspace/arm/lm3s811/TI_Stellaris/driverlib/i2c.c ****     //
1021:/home/cuil/workspace/arm/lm3s811/TI_Stellaris/driverlib/i2c.c ****     HWREG(ulBase + I2C_O_SICR) = I2C_SICR_DATAIC;
 10479              		.loc 1 1021 0
 10480 0008 7B68     		ldr	r3, [r7, #4]
 10481 000a 03F11803 		add	r3, r3, #24
 10482 000e 4FF00102 		mov	r2, #1
 10483 0012 1A60     		str	r2, [r3, #0]
1022:/home/cuil/workspace/arm/lm3s811/TI_Stellaris/driverlib/i2c.c **** }
 10484              		.loc 1 1022 0
 10485 0014 07F10C07 		add	r7, r7, #12
 10486 0018 BD46     		mov	sp, r7
 10487 001a 80BC     		pop	{r7}
 10488 001c 7047     		bx	lr
 10489              		.cfi_endproc
 10490              	.LFE24:
 10492 001e 00BF     		.section	.text.I2CSlaveIntClearEx,"ax",%progbits
 10493              		.align	2
 10494              		.global	I2CSlaveIntClearEx
 10495              		.thumb
 10496              		.thumb_func
 10498              	I2CSlaveIntClearEx:
 10499              	.LFB25:
1023:/home/cuil/workspace/arm/lm3s811/TI_Stellaris/driverlib/i2c.c **** 
1024:/home/cuil/workspace/arm/lm3s811/TI_Stellaris/driverlib/i2c.c **** //*****************************************************************************
1025:/home/cuil/workspace/arm/lm3s811/TI_Stellaris/driverlib/i2c.c **** //
1026:/home/cuil/workspace/arm/lm3s811/TI_Stellaris/driverlib/i2c.c **** //! Clears I2C Slave interrupt sources.
1027:/home/cuil/workspace/arm/lm3s811/TI_Stellaris/driverlib/i2c.c **** //!
1028:/home/cuil/workspace/arm/lm3s811/TI_Stellaris/driverlib/i2c.c **** //! \param ulBase is the base address of the I2C Slave module.
1029:/home/cuil/workspace/arm/lm3s811/TI_Stellaris/driverlib/i2c.c **** //! \param ulIntFlags is a bit mask of the interrupt sources to be cleared.
1030:/home/cuil/workspace/arm/lm3s811/TI_Stellaris/driverlib/i2c.c **** //!
1031:/home/cuil/workspace/arm/lm3s811/TI_Stellaris/driverlib/i2c.c **** //! The specified I2C Slave interrupt sources are cleared, so that they no
1032:/home/cuil/workspace/arm/lm3s811/TI_Stellaris/driverlib/i2c.c **** //! longer assert.  This function must be called in the interrupt handler to 
1033:/home/cuil/workspace/arm/lm3s811/TI_Stellaris/driverlib/i2c.c **** //! keep the interrupt from being triggered again immediately upon exit.
1034:/home/cuil/workspace/arm/lm3s811/TI_Stellaris/driverlib/i2c.c **** //!
1035:/home/cuil/workspace/arm/lm3s811/TI_Stellaris/driverlib/i2c.c **** //! The \e ulIntFlags parameter has the same definition as the \e ulIntFlags
1036:/home/cuil/workspace/arm/lm3s811/TI_Stellaris/driverlib/i2c.c **** //! parameter to I2CSlaveIntEnableEx().
1037:/home/cuil/workspace/arm/lm3s811/TI_Stellaris/driverlib/i2c.c **** //!
1038:/home/cuil/workspace/arm/lm3s811/TI_Stellaris/driverlib/i2c.c **** //! \note Because there is a write buffer in the Cortex-M processor, it may
1039:/home/cuil/workspace/arm/lm3s811/TI_Stellaris/driverlib/i2c.c **** //! take several clock cycles before the interrupt source is actually cleared.
1040:/home/cuil/workspace/arm/lm3s811/TI_Stellaris/driverlib/i2c.c **** //! Therefore, it is recommended that the interrupt source be cleared early in
1041:/home/cuil/workspace/arm/lm3s811/TI_Stellaris/driverlib/i2c.c **** //! the interrupt handler (as opposed to the very last action) to avoid
1042:/home/cuil/workspace/arm/lm3s811/TI_Stellaris/driverlib/i2c.c **** //! returning from the interrupt handler before the interrupt source is
1043:/home/cuil/workspace/arm/lm3s811/TI_Stellaris/driverlib/i2c.c **** //! actually cleared.  Failure to do so may result in the interrupt handler
1044:/home/cuil/workspace/arm/lm3s811/TI_Stellaris/driverlib/i2c.c **** //! being immediately reentered (because the interrupt controller still sees
1045:/home/cuil/workspace/arm/lm3s811/TI_Stellaris/driverlib/i2c.c **** //! the interrupt source asserted).
1046:/home/cuil/workspace/arm/lm3s811/TI_Stellaris/driverlib/i2c.c **** //!
1047:/home/cuil/workspace/arm/lm3s811/TI_Stellaris/driverlib/i2c.c **** //! \return None.
1048:/home/cuil/workspace/arm/lm3s811/TI_Stellaris/driverlib/i2c.c **** //
1049:/home/cuil/workspace/arm/lm3s811/TI_Stellaris/driverlib/i2c.c **** //*****************************************************************************
1050:/home/cuil/workspace/arm/lm3s811/TI_Stellaris/driverlib/i2c.c **** void
1051:/home/cuil/workspace/arm/lm3s811/TI_Stellaris/driverlib/i2c.c **** I2CSlaveIntClearEx(unsigned long ulBase, unsigned long ulIntFlags)
1052:/home/cuil/workspace/arm/lm3s811/TI_Stellaris/driverlib/i2c.c **** {
 10500              		.loc 1 1052 0
 10501              		.cfi_startproc
 10502              		@ args = 0, pretend = 0, frame = 8
 10503              		@ frame_needed = 1, uses_anonymous_args = 0
 10504              		@ link register save eliminated.
 10505 0000 80B4     		push	{r7}
 10506              	.LCFI75:
 10507              		.cfi_def_cfa_offset 4
 10508 0002 83B0     		sub	sp, sp, #12
 10509              	.LCFI76:
 10510              		.cfi_def_cfa_offset 16
 10511 0004 00AF     		add	r7, sp, #0
 10512              		.cfi_offset 7, -4
 10513              	.LCFI77:
 10514              		.cfi_def_cfa_register 7
 10515 0006 7860     		str	r0, [r7, #4]
 10516 0008 3960     		str	r1, [r7, #0]
1053:/home/cuil/workspace/arm/lm3s811/TI_Stellaris/driverlib/i2c.c ****     //
1054:/home/cuil/workspace/arm/lm3s811/TI_Stellaris/driverlib/i2c.c ****     // Check the arguments.
1055:/home/cuil/workspace/arm/lm3s811/TI_Stellaris/driverlib/i2c.c ****     //
1056:/home/cuil/workspace/arm/lm3s811/TI_Stellaris/driverlib/i2c.c ****     ASSERT(I2CSlaveBaseValid(ulBase));
1057:/home/cuil/workspace/arm/lm3s811/TI_Stellaris/driverlib/i2c.c **** 
1058:/home/cuil/workspace/arm/lm3s811/TI_Stellaris/driverlib/i2c.c ****     //
1059:/home/cuil/workspace/arm/lm3s811/TI_Stellaris/driverlib/i2c.c ****     // Clear the I2C slave interrupt source.
1060:/home/cuil/workspace/arm/lm3s811/TI_Stellaris/driverlib/i2c.c ****     //
1061:/home/cuil/workspace/arm/lm3s811/TI_Stellaris/driverlib/i2c.c ****     HWREG(ulBase + I2C_O_SICR) = ulIntFlags;
 10517              		.loc 1 1061 0
 10518 000a 7B68     		ldr	r3, [r7, #4]
 10519 000c 03F11803 		add	r3, r3, #24
 10520 0010 3A68     		ldr	r2, [r7, #0]
 10521 0012 1A60     		str	r2, [r3, #0]
1062:/home/cuil/workspace/arm/lm3s811/TI_Stellaris/driverlib/i2c.c **** }
 10522              		.loc 1 1062 0
 10523 0014 07F10C07 		add	r7, r7, #12
 10524 0018 BD46     		mov	sp, r7
 10525 001a 80BC     		pop	{r7}
 10526 001c 7047     		bx	lr
 10527              		.cfi_endproc
 10528              	.LFE25:
 10530 001e 00BF     		.section	.text.I2CMasterSlaveAddrSet,"ax",%progbits
 10531              		.align	2
 10532              		.global	I2CMasterSlaveAddrSet
 10533              		.thumb
 10534              		.thumb_func
 10536              	I2CMasterSlaveAddrSet:
 10537              	.LFB26:
1063:/home/cuil/workspace/arm/lm3s811/TI_Stellaris/driverlib/i2c.c **** 
1064:/home/cuil/workspace/arm/lm3s811/TI_Stellaris/driverlib/i2c.c **** //*****************************************************************************
1065:/home/cuil/workspace/arm/lm3s811/TI_Stellaris/driverlib/i2c.c **** //
1066:/home/cuil/workspace/arm/lm3s811/TI_Stellaris/driverlib/i2c.c **** //! Sets the address that the I2C Master places on the bus.
1067:/home/cuil/workspace/arm/lm3s811/TI_Stellaris/driverlib/i2c.c **** //!
1068:/home/cuil/workspace/arm/lm3s811/TI_Stellaris/driverlib/i2c.c **** //! \param ulBase is the base address of the I2C Master module.
1069:/home/cuil/workspace/arm/lm3s811/TI_Stellaris/driverlib/i2c.c **** //! \param ucSlaveAddr 7-bit slave address
1070:/home/cuil/workspace/arm/lm3s811/TI_Stellaris/driverlib/i2c.c **** //! \param bReceive flag indicating the type of communication with the slave
1071:/home/cuil/workspace/arm/lm3s811/TI_Stellaris/driverlib/i2c.c **** //!
1072:/home/cuil/workspace/arm/lm3s811/TI_Stellaris/driverlib/i2c.c **** //! This function configures the address that the I2C Master places on the
1073:/home/cuil/workspace/arm/lm3s811/TI_Stellaris/driverlib/i2c.c **** //! bus when initiating a transaction.  When the \e bReceive parameter is set
1074:/home/cuil/workspace/arm/lm3s811/TI_Stellaris/driverlib/i2c.c **** //! to \b true, the address indicates that the I2C Master is initiating a
1075:/home/cuil/workspace/arm/lm3s811/TI_Stellaris/driverlib/i2c.c **** //! read from the slave; otherwise the address indicates that the I2C
1076:/home/cuil/workspace/arm/lm3s811/TI_Stellaris/driverlib/i2c.c **** //! Master is initiating a write to the slave.
1077:/home/cuil/workspace/arm/lm3s811/TI_Stellaris/driverlib/i2c.c **** //!
1078:/home/cuil/workspace/arm/lm3s811/TI_Stellaris/driverlib/i2c.c **** //! \return None.
1079:/home/cuil/workspace/arm/lm3s811/TI_Stellaris/driverlib/i2c.c **** //
1080:/home/cuil/workspace/arm/lm3s811/TI_Stellaris/driverlib/i2c.c **** //*****************************************************************************
1081:/home/cuil/workspace/arm/lm3s811/TI_Stellaris/driverlib/i2c.c **** void
1082:/home/cuil/workspace/arm/lm3s811/TI_Stellaris/driverlib/i2c.c **** I2CMasterSlaveAddrSet(unsigned long ulBase, unsigned char ucSlaveAddr,
1083:/home/cuil/workspace/arm/lm3s811/TI_Stellaris/driverlib/i2c.c ****                       tBoolean bReceive)
1084:/home/cuil/workspace/arm/lm3s811/TI_Stellaris/driverlib/i2c.c **** {
 10538              		.loc 1 1084 0
 10539              		.cfi_startproc
 10540              		@ args = 0, pretend = 0, frame = 8
 10541              		@ frame_needed = 1, uses_anonymous_args = 0
 10542              		@ link register save eliminated.
 10543 0000 80B4     		push	{r7}
 10544              	.LCFI78:
 10545              		.cfi_def_cfa_offset 4
 10546 0002 83B0     		sub	sp, sp, #12
 10547              	.LCFI79:
 10548              		.cfi_def_cfa_offset 16
 10549 0004 00AF     		add	r7, sp, #0
 10550              		.cfi_offset 7, -4
 10551              	.LCFI80:
 10552              		.cfi_def_cfa_register 7
 10553 0006 7860     		str	r0, [r7, #4]
 10554 0008 1346     		mov	r3, r2
 10555 000a 0A46     		mov	r2, r1
 10556 000c FA70     		strb	r2, [r7, #3]
 10557 000e BB70     		strb	r3, [r7, #2]
1085:/home/cuil/workspace/arm/lm3s811/TI_Stellaris/driverlib/i2c.c ****     //
1086:/home/cuil/workspace/arm/lm3s811/TI_Stellaris/driverlib/i2c.c ****     // Check the arguments.
1087:/home/cuil/workspace/arm/lm3s811/TI_Stellaris/driverlib/i2c.c ****     //
1088:/home/cuil/workspace/arm/lm3s811/TI_Stellaris/driverlib/i2c.c ****     ASSERT(I2CMasterBaseValid(ulBase));
1089:/home/cuil/workspace/arm/lm3s811/TI_Stellaris/driverlib/i2c.c ****     ASSERT(!(ucSlaveAddr & 0x80));
1090:/home/cuil/workspace/arm/lm3s811/TI_Stellaris/driverlib/i2c.c **** 
1091:/home/cuil/workspace/arm/lm3s811/TI_Stellaris/driverlib/i2c.c ****     //
1092:/home/cuil/workspace/arm/lm3s811/TI_Stellaris/driverlib/i2c.c ****     // Set the address of the slave with which the master will communicate.
1093:/home/cuil/workspace/arm/lm3s811/TI_Stellaris/driverlib/i2c.c ****     //
1094:/home/cuil/workspace/arm/lm3s811/TI_Stellaris/driverlib/i2c.c ****     HWREG(ulBase + I2C_O_MSA) = (ucSlaveAddr << 1) | bReceive;
 10558              		.loc 1 1094 0
 10559 0010 7B68     		ldr	r3, [r7, #4]
 10560 0012 FA78     		ldrb	r2, [r7, #3]	@ zero_extendqisi2
 10561 0014 4FEA4201 		lsl	r1, r2, #1
 10562 0018 BA78     		ldrb	r2, [r7, #2]	@ zero_extendqisi2
 10563 001a 41EA0202 		orr	r2, r1, r2
 10564 001e 1A60     		str	r2, [r3, #0]
1095:/home/cuil/workspace/arm/lm3s811/TI_Stellaris/driverlib/i2c.c **** }
 10565              		.loc 1 1095 0
 10566 0020 07F10C07 		add	r7, r7, #12
 10567 0024 BD46     		mov	sp, r7
 10568 0026 80BC     		pop	{r7}
 10569 0028 7047     		bx	lr
 10570              		.cfi_endproc
 10571              	.LFE26:
 10573 002a 00BF     		.section	.text.I2CMasterLineStateGet,"ax",%progbits
 10574              		.align	2
 10575              		.global	I2CMasterLineStateGet
 10576              		.thumb
 10577              		.thumb_func
 10579              	I2CMasterLineStateGet:
 10580              	.LFB27:
1096:/home/cuil/workspace/arm/lm3s811/TI_Stellaris/driverlib/i2c.c **** 
1097:/home/cuil/workspace/arm/lm3s811/TI_Stellaris/driverlib/i2c.c **** //*****************************************************************************
1098:/home/cuil/workspace/arm/lm3s811/TI_Stellaris/driverlib/i2c.c **** //
1099:/home/cuil/workspace/arm/lm3s811/TI_Stellaris/driverlib/i2c.c **** //! Reads the state of the SDA and SCL pins.
1100:/home/cuil/workspace/arm/lm3s811/TI_Stellaris/driverlib/i2c.c **** //!
1101:/home/cuil/workspace/arm/lm3s811/TI_Stellaris/driverlib/i2c.c **** //! \param ulBase is the base address of the I2C Master module.
1102:/home/cuil/workspace/arm/lm3s811/TI_Stellaris/driverlib/i2c.c **** //!
1103:/home/cuil/workspace/arm/lm3s811/TI_Stellaris/driverlib/i2c.c **** //! This function returns the state of the I2C bus by providing the real time
1104:/home/cuil/workspace/arm/lm3s811/TI_Stellaris/driverlib/i2c.c **** //! values of the SDA and SCL pins.
1105:/home/cuil/workspace/arm/lm3s811/TI_Stellaris/driverlib/i2c.c **** //!
1106:/home/cuil/workspace/arm/lm3s811/TI_Stellaris/driverlib/i2c.c **** //! \note Not all Stellaris devices support this function. Please consult the 
1107:/home/cuil/workspace/arm/lm3s811/TI_Stellaris/driverlib/i2c.c **** //! device data sheet to know if this feature is supported.
1108:/home/cuil/workspace/arm/lm3s811/TI_Stellaris/driverlib/i2c.c **** //! 
1109:/home/cuil/workspace/arm/lm3s811/TI_Stellaris/driverlib/i2c.c **** //! \return Returns the state of the bus with SDA in bit position 1 and SCL in
1110:/home/cuil/workspace/arm/lm3s811/TI_Stellaris/driverlib/i2c.c **** //! bit position 0.
1111:/home/cuil/workspace/arm/lm3s811/TI_Stellaris/driverlib/i2c.c **** //
1112:/home/cuil/workspace/arm/lm3s811/TI_Stellaris/driverlib/i2c.c **** //*****************************************************************************
1113:/home/cuil/workspace/arm/lm3s811/TI_Stellaris/driverlib/i2c.c **** unsigned long
1114:/home/cuil/workspace/arm/lm3s811/TI_Stellaris/driverlib/i2c.c **** I2CMasterLineStateGet(unsigned long ulBase)
1115:/home/cuil/workspace/arm/lm3s811/TI_Stellaris/driverlib/i2c.c **** {
 10581              		.loc 1 1115 0
 10582              		.cfi_startproc
 10583              		@ args = 0, pretend = 0, frame = 8
 10584              		@ frame_needed = 1, uses_anonymous_args = 0
 10585              		@ link register save eliminated.
 10586 0000 80B4     		push	{r7}
 10587              	.LCFI81:
 10588              		.cfi_def_cfa_offset 4
 10589 0002 83B0     		sub	sp, sp, #12
 10590              	.LCFI82:
 10591              		.cfi_def_cfa_offset 16
 10592 0004 00AF     		add	r7, sp, #0
 10593              		.cfi_offset 7, -4
 10594              	.LCFI83:
 10595              		.cfi_def_cfa_register 7
 10596 0006 7860     		str	r0, [r7, #4]
1116:/home/cuil/workspace/arm/lm3s811/TI_Stellaris/driverlib/i2c.c ****     //
1117:/home/cuil/workspace/arm/lm3s811/TI_Stellaris/driverlib/i2c.c ****     // Check the arguments.
1118:/home/cuil/workspace/arm/lm3s811/TI_Stellaris/driverlib/i2c.c ****     //
1119:/home/cuil/workspace/arm/lm3s811/TI_Stellaris/driverlib/i2c.c ****     ASSERT(I2CMasterBaseValid(ulBase));
1120:/home/cuil/workspace/arm/lm3s811/TI_Stellaris/driverlib/i2c.c **** 
1121:/home/cuil/workspace/arm/lm3s811/TI_Stellaris/driverlib/i2c.c ****     //
1122:/home/cuil/workspace/arm/lm3s811/TI_Stellaris/driverlib/i2c.c ****     // Return the line state.
1123:/home/cuil/workspace/arm/lm3s811/TI_Stellaris/driverlib/i2c.c ****     //
1124:/home/cuil/workspace/arm/lm3s811/TI_Stellaris/driverlib/i2c.c ****     return(HWREG(ulBase + I2C_O_MBMON));
 10597              		.loc 1 1124 0
 10598 0008 7B68     		ldr	r3, [r7, #4]
 10599 000a 03F12C03 		add	r3, r3, #44
 10600 000e 1B68     		ldr	r3, [r3, #0]
1125:/home/cuil/workspace/arm/lm3s811/TI_Stellaris/driverlib/i2c.c **** }
 10601              		.loc 1 1125 0
 10602 0010 1846     		mov	r0, r3
 10603 0012 07F10C07 		add	r7, r7, #12
 10604 0016 BD46     		mov	sp, r7
 10605 0018 80BC     		pop	{r7}
 10606 001a 7047     		bx	lr
 10607              		.cfi_endproc
 10608              	.LFE27:
 10610              		.section	.text.I2CMasterBusy,"ax",%progbits
 10611              		.align	2
 10612              		.global	I2CMasterBusy
 10613              		.thumb
 10614              		.thumb_func
 10616              	I2CMasterBusy:
 10617              	.LFB28:
1126:/home/cuil/workspace/arm/lm3s811/TI_Stellaris/driverlib/i2c.c **** 
1127:/home/cuil/workspace/arm/lm3s811/TI_Stellaris/driverlib/i2c.c **** //*****************************************************************************
1128:/home/cuil/workspace/arm/lm3s811/TI_Stellaris/driverlib/i2c.c **** //
1129:/home/cuil/workspace/arm/lm3s811/TI_Stellaris/driverlib/i2c.c **** //! Indicates whether or not the I2C Master is busy.
1130:/home/cuil/workspace/arm/lm3s811/TI_Stellaris/driverlib/i2c.c **** //!
1131:/home/cuil/workspace/arm/lm3s811/TI_Stellaris/driverlib/i2c.c **** //! \param ulBase is the base address of the I2C Master module.
1132:/home/cuil/workspace/arm/lm3s811/TI_Stellaris/driverlib/i2c.c **** //!
1133:/home/cuil/workspace/arm/lm3s811/TI_Stellaris/driverlib/i2c.c **** //! This function returns an indication of whether or not the I2C Master is
1134:/home/cuil/workspace/arm/lm3s811/TI_Stellaris/driverlib/i2c.c **** //! busy transmitting or receiving data.
1135:/home/cuil/workspace/arm/lm3s811/TI_Stellaris/driverlib/i2c.c **** //!
1136:/home/cuil/workspace/arm/lm3s811/TI_Stellaris/driverlib/i2c.c **** //! \return Returns \b true if the I2C Master is busy; otherwise, returns
1137:/home/cuil/workspace/arm/lm3s811/TI_Stellaris/driverlib/i2c.c **** //! \b false.
1138:/home/cuil/workspace/arm/lm3s811/TI_Stellaris/driverlib/i2c.c **** //
1139:/home/cuil/workspace/arm/lm3s811/TI_Stellaris/driverlib/i2c.c **** //*****************************************************************************
1140:/home/cuil/workspace/arm/lm3s811/TI_Stellaris/driverlib/i2c.c **** tBoolean
1141:/home/cuil/workspace/arm/lm3s811/TI_Stellaris/driverlib/i2c.c **** I2CMasterBusy(unsigned long ulBase)
1142:/home/cuil/workspace/arm/lm3s811/TI_Stellaris/driverlib/i2c.c **** {
 10618              		.loc 1 1142 0
 10619              		.cfi_startproc
 10620              		@ args = 0, pretend = 0, frame = 8
 10621              		@ frame_needed = 1, uses_anonymous_args = 0
 10622              		@ link register save eliminated.
 10623 0000 80B4     		push	{r7}
 10624              	.LCFI84:
 10625              		.cfi_def_cfa_offset 4
 10626 0002 83B0     		sub	sp, sp, #12
 10627              	.LCFI85:
 10628              		.cfi_def_cfa_offset 16
 10629 0004 00AF     		add	r7, sp, #0
 10630              		.cfi_offset 7, -4
 10631              	.LCFI86:
 10632              		.cfi_def_cfa_register 7
 10633 0006 7860     		str	r0, [r7, #4]
1143:/home/cuil/workspace/arm/lm3s811/TI_Stellaris/driverlib/i2c.c ****     //
1144:/home/cuil/workspace/arm/lm3s811/TI_Stellaris/driverlib/i2c.c ****     // Check the arguments.
1145:/home/cuil/workspace/arm/lm3s811/TI_Stellaris/driverlib/i2c.c ****     //
1146:/home/cuil/workspace/arm/lm3s811/TI_Stellaris/driverlib/i2c.c ****     ASSERT(I2CMasterBaseValid(ulBase));
1147:/home/cuil/workspace/arm/lm3s811/TI_Stellaris/driverlib/i2c.c **** 
1148:/home/cuil/workspace/arm/lm3s811/TI_Stellaris/driverlib/i2c.c ****     //
1149:/home/cuil/workspace/arm/lm3s811/TI_Stellaris/driverlib/i2c.c ****     // Return the busy status.
1150:/home/cuil/workspace/arm/lm3s811/TI_Stellaris/driverlib/i2c.c ****     //
1151:/home/cuil/workspace/arm/lm3s811/TI_Stellaris/driverlib/i2c.c ****     if(HWREG(ulBase + I2C_O_MCS) & I2C_MCS_BUSY)
 10634              		.loc 1 1151 0
 10635 0008 7B68     		ldr	r3, [r7, #4]
 10636 000a 03F10403 		add	r3, r3, #4
 10637 000e 1B68     		ldr	r3, [r3, #0]
 10638 0010 03F00103 		and	r3, r3, #1
 10639 0014 DBB2     		uxtb	r3, r3
 10640 0016 002B     		cmp	r3, #0
 10641 0018 02D0     		beq	.L54
1152:/home/cuil/workspace/arm/lm3s811/TI_Stellaris/driverlib/i2c.c ****     {
1153:/home/cuil/workspace/arm/lm3s811/TI_Stellaris/driverlib/i2c.c ****         return(true);
 10642              		.loc 1 1153 0
 10643 001a 4FF00103 		mov	r3, #1
 10644 001e 01E0     		b	.L55
 10645              	.L54:
1154:/home/cuil/workspace/arm/lm3s811/TI_Stellaris/driverlib/i2c.c ****     }
1155:/home/cuil/workspace/arm/lm3s811/TI_Stellaris/driverlib/i2c.c ****     else
1156:/home/cuil/workspace/arm/lm3s811/TI_Stellaris/driverlib/i2c.c ****     {
1157:/home/cuil/workspace/arm/lm3s811/TI_Stellaris/driverlib/i2c.c ****         return(false);
 10646              		.loc 1 1157 0
 10647 0020 4FF00003 		mov	r3, #0
 10648              	.L55:
1158:/home/cuil/workspace/arm/lm3s811/TI_Stellaris/driverlib/i2c.c ****     }
1159:/home/cuil/workspace/arm/lm3s811/TI_Stellaris/driverlib/i2c.c **** }
 10649              		.loc 1 1159 0
 10650 0024 1846     		mov	r0, r3
 10651 0026 07F10C07 		add	r7, r7, #12
 10652 002a BD46     		mov	sp, r7
 10653 002c 80BC     		pop	{r7}
 10654 002e 7047     		bx	lr
 10655              		.cfi_endproc
 10656              	.LFE28:
 10658              		.section	.text.I2CMasterBusBusy,"ax",%progbits
 10659              		.align	2
 10660              		.global	I2CMasterBusBusy
 10661              		.thumb
 10662              		.thumb_func
 10664              	I2CMasterBusBusy:
 10665              	.LFB29:
1160:/home/cuil/workspace/arm/lm3s811/TI_Stellaris/driverlib/i2c.c **** 
1161:/home/cuil/workspace/arm/lm3s811/TI_Stellaris/driverlib/i2c.c **** //*****************************************************************************
1162:/home/cuil/workspace/arm/lm3s811/TI_Stellaris/driverlib/i2c.c **** //
1163:/home/cuil/workspace/arm/lm3s811/TI_Stellaris/driverlib/i2c.c **** //! Indicates whether or not the I2C bus is busy.
1164:/home/cuil/workspace/arm/lm3s811/TI_Stellaris/driverlib/i2c.c **** //!
1165:/home/cuil/workspace/arm/lm3s811/TI_Stellaris/driverlib/i2c.c **** //! \param ulBase is the base address of the I2C Master module.
1166:/home/cuil/workspace/arm/lm3s811/TI_Stellaris/driverlib/i2c.c **** //!
1167:/home/cuil/workspace/arm/lm3s811/TI_Stellaris/driverlib/i2c.c **** //! This function returns an indication of whether or not the I2C bus is busy.
1168:/home/cuil/workspace/arm/lm3s811/TI_Stellaris/driverlib/i2c.c **** //! This function can be used in a multi-master environment to determine if
1169:/home/cuil/workspace/arm/lm3s811/TI_Stellaris/driverlib/i2c.c **** //! another master is currently using the bus.
1170:/home/cuil/workspace/arm/lm3s811/TI_Stellaris/driverlib/i2c.c **** //!
1171:/home/cuil/workspace/arm/lm3s811/TI_Stellaris/driverlib/i2c.c **** //! \return Returns \b true if the I2C bus is busy; otherwise, returns
1172:/home/cuil/workspace/arm/lm3s811/TI_Stellaris/driverlib/i2c.c **** //! \b false.
1173:/home/cuil/workspace/arm/lm3s811/TI_Stellaris/driverlib/i2c.c **** //
1174:/home/cuil/workspace/arm/lm3s811/TI_Stellaris/driverlib/i2c.c **** //*****************************************************************************
1175:/home/cuil/workspace/arm/lm3s811/TI_Stellaris/driverlib/i2c.c **** tBoolean
1176:/home/cuil/workspace/arm/lm3s811/TI_Stellaris/driverlib/i2c.c **** I2CMasterBusBusy(unsigned long ulBase)
1177:/home/cuil/workspace/arm/lm3s811/TI_Stellaris/driverlib/i2c.c **** {
 10666              		.loc 1 1177 0
 10667              		.cfi_startproc
 10668              		@ args = 0, pretend = 0, frame = 8
 10669              		@ frame_needed = 1, uses_anonymous_args = 0
 10670              		@ link register save eliminated.
 10671 0000 80B4     		push	{r7}
 10672              	.LCFI87:
 10673              		.cfi_def_cfa_offset 4
 10674 0002 83B0     		sub	sp, sp, #12
 10675              	.LCFI88:
 10676              		.cfi_def_cfa_offset 16
 10677 0004 00AF     		add	r7, sp, #0
 10678              		.cfi_offset 7, -4
 10679              	.LCFI89:
 10680              		.cfi_def_cfa_register 7
 10681 0006 7860     		str	r0, [r7, #4]
1178:/home/cuil/workspace/arm/lm3s811/TI_Stellaris/driverlib/i2c.c ****     //
1179:/home/cuil/workspace/arm/lm3s811/TI_Stellaris/driverlib/i2c.c ****     // Check the arguments.
1180:/home/cuil/workspace/arm/lm3s811/TI_Stellaris/driverlib/i2c.c ****     //
1181:/home/cuil/workspace/arm/lm3s811/TI_Stellaris/driverlib/i2c.c ****     ASSERT(I2CMasterBaseValid(ulBase));
1182:/home/cuil/workspace/arm/lm3s811/TI_Stellaris/driverlib/i2c.c **** 
1183:/home/cuil/workspace/arm/lm3s811/TI_Stellaris/driverlib/i2c.c ****     //
1184:/home/cuil/workspace/arm/lm3s811/TI_Stellaris/driverlib/i2c.c ****     // Return the bus busy status.
1185:/home/cuil/workspace/arm/lm3s811/TI_Stellaris/driverlib/i2c.c ****     //
1186:/home/cuil/workspace/arm/lm3s811/TI_Stellaris/driverlib/i2c.c ****     if(HWREG(ulBase + I2C_O_MCS) & I2C_MCS_BUSBSY)
 10682              		.loc 1 1186 0
 10683 0008 7B68     		ldr	r3, [r7, #4]
 10684 000a 03F10403 		add	r3, r3, #4
 10685 000e 1B68     		ldr	r3, [r3, #0]
 10686 0010 03F04003 		and	r3, r3, #64
 10687 0014 002B     		cmp	r3, #0
 10688 0016 02D0     		beq	.L57
1187:/home/cuil/workspace/arm/lm3s811/TI_Stellaris/driverlib/i2c.c ****     {
1188:/home/cuil/workspace/arm/lm3s811/TI_Stellaris/driverlib/i2c.c ****         return(true);
 10689              		.loc 1 1188 0
 10690 0018 4FF00103 		mov	r3, #1
 10691 001c 01E0     		b	.L58
 10692              	.L57:
1189:/home/cuil/workspace/arm/lm3s811/TI_Stellaris/driverlib/i2c.c ****     }
1190:/home/cuil/workspace/arm/lm3s811/TI_Stellaris/driverlib/i2c.c ****     else
1191:/home/cuil/workspace/arm/lm3s811/TI_Stellaris/driverlib/i2c.c ****     {
1192:/home/cuil/workspace/arm/lm3s811/TI_Stellaris/driverlib/i2c.c ****         return(false);
 10693              		.loc 1 1192 0
 10694 001e 4FF00003 		mov	r3, #0
 10695              	.L58:
1193:/home/cuil/workspace/arm/lm3s811/TI_Stellaris/driverlib/i2c.c ****     }
1194:/home/cuil/workspace/arm/lm3s811/TI_Stellaris/driverlib/i2c.c **** }
 10696              		.loc 1 1194 0
 10697 0022 1846     		mov	r0, r3
 10698 0024 07F10C07 		add	r7, r7, #12
 10699 0028 BD46     		mov	sp, r7
 10700 002a 80BC     		pop	{r7}
 10701 002c 7047     		bx	lr
 10702              		.cfi_endproc
 10703              	.LFE29:
 10705 002e 00BF     		.section	.text.I2CMasterControl,"ax",%progbits
 10706              		.align	2
 10707              		.global	I2CMasterControl
 10708              		.thumb
 10709              		.thumb_func
 10711              	I2CMasterControl:
 10712              	.LFB30:
1195:/home/cuil/workspace/arm/lm3s811/TI_Stellaris/driverlib/i2c.c **** 
1196:/home/cuil/workspace/arm/lm3s811/TI_Stellaris/driverlib/i2c.c **** //*****************************************************************************
1197:/home/cuil/workspace/arm/lm3s811/TI_Stellaris/driverlib/i2c.c **** //
1198:/home/cuil/workspace/arm/lm3s811/TI_Stellaris/driverlib/i2c.c **** //! Controls the state of the I2C Master module.
1199:/home/cuil/workspace/arm/lm3s811/TI_Stellaris/driverlib/i2c.c **** //!
1200:/home/cuil/workspace/arm/lm3s811/TI_Stellaris/driverlib/i2c.c **** //! \param ulBase is the base address of the I2C Master module.
1201:/home/cuil/workspace/arm/lm3s811/TI_Stellaris/driverlib/i2c.c **** //! \param ulCmd command to be issued to the I2C Master module.
1202:/home/cuil/workspace/arm/lm3s811/TI_Stellaris/driverlib/i2c.c **** //!
1203:/home/cuil/workspace/arm/lm3s811/TI_Stellaris/driverlib/i2c.c **** //! This function is used to control the state of the Master module send and
1204:/home/cuil/workspace/arm/lm3s811/TI_Stellaris/driverlib/i2c.c **** //! receive operations.  The \e ucCmd parameter can be one of the following
1205:/home/cuil/workspace/arm/lm3s811/TI_Stellaris/driverlib/i2c.c **** //! values:
1206:/home/cuil/workspace/arm/lm3s811/TI_Stellaris/driverlib/i2c.c **** //!
1207:/home/cuil/workspace/arm/lm3s811/TI_Stellaris/driverlib/i2c.c **** //! - \b I2C_MASTER_CMD_SINGLE_SEND
1208:/home/cuil/workspace/arm/lm3s811/TI_Stellaris/driverlib/i2c.c **** //! - \b I2C_MASTER_CMD_SINGLE_RECEIVE
1209:/home/cuil/workspace/arm/lm3s811/TI_Stellaris/driverlib/i2c.c **** //! - \b I2C_MASTER_CMD_BURST_SEND_START
1210:/home/cuil/workspace/arm/lm3s811/TI_Stellaris/driverlib/i2c.c **** //! - \b I2C_MASTER_CMD_BURST_SEND_CONT
1211:/home/cuil/workspace/arm/lm3s811/TI_Stellaris/driverlib/i2c.c **** //! - \b I2C_MASTER_CMD_BURST_SEND_FINISH
1212:/home/cuil/workspace/arm/lm3s811/TI_Stellaris/driverlib/i2c.c **** //! - \b I2C_MASTER_CMD_BURST_SEND_ERROR_STOP
1213:/home/cuil/workspace/arm/lm3s811/TI_Stellaris/driverlib/i2c.c **** //! - \b I2C_MASTER_CMD_BURST_RECEIVE_START
1214:/home/cuil/workspace/arm/lm3s811/TI_Stellaris/driverlib/i2c.c **** //! - \b I2C_MASTER_CMD_BURST_RECEIVE_CONT
1215:/home/cuil/workspace/arm/lm3s811/TI_Stellaris/driverlib/i2c.c **** //! - \b I2C_MASTER_CMD_BURST_RECEIVE_FINISH
1216:/home/cuil/workspace/arm/lm3s811/TI_Stellaris/driverlib/i2c.c **** //! - \b I2C_MASTER_CMD_BURST_RECEIVE_ERROR_STOP
1217:/home/cuil/workspace/arm/lm3s811/TI_Stellaris/driverlib/i2c.c **** //!
1218:/home/cuil/workspace/arm/lm3s811/TI_Stellaris/driverlib/i2c.c **** //! \return None.
1219:/home/cuil/workspace/arm/lm3s811/TI_Stellaris/driverlib/i2c.c **** //
1220:/home/cuil/workspace/arm/lm3s811/TI_Stellaris/driverlib/i2c.c **** //*****************************************************************************
1221:/home/cuil/workspace/arm/lm3s811/TI_Stellaris/driverlib/i2c.c **** void
1222:/home/cuil/workspace/arm/lm3s811/TI_Stellaris/driverlib/i2c.c **** I2CMasterControl(unsigned long ulBase, unsigned long ulCmd)
1223:/home/cuil/workspace/arm/lm3s811/TI_Stellaris/driverlib/i2c.c **** {
 10713              		.loc 1 1223 0
 10714              		.cfi_startproc
 10715              		@ args = 0, pretend = 0, frame = 8
 10716              		@ frame_needed = 1, uses_anonymous_args = 0
 10717              		@ link register save eliminated.
 10718 0000 80B4     		push	{r7}
 10719              	.LCFI90:
 10720              		.cfi_def_cfa_offset 4
 10721 0002 83B0     		sub	sp, sp, #12
 10722              	.LCFI91:
 10723              		.cfi_def_cfa_offset 16
 10724 0004 00AF     		add	r7, sp, #0
 10725              		.cfi_offset 7, -4
 10726              	.LCFI92:
 10727              		.cfi_def_cfa_register 7
 10728 0006 7860     		str	r0, [r7, #4]
 10729 0008 3960     		str	r1, [r7, #0]
1224:/home/cuil/workspace/arm/lm3s811/TI_Stellaris/driverlib/i2c.c ****     //
1225:/home/cuil/workspace/arm/lm3s811/TI_Stellaris/driverlib/i2c.c ****     // Check the arguments.
1226:/home/cuil/workspace/arm/lm3s811/TI_Stellaris/driverlib/i2c.c ****     //
1227:/home/cuil/workspace/arm/lm3s811/TI_Stellaris/driverlib/i2c.c ****     ASSERT(I2CMasterBaseValid(ulBase));
1228:/home/cuil/workspace/arm/lm3s811/TI_Stellaris/driverlib/i2c.c ****     ASSERT((ulCmd == I2C_MASTER_CMD_SINGLE_SEND) ||
1229:/home/cuil/workspace/arm/lm3s811/TI_Stellaris/driverlib/i2c.c ****            (ulCmd == I2C_MASTER_CMD_SINGLE_RECEIVE) ||
1230:/home/cuil/workspace/arm/lm3s811/TI_Stellaris/driverlib/i2c.c ****            (ulCmd == I2C_MASTER_CMD_BURST_SEND_START) ||
1231:/home/cuil/workspace/arm/lm3s811/TI_Stellaris/driverlib/i2c.c ****            (ulCmd == I2C_MASTER_CMD_BURST_SEND_CONT) ||
1232:/home/cuil/workspace/arm/lm3s811/TI_Stellaris/driverlib/i2c.c ****            (ulCmd == I2C_MASTER_CMD_BURST_SEND_FINISH) ||
1233:/home/cuil/workspace/arm/lm3s811/TI_Stellaris/driverlib/i2c.c ****            (ulCmd == I2C_MASTER_CMD_BURST_SEND_ERROR_STOP) ||
1234:/home/cuil/workspace/arm/lm3s811/TI_Stellaris/driverlib/i2c.c ****            (ulCmd == I2C_MASTER_CMD_BURST_RECEIVE_START) ||
1235:/home/cuil/workspace/arm/lm3s811/TI_Stellaris/driverlib/i2c.c ****            (ulCmd == I2C_MASTER_CMD_BURST_RECEIVE_CONT) ||
1236:/home/cuil/workspace/arm/lm3s811/TI_Stellaris/driverlib/i2c.c ****            (ulCmd == I2C_MASTER_CMD_BURST_RECEIVE_FINISH) ||
1237:/home/cuil/workspace/arm/lm3s811/TI_Stellaris/driverlib/i2c.c ****            (ulCmd == I2C_MASTER_CMD_BURST_RECEIVE_ERROR_STOP));
1238:/home/cuil/workspace/arm/lm3s811/TI_Stellaris/driverlib/i2c.c **** 
1239:/home/cuil/workspace/arm/lm3s811/TI_Stellaris/driverlib/i2c.c ****     //
1240:/home/cuil/workspace/arm/lm3s811/TI_Stellaris/driverlib/i2c.c ****     // Send the command.
1241:/home/cuil/workspace/arm/lm3s811/TI_Stellaris/driverlib/i2c.c ****     //
1242:/home/cuil/workspace/arm/lm3s811/TI_Stellaris/driverlib/i2c.c ****     HWREG(ulBase + I2C_O_MCS) = ulCmd;
 10730              		.loc 1 1242 0
 10731 000a 7B68     		ldr	r3, [r7, #4]
 10732 000c 03F10403 		add	r3, r3, #4
 10733 0010 3A68     		ldr	r2, [r7, #0]
 10734 0012 1A60     		str	r2, [r3, #0]
1243:/home/cuil/workspace/arm/lm3s811/TI_Stellaris/driverlib/i2c.c **** }
 10735              		.loc 1 1243 0
 10736 0014 07F10C07 		add	r7, r7, #12
 10737 0018 BD46     		mov	sp, r7
 10738 001a 80BC     		pop	{r7}
 10739 001c 7047     		bx	lr
 10740              		.cfi_endproc
 10741              	.LFE30:
 10743 001e 00BF     		.section	.text.I2CMasterErr,"ax",%progbits
 10744              		.align	2
 10745              		.global	I2CMasterErr
 10746              		.thumb
 10747              		.thumb_func
 10749              	I2CMasterErr:
 10750              	.LFB31:
1244:/home/cuil/workspace/arm/lm3s811/TI_Stellaris/driverlib/i2c.c **** 
1245:/home/cuil/workspace/arm/lm3s811/TI_Stellaris/driverlib/i2c.c **** //*****************************************************************************
1246:/home/cuil/workspace/arm/lm3s811/TI_Stellaris/driverlib/i2c.c **** //
1247:/home/cuil/workspace/arm/lm3s811/TI_Stellaris/driverlib/i2c.c **** //! Gets the error status of the I2C Master module.
1248:/home/cuil/workspace/arm/lm3s811/TI_Stellaris/driverlib/i2c.c **** //!
1249:/home/cuil/workspace/arm/lm3s811/TI_Stellaris/driverlib/i2c.c **** //! \param ulBase is the base address of the I2C Master module.
1250:/home/cuil/workspace/arm/lm3s811/TI_Stellaris/driverlib/i2c.c **** //!
1251:/home/cuil/workspace/arm/lm3s811/TI_Stellaris/driverlib/i2c.c **** //! This function is used to obtain the error status of the Master module send
1252:/home/cuil/workspace/arm/lm3s811/TI_Stellaris/driverlib/i2c.c **** //! and receive operations.
1253:/home/cuil/workspace/arm/lm3s811/TI_Stellaris/driverlib/i2c.c **** //!
1254:/home/cuil/workspace/arm/lm3s811/TI_Stellaris/driverlib/i2c.c **** //! \return Returns the error status, as one of \b I2C_MASTER_ERR_NONE,
1255:/home/cuil/workspace/arm/lm3s811/TI_Stellaris/driverlib/i2c.c **** //! \b I2C_MASTER_ERR_ADDR_ACK, \b I2C_MASTER_ERR_DATA_ACK, or
1256:/home/cuil/workspace/arm/lm3s811/TI_Stellaris/driverlib/i2c.c **** //! \b I2C_MASTER_ERR_ARB_LOST.
1257:/home/cuil/workspace/arm/lm3s811/TI_Stellaris/driverlib/i2c.c **** //
1258:/home/cuil/workspace/arm/lm3s811/TI_Stellaris/driverlib/i2c.c **** //*****************************************************************************
1259:/home/cuil/workspace/arm/lm3s811/TI_Stellaris/driverlib/i2c.c **** unsigned long
1260:/home/cuil/workspace/arm/lm3s811/TI_Stellaris/driverlib/i2c.c **** I2CMasterErr(unsigned long ulBase)
1261:/home/cuil/workspace/arm/lm3s811/TI_Stellaris/driverlib/i2c.c **** {
 10751              		.loc 1 1261 0
 10752              		.cfi_startproc
 10753              		@ args = 0, pretend = 0, frame = 16
 10754              		@ frame_needed = 1, uses_anonymous_args = 0
 10755              		@ link register save eliminated.
 10756 0000 80B4     		push	{r7}
 10757              	.LCFI93:
 10758              		.cfi_def_cfa_offset 4
 10759 0002 85B0     		sub	sp, sp, #20
 10760              	.LCFI94:
 10761              		.cfi_def_cfa_offset 24
 10762 0004 00AF     		add	r7, sp, #0
 10763              		.cfi_offset 7, -4
 10764              	.LCFI95:
 10765              		.cfi_def_cfa_register 7
 10766 0006 7860     		str	r0, [r7, #4]
1262:/home/cuil/workspace/arm/lm3s811/TI_Stellaris/driverlib/i2c.c ****     unsigned long ulErr;
1263:/home/cuil/workspace/arm/lm3s811/TI_Stellaris/driverlib/i2c.c **** 
1264:/home/cuil/workspace/arm/lm3s811/TI_Stellaris/driverlib/i2c.c ****     //
1265:/home/cuil/workspace/arm/lm3s811/TI_Stellaris/driverlib/i2c.c ****     // Check the arguments.
1266:/home/cuil/workspace/arm/lm3s811/TI_Stellaris/driverlib/i2c.c ****     //
1267:/home/cuil/workspace/arm/lm3s811/TI_Stellaris/driverlib/i2c.c ****     ASSERT(I2CMasterBaseValid(ulBase));
1268:/home/cuil/workspace/arm/lm3s811/TI_Stellaris/driverlib/i2c.c **** 
1269:/home/cuil/workspace/arm/lm3s811/TI_Stellaris/driverlib/i2c.c ****     //
1270:/home/cuil/workspace/arm/lm3s811/TI_Stellaris/driverlib/i2c.c ****     // Get the raw error state
1271:/home/cuil/workspace/arm/lm3s811/TI_Stellaris/driverlib/i2c.c ****     //
1272:/home/cuil/workspace/arm/lm3s811/TI_Stellaris/driverlib/i2c.c ****     ulErr = HWREG(ulBase + I2C_O_MCS);
 10767              		.loc 1 1272 0
 10768 0008 7B68     		ldr	r3, [r7, #4]
 10769 000a 03F10403 		add	r3, r3, #4
 10770 000e 1B68     		ldr	r3, [r3, #0]
 10771 0010 FB60     		str	r3, [r7, #12]
1273:/home/cuil/workspace/arm/lm3s811/TI_Stellaris/driverlib/i2c.c **** 
1274:/home/cuil/workspace/arm/lm3s811/TI_Stellaris/driverlib/i2c.c ****     //
1275:/home/cuil/workspace/arm/lm3s811/TI_Stellaris/driverlib/i2c.c ****     // If the I2C master is busy, then all the other bit are invalid, and
1276:/home/cuil/workspace/arm/lm3s811/TI_Stellaris/driverlib/i2c.c ****     // don't have an error to report.
1277:/home/cuil/workspace/arm/lm3s811/TI_Stellaris/driverlib/i2c.c ****     //
1278:/home/cuil/workspace/arm/lm3s811/TI_Stellaris/driverlib/i2c.c ****     if(ulErr & I2C_MCS_BUSY)
 10772              		.loc 1 1278 0
 10773 0012 FB68     		ldr	r3, [r7, #12]
 10774 0014 03F00103 		and	r3, r3, #1
 10775 0018 DBB2     		uxtb	r3, r3
 10776 001a 002B     		cmp	r3, #0
 10777 001c 02D0     		beq	.L61
1279:/home/cuil/workspace/arm/lm3s811/TI_Stellaris/driverlib/i2c.c ****     {
1280:/home/cuil/workspace/arm/lm3s811/TI_Stellaris/driverlib/i2c.c ****         return(I2C_MASTER_ERR_NONE);
 10778              		.loc 1 1280 0
 10779 001e 4FF00003 		mov	r3, #0
 10780 0022 0AE0     		b	.L62
 10781              	.L61:
1281:/home/cuil/workspace/arm/lm3s811/TI_Stellaris/driverlib/i2c.c ****     }
1282:/home/cuil/workspace/arm/lm3s811/TI_Stellaris/driverlib/i2c.c **** 
1283:/home/cuil/workspace/arm/lm3s811/TI_Stellaris/driverlib/i2c.c ****     //
1284:/home/cuil/workspace/arm/lm3s811/TI_Stellaris/driverlib/i2c.c ****     // Check for errors.
1285:/home/cuil/workspace/arm/lm3s811/TI_Stellaris/driverlib/i2c.c ****     //
1286:/home/cuil/workspace/arm/lm3s811/TI_Stellaris/driverlib/i2c.c ****     if(ulErr & (I2C_MCS_ERROR | I2C_MCS_ARBLST))
 10782              		.loc 1 1286 0
 10783 0024 FB68     		ldr	r3, [r7, #12]
 10784 0026 03F01203 		and	r3, r3, #18
 10785 002a 002B     		cmp	r3, #0
 10786 002c 03D0     		beq	.L63
1287:/home/cuil/workspace/arm/lm3s811/TI_Stellaris/driverlib/i2c.c ****     {
1288:/home/cuil/workspace/arm/lm3s811/TI_Stellaris/driverlib/i2c.c ****         return(ulErr & (I2C_MCS_ARBLST | I2C_MCS_DATACK | I2C_MCS_ADRACK));
 10787              		.loc 1 1288 0
 10788 002e FB68     		ldr	r3, [r7, #12]
 10789 0030 03F01C03 		and	r3, r3, #28
 10790 0034 01E0     		b	.L62
 10791              	.L63:
1289:/home/cuil/workspace/arm/lm3s811/TI_Stellaris/driverlib/i2c.c ****     }
1290:/home/cuil/workspace/arm/lm3s811/TI_Stellaris/driverlib/i2c.c ****     else
1291:/home/cuil/workspace/arm/lm3s811/TI_Stellaris/driverlib/i2c.c ****     {
1292:/home/cuil/workspace/arm/lm3s811/TI_Stellaris/driverlib/i2c.c ****         return(I2C_MASTER_ERR_NONE);
 10792              		.loc 1 1292 0
 10793 0036 4FF00003 		mov	r3, #0
 10794              	.L62:
1293:/home/cuil/workspace/arm/lm3s811/TI_Stellaris/driverlib/i2c.c ****     }
1294:/home/cuil/workspace/arm/lm3s811/TI_Stellaris/driverlib/i2c.c **** }
 10795              		.loc 1 1294 0
 10796 003a 1846     		mov	r0, r3
 10797 003c 07F11407 		add	r7, r7, #20
 10798 0040 BD46     		mov	sp, r7
 10799 0042 80BC     		pop	{r7}
 10800 0044 7047     		bx	lr
 10801              		.cfi_endproc
 10802              	.LFE31:
 10804 0046 00BF     		.section	.text.I2CMasterDataPut,"ax",%progbits
 10805              		.align	2
 10806              		.global	I2CMasterDataPut
 10807              		.thumb
 10808              		.thumb_func
 10810              	I2CMasterDataPut:
 10811              	.LFB32:
1295:/home/cuil/workspace/arm/lm3s811/TI_Stellaris/driverlib/i2c.c **** 
1296:/home/cuil/workspace/arm/lm3s811/TI_Stellaris/driverlib/i2c.c **** //*****************************************************************************
1297:/home/cuil/workspace/arm/lm3s811/TI_Stellaris/driverlib/i2c.c **** //
1298:/home/cuil/workspace/arm/lm3s811/TI_Stellaris/driverlib/i2c.c **** //! Transmits a byte from the I2C Master.
1299:/home/cuil/workspace/arm/lm3s811/TI_Stellaris/driverlib/i2c.c **** //!
1300:/home/cuil/workspace/arm/lm3s811/TI_Stellaris/driverlib/i2c.c **** //! \param ulBase is the base address of the I2C Master module.
1301:/home/cuil/workspace/arm/lm3s811/TI_Stellaris/driverlib/i2c.c **** //! \param ucData data to be transmitted from the I2C Master.
1302:/home/cuil/workspace/arm/lm3s811/TI_Stellaris/driverlib/i2c.c **** //!
1303:/home/cuil/workspace/arm/lm3s811/TI_Stellaris/driverlib/i2c.c **** //! This function places the supplied data into I2C Master Data Register.
1304:/home/cuil/workspace/arm/lm3s811/TI_Stellaris/driverlib/i2c.c **** //!
1305:/home/cuil/workspace/arm/lm3s811/TI_Stellaris/driverlib/i2c.c **** //! \return None.
1306:/home/cuil/workspace/arm/lm3s811/TI_Stellaris/driverlib/i2c.c **** //
1307:/home/cuil/workspace/arm/lm3s811/TI_Stellaris/driverlib/i2c.c **** //*****************************************************************************
1308:/home/cuil/workspace/arm/lm3s811/TI_Stellaris/driverlib/i2c.c **** void
1309:/home/cuil/workspace/arm/lm3s811/TI_Stellaris/driverlib/i2c.c **** I2CMasterDataPut(unsigned long ulBase, unsigned char ucData)
1310:/home/cuil/workspace/arm/lm3s811/TI_Stellaris/driverlib/i2c.c **** {
 10812              		.loc 1 1310 0
 10813              		.cfi_startproc
 10814              		@ args = 0, pretend = 0, frame = 8
 10815              		@ frame_needed = 1, uses_anonymous_args = 0
 10816              		@ link register save eliminated.
 10817 0000 80B4     		push	{r7}
 10818              	.LCFI96:
 10819              		.cfi_def_cfa_offset 4
 10820 0002 83B0     		sub	sp, sp, #12
 10821              	.LCFI97:
 10822              		.cfi_def_cfa_offset 16
 10823 0004 00AF     		add	r7, sp, #0
 10824              		.cfi_offset 7, -4
 10825              	.LCFI98:
 10826              		.cfi_def_cfa_register 7
 10827 0006 7860     		str	r0, [r7, #4]
 10828 0008 0B46     		mov	r3, r1
 10829 000a FB70     		strb	r3, [r7, #3]
1311:/home/cuil/workspace/arm/lm3s811/TI_Stellaris/driverlib/i2c.c ****     //
1312:/home/cuil/workspace/arm/lm3s811/TI_Stellaris/driverlib/i2c.c ****     // Check the arguments.
1313:/home/cuil/workspace/arm/lm3s811/TI_Stellaris/driverlib/i2c.c ****     //
1314:/home/cuil/workspace/arm/lm3s811/TI_Stellaris/driverlib/i2c.c ****     ASSERT(I2CMasterBaseValid(ulBase));
1315:/home/cuil/workspace/arm/lm3s811/TI_Stellaris/driverlib/i2c.c **** 
1316:/home/cuil/workspace/arm/lm3s811/TI_Stellaris/driverlib/i2c.c ****     //
1317:/home/cuil/workspace/arm/lm3s811/TI_Stellaris/driverlib/i2c.c ****     // Write the byte.
1318:/home/cuil/workspace/arm/lm3s811/TI_Stellaris/driverlib/i2c.c ****     //
1319:/home/cuil/workspace/arm/lm3s811/TI_Stellaris/driverlib/i2c.c ****     HWREG(ulBase + I2C_O_MDR) = ucData;
 10830              		.loc 1 1319 0
 10831 000c 7B68     		ldr	r3, [r7, #4]
 10832 000e 03F10803 		add	r3, r3, #8
 10833 0012 FA78     		ldrb	r2, [r7, #3]	@ zero_extendqisi2
 10834 0014 1A60     		str	r2, [r3, #0]
1320:/home/cuil/workspace/arm/lm3s811/TI_Stellaris/driverlib/i2c.c **** }
 10835              		.loc 1 1320 0
 10836 0016 07F10C07 		add	r7, r7, #12
 10837 001a BD46     		mov	sp, r7
 10838 001c 80BC     		pop	{r7}
 10839 001e 7047     		bx	lr
 10840              		.cfi_endproc
 10841              	.LFE32:
 10843              		.section	.text.I2CMasterDataGet,"ax",%progbits
 10844              		.align	2
 10845              		.global	I2CMasterDataGet
 10846              		.thumb
 10847              		.thumb_func
 10849              	I2CMasterDataGet:
 10850              	.LFB33:
1321:/home/cuil/workspace/arm/lm3s811/TI_Stellaris/driverlib/i2c.c **** 
1322:/home/cuil/workspace/arm/lm3s811/TI_Stellaris/driverlib/i2c.c **** //*****************************************************************************
1323:/home/cuil/workspace/arm/lm3s811/TI_Stellaris/driverlib/i2c.c **** //
1324:/home/cuil/workspace/arm/lm3s811/TI_Stellaris/driverlib/i2c.c **** //! Receives a byte that has been sent to the I2C Master.
1325:/home/cuil/workspace/arm/lm3s811/TI_Stellaris/driverlib/i2c.c **** //!
1326:/home/cuil/workspace/arm/lm3s811/TI_Stellaris/driverlib/i2c.c **** //! \param ulBase is the base address of the I2C Master module.
1327:/home/cuil/workspace/arm/lm3s811/TI_Stellaris/driverlib/i2c.c **** //!
1328:/home/cuil/workspace/arm/lm3s811/TI_Stellaris/driverlib/i2c.c **** //! This function reads a byte of data from the I2C Master Data Register.
1329:/home/cuil/workspace/arm/lm3s811/TI_Stellaris/driverlib/i2c.c **** //!
1330:/home/cuil/workspace/arm/lm3s811/TI_Stellaris/driverlib/i2c.c **** //! \return Returns the byte received from by the I2C Master, cast as an
1331:/home/cuil/workspace/arm/lm3s811/TI_Stellaris/driverlib/i2c.c **** //! unsigned long.
1332:/home/cuil/workspace/arm/lm3s811/TI_Stellaris/driverlib/i2c.c **** //
1333:/home/cuil/workspace/arm/lm3s811/TI_Stellaris/driverlib/i2c.c **** //*****************************************************************************
1334:/home/cuil/workspace/arm/lm3s811/TI_Stellaris/driverlib/i2c.c **** unsigned long
1335:/home/cuil/workspace/arm/lm3s811/TI_Stellaris/driverlib/i2c.c **** I2CMasterDataGet(unsigned long ulBase)
1336:/home/cuil/workspace/arm/lm3s811/TI_Stellaris/driverlib/i2c.c **** {
 10851              		.loc 1 1336 0
 10852              		.cfi_startproc
 10853              		@ args = 0, pretend = 0, frame = 8
 10854              		@ frame_needed = 1, uses_anonymous_args = 0
 10855              		@ link register save eliminated.
 10856 0000 80B4     		push	{r7}
 10857              	.LCFI99:
 10858              		.cfi_def_cfa_offset 4
 10859 0002 83B0     		sub	sp, sp, #12
 10860              	.LCFI100:
 10861              		.cfi_def_cfa_offset 16
 10862 0004 00AF     		add	r7, sp, #0
 10863              		.cfi_offset 7, -4
 10864              	.LCFI101:
 10865              		.cfi_def_cfa_register 7
 10866 0006 7860     		str	r0, [r7, #4]
1337:/home/cuil/workspace/arm/lm3s811/TI_Stellaris/driverlib/i2c.c ****     //
1338:/home/cuil/workspace/arm/lm3s811/TI_Stellaris/driverlib/i2c.c ****     // Check the arguments.
1339:/home/cuil/workspace/arm/lm3s811/TI_Stellaris/driverlib/i2c.c ****     //
1340:/home/cuil/workspace/arm/lm3s811/TI_Stellaris/driverlib/i2c.c ****     ASSERT(I2CMasterBaseValid(ulBase));
1341:/home/cuil/workspace/arm/lm3s811/TI_Stellaris/driverlib/i2c.c **** 
1342:/home/cuil/workspace/arm/lm3s811/TI_Stellaris/driverlib/i2c.c ****     //
1343:/home/cuil/workspace/arm/lm3s811/TI_Stellaris/driverlib/i2c.c ****     // Read a byte.
1344:/home/cuil/workspace/arm/lm3s811/TI_Stellaris/driverlib/i2c.c ****     //
1345:/home/cuil/workspace/arm/lm3s811/TI_Stellaris/driverlib/i2c.c ****     return(HWREG(ulBase + I2C_O_MDR));
 10867              		.loc 1 1345 0
 10868 0008 7B68     		ldr	r3, [r7, #4]
 10869 000a 03F10803 		add	r3, r3, #8
 10870 000e 1B68     		ldr	r3, [r3, #0]
1346:/home/cuil/workspace/arm/lm3s811/TI_Stellaris/driverlib/i2c.c **** }
 10871              		.loc 1 1346 0
 10872 0010 1846     		mov	r0, r3
 10873 0012 07F10C07 		add	r7, r7, #12
 10874 0016 BD46     		mov	sp, r7
 10875 0018 80BC     		pop	{r7}
 10876 001a 7047     		bx	lr
 10877              		.cfi_endproc
 10878              	.LFE33:
 10880              		.section	.text.I2CMasterTimeoutSet,"ax",%progbits
 10881              		.align	2
 10882              		.global	I2CMasterTimeoutSet
 10883              		.thumb
 10884              		.thumb_func
 10886              	I2CMasterTimeoutSet:
 10887              	.LFB34:
1347:/home/cuil/workspace/arm/lm3s811/TI_Stellaris/driverlib/i2c.c **** 
1348:/home/cuil/workspace/arm/lm3s811/TI_Stellaris/driverlib/i2c.c **** //*****************************************************************************
1349:/home/cuil/workspace/arm/lm3s811/TI_Stellaris/driverlib/i2c.c **** //
1350:/home/cuil/workspace/arm/lm3s811/TI_Stellaris/driverlib/i2c.c **** //! Sets the Master clock timeout value.
1351:/home/cuil/workspace/arm/lm3s811/TI_Stellaris/driverlib/i2c.c **** //!
1352:/home/cuil/workspace/arm/lm3s811/TI_Stellaris/driverlib/i2c.c **** //! \param ulBase is the base address of the I2C Master module.
1353:/home/cuil/workspace/arm/lm3s811/TI_Stellaris/driverlib/i2c.c **** //! \param ulValue is the number of I2C clocks before the timeout is asserted.
1354:/home/cuil/workspace/arm/lm3s811/TI_Stellaris/driverlib/i2c.c **** //!
1355:/home/cuil/workspace/arm/lm3s811/TI_Stellaris/driverlib/i2c.c **** //! This function enables and configures the clock low timeout feature in the
1356:/home/cuil/workspace/arm/lm3s811/TI_Stellaris/driverlib/i2c.c **** //! I2C peripheral.  This feature is implemented as a 12-bit counter, with the
1357:/home/cuil/workspace/arm/lm3s811/TI_Stellaris/driverlib/i2c.c **** //! upper 8-bits being programmable.  For example, to program a timeout of 20ms
1358:/home/cuil/workspace/arm/lm3s811/TI_Stellaris/driverlib/i2c.c **** //! with a 100kHz SCL frequency, \e ulValue would be 0x7d.
1359:/home/cuil/workspace/arm/lm3s811/TI_Stellaris/driverlib/i2c.c **** //!
1360:/home/cuil/workspace/arm/lm3s811/TI_Stellaris/driverlib/i2c.c **** //! \note Not all Stellaris devices support this function. Please consult the 
1361:/home/cuil/workspace/arm/lm3s811/TI_Stellaris/driverlib/i2c.c **** //! device data sheet to know if this feature is supported.
1362:/home/cuil/workspace/arm/lm3s811/TI_Stellaris/driverlib/i2c.c **** //!
1363:/home/cuil/workspace/arm/lm3s811/TI_Stellaris/driverlib/i2c.c **** //! \return None.
1364:/home/cuil/workspace/arm/lm3s811/TI_Stellaris/driverlib/i2c.c **** //
1365:/home/cuil/workspace/arm/lm3s811/TI_Stellaris/driverlib/i2c.c **** //*****************************************************************************
1366:/home/cuil/workspace/arm/lm3s811/TI_Stellaris/driverlib/i2c.c **** void
1367:/home/cuil/workspace/arm/lm3s811/TI_Stellaris/driverlib/i2c.c **** I2CMasterTimeoutSet(unsigned long ulBase, unsigned long ulValue)
1368:/home/cuil/workspace/arm/lm3s811/TI_Stellaris/driverlib/i2c.c **** {
 10888              		.loc 1 1368 0
 10889              		.cfi_startproc
 10890              		@ args = 0, pretend = 0, frame = 8
 10891              		@ frame_needed = 1, uses_anonymous_args = 0
 10892              		@ link register save eliminated.
 10893 0000 80B4     		push	{r7}
 10894              	.LCFI102:
 10895              		.cfi_def_cfa_offset 4
 10896 0002 83B0     		sub	sp, sp, #12
 10897              	.LCFI103:
 10898              		.cfi_def_cfa_offset 16
 10899 0004 00AF     		add	r7, sp, #0
 10900              		.cfi_offset 7, -4
 10901              	.LCFI104:
 10902              		.cfi_def_cfa_register 7
 10903 0006 7860     		str	r0, [r7, #4]
 10904 0008 3960     		str	r1, [r7, #0]
1369:/home/cuil/workspace/arm/lm3s811/TI_Stellaris/driverlib/i2c.c ****     //
1370:/home/cuil/workspace/arm/lm3s811/TI_Stellaris/driverlib/i2c.c ****     // Check the arguments.
1371:/home/cuil/workspace/arm/lm3s811/TI_Stellaris/driverlib/i2c.c ****     //
1372:/home/cuil/workspace/arm/lm3s811/TI_Stellaris/driverlib/i2c.c ****     ASSERT(I2CMasterBaseValid(ulBase));
1373:/home/cuil/workspace/arm/lm3s811/TI_Stellaris/driverlib/i2c.c **** 
1374:/home/cuil/workspace/arm/lm3s811/TI_Stellaris/driverlib/i2c.c ****     //
1375:/home/cuil/workspace/arm/lm3s811/TI_Stellaris/driverlib/i2c.c ****     // Write the timeout value.
1376:/home/cuil/workspace/arm/lm3s811/TI_Stellaris/driverlib/i2c.c ****     //
1377:/home/cuil/workspace/arm/lm3s811/TI_Stellaris/driverlib/i2c.c ****     HWREG(ulBase + I2C_O_MCLKOCNT) = ulValue;
 10905              		.loc 1 1377 0
 10906 000a 7B68     		ldr	r3, [r7, #4]
 10907 000c 03F12403 		add	r3, r3, #36
 10908 0010 3A68     		ldr	r2, [r7, #0]
 10909 0012 1A60     		str	r2, [r3, #0]
1378:/home/cuil/workspace/arm/lm3s811/TI_Stellaris/driverlib/i2c.c **** }
 10910              		.loc 1 1378 0
 10911 0014 07F10C07 		add	r7, r7, #12
 10912 0018 BD46     		mov	sp, r7
 10913 001a 80BC     		pop	{r7}
 10914 001c 7047     		bx	lr
 10915              		.cfi_endproc
 10916              	.LFE34:
 10918 001e 00BF     		.section	.text.I2CSlaveACKOverride,"ax",%progbits
 10919              		.align	2
 10920              		.global	I2CSlaveACKOverride
 10921              		.thumb
 10922              		.thumb_func
 10924              	I2CSlaveACKOverride:
 10925              	.LFB35:
1379:/home/cuil/workspace/arm/lm3s811/TI_Stellaris/driverlib/i2c.c **** 
1380:/home/cuil/workspace/arm/lm3s811/TI_Stellaris/driverlib/i2c.c **** //*****************************************************************************
1381:/home/cuil/workspace/arm/lm3s811/TI_Stellaris/driverlib/i2c.c **** //
1382:/home/cuil/workspace/arm/lm3s811/TI_Stellaris/driverlib/i2c.c **** //! Configures ACK override behavior of the I2C Slave.
1383:/home/cuil/workspace/arm/lm3s811/TI_Stellaris/driverlib/i2c.c **** //!
1384:/home/cuil/workspace/arm/lm3s811/TI_Stellaris/driverlib/i2c.c **** //! \param ulBase is the base address of the I2C Slave module.
1385:/home/cuil/workspace/arm/lm3s811/TI_Stellaris/driverlib/i2c.c **** //! \param bEnable enables or disables ACK override.
1386:/home/cuil/workspace/arm/lm3s811/TI_Stellaris/driverlib/i2c.c **** //!
1387:/home/cuil/workspace/arm/lm3s811/TI_Stellaris/driverlib/i2c.c **** //! This function enables or disables ACK override, allowing the user
1388:/home/cuil/workspace/arm/lm3s811/TI_Stellaris/driverlib/i2c.c **** //! application to drive the value on SDA during the ACK cycle.
1389:/home/cuil/workspace/arm/lm3s811/TI_Stellaris/driverlib/i2c.c **** //!
1390:/home/cuil/workspace/arm/lm3s811/TI_Stellaris/driverlib/i2c.c **** //! \note Not all Stellaris devices support this function. Please consult the 
1391:/home/cuil/workspace/arm/lm3s811/TI_Stellaris/driverlib/i2c.c **** //! device data sheet to know if this feature is supported.
1392:/home/cuil/workspace/arm/lm3s811/TI_Stellaris/driverlib/i2c.c **** //!
1393:/home/cuil/workspace/arm/lm3s811/TI_Stellaris/driverlib/i2c.c **** //! \return None.
1394:/home/cuil/workspace/arm/lm3s811/TI_Stellaris/driverlib/i2c.c **** //
1395:/home/cuil/workspace/arm/lm3s811/TI_Stellaris/driverlib/i2c.c **** //*****************************************************************************
1396:/home/cuil/workspace/arm/lm3s811/TI_Stellaris/driverlib/i2c.c **** void
1397:/home/cuil/workspace/arm/lm3s811/TI_Stellaris/driverlib/i2c.c **** I2CSlaveACKOverride(unsigned long ulBase, tBoolean bEnable)
1398:/home/cuil/workspace/arm/lm3s811/TI_Stellaris/driverlib/i2c.c **** {
 10926              		.loc 1 1398 0
 10927              		.cfi_startproc
 10928              		@ args = 0, pretend = 0, frame = 8
 10929              		@ frame_needed = 1, uses_anonymous_args = 0
 10930              		@ link register save eliminated.
 10931 0000 80B4     		push	{r7}
 10932              	.LCFI105:
 10933              		.cfi_def_cfa_offset 4
 10934 0002 83B0     		sub	sp, sp, #12
 10935              	.LCFI106:
 10936              		.cfi_def_cfa_offset 16
 10937 0004 00AF     		add	r7, sp, #0
 10938              		.cfi_offset 7, -4
 10939              	.LCFI107:
 10940              		.cfi_def_cfa_register 7
 10941 0006 7860     		str	r0, [r7, #4]
 10942 0008 0B46     		mov	r3, r1
 10943 000a FB70     		strb	r3, [r7, #3]
1399:/home/cuil/workspace/arm/lm3s811/TI_Stellaris/driverlib/i2c.c ****     //
1400:/home/cuil/workspace/arm/lm3s811/TI_Stellaris/driverlib/i2c.c ****     // Check the arguments.
1401:/home/cuil/workspace/arm/lm3s811/TI_Stellaris/driverlib/i2c.c ****     //
1402:/home/cuil/workspace/arm/lm3s811/TI_Stellaris/driverlib/i2c.c ****     ASSERT(I2CSlaveBaseValid(ulBase));
1403:/home/cuil/workspace/arm/lm3s811/TI_Stellaris/driverlib/i2c.c **** 
1404:/home/cuil/workspace/arm/lm3s811/TI_Stellaris/driverlib/i2c.c ****     //
1405:/home/cuil/workspace/arm/lm3s811/TI_Stellaris/driverlib/i2c.c ****     // Enable or disable based on bEnable.
1406:/home/cuil/workspace/arm/lm3s811/TI_Stellaris/driverlib/i2c.c ****     //
1407:/home/cuil/workspace/arm/lm3s811/TI_Stellaris/driverlib/i2c.c ****     if(bEnable)
 10944              		.loc 1 1407 0
 10945 000c FB78     		ldrb	r3, [r7, #3]	@ zero_extendqisi2
 10946 000e 002B     		cmp	r3, #0
 10947 0010 0AD0     		beq	.L68
1408:/home/cuil/workspace/arm/lm3s811/TI_Stellaris/driverlib/i2c.c ****     {
1409:/home/cuil/workspace/arm/lm3s811/TI_Stellaris/driverlib/i2c.c ****         HWREG(ulBase + I2C_O_SACKCTL) |= I2C_SACKCTL_ACKOEN;
 10948              		.loc 1 1409 0
 10949 0012 7B68     		ldr	r3, [r7, #4]
 10950 0014 03F12003 		add	r3, r3, #32
 10951 0018 7A68     		ldr	r2, [r7, #4]
 10952 001a 02F12002 		add	r2, r2, #32
 10953 001e 1268     		ldr	r2, [r2, #0]
 10954 0020 42F00102 		orr	r2, r2, #1
 10955 0024 1A60     		str	r2, [r3, #0]
 10956 0026 09E0     		b	.L67
 10957              	.L68:
1410:/home/cuil/workspace/arm/lm3s811/TI_Stellaris/driverlib/i2c.c ****     }
1411:/home/cuil/workspace/arm/lm3s811/TI_Stellaris/driverlib/i2c.c ****     else
1412:/home/cuil/workspace/arm/lm3s811/TI_Stellaris/driverlib/i2c.c ****     {
1413:/home/cuil/workspace/arm/lm3s811/TI_Stellaris/driverlib/i2c.c ****         HWREG(ulBase + I2C_O_SACKCTL) &= ~I2C_SACKCTL_ACKOEN;
 10958              		.loc 1 1413 0
 10959 0028 7B68     		ldr	r3, [r7, #4]
 10960 002a 03F12003 		add	r3, r3, #32
 10961 002e 7A68     		ldr	r2, [r7, #4]
 10962 0030 02F12002 		add	r2, r2, #32
 10963 0034 1268     		ldr	r2, [r2, #0]
 10964 0036 22F00102 		bic	r2, r2, #1
 10965 003a 1A60     		str	r2, [r3, #0]
 10966              	.L67:
1414:/home/cuil/workspace/arm/lm3s811/TI_Stellaris/driverlib/i2c.c ****     }
1415:/home/cuil/workspace/arm/lm3s811/TI_Stellaris/driverlib/i2c.c **** }
 10967              		.loc 1 1415 0
 10968 003c 07F10C07 		add	r7, r7, #12
 10969 0040 BD46     		mov	sp, r7
 10970 0042 80BC     		pop	{r7}
 10971 0044 7047     		bx	lr
 10972              		.cfi_endproc
 10973              	.LFE35:
 10975 0046 00BF     		.section	.text.I2CSlaveACKValueSet,"ax",%progbits
 10976              		.align	2
 10977              		.global	I2CSlaveACKValueSet
 10978              		.thumb
 10979              		.thumb_func
 10981              	I2CSlaveACKValueSet:
 10982              	.LFB36:
1416:/home/cuil/workspace/arm/lm3s811/TI_Stellaris/driverlib/i2c.c **** 
1417:/home/cuil/workspace/arm/lm3s811/TI_Stellaris/driverlib/i2c.c **** //*****************************************************************************
1418:/home/cuil/workspace/arm/lm3s811/TI_Stellaris/driverlib/i2c.c **** //
1419:/home/cuil/workspace/arm/lm3s811/TI_Stellaris/driverlib/i2c.c **** //! Writes the ACK value.
1420:/home/cuil/workspace/arm/lm3s811/TI_Stellaris/driverlib/i2c.c **** //!
1421:/home/cuil/workspace/arm/lm3s811/TI_Stellaris/driverlib/i2c.c **** //! \param ulBase is the base address of the I2C Slave module.
1422:/home/cuil/workspace/arm/lm3s811/TI_Stellaris/driverlib/i2c.c **** //! \param bACK chooses whether to ACK (true) or NACK (false) the transfer.
1423:/home/cuil/workspace/arm/lm3s811/TI_Stellaris/driverlib/i2c.c **** //!
1424:/home/cuil/workspace/arm/lm3s811/TI_Stellaris/driverlib/i2c.c **** //! This function puts the desired ACK value on SDA during the ACK cycle.  The
1425:/home/cuil/workspace/arm/lm3s811/TI_Stellaris/driverlib/i2c.c **** //! value written is only valid when ACK override is enabled using
1426:/home/cuil/workspace/arm/lm3s811/TI_Stellaris/driverlib/i2c.c **** //! I2CSlaveACKOverride().
1427:/home/cuil/workspace/arm/lm3s811/TI_Stellaris/driverlib/i2c.c **** //!
1428:/home/cuil/workspace/arm/lm3s811/TI_Stellaris/driverlib/i2c.c **** //! \return None.
1429:/home/cuil/workspace/arm/lm3s811/TI_Stellaris/driverlib/i2c.c **** //
1430:/home/cuil/workspace/arm/lm3s811/TI_Stellaris/driverlib/i2c.c **** //*****************************************************************************
1431:/home/cuil/workspace/arm/lm3s811/TI_Stellaris/driverlib/i2c.c **** void
1432:/home/cuil/workspace/arm/lm3s811/TI_Stellaris/driverlib/i2c.c **** I2CSlaveACKValueSet(unsigned long ulBase, tBoolean bACK)
1433:/home/cuil/workspace/arm/lm3s811/TI_Stellaris/driverlib/i2c.c **** {
 10983              		.loc 1 1433 0
 10984              		.cfi_startproc
 10985              		@ args = 0, pretend = 0, frame = 8
 10986              		@ frame_needed = 1, uses_anonymous_args = 0
 10987              		@ link register save eliminated.
 10988 0000 80B4     		push	{r7}
 10989              	.LCFI108:
 10990              		.cfi_def_cfa_offset 4
 10991 0002 83B0     		sub	sp, sp, #12
 10992              	.LCFI109:
 10993              		.cfi_def_cfa_offset 16
 10994 0004 00AF     		add	r7, sp, #0
 10995              		.cfi_offset 7, -4
 10996              	.LCFI110:
 10997              		.cfi_def_cfa_register 7
 10998 0006 7860     		str	r0, [r7, #4]
 10999 0008 0B46     		mov	r3, r1
 11000 000a FB70     		strb	r3, [r7, #3]
1434:/home/cuil/workspace/arm/lm3s811/TI_Stellaris/driverlib/i2c.c ****     //
1435:/home/cuil/workspace/arm/lm3s811/TI_Stellaris/driverlib/i2c.c ****     // Check the arguments.
1436:/home/cuil/workspace/arm/lm3s811/TI_Stellaris/driverlib/i2c.c ****     //
1437:/home/cuil/workspace/arm/lm3s811/TI_Stellaris/driverlib/i2c.c ****     ASSERT(I2CSlaveBaseValid(ulBase));
1438:/home/cuil/workspace/arm/lm3s811/TI_Stellaris/driverlib/i2c.c **** 
1439:/home/cuil/workspace/arm/lm3s811/TI_Stellaris/driverlib/i2c.c ****     //
1440:/home/cuil/workspace/arm/lm3s811/TI_Stellaris/driverlib/i2c.c ****     // ACK or NACK based on the value of bACK.
1441:/home/cuil/workspace/arm/lm3s811/TI_Stellaris/driverlib/i2c.c ****     //
1442:/home/cuil/workspace/arm/lm3s811/TI_Stellaris/driverlib/i2c.c ****     if(bACK)
 11001              		.loc 1 1442 0
 11002 000c FB78     		ldrb	r3, [r7, #3]	@ zero_extendqisi2
 11003 000e 002B     		cmp	r3, #0
 11004 0010 0AD0     		beq	.L71
1443:/home/cuil/workspace/arm/lm3s811/TI_Stellaris/driverlib/i2c.c ****     {
1444:/home/cuil/workspace/arm/lm3s811/TI_Stellaris/driverlib/i2c.c ****         HWREG(ulBase + I2C_O_SACKCTL) &= ~I2C_SACKCTL_ACKOVAL;
 11005              		.loc 1 1444 0
 11006 0012 7B68     		ldr	r3, [r7, #4]
 11007 0014 03F12003 		add	r3, r3, #32
 11008 0018 7A68     		ldr	r2, [r7, #4]
 11009 001a 02F12002 		add	r2, r2, #32
 11010 001e 1268     		ldr	r2, [r2, #0]
 11011 0020 22F00202 		bic	r2, r2, #2
 11012 0024 1A60     		str	r2, [r3, #0]
 11013 0026 09E0     		b	.L70
 11014              	.L71:
1445:/home/cuil/workspace/arm/lm3s811/TI_Stellaris/driverlib/i2c.c ****     }
1446:/home/cuil/workspace/arm/lm3s811/TI_Stellaris/driverlib/i2c.c ****     else
1447:/home/cuil/workspace/arm/lm3s811/TI_Stellaris/driverlib/i2c.c ****     {
1448:/home/cuil/workspace/arm/lm3s811/TI_Stellaris/driverlib/i2c.c ****         HWREG(ulBase + I2C_O_SACKCTL) |= I2C_SACKCTL_ACKOVAL;
 11015              		.loc 1 1448 0
 11016 0028 7B68     		ldr	r3, [r7, #4]
 11017 002a 03F12003 		add	r3, r3, #32
 11018 002e 7A68     		ldr	r2, [r7, #4]
 11019 0030 02F12002 		add	r2, r2, #32
 11020 0034 1268     		ldr	r2, [r2, #0]
 11021 0036 42F00202 		orr	r2, r2, #2
 11022 003a 1A60     		str	r2, [r3, #0]
 11023              	.L70:
1449:/home/cuil/workspace/arm/lm3s811/TI_Stellaris/driverlib/i2c.c ****     }
1450:/home/cuil/workspace/arm/lm3s811/TI_Stellaris/driverlib/i2c.c **** }
 11024              		.loc 1 1450 0
 11025 003c 07F10C07 		add	r7, r7, #12
 11026 0040 BD46     		mov	sp, r7
 11027 0042 80BC     		pop	{r7}
 11028 0044 7047     		bx	lr
 11029              		.cfi_endproc
 11030              	.LFE36:
 11032 0046 00BF     		.section	.text.I2CSlaveStatus,"ax",%progbits
 11033              		.align	2
 11034              		.global	I2CSlaveStatus
 11035              		.thumb
 11036              		.thumb_func
 11038              	I2CSlaveStatus:
 11039              	.LFB37:
1451:/home/cuil/workspace/arm/lm3s811/TI_Stellaris/driverlib/i2c.c **** 
1452:/home/cuil/workspace/arm/lm3s811/TI_Stellaris/driverlib/i2c.c **** //*****************************************************************************
1453:/home/cuil/workspace/arm/lm3s811/TI_Stellaris/driverlib/i2c.c **** //
1454:/home/cuil/workspace/arm/lm3s811/TI_Stellaris/driverlib/i2c.c **** //! Gets the I2C Slave module status
1455:/home/cuil/workspace/arm/lm3s811/TI_Stellaris/driverlib/i2c.c **** //!
1456:/home/cuil/workspace/arm/lm3s811/TI_Stellaris/driverlib/i2c.c **** //! \param ulBase is the base address of the I2C Slave module.
1457:/home/cuil/workspace/arm/lm3s811/TI_Stellaris/driverlib/i2c.c **** //!
1458:/home/cuil/workspace/arm/lm3s811/TI_Stellaris/driverlib/i2c.c **** //! This function returns the action requested from a master, if any.
1459:/home/cuil/workspace/arm/lm3s811/TI_Stellaris/driverlib/i2c.c **** //! Possible values are:
1460:/home/cuil/workspace/arm/lm3s811/TI_Stellaris/driverlib/i2c.c **** //!
1461:/home/cuil/workspace/arm/lm3s811/TI_Stellaris/driverlib/i2c.c **** //! - \b I2C_SLAVE_ACT_NONE
1462:/home/cuil/workspace/arm/lm3s811/TI_Stellaris/driverlib/i2c.c **** //! - \b I2C_SLAVE_ACT_RREQ
1463:/home/cuil/workspace/arm/lm3s811/TI_Stellaris/driverlib/i2c.c **** //! - \b I2C_SLAVE_ACT_TREQ
1464:/home/cuil/workspace/arm/lm3s811/TI_Stellaris/driverlib/i2c.c **** //! - \b I2C_SLAVE_ACT_RREQ_FBR
1465:/home/cuil/workspace/arm/lm3s811/TI_Stellaris/driverlib/i2c.c **** //! - \b I2C_SLAVE_ACT_OWN2SEL
1466:/home/cuil/workspace/arm/lm3s811/TI_Stellaris/driverlib/i2c.c **** //! - \b I2C_SLAVE_ACT_QCMD
1467:/home/cuil/workspace/arm/lm3s811/TI_Stellaris/driverlib/i2c.c **** //! - \b I2C_SLAVE_ACT_QCMD_DATA
1468:/home/cuil/workspace/arm/lm3s811/TI_Stellaris/driverlib/i2c.c **** //!
1469:/home/cuil/workspace/arm/lm3s811/TI_Stellaris/driverlib/i2c.c **** //! \return Returns \b I2C_SLAVE_ACT_NONE to indicate that no action has been
1470:/home/cuil/workspace/arm/lm3s811/TI_Stellaris/driverlib/i2c.c **** //! requested of the I2C Slave module, \b I2C_SLAVE_ACT_RREQ to indicate that
1471:/home/cuil/workspace/arm/lm3s811/TI_Stellaris/driverlib/i2c.c **** //! an I2C master has sent data to the I2C Slave module, \b I2C_SLAVE_ACT_TREQ
1472:/home/cuil/workspace/arm/lm3s811/TI_Stellaris/driverlib/i2c.c **** //! to indicate that an I2C master has requested that the I2C Slave module send
1473:/home/cuil/workspace/arm/lm3s811/TI_Stellaris/driverlib/i2c.c **** //! data, \b I2C_SLAVE_ACT_RREQ_FBR to indicate that an I2C master has sent
1474:/home/cuil/workspace/arm/lm3s811/TI_Stellaris/driverlib/i2c.c **** //! data to the I2C slave and the first byte following the slave's own address
1475:/home/cuil/workspace/arm/lm3s811/TI_Stellaris/driverlib/i2c.c **** //! has been received, \b I2C_SLAVE_ACT_OWN2SEL to indicate that the second I2C
1476:/home/cuil/workspace/arm/lm3s811/TI_Stellaris/driverlib/i2c.c **** //! slave address was matched, \b I2C_SLAVE_ACT_QCMD to indicate that a quick
1477:/home/cuil/workspace/arm/lm3s811/TI_Stellaris/driverlib/i2c.c **** //! command was received, and \b I2C_SLAVE_ACT_QCMD_DATA to indicate that the
1478:/home/cuil/workspace/arm/lm3s811/TI_Stellaris/driverlib/i2c.c **** //! data bit was set when the quick command was received.
1479:/home/cuil/workspace/arm/lm3s811/TI_Stellaris/driverlib/i2c.c **** //!
1480:/home/cuil/workspace/arm/lm3s811/TI_Stellaris/driverlib/i2c.c **** //! \note Not all Stellaris devices support the second I2C slave's own address
1481:/home/cuil/workspace/arm/lm3s811/TI_Stellaris/driverlib/i2c.c **** //! or the quick command function.  Please consult the device data sheet to
1482:/home/cuil/workspace/arm/lm3s811/TI_Stellaris/driverlib/i2c.c **** //! know if these features are supported.
1483:/home/cuil/workspace/arm/lm3s811/TI_Stellaris/driverlib/i2c.c **** //
1484:/home/cuil/workspace/arm/lm3s811/TI_Stellaris/driverlib/i2c.c **** //*****************************************************************************
1485:/home/cuil/workspace/arm/lm3s811/TI_Stellaris/driverlib/i2c.c **** unsigned long
1486:/home/cuil/workspace/arm/lm3s811/TI_Stellaris/driverlib/i2c.c **** I2CSlaveStatus(unsigned long ulBase)
1487:/home/cuil/workspace/arm/lm3s811/TI_Stellaris/driverlib/i2c.c **** {
 11040              		.loc 1 1487 0
 11041              		.cfi_startproc
 11042              		@ args = 0, pretend = 0, frame = 8
 11043              		@ frame_needed = 1, uses_anonymous_args = 0
 11044              		@ link register save eliminated.
 11045 0000 80B4     		push	{r7}
 11046              	.LCFI111:
 11047              		.cfi_def_cfa_offset 4
 11048 0002 83B0     		sub	sp, sp, #12
 11049              	.LCFI112:
 11050              		.cfi_def_cfa_offset 16
 11051 0004 00AF     		add	r7, sp, #0
 11052              		.cfi_offset 7, -4
 11053              	.LCFI113:
 11054              		.cfi_def_cfa_register 7
 11055 0006 7860     		str	r0, [r7, #4]
1488:/home/cuil/workspace/arm/lm3s811/TI_Stellaris/driverlib/i2c.c ****     //
1489:/home/cuil/workspace/arm/lm3s811/TI_Stellaris/driverlib/i2c.c ****     // Check the arguments.
1490:/home/cuil/workspace/arm/lm3s811/TI_Stellaris/driverlib/i2c.c ****     //
1491:/home/cuil/workspace/arm/lm3s811/TI_Stellaris/driverlib/i2c.c ****     ASSERT(I2CSlaveBaseValid(ulBase));
1492:/home/cuil/workspace/arm/lm3s811/TI_Stellaris/driverlib/i2c.c **** 
1493:/home/cuil/workspace/arm/lm3s811/TI_Stellaris/driverlib/i2c.c ****     //
1494:/home/cuil/workspace/arm/lm3s811/TI_Stellaris/driverlib/i2c.c ****     // Return the slave status.
1495:/home/cuil/workspace/arm/lm3s811/TI_Stellaris/driverlib/i2c.c ****     //
1496:/home/cuil/workspace/arm/lm3s811/TI_Stellaris/driverlib/i2c.c ****     return(HWREG(ulBase + I2C_O_SCSR));
 11056              		.loc 1 1496 0
 11057 0008 7B68     		ldr	r3, [r7, #4]
 11058 000a 03F10403 		add	r3, r3, #4
 11059 000e 1B68     		ldr	r3, [r3, #0]
1497:/home/cuil/workspace/arm/lm3s811/TI_Stellaris/driverlib/i2c.c **** }
 11060              		.loc 1 1497 0
 11061 0010 1846     		mov	r0, r3
 11062 0012 07F10C07 		add	r7, r7, #12
 11063 0016 BD46     		mov	sp, r7
 11064 0018 80BC     		pop	{r7}
 11065 001a 7047     		bx	lr
 11066              		.cfi_endproc
 11067              	.LFE37:
 11069              		.section	.text.I2CSlaveDataPut,"ax",%progbits
 11070              		.align	2
 11071              		.global	I2CSlaveDataPut
 11072              		.thumb
 11073              		.thumb_func
 11075              	I2CSlaveDataPut:
 11076              	.LFB38:
1498:/home/cuil/workspace/arm/lm3s811/TI_Stellaris/driverlib/i2c.c **** 
1499:/home/cuil/workspace/arm/lm3s811/TI_Stellaris/driverlib/i2c.c **** //*****************************************************************************
1500:/home/cuil/workspace/arm/lm3s811/TI_Stellaris/driverlib/i2c.c **** //
1501:/home/cuil/workspace/arm/lm3s811/TI_Stellaris/driverlib/i2c.c **** //! Transmits a byte from the I2C Slave.
1502:/home/cuil/workspace/arm/lm3s811/TI_Stellaris/driverlib/i2c.c **** //!
1503:/home/cuil/workspace/arm/lm3s811/TI_Stellaris/driverlib/i2c.c **** //! \param ulBase is the base address of the I2C Slave module.
1504:/home/cuil/workspace/arm/lm3s811/TI_Stellaris/driverlib/i2c.c **** //! \param ucData data to be transmitted from the I2C Slave
1505:/home/cuil/workspace/arm/lm3s811/TI_Stellaris/driverlib/i2c.c **** //!
1506:/home/cuil/workspace/arm/lm3s811/TI_Stellaris/driverlib/i2c.c **** //! This function places the supplied data into I2C Slave Data Register.
1507:/home/cuil/workspace/arm/lm3s811/TI_Stellaris/driverlib/i2c.c **** //!
1508:/home/cuil/workspace/arm/lm3s811/TI_Stellaris/driverlib/i2c.c **** //! \return None.
1509:/home/cuil/workspace/arm/lm3s811/TI_Stellaris/driverlib/i2c.c **** //
1510:/home/cuil/workspace/arm/lm3s811/TI_Stellaris/driverlib/i2c.c **** //*****************************************************************************
1511:/home/cuil/workspace/arm/lm3s811/TI_Stellaris/driverlib/i2c.c **** void
1512:/home/cuil/workspace/arm/lm3s811/TI_Stellaris/driverlib/i2c.c **** I2CSlaveDataPut(unsigned long ulBase, unsigned char ucData)
1513:/home/cuil/workspace/arm/lm3s811/TI_Stellaris/driverlib/i2c.c **** {
 11077              		.loc 1 1513 0
 11078              		.cfi_startproc
 11079              		@ args = 0, pretend = 0, frame = 8
 11080              		@ frame_needed = 1, uses_anonymous_args = 0
 11081              		@ link register save eliminated.
 11082 0000 80B4     		push	{r7}
 11083              	.LCFI114:
 11084              		.cfi_def_cfa_offset 4
 11085 0002 83B0     		sub	sp, sp, #12
 11086              	.LCFI115:
 11087              		.cfi_def_cfa_offset 16
 11088 0004 00AF     		add	r7, sp, #0
 11089              		.cfi_offset 7, -4
 11090              	.LCFI116:
 11091              		.cfi_def_cfa_register 7
 11092 0006 7860     		str	r0, [r7, #4]
 11093 0008 0B46     		mov	r3, r1
 11094 000a FB70     		strb	r3, [r7, #3]
1514:/home/cuil/workspace/arm/lm3s811/TI_Stellaris/driverlib/i2c.c ****     //
1515:/home/cuil/workspace/arm/lm3s811/TI_Stellaris/driverlib/i2c.c ****     // Check the arguments.
1516:/home/cuil/workspace/arm/lm3s811/TI_Stellaris/driverlib/i2c.c ****     //
1517:/home/cuil/workspace/arm/lm3s811/TI_Stellaris/driverlib/i2c.c ****     ASSERT(I2CSlaveBaseValid(ulBase));
1518:/home/cuil/workspace/arm/lm3s811/TI_Stellaris/driverlib/i2c.c **** 
1519:/home/cuil/workspace/arm/lm3s811/TI_Stellaris/driverlib/i2c.c ****     //
1520:/home/cuil/workspace/arm/lm3s811/TI_Stellaris/driverlib/i2c.c ****     // Write the byte.
1521:/home/cuil/workspace/arm/lm3s811/TI_Stellaris/driverlib/i2c.c ****     //
1522:/home/cuil/workspace/arm/lm3s811/TI_Stellaris/driverlib/i2c.c ****     HWREG(ulBase + I2C_O_SDR) = ucData;
 11095              		.loc 1 1522 0
 11096 000c 7B68     		ldr	r3, [r7, #4]
 11097 000e 03F10803 		add	r3, r3, #8
 11098 0012 FA78     		ldrb	r2, [r7, #3]	@ zero_extendqisi2
 11099 0014 1A60     		str	r2, [r3, #0]
1523:/home/cuil/workspace/arm/lm3s811/TI_Stellaris/driverlib/i2c.c **** }
 11100              		.loc 1 1523 0
 11101 0016 07F10C07 		add	r7, r7, #12
 11102 001a BD46     		mov	sp, r7
 11103 001c 80BC     		pop	{r7}
 11104 001e 7047     		bx	lr
 11105              		.cfi_endproc
 11106              	.LFE38:
 11108              		.section	.text.I2CSlaveDataGet,"ax",%progbits
 11109              		.align	2
 11110              		.global	I2CSlaveDataGet
 11111              		.thumb
 11112              		.thumb_func
 11114              	I2CSlaveDataGet:
 11115              	.LFB39:
1524:/home/cuil/workspace/arm/lm3s811/TI_Stellaris/driverlib/i2c.c **** 
1525:/home/cuil/workspace/arm/lm3s811/TI_Stellaris/driverlib/i2c.c **** //*****************************************************************************
1526:/home/cuil/workspace/arm/lm3s811/TI_Stellaris/driverlib/i2c.c **** //
1527:/home/cuil/workspace/arm/lm3s811/TI_Stellaris/driverlib/i2c.c **** //! Receives a byte that has been sent to the I2C Slave.
1528:/home/cuil/workspace/arm/lm3s811/TI_Stellaris/driverlib/i2c.c **** //!
1529:/home/cuil/workspace/arm/lm3s811/TI_Stellaris/driverlib/i2c.c **** //! \param ulBase is the base address of the I2C Slave module.
1530:/home/cuil/workspace/arm/lm3s811/TI_Stellaris/driverlib/i2c.c **** //!
1531:/home/cuil/workspace/arm/lm3s811/TI_Stellaris/driverlib/i2c.c **** //! This function reads a byte of data from the I2C Slave Data Register.
1532:/home/cuil/workspace/arm/lm3s811/TI_Stellaris/driverlib/i2c.c **** //!
1533:/home/cuil/workspace/arm/lm3s811/TI_Stellaris/driverlib/i2c.c **** //! \return Returns the byte received from by the I2C Slave, cast as an
1534:/home/cuil/workspace/arm/lm3s811/TI_Stellaris/driverlib/i2c.c **** //! unsigned long.
1535:/home/cuil/workspace/arm/lm3s811/TI_Stellaris/driverlib/i2c.c **** //
1536:/home/cuil/workspace/arm/lm3s811/TI_Stellaris/driverlib/i2c.c **** //*****************************************************************************
1537:/home/cuil/workspace/arm/lm3s811/TI_Stellaris/driverlib/i2c.c **** unsigned long
1538:/home/cuil/workspace/arm/lm3s811/TI_Stellaris/driverlib/i2c.c **** I2CSlaveDataGet(unsigned long ulBase)
1539:/home/cuil/workspace/arm/lm3s811/TI_Stellaris/driverlib/i2c.c **** {
 11116              		.loc 1 1539 0
 11117              		.cfi_startproc
 11118              		@ args = 0, pretend = 0, frame = 8
 11119              		@ frame_needed = 1, uses_anonymous_args = 0
 11120              		@ link register save eliminated.
 11121 0000 80B4     		push	{r7}
 11122              	.LCFI117:
 11123              		.cfi_def_cfa_offset 4
 11124 0002 83B0     		sub	sp, sp, #12
 11125              	.LCFI118:
 11126              		.cfi_def_cfa_offset 16
 11127 0004 00AF     		add	r7, sp, #0
 11128              		.cfi_offset 7, -4
 11129              	.LCFI119:
 11130              		.cfi_def_cfa_register 7
 11131 0006 7860     		str	r0, [r7, #4]
1540:/home/cuil/workspace/arm/lm3s811/TI_Stellaris/driverlib/i2c.c ****     //
1541:/home/cuil/workspace/arm/lm3s811/TI_Stellaris/driverlib/i2c.c ****     // Check the arguments.
1542:/home/cuil/workspace/arm/lm3s811/TI_Stellaris/driverlib/i2c.c ****     //
1543:/home/cuil/workspace/arm/lm3s811/TI_Stellaris/driverlib/i2c.c ****     ASSERT(I2CSlaveBaseValid(ulBase));
1544:/home/cuil/workspace/arm/lm3s811/TI_Stellaris/driverlib/i2c.c **** 
1545:/home/cuil/workspace/arm/lm3s811/TI_Stellaris/driverlib/i2c.c ****     //
1546:/home/cuil/workspace/arm/lm3s811/TI_Stellaris/driverlib/i2c.c ****     // Read a byte.
1547:/home/cuil/workspace/arm/lm3s811/TI_Stellaris/driverlib/i2c.c ****     //
1548:/home/cuil/workspace/arm/lm3s811/TI_Stellaris/driverlib/i2c.c ****     return(HWREG(ulBase + I2C_O_SDR));
 11132              		.loc 1 1548 0
 11133 0008 7B68     		ldr	r3, [r7, #4]
 11134 000a 03F10803 		add	r3, r3, #8
 11135 000e 1B68     		ldr	r3, [r3, #0]
1549:/home/cuil/workspace/arm/lm3s811/TI_Stellaris/driverlib/i2c.c **** }
 11136              		.loc 1 1549 0
 11137 0010 1846     		mov	r0, r3
 11138 0012 07F10C07 		add	r7, r7, #12
 11139 0016 BD46     		mov	sp, r7
 11140 0018 80BC     		pop	{r7}
 11141 001a 7047     		bx	lr
 11142              		.cfi_endproc
 11143              	.LFE39:
 11145              		.text
 11146              	.Letext0: