   1              		.syntax unified
   2              		.cpu cortex-m3
   3              		.fpu softvfp
   4              		.eabi_attribute 20, 1
   5              		.eabi_attribute 21, 1
   6              		.eabi_attribute 23, 3
   7              		.eabi_attribute 24, 1
   8              		.eabi_attribute 25, 1
   9              		.eabi_attribute 26, 1
  10              		.eabi_attribute 30, 6
  11              		.eabi_attribute 18, 4
  12              		.thumb
  13              		.file	"lpc.c"
  23              	.Ltext0:
  24              		.file 1 "/home/cuil/workspace/arm/lm3s811/TI_Stellaris/driverlib/lpc.c"
 9811              		.align	2
 9812              		.global	LPCConfigSet
 9813              		.thumb
 9814              		.thumb_func
 9816              	LPCConfigSet:
 9817              	.LFB0:
   1:/home/cuil/workspace/arm/lm3s811/TI_Stellaris/driverlib/lpc.c **** //*****************************************************************************
   2:/home/cuil/workspace/arm/lm3s811/TI_Stellaris/driverlib/lpc.c **** //
   3:/home/cuil/workspace/arm/lm3s811/TI_Stellaris/driverlib/lpc.c **** // lpc.c - Driver for the Low Pin Count (LPC) module.
   4:/home/cuil/workspace/arm/lm3s811/TI_Stellaris/driverlib/lpc.c **** //
   5:/home/cuil/workspace/arm/lm3s811/TI_Stellaris/driverlib/lpc.c **** // Copyright (c) 2010-2011 Texas Instruments Incorporated.  All rights reserved.
   6:/home/cuil/workspace/arm/lm3s811/TI_Stellaris/driverlib/lpc.c **** // Software License Agreement
   7:/home/cuil/workspace/arm/lm3s811/TI_Stellaris/driverlib/lpc.c **** // 
   8:/home/cuil/workspace/arm/lm3s811/TI_Stellaris/driverlib/lpc.c **** // Texas Instruments (TI) is supplying this software for use solely and
   9:/home/cuil/workspace/arm/lm3s811/TI_Stellaris/driverlib/lpc.c **** // exclusively on TI's microcontroller products. The software is owned by
  10:/home/cuil/workspace/arm/lm3s811/TI_Stellaris/driverlib/lpc.c **** // TI and/or its suppliers, and is protected under applicable copyright
  11:/home/cuil/workspace/arm/lm3s811/TI_Stellaris/driverlib/lpc.c **** // laws. You may not combine this software with "viral" open-source
  12:/home/cuil/workspace/arm/lm3s811/TI_Stellaris/driverlib/lpc.c **** // software in order to form a larger program.
  13:/home/cuil/workspace/arm/lm3s811/TI_Stellaris/driverlib/lpc.c **** // 
  14:/home/cuil/workspace/arm/lm3s811/TI_Stellaris/driverlib/lpc.c **** // THIS SOFTWARE IS PROVIDED "AS IS" AND WITH ALL FAULTS.
  15:/home/cuil/workspace/arm/lm3s811/TI_Stellaris/driverlib/lpc.c **** // NO WARRANTIES, WHETHER EXPRESS, IMPLIED OR STATUTORY, INCLUDING, BUT
  16:/home/cuil/workspace/arm/lm3s811/TI_Stellaris/driverlib/lpc.c **** // NOT LIMITED TO, IMPLIED WARRANTIES OF MERCHANTABILITY AND FITNESS FOR
  17:/home/cuil/workspace/arm/lm3s811/TI_Stellaris/driverlib/lpc.c **** // A PARTICULAR PURPOSE APPLY TO THIS SOFTWARE. TI SHALL NOT, UNDER ANY
  18:/home/cuil/workspace/arm/lm3s811/TI_Stellaris/driverlib/lpc.c **** // CIRCUMSTANCES, BE LIABLE FOR SPECIAL, INCIDENTAL, OR CONSEQUENTIAL
  19:/home/cuil/workspace/arm/lm3s811/TI_Stellaris/driverlib/lpc.c **** // DAMAGES, FOR ANY REASON WHATSOEVER.
  20:/home/cuil/workspace/arm/lm3s811/TI_Stellaris/driverlib/lpc.c **** // 
  21:/home/cuil/workspace/arm/lm3s811/TI_Stellaris/driverlib/lpc.c **** // This is part of revision 8264 of the Stellaris Peripheral Driver Library.
  22:/home/cuil/workspace/arm/lm3s811/TI_Stellaris/driverlib/lpc.c **** //
  23:/home/cuil/workspace/arm/lm3s811/TI_Stellaris/driverlib/lpc.c **** //*****************************************************************************
  24:/home/cuil/workspace/arm/lm3s811/TI_Stellaris/driverlib/lpc.c **** 
  25:/home/cuil/workspace/arm/lm3s811/TI_Stellaris/driverlib/lpc.c **** //*****************************************************************************
  26:/home/cuil/workspace/arm/lm3s811/TI_Stellaris/driverlib/lpc.c **** //
  27:/home/cuil/workspace/arm/lm3s811/TI_Stellaris/driverlib/lpc.c **** //! \addtogroup lpc_api
  28:/home/cuil/workspace/arm/lm3s811/TI_Stellaris/driverlib/lpc.c **** //! @{
  29:/home/cuil/workspace/arm/lm3s811/TI_Stellaris/driverlib/lpc.c **** //
  30:/home/cuil/workspace/arm/lm3s811/TI_Stellaris/driverlib/lpc.c **** //*****************************************************************************
  31:/home/cuil/workspace/arm/lm3s811/TI_Stellaris/driverlib/lpc.c **** 
  32:/home/cuil/workspace/arm/lm3s811/TI_Stellaris/driverlib/lpc.c **** #include "inc/hw_ints.h"
  33:/home/cuil/workspace/arm/lm3s811/TI_Stellaris/driverlib/lpc.c **** #include "inc/hw_memmap.h"
  34:/home/cuil/workspace/arm/lm3s811/TI_Stellaris/driverlib/lpc.c **** #include "inc/hw_lpc.h"
  35:/home/cuil/workspace/arm/lm3s811/TI_Stellaris/driverlib/lpc.c **** #include "inc/hw_sysctl.h"
  36:/home/cuil/workspace/arm/lm3s811/TI_Stellaris/driverlib/lpc.c **** #include "inc/hw_types.h"
  37:/home/cuil/workspace/arm/lm3s811/TI_Stellaris/driverlib/lpc.c **** #include "driverlib/debug.h"
  38:/home/cuil/workspace/arm/lm3s811/TI_Stellaris/driverlib/lpc.c **** #include "driverlib/interrupt.h"
  39:/home/cuil/workspace/arm/lm3s811/TI_Stellaris/driverlib/lpc.c **** #include "driverlib/lpc.h"
  40:/home/cuil/workspace/arm/lm3s811/TI_Stellaris/driverlib/lpc.c **** 
  41:/home/cuil/workspace/arm/lm3s811/TI_Stellaris/driverlib/lpc.c **** //*****************************************************************************
  42:/home/cuil/workspace/arm/lm3s811/TI_Stellaris/driverlib/lpc.c **** //
  43:/home/cuil/workspace/arm/lm3s811/TI_Stellaris/driverlib/lpc.c **** //! \internal
  44:/home/cuil/workspace/arm/lm3s811/TI_Stellaris/driverlib/lpc.c **** //! Checks an LPC Channel.
  45:/home/cuil/workspace/arm/lm3s811/TI_Stellaris/driverlib/lpc.c **** //!
  46:/home/cuil/workspace/arm/lm3s811/TI_Stellaris/driverlib/lpc.c **** //! \param ulChannel is the LPC channel identifier.
  47:/home/cuil/workspace/arm/lm3s811/TI_Stellaris/driverlib/lpc.c **** //!
  48:/home/cuil/workspace/arm/lm3s811/TI_Stellaris/driverlib/lpc.c **** //! This function determines if a channel identifier is valid.  This function
  49:/home/cuil/workspace/arm/lm3s811/TI_Stellaris/driverlib/lpc.c **** //! does not check for Channel 7 (COMx).
  50:/home/cuil/workspace/arm/lm3s811/TI_Stellaris/driverlib/lpc.c **** //!
  51:/home/cuil/workspace/arm/lm3s811/TI_Stellaris/driverlib/lpc.c **** //! \return Returns \b true if the channel identifier is valid and \b false
  52:/home/cuil/workspace/arm/lm3s811/TI_Stellaris/driverlib/lpc.c **** //! otherwise.
  53:/home/cuil/workspace/arm/lm3s811/TI_Stellaris/driverlib/lpc.c **** //
  54:/home/cuil/workspace/arm/lm3s811/TI_Stellaris/driverlib/lpc.c **** //*****************************************************************************
  55:/home/cuil/workspace/arm/lm3s811/TI_Stellaris/driverlib/lpc.c **** #ifdef DEBUG
  56:/home/cuil/workspace/arm/lm3s811/TI_Stellaris/driverlib/lpc.c **** static tBoolean
  57:/home/cuil/workspace/arm/lm3s811/TI_Stellaris/driverlib/lpc.c **** LPCChannelValid(unsigned long ulChannel)
  58:/home/cuil/workspace/arm/lm3s811/TI_Stellaris/driverlib/lpc.c **** {
  59:/home/cuil/workspace/arm/lm3s811/TI_Stellaris/driverlib/lpc.c ****     return((ulChannel == LPC_CHAN_CH0) ||
  60:/home/cuil/workspace/arm/lm3s811/TI_Stellaris/driverlib/lpc.c ****            (ulChannel == LPC_CHAN_CH1) ||
  61:/home/cuil/workspace/arm/lm3s811/TI_Stellaris/driverlib/lpc.c ****            (ulChannel == LPC_CHAN_CH2) ||
  62:/home/cuil/workspace/arm/lm3s811/TI_Stellaris/driverlib/lpc.c ****            (ulChannel == LPC_CHAN_CH3) ||
  63:/home/cuil/workspace/arm/lm3s811/TI_Stellaris/driverlib/lpc.c ****            (ulChannel == LPC_CHAN_CH4) ||
  64:/home/cuil/workspace/arm/lm3s811/TI_Stellaris/driverlib/lpc.c ****            (ulChannel == LPC_CHAN_CH5) ||
  65:/home/cuil/workspace/arm/lm3s811/TI_Stellaris/driverlib/lpc.c ****            (ulChannel == LPC_CHAN_CH6) ||
  66:/home/cuil/workspace/arm/lm3s811/TI_Stellaris/driverlib/lpc.c ****            (ulChannel == LPC_CHAN_CH7));
  67:/home/cuil/workspace/arm/lm3s811/TI_Stellaris/driverlib/lpc.c **** }
  68:/home/cuil/workspace/arm/lm3s811/TI_Stellaris/driverlib/lpc.c **** #endif // #ifdef DEBUG
  69:/home/cuil/workspace/arm/lm3s811/TI_Stellaris/driverlib/lpc.c **** 
  70:/home/cuil/workspace/arm/lm3s811/TI_Stellaris/driverlib/lpc.c **** //*****************************************************************************
  71:/home/cuil/workspace/arm/lm3s811/TI_Stellaris/driverlib/lpc.c **** //
  72:/home/cuil/workspace/arm/lm3s811/TI_Stellaris/driverlib/lpc.c **** //! Sets the configuration of the LPC module.
  73:/home/cuil/workspace/arm/lm3s811/TI_Stellaris/driverlib/lpc.c **** //!
  74:/home/cuil/workspace/arm/lm3s811/TI_Stellaris/driverlib/lpc.c **** //! \param ulBase is the base address of the LPC module.
  75:/home/cuil/workspace/arm/lm3s811/TI_Stellaris/driverlib/lpc.c **** //! \param ulConfig specifies the configuration of the LPC module.
  76:/home/cuil/workspace/arm/lm3s811/TI_Stellaris/driverlib/lpc.c **** //!
  77:/home/cuil/workspace/arm/lm3s811/TI_Stellaris/driverlib/lpc.c **** //! This function configures the LPC module for basic operation.  The
  78:/home/cuil/workspace/arm/lm3s811/TI_Stellaris/driverlib/lpc.c **** //! configuration of individual channels is handled in a separate function.
  79:/home/cuil/workspace/arm/lm3s811/TI_Stellaris/driverlib/lpc.c **** //!
  80:/home/cuil/workspace/arm/lm3s811/TI_Stellaris/driverlib/lpc.c **** //! The \e ulConfig parameter is the logical OR of the following values:
  81:/home/cuil/workspace/arm/lm3s811/TI_Stellaris/driverlib/lpc.c **** //! - \b LPC_CFG_WAKE - Force assertion of the LPC0CLKRUN signal when the
  82:/home/cuil/workspace/arm/lm3s811/TI_Stellaris/driverlib/lpc.c **** //! LPC bus is powered down (LPC0PD is asserted).
  83:/home/cuil/workspace/arm/lm3s811/TI_Stellaris/driverlib/lpc.c **** //!
  84:/home/cuil/workspace/arm/lm3s811/TI_Stellaris/driverlib/lpc.c **** //! \return None.
  85:/home/cuil/workspace/arm/lm3s811/TI_Stellaris/driverlib/lpc.c **** //
  86:/home/cuil/workspace/arm/lm3s811/TI_Stellaris/driverlib/lpc.c **** //*****************************************************************************
  87:/home/cuil/workspace/arm/lm3s811/TI_Stellaris/driverlib/lpc.c **** void
  88:/home/cuil/workspace/arm/lm3s811/TI_Stellaris/driverlib/lpc.c **** LPCConfigSet(unsigned long ulBase, unsigned long ulConfig)
  89:/home/cuil/workspace/arm/lm3s811/TI_Stellaris/driverlib/lpc.c **** {
 9818              		.loc 1 89 0
 9819              		.cfi_startproc
 9820              		@ args = 0, pretend = 0, frame = 16
 9821              		@ frame_needed = 1, uses_anonymous_args = 0
 9822              		@ link register save eliminated.
 9823 0000 80B4     		push	{r7}
 9824              	.LCFI0:
 9825              		.cfi_def_cfa_offset 4
 9826 0002 85B0     		sub	sp, sp, #20
 9827              	.LCFI1:
 9828              		.cfi_def_cfa_offset 24
 9829 0004 00AF     		add	r7, sp, #0
 9830              		.cfi_offset 7, -4
 9831              	.LCFI2:
 9832              		.cfi_def_cfa_register 7
 9833 0006 7860     		str	r0, [r7, #4]
 9834 0008 3960     		str	r1, [r7, #0]
  90:/home/cuil/workspace/arm/lm3s811/TI_Stellaris/driverlib/lpc.c ****     unsigned long ulTemp;
  91:/home/cuil/workspace/arm/lm3s811/TI_Stellaris/driverlib/lpc.c **** 
  92:/home/cuil/workspace/arm/lm3s811/TI_Stellaris/driverlib/lpc.c ****     //
  93:/home/cuil/workspace/arm/lm3s811/TI_Stellaris/driverlib/lpc.c ****     // Check the arguments.
  94:/home/cuil/workspace/arm/lm3s811/TI_Stellaris/driverlib/lpc.c ****     //
  95:/home/cuil/workspace/arm/lm3s811/TI_Stellaris/driverlib/lpc.c ****     ASSERT(ulBase == LPC0_BASE);
  96:/home/cuil/workspace/arm/lm3s811/TI_Stellaris/driverlib/lpc.c ****     ASSERT((ulConfig & ~(LPC_CFG_WAKE)) == 0);
  97:/home/cuil/workspace/arm/lm3s811/TI_Stellaris/driverlib/lpc.c **** 
  98:/home/cuil/workspace/arm/lm3s811/TI_Stellaris/driverlib/lpc.c ****     //
  99:/home/cuil/workspace/arm/lm3s811/TI_Stellaris/driverlib/lpc.c ****     // Configure the appropriate LPC Control Register fields.
 100:/home/cuil/workspace/arm/lm3s811/TI_Stellaris/driverlib/lpc.c ****     //
 101:/home/cuil/workspace/arm/lm3s811/TI_Stellaris/driverlib/lpc.c ****     ulTemp = HWREG(ulBase + LPC_O_CTL);
 9835              		.loc 1 101 0
 9836 000a 7B68     		ldr	r3, [r7, #4]
 9837 000c 1B68     		ldr	r3, [r3, #0]
 9838 000e FB60     		str	r3, [r7, #12]
 102:/home/cuil/workspace/arm/lm3s811/TI_Stellaris/driverlib/lpc.c ****     ulTemp &= ~LPC_CTL_WAKE;
 9839              		.loc 1 102 0
 9840 0010 FB68     		ldr	r3, [r7, #12]
 9841 0012 23F48073 		bic	r3, r3, #256
 9842 0016 FB60     		str	r3, [r7, #12]
 103:/home/cuil/workspace/arm/lm3s811/TI_Stellaris/driverlib/lpc.c ****     ulTemp |= (ulConfig & LPC_CTL_WAKE);
 9843              		.loc 1 103 0
 9844 0018 3B68     		ldr	r3, [r7, #0]
 9845 001a 03F48073 		and	r3, r3, #256
 9846 001e FA68     		ldr	r2, [r7, #12]
 9847 0020 42EA0303 		orr	r3, r2, r3
 9848 0024 FB60     		str	r3, [r7, #12]
 104:/home/cuil/workspace/arm/lm3s811/TI_Stellaris/driverlib/lpc.c ****     HWREG(ulBase + LPC_O_CTL) = ulTemp;
 9849              		.loc 1 104 0
 9850 0026 7B68     		ldr	r3, [r7, #4]
 9851 0028 FA68     		ldr	r2, [r7, #12]
 9852 002a 1A60     		str	r2, [r3, #0]
 105:/home/cuil/workspace/arm/lm3s811/TI_Stellaris/driverlib/lpc.c **** }
 9853              		.loc 1 105 0
 9854 002c 07F11407 		add	r7, r7, #20
 9855 0030 BD46     		mov	sp, r7
 9856 0032 80BC     		pop	{r7}
 9857 0034 7047     		bx	lr
 9858              		.cfi_endproc
 9859              	.LFE0:
 9861 0036 00BF     		.section	.text.LPCConfigGet,"ax",%progbits
 9862              		.align	2
 9863              		.global	LPCConfigGet
 9864              		.thumb
 9865              		.thumb_func
 9867              	LPCConfigGet:
 9868              	.LFB1:
 106:/home/cuil/workspace/arm/lm3s811/TI_Stellaris/driverlib/lpc.c **** 
 107:/home/cuil/workspace/arm/lm3s811/TI_Stellaris/driverlib/lpc.c **** //*****************************************************************************
 108:/home/cuil/workspace/arm/lm3s811/TI_Stellaris/driverlib/lpc.c **** //
 109:/home/cuil/workspace/arm/lm3s811/TI_Stellaris/driverlib/lpc.c **** //! Gets the current configuration of the LPC module.
 110:/home/cuil/workspace/arm/lm3s811/TI_Stellaris/driverlib/lpc.c **** //!
 111:/home/cuil/workspace/arm/lm3s811/TI_Stellaris/driverlib/lpc.c **** //! \param ulBase is the base address of the LPC module.
 112:/home/cuil/workspace/arm/lm3s811/TI_Stellaris/driverlib/lpc.c **** //!
 113:/home/cuil/workspace/arm/lm3s811/TI_Stellaris/driverlib/lpc.c **** //! This function queries the control register of the LPC module and returns
 114:/home/cuil/workspace/arm/lm3s811/TI_Stellaris/driverlib/lpc.c **** //! a bit-mapped value.
 115:/home/cuil/workspace/arm/lm3s811/TI_Stellaris/driverlib/lpc.c **** //!
 116:/home/cuil/workspace/arm/lm3s811/TI_Stellaris/driverlib/lpc.c **** //! \sa The description of the LPCConfigSet() function provides detailed
 117:/home/cuil/workspace/arm/lm3s811/TI_Stellaris/driverlib/lpc.c **** //! information for the bit-mapped configuration values that are returned.
 118:/home/cuil/workspace/arm/lm3s811/TI_Stellaris/driverlib/lpc.c **** //!
 119:/home/cuil/workspace/arm/lm3s811/TI_Stellaris/driverlib/lpc.c **** //! \return Returns the bit-mapped LPC module configration value.
 120:/home/cuil/workspace/arm/lm3s811/TI_Stellaris/driverlib/lpc.c **** //
 121:/home/cuil/workspace/arm/lm3s811/TI_Stellaris/driverlib/lpc.c **** //*****************************************************************************
 122:/home/cuil/workspace/arm/lm3s811/TI_Stellaris/driverlib/lpc.c **** unsigned long
 123:/home/cuil/workspace/arm/lm3s811/TI_Stellaris/driverlib/lpc.c **** LPCConfigGet(unsigned long ulBase)
 124:/home/cuil/workspace/arm/lm3s811/TI_Stellaris/driverlib/lpc.c **** {
 9869              		.loc 1 124 0
 9870              		.cfi_startproc
 9871              		@ args = 0, pretend = 0, frame = 8
 9872              		@ frame_needed = 1, uses_anonymous_args = 0
 9873              		@ link register save eliminated.
 9874 0000 80B4     		push	{r7}
 9875              	.LCFI3:
 9876              		.cfi_def_cfa_offset 4
 9877 0002 83B0     		sub	sp, sp, #12
 9878              	.LCFI4:
 9879              		.cfi_def_cfa_offset 16
 9880 0004 00AF     		add	r7, sp, #0
 9881              		.cfi_offset 7, -4
 9882              	.LCFI5:
 9883              		.cfi_def_cfa_register 7
 9884 0006 7860     		str	r0, [r7, #4]
 125:/home/cuil/workspace/arm/lm3s811/TI_Stellaris/driverlib/lpc.c ****     //
 126:/home/cuil/workspace/arm/lm3s811/TI_Stellaris/driverlib/lpc.c ****     // Check the arguments.
 127:/home/cuil/workspace/arm/lm3s811/TI_Stellaris/driverlib/lpc.c ****     //
 128:/home/cuil/workspace/arm/lm3s811/TI_Stellaris/driverlib/lpc.c ****     ASSERT(ulBase == LPC0_BASE);
 129:/home/cuil/workspace/arm/lm3s811/TI_Stellaris/driverlib/lpc.c **** 
 130:/home/cuil/workspace/arm/lm3s811/TI_Stellaris/driverlib/lpc.c ****     //
 131:/home/cuil/workspace/arm/lm3s811/TI_Stellaris/driverlib/lpc.c ****     // Return the configuration value
 132:/home/cuil/workspace/arm/lm3s811/TI_Stellaris/driverlib/lpc.c ****     //
 133:/home/cuil/workspace/arm/lm3s811/TI_Stellaris/driverlib/lpc.c ****     return((HWREG(ulBase + LPC_O_CTL) & LPC_CTL_WAKE));
 9885              		.loc 1 133 0
 9886 0008 7B68     		ldr	r3, [r7, #4]
 9887 000a 1B68     		ldr	r3, [r3, #0]
 9888 000c 03F48073 		and	r3, r3, #256
 134:/home/cuil/workspace/arm/lm3s811/TI_Stellaris/driverlib/lpc.c **** }
 9889              		.loc 1 134 0
 9890 0010 1846     		mov	r0, r3
 9891 0012 07F10C07 		add	r7, r7, #12
 9892 0016 BD46     		mov	sp, r7
 9893 0018 80BC     		pop	{r7}
 9894 001a 7047     		bx	lr
 9895              		.cfi_endproc
 9896              	.LFE1:
 9898              		.section	.text.LPCStatusBlockAddressSet,"ax",%progbits
 9899              		.align	2
 9900              		.global	LPCStatusBlockAddressSet
 9901              		.thumb
 9902              		.thumb_func
 9904              	LPCStatusBlockAddressSet:
 9905              	.LFB2:
 135:/home/cuil/workspace/arm/lm3s811/TI_Stellaris/driverlib/lpc.c **** 
 136:/home/cuil/workspace/arm/lm3s811/TI_Stellaris/driverlib/lpc.c **** //*****************************************************************************
 137:/home/cuil/workspace/arm/lm3s811/TI_Stellaris/driverlib/lpc.c **** //
 138:/home/cuil/workspace/arm/lm3s811/TI_Stellaris/driverlib/lpc.c **** //! Sets the Status Block Address for the LPC peripheral.
 139:/home/cuil/workspace/arm/lm3s811/TI_Stellaris/driverlib/lpc.c **** //!
 140:/home/cuil/workspace/arm/lm3s811/TI_Stellaris/driverlib/lpc.c **** //! \param ulBase is the base address of the LPC module.
 141:/home/cuil/workspace/arm/lm3s811/TI_Stellaris/driverlib/lpc.c **** //! \param ulAddress is the host address to use for the block status.
 142:/home/cuil/workspace/arm/lm3s811/TI_Stellaris/driverlib/lpc.c **** //! \param bEnabled indicates whether the block address feature should
 143:/home/cuil/workspace/arm/lm3s811/TI_Stellaris/driverlib/lpc.c **** //! be enabled.
 144:/home/cuil/workspace/arm/lm3s811/TI_Stellaris/driverlib/lpc.c **** //!
 145:/home/cuil/workspace/arm/lm3s811/TI_Stellaris/driverlib/lpc.c **** //! This function sets the LPC block address register and optionally enables
 146:/home/cuil/workspace/arm/lm3s811/TI_Stellaris/driverlib/lpc.c **** //! it.
 147:/home/cuil/workspace/arm/lm3s811/TI_Stellaris/driverlib/lpc.c **** //!
 148:/home/cuil/workspace/arm/lm3s811/TI_Stellaris/driverlib/lpc.c **** //! \return None.
 149:/home/cuil/workspace/arm/lm3s811/TI_Stellaris/driverlib/lpc.c **** //
 150:/home/cuil/workspace/arm/lm3s811/TI_Stellaris/driverlib/lpc.c **** //*****************************************************************************
 151:/home/cuil/workspace/arm/lm3s811/TI_Stellaris/driverlib/lpc.c **** void
 152:/home/cuil/workspace/arm/lm3s811/TI_Stellaris/driverlib/lpc.c **** LPCStatusBlockAddressSet(unsigned long ulBase, unsigned long ulAddress,
 153:/home/cuil/workspace/arm/lm3s811/TI_Stellaris/driverlib/lpc.c ****                          tBoolean bEnabled)
 154:/home/cuil/workspace/arm/lm3s811/TI_Stellaris/driverlib/lpc.c **** {
 9906              		.loc 1 154 0
 9907              		.cfi_startproc
 9908              		@ args = 0, pretend = 0, frame = 16
 9909              		@ frame_needed = 1, uses_anonymous_args = 0
 9910              		@ link register save eliminated.
 9911 0000 80B4     		push	{r7}
 9912              	.LCFI6:
 9913              		.cfi_def_cfa_offset 4
 9914 0002 85B0     		sub	sp, sp, #20
 9915              	.LCFI7:
 9916              		.cfi_def_cfa_offset 24
 9917 0004 00AF     		add	r7, sp, #0
 9918              		.cfi_offset 7, -4
 9919              	.LCFI8:
 9920              		.cfi_def_cfa_register 7
 9921 0006 F860     		str	r0, [r7, #12]
 9922 0008 B960     		str	r1, [r7, #8]
 9923 000a 1346     		mov	r3, r2
 9924 000c FB71     		strb	r3, [r7, #7]
 155:/home/cuil/workspace/arm/lm3s811/TI_Stellaris/driverlib/lpc.c ****     //
 156:/home/cuil/workspace/arm/lm3s811/TI_Stellaris/driverlib/lpc.c ****     // Check the arguments.
 157:/home/cuil/workspace/arm/lm3s811/TI_Stellaris/driverlib/lpc.c ****     //
 158:/home/cuil/workspace/arm/lm3s811/TI_Stellaris/driverlib/lpc.c ****     ASSERT(ulBase == LPC0_BASE);
 159:/home/cuil/workspace/arm/lm3s811/TI_Stellaris/driverlib/lpc.c ****     ASSERT((ulAddress & ~0xFFFFFFFE) == 0);
 160:/home/cuil/workspace/arm/lm3s811/TI_Stellaris/driverlib/lpc.c **** 
 161:/home/cuil/workspace/arm/lm3s811/TI_Stellaris/driverlib/lpc.c ****     //
 162:/home/cuil/workspace/arm/lm3s811/TI_Stellaris/driverlib/lpc.c ****     // Set (and optionally enable) the Status Block Address
 163:/home/cuil/workspace/arm/lm3s811/TI_Stellaris/driverlib/lpc.c ****     //
 164:/home/cuil/workspace/arm/lm3s811/TI_Stellaris/driverlib/lpc.c ****     HWREG(ulBase + LPC_O_STSADDR) = (ulAddress | (bEnabled ? 1 : 0));
 9925              		.loc 1 164 0
 9926 000e FB68     		ldr	r3, [r7, #12]
 9927 0010 03F1A003 		add	r3, r3, #160
 9928 0014 1A46     		mov	r2, r3
 9929 0016 FB79     		ldrb	r3, [r7, #7]	@ zero_extendqisi2
 9930 0018 002B     		cmp	r3, #0
 9931 001a 02D0     		beq	.L4
 9932              		.loc 1 164 0 is_stmt 0 discriminator 1
 9933 001c 4FF00103 		mov	r3, #1
 9934 0020 01E0     		b	.L5
 9935              	.L4:
 9936              		.loc 1 164 0 discriminator 2
 9937 0022 4FF00003 		mov	r3, #0
 9938              	.L5:
 9939              		.loc 1 164 0 discriminator 3
 9940 0026 B968     		ldr	r1, [r7, #8]
 9941 0028 0B43     		orrs	r3, r3, r1
 9942 002a 1360     		str	r3, [r2, #0]
 165:/home/cuil/workspace/arm/lm3s811/TI_Stellaris/driverlib/lpc.c **** }
 9943              		.loc 1 165 0 is_stmt 1 discriminator 3
 9944 002c 07F11407 		add	r7, r7, #20
 9945 0030 BD46     		mov	sp, r7
 9946 0032 80BC     		pop	{r7}
 9947 0034 7047     		bx	lr
 9948              		.cfi_endproc
 9949              	.LFE2:
 9951 0036 00BF     		.section	.text.LPCStatusBlockAddressGet,"ax",%progbits
 9952              		.align	2
 9953              		.global	LPCStatusBlockAddressGet
 9954              		.thumb
 9955              		.thumb_func
 9957              	LPCStatusBlockAddressGet:
 9958              	.LFB3:
 166:/home/cuil/workspace/arm/lm3s811/TI_Stellaris/driverlib/lpc.c **** 
 167:/home/cuil/workspace/arm/lm3s811/TI_Stellaris/driverlib/lpc.c **** //*****************************************************************************
 168:/home/cuil/workspace/arm/lm3s811/TI_Stellaris/driverlib/lpc.c **** //
 169:/home/cuil/workspace/arm/lm3s811/TI_Stellaris/driverlib/lpc.c **** //! Gets the Status Block Address for the LPC peripheral.
 170:/home/cuil/workspace/arm/lm3s811/TI_Stellaris/driverlib/lpc.c **** //!
 171:/home/cuil/workspace/arm/lm3s811/TI_Stellaris/driverlib/lpc.c **** //! \param ulBase is the base address of the LPC module.
 172:/home/cuil/workspace/arm/lm3s811/TI_Stellaris/driverlib/lpc.c **** //!
 173:/home/cuil/workspace/arm/lm3s811/TI_Stellaris/driverlib/lpc.c **** //! This function returns the LPC block address register.  The LSB is used
 174:/home/cuil/workspace/arm/lm3s811/TI_Stellaris/driverlib/lpc.c **** //! to indicate whether this feature has been enabled or not.
 175:/home/cuil/workspace/arm/lm3s811/TI_Stellaris/driverlib/lpc.c **** //!
 176:/home/cuil/workspace/arm/lm3s811/TI_Stellaris/driverlib/lpc.c **** //! \return None.
 177:/home/cuil/workspace/arm/lm3s811/TI_Stellaris/driverlib/lpc.c **** //
 178:/home/cuil/workspace/arm/lm3s811/TI_Stellaris/driverlib/lpc.c **** //*****************************************************************************
 179:/home/cuil/workspace/arm/lm3s811/TI_Stellaris/driverlib/lpc.c **** unsigned
 180:/home/cuil/workspace/arm/lm3s811/TI_Stellaris/driverlib/lpc.c **** LPCStatusBlockAddressGet(unsigned long ulBase)
 181:/home/cuil/workspace/arm/lm3s811/TI_Stellaris/driverlib/lpc.c **** {
 9959              		.loc 1 181 0
 9960              		.cfi_startproc
 9961              		@ args = 0, pretend = 0, frame = 8
 9962              		@ frame_needed = 1, uses_anonymous_args = 0
 9963              		@ link register save eliminated.
 9964 0000 80B4     		push	{r7}
 9965              	.LCFI9:
 9966              		.cfi_def_cfa_offset 4
 9967 0002 83B0     		sub	sp, sp, #12
 9968              	.LCFI10:
 9969              		.cfi_def_cfa_offset 16
 9970 0004 00AF     		add	r7, sp, #0
 9971              		.cfi_offset 7, -4
 9972              	.LCFI11:
 9973              		.cfi_def_cfa_register 7
 9974 0006 7860     		str	r0, [r7, #4]
 182:/home/cuil/workspace/arm/lm3s811/TI_Stellaris/driverlib/lpc.c ****     //
 183:/home/cuil/workspace/arm/lm3s811/TI_Stellaris/driverlib/lpc.c ****     // Check the arguments.
 184:/home/cuil/workspace/arm/lm3s811/TI_Stellaris/driverlib/lpc.c ****     //
 185:/home/cuil/workspace/arm/lm3s811/TI_Stellaris/driverlib/lpc.c ****     ASSERT(ulBase == LPC0_BASE);
 186:/home/cuil/workspace/arm/lm3s811/TI_Stellaris/driverlib/lpc.c **** 
 187:/home/cuil/workspace/arm/lm3s811/TI_Stellaris/driverlib/lpc.c ****     //
 188:/home/cuil/workspace/arm/lm3s811/TI_Stellaris/driverlib/lpc.c ****     // Return the Status Block Address, including the enable bit.
 189:/home/cuil/workspace/arm/lm3s811/TI_Stellaris/driverlib/lpc.c ****     //
 190:/home/cuil/workspace/arm/lm3s811/TI_Stellaris/driverlib/lpc.c ****     return(HWREG(ulBase + LPC_O_STSADDR));
 9975              		.loc 1 190 0
 9976 0008 7B68     		ldr	r3, [r7, #4]
 9977 000a 03F1A003 		add	r3, r3, #160
 9978 000e 1B68     		ldr	r3, [r3, #0]
 191:/home/cuil/workspace/arm/lm3s811/TI_Stellaris/driverlib/lpc.c **** }
 9979              		.loc 1 191 0
 9980 0010 1846     		mov	r0, r3
 9981 0012 07F10C07 		add	r7, r7, #12
 9982 0016 BD46     		mov	sp, r7
 9983 0018 80BC     		pop	{r7}
 9984 001a 7047     		bx	lr
 9985              		.cfi_endproc
 9986              	.LFE3:
 9988              		.section	.text.LPCStatusGet,"ax",%progbits
 9989              		.align	2
 9990              		.global	LPCStatusGet
 9991              		.thumb
 9992              		.thumb_func
 9994              	LPCStatusGet:
 9995              	.LFB4:
 192:/home/cuil/workspace/arm/lm3s811/TI_Stellaris/driverlib/lpc.c **** 
 193:/home/cuil/workspace/arm/lm3s811/TI_Stellaris/driverlib/lpc.c **** //*****************************************************************************
 194:/home/cuil/workspace/arm/lm3s811/TI_Stellaris/driverlib/lpc.c **** //
 195:/home/cuil/workspace/arm/lm3s811/TI_Stellaris/driverlib/lpc.c **** //! Returns the status of the LPC module.
 196:/home/cuil/workspace/arm/lm3s811/TI_Stellaris/driverlib/lpc.c **** //!
 197:/home/cuil/workspace/arm/lm3s811/TI_Stellaris/driverlib/lpc.c **** //! \param ulBase is the base address of the LPC module.
 198:/home/cuil/workspace/arm/lm3s811/TI_Stellaris/driverlib/lpc.c **** //! \param pulCount is a pointer to storage for the channel count.
 199:/home/cuil/workspace/arm/lm3s811/TI_Stellaris/driverlib/lpc.c **** //! \param pulPoolSize is a pointer to storage for the register pool size.
 200:/home/cuil/workspace/arm/lm3s811/TI_Stellaris/driverlib/lpc.c **** //!
 201:/home/cuil/workspace/arm/lm3s811/TI_Stellaris/driverlib/lpc.c **** //! This function reads the value of the LPC Status register, calculates the
 202:/home/cuil/workspace/arm/lm3s811/TI_Stellaris/driverlib/lpc.c **** //! number of channels and buffer pool size, and then returns the raw status
 203:/home/cuil/workspace/arm/lm3s811/TI_Stellaris/driverlib/lpc.c **** //! value.
 204:/home/cuil/workspace/arm/lm3s811/TI_Stellaris/driverlib/lpc.c **** //!
 205:/home/cuil/workspace/arm/lm3s811/TI_Stellaris/driverlib/lpc.c **** //! \return Returns the contents of the LPC Status register.
 206:/home/cuil/workspace/arm/lm3s811/TI_Stellaris/driverlib/lpc.c **** //
 207:/home/cuil/workspace/arm/lm3s811/TI_Stellaris/driverlib/lpc.c **** //*****************************************************************************
 208:/home/cuil/workspace/arm/lm3s811/TI_Stellaris/driverlib/lpc.c **** unsigned long
 209:/home/cuil/workspace/arm/lm3s811/TI_Stellaris/driverlib/lpc.c **** LPCStatusGet(unsigned long ulBase, unsigned long *pulCount,
 210:/home/cuil/workspace/arm/lm3s811/TI_Stellaris/driverlib/lpc.c ****              unsigned long *pulPoolSize)
 211:/home/cuil/workspace/arm/lm3s811/TI_Stellaris/driverlib/lpc.c **** {
 9996              		.loc 1 211 0
 9997              		.cfi_startproc
 9998              		@ args = 0, pretend = 0, frame = 24
 9999              		@ frame_needed = 1, uses_anonymous_args = 0
 10000              		@ link register save eliminated.
 10001 0000 80B4     		push	{r7}
 10002              	.LCFI12:
 10003              		.cfi_def_cfa_offset 4
 10004 0002 87B0     		sub	sp, sp, #28
 10005              	.LCFI13:
 10006              		.cfi_def_cfa_offset 32
 10007 0004 00AF     		add	r7, sp, #0
 10008              		.cfi_offset 7, -4
 10009              	.LCFI14:
 10010              		.cfi_def_cfa_register 7
 10011 0006 F860     		str	r0, [r7, #12]
 10012 0008 B960     		str	r1, [r7, #8]
 10013 000a 7A60     		str	r2, [r7, #4]
 212:/home/cuil/workspace/arm/lm3s811/TI_Stellaris/driverlib/lpc.c ****     unsigned long ulStatus;
 213:/home/cuil/workspace/arm/lm3s811/TI_Stellaris/driverlib/lpc.c **** 
 214:/home/cuil/workspace/arm/lm3s811/TI_Stellaris/driverlib/lpc.c ****     //
 215:/home/cuil/workspace/arm/lm3s811/TI_Stellaris/driverlib/lpc.c ****     // Check the arguments.
 216:/home/cuil/workspace/arm/lm3s811/TI_Stellaris/driverlib/lpc.c ****     //
 217:/home/cuil/workspace/arm/lm3s811/TI_Stellaris/driverlib/lpc.c ****     ASSERT(ulBase == LPC0_BASE);
 218:/home/cuil/workspace/arm/lm3s811/TI_Stellaris/driverlib/lpc.c **** 
 219:/home/cuil/workspace/arm/lm3s811/TI_Stellaris/driverlib/lpc.c ****     //
 220:/home/cuil/workspace/arm/lm3s811/TI_Stellaris/driverlib/lpc.c ****     // Get a snapshot of the status register.
 221:/home/cuil/workspace/arm/lm3s811/TI_Stellaris/driverlib/lpc.c ****     //
 222:/home/cuil/workspace/arm/lm3s811/TI_Stellaris/driverlib/lpc.c ****     ulStatus = HWREG(ulBase + LPC_O_STS);
 10014              		.loc 1 222 0
 10015 000c FB68     		ldr	r3, [r7, #12]
 10016 000e 03F10403 		add	r3, r3, #4
 10017 0012 1B68     		ldr	r3, [r3, #0]
 10018 0014 7B61     		str	r3, [r7, #20]
 223:/home/cuil/workspace/arm/lm3s811/TI_Stellaris/driverlib/lpc.c **** 
 224:/home/cuil/workspace/arm/lm3s811/TI_Stellaris/driverlib/lpc.c ****     //
 225:/home/cuil/workspace/arm/lm3s811/TI_Stellaris/driverlib/lpc.c ****     // Extract the channel count from the status, including COMx channel.
 226:/home/cuil/workspace/arm/lm3s811/TI_Stellaris/driverlib/lpc.c ****     //
 227:/home/cuil/workspace/arm/lm3s811/TI_Stellaris/driverlib/lpc.c ****     if(pulCount)
 10019              		.loc 1 227 0
 10020 0016 BB68     		ldr	r3, [r7, #8]
 10021 0018 002B     		cmp	r3, #0
 10022 001a 08D0     		beq	.L8
 228:/home/cuil/workspace/arm/lm3s811/TI_Stellaris/driverlib/lpc.c ****     {
 229:/home/cuil/workspace/arm/lm3s811/TI_Stellaris/driverlib/lpc.c ****         *pulCount = (((ulStatus & LPC_STS_CHCNT_M) >> LPC_STS_CHCNT_S) + 1);
 10023              		.loc 1 229 0
 10024 001c 7B69     		ldr	r3, [r7, #20]
 10025 001e 03F4E003 		and	r3, r3, #7340032
 10026 0022 4FEA1353 		lsr	r3, r3, #20
 10027 0026 03F10102 		add	r2, r3, #1
 10028 002a BB68     		ldr	r3, [r7, #8]
 10029 002c 1A60     		str	r2, [r3, #0]
 10030              	.L8:
 230:/home/cuil/workspace/arm/lm3s811/TI_Stellaris/driverlib/lpc.c ****     }
 231:/home/cuil/workspace/arm/lm3s811/TI_Stellaris/driverlib/lpc.c **** 
 232:/home/cuil/workspace/arm/lm3s811/TI_Stellaris/driverlib/lpc.c ****     //
 233:/home/cuil/workspace/arm/lm3s811/TI_Stellaris/driverlib/lpc.c ****     // Extract/Calculate the register pool size.
 234:/home/cuil/workspace/arm/lm3s811/TI_Stellaris/driverlib/lpc.c ****     //
 235:/home/cuil/workspace/arm/lm3s811/TI_Stellaris/driverlib/lpc.c ****     if(pulPoolSize)
 10031              		.loc 1 235 0
 10032 002e 7B68     		ldr	r3, [r7, #4]
 10033 0030 002B     		cmp	r3, #0
 10034 0032 08D0     		beq	.L9
 236:/home/cuil/workspace/arm/lm3s811/TI_Stellaris/driverlib/lpc.c ****     {
 237:/home/cuil/workspace/arm/lm3s811/TI_Stellaris/driverlib/lpc.c ****         *pulPoolSize = (((ulStatus & LPC_STS_POOLSZ_M) >> 16) * 256);
 10035              		.loc 1 237 0
 10036 0034 7B69     		ldr	r3, [r7, #20]
 10037 0036 03F4E023 		and	r3, r3, #458752
 10038 003a 4FEA1343 		lsr	r3, r3, #16
 10039 003e 4FEA0322 		lsl	r2, r3, #8
 10040 0042 7B68     		ldr	r3, [r7, #4]
 10041 0044 1A60     		str	r2, [r3, #0]
 10042              	.L9:
 238:/home/cuil/workspace/arm/lm3s811/TI_Stellaris/driverlib/lpc.c ****     }
 239:/home/cuil/workspace/arm/lm3s811/TI_Stellaris/driverlib/lpc.c **** 
 240:/home/cuil/workspace/arm/lm3s811/TI_Stellaris/driverlib/lpc.c ****     //
 241:/home/cuil/workspace/arm/lm3s811/TI_Stellaris/driverlib/lpc.c ****     // Return the raw status.
 242:/home/cuil/workspace/arm/lm3s811/TI_Stellaris/driverlib/lpc.c ****     //
 243:/home/cuil/workspace/arm/lm3s811/TI_Stellaris/driverlib/lpc.c ****     return(ulStatus);
 10043              		.loc 1 243 0
 10044 0046 7B69     		ldr	r3, [r7, #20]
 244:/home/cuil/workspace/arm/lm3s811/TI_Stellaris/driverlib/lpc.c **** }
 10045              		.loc 1 244 0
 10046 0048 1846     		mov	r0, r3
 10047 004a 07F11C07 		add	r7, r7, #28
 10048 004e BD46     		mov	sp, r7
 10049 0050 80BC     		pop	{r7}
 10050 0052 7047     		bx	lr
 10051              		.cfi_endproc
 10052              	.LFE4:
 10054              		.section	.text.LPCSCIAssert,"ax",%progbits
 10055              		.align	2
 10056              		.global	LPCSCIAssert
 10057              		.thumb
 10058              		.thumb_func
 10060              	LPCSCIAssert:
 10061              	.LFB5:
 245:/home/cuil/workspace/arm/lm3s811/TI_Stellaris/driverlib/lpc.c **** 
 246:/home/cuil/workspace/arm/lm3s811/TI_Stellaris/driverlib/lpc.c **** //*****************************************************************************
 247:/home/cuil/workspace/arm/lm3s811/TI_Stellaris/driverlib/lpc.c **** //
 248:/home/cuil/workspace/arm/lm3s811/TI_Stellaris/driverlib/lpc.c **** //! Generates a pulse on the SCIn signal.
 249:/home/cuil/workspace/arm/lm3s811/TI_Stellaris/driverlib/lpc.c **** //!
 250:/home/cuil/workspace/arm/lm3s811/TI_Stellaris/driverlib/lpc.c **** //! \param ulBase is the base address of the LPC module.
 251:/home/cuil/workspace/arm/lm3s811/TI_Stellaris/driverlib/lpc.c **** //! \param ulCount is the number used to generate the pulse width value.
 252:/home/cuil/workspace/arm/lm3s811/TI_Stellaris/driverlib/lpc.c **** //!
 253:/home/cuil/workspace/arm/lm3s811/TI_Stellaris/driverlib/lpc.c **** //! This function generates a pulse on the SCIn interrupt pin.  The width of
 254:/home/cuil/workspace/arm/lm3s811/TI_Stellaris/driverlib/lpc.c **** //! the pulse is (2 << \e ulCount) LPC Clock Periods, where \e ulCount can take
 255:/home/cuil/workspace/arm/lm3s811/TI_Stellaris/driverlib/lpc.c **** //! on the value of 0, 1, 2, or 3.  So, the pulse width is 2, 4, 8, or 16 clock
 256:/home/cuil/workspace/arm/lm3s811/TI_Stellaris/driverlib/lpc.c **** //! periods.
 257:/home/cuil/workspace/arm/lm3s811/TI_Stellaris/driverlib/lpc.c **** //!
 258:/home/cuil/workspace/arm/lm3s811/TI_Stellaris/driverlib/lpc.c **** //! \return None.
 259:/home/cuil/workspace/arm/lm3s811/TI_Stellaris/driverlib/lpc.c **** //
 260:/home/cuil/workspace/arm/lm3s811/TI_Stellaris/driverlib/lpc.c **** //*****************************************************************************
 261:/home/cuil/workspace/arm/lm3s811/TI_Stellaris/driverlib/lpc.c **** void
 262:/home/cuil/workspace/arm/lm3s811/TI_Stellaris/driverlib/lpc.c **** LPCSCIAssert(unsigned long ulBase, unsigned long ulCount)
 263:/home/cuil/workspace/arm/lm3s811/TI_Stellaris/driverlib/lpc.c **** {
 10062              		.loc 1 263 0
 10063              		.cfi_startproc
 10064              		@ args = 0, pretend = 0, frame = 8
 10065              		@ frame_needed = 1, uses_anonymous_args = 0
 10066              		@ link register save eliminated.
 10067 0000 80B4     		push	{r7}
 10068              	.LCFI15:
 10069              		.cfi_def_cfa_offset 4
 10070 0002 83B0     		sub	sp, sp, #12
 10071              	.LCFI16:
 10072              		.cfi_def_cfa_offset 16
 10073 0004 00AF     		add	r7, sp, #0
 10074              		.cfi_offset 7, -4
 10075              	.LCFI17:
 10076              		.cfi_def_cfa_register 7
 10077 0006 7860     		str	r0, [r7, #4]
 10078 0008 3960     		str	r1, [r7, #0]
 264:/home/cuil/workspace/arm/lm3s811/TI_Stellaris/driverlib/lpc.c ****     //
 265:/home/cuil/workspace/arm/lm3s811/TI_Stellaris/driverlib/lpc.c ****     // Check the arguments.
 266:/home/cuil/workspace/arm/lm3s811/TI_Stellaris/driverlib/lpc.c ****     //
 267:/home/cuil/workspace/arm/lm3s811/TI_Stellaris/driverlib/lpc.c ****     ASSERT(ulBase == LPC0_BASE);
 268:/home/cuil/workspace/arm/lm3s811/TI_Stellaris/driverlib/lpc.c ****     ASSERT(ulCount <= 3);
 269:/home/cuil/workspace/arm/lm3s811/TI_Stellaris/driverlib/lpc.c **** 
 270:/home/cuil/workspace/arm/lm3s811/TI_Stellaris/driverlib/lpc.c ****     //
 271:/home/cuil/workspace/arm/lm3s811/TI_Stellaris/driverlib/lpc.c ****     // Wait for any previous pulse to be completed, by checking the SCI bit
 272:/home/cuil/workspace/arm/lm3s811/TI_Stellaris/driverlib/lpc.c ****     // (which is a self-clearing bit that is used to generate the pulse).
 273:/home/cuil/workspace/arm/lm3s811/TI_Stellaris/driverlib/lpc.c ****     //
 274:/home/cuil/workspace/arm/lm3s811/TI_Stellaris/driverlib/lpc.c ****     while(HWREG(ulBase + LPC_O_CTL) & LPC_CTL_SCI)
 10079              		.loc 1 274 0
 10080 000a 00BF     		nop
 10081              	.L11:
 10082              		.loc 1 274 0 is_stmt 0 discriminator 1
 10083 000c 7B68     		ldr	r3, [r7, #4]
 10084 000e 1B68     		ldr	r3, [r3, #0]
 10085 0010 03F40073 		and	r3, r3, #512
 10086 0014 002B     		cmp	r3, #0
 10087 0016 F9D1     		bne	.L11
 275:/home/cuil/workspace/arm/lm3s811/TI_Stellaris/driverlib/lpc.c ****     {
 276:/home/cuil/workspace/arm/lm3s811/TI_Stellaris/driverlib/lpc.c ****     }
 277:/home/cuil/workspace/arm/lm3s811/TI_Stellaris/driverlib/lpc.c **** 
 278:/home/cuil/workspace/arm/lm3s811/TI_Stellaris/driverlib/lpc.c ****     //
 279:/home/cuil/workspace/arm/lm3s811/TI_Stellaris/driverlib/lpc.c ****     // Set the count value first, prior to enabling the pulse.
 280:/home/cuil/workspace/arm/lm3s811/TI_Stellaris/driverlib/lpc.c ****     //
 281:/home/cuil/workspace/arm/lm3s811/TI_Stellaris/driverlib/lpc.c ****     HWREG(ulBase + LPC_O_CTL) &= ~LPC_CTL_SCICNT_M;
 10088              		.loc 1 281 0 is_stmt 1
 10089 0018 7B68     		ldr	r3, [r7, #4]
 10090 001a 7A68     		ldr	r2, [r7, #4]
 10091 001c 1268     		ldr	r2, [r2, #0]
 10092 001e 22F44062 		bic	r2, r2, #3072
 10093 0022 1A60     		str	r2, [r3, #0]
 282:/home/cuil/workspace/arm/lm3s811/TI_Stellaris/driverlib/lpc.c ****     HWREG(ulBase + LPC_O_CTL) |= (ulCount << 10);
 10094              		.loc 1 282 0
 10095 0024 7B68     		ldr	r3, [r7, #4]
 10096 0026 7A68     		ldr	r2, [r7, #4]
 10097 0028 1168     		ldr	r1, [r2, #0]
 10098 002a 3A68     		ldr	r2, [r7, #0]
 10099 002c 4FEA8222 		lsl	r2, r2, #10
 10100 0030 41EA0202 		orr	r2, r1, r2
 10101 0034 1A60     		str	r2, [r3, #0]
 283:/home/cuil/workspace/arm/lm3s811/TI_Stellaris/driverlib/lpc.c **** 
 284:/home/cuil/workspace/arm/lm3s811/TI_Stellaris/driverlib/lpc.c ****     //
 285:/home/cuil/workspace/arm/lm3s811/TI_Stellaris/driverlib/lpc.c ****     // Now, generate the pulse by setting the SCI bit.
 286:/home/cuil/workspace/arm/lm3s811/TI_Stellaris/driverlib/lpc.c ****     //
 287:/home/cuil/workspace/arm/lm3s811/TI_Stellaris/driverlib/lpc.c ****     HWREG(ulBase + LPC_O_CTL) |= LPC_CTL_SCI;
 10102              		.loc 1 287 0
 10103 0036 7B68     		ldr	r3, [r7, #4]
 10104 0038 7A68     		ldr	r2, [r7, #4]
 10105 003a 1268     		ldr	r2, [r2, #0]
 10106 003c 42F40072 		orr	r2, r2, #512
 10107 0040 1A60     		str	r2, [r3, #0]
 288:/home/cuil/workspace/arm/lm3s811/TI_Stellaris/driverlib/lpc.c **** }
 10108              		.loc 1 288 0
 10109 0042 07F10C07 		add	r7, r7, #12
 10110 0046 BD46     		mov	sp, r7
 10111 0048 80BC     		pop	{r7}
 10112 004a 7047     		bx	lr
 10113              		.cfi_endproc
 10114              	.LFE5:
 10116              		.section	.text.LPCIRQConfig,"ax",%progbits
 10117              		.align	2
 10118              		.global	LPCIRQConfig
 10119              		.thumb
 10120              		.thumb_func
 10122              	LPCIRQConfig:
 10123              	.LFB6:
 289:/home/cuil/workspace/arm/lm3s811/TI_Stellaris/driverlib/lpc.c **** 
 290:/home/cuil/workspace/arm/lm3s811/TI_Stellaris/driverlib/lpc.c **** //*****************************************************************************
 291:/home/cuil/workspace/arm/lm3s811/TI_Stellaris/driverlib/lpc.c **** //
 292:/home/cuil/workspace/arm/lm3s811/TI_Stellaris/driverlib/lpc.c **** //! Configure the LPC IRQ operation.
 293:/home/cuil/workspace/arm/lm3s811/TI_Stellaris/driverlib/lpc.c **** //!
 294:/home/cuil/workspace/arm/lm3s811/TI_Stellaris/driverlib/lpc.c **** //! \param ulBase is the base address of the LPC module.
 295:/home/cuil/workspace/arm/lm3s811/TI_Stellaris/driverlib/lpc.c **** //! \param bIRQPulse is a flag to indicate the manual IRQ bits should be
 296:/home/cuil/workspace/arm/lm3s811/TI_Stellaris/driverlib/lpc.c **** //! cleared after they have been sent (in an SIRQ frame).
 297:/home/cuil/workspace/arm/lm3s811/TI_Stellaris/driverlib/lpc.c **** //! \param bIRQOnChange is a flag to indicate that an SIRQ frame should be
 298:/home/cuil/workspace/arm/lm3s811/TI_Stellaris/driverlib/lpc.c **** //! sent whenever any IRQ bits (manual/auto) change status.
 299:/home/cuil/workspace/arm/lm3s811/TI_Stellaris/driverlib/lpc.c **** //!
 300:/home/cuil/workspace/arm/lm3s811/TI_Stellaris/driverlib/lpc.c **** //! This function configures the LPC IRQs.  If the \e bIRQPulse parameter is
 301:/home/cuil/workspace/arm/lm3s811/TI_Stellaris/driverlib/lpc.c **** //! \b true, then manual IRQ values are cleared after they are sent.  If the
 302:/home/cuil/workspace/arm/lm3s811/TI_Stellaris/driverlib/lpc.c **** //! \e bIRQOnChange parameter is true, then IRQ values (manual and/or
 303:/home/cuil/workspace/arm/lm3s811/TI_Stellaris/driverlib/lpc.c **** //! automatic) are sent when a change is detected.
 304:/home/cuil/workspace/arm/lm3s811/TI_Stellaris/driverlib/lpc.c **** //!
 305:/home/cuil/workspace/arm/lm3s811/TI_Stellaris/driverlib/lpc.c **** //! \return None.
 306:/home/cuil/workspace/arm/lm3s811/TI_Stellaris/driverlib/lpc.c **** //
 307:/home/cuil/workspace/arm/lm3s811/TI_Stellaris/driverlib/lpc.c **** //*****************************************************************************
 308:/home/cuil/workspace/arm/lm3s811/TI_Stellaris/driverlib/lpc.c **** void
 309:/home/cuil/workspace/arm/lm3s811/TI_Stellaris/driverlib/lpc.c **** LPCIRQConfig(unsigned long ulBase, tBoolean bIRQPulse, tBoolean bIRQOnChange)
 310:/home/cuil/workspace/arm/lm3s811/TI_Stellaris/driverlib/lpc.c **** {
 10124              		.loc 1 310 0
 10125              		.cfi_startproc
 10126              		@ args = 0, pretend = 0, frame = 8
 10127              		@ frame_needed = 1, uses_anonymous_args = 0
 10128              		@ link register save eliminated.
 10129 0000 80B4     		push	{r7}
 10130              	.LCFI18:
 10131              		.cfi_def_cfa_offset 4
 10132 0002 83B0     		sub	sp, sp, #12
 10133              	.LCFI19:
 10134              		.cfi_def_cfa_offset 16
 10135 0004 00AF     		add	r7, sp, #0
 10136              		.cfi_offset 7, -4
 10137              	.LCFI20:
 10138              		.cfi_def_cfa_register 7
 10139 0006 7860     		str	r0, [r7, #4]
 10140 0008 1346     		mov	r3, r2
 10141 000a 0A46     		mov	r2, r1
 10142 000c FA70     		strb	r2, [r7, #3]
 10143 000e BB70     		strb	r3, [r7, #2]
 311:/home/cuil/workspace/arm/lm3s811/TI_Stellaris/driverlib/lpc.c ****     //
 312:/home/cuil/workspace/arm/lm3s811/TI_Stellaris/driverlib/lpc.c ****     // Check the arguments.
 313:/home/cuil/workspace/arm/lm3s811/TI_Stellaris/driverlib/lpc.c ****     //
 314:/home/cuil/workspace/arm/lm3s811/TI_Stellaris/driverlib/lpc.c ****     ASSERT(ulBase == LPC0_BASE);
 315:/home/cuil/workspace/arm/lm3s811/TI_Stellaris/driverlib/lpc.c **** 
 316:/home/cuil/workspace/arm/lm3s811/TI_Stellaris/driverlib/lpc.c ****     //
 317:/home/cuil/workspace/arm/lm3s811/TI_Stellaris/driverlib/lpc.c ****     // Setup IRQ pulse configuration.
 318:/home/cuil/workspace/arm/lm3s811/TI_Stellaris/driverlib/lpc.c ****     //
 319:/home/cuil/workspace/arm/lm3s811/TI_Stellaris/driverlib/lpc.c ****     if(bIRQPulse)
 10144              		.loc 1 319 0
 10145 0010 FB78     		ldrb	r3, [r7, #3]	@ zero_extendqisi2
 10146 0012 002B     		cmp	r3, #0
 10147 0014 0AD0     		beq	.L13
 320:/home/cuil/workspace/arm/lm3s811/TI_Stellaris/driverlib/lpc.c ****     {
 321:/home/cuil/workspace/arm/lm3s811/TI_Stellaris/driverlib/lpc.c ****         HWREG(ulBase + LPC_O_IRQCTL) |= LPC_IRQCTL_PULSE;
 10148              		.loc 1 321 0
 10149 0016 7B68     		ldr	r3, [r7, #4]
 10150 0018 03F10803 		add	r3, r3, #8
 10151 001c 7A68     		ldr	r2, [r7, #4]
 10152 001e 02F10802 		add	r2, r2, #8
 10153 0022 1268     		ldr	r2, [r2, #0]
 10154 0024 42F00402 		orr	r2, r2, #4
 10155 0028 1A60     		str	r2, [r3, #0]
 10156 002a 09E0     		b	.L14
 10157              	.L13:
 322:/home/cuil/workspace/arm/lm3s811/TI_Stellaris/driverlib/lpc.c ****     }
 323:/home/cuil/workspace/arm/lm3s811/TI_Stellaris/driverlib/lpc.c ****     else
 324:/home/cuil/workspace/arm/lm3s811/TI_Stellaris/driverlib/lpc.c ****     {
 325:/home/cuil/workspace/arm/lm3s811/TI_Stellaris/driverlib/lpc.c ****         HWREG(ulBase + LPC_O_IRQCTL) &= ~LPC_IRQCTL_PULSE;
 10158              		.loc 1 325 0
 10159 002c 7B68     		ldr	r3, [r7, #4]
 10160 002e 03F10803 		add	r3, r3, #8
 10161 0032 7A68     		ldr	r2, [r7, #4]
 10162 0034 02F10802 		add	r2, r2, #8
 10163 0038 1268     		ldr	r2, [r2, #0]
 10164 003a 22F00402 		bic	r2, r2, #4
 10165 003e 1A60     		str	r2, [r3, #0]
 10166              	.L14:
 326:/home/cuil/workspace/arm/lm3s811/TI_Stellaris/driverlib/lpc.c ****     }
 327:/home/cuil/workspace/arm/lm3s811/TI_Stellaris/driverlib/lpc.c **** 
 328:/home/cuil/workspace/arm/lm3s811/TI_Stellaris/driverlib/lpc.c ****     //
 329:/home/cuil/workspace/arm/lm3s811/TI_Stellaris/driverlib/lpc.c ****     // Setup IRQ on-change configuration.
 330:/home/cuil/workspace/arm/lm3s811/TI_Stellaris/driverlib/lpc.c ****     //
 331:/home/cuil/workspace/arm/lm3s811/TI_Stellaris/driverlib/lpc.c ****     if(bIRQOnChange)
 10167              		.loc 1 331 0
 10168 0040 BB78     		ldrb	r3, [r7, #2]	@ zero_extendqisi2
 10169 0042 002B     		cmp	r3, #0
 10170 0044 0AD0     		beq	.L15
 332:/home/cuil/workspace/arm/lm3s811/TI_Stellaris/driverlib/lpc.c ****     {
 333:/home/cuil/workspace/arm/lm3s811/TI_Stellaris/driverlib/lpc.c ****         HWREG(ulBase + LPC_O_IRQCTL) |= LPC_IRQCTL_ONCHG;
 10171              		.loc 1 333 0
 10172 0046 7B68     		ldr	r3, [r7, #4]
 10173 0048 03F10803 		add	r3, r3, #8
 10174 004c 7A68     		ldr	r2, [r7, #4]
 10175 004e 02F10802 		add	r2, r2, #8
 10176 0052 1268     		ldr	r2, [r2, #0]
 10177 0054 42F00202 		orr	r2, r2, #2
 10178 0058 1A60     		str	r2, [r3, #0]
 10179 005a 09E0     		b	.L12
 10180              	.L15:
 334:/home/cuil/workspace/arm/lm3s811/TI_Stellaris/driverlib/lpc.c ****     }
 335:/home/cuil/workspace/arm/lm3s811/TI_Stellaris/driverlib/lpc.c ****     else
 336:/home/cuil/workspace/arm/lm3s811/TI_Stellaris/driverlib/lpc.c ****     {
 337:/home/cuil/workspace/arm/lm3s811/TI_Stellaris/driverlib/lpc.c ****         HWREG(ulBase + LPC_O_IRQCTL) &= ~LPC_IRQCTL_ONCHG;
 10181              		.loc 1 337 0
 10182 005c 7B68     		ldr	r3, [r7, #4]
 10183 005e 03F10803 		add	r3, r3, #8
 10184 0062 7A68     		ldr	r2, [r7, #4]
 10185 0064 02F10802 		add	r2, r2, #8
 10186 0068 1268     		ldr	r2, [r2, #0]
 10187 006a 22F00202 		bic	r2, r2, #2
 10188 006e 1A60     		str	r2, [r3, #0]
 10189              	.L12:
 338:/home/cuil/workspace/arm/lm3s811/TI_Stellaris/driverlib/lpc.c ****     }
 339:/home/cuil/workspace/arm/lm3s811/TI_Stellaris/driverlib/lpc.c **** }
 10190              		.loc 1 339 0
 10191 0070 07F10C07 		add	r7, r7, #12
 10192 0074 BD46     		mov	sp, r7
 10193 0076 80BC     		pop	{r7}
 10194 0078 7047     		bx	lr
 10195              		.cfi_endproc
 10196              	.LFE6:
 10198 007a 00BF     		.section	.text.LPCIRQSet,"ax",%progbits
 10199              		.align	2
 10200              		.global	LPCIRQSet
 10201              		.thumb
 10202              		.thumb_func
 10204              	LPCIRQSet:
 10205              	.LFB7:
 340:/home/cuil/workspace/arm/lm3s811/TI_Stellaris/driverlib/lpc.c **** 
 341:/home/cuil/workspace/arm/lm3s811/TI_Stellaris/driverlib/lpc.c **** //*****************************************************************************
 342:/home/cuil/workspace/arm/lm3s811/TI_Stellaris/driverlib/lpc.c **** //
 343:/home/cuil/workspace/arm/lm3s811/TI_Stellaris/driverlib/lpc.c **** //! Set the manual LPC IRQ bits.
 344:/home/cuil/workspace/arm/lm3s811/TI_Stellaris/driverlib/lpc.c **** //!
 345:/home/cuil/workspace/arm/lm3s811/TI_Stellaris/driverlib/lpc.c **** //! \param ulBase specifies the LPC module base address.
 346:/home/cuil/workspace/arm/lm3s811/TI_Stellaris/driverlib/lpc.c **** //! \param ulIRQ specifies the IRQ bits that should be set.
 347:/home/cuil/workspace/arm/lm3s811/TI_Stellaris/driverlib/lpc.c **** //!
 348:/home/cuil/workspace/arm/lm3s811/TI_Stellaris/driverlib/lpc.c **** //! This function sets the IRQ bits that are sent in the SERIRQ frame.  The
 349:/home/cuil/workspace/arm/lm3s811/TI_Stellaris/driverlib/lpc.c **** //! value in the \e ulIRQ register is OR-ed into the existing manual IRQ
 350:/home/cuil/workspace/arm/lm3s811/TI_Stellaris/driverlib/lpc.c **** //! setting.  The value for the \e ulIRQ parameter can be any combination of
 351:/home/cuil/workspace/arm/lm3s811/TI_Stellaris/driverlib/lpc.c **** //! the following values:  \b LPC_IRQ15, \b LPC_IRQ14, \b LPC_IRQ13,
 352:/home/cuil/workspace/arm/lm3s811/TI_Stellaris/driverlib/lpc.c **** //! \b LPC_IRQ12, \b LPC_IRQ11, \b LPC_IRQ10, \b LPC_IRQ9, \b LPC_IRQ8,
 353:/home/cuil/workspace/arm/lm3s811/TI_Stellaris/driverlib/lpc.c **** //! \b LPC_IRQ7,  \b LPC_IRQ6, \b LPC_IRQ5, \b LPC_IRQ4, \b LPC_IRQ3,
 354:/home/cuil/workspace/arm/lm3s811/TI_Stellaris/driverlib/lpc.c **** //! \b LPC_IRQ2, \b LPC_IRQ1, or \b LPC_IRQ0.
 355:/home/cuil/workspace/arm/lm3s811/TI_Stellaris/driverlib/lpc.c **** //!
 356:/home/cuil/workspace/arm/lm3s811/TI_Stellaris/driverlib/lpc.c **** //! \return None.
 357:/home/cuil/workspace/arm/lm3s811/TI_Stellaris/driverlib/lpc.c **** //
 358:/home/cuil/workspace/arm/lm3s811/TI_Stellaris/driverlib/lpc.c **** //*****************************************************************************
 359:/home/cuil/workspace/arm/lm3s811/TI_Stellaris/driverlib/lpc.c **** void
 360:/home/cuil/workspace/arm/lm3s811/TI_Stellaris/driverlib/lpc.c **** LPCIRQSet(unsigned long ulBase, unsigned long ulIRQ)
 361:/home/cuil/workspace/arm/lm3s811/TI_Stellaris/driverlib/lpc.c **** {
 10206              		.loc 1 361 0
 10207              		.cfi_startproc
 10208              		@ args = 0, pretend = 0, frame = 16
 10209              		@ frame_needed = 1, uses_anonymous_args = 0
 10210              		@ link register save eliminated.
 10211 0000 80B4     		push	{r7}
 10212              	.LCFI21:
 10213              		.cfi_def_cfa_offset 4
 10214 0002 85B0     		sub	sp, sp, #20
 10215              	.LCFI22:
 10216              		.cfi_def_cfa_offset 24
 10217 0004 00AF     		add	r7, sp, #0
 10218              		.cfi_offset 7, -4
 10219              	.LCFI23:
 10220              		.cfi_def_cfa_register 7
 10221 0006 7860     		str	r0, [r7, #4]
 10222 0008 3960     		str	r1, [r7, #0]
 362:/home/cuil/workspace/arm/lm3s811/TI_Stellaris/driverlib/lpc.c ****     unsigned long ulTemp;
 363:/home/cuil/workspace/arm/lm3s811/TI_Stellaris/driverlib/lpc.c **** 
 364:/home/cuil/workspace/arm/lm3s811/TI_Stellaris/driverlib/lpc.c ****     //
 365:/home/cuil/workspace/arm/lm3s811/TI_Stellaris/driverlib/lpc.c ****     // Check the arguments.
 366:/home/cuil/workspace/arm/lm3s811/TI_Stellaris/driverlib/lpc.c ****     //
 367:/home/cuil/workspace/arm/lm3s811/TI_Stellaris/driverlib/lpc.c ****     ASSERT(ulBase == LPC0_BASE);
 368:/home/cuil/workspace/arm/lm3s811/TI_Stellaris/driverlib/lpc.c **** 
 369:/home/cuil/workspace/arm/lm3s811/TI_Stellaris/driverlib/lpc.c ****     //
 370:/home/cuil/workspace/arm/lm3s811/TI_Stellaris/driverlib/lpc.c ****     // Get the current IRQ configuration, mask off the bits that we are to
 371:/home/cuil/workspace/arm/lm3s811/TI_Stellaris/driverlib/lpc.c ****     // be operating on, set/clear them as appropriate, then rewrite the
 372:/home/cuil/workspace/arm/lm3s811/TI_Stellaris/driverlib/lpc.c ****     // register.
 373:/home/cuil/workspace/arm/lm3s811/TI_Stellaris/driverlib/lpc.c ****     //
 374:/home/cuil/workspace/arm/lm3s811/TI_Stellaris/driverlib/lpc.c ****     ulTemp = HWREG(ulBase + LPC_O_IRQCTL);
 10223              		.loc 1 374 0
 10224 000a 7B68     		ldr	r3, [r7, #4]
 10225 000c 03F10803 		add	r3, r3, #8
 10226 0010 1B68     		ldr	r3, [r3, #0]
 10227 0012 FB60     		str	r3, [r7, #12]
 375:/home/cuil/workspace/arm/lm3s811/TI_Stellaris/driverlib/lpc.c ****     ulTemp |= (ulIRQ & 0xFFFF0000);
 10228              		.loc 1 375 0
 10229 0014 3B68     		ldr	r3, [r7, #0]
 10230 0016 4FEA1343 		lsr	r3, r3, #16
 10231 001a 4FEA0343 		lsl	r3, r3, #16
 10232 001e FA68     		ldr	r2, [r7, #12]
 10233 0020 42EA0303 		orr	r3, r2, r3
 10234 0024 FB60     		str	r3, [r7, #12]
 376:/home/cuil/workspace/arm/lm3s811/TI_Stellaris/driverlib/lpc.c ****     HWREG(ulBase + LPC_O_IRQCTL) = ulTemp;
 10235              		.loc 1 376 0
 10236 0026 7B68     		ldr	r3, [r7, #4]
 10237 0028 03F10803 		add	r3, r3, #8
 10238 002c FA68     		ldr	r2, [r7, #12]
 10239 002e 1A60     		str	r2, [r3, #0]
 377:/home/cuil/workspace/arm/lm3s811/TI_Stellaris/driverlib/lpc.c **** }
 10240              		.loc 1 377 0
 10241 0030 07F11407 		add	r7, r7, #20
 10242 0034 BD46     		mov	sp, r7
 10243 0036 80BC     		pop	{r7}
 10244 0038 7047     		bx	lr
 10245              		.cfi_endproc
 10246              	.LFE7:
 10248 003a 00BF     		.section	.text.LPCIRQClear,"ax",%progbits
 10249              		.align	2
 10250              		.global	LPCIRQClear
 10251              		.thumb
 10252              		.thumb_func
 10254              	LPCIRQClear:
 10255              	.LFB8:
 378:/home/cuil/workspace/arm/lm3s811/TI_Stellaris/driverlib/lpc.c **** 
 379:/home/cuil/workspace/arm/lm3s811/TI_Stellaris/driverlib/lpc.c **** //*****************************************************************************
 380:/home/cuil/workspace/arm/lm3s811/TI_Stellaris/driverlib/lpc.c **** //
 381:/home/cuil/workspace/arm/lm3s811/TI_Stellaris/driverlib/lpc.c **** //! Clear the manual LPC IRQ bits.
 382:/home/cuil/workspace/arm/lm3s811/TI_Stellaris/driverlib/lpc.c **** //!
 383:/home/cuil/workspace/arm/lm3s811/TI_Stellaris/driverlib/lpc.c **** //! \param ulBase specifies the LPC module base address.
 384:/home/cuil/workspace/arm/lm3s811/TI_Stellaris/driverlib/lpc.c **** //! \param ulIRQ specifies the IRQ bits that should be cleared.
 385:/home/cuil/workspace/arm/lm3s811/TI_Stellaris/driverlib/lpc.c **** //!
 386:/home/cuil/workspace/arm/lm3s811/TI_Stellaris/driverlib/lpc.c **** //! This function clears the IRQ bits that are sent in the SERIRQ frame.  The
 387:/home/cuil/workspace/arm/lm3s811/TI_Stellaris/driverlib/lpc.c **** //! value in the \e ulIRQ register is OR-ed into the existing manual IRQ
 388:/home/cuil/workspace/arm/lm3s811/TI_Stellaris/driverlib/lpc.c **** //! setting.  The value for the \e ulIRQ parameter can be any combination of
 389:/home/cuil/workspace/arm/lm3s811/TI_Stellaris/driverlib/lpc.c **** //! the following values:  \b LPC_IRQ15, \b LPC_IRQ14, \b LPC_IRQ13,
 390:/home/cuil/workspace/arm/lm3s811/TI_Stellaris/driverlib/lpc.c **** //! \b LPC_IRQ12, \b LPC_IRQ11, \b LPC_IRQ10, \b LPC_IRQ9, \b LPC_IRQ8,
 391:/home/cuil/workspace/arm/lm3s811/TI_Stellaris/driverlib/lpc.c **** //! \b LPC_IRQ7, \b LPC_IRQ6, \b LPC_IRQ5, \b LPC_IRQ4, \b LPC_IRQ3,
 392:/home/cuil/workspace/arm/lm3s811/TI_Stellaris/driverlib/lpc.c **** //! \b LPC_IRQ2, \b LPC_IRQ1, or \b LPC_IRQ0.
 393:/home/cuil/workspace/arm/lm3s811/TI_Stellaris/driverlib/lpc.c **** //!
 394:/home/cuil/workspace/arm/lm3s811/TI_Stellaris/driverlib/lpc.c **** //! \return None.
 395:/home/cuil/workspace/arm/lm3s811/TI_Stellaris/driverlib/lpc.c **** //
 396:/home/cuil/workspace/arm/lm3s811/TI_Stellaris/driverlib/lpc.c **** //*****************************************************************************
 397:/home/cuil/workspace/arm/lm3s811/TI_Stellaris/driverlib/lpc.c **** void
 398:/home/cuil/workspace/arm/lm3s811/TI_Stellaris/driverlib/lpc.c **** LPCIRQClear(unsigned long ulBase, unsigned long ulIRQ)
 399:/home/cuil/workspace/arm/lm3s811/TI_Stellaris/driverlib/lpc.c **** {
 10256              		.loc 1 399 0
 10257              		.cfi_startproc
 10258              		@ args = 0, pretend = 0, frame = 16
 10259              		@ frame_needed = 1, uses_anonymous_args = 0
 10260              		@ link register save eliminated.
 10261 0000 80B4     		push	{r7}
 10262              	.LCFI24:
 10263              		.cfi_def_cfa_offset 4
 10264 0002 85B0     		sub	sp, sp, #20
 10265              	.LCFI25:
 10266              		.cfi_def_cfa_offset 24
 10267 0004 00AF     		add	r7, sp, #0
 10268              		.cfi_offset 7, -4
 10269              	.LCFI26:
 10270              		.cfi_def_cfa_register 7
 10271 0006 7860     		str	r0, [r7, #4]
 10272 0008 3960     		str	r1, [r7, #0]
 400:/home/cuil/workspace/arm/lm3s811/TI_Stellaris/driverlib/lpc.c ****     unsigned long ulTemp;
 401:/home/cuil/workspace/arm/lm3s811/TI_Stellaris/driverlib/lpc.c **** 
 402:/home/cuil/workspace/arm/lm3s811/TI_Stellaris/driverlib/lpc.c ****     //
 403:/home/cuil/workspace/arm/lm3s811/TI_Stellaris/driverlib/lpc.c ****     // Check the arguments.
 404:/home/cuil/workspace/arm/lm3s811/TI_Stellaris/driverlib/lpc.c ****     //
 405:/home/cuil/workspace/arm/lm3s811/TI_Stellaris/driverlib/lpc.c ****     ASSERT(ulBase == LPC0_BASE);
 406:/home/cuil/workspace/arm/lm3s811/TI_Stellaris/driverlib/lpc.c **** 
 407:/home/cuil/workspace/arm/lm3s811/TI_Stellaris/driverlib/lpc.c ****     //
 408:/home/cuil/workspace/arm/lm3s811/TI_Stellaris/driverlib/lpc.c ****     // Get the current IRQ configuration, mask off the bits that we are to
 409:/home/cuil/workspace/arm/lm3s811/TI_Stellaris/driverlib/lpc.c ****     // be operating on, set/clear them as appropriate, then rewrite the
 410:/home/cuil/workspace/arm/lm3s811/TI_Stellaris/driverlib/lpc.c ****     // register.
 411:/home/cuil/workspace/arm/lm3s811/TI_Stellaris/driverlib/lpc.c ****     //
 412:/home/cuil/workspace/arm/lm3s811/TI_Stellaris/driverlib/lpc.c ****     ulTemp = HWREG(ulBase + LPC_O_IRQCTL);
 10273              		.loc 1 412 0
 10274 000a 7B68     		ldr	r3, [r7, #4]
 10275 000c 03F10803 		add	r3, r3, #8
 10276 0010 1B68     		ldr	r3, [r3, #0]
 10277 0012 FB60     		str	r3, [r7, #12]
 413:/home/cuil/workspace/arm/lm3s811/TI_Stellaris/driverlib/lpc.c ****     ulTemp &= ~(ulIRQ & 0xFFFF0000);
 10278              		.loc 1 413 0
 10279 0014 3B68     		ldr	r3, [r7, #0]
 10280 0016 4FEA1343 		lsr	r3, r3, #16
 10281 001a 4FEA0343 		lsl	r3, r3, #16
 10282 001e 6FEA0303 		mvn	r3, r3
 10283 0022 FA68     		ldr	r2, [r7, #12]
 10284 0024 02EA0303 		and	r3, r2, r3
 10285 0028 FB60     		str	r3, [r7, #12]
 414:/home/cuil/workspace/arm/lm3s811/TI_Stellaris/driverlib/lpc.c ****     HWREG(ulBase + LPC_O_IRQCTL) = ulTemp;
 10286              		.loc 1 414 0
 10287 002a 7B68     		ldr	r3, [r7, #4]
 10288 002c 03F10803 		add	r3, r3, #8
 10289 0030 FA68     		ldr	r2, [r7, #12]
 10290 0032 1A60     		str	r2, [r3, #0]
 415:/home/cuil/workspace/arm/lm3s811/TI_Stellaris/driverlib/lpc.c **** }
 10291              		.loc 1 415 0
 10292 0034 07F11407 		add	r7, r7, #20
 10293 0038 BD46     		mov	sp, r7
 10294 003a 80BC     		pop	{r7}
 10295 003c 7047     		bx	lr
 10296              		.cfi_endproc
 10297              	.LFE8:
 10299 003e 00BF     		.section	.text.LPCIRQGet,"ax",%progbits
 10300              		.align	2
 10301              		.global	LPCIRQGet
 10302              		.thumb
 10303              		.thumb_func
 10305              	LPCIRQGet:
 10306              	.LFB9:
 416:/home/cuil/workspace/arm/lm3s811/TI_Stellaris/driverlib/lpc.c **** 
 417:/home/cuil/workspace/arm/lm3s811/TI_Stellaris/driverlib/lpc.c **** //*****************************************************************************
 418:/home/cuil/workspace/arm/lm3s811/TI_Stellaris/driverlib/lpc.c **** //
 419:/home/cuil/workspace/arm/lm3s811/TI_Stellaris/driverlib/lpc.c **** //! Get the configuration and status of the IRQ signals
 420:/home/cuil/workspace/arm/lm3s811/TI_Stellaris/driverlib/lpc.c **** //!
 421:/home/cuil/workspace/arm/lm3s811/TI_Stellaris/driverlib/lpc.c **** //! \param ulBase specifies the LPC module base address.
 422:/home/cuil/workspace/arm/lm3s811/TI_Stellaris/driverlib/lpc.c **** //!
 423:/home/cuil/workspace/arm/lm3s811/TI_Stellaris/driverlib/lpc.c **** //! This function returns the LPC module's SERIRQ status.  The value returned
 424:/home/cuil/workspace/arm/lm3s811/TI_Stellaris/driverlib/lpc.c **** //! is a combination of the following values: \b LPC_IRQ15, \b LPC_IRQ14,
 425:/home/cuil/workspace/arm/lm3s811/TI_Stellaris/driverlib/lpc.c **** //! \b LPC_IRQ13, \b LPC_IRQ12, \b LPC_IRQ11, \b LPC_IRQ10, \b LPC_IRQ9,
 426:/home/cuil/workspace/arm/lm3s811/TI_Stellaris/driverlib/lpc.c **** //! \b LPC_IRQ8, \b LPC_IRQ7, \b LPC_IRQ6, \b LPC_IRQ5, \b LPC_IRQ4,
 427:/home/cuil/workspace/arm/lm3s811/TI_Stellaris/driverlib/lpc.c **** //! \b LPC_IRQ3, \b LPC_IRQ2, \b LPC_IRQ1, \b LPC_IRQ0, \b LPC_IRQ_BUSY, or
 428:/home/cuil/workspace/arm/lm3s811/TI_Stellaris/driverlib/lpc.c **** //! \b LPC_IRQ_CONT.
 429:/home/cuil/workspace/arm/lm3s811/TI_Stellaris/driverlib/lpc.c **** //!
 430:/home/cuil/workspace/arm/lm3s811/TI_Stellaris/driverlib/lpc.c **** //! \return None.
 431:/home/cuil/workspace/arm/lm3s811/TI_Stellaris/driverlib/lpc.c **** //
 432:/home/cuil/workspace/arm/lm3s811/TI_Stellaris/driverlib/lpc.c **** //*****************************************************************************
 433:/home/cuil/workspace/arm/lm3s811/TI_Stellaris/driverlib/lpc.c **** unsigned long
 434:/home/cuil/workspace/arm/lm3s811/TI_Stellaris/driverlib/lpc.c **** LPCIRQGet(unsigned long ulBase)
 435:/home/cuil/workspace/arm/lm3s811/TI_Stellaris/driverlib/lpc.c **** {
 10307              		.loc 1 435 0
 10308              		.cfi_startproc
 10309              		@ args = 0, pretend = 0, frame = 8
 10310              		@ frame_needed = 1, uses_anonymous_args = 0
 10311              		@ link register save eliminated.
 10312 0000 80B4     		push	{r7}
 10313              	.LCFI27:
 10314              		.cfi_def_cfa_offset 4
 10315 0002 83B0     		sub	sp, sp, #12
 10316              	.LCFI28:
 10317              		.cfi_def_cfa_offset 16
 10318 0004 00AF     		add	r7, sp, #0
 10319              		.cfi_offset 7, -4
 10320              	.LCFI29:
 10321              		.cfi_def_cfa_register 7
 10322 0006 7860     		str	r0, [r7, #4]
 436:/home/cuil/workspace/arm/lm3s811/TI_Stellaris/driverlib/lpc.c ****     //
 437:/home/cuil/workspace/arm/lm3s811/TI_Stellaris/driverlib/lpc.c ****     // Check the arguments.
 438:/home/cuil/workspace/arm/lm3s811/TI_Stellaris/driverlib/lpc.c ****     //
 439:/home/cuil/workspace/arm/lm3s811/TI_Stellaris/driverlib/lpc.c ****     ASSERT(ulBase == LPC0_BASE);
 440:/home/cuil/workspace/arm/lm3s811/TI_Stellaris/driverlib/lpc.c **** 
 441:/home/cuil/workspace/arm/lm3s811/TI_Stellaris/driverlib/lpc.c ****     //
 442:/home/cuil/workspace/arm/lm3s811/TI_Stellaris/driverlib/lpc.c ****     // Simply read the registers and return the values.
 443:/home/cuil/workspace/arm/lm3s811/TI_Stellaris/driverlib/lpc.c ****     //
 444:/home/cuil/workspace/arm/lm3s811/TI_Stellaris/driverlib/lpc.c ****     return(HWREG(ulBase + LPC_O_IRQST));
 10323              		.loc 1 444 0
 10324 0008 7B68     		ldr	r3, [r7, #4]
 10325 000a 03F10C03 		add	r3, r3, #12
 10326 000e 1B68     		ldr	r3, [r3, #0]
 445:/home/cuil/workspace/arm/lm3s811/TI_Stellaris/driverlib/lpc.c **** }
 10327              		.loc 1 445 0
 10328 0010 1846     		mov	r0, r3
 10329 0012 07F10C07 		add	r7, r7, #12
 10330 0016 BD46     		mov	sp, r7
 10331 0018 80BC     		pop	{r7}
 10332 001a 7047     		bx	lr
 10333              		.cfi_endproc
 10334              	.LFE9:
 10336              		.section	.text.LPCIRQSend,"ax",%progbits
 10337              		.align	2
 10338              		.global	LPCIRQSend
 10339              		.thumb
 10340              		.thumb_func
 10342              	LPCIRQSend:
 10343              	.LFB10:
 446:/home/cuil/workspace/arm/lm3s811/TI_Stellaris/driverlib/lpc.c **** 
 447:/home/cuil/workspace/arm/lm3s811/TI_Stellaris/driverlib/lpc.c **** //*****************************************************************************
 448:/home/cuil/workspace/arm/lm3s811/TI_Stellaris/driverlib/lpc.c **** //
 449:/home/cuil/workspace/arm/lm3s811/TI_Stellaris/driverlib/lpc.c **** //! Trigger a manual SIRQ frame.
 450:/home/cuil/workspace/arm/lm3s811/TI_Stellaris/driverlib/lpc.c **** //!
 451:/home/cuil/workspace/arm/lm3s811/TI_Stellaris/driverlib/lpc.c **** //! \param ulBase specifies the LPC module base address.
 452:/home/cuil/workspace/arm/lm3s811/TI_Stellaris/driverlib/lpc.c **** //!
 453:/home/cuil/workspace/arm/lm3s811/TI_Stellaris/driverlib/lpc.c **** //! This function forces the sending of an SIRQ frame using whatever values are
 454:/home/cuil/workspace/arm/lm3s811/TI_Stellaris/driverlib/lpc.c **** //! currently set (auto and/or manual).
 455:/home/cuil/workspace/arm/lm3s811/TI_Stellaris/driverlib/lpc.c **** //!
 456:/home/cuil/workspace/arm/lm3s811/TI_Stellaris/driverlib/lpc.c **** //! \return None.
 457:/home/cuil/workspace/arm/lm3s811/TI_Stellaris/driverlib/lpc.c **** //
 458:/home/cuil/workspace/arm/lm3s811/TI_Stellaris/driverlib/lpc.c **** //*****************************************************************************
 459:/home/cuil/workspace/arm/lm3s811/TI_Stellaris/driverlib/lpc.c **** void
 460:/home/cuil/workspace/arm/lm3s811/TI_Stellaris/driverlib/lpc.c **** LPCIRQSend(unsigned long ulBase)
 461:/home/cuil/workspace/arm/lm3s811/TI_Stellaris/driverlib/lpc.c **** {
 10344              		.loc 1 461 0
 10345              		.cfi_startproc
 10346              		@ args = 0, pretend = 0, frame = 8
 10347              		@ frame_needed = 1, uses_anonymous_args = 0
 10348              		@ link register save eliminated.
 10349 0000 80B4     		push	{r7}
 10350              	.LCFI30:
 10351              		.cfi_def_cfa_offset 4
 10352 0002 83B0     		sub	sp, sp, #12
 10353              	.LCFI31:
 10354              		.cfi_def_cfa_offset 16
 10355 0004 00AF     		add	r7, sp, #0
 10356              		.cfi_offset 7, -4
 10357              	.LCFI32:
 10358              		.cfi_def_cfa_register 7
 10359 0006 7860     		str	r0, [r7, #4]
 462:/home/cuil/workspace/arm/lm3s811/TI_Stellaris/driverlib/lpc.c ****     //
 463:/home/cuil/workspace/arm/lm3s811/TI_Stellaris/driverlib/lpc.c ****     // Check the arguments.
 464:/home/cuil/workspace/arm/lm3s811/TI_Stellaris/driverlib/lpc.c ****     //
 465:/home/cuil/workspace/arm/lm3s811/TI_Stellaris/driverlib/lpc.c ****     ASSERT(ulBase == LPC0_BASE);
 466:/home/cuil/workspace/arm/lm3s811/TI_Stellaris/driverlib/lpc.c **** 
 467:/home/cuil/workspace/arm/lm3s811/TI_Stellaris/driverlib/lpc.c ****     //
 468:/home/cuil/workspace/arm/lm3s811/TI_Stellaris/driverlib/lpc.c ****     // Set the bit to force the sending of an SIRQ frame.
 469:/home/cuil/workspace/arm/lm3s811/TI_Stellaris/driverlib/lpc.c ****     //
 470:/home/cuil/workspace/arm/lm3s811/TI_Stellaris/driverlib/lpc.c ****     HWREG(ulBase + LPC_O_IRQCTL) |= LPC_IRQCTL_SND;
 10360              		.loc 1 470 0
 10361 0008 7B68     		ldr	r3, [r7, #4]
 10362 000a 03F10803 		add	r3, r3, #8
 10363 000e 7A68     		ldr	r2, [r7, #4]
 10364 0010 02F10802 		add	r2, r2, #8
 10365 0014 1268     		ldr	r2, [r2, #0]
 10366 0016 42F00102 		orr	r2, r2, #1
 10367 001a 1A60     		str	r2, [r3, #0]
 471:/home/cuil/workspace/arm/lm3s811/TI_Stellaris/driverlib/lpc.c **** }
 10368              		.loc 1 471 0
 10369 001c 07F10C07 		add	r7, r7, #12
 10370 0020 BD46     		mov	sp, r7
 10371 0022 80BC     		pop	{r7}
 10372 0024 7047     		bx	lr
 10373              		.cfi_endproc
 10374              	.LFE10:
 10376 0026 00BF     		.section	.text.LPCIntRegister,"ax",%progbits
 10377              		.align	2
 10378              		.global	LPCIntRegister
 10379              		.thumb
 10380              		.thumb_func
 10382              	LPCIntRegister:
 10383              	.LFB11:
 472:/home/cuil/workspace/arm/lm3s811/TI_Stellaris/driverlib/lpc.c **** 
 473:/home/cuil/workspace/arm/lm3s811/TI_Stellaris/driverlib/lpc.c **** //*****************************************************************************
 474:/home/cuil/workspace/arm/lm3s811/TI_Stellaris/driverlib/lpc.c **** //
 475:/home/cuil/workspace/arm/lm3s811/TI_Stellaris/driverlib/lpc.c **** //! Registers an interrupt handler for the LPC module.
 476:/home/cuil/workspace/arm/lm3s811/TI_Stellaris/driverlib/lpc.c **** //!
 477:/home/cuil/workspace/arm/lm3s811/TI_Stellaris/driverlib/lpc.c **** //! \param ulBase specifies the LPC module base address.
 478:/home/cuil/workspace/arm/lm3s811/TI_Stellaris/driverlib/lpc.c **** //! \param pfnHandler is a pointer to the function to be called when the
 479:/home/cuil/workspace/arm/lm3s811/TI_Stellaris/driverlib/lpc.c **** //! LPC interrupt occurs.
 480:/home/cuil/workspace/arm/lm3s811/TI_Stellaris/driverlib/lpc.c **** //!
 481:/home/cuil/workspace/arm/lm3s811/TI_Stellaris/driverlib/lpc.c **** //! This function registers the handler to be called when an LPC interrupt   
 482:/home/cuil/workspace/arm/lm3s811/TI_Stellaris/driverlib/lpc.c **** //! occurs. This function enables the global interrupt in the interrupt  
 483:/home/cuil/workspace/arm/lm3s811/TI_Stellaris/driverlib/lpc.c **** //! controller; specific LPC interrupts must be enabled via LPCIntEnable().  If  
 484:/home/cuil/workspace/arm/lm3s811/TI_Stellaris/driverlib/lpc.c **** //! necessary, it is the interrupt handler's responsibility to clear the  
 485:/home/cuil/workspace/arm/lm3s811/TI_Stellaris/driverlib/lpc.c **** //! interrupt source via LPCIntClear().
 486:/home/cuil/workspace/arm/lm3s811/TI_Stellaris/driverlib/lpc.c **** //!
 487:/home/cuil/workspace/arm/lm3s811/TI_Stellaris/driverlib/lpc.c **** //! \sa IntRegister() for important information about registering interrupt
 488:/home/cuil/workspace/arm/lm3s811/TI_Stellaris/driverlib/lpc.c **** //! handlers.
 489:/home/cuil/workspace/arm/lm3s811/TI_Stellaris/driverlib/lpc.c **** //!
 490:/home/cuil/workspace/arm/lm3s811/TI_Stellaris/driverlib/lpc.c **** //! \return None.
 491:/home/cuil/workspace/arm/lm3s811/TI_Stellaris/driverlib/lpc.c **** //
 492:/home/cuil/workspace/arm/lm3s811/TI_Stellaris/driverlib/lpc.c **** //*****************************************************************************
 493:/home/cuil/workspace/arm/lm3s811/TI_Stellaris/driverlib/lpc.c **** void
 494:/home/cuil/workspace/arm/lm3s811/TI_Stellaris/driverlib/lpc.c **** LPCIntRegister(unsigned long ulBase, void (*pfnHandler)(void))
 495:/home/cuil/workspace/arm/lm3s811/TI_Stellaris/driverlib/lpc.c **** {
 10384              		.loc 1 495 0
 10385              		.cfi_startproc
 10386              		@ args = 0, pretend = 0, frame = 8
 10387              		@ frame_needed = 1, uses_anonymous_args = 0
 10388 0000 80B5     		push	{r7, lr}
 10389              	.LCFI33:
 10390              		.cfi_def_cfa_offset 8
 10391 0002 82B0     		sub	sp, sp, #8
 10392              	.LCFI34:
 10393              		.cfi_def_cfa_offset 16
 10394 0004 00AF     		add	r7, sp, #0
 10395              		.cfi_offset 14, -4
 10396              		.cfi_offset 7, -8
 10397              	.LCFI35:
 10398              		.cfi_def_cfa_register 7
 10399 0006 7860     		str	r0, [r7, #4]
 10400 0008 3960     		str	r1, [r7, #0]
 496:/home/cuil/workspace/arm/lm3s811/TI_Stellaris/driverlib/lpc.c ****     //
 497:/home/cuil/workspace/arm/lm3s811/TI_Stellaris/driverlib/lpc.c ****     // Check the arguments.
 498:/home/cuil/workspace/arm/lm3s811/TI_Stellaris/driverlib/lpc.c ****     //
 499:/home/cuil/workspace/arm/lm3s811/TI_Stellaris/driverlib/lpc.c ****     ASSERT(ulBase == LPC0_BASE);
 500:/home/cuil/workspace/arm/lm3s811/TI_Stellaris/driverlib/lpc.c ****     ASSERT(pfnHandler != 0);
 501:/home/cuil/workspace/arm/lm3s811/TI_Stellaris/driverlib/lpc.c **** 
 502:/home/cuil/workspace/arm/lm3s811/TI_Stellaris/driverlib/lpc.c ****     //
 503:/home/cuil/workspace/arm/lm3s811/TI_Stellaris/driverlib/lpc.c ****     // Register the interrupt handler.
 504:/home/cuil/workspace/arm/lm3s811/TI_Stellaris/driverlib/lpc.c ****     //
 505:/home/cuil/workspace/arm/lm3s811/TI_Stellaris/driverlib/lpc.c ****     IntRegister(INT_LPC0, pfnHandler);
 10401              		.loc 1 505 0
 10402 000a 4FF07C00 		mov	r0, #124
 10403 000e 3968     		ldr	r1, [r7, #0]
 10404 0010 FFF7FEFF 		bl	IntRegister
 506:/home/cuil/workspace/arm/lm3s811/TI_Stellaris/driverlib/lpc.c **** 
 507:/home/cuil/workspace/arm/lm3s811/TI_Stellaris/driverlib/lpc.c ****     //
 508:/home/cuil/workspace/arm/lm3s811/TI_Stellaris/driverlib/lpc.c ****     // Enable the LPC interrupt.
 509:/home/cuil/workspace/arm/lm3s811/TI_Stellaris/driverlib/lpc.c ****     //
 510:/home/cuil/workspace/arm/lm3s811/TI_Stellaris/driverlib/lpc.c ****     IntEnable(INT_LPC0);
 10405              		.loc 1 510 0
 10406 0014 4FF07C00 		mov	r0, #124
 10407 0018 FFF7FEFF 		bl	IntEnable
 511:/home/cuil/workspace/arm/lm3s811/TI_Stellaris/driverlib/lpc.c **** }
 10408              		.loc 1 511 0
 10409 001c 07F10807 		add	r7, r7, #8
 10410 0020 BD46     		mov	sp, r7
 10411 0022 80BD     		pop	{r7, pc}
 10412              		.cfi_endproc
 10413              	.LFE11:
 10415              		.section	.text.LPCIntUnregister,"ax",%progbits
 10416              		.align	2
 10417              		.global	LPCIntUnregister
 10418              		.thumb
 10419              		.thumb_func
 10421              	LPCIntUnregister:
 10422              	.LFB12:
 512:/home/cuil/workspace/arm/lm3s811/TI_Stellaris/driverlib/lpc.c **** 
 513:/home/cuil/workspace/arm/lm3s811/TI_Stellaris/driverlib/lpc.c **** //*****************************************************************************
 514:/home/cuil/workspace/arm/lm3s811/TI_Stellaris/driverlib/lpc.c **** //
 515:/home/cuil/workspace/arm/lm3s811/TI_Stellaris/driverlib/lpc.c **** //! Unregisters an interrupt handler for the LPC module.
 516:/home/cuil/workspace/arm/lm3s811/TI_Stellaris/driverlib/lpc.c **** //!
 517:/home/cuil/workspace/arm/lm3s811/TI_Stellaris/driverlib/lpc.c **** //! \param ulBase specifies the LPC module base address.
 518:/home/cuil/workspace/arm/lm3s811/TI_Stellaris/driverlib/lpc.c **** //!
 519:/home/cuil/workspace/arm/lm3s811/TI_Stellaris/driverlib/lpc.c **** //! This function unregisters the handler to be called when an LPC interrupt
 520:/home/cuil/workspace/arm/lm3s811/TI_Stellaris/driverlib/lpc.c **** //! occurs.  This fucntion also masks off the interrupt in the interrupt 
 521:/home/cuil/workspace/arm/lm3s811/TI_Stellaris/driverlib/lpc.c **** //! controller so that the interrupt handler is no longer called.
 522:/home/cuil/workspace/arm/lm3s811/TI_Stellaris/driverlib/lpc.c **** //!
 523:/home/cuil/workspace/arm/lm3s811/TI_Stellaris/driverlib/lpc.c **** //! \sa IntRegister() for important information about registering interrupt
 524:/home/cuil/workspace/arm/lm3s811/TI_Stellaris/driverlib/lpc.c **** //! handlers.
 525:/home/cuil/workspace/arm/lm3s811/TI_Stellaris/driverlib/lpc.c **** //!
 526:/home/cuil/workspace/arm/lm3s811/TI_Stellaris/driverlib/lpc.c **** //! \return None.
 527:/home/cuil/workspace/arm/lm3s811/TI_Stellaris/driverlib/lpc.c **** //
 528:/home/cuil/workspace/arm/lm3s811/TI_Stellaris/driverlib/lpc.c **** //*****************************************************************************
 529:/home/cuil/workspace/arm/lm3s811/TI_Stellaris/driverlib/lpc.c **** void
 530:/home/cuil/workspace/arm/lm3s811/TI_Stellaris/driverlib/lpc.c **** LPCIntUnregister(unsigned long ulBase)
 531:/home/cuil/workspace/arm/lm3s811/TI_Stellaris/driverlib/lpc.c **** {
 10423              		.loc 1 531 0
 10424              		.cfi_startproc
 10425              		@ args = 0, pretend = 0, frame = 8
 10426              		@ frame_needed = 1, uses_anonymous_args = 0
 10427 0000 80B5     		push	{r7, lr}
 10428              	.LCFI36:
 10429              		.cfi_def_cfa_offset 8
 10430 0002 82B0     		sub	sp, sp, #8
 10431              	.LCFI37:
 10432              		.cfi_def_cfa_offset 16
 10433 0004 00AF     		add	r7, sp, #0
 10434              		.cfi_offset 14, -4
 10435              		.cfi_offset 7, -8
 10436              	.LCFI38:
 10437              		.cfi_def_cfa_register 7
 10438 0006 7860     		str	r0, [r7, #4]
 532:/home/cuil/workspace/arm/lm3s811/TI_Stellaris/driverlib/lpc.c ****     //
 533:/home/cuil/workspace/arm/lm3s811/TI_Stellaris/driverlib/lpc.c ****     // Check the arguments.
 534:/home/cuil/workspace/arm/lm3s811/TI_Stellaris/driverlib/lpc.c ****     //
 535:/home/cuil/workspace/arm/lm3s811/TI_Stellaris/driverlib/lpc.c ****     ASSERT(ulBase == LPC0_BASE);
 536:/home/cuil/workspace/arm/lm3s811/TI_Stellaris/driverlib/lpc.c **** 
 537:/home/cuil/workspace/arm/lm3s811/TI_Stellaris/driverlib/lpc.c ****     //
 538:/home/cuil/workspace/arm/lm3s811/TI_Stellaris/driverlib/lpc.c ****     // Disable the LPC interrupt.
 539:/home/cuil/workspace/arm/lm3s811/TI_Stellaris/driverlib/lpc.c ****     //
 540:/home/cuil/workspace/arm/lm3s811/TI_Stellaris/driverlib/lpc.c ****     IntDisable(INT_LPC0);
 10439              		.loc 1 540 0
 10440 0008 4FF07C00 		mov	r0, #124
 10441 000c FFF7FEFF 		bl	IntDisable
 541:/home/cuil/workspace/arm/lm3s811/TI_Stellaris/driverlib/lpc.c **** 
 542:/home/cuil/workspace/arm/lm3s811/TI_Stellaris/driverlib/lpc.c ****     //
 543:/home/cuil/workspace/arm/lm3s811/TI_Stellaris/driverlib/lpc.c ****     // Unregister the interrupt handler.
 544:/home/cuil/workspace/arm/lm3s811/TI_Stellaris/driverlib/lpc.c ****     //
 545:/home/cuil/workspace/arm/lm3s811/TI_Stellaris/driverlib/lpc.c ****     IntUnregister(INT_LPC0);
 10442              		.loc 1 545 0
 10443 0010 4FF07C00 		mov	r0, #124
 10444 0014 FFF7FEFF 		bl	IntUnregister
 546:/home/cuil/workspace/arm/lm3s811/TI_Stellaris/driverlib/lpc.c **** }
 10445              		.loc 1 546 0
 10446 0018 07F10807 		add	r7, r7, #8
 10447 001c BD46     		mov	sp, r7
 10448 001e 80BD     		pop	{r7, pc}
 10449              		.cfi_endproc
 10450              	.LFE12:
 10452              		.section	.text.LPCIntEnable,"ax",%progbits
 10453              		.align	2
 10454              		.global	LPCIntEnable
 10455              		.thumb
 10456              		.thumb_func
 10458              	LPCIntEnable:
 10459              	.LFB13:
 547:/home/cuil/workspace/arm/lm3s811/TI_Stellaris/driverlib/lpc.c **** 
 548:/home/cuil/workspace/arm/lm3s811/TI_Stellaris/driverlib/lpc.c **** //*****************************************************************************
 549:/home/cuil/workspace/arm/lm3s811/TI_Stellaris/driverlib/lpc.c **** //
 550:/home/cuil/workspace/arm/lm3s811/TI_Stellaris/driverlib/lpc.c **** //! Enables individual LPC interrupt sources.
 551:/home/cuil/workspace/arm/lm3s811/TI_Stellaris/driverlib/lpc.c **** //!
 552:/home/cuil/workspace/arm/lm3s811/TI_Stellaris/driverlib/lpc.c **** //! \param ulBase specifies the LPC module base address.
 553:/home/cuil/workspace/arm/lm3s811/TI_Stellaris/driverlib/lpc.c **** //! \param ulIntFlags is a bit mask of the interrupt sources to be enabled.
 554:/home/cuil/workspace/arm/lm3s811/TI_Stellaris/driverlib/lpc.c **** //!
 555:/home/cuil/workspace/arm/lm3s811/TI_Stellaris/driverlib/lpc.c **** //! This function enables the indicated LPC interrupt sources.  Only the 
 556:/home/cuil/workspace/arm/lm3s811/TI_Stellaris/driverlib/lpc.c **** //! sources that are enabled can be reflected to the processor interrupt; 
 557:/home/cuil/workspace/arm/lm3s811/TI_Stellaris/driverlib/lpc.c **** //! disabled sources have no effect on the processor.
 558:/home/cuil/workspace/arm/lm3s811/TI_Stellaris/driverlib/lpc.c **** //!
 559:/home/cuil/workspace/arm/lm3s811/TI_Stellaris/driverlib/lpc.c **** //! The \e ulIntFlags parameter can be any of the following values:
 560:/home/cuil/workspace/arm/lm3s811/TI_Stellaris/driverlib/lpc.c **** //! \b LPC_INT_RST, \b LPC_INT_SLEEP, \b LPC_INT_COMx, \b LPC_INT_SIRQ,
 561:/home/cuil/workspace/arm/lm3s811/TI_Stellaris/driverlib/lpc.c **** //! \b LPC_INT_CHx_EP_TO_HOST, \b LPC_INT_CHx_EP_FROM_DATA,
 562:/home/cuil/workspace/arm/lm3s811/TI_Stellaris/driverlib/lpc.c **** //! \b LPC_INT_CHx_EP_FROM_CMD, \b LPC_INT_CHx_MB_HOST_WON,
 563:/home/cuil/workspace/arm/lm3s811/TI_Stellaris/driverlib/lpc.c **** //! \b LPC_INT_CHx_MB_HOST_WRITE, \b LPC_INT_CHx_MB_HOST_READ, or
 564:/home/cuil/workspace/arm/lm3s811/TI_Stellaris/driverlib/lpc.c **** //! \b LPC_INT_CHx_MB_MCU_LOST, where \b CHx can be \b CH6, \b CH5, \b CH4,
 565:/home/cuil/workspace/arm/lm3s811/TI_Stellaris/driverlib/lpc.c **** //! \b CH3, \b CH2, \b CH1, or \b CH0.
 566:/home/cuil/workspace/arm/lm3s811/TI_Stellaris/driverlib/lpc.c **** //!
 567:/home/cuil/workspace/arm/lm3s811/TI_Stellaris/driverlib/lpc.c **** //! \return None.
 568:/home/cuil/workspace/arm/lm3s811/TI_Stellaris/driverlib/lpc.c **** //
 569:/home/cuil/workspace/arm/lm3s811/TI_Stellaris/driverlib/lpc.c **** //*****************************************************************************
 570:/home/cuil/workspace/arm/lm3s811/TI_Stellaris/driverlib/lpc.c **** void
 571:/home/cuil/workspace/arm/lm3s811/TI_Stellaris/driverlib/lpc.c **** LPCIntEnable(unsigned long ulBase, unsigned long ulIntFlags)
 572:/home/cuil/workspace/arm/lm3s811/TI_Stellaris/driverlib/lpc.c **** {
 10460              		.loc 1 572 0
 10461              		.cfi_startproc
 10462              		@ args = 0, pretend = 0, frame = 8
 10463              		@ frame_needed = 1, uses_anonymous_args = 0
 10464              		@ link register save eliminated.
 10465 0000 80B4     		push	{r7}
 10466              	.LCFI39:
 10467              		.cfi_def_cfa_offset 4
 10468 0002 83B0     		sub	sp, sp, #12
 10469              	.LCFI40:
 10470              		.cfi_def_cfa_offset 16
 10471 0004 00AF     		add	r7, sp, #0
 10472              		.cfi_offset 7, -4
 10473              	.LCFI41:
 10474              		.cfi_def_cfa_register 7
 10475 0006 7860     		str	r0, [r7, #4]
 10476 0008 3960     		str	r1, [r7, #0]
 573:/home/cuil/workspace/arm/lm3s811/TI_Stellaris/driverlib/lpc.c ****     //
 574:/home/cuil/workspace/arm/lm3s811/TI_Stellaris/driverlib/lpc.c ****     // Check the arguments.
 575:/home/cuil/workspace/arm/lm3s811/TI_Stellaris/driverlib/lpc.c ****     //
 576:/home/cuil/workspace/arm/lm3s811/TI_Stellaris/driverlib/lpc.c ****     ASSERT(ulBase == LPC0_BASE);
 577:/home/cuil/workspace/arm/lm3s811/TI_Stellaris/driverlib/lpc.c **** 
 578:/home/cuil/workspace/arm/lm3s811/TI_Stellaris/driverlib/lpc.c ****     //
 579:/home/cuil/workspace/arm/lm3s811/TI_Stellaris/driverlib/lpc.c ****     // Get the current mask value.
 580:/home/cuil/workspace/arm/lm3s811/TI_Stellaris/driverlib/lpc.c ****     //
 581:/home/cuil/workspace/arm/lm3s811/TI_Stellaris/driverlib/lpc.c ****     HWREG(ulBase + LPC_O_IM) |= ulIntFlags;
 10477              		.loc 1 581 0
 10478 000a 7B68     		ldr	r3, [r7, #4]
 10479 000c 03F58073 		add	r3, r3, #256
 10480 0010 7A68     		ldr	r2, [r7, #4]
 10481 0012 02F58072 		add	r2, r2, #256
 10482 0016 1168     		ldr	r1, [r2, #0]
 10483 0018 3A68     		ldr	r2, [r7, #0]
 10484 001a 41EA0202 		orr	r2, r1, r2
 10485 001e 1A60     		str	r2, [r3, #0]
 582:/home/cuil/workspace/arm/lm3s811/TI_Stellaris/driverlib/lpc.c **** }
 10486              		.loc 1 582 0
 10487 0020 07F10C07 		add	r7, r7, #12
 10488 0024 BD46     		mov	sp, r7
 10489 0026 80BC     		pop	{r7}
 10490 0028 7047     		bx	lr
 10491              		.cfi_endproc
 10492              	.LFE13:
 10494 002a 00BF     		.section	.text.LPCIntDisable,"ax",%progbits
 10495              		.align	2
 10496              		.global	LPCIntDisable
 10497              		.thumb
 10498              		.thumb_func
 10500              	LPCIntDisable:
 10501              	.LFB14:
 583:/home/cuil/workspace/arm/lm3s811/TI_Stellaris/driverlib/lpc.c **** 
 584:/home/cuil/workspace/arm/lm3s811/TI_Stellaris/driverlib/lpc.c **** //*****************************************************************************
 585:/home/cuil/workspace/arm/lm3s811/TI_Stellaris/driverlib/lpc.c **** //
 586:/home/cuil/workspace/arm/lm3s811/TI_Stellaris/driverlib/lpc.c **** //! Disables individual LPC interrupt sources.
 587:/home/cuil/workspace/arm/lm3s811/TI_Stellaris/driverlib/lpc.c **** //!
 588:/home/cuil/workspace/arm/lm3s811/TI_Stellaris/driverlib/lpc.c **** //! \param ulBase specifies the LPC module base address.
 589:/home/cuil/workspace/arm/lm3s811/TI_Stellaris/driverlib/lpc.c **** //! \param ulIntFlags is a bit mask of the interrupt sources to be disabled.
 590:/home/cuil/workspace/arm/lm3s811/TI_Stellaris/driverlib/lpc.c **** //!
 591:/home/cuil/workspace/arm/lm3s811/TI_Stellaris/driverlib/lpc.c **** //! This funciton disables the indicated LPC interrupt sources.  Only the 
 592:/home/cuil/workspace/arm/lm3s811/TI_Stellaris/driverlib/lpc.c **** //! sources that are enabled can be reflected to the processor interrupt; 
 593:/home/cuil/workspace/arm/lm3s811/TI_Stellaris/driverlib/lpc.c **** //! disabled sources have no effect on the processor.
 594:/home/cuil/workspace/arm/lm3s811/TI_Stellaris/driverlib/lpc.c **** //!
 595:/home/cuil/workspace/arm/lm3s811/TI_Stellaris/driverlib/lpc.c **** //! \sa The description of the LPCIntEnable() function provides detailed
 596:/home/cuil/workspace/arm/lm3s811/TI_Stellaris/driverlib/lpc.c **** //! information for the bit-mapped values in \e ulIntFlags.
 597:/home/cuil/workspace/arm/lm3s811/TI_Stellaris/driverlib/lpc.c **** //!
 598:/home/cuil/workspace/arm/lm3s811/TI_Stellaris/driverlib/lpc.c **** //! \return None.
 599:/home/cuil/workspace/arm/lm3s811/TI_Stellaris/driverlib/lpc.c **** //
 600:/home/cuil/workspace/arm/lm3s811/TI_Stellaris/driverlib/lpc.c **** //*****************************************************************************
 601:/home/cuil/workspace/arm/lm3s811/TI_Stellaris/driverlib/lpc.c **** void
 602:/home/cuil/workspace/arm/lm3s811/TI_Stellaris/driverlib/lpc.c **** LPCIntDisable(unsigned long ulBase, unsigned long ulIntFlags)
 603:/home/cuil/workspace/arm/lm3s811/TI_Stellaris/driverlib/lpc.c **** {
 10502              		.loc 1 603 0
 10503              		.cfi_startproc
 10504              		@ args = 0, pretend = 0, frame = 8
 10505              		@ frame_needed = 1, uses_anonymous_args = 0
 10506              		@ link register save eliminated.
 10507 0000 80B4     		push	{r7}
 10508              	.LCFI42:
 10509              		.cfi_def_cfa_offset 4
 10510 0002 83B0     		sub	sp, sp, #12
 10511              	.LCFI43:
 10512              		.cfi_def_cfa_offset 16
 10513 0004 00AF     		add	r7, sp, #0
 10514              		.cfi_offset 7, -4
 10515              	.LCFI44:
 10516              		.cfi_def_cfa_register 7
 10517 0006 7860     		str	r0, [r7, #4]
 10518 0008 3960     		str	r1, [r7, #0]
 604:/home/cuil/workspace/arm/lm3s811/TI_Stellaris/driverlib/lpc.c ****     //
 605:/home/cuil/workspace/arm/lm3s811/TI_Stellaris/driverlib/lpc.c ****     // Check the arguments.
 606:/home/cuil/workspace/arm/lm3s811/TI_Stellaris/driverlib/lpc.c ****     //
 607:/home/cuil/workspace/arm/lm3s811/TI_Stellaris/driverlib/lpc.c ****     ASSERT(ulBase == LPC0_BASE);
 608:/home/cuil/workspace/arm/lm3s811/TI_Stellaris/driverlib/lpc.c **** 
 609:/home/cuil/workspace/arm/lm3s811/TI_Stellaris/driverlib/lpc.c ****     //
 610:/home/cuil/workspace/arm/lm3s811/TI_Stellaris/driverlib/lpc.c ****     // Disable the specified interrupts.
 611:/home/cuil/workspace/arm/lm3s811/TI_Stellaris/driverlib/lpc.c ****     //
 612:/home/cuil/workspace/arm/lm3s811/TI_Stellaris/driverlib/lpc.c ****     HWREG(ulBase + LPC_O_IM) &= ~ulIntFlags;
 10519              		.loc 1 612 0
 10520 000a 7B68     		ldr	r3, [r7, #4]
 10521 000c 03F58073 		add	r3, r3, #256
 10522 0010 7A68     		ldr	r2, [r7, #4]
 10523 0012 02F58072 		add	r2, r2, #256
 10524 0016 1168     		ldr	r1, [r2, #0]
 10525 0018 3A68     		ldr	r2, [r7, #0]
 10526 001a 6FEA0202 		mvn	r2, r2
 10527 001e 01EA0202 		and	r2, r1, r2
 10528 0022 1A60     		str	r2, [r3, #0]
 613:/home/cuil/workspace/arm/lm3s811/TI_Stellaris/driverlib/lpc.c **** }
 10529              		.loc 1 613 0
 10530 0024 07F10C07 		add	r7, r7, #12
 10531 0028 BD46     		mov	sp, r7
 10532 002a 80BC     		pop	{r7}
 10533 002c 7047     		bx	lr
 10534              		.cfi_endproc
 10535              	.LFE14:
 10537 002e 00BF     		.section	.text.LPCIntStatus,"ax",%progbits
 10538              		.align	2
 10539              		.global	LPCIntStatus
 10540              		.thumb
 10541              		.thumb_func
 10543              	LPCIntStatus:
 10544              	.LFB15:
 614:/home/cuil/workspace/arm/lm3s811/TI_Stellaris/driverlib/lpc.c **** 
 615:/home/cuil/workspace/arm/lm3s811/TI_Stellaris/driverlib/lpc.c **** //*****************************************************************************
 616:/home/cuil/workspace/arm/lm3s811/TI_Stellaris/driverlib/lpc.c **** //
 617:/home/cuil/workspace/arm/lm3s811/TI_Stellaris/driverlib/lpc.c **** //! Gets the current interrupt status.
 618:/home/cuil/workspace/arm/lm3s811/TI_Stellaris/driverlib/lpc.c **** //!
 619:/home/cuil/workspace/arm/lm3s811/TI_Stellaris/driverlib/lpc.c **** //! \param ulBase specifies the LPC module base address.
 620:/home/cuil/workspace/arm/lm3s811/TI_Stellaris/driverlib/lpc.c **** //! \param bMasked is \b false if the raw interrupt status is required or
 621:/home/cuil/workspace/arm/lm3s811/TI_Stellaris/driverlib/lpc.c **** //! \b true if the masked interrupt status is required.
 622:/home/cuil/workspace/arm/lm3s811/TI_Stellaris/driverlib/lpc.c **** //!
 623:/home/cuil/workspace/arm/lm3s811/TI_Stellaris/driverlib/lpc.c **** //! This function returns the interrupt status for the LPC module.  Either the
 624:/home/cuil/workspace/arm/lm3s811/TI_Stellaris/driverlib/lpc.c **** //! raw interrupt status or the status of interrupts that are allowed to
 625:/home/cuil/workspace/arm/lm3s811/TI_Stellaris/driverlib/lpc.c **** //! reflect to the processor can be returned.
 626:/home/cuil/workspace/arm/lm3s811/TI_Stellaris/driverlib/lpc.c **** //!
 627:/home/cuil/workspace/arm/lm3s811/TI_Stellaris/driverlib/lpc.c **** //! The interpretation of the LPC_INT_CHx fields varies based on the type
 628:/home/cuil/workspace/arm/lm3s811/TI_Stellaris/driverlib/lpc.c **** //! value programed for the specific Channel.
 629:/home/cuil/workspace/arm/lm3s811/TI_Stellaris/driverlib/lpc.c **** //!
 630:/home/cuil/workspace/arm/lm3s811/TI_Stellaris/driverlib/lpc.c **** //! \sa The description of the LPCIntEnable() function provides detailed
 631:/home/cuil/workspace/arm/lm3s811/TI_Stellaris/driverlib/lpc.c **** //! information for the bit-mapped values returned by this function.
 632:/home/cuil/workspace/arm/lm3s811/TI_Stellaris/driverlib/lpc.c **** //!
 633:/home/cuil/workspace/arm/lm3s811/TI_Stellaris/driverlib/lpc.c **** //! \return The current interrupt status.
 634:/home/cuil/workspace/arm/lm3s811/TI_Stellaris/driverlib/lpc.c **** //
 635:/home/cuil/workspace/arm/lm3s811/TI_Stellaris/driverlib/lpc.c **** //*****************************************************************************
 636:/home/cuil/workspace/arm/lm3s811/TI_Stellaris/driverlib/lpc.c **** unsigned long
 637:/home/cuil/workspace/arm/lm3s811/TI_Stellaris/driverlib/lpc.c **** LPCIntStatus(unsigned long ulBase, tBoolean bMasked)
 638:/home/cuil/workspace/arm/lm3s811/TI_Stellaris/driverlib/lpc.c **** {
 10545              		.loc 1 638 0
 10546              		.cfi_startproc
 10547              		@ args = 0, pretend = 0, frame = 8
 10548              		@ frame_needed = 1, uses_anonymous_args = 0
 10549              		@ link register save eliminated.
 10550 0000 80B4     		push	{r7}
 10551              	.LCFI45:
 10552              		.cfi_def_cfa_offset 4
 10553 0002 83B0     		sub	sp, sp, #12
 10554              	.LCFI46:
 10555              		.cfi_def_cfa_offset 16
 10556 0004 00AF     		add	r7, sp, #0
 10557              		.cfi_offset 7, -4
 10558              	.LCFI47:
 10559              		.cfi_def_cfa_register 7
 10560 0006 7860     		str	r0, [r7, #4]
 10561 0008 0B46     		mov	r3, r1
 10562 000a FB70     		strb	r3, [r7, #3]
 639:/home/cuil/workspace/arm/lm3s811/TI_Stellaris/driverlib/lpc.c ****     //
 640:/home/cuil/workspace/arm/lm3s811/TI_Stellaris/driverlib/lpc.c ****     // Check the arguments.
 641:/home/cuil/workspace/arm/lm3s811/TI_Stellaris/driverlib/lpc.c ****     //
 642:/home/cuil/workspace/arm/lm3s811/TI_Stellaris/driverlib/lpc.c ****     ASSERT(ulBase == LPC0_BASE);
 643:/home/cuil/workspace/arm/lm3s811/TI_Stellaris/driverlib/lpc.c **** 
 644:/home/cuil/workspace/arm/lm3s811/TI_Stellaris/driverlib/lpc.c ****     //
 645:/home/cuil/workspace/arm/lm3s811/TI_Stellaris/driverlib/lpc.c ****     // Return either the interrupt status or the raw interrupt status as
 646:/home/cuil/workspace/arm/lm3s811/TI_Stellaris/driverlib/lpc.c ****     // requested.
 647:/home/cuil/workspace/arm/lm3s811/TI_Stellaris/driverlib/lpc.c ****     //
 648:/home/cuil/workspace/arm/lm3s811/TI_Stellaris/driverlib/lpc.c ****     if(bMasked)
 10563              		.loc 1 648 0
 10564 000c FB78     		ldrb	r3, [r7, #3]	@ zero_extendqisi2
 10565 000e 002B     		cmp	r3, #0
 10566 0010 04D0     		beq	.L26
 649:/home/cuil/workspace/arm/lm3s811/TI_Stellaris/driverlib/lpc.c ****     {
 650:/home/cuil/workspace/arm/lm3s811/TI_Stellaris/driverlib/lpc.c ****         return(HWREG(ulBase + LPC_O_MIS));
 10567              		.loc 1 650 0
 10568 0012 7B68     		ldr	r3, [r7, #4]
 10569 0014 03F58473 		add	r3, r3, #264
 10570 0018 1B68     		ldr	r3, [r3, #0]
 10571 001a 03E0     		b	.L27
 10572              	.L26:
 651:/home/cuil/workspace/arm/lm3s811/TI_Stellaris/driverlib/lpc.c ****     }
 652:/home/cuil/workspace/arm/lm3s811/TI_Stellaris/driverlib/lpc.c ****     else
 653:/home/cuil/workspace/arm/lm3s811/TI_Stellaris/driverlib/lpc.c ****     {
 654:/home/cuil/workspace/arm/lm3s811/TI_Stellaris/driverlib/lpc.c ****         return(HWREG(ulBase + LPC_O_RIS));
 10573              		.loc 1 654 0
 10574 001c 7B68     		ldr	r3, [r7, #4]
 10575 001e 03F58273 		add	r3, r3, #260
 10576 0022 1B68     		ldr	r3, [r3, #0]
 10577              	.L27:
 655:/home/cuil/workspace/arm/lm3s811/TI_Stellaris/driverlib/lpc.c ****     }
 656:/home/cuil/workspace/arm/lm3s811/TI_Stellaris/driverlib/lpc.c **** }
 10578              		.loc 1 656 0
 10579 0024 1846     		mov	r0, r3
 10580 0026 07F10C07 		add	r7, r7, #12
 10581 002a BD46     		mov	sp, r7
 10582 002c 80BC     		pop	{r7}
 10583 002e 7047     		bx	lr
 10584              		.cfi_endproc
 10585              	.LFE15:
 10587              		.section	.text.LPCIntClear,"ax",%progbits
 10588              		.align	2
 10589              		.global	LPCIntClear
 10590              		.thumb
 10591              		.thumb_func
 10593              	LPCIntClear:
 10594              	.LFB16:
 657:/home/cuil/workspace/arm/lm3s811/TI_Stellaris/driverlib/lpc.c **** 
 658:/home/cuil/workspace/arm/lm3s811/TI_Stellaris/driverlib/lpc.c **** //*****************************************************************************
 659:/home/cuil/workspace/arm/lm3s811/TI_Stellaris/driverlib/lpc.c **** //
 660:/home/cuil/workspace/arm/lm3s811/TI_Stellaris/driverlib/lpc.c **** //! Clears LPC interrupt sources.
 661:/home/cuil/workspace/arm/lm3s811/TI_Stellaris/driverlib/lpc.c **** //!
 662:/home/cuil/workspace/arm/lm3s811/TI_Stellaris/driverlib/lpc.c **** //! \param ulBase specifies the LPC module base address.
 663:/home/cuil/workspace/arm/lm3s811/TI_Stellaris/driverlib/lpc.c **** //! \param ulIntFlags is a bit mask of the interrupt sources to be cleared.
 664:/home/cuil/workspace/arm/lm3s811/TI_Stellaris/driverlib/lpc.c **** //!
 665:/home/cuil/workspace/arm/lm3s811/TI_Stellaris/driverlib/lpc.c **** //! The specified LPC interrupt sources are cleared so that they no longer
 666:/home/cuil/workspace/arm/lm3s811/TI_Stellaris/driverlib/lpc.c **** //! assert.  This function must be called in the interrupt handler to keep the
 667:/home/cuil/workspace/arm/lm3s811/TI_Stellaris/driverlib/lpc.c **** //! interrupts from being recognized again immediately upon exit.
 668:/home/cuil/workspace/arm/lm3s811/TI_Stellaris/driverlib/lpc.c **** //!
 669:/home/cuil/workspace/arm/lm3s811/TI_Stellaris/driverlib/lpc.c **** //! \sa The description of the LPCIntEnable() function provides detailed
 670:/home/cuil/workspace/arm/lm3s811/TI_Stellaris/driverlib/lpc.c **** //! information for the bit-mapped values in \e ulIntFlags.
 671:/home/cuil/workspace/arm/lm3s811/TI_Stellaris/driverlib/lpc.c **** //!
 672:/home/cuil/workspace/arm/lm3s811/TI_Stellaris/driverlib/lpc.c **** //! \note Because there is a write buffer in the Cortex-M processor, it may
 673:/home/cuil/workspace/arm/lm3s811/TI_Stellaris/driverlib/lpc.c **** //! take several clock cycles before the interrupt source is actually cleared.
 674:/home/cuil/workspace/arm/lm3s811/TI_Stellaris/driverlib/lpc.c **** //! Therefore, it is recommended that the interrupt source be cleared early in
 675:/home/cuil/workspace/arm/lm3s811/TI_Stellaris/driverlib/lpc.c **** //! the interrupt handler (as opposed to the very last action) to avoid
 676:/home/cuil/workspace/arm/lm3s811/TI_Stellaris/driverlib/lpc.c **** //! returning from the interrupt handler before the interrupt source is
 677:/home/cuil/workspace/arm/lm3s811/TI_Stellaris/driverlib/lpc.c **** //! actually cleared.  Failure to do so may result in the interrupt handler
 678:/home/cuil/workspace/arm/lm3s811/TI_Stellaris/driverlib/lpc.c **** //! being immediately reentered (because the interrupt controller still sees
 679:/home/cuil/workspace/arm/lm3s811/TI_Stellaris/driverlib/lpc.c **** //! the interrupt source asserted).
 680:/home/cuil/workspace/arm/lm3s811/TI_Stellaris/driverlib/lpc.c **** //!
 681:/home/cuil/workspace/arm/lm3s811/TI_Stellaris/driverlib/lpc.c **** //! \return None.
 682:/home/cuil/workspace/arm/lm3s811/TI_Stellaris/driverlib/lpc.c **** //
 683:/home/cuil/workspace/arm/lm3s811/TI_Stellaris/driverlib/lpc.c **** //*****************************************************************************
 684:/home/cuil/workspace/arm/lm3s811/TI_Stellaris/driverlib/lpc.c **** void
 685:/home/cuil/workspace/arm/lm3s811/TI_Stellaris/driverlib/lpc.c **** LPCIntClear(unsigned long ulBase, unsigned long ulIntFlags)
 686:/home/cuil/workspace/arm/lm3s811/TI_Stellaris/driverlib/lpc.c **** {
 10595              		.loc 1 686 0
 10596              		.cfi_startproc
 10597              		@ args = 0, pretend = 0, frame = 8
 10598              		@ frame_needed = 1, uses_anonymous_args = 0
 10599              		@ link register save eliminated.
 10600 0000 80B4     		push	{r7}
 10601              	.LCFI48:
 10602              		.cfi_def_cfa_offset 4
 10603 0002 83B0     		sub	sp, sp, #12
 10604              	.LCFI49:
 10605              		.cfi_def_cfa_offset 16
 10606 0004 00AF     		add	r7, sp, #0
 10607              		.cfi_offset 7, -4
 10608              	.LCFI50:
 10609              		.cfi_def_cfa_register 7
 10610 0006 7860     		str	r0, [r7, #4]
 10611 0008 3960     		str	r1, [r7, #0]
 687:/home/cuil/workspace/arm/lm3s811/TI_Stellaris/driverlib/lpc.c ****     //
 688:/home/cuil/workspace/arm/lm3s811/TI_Stellaris/driverlib/lpc.c ****     // Check the arguments.
 689:/home/cuil/workspace/arm/lm3s811/TI_Stellaris/driverlib/lpc.c ****     //
 690:/home/cuil/workspace/arm/lm3s811/TI_Stellaris/driverlib/lpc.c ****     ASSERT(ulBase == LPC0_BASE);
 691:/home/cuil/workspace/arm/lm3s811/TI_Stellaris/driverlib/lpc.c **** 
 692:/home/cuil/workspace/arm/lm3s811/TI_Stellaris/driverlib/lpc.c ****     //
 693:/home/cuil/workspace/arm/lm3s811/TI_Stellaris/driverlib/lpc.c ****     // Clear the requested interrupt sources.
 694:/home/cuil/workspace/arm/lm3s811/TI_Stellaris/driverlib/lpc.c ****     //
 695:/home/cuil/workspace/arm/lm3s811/TI_Stellaris/driverlib/lpc.c ****     HWREG(ulBase + LPC_O_IC) = ulIntFlags;
 10612              		.loc 1 695 0
 10613 000a 7B68     		ldr	r3, [r7, #4]
 10614 000c 03F58673 		add	r3, r3, #268
 10615 0010 3A68     		ldr	r2, [r7, #0]
 10616 0012 1A60     		str	r2, [r3, #0]
 696:/home/cuil/workspace/arm/lm3s811/TI_Stellaris/driverlib/lpc.c **** }
 10617              		.loc 1 696 0
 10618 0014 07F10C07 		add	r7, r7, #12
 10619 0018 BD46     		mov	sp, r7
 10620 001a 80BC     		pop	{r7}
 10621 001c 7047     		bx	lr
 10622              		.cfi_endproc
 10623              	.LFE16:
 10625 001e 00BF     		.section	.text.LPCChannelEnable,"ax",%progbits
 10626              		.align	2
 10627              		.global	LPCChannelEnable
 10628              		.thumb
 10629              		.thumb_func
 10631              	LPCChannelEnable:
 10632              	.LFB17:
 697:/home/cuil/workspace/arm/lm3s811/TI_Stellaris/driverlib/lpc.c **** 
 698:/home/cuil/workspace/arm/lm3s811/TI_Stellaris/driverlib/lpc.c **** //*****************************************************************************
 699:/home/cuil/workspace/arm/lm3s811/TI_Stellaris/driverlib/lpc.c **** //
 700:/home/cuil/workspace/arm/lm3s811/TI_Stellaris/driverlib/lpc.c **** //! Enables an LPC Channel.
 701:/home/cuil/workspace/arm/lm3s811/TI_Stellaris/driverlib/lpc.c **** //!
 702:/home/cuil/workspace/arm/lm3s811/TI_Stellaris/driverlib/lpc.c **** //! \param ulBase specifies the LPC module base address.
 703:/home/cuil/workspace/arm/lm3s811/TI_Stellaris/driverlib/lpc.c **** //! \param ulChannel specifies the LPC channel to enable.
 704:/home/cuil/workspace/arm/lm3s811/TI_Stellaris/driverlib/lpc.c **** //!
 705:/home/cuil/workspace/arm/lm3s811/TI_Stellaris/driverlib/lpc.c **** //! The specified LPC Channel is enabled.
 706:/home/cuil/workspace/arm/lm3s811/TI_Stellaris/driverlib/lpc.c **** //!
 707:/home/cuil/workspace/arm/lm3s811/TI_Stellaris/driverlib/lpc.c **** //! The value for the \e ulChannel parameter can be any one of the following
 708:/home/cuil/workspace/arm/lm3s811/TI_Stellaris/driverlib/lpc.c **** //! values:  \b LPC_CHAN_CH0, \b LPC_CHAN_CH1, \b LPC_CHAN_CH2,
 709:/home/cuil/workspace/arm/lm3s811/TI_Stellaris/driverlib/lpc.c **** //! \b LPC_CHAN_CH3, \b LPC_CHAN_CH4, \b LPC_CHAN_CH5, \b LPC_CHAN_CH6 or
 710:/home/cuil/workspace/arm/lm3s811/TI_Stellaris/driverlib/lpc.c **** //! \b LPC_CHAN_CH7.
 711:/home/cuil/workspace/arm/lm3s811/TI_Stellaris/driverlib/lpc.c **** //!
 712:/home/cuil/workspace/arm/lm3s811/TI_Stellaris/driverlib/lpc.c **** //! \return None.
 713:/home/cuil/workspace/arm/lm3s811/TI_Stellaris/driverlib/lpc.c **** //
 714:/home/cuil/workspace/arm/lm3s811/TI_Stellaris/driverlib/lpc.c **** //*****************************************************************************
 715:/home/cuil/workspace/arm/lm3s811/TI_Stellaris/driverlib/lpc.c **** void
 716:/home/cuil/workspace/arm/lm3s811/TI_Stellaris/driverlib/lpc.c **** LPCChannelEnable(unsigned long ulBase, unsigned long ulChannel)
 717:/home/cuil/workspace/arm/lm3s811/TI_Stellaris/driverlib/lpc.c **** {
 10633              		.loc 1 717 0
 10634              		.cfi_startproc
 10635              		@ args = 0, pretend = 0, frame = 8
 10636              		@ frame_needed = 1, uses_anonymous_args = 0
 10637              		@ link register save eliminated.
 10638 0000 80B4     		push	{r7}
 10639              	.LCFI51:
 10640              		.cfi_def_cfa_offset 4
 10641 0002 83B0     		sub	sp, sp, #12
 10642              	.LCFI52:
 10643              		.cfi_def_cfa_offset 16
 10644 0004 00AF     		add	r7, sp, #0
 10645              		.cfi_offset 7, -4
 10646              	.LCFI53:
 10647              		.cfi_def_cfa_register 7
 10648 0006 7860     		str	r0, [r7, #4]
 10649 0008 3960     		str	r1, [r7, #0]
 718:/home/cuil/workspace/arm/lm3s811/TI_Stellaris/driverlib/lpc.c ****     //
 719:/home/cuil/workspace/arm/lm3s811/TI_Stellaris/driverlib/lpc.c ****     // Check the arguments.
 720:/home/cuil/workspace/arm/lm3s811/TI_Stellaris/driverlib/lpc.c ****     //
 721:/home/cuil/workspace/arm/lm3s811/TI_Stellaris/driverlib/lpc.c ****     ASSERT(ulBase == LPC0_BASE);
 722:/home/cuil/workspace/arm/lm3s811/TI_Stellaris/driverlib/lpc.c ****     ASSERT(LPCChannelValid(ulChannel));
 723:/home/cuil/workspace/arm/lm3s811/TI_Stellaris/driverlib/lpc.c **** 
 724:/home/cuil/workspace/arm/lm3s811/TI_Stellaris/driverlib/lpc.c ****     //
 725:/home/cuil/workspace/arm/lm3s811/TI_Stellaris/driverlib/lpc.c ****     // Enable the specified channel.
 726:/home/cuil/workspace/arm/lm3s811/TI_Stellaris/driverlib/lpc.c ****     //
 727:/home/cuil/workspace/arm/lm3s811/TI_Stellaris/driverlib/lpc.c ****     HWREG(ulBase + LPC_O_CTL) |= (1 << ulChannel);
 10650              		.loc 1 727 0
 10651 000a 7B68     		ldr	r3, [r7, #4]
 10652 000c 7A68     		ldr	r2, [r7, #4]
 10653 000e 1168     		ldr	r1, [r2, #0]
 10654 0010 3A68     		ldr	r2, [r7, #0]
 10655 0012 4FF00100 		mov	r0, #1
 10656 0016 00FA02F2 		lsl	r2, r0, r2
 10657 001a 41EA0202 		orr	r2, r1, r2
 10658 001e 1A60     		str	r2, [r3, #0]
 728:/home/cuil/workspace/arm/lm3s811/TI_Stellaris/driverlib/lpc.c **** }
 10659              		.loc 1 728 0
 10660 0020 07F10C07 		add	r7, r7, #12
 10661 0024 BD46     		mov	sp, r7
 10662 0026 80BC     		pop	{r7}
 10663 0028 7047     		bx	lr
 10664              		.cfi_endproc
 10665              	.LFE17:
 10667 002a 00BF     		.section	.text.LPCChannelDisable,"ax",%progbits
 10668              		.align	2
 10669              		.global	LPCChannelDisable
 10670              		.thumb
 10671              		.thumb_func
 10673              	LPCChannelDisable:
 10674              	.LFB18:
 729:/home/cuil/workspace/arm/lm3s811/TI_Stellaris/driverlib/lpc.c **** 
 730:/home/cuil/workspace/arm/lm3s811/TI_Stellaris/driverlib/lpc.c **** //*****************************************************************************
 731:/home/cuil/workspace/arm/lm3s811/TI_Stellaris/driverlib/lpc.c **** //
 732:/home/cuil/workspace/arm/lm3s811/TI_Stellaris/driverlib/lpc.c **** //! Disables an LPC Channel.
 733:/home/cuil/workspace/arm/lm3s811/TI_Stellaris/driverlib/lpc.c **** //!
 734:/home/cuil/workspace/arm/lm3s811/TI_Stellaris/driverlib/lpc.c **** //! \param ulBase specifies the LPC module base address.
 735:/home/cuil/workspace/arm/lm3s811/TI_Stellaris/driverlib/lpc.c **** //! \param ulChannel specifies the LPC channel to disable.
 736:/home/cuil/workspace/arm/lm3s811/TI_Stellaris/driverlib/lpc.c **** //!
 737:/home/cuil/workspace/arm/lm3s811/TI_Stellaris/driverlib/lpc.c **** //! This function disables the specified LPC Channel.
 738:/home/cuil/workspace/arm/lm3s811/TI_Stellaris/driverlib/lpc.c **** //!
 739:/home/cuil/workspace/arm/lm3s811/TI_Stellaris/driverlib/lpc.c **** //! \sa The description of the LPCChannelEnable() function provides detailed
 740:/home/cuil/workspace/arm/lm3s811/TI_Stellaris/driverlib/lpc.c **** //! information for the values that can be usd for the \e ulChannel parameter.
 741:/home/cuil/workspace/arm/lm3s811/TI_Stellaris/driverlib/lpc.c **** //!
 742:/home/cuil/workspace/arm/lm3s811/TI_Stellaris/driverlib/lpc.c **** //! \return None.
 743:/home/cuil/workspace/arm/lm3s811/TI_Stellaris/driverlib/lpc.c **** //
 744:/home/cuil/workspace/arm/lm3s811/TI_Stellaris/driverlib/lpc.c **** //*****************************************************************************
 745:/home/cuil/workspace/arm/lm3s811/TI_Stellaris/driverlib/lpc.c **** void
 746:/home/cuil/workspace/arm/lm3s811/TI_Stellaris/driverlib/lpc.c **** LPCChannelDisable(unsigned long ulBase, unsigned long ulChannel)
 747:/home/cuil/workspace/arm/lm3s811/TI_Stellaris/driverlib/lpc.c **** {
 10675              		.loc 1 747 0
 10676              		.cfi_startproc
 10677              		@ args = 0, pretend = 0, frame = 8
 10678              		@ frame_needed = 1, uses_anonymous_args = 0
 10679              		@ link register save eliminated.
 10680 0000 80B4     		push	{r7}
 10681              	.LCFI54:
 10682              		.cfi_def_cfa_offset 4
 10683 0002 83B0     		sub	sp, sp, #12
 10684              	.LCFI55:
 10685              		.cfi_def_cfa_offset 16
 10686 0004 00AF     		add	r7, sp, #0
 10687              		.cfi_offset 7, -4
 10688              	.LCFI56:
 10689              		.cfi_def_cfa_register 7
 10690 0006 7860     		str	r0, [r7, #4]
 10691 0008 3960     		str	r1, [r7, #0]
 748:/home/cuil/workspace/arm/lm3s811/TI_Stellaris/driverlib/lpc.c ****     //
 749:/home/cuil/workspace/arm/lm3s811/TI_Stellaris/driverlib/lpc.c ****     // Check the arguments.
 750:/home/cuil/workspace/arm/lm3s811/TI_Stellaris/driverlib/lpc.c ****     //
 751:/home/cuil/workspace/arm/lm3s811/TI_Stellaris/driverlib/lpc.c ****     ASSERT(ulBase == LPC0_BASE);
 752:/home/cuil/workspace/arm/lm3s811/TI_Stellaris/driverlib/lpc.c ****     ASSERT(LPCChannelValid(ulChannel));
 753:/home/cuil/workspace/arm/lm3s811/TI_Stellaris/driverlib/lpc.c **** 
 754:/home/cuil/workspace/arm/lm3s811/TI_Stellaris/driverlib/lpc.c ****     //
 755:/home/cuil/workspace/arm/lm3s811/TI_Stellaris/driverlib/lpc.c ****     // Disable the specified channel.
 756:/home/cuil/workspace/arm/lm3s811/TI_Stellaris/driverlib/lpc.c ****     //
 757:/home/cuil/workspace/arm/lm3s811/TI_Stellaris/driverlib/lpc.c ****     HWREG(ulBase + LPC_O_CTL) &= ~(1 << ulChannel);
 10692              		.loc 1 757 0
 10693 000a 7B68     		ldr	r3, [r7, #4]
 10694 000c 7A68     		ldr	r2, [r7, #4]
 10695 000e 1168     		ldr	r1, [r2, #0]
 10696 0010 3A68     		ldr	r2, [r7, #0]
 10697 0012 4FF00100 		mov	r0, #1
 10698 0016 00FA02F2 		lsl	r2, r0, r2
 10699 001a 6FEA0202 		mvn	r2, r2
 10700 001e 01EA0202 		and	r2, r1, r2
 10701 0022 1A60     		str	r2, [r3, #0]
 758:/home/cuil/workspace/arm/lm3s811/TI_Stellaris/driverlib/lpc.c **** }
 10702              		.loc 1 758 0
 10703 0024 07F10C07 		add	r7, r7, #12
 10704 0028 BD46     		mov	sp, r7
 10705 002a 80BC     		pop	{r7}
 10706 002c 7047     		bx	lr
 10707              		.cfi_endproc
 10708              	.LFE18:
 10710 002e 00BF     		.section	.text.LPCChannelConfigEPSet,"ax",%progbits
 10711              		.align	2
 10712              		.global	LPCChannelConfigEPSet
 10713              		.thumb
 10714              		.thumb_func
 10716              	LPCChannelConfigEPSet:
 10717              	.LFB19:
 759:/home/cuil/workspace/arm/lm3s811/TI_Stellaris/driverlib/lpc.c **** 
 760:/home/cuil/workspace/arm/lm3s811/TI_Stellaris/driverlib/lpc.c **** //*****************************************************************************
 761:/home/cuil/workspace/arm/lm3s811/TI_Stellaris/driverlib/lpc.c **** //
 762:/home/cuil/workspace/arm/lm3s811/TI_Stellaris/driverlib/lpc.c **** //! Sets the configuration of an LPC Channel as an endpoint.
 763:/home/cuil/workspace/arm/lm3s811/TI_Stellaris/driverlib/lpc.c **** //!
 764:/home/cuil/workspace/arm/lm3s811/TI_Stellaris/driverlib/lpc.c **** //! \param ulBase specifies the LPC module base address.
 765:/home/cuil/workspace/arm/lm3s811/TI_Stellaris/driverlib/lpc.c **** //! \param ulChannel specifies the LPC channel to configure.
 766:/home/cuil/workspace/arm/lm3s811/TI_Stellaris/driverlib/lpc.c **** //! \param ulConfig specifies configuration options required for the endpoint.
 767:/home/cuil/workspace/arm/lm3s811/TI_Stellaris/driverlib/lpc.c **** //! \param ulOffset specifies the offset from the beginning of the buffer pool
 768:/home/cuil/workspace/arm/lm3s811/TI_Stellaris/driverlib/lpc.c **** //! for this endpoint's data.
 769:/home/cuil/workspace/arm/lm3s811/TI_Stellaris/driverlib/lpc.c **** //! \param ulAddress specifies the LPC bus address (IO and/or MEM) for this
 770:/home/cuil/workspace/arm/lm3s811/TI_Stellaris/driverlib/lpc.c **** //! channel.
 771:/home/cuil/workspace/arm/lm3s811/TI_Stellaris/driverlib/lpc.c **** //!
 772:/home/cuil/workspace/arm/lm3s811/TI_Stellaris/driverlib/lpc.c **** //! This function enables the specified LPC Channel as an endpoint.
 773:/home/cuil/workspace/arm/lm3s811/TI_Stellaris/driverlib/lpc.c **** //!
 774:/home/cuil/workspace/arm/lm3s811/TI_Stellaris/driverlib/lpc.c **** //! \return None.
 775:/home/cuil/workspace/arm/lm3s811/TI_Stellaris/driverlib/lpc.c **** //
 776:/home/cuil/workspace/arm/lm3s811/TI_Stellaris/driverlib/lpc.c **** //*****************************************************************************
 777:/home/cuil/workspace/arm/lm3s811/TI_Stellaris/driverlib/lpc.c **** void
 778:/home/cuil/workspace/arm/lm3s811/TI_Stellaris/driverlib/lpc.c **** LPCChannelConfigEPSet(unsigned long ulBase, unsigned long ulChannel,
 779:/home/cuil/workspace/arm/lm3s811/TI_Stellaris/driverlib/lpc.c ****                       unsigned long ulConfig, unsigned long ulAddress,
 780:/home/cuil/workspace/arm/lm3s811/TI_Stellaris/driverlib/lpc.c ****                       unsigned long ulOffset)
 781:/home/cuil/workspace/arm/lm3s811/TI_Stellaris/driverlib/lpc.c **** {
 10718              		.loc 1 781 0
 10719              		.cfi_startproc
 10720              		@ args = 4, pretend = 0, frame = 16
 10721              		@ frame_needed = 1, uses_anonymous_args = 0
 10722              		@ link register save eliminated.
 10723 0000 80B4     		push	{r7}
 10724              	.LCFI57:
 10725              		.cfi_def_cfa_offset 4
 10726 0002 85B0     		sub	sp, sp, #20
 10727              	.LCFI58:
 10728              		.cfi_def_cfa_offset 24
 10729 0004 00AF     		add	r7, sp, #0
 10730              		.cfi_offset 7, -4
 10731              	.LCFI59:
 10732              		.cfi_def_cfa_register 7
 10733 0006 F860     		str	r0, [r7, #12]
 10734 0008 B960     		str	r1, [r7, #8]
 10735 000a 7A60     		str	r2, [r7, #4]
 10736 000c 3B60     		str	r3, [r7, #0]
 782:/home/cuil/workspace/arm/lm3s811/TI_Stellaris/driverlib/lpc.c ****     //
 783:/home/cuil/workspace/arm/lm3s811/TI_Stellaris/driverlib/lpc.c ****     // Check the arguments.
 784:/home/cuil/workspace/arm/lm3s811/TI_Stellaris/driverlib/lpc.c ****     //
 785:/home/cuil/workspace/arm/lm3s811/TI_Stellaris/driverlib/lpc.c ****     ASSERT(ulBase == LPC0_BASE);
 786:/home/cuil/workspace/arm/lm3s811/TI_Stellaris/driverlib/lpc.c ****     ASSERT(LPCChannelValid(ulChannel));
 787:/home/cuil/workspace/arm/lm3s811/TI_Stellaris/driverlib/lpc.c ****     ASSERT((ulConfig & ~(LPC_CH0CTL_IRQSEL1_M | LPC_CH0CTL_IRQSEL0_M |
 788:/home/cuil/workspace/arm/lm3s811/TI_Stellaris/driverlib/lpc.c ****                          LPC_CH0CTL_IRQEN1 | LPC_CH0CTL_IRQEN0_M)) == 0);
 789:/home/cuil/workspace/arm/lm3s811/TI_Stellaris/driverlib/lpc.c ****     ASSERT((ulOffset & 3) == 0);
 790:/home/cuil/workspace/arm/lm3s811/TI_Stellaris/driverlib/lpc.c ****     ASSERT(ulOffset < ((((HWREG(ulBase + LPC_O_STS) & LPC_STS_POOLSZ_M) >>
 791:/home/cuil/workspace/arm/lm3s811/TI_Stellaris/driverlib/lpc.c ****               16) * 256) - 4));
 792:/home/cuil/workspace/arm/lm3s811/TI_Stellaris/driverlib/lpc.c **** 
 793:/home/cuil/workspace/arm/lm3s811/TI_Stellaris/driverlib/lpc.c ****     //
 794:/home/cuil/workspace/arm/lm3s811/TI_Stellaris/driverlib/lpc.c ****     // Convert the byte offset address into a half-word
 795:/home/cuil/workspace/arm/lm3s811/TI_Stellaris/driverlib/lpc.c ****     // offset address and add into the control word.
 796:/home/cuil/workspace/arm/lm3s811/TI_Stellaris/driverlib/lpc.c ****     //
 797:/home/cuil/workspace/arm/lm3s811/TI_Stellaris/driverlib/lpc.c ****     ulConfig |= (((ulOffset >> 1) << LPC_CH0CTL_OFFSET_S) &
 10737              		.loc 1 797 0
 10738 000e BB69     		ldr	r3, [r7, #24]
 10739 0010 4FEA5303 		lsr	r3, r3, #1
 10740 0014 4FEA4312 		lsl	r2, r3, #5
 10741 0018 43F6E073 		movw	r3, #16352
 10742 001c 02EA0303 		and	r3, r2, r3
 10743 0020 7A68     		ldr	r2, [r7, #4]
 10744 0022 42EA0303 		orr	r3, r2, r3
 10745 0026 7B60     		str	r3, [r7, #4]
 798:/home/cuil/workspace/arm/lm3s811/TI_Stellaris/driverlib/lpc.c ****                  LPC_CH0CTL_OFFSET_M);
 799:/home/cuil/workspace/arm/lm3s811/TI_Stellaris/driverlib/lpc.c **** 
 800:/home/cuil/workspace/arm/lm3s811/TI_Stellaris/driverlib/lpc.c ****     //
 801:/home/cuil/workspace/arm/lm3s811/TI_Stellaris/driverlib/lpc.c ****     // Write the final control value into the control word for
 802:/home/cuil/workspace/arm/lm3s811/TI_Stellaris/driverlib/lpc.c ****     // the channel.
 803:/home/cuil/workspace/arm/lm3s811/TI_Stellaris/driverlib/lpc.c ****     //
 804:/home/cuil/workspace/arm/lm3s811/TI_Stellaris/driverlib/lpc.c ****     HWREG(ulBase + LPC_O_CH0CTL + (ulChannel * 0x10)) = ulConfig;
 10746              		.loc 1 804 0
 10747 0028 BB68     		ldr	r3, [r7, #8]
 10748 002a 4FEA0312 		lsl	r2, r3, #4
 10749 002e FB68     		ldr	r3, [r7, #12]
 10750 0030 D318     		adds	r3, r2, r3
 10751 0032 03F11003 		add	r3, r3, #16
 10752 0036 7A68     		ldr	r2, [r7, #4]
 10753 0038 1A60     		str	r2, [r3, #0]
 805:/home/cuil/workspace/arm/lm3s811/TI_Stellaris/driverlib/lpc.c **** 
 806:/home/cuil/workspace/arm/lm3s811/TI_Stellaris/driverlib/lpc.c ****     //
 807:/home/cuil/workspace/arm/lm3s811/TI_Stellaris/driverlib/lpc.c ****     // Setup the IO and/or MEM address to match for this channel.
 808:/home/cuil/workspace/arm/lm3s811/TI_Stellaris/driverlib/lpc.c ****     //
 809:/home/cuil/workspace/arm/lm3s811/TI_Stellaris/driverlib/lpc.c ****     HWREG(ulBase + LPC_O_CH0ADR + (ulChannel * 0x10)) = ulAddress;
 10754              		.loc 1 809 0
 10755 003a BB68     		ldr	r3, [r7, #8]
 10756 003c 4FEA0312 		lsl	r2, r3, #4
 10757 0040 FB68     		ldr	r3, [r7, #12]
 10758 0042 D318     		adds	r3, r2, r3
 10759 0044 03F11803 		add	r3, r3, #24
 10760 0048 3A68     		ldr	r2, [r7, #0]
 10761 004a 1A60     		str	r2, [r3, #0]
 810:/home/cuil/workspace/arm/lm3s811/TI_Stellaris/driverlib/lpc.c **** }
 10762              		.loc 1 810 0
 10763 004c 07F11407 		add	r7, r7, #20
 10764 0050 BD46     		mov	sp, r7
 10765 0052 80BC     		pop	{r7}
 10766 0054 7047     		bx	lr
 10767              		.cfi_endproc
 10768              	.LFE19:
 10770 0056 00BF     		.section	.text.LPCChannelConfigMBSet,"ax",%progbits
 10771              		.align	2
 10772              		.global	LPCChannelConfigMBSet
 10773              		.thumb
 10774              		.thumb_func
 10776              	LPCChannelConfigMBSet:
 10777              	.LFB20:
 811:/home/cuil/workspace/arm/lm3s811/TI_Stellaris/driverlib/lpc.c **** 
 812:/home/cuil/workspace/arm/lm3s811/TI_Stellaris/driverlib/lpc.c **** //*****************************************************************************
 813:/home/cuil/workspace/arm/lm3s811/TI_Stellaris/driverlib/lpc.c **** //
 814:/home/cuil/workspace/arm/lm3s811/TI_Stellaris/driverlib/lpc.c **** //! Sets the configuration of an LPC Channel as a mailbox.
 815:/home/cuil/workspace/arm/lm3s811/TI_Stellaris/driverlib/lpc.c **** //!
 816:/home/cuil/workspace/arm/lm3s811/TI_Stellaris/driverlib/lpc.c **** //! \param ulBase specifies the LPC module base address.
 817:/home/cuil/workspace/arm/lm3s811/TI_Stellaris/driverlib/lpc.c **** //! \param ulChannel specifies the LPC channel to configure.
 818:/home/cuil/workspace/arm/lm3s811/TI_Stellaris/driverlib/lpc.c **** //! \param ulConfig specifies configuration options required for the endpoint.
 819:/home/cuil/workspace/arm/lm3s811/TI_Stellaris/driverlib/lpc.c **** //! \param ulOffset specifies the offset from the beginning of the buffer pool
 820:/home/cuil/workspace/arm/lm3s811/TI_Stellaris/driverlib/lpc.c **** //! for this endpoint's data.
 821:/home/cuil/workspace/arm/lm3s811/TI_Stellaris/driverlib/lpc.c **** //! \param ulAddress specifies the LPC bus address (IO and/or MEM) for this
 822:/home/cuil/workspace/arm/lm3s811/TI_Stellaris/driverlib/lpc.c **** //! channel.
 823:/home/cuil/workspace/arm/lm3s811/TI_Stellaris/driverlib/lpc.c **** //!
 824:/home/cuil/workspace/arm/lm3s811/TI_Stellaris/driverlib/lpc.c **** //! This function enables the specified LPC Channel as a mailbox.
 825:/home/cuil/workspace/arm/lm3s811/TI_Stellaris/driverlib/lpc.c **** //!
 826:/home/cuil/workspace/arm/lm3s811/TI_Stellaris/driverlib/lpc.c **** //! \return None.
 827:/home/cuil/workspace/arm/lm3s811/TI_Stellaris/driverlib/lpc.c **** //
 828:/home/cuil/workspace/arm/lm3s811/TI_Stellaris/driverlib/lpc.c **** //*****************************************************************************
 829:/home/cuil/workspace/arm/lm3s811/TI_Stellaris/driverlib/lpc.c **** void
 830:/home/cuil/workspace/arm/lm3s811/TI_Stellaris/driverlib/lpc.c **** LPCChannelConfigMBSet(unsigned long ulBase, unsigned long ulChannel,
 831:/home/cuil/workspace/arm/lm3s811/TI_Stellaris/driverlib/lpc.c ****                       unsigned long ulConfig, unsigned long ulAddress,
 832:/home/cuil/workspace/arm/lm3s811/TI_Stellaris/driverlib/lpc.c ****                       unsigned long ulOffset)
 833:/home/cuil/workspace/arm/lm3s811/TI_Stellaris/driverlib/lpc.c **** {
 10778              		.loc 1 833 0
 10779              		.cfi_startproc
 10780              		@ args = 4, pretend = 0, frame = 16
 10781              		@ frame_needed = 1, uses_anonymous_args = 0
 10782              		@ link register save eliminated.
 10783 0000 80B4     		push	{r7}
 10784              	.LCFI60:
 10785              		.cfi_def_cfa_offset 4
 10786 0002 85B0     		sub	sp, sp, #20
 10787              	.LCFI61:
 10788              		.cfi_def_cfa_offset 24
 10789 0004 00AF     		add	r7, sp, #0
 10790              		.cfi_offset 7, -4
 10791              	.LCFI62:
 10792              		.cfi_def_cfa_register 7
 10793 0006 F860     		str	r0, [r7, #12]
 10794 0008 B960     		str	r1, [r7, #8]
 10795 000a 7A60     		str	r2, [r7, #4]
 10796 000c 3B60     		str	r3, [r7, #0]
 834:/home/cuil/workspace/arm/lm3s811/TI_Stellaris/driverlib/lpc.c ****     //
 835:/home/cuil/workspace/arm/lm3s811/TI_Stellaris/driverlib/lpc.c ****     // Check the arguments.
 836:/home/cuil/workspace/arm/lm3s811/TI_Stellaris/driverlib/lpc.c ****     //
 837:/home/cuil/workspace/arm/lm3s811/TI_Stellaris/driverlib/lpc.c ****     ASSERT(ulBase == LPC0_BASE);
 838:/home/cuil/workspace/arm/lm3s811/TI_Stellaris/driverlib/lpc.c ****     ASSERT(LPCChannelValid(ulChannel));
 839:/home/cuil/workspace/arm/lm3s811/TI_Stellaris/driverlib/lpc.c ****     ASSERT((ulConfig & ~(LPC_CH0CTL_IRQSEL1_M | LPC_CH0CTL_IRQSEL1_M |
 840:/home/cuil/workspace/arm/lm3s811/TI_Stellaris/driverlib/lpc.c ****                          LPC_CH0CTL_IRQSEL0_M |
 841:/home/cuil/workspace/arm/lm3s811/TI_Stellaris/driverlib/lpc.c ****                          LPC_CH0CTL_IRQEN2 | LPC_CH0CTL_IRQEN1 |
 842:/home/cuil/workspace/arm/lm3s811/TI_Stellaris/driverlib/lpc.c ****                          LPC_CH0CTL_IRQEN0_M |
 843:/home/cuil/workspace/arm/lm3s811/TI_Stellaris/driverlib/lpc.c ****                          LPC_CH0CTL_ARBDIS | LPC_CH0CTL_AMASK_M)) == 0);
 844:/home/cuil/workspace/arm/lm3s811/TI_Stellaris/driverlib/lpc.c ****     ASSERT((ulOffset & 3) == 0);
 845:/home/cuil/workspace/arm/lm3s811/TI_Stellaris/driverlib/lpc.c ****     ASSERT(ulOffset < ((((HWREG(ulBase + LPC_O_STS) & LPC_STS_POOLSZ_M) >>
 846:/home/cuil/workspace/arm/lm3s811/TI_Stellaris/driverlib/lpc.c ****               16) * 256) - 4));
 847:/home/cuil/workspace/arm/lm3s811/TI_Stellaris/driverlib/lpc.c **** 
 848:/home/cuil/workspace/arm/lm3s811/TI_Stellaris/driverlib/lpc.c ****     //
 849:/home/cuil/workspace/arm/lm3s811/TI_Stellaris/driverlib/lpc.c ****     // Convert the byte offset address into a half-word
 850:/home/cuil/workspace/arm/lm3s811/TI_Stellaris/driverlib/lpc.c ****     // offset address and add into the control word.
 851:/home/cuil/workspace/arm/lm3s811/TI_Stellaris/driverlib/lpc.c ****     //
 852:/home/cuil/workspace/arm/lm3s811/TI_Stellaris/driverlib/lpc.c ****     ulConfig |= (((ulOffset >> 1) << LPC_CH0CTL_OFFSET_S) &
 10797              		.loc 1 852 0
 10798 000e BB69     		ldr	r3, [r7, #24]
 10799 0010 4FEA5303 		lsr	r3, r3, #1
 10800 0014 4FEA4312 		lsl	r2, r3, #5
 10801 0018 43F6E073 		movw	r3, #16352
 10802 001c 02EA0303 		and	r3, r2, r3
 10803 0020 7A68     		ldr	r2, [r7, #4]
 10804 0022 42EA0303 		orr	r3, r2, r3
 10805 0026 7B60     		str	r3, [r7, #4]
 853:/home/cuil/workspace/arm/lm3s811/TI_Stellaris/driverlib/lpc.c ****                  LPC_CH0CTL_OFFSET_M);
 854:/home/cuil/workspace/arm/lm3s811/TI_Stellaris/driverlib/lpc.c **** 
 855:/home/cuil/workspace/arm/lm3s811/TI_Stellaris/driverlib/lpc.c ****     //
 856:/home/cuil/workspace/arm/lm3s811/TI_Stellaris/driverlib/lpc.c ****     // Set the configuration bit that enables Mailbox mode.
 857:/home/cuil/workspace/arm/lm3s811/TI_Stellaris/driverlib/lpc.c ****     //
 858:/home/cuil/workspace/arm/lm3s811/TI_Stellaris/driverlib/lpc.c ****     ulConfig |= LPC_CH0CTL_TYPE;
 10806              		.loc 1 858 0
 10807 0028 7B68     		ldr	r3, [r7, #4]
 10808 002a 43F00103 		orr	r3, r3, #1
 10809 002e 7B60     		str	r3, [r7, #4]
 859:/home/cuil/workspace/arm/lm3s811/TI_Stellaris/driverlib/lpc.c **** 
 860:/home/cuil/workspace/arm/lm3s811/TI_Stellaris/driverlib/lpc.c ****     //
 861:/home/cuil/workspace/arm/lm3s811/TI_Stellaris/driverlib/lpc.c ****     // Write the final control value into the control word for
 862:/home/cuil/workspace/arm/lm3s811/TI_Stellaris/driverlib/lpc.c ****     // the channel.
 863:/home/cuil/workspace/arm/lm3s811/TI_Stellaris/driverlib/lpc.c ****     //
 864:/home/cuil/workspace/arm/lm3s811/TI_Stellaris/driverlib/lpc.c ****     HWREG(ulBase + LPC_O_CH0CTL + (ulChannel * 0x10)) = ulConfig;
 10810              		.loc 1 864 0
 10811 0030 BB68     		ldr	r3, [r7, #8]
 10812 0032 4FEA0312 		lsl	r2, r3, #4
 10813 0036 FB68     		ldr	r3, [r7, #12]
 10814 0038 D318     		adds	r3, r2, r3
 10815 003a 03F11003 		add	r3, r3, #16
 10816 003e 7A68     		ldr	r2, [r7, #4]
 10817 0040 1A60     		str	r2, [r3, #0]
 865:/home/cuil/workspace/arm/lm3s811/TI_Stellaris/driverlib/lpc.c **** 
 866:/home/cuil/workspace/arm/lm3s811/TI_Stellaris/driverlib/lpc.c ****     //
 867:/home/cuil/workspace/arm/lm3s811/TI_Stellaris/driverlib/lpc.c ****     // Setup the IO and/or MEM address to match for this channel.
 868:/home/cuil/workspace/arm/lm3s811/TI_Stellaris/driverlib/lpc.c ****     //
 869:/home/cuil/workspace/arm/lm3s811/TI_Stellaris/driverlib/lpc.c ****     HWREG(ulBase + LPC_O_CH0ADR + (ulChannel * 0x10)) = ulAddress;
 10818              		.loc 1 869 0
 10819 0042 BB68     		ldr	r3, [r7, #8]
 10820 0044 4FEA0312 		lsl	r2, r3, #4
 10821 0048 FB68     		ldr	r3, [r7, #12]
 10822 004a D318     		adds	r3, r2, r3
 10823 004c 03F11803 		add	r3, r3, #24
 10824 0050 3A68     		ldr	r2, [r7, #0]
 10825 0052 1A60     		str	r2, [r3, #0]
 870:/home/cuil/workspace/arm/lm3s811/TI_Stellaris/driverlib/lpc.c **** }
 10826              		.loc 1 870 0
 10827 0054 07F11407 		add	r7, r7, #20
 10828 0058 BD46     		mov	sp, r7
 10829 005a 80BC     		pop	{r7}
 10830 005c 7047     		bx	lr
 10831              		.cfi_endproc
 10832              	.LFE20:
 10834 005e 00BF     		.section	.text.LPCChannelConfigCOMxSet,"ax",%progbits
 10835              		.align	2
 10836              		.global	LPCChannelConfigCOMxSet
 10837              		.thumb
 10838              		.thumb_func
 10840              	LPCChannelConfigCOMxSet:
 10841              	.LFB21:
 871:/home/cuil/workspace/arm/lm3s811/TI_Stellaris/driverlib/lpc.c **** 
 872:/home/cuil/workspace/arm/lm3s811/TI_Stellaris/driverlib/lpc.c **** //*****************************************************************************
 873:/home/cuil/workspace/arm/lm3s811/TI_Stellaris/driverlib/lpc.c **** //
 874:/home/cuil/workspace/arm/lm3s811/TI_Stellaris/driverlib/lpc.c **** //! Sets the configuration of an LPC Channel as a COMx.
 875:/home/cuil/workspace/arm/lm3s811/TI_Stellaris/driverlib/lpc.c **** //!
 876:/home/cuil/workspace/arm/lm3s811/TI_Stellaris/driverlib/lpc.c **** //! \param ulBase specifies the LPC module base address.
 877:/home/cuil/workspace/arm/lm3s811/TI_Stellaris/driverlib/lpc.c **** //! \param ulChannel specifies the LPC channel to configure.
 878:/home/cuil/workspace/arm/lm3s811/TI_Stellaris/driverlib/lpc.c **** //! \param ulConfig specifies configuration options required for the endpoint.
 879:/home/cuil/workspace/arm/lm3s811/TI_Stellaris/driverlib/lpc.c **** //! \param ulOffset specifies the offset from the beginning of the buffer pool
 880:/home/cuil/workspace/arm/lm3s811/TI_Stellaris/driverlib/lpc.c **** //! for this endpoint's data.
 881:/home/cuil/workspace/arm/lm3s811/TI_Stellaris/driverlib/lpc.c **** //! \param ulAddress specifies the LPC bus address (IO and/or MEM) for this
 882:/home/cuil/workspace/arm/lm3s811/TI_Stellaris/driverlib/lpc.c **** //! channel.
 883:/home/cuil/workspace/arm/lm3s811/TI_Stellaris/driverlib/lpc.c **** //! \param ulCOMxMode specifies the COMx mode to be used.
 884:/home/cuil/workspace/arm/lm3s811/TI_Stellaris/driverlib/lpc.c **** //!
 885:/home/cuil/workspace/arm/lm3s811/TI_Stellaris/driverlib/lpc.c **** //! The specified LPC Channel is enabled as a COMx.
 886:/home/cuil/workspace/arm/lm3s811/TI_Stellaris/driverlib/lpc.c **** //!
 887:/home/cuil/workspace/arm/lm3s811/TI_Stellaris/driverlib/lpc.c **** //! \return None.
 888:/home/cuil/workspace/arm/lm3s811/TI_Stellaris/driverlib/lpc.c **** //
 889:/home/cuil/workspace/arm/lm3s811/TI_Stellaris/driverlib/lpc.c **** //*****************************************************************************
 890:/home/cuil/workspace/arm/lm3s811/TI_Stellaris/driverlib/lpc.c **** void
 891:/home/cuil/workspace/arm/lm3s811/TI_Stellaris/driverlib/lpc.c **** LPCChannelConfigCOMxSet(unsigned long ulBase, unsigned long ulChannel,
 892:/home/cuil/workspace/arm/lm3s811/TI_Stellaris/driverlib/lpc.c ****                         unsigned long ulConfig, unsigned long ulAddress,
 893:/home/cuil/workspace/arm/lm3s811/TI_Stellaris/driverlib/lpc.c ****                         unsigned long ulOffset, unsigned long ulCOMxMode)
 894:/home/cuil/workspace/arm/lm3s811/TI_Stellaris/driverlib/lpc.c **** {
 10842              		.loc 1 894 0
 10843              		.cfi_startproc
 10844              		@ args = 8, pretend = 0, frame = 24
 10845              		@ frame_needed = 1, uses_anonymous_args = 0
 10846              		@ link register save eliminated.
 10847 0000 80B4     		push	{r7}
 10848              	.LCFI63:
 10849              		.cfi_def_cfa_offset 4
 10850 0002 87B0     		sub	sp, sp, #28
 10851              	.LCFI64:
 10852              		.cfi_def_cfa_offset 32
 10853 0004 00AF     		add	r7, sp, #0
 10854              		.cfi_offset 7, -4
 10855              	.LCFI65:
 10856              		.cfi_def_cfa_register 7
 10857 0006 F860     		str	r0, [r7, #12]
 10858 0008 B960     		str	r1, [r7, #8]
 10859 000a 7A60     		str	r2, [r7, #4]
 10860 000c 3B60     		str	r3, [r7, #0]
 895:/home/cuil/workspace/arm/lm3s811/TI_Stellaris/driverlib/lpc.c ****     unsigned long ulTemp;
 896:/home/cuil/workspace/arm/lm3s811/TI_Stellaris/driverlib/lpc.c **** 
 897:/home/cuil/workspace/arm/lm3s811/TI_Stellaris/driverlib/lpc.c ****     //
 898:/home/cuil/workspace/arm/lm3s811/TI_Stellaris/driverlib/lpc.c ****     // Check the arguments.
 899:/home/cuil/workspace/arm/lm3s811/TI_Stellaris/driverlib/lpc.c ****     //
 900:/home/cuil/workspace/arm/lm3s811/TI_Stellaris/driverlib/lpc.c ****     ASSERT(ulBase == LPC0_BASE);
 901:/home/cuil/workspace/arm/lm3s811/TI_Stellaris/driverlib/lpc.c ****     ASSERT(LPCChannelValid(ulChannel));
 902:/home/cuil/workspace/arm/lm3s811/TI_Stellaris/driverlib/lpc.c ****     ASSERT(ulChannel == LPC_CHAN_COMx);
 903:/home/cuil/workspace/arm/lm3s811/TI_Stellaris/driverlib/lpc.c ****     ASSERT((ulConfig & ~(LPC_CH7CTL_IRQSEL1_M | LPC_CH7CTL_IRQSEL0_M |
 904:/home/cuil/workspace/arm/lm3s811/TI_Stellaris/driverlib/lpc.c ****                          LPC_CH7CTL_CX | LPC_CH7CTL_IRQEN1 |
 905:/home/cuil/workspace/arm/lm3s811/TI_Stellaris/driverlib/lpc.c ****                          LPC_CH7CTL_IRQEN0_M)) == 0);
 906:/home/cuil/workspace/arm/lm3s811/TI_Stellaris/driverlib/lpc.c ****     ASSERT((ulOffset & 3) == 0);
 907:/home/cuil/workspace/arm/lm3s811/TI_Stellaris/driverlib/lpc.c ****     ASSERT(ulOffset < ((((HWREG(ulBase + LPC_O_STS) & LPC_STS_POOLSZ_M) >>
 908:/home/cuil/workspace/arm/lm3s811/TI_Stellaris/driverlib/lpc.c ****               16) * 256) - 4));
 909:/home/cuil/workspace/arm/lm3s811/TI_Stellaris/driverlib/lpc.c ****     ASSERT((ulCOMxMode & ~LPC_DMACX_CXACT_M) == 0);
 910:/home/cuil/workspace/arm/lm3s811/TI_Stellaris/driverlib/lpc.c **** 
 911:/home/cuil/workspace/arm/lm3s811/TI_Stellaris/driverlib/lpc.c ****     //
 912:/home/cuil/workspace/arm/lm3s811/TI_Stellaris/driverlib/lpc.c ****     // Convert the byte offset address into a half-word
 913:/home/cuil/workspace/arm/lm3s811/TI_Stellaris/driverlib/lpc.c ****     // offset address and add into the control word.
 914:/home/cuil/workspace/arm/lm3s811/TI_Stellaris/driverlib/lpc.c ****     //
 915:/home/cuil/workspace/arm/lm3s811/TI_Stellaris/driverlib/lpc.c ****     ulConfig |= (((ulOffset >> 1) << LPC_CH0CTL_OFFSET_S) &
 10861              		.loc 1 915 0
 10862 000e 3B6A     		ldr	r3, [r7, #32]
 10863 0010 4FEA5303 		lsr	r3, r3, #1
 10864 0014 4FEA4312 		lsl	r2, r3, #5
 10865 0018 43F6E073 		movw	r3, #16352
 10866 001c 02EA0303 		and	r3, r2, r3
 10867 0020 7A68     		ldr	r2, [r7, #4]
 10868 0022 42EA0303 		orr	r3, r2, r3
 10869 0026 7B60     		str	r3, [r7, #4]
 916:/home/cuil/workspace/arm/lm3s811/TI_Stellaris/driverlib/lpc.c ****                  LPC_CH0CTL_OFFSET_M);
 917:/home/cuil/workspace/arm/lm3s811/TI_Stellaris/driverlib/lpc.c **** 
 918:/home/cuil/workspace/arm/lm3s811/TI_Stellaris/driverlib/lpc.c ****     //
 919:/home/cuil/workspace/arm/lm3s811/TI_Stellaris/driverlib/lpc.c ****     // Write the final control value into the control word for
 920:/home/cuil/workspace/arm/lm3s811/TI_Stellaris/driverlib/lpc.c ****     // the channel.
 921:/home/cuil/workspace/arm/lm3s811/TI_Stellaris/driverlib/lpc.c ****     //
 922:/home/cuil/workspace/arm/lm3s811/TI_Stellaris/driverlib/lpc.c ****     HWREG(ulBase + LPC_O_CH0CTL + (ulChannel * 0x10)) = ulConfig;
 10870              		.loc 1 922 0
 10871 0028 BB68     		ldr	r3, [r7, #8]
 10872 002a 4FEA0312 		lsl	r2, r3, #4
 10873 002e FB68     		ldr	r3, [r7, #12]
 10874 0030 D318     		adds	r3, r2, r3
 10875 0032 03F11003 		add	r3, r3, #16
 10876 0036 7A68     		ldr	r2, [r7, #4]
 10877 0038 1A60     		str	r2, [r3, #0]
 923:/home/cuil/workspace/arm/lm3s811/TI_Stellaris/driverlib/lpc.c **** 
 924:/home/cuil/workspace/arm/lm3s811/TI_Stellaris/driverlib/lpc.c ****     //
 925:/home/cuil/workspace/arm/lm3s811/TI_Stellaris/driverlib/lpc.c ****     // Setup the IO and/or MEM address to match for this channel.
 926:/home/cuil/workspace/arm/lm3s811/TI_Stellaris/driverlib/lpc.c ****     //
 927:/home/cuil/workspace/arm/lm3s811/TI_Stellaris/driverlib/lpc.c ****     HWREG(ulBase + LPC_O_CH0ADR + (ulChannel * 0x10)) = ulAddress;
 10878              		.loc 1 927 0
 10879 003a BB68     		ldr	r3, [r7, #8]
 10880 003c 4FEA0312 		lsl	r2, r3, #4
 10881 0040 FB68     		ldr	r3, [r7, #12]
 10882 0042 D318     		adds	r3, r2, r3
 10883 0044 03F11803 		add	r3, r3, #24
 10884 0048 3A68     		ldr	r2, [r7, #0]
 10885 004a 1A60     		str	r2, [r3, #0]
 928:/home/cuil/workspace/arm/lm3s811/TI_Stellaris/driverlib/lpc.c **** 
 929:/home/cuil/workspace/arm/lm3s811/TI_Stellaris/driverlib/lpc.c ****     //
 930:/home/cuil/workspace/arm/lm3s811/TI_Stellaris/driverlib/lpc.c ****     // Configure the COMx Mode for this channel.
 931:/home/cuil/workspace/arm/lm3s811/TI_Stellaris/driverlib/lpc.c ****     //
 932:/home/cuil/workspace/arm/lm3s811/TI_Stellaris/driverlib/lpc.c ****     ulTemp = HWREG(ulBase + LPC_O_DMACX);
 10886              		.loc 1 932 0
 10887 004c FB68     		ldr	r3, [r7, #12]
 10888 004e 03F59073 		add	r3, r3, #288
 10889 0052 1B68     		ldr	r3, [r3, #0]
 10890 0054 7B61     		str	r3, [r7, #20]
 933:/home/cuil/workspace/arm/lm3s811/TI_Stellaris/driverlib/lpc.c ****     ulTemp &= ~LPC_DMACX_CXACT_M;
 10891              		.loc 1 933 0
 10892 0056 7B69     		ldr	r3, [r7, #20]
 10893 0058 23F4C023 		bic	r3, r3, #393216
 10894 005c 7B61     		str	r3, [r7, #20]
 934:/home/cuil/workspace/arm/lm3s811/TI_Stellaris/driverlib/lpc.c ****     ulTemp |= ulCOMxMode;
 10895              		.loc 1 934 0
 10896 005e 7A69     		ldr	r2, [r7, #20]
 10897 0060 7B6A     		ldr	r3, [r7, #36]
 10898 0062 42EA0303 		orr	r3, r2, r3
 10899 0066 7B61     		str	r3, [r7, #20]
 935:/home/cuil/workspace/arm/lm3s811/TI_Stellaris/driverlib/lpc.c ****     ulTemp |= LPC_DMACX_COMX;
 10900              		.loc 1 935 0
 10901 0068 7B69     		ldr	r3, [r7, #20]
 10902 006a 43F48033 		orr	r3, r3, #65536
 10903 006e 7B61     		str	r3, [r7, #20]
 936:/home/cuil/workspace/arm/lm3s811/TI_Stellaris/driverlib/lpc.c ****     HWREG(ulBase + LPC_O_DMACX) = ulTemp;
 10904              		.loc 1 936 0
 10905 0070 FB68     		ldr	r3, [r7, #12]
 10906 0072 03F59073 		add	r3, r3, #288
 10907 0076 7A69     		ldr	r2, [r7, #20]
 10908 0078 1A60     		str	r2, [r3, #0]
 937:/home/cuil/workspace/arm/lm3s811/TI_Stellaris/driverlib/lpc.c **** }
 10909              		.loc 1 937 0
 10910 007a 07F11C07 		add	r7, r7, #28
 10911 007e BD46     		mov	sp, r7
 10912 0080 80BC     		pop	{r7}
 10913 0082 7047     		bx	lr
 10914              		.cfi_endproc
 10915              	.LFE21:
 10917              		.section	.text.LPCChannelConfigGet,"ax",%progbits
 10918              		.align	2
 10919              		.global	LPCChannelConfigGet
 10920              		.thumb
 10921              		.thumb_func
 10923              	LPCChannelConfigGet:
 10924              	.LFB22:
 938:/home/cuil/workspace/arm/lm3s811/TI_Stellaris/driverlib/lpc.c **** 
 939:/home/cuil/workspace/arm/lm3s811/TI_Stellaris/driverlib/lpc.c **** //*****************************************************************************
 940:/home/cuil/workspace/arm/lm3s811/TI_Stellaris/driverlib/lpc.c **** //
 941:/home/cuil/workspace/arm/lm3s811/TI_Stellaris/driverlib/lpc.c **** //! Gets the configuration of an LPC Channel.
 942:/home/cuil/workspace/arm/lm3s811/TI_Stellaris/driverlib/lpc.c **** //!
 943:/home/cuil/workspace/arm/lm3s811/TI_Stellaris/driverlib/lpc.c **** //! \param ulBase specifies the LPC module base address.
 944:/home/cuil/workspace/arm/lm3s811/TI_Stellaris/driverlib/lpc.c **** //! \param ulChannel specifies the LPC channel to configure.
 945:/home/cuil/workspace/arm/lm3s811/TI_Stellaris/driverlib/lpc.c **** //! \param pulOffset is a pointer to storage for the channel pool offset.
 946:/home/cuil/workspace/arm/lm3s811/TI_Stellaris/driverlib/lpc.c **** //! \param pulAddress is a pointer to storage for the channel bus address.
 947:/home/cuil/workspace/arm/lm3s811/TI_Stellaris/driverlib/lpc.c **** //! \param pulCOMxMode is a pointer to storage for the channel COMx mode.
 948:/home/cuil/workspace/arm/lm3s811/TI_Stellaris/driverlib/lpc.c **** //!
 949:/home/cuil/workspace/arm/lm3s811/TI_Stellaris/driverlib/lpc.c **** //! This function determines and returns the configuration for the specified 
 950:/home/cuil/workspace/arm/lm3s811/TI_Stellaris/driverlib/lpc.c **** //! channel.
 951:/home/cuil/workspace/arm/lm3s811/TI_Stellaris/driverlib/lpc.c **** //!
 952:/home/cuil/workspace/arm/lm3s811/TI_Stellaris/driverlib/lpc.c **** //! \return Returns the bit-mapped channel control register value.
 953:/home/cuil/workspace/arm/lm3s811/TI_Stellaris/driverlib/lpc.c **** //
 954:/home/cuil/workspace/arm/lm3s811/TI_Stellaris/driverlib/lpc.c **** //*****************************************************************************
 955:/home/cuil/workspace/arm/lm3s811/TI_Stellaris/driverlib/lpc.c **** unsigned long
 956:/home/cuil/workspace/arm/lm3s811/TI_Stellaris/driverlib/lpc.c **** LPCChannelConfigGet(unsigned long ulBase, unsigned long ulChannel,
 957:/home/cuil/workspace/arm/lm3s811/TI_Stellaris/driverlib/lpc.c ****                     unsigned long *pulAddress, unsigned long *pulOffset,
 958:/home/cuil/workspace/arm/lm3s811/TI_Stellaris/driverlib/lpc.c ****                     unsigned long *pulCOMxMode)
 959:/home/cuil/workspace/arm/lm3s811/TI_Stellaris/driverlib/lpc.c **** {
 10925              		.loc 1 959 0
 10926              		.cfi_startproc
 10927              		@ args = 4, pretend = 0, frame = 24
 10928              		@ frame_needed = 1, uses_anonymous_args = 0
 10929              		@ link register save eliminated.
 10930 0000 80B4     		push	{r7}
 10931              	.LCFI66:
 10932              		.cfi_def_cfa_offset 4
 10933 0002 87B0     		sub	sp, sp, #28
 10934              	.LCFI67:
 10935              		.cfi_def_cfa_offset 32
 10936 0004 00AF     		add	r7, sp, #0
 10937              		.cfi_offset 7, -4
 10938              	.LCFI68:
 10939              		.cfi_def_cfa_register 7
 10940 0006 F860     		str	r0, [r7, #12]
 10941 0008 B960     		str	r1, [r7, #8]
 10942 000a 7A60     		str	r2, [r7, #4]
 10943 000c 3B60     		str	r3, [r7, #0]
 960:/home/cuil/workspace/arm/lm3s811/TI_Stellaris/driverlib/lpc.c ****     unsigned long ulConfig;
 961:/home/cuil/workspace/arm/lm3s811/TI_Stellaris/driverlib/lpc.c **** 
 962:/home/cuil/workspace/arm/lm3s811/TI_Stellaris/driverlib/lpc.c ****     //
 963:/home/cuil/workspace/arm/lm3s811/TI_Stellaris/driverlib/lpc.c ****     // Check the arguments.
 964:/home/cuil/workspace/arm/lm3s811/TI_Stellaris/driverlib/lpc.c ****     //
 965:/home/cuil/workspace/arm/lm3s811/TI_Stellaris/driverlib/lpc.c ****     ASSERT(ulBase == LPC0_BASE);
 966:/home/cuil/workspace/arm/lm3s811/TI_Stellaris/driverlib/lpc.c ****     ASSERT(LPCChannelValid(ulChannel));
 967:/home/cuil/workspace/arm/lm3s811/TI_Stellaris/driverlib/lpc.c **** 
 968:/home/cuil/workspace/arm/lm3s811/TI_Stellaris/driverlib/lpc.c ****     //
 969:/home/cuil/workspace/arm/lm3s811/TI_Stellaris/driverlib/lpc.c ****     // Read the channel control register.
 970:/home/cuil/workspace/arm/lm3s811/TI_Stellaris/driverlib/lpc.c ****     //
 971:/home/cuil/workspace/arm/lm3s811/TI_Stellaris/driverlib/lpc.c ****     ulConfig = HWREG(ulBase + LPC_O_CH0CTL + (ulChannel * 0x10));
 10944              		.loc 1 971 0
 10945 000e BB68     		ldr	r3, [r7, #8]
 10946 0010 4FEA0312 		lsl	r2, r3, #4
 10947 0014 FB68     		ldr	r3, [r7, #12]
 10948 0016 D318     		adds	r3, r2, r3
 10949 0018 03F11003 		add	r3, r3, #16
 10950 001c 1B68     		ldr	r3, [r3, #0]
 10951 001e 7B61     		str	r3, [r7, #20]
 972:/home/cuil/workspace/arm/lm3s811/TI_Stellaris/driverlib/lpc.c **** 
 973:/home/cuil/workspace/arm/lm3s811/TI_Stellaris/driverlib/lpc.c ****     //
 974:/home/cuil/workspace/arm/lm3s811/TI_Stellaris/driverlib/lpc.c ****     // Get the buffer pool offset value.
 975:/home/cuil/workspace/arm/lm3s811/TI_Stellaris/driverlib/lpc.c ****     //
 976:/home/cuil/workspace/arm/lm3s811/TI_Stellaris/driverlib/lpc.c ****     if(pulOffset)
 10952              		.loc 1 976 0
 10953 0020 3B68     		ldr	r3, [r7, #0]
 10954 0022 002B     		cmp	r3, #0
 10955 0024 08D0     		beq	.L35
 977:/home/cuil/workspace/arm/lm3s811/TI_Stellaris/driverlib/lpc.c ****     {
 978:/home/cuil/workspace/arm/lm3s811/TI_Stellaris/driverlib/lpc.c ****         *pulOffset = ((ulConfig & LPC_CH0CTL_OFFSET_M) >>
 10956              		.loc 1 978 0
 10957 0026 7A69     		ldr	r2, [r7, #20]
 10958 0028 43F6E073 		movw	r3, #16352
 10959 002c 02EA0303 		and	r3, r2, r3
 10960 0030 4FEA1312 		lsr	r2, r3, #4
 10961 0034 3B68     		ldr	r3, [r7, #0]
 10962 0036 1A60     		str	r2, [r3, #0]
 10963              	.L35:
 979:/home/cuil/workspace/arm/lm3s811/TI_Stellaris/driverlib/lpc.c ****                       (LPC_CH0CTL_OFFSET_S - 1));
 980:/home/cuil/workspace/arm/lm3s811/TI_Stellaris/driverlib/lpc.c ****     }
 981:/home/cuil/workspace/arm/lm3s811/TI_Stellaris/driverlib/lpc.c **** 
 982:/home/cuil/workspace/arm/lm3s811/TI_Stellaris/driverlib/lpc.c ****     //
 983:/home/cuil/workspace/arm/lm3s811/TI_Stellaris/driverlib/lpc.c ****     // Get the IO/Memory address that this endpoint responds to.
 984:/home/cuil/workspace/arm/lm3s811/TI_Stellaris/driverlib/lpc.c ****     //
 985:/home/cuil/workspace/arm/lm3s811/TI_Stellaris/driverlib/lpc.c ****     if(pulAddress)
 10964              		.loc 1 985 0
 10965 0038 7B68     		ldr	r3, [r7, #4]
 10966 003a 002B     		cmp	r3, #0
 10967 003c 09D0     		beq	.L36
 986:/home/cuil/workspace/arm/lm3s811/TI_Stellaris/driverlib/lpc.c ****     {
 987:/home/cuil/workspace/arm/lm3s811/TI_Stellaris/driverlib/lpc.c ****         *pulAddress = HWREG(ulBase + LPC_O_CH0ADR + (ulChannel * 0x10));
 10968              		.loc 1 987 0
 10969 003e BB68     		ldr	r3, [r7, #8]
 10970 0040 4FEA0312 		lsl	r2, r3, #4
 10971 0044 FB68     		ldr	r3, [r7, #12]
 10972 0046 D318     		adds	r3, r2, r3
 10973 0048 03F11803 		add	r3, r3, #24
 10974 004c 1A68     		ldr	r2, [r3, #0]
 10975 004e 7B68     		ldr	r3, [r7, #4]
 10976 0050 1A60     		str	r2, [r3, #0]
 10977              	.L36:
 988:/home/cuil/workspace/arm/lm3s811/TI_Stellaris/driverlib/lpc.c ****     }
 989:/home/cuil/workspace/arm/lm3s811/TI_Stellaris/driverlib/lpc.c **** 
 990:/home/cuil/workspace/arm/lm3s811/TI_Stellaris/driverlib/lpc.c ****     //
 991:/home/cuil/workspace/arm/lm3s811/TI_Stellaris/driverlib/lpc.c ****     // Configure the COMx Mode for this channel.
 992:/home/cuil/workspace/arm/lm3s811/TI_Stellaris/driverlib/lpc.c ****     //
 993:/home/cuil/workspace/arm/lm3s811/TI_Stellaris/driverlib/lpc.c ****     if(pulCOMxMode && (ulChannel == LPC_CHAN_COMx))
 10978              		.loc 1 993 0
 10979 0052 3B6A     		ldr	r3, [r7, #32]
 10980 0054 002B     		cmp	r3, #0
 10981 0056 0AD0     		beq	.L37
 10982              		.loc 1 993 0 is_stmt 0 discriminator 1
 10983 0058 BB68     		ldr	r3, [r7, #8]
 10984 005a 072B     		cmp	r3, #7
 10985 005c 07D1     		bne	.L37
 994:/home/cuil/workspace/arm/lm3s811/TI_Stellaris/driverlib/lpc.c ****     {
 995:/home/cuil/workspace/arm/lm3s811/TI_Stellaris/driverlib/lpc.c ****         *pulCOMxMode = (HWREG(ulBase + LPC_O_DMACX) & 0x00070000);
 10986              		.loc 1 995 0 is_stmt 1
 10987 005e FB68     		ldr	r3, [r7, #12]
 10988 0060 03F59073 		add	r3, r3, #288
 10989 0064 1B68     		ldr	r3, [r3, #0]
 10990 0066 03F4E022 		and	r2, r3, #458752
 10991 006a 3B6A     		ldr	r3, [r7, #32]
 10992 006c 1A60     		str	r2, [r3, #0]
 10993              	.L37:
 996:/home/cuil/workspace/arm/lm3s811/TI_Stellaris/driverlib/lpc.c ****     }
 997:/home/cuil/workspace/arm/lm3s811/TI_Stellaris/driverlib/lpc.c **** 
 998:/home/cuil/workspace/arm/lm3s811/TI_Stellaris/driverlib/lpc.c ****     //
 999:/home/cuil/workspace/arm/lm3s811/TI_Stellaris/driverlib/lpc.c ****     // Return the raw config value.
1000:/home/cuil/workspace/arm/lm3s811/TI_Stellaris/driverlib/lpc.c ****     //
1001:/home/cuil/workspace/arm/lm3s811/TI_Stellaris/driverlib/lpc.c ****     return(ulConfig);
 10994              		.loc 1 1001 0
 10995 006e 7B69     		ldr	r3, [r7, #20]
1002:/home/cuil/workspace/arm/lm3s811/TI_Stellaris/driverlib/lpc.c **** }
 10996              		.loc 1 1002 0
 10997 0070 1846     		mov	r0, r3
 10998 0072 07F11C07 		add	r7, r7, #28
 10999 0076 BD46     		mov	sp, r7
 11000 0078 80BC     		pop	{r7}
 11001 007a 7047     		bx	lr
 11002              		.cfi_endproc
 11003              	.LFE22:
 11005              		.section	.text.LPCChannelPoolAddressGet,"ax",%progbits
 11006              		.align	2
 11007              		.global	LPCChannelPoolAddressGet
 11008              		.thumb
 11009              		.thumb_func
 11011              	LPCChannelPoolAddressGet:
 11012              	.LFB23:
1003:/home/cuil/workspace/arm/lm3s811/TI_Stellaris/driverlib/lpc.c **** 
1004:/home/cuil/workspace/arm/lm3s811/TI_Stellaris/driverlib/lpc.c **** //*****************************************************************************
1005:/home/cuil/workspace/arm/lm3s811/TI_Stellaris/driverlib/lpc.c **** //
1006:/home/cuil/workspace/arm/lm3s811/TI_Stellaris/driverlib/lpc.c **** //! Gets the absolute base address of the channel pool.
1007:/home/cuil/workspace/arm/lm3s811/TI_Stellaris/driverlib/lpc.c **** //!
1008:/home/cuil/workspace/arm/lm3s811/TI_Stellaris/driverlib/lpc.c **** //! \param ulBase specifies the LPC module base address.
1009:/home/cuil/workspace/arm/lm3s811/TI_Stellaris/driverlib/lpc.c **** //! \param ulChannel specifies the LPC channel to configure.
1010:/home/cuil/workspace/arm/lm3s811/TI_Stellaris/driverlib/lpc.c **** //!
1011:/home/cuil/workspace/arm/lm3s811/TI_Stellaris/driverlib/lpc.c **** //! Thos function calculates the absolute address of the channel pool from the 
1012:/home/cuil/workspace/arm/lm3s811/TI_Stellaris/driverlib/lpc.c **** //! channel configuration setting and returns it.
1013:/home/cuil/workspace/arm/lm3s811/TI_Stellaris/driverlib/lpc.c **** //!
1014:/home/cuil/workspace/arm/lm3s811/TI_Stellaris/driverlib/lpc.c **** //! \return Returns the absolute base address of the channel pool.
1015:/home/cuil/workspace/arm/lm3s811/TI_Stellaris/driverlib/lpc.c **** //
1016:/home/cuil/workspace/arm/lm3s811/TI_Stellaris/driverlib/lpc.c **** //*****************************************************************************
1017:/home/cuil/workspace/arm/lm3s811/TI_Stellaris/driverlib/lpc.c **** unsigned long
1018:/home/cuil/workspace/arm/lm3s811/TI_Stellaris/driverlib/lpc.c **** LPCChannelPoolAddressGet(unsigned long ulBase, unsigned long ulChannel)
1019:/home/cuil/workspace/arm/lm3s811/TI_Stellaris/driverlib/lpc.c **** {
 11013              		.loc 1 1019 0
 11014              		.cfi_startproc
 11015              		@ args = 0, pretend = 0, frame = 16
 11016              		@ frame_needed = 1, uses_anonymous_args = 0
 11017              		@ link register save eliminated.
 11018 0000 80B4     		push	{r7}
 11019              	.LCFI69:
 11020              		.cfi_def_cfa_offset 4
 11021 0002 85B0     		sub	sp, sp, #20
 11022              	.LCFI70:
 11023              		.cfi_def_cfa_offset 24
 11024 0004 00AF     		add	r7, sp, #0
 11025              		.cfi_offset 7, -4
 11026              	.LCFI71:
 11027              		.cfi_def_cfa_register 7
 11028 0006 7860     		str	r0, [r7, #4]
 11029 0008 3960     		str	r1, [r7, #0]
1020:/home/cuil/workspace/arm/lm3s811/TI_Stellaris/driverlib/lpc.c ****     unsigned long ulAddress;
1021:/home/cuil/workspace/arm/lm3s811/TI_Stellaris/driverlib/lpc.c **** 
1022:/home/cuil/workspace/arm/lm3s811/TI_Stellaris/driverlib/lpc.c ****     //
1023:/home/cuil/workspace/arm/lm3s811/TI_Stellaris/driverlib/lpc.c ****     // Check the arguments.
1024:/home/cuil/workspace/arm/lm3s811/TI_Stellaris/driverlib/lpc.c ****     //
1025:/home/cuil/workspace/arm/lm3s811/TI_Stellaris/driverlib/lpc.c ****     ASSERT(ulBase == LPC0_BASE);
1026:/home/cuil/workspace/arm/lm3s811/TI_Stellaris/driverlib/lpc.c ****     ASSERT(LPCChannelValid(ulChannel));
1027:/home/cuil/workspace/arm/lm3s811/TI_Stellaris/driverlib/lpc.c **** 
1028:/home/cuil/workspace/arm/lm3s811/TI_Stellaris/driverlib/lpc.c ****     //
1029:/home/cuil/workspace/arm/lm3s811/TI_Stellaris/driverlib/lpc.c ****     // Read the channel control register.
1030:/home/cuil/workspace/arm/lm3s811/TI_Stellaris/driverlib/lpc.c ****     //
1031:/home/cuil/workspace/arm/lm3s811/TI_Stellaris/driverlib/lpc.c ****     ulAddress = HWREG(ulBase + LPC_O_CH0CTL + (ulChannel * 0x10));
 11030              		.loc 1 1031 0
 11031 000a 3B68     		ldr	r3, [r7, #0]
 11032 000c 4FEA0312 		lsl	r2, r3, #4
 11033 0010 7B68     		ldr	r3, [r7, #4]
 11034 0012 D318     		adds	r3, r2, r3
 11035 0014 03F11003 		add	r3, r3, #16
 11036 0018 1B68     		ldr	r3, [r3, #0]
 11037 001a FB60     		str	r3, [r7, #12]
1032:/home/cuil/workspace/arm/lm3s811/TI_Stellaris/driverlib/lpc.c **** 
1033:/home/cuil/workspace/arm/lm3s811/TI_Stellaris/driverlib/lpc.c ****     //
1034:/home/cuil/workspace/arm/lm3s811/TI_Stellaris/driverlib/lpc.c ****     // Mask off the channel offset portion and shift it into a byte
1035:/home/cuil/workspace/arm/lm3s811/TI_Stellaris/driverlib/lpc.c ****     // offset (stored as half-word offset).
1036:/home/cuil/workspace/arm/lm3s811/TI_Stellaris/driverlib/lpc.c ****     //
1037:/home/cuil/workspace/arm/lm3s811/TI_Stellaris/driverlib/lpc.c ****     ulAddress = ((ulAddress & LPC_CH0CTL_OFFSET_M) >>
 11038              		.loc 1 1037 0
 11039 001c FA68     		ldr	r2, [r7, #12]
 11040 001e 43F6E073 		movw	r3, #16352
 11041 0022 02EA0303 		and	r3, r2, r3
 11042 0026 4FEA1313 		lsr	r3, r3, #4
 11043 002a FB60     		str	r3, [r7, #12]
1038:/home/cuil/workspace/arm/lm3s811/TI_Stellaris/driverlib/lpc.c ****                  (LPC_CH0CTL_OFFSET_S - 1));
1039:/home/cuil/workspace/arm/lm3s811/TI_Stellaris/driverlib/lpc.c **** 
1040:/home/cuil/workspace/arm/lm3s811/TI_Stellaris/driverlib/lpc.c ****     //
1041:/home/cuil/workspace/arm/lm3s811/TI_Stellaris/driverlib/lpc.c ****     // Add the LPC and Buffer Pool base address to get the final
1042:/home/cuil/workspace/arm/lm3s811/TI_Stellaris/driverlib/lpc.c ****     // address to return.
1043:/home/cuil/workspace/arm/lm3s811/TI_Stellaris/driverlib/lpc.c ****     //
1044:/home/cuil/workspace/arm/lm3s811/TI_Stellaris/driverlib/lpc.c ****     ulAddress += (ulBase + LPC_O_POOL);
 11044              		.loc 1 1044 0
 11045 002c 7A68     		ldr	r2, [r7, #4]
 11046 002e FB68     		ldr	r3, [r7, #12]
 11047 0030 D318     		adds	r3, r2, r3
 11048 0032 03F58063 		add	r3, r3, #1024
 11049 0036 FB60     		str	r3, [r7, #12]
1045:/home/cuil/workspace/arm/lm3s811/TI_Stellaris/driverlib/lpc.c **** 
1046:/home/cuil/workspace/arm/lm3s811/TI_Stellaris/driverlib/lpc.c ****     //
1047:/home/cuil/workspace/arm/lm3s811/TI_Stellaris/driverlib/lpc.c ****     // Return the address to the calling routine.
1048:/home/cuil/workspace/arm/lm3s811/TI_Stellaris/driverlib/lpc.c ****     //
1049:/home/cuil/workspace/arm/lm3s811/TI_Stellaris/driverlib/lpc.c ****     return(ulAddress);
 11050              		.loc 1 1049 0
 11051 0038 FB68     		ldr	r3, [r7, #12]
1050:/home/cuil/workspace/arm/lm3s811/TI_Stellaris/driverlib/lpc.c **** }
 11052              		.loc 1 1050 0
 11053 003a 1846     		mov	r0, r3
 11054 003c 07F11407 		add	r7, r7, #20
 11055 0040 BD46     		mov	sp, r7
 11056 0042 80BC     		pop	{r7}
 11057 0044 7047     		bx	lr
 11058              		.cfi_endproc
 11059              	.LFE23:
 11061 0046 00BF     		.section	.text.LPCChannelStatusGet,"ax",%progbits
 11062              		.align	2
 11063              		.global	LPCChannelStatusGet
 11064              		.thumb
 11065              		.thumb_func
 11067              	LPCChannelStatusGet:
 11068              	.LFB24:
1051:/home/cuil/workspace/arm/lm3s811/TI_Stellaris/driverlib/lpc.c **** 
1052:/home/cuil/workspace/arm/lm3s811/TI_Stellaris/driverlib/lpc.c **** //*****************************************************************************
1053:/home/cuil/workspace/arm/lm3s811/TI_Stellaris/driverlib/lpc.c **** //
1054:/home/cuil/workspace/arm/lm3s811/TI_Stellaris/driverlib/lpc.c **** //! Reads the status word from an LPC Channel.
1055:/home/cuil/workspace/arm/lm3s811/TI_Stellaris/driverlib/lpc.c **** //!
1056:/home/cuil/workspace/arm/lm3s811/TI_Stellaris/driverlib/lpc.c **** //! \param ulBase specifies the LPC module base address.
1057:/home/cuil/workspace/arm/lm3s811/TI_Stellaris/driverlib/lpc.c **** //! \param ulChannel specifies the LPC Channel.
1058:/home/cuil/workspace/arm/lm3s811/TI_Stellaris/driverlib/lpc.c **** //!
1059:/home/cuil/workspace/arm/lm3s811/TI_Stellaris/driverlib/lpc.c **** //! This function reads the status word from an LPC channel and returns it to 
1060:/home/cuil/workspace/arm/lm3s811/TI_Stellaris/driverlib/lpc.c **** //! the caller.
1061:/home/cuil/workspace/arm/lm3s811/TI_Stellaris/driverlib/lpc.c **** //!
1062:/home/cuil/workspace/arm/lm3s811/TI_Stellaris/driverlib/lpc.c **** //! \return content of the channel status register.
1063:/home/cuil/workspace/arm/lm3s811/TI_Stellaris/driverlib/lpc.c **** //
1064:/home/cuil/workspace/arm/lm3s811/TI_Stellaris/driverlib/lpc.c **** //*****************************************************************************
1065:/home/cuil/workspace/arm/lm3s811/TI_Stellaris/driverlib/lpc.c **** unsigned long
1066:/home/cuil/workspace/arm/lm3s811/TI_Stellaris/driverlib/lpc.c **** LPCChannelStatusGet(unsigned long ulBase, unsigned long ulChannel)
1067:/home/cuil/workspace/arm/lm3s811/TI_Stellaris/driverlib/lpc.c **** {
 11069              		.loc 1 1067 0
 11070              		.cfi_startproc
 11071              		@ args = 0, pretend = 0, frame = 8
 11072              		@ frame_needed = 1, uses_anonymous_args = 0
 11073              		@ link register save eliminated.
 11074 0000 80B4     		push	{r7}
 11075              	.LCFI72:
 11076              		.cfi_def_cfa_offset 4
 11077 0002 83B0     		sub	sp, sp, #12
 11078              	.LCFI73:
 11079              		.cfi_def_cfa_offset 16
 11080 0004 00AF     		add	r7, sp, #0
 11081              		.cfi_offset 7, -4
 11082              	.LCFI74:
 11083              		.cfi_def_cfa_register 7
 11084 0006 7860     		str	r0, [r7, #4]
 11085 0008 3960     		str	r1, [r7, #0]
1068:/home/cuil/workspace/arm/lm3s811/TI_Stellaris/driverlib/lpc.c ****     //
1069:/home/cuil/workspace/arm/lm3s811/TI_Stellaris/driverlib/lpc.c ****     // Check the arguments.
1070:/home/cuil/workspace/arm/lm3s811/TI_Stellaris/driverlib/lpc.c ****     //
1071:/home/cuil/workspace/arm/lm3s811/TI_Stellaris/driverlib/lpc.c ****     ASSERT(ulBase == LPC0_BASE);
1072:/home/cuil/workspace/arm/lm3s811/TI_Stellaris/driverlib/lpc.c ****     ASSERT(LPCChannelValid(ulChannel));
1073:/home/cuil/workspace/arm/lm3s811/TI_Stellaris/driverlib/lpc.c **** 
1074:/home/cuil/workspace/arm/lm3s811/TI_Stellaris/driverlib/lpc.c ****     //
1075:/home/cuil/workspace/arm/lm3s811/TI_Stellaris/driverlib/lpc.c ****     // Read the half-word status from the LPC Channel
1076:/home/cuil/workspace/arm/lm3s811/TI_Stellaris/driverlib/lpc.c ****     //
1077:/home/cuil/workspace/arm/lm3s811/TI_Stellaris/driverlib/lpc.c ****     return (HWREG(ulBase + LPC_O_CH0ST + (ulChannel * 0x10)));
 11086              		.loc 1 1077 0
 11087 000a 3B68     		ldr	r3, [r7, #0]
 11088 000c 4FEA0312 		lsl	r2, r3, #4
 11089 0010 7B68     		ldr	r3, [r7, #4]
 11090 0012 D318     		adds	r3, r2, r3
 11091 0014 03F11403 		add	r3, r3, #20
 11092 0018 1B68     		ldr	r3, [r3, #0]
1078:/home/cuil/workspace/arm/lm3s811/TI_Stellaris/driverlib/lpc.c **** }
 11093              		.loc 1 1078 0
 11094 001a 1846     		mov	r0, r3
 11095 001c 07F10C07 		add	r7, r7, #12
 11096 0020 BD46     		mov	sp, r7
 11097 0022 80BC     		pop	{r7}
 11098 0024 7047     		bx	lr
 11099              		.cfi_endproc
 11100              	.LFE24:
 11102 0026 00BF     		.section	.text.LPCChannelStatusSet,"ax",%progbits
 11103              		.align	2
 11104              		.global	LPCChannelStatusSet
 11105              		.thumb
 11106              		.thumb_func
 11108              	LPCChannelStatusSet:
 11109              	.LFB25:
1079:/home/cuil/workspace/arm/lm3s811/TI_Stellaris/driverlib/lpc.c **** 
1080:/home/cuil/workspace/arm/lm3s811/TI_Stellaris/driverlib/lpc.c **** //*****************************************************************************
1081:/home/cuil/workspace/arm/lm3s811/TI_Stellaris/driverlib/lpc.c **** //
1082:/home/cuil/workspace/arm/lm3s811/TI_Stellaris/driverlib/lpc.c **** //! Sets the user bits in the status word (16-bits) of an LPC Channel.
1083:/home/cuil/workspace/arm/lm3s811/TI_Stellaris/driverlib/lpc.c **** //!
1084:/home/cuil/workspace/arm/lm3s811/TI_Stellaris/driverlib/lpc.c **** //! \param ulBase specifies the LPC module base address.
1085:/home/cuil/workspace/arm/lm3s811/TI_Stellaris/driverlib/lpc.c **** //! \param ulChannel specifies the LPC Channel.
1086:/home/cuil/workspace/arm/lm3s811/TI_Stellaris/driverlib/lpc.c **** //! \param ulStatus is the user bit values to set.
1087:/home/cuil/workspace/arm/lm3s811/TI_Stellaris/driverlib/lpc.c **** //!
1088:/home/cuil/workspace/arm/lm3s811/TI_Stellaris/driverlib/lpc.c **** //! This function sets the selected user bits of the status word for an LPC 
1089:/home/cuil/workspace/arm/lm3s811/TI_Stellaris/driverlib/lpc.c **** //! channel.
1090:/home/cuil/workspace/arm/lm3s811/TI_Stellaris/driverlib/lpc.c **** //!
1091:/home/cuil/workspace/arm/lm3s811/TI_Stellaris/driverlib/lpc.c **** //! \return None
1092:/home/cuil/workspace/arm/lm3s811/TI_Stellaris/driverlib/lpc.c **** //
1093:/home/cuil/workspace/arm/lm3s811/TI_Stellaris/driverlib/lpc.c **** //*****************************************************************************
1094:/home/cuil/workspace/arm/lm3s811/TI_Stellaris/driverlib/lpc.c **** void
1095:/home/cuil/workspace/arm/lm3s811/TI_Stellaris/driverlib/lpc.c **** LPCChannelStatusSet(unsigned long ulBase, unsigned long ulChannel,
1096:/home/cuil/workspace/arm/lm3s811/TI_Stellaris/driverlib/lpc.c ****                     unsigned long ulStatus)
1097:/home/cuil/workspace/arm/lm3s811/TI_Stellaris/driverlib/lpc.c **** {
 11110              		.loc 1 1097 0
 11111              		.cfi_startproc
 11112              		@ args = 0, pretend = 0, frame = 24
 11113              		@ frame_needed = 1, uses_anonymous_args = 0
 11114              		@ link register save eliminated.
 11115 0000 80B4     		push	{r7}
 11116              	.LCFI75:
 11117              		.cfi_def_cfa_offset 4
 11118 0002 87B0     		sub	sp, sp, #28
 11119              	.LCFI76:
 11120              		.cfi_def_cfa_offset 32
 11121 0004 00AF     		add	r7, sp, #0
 11122              		.cfi_offset 7, -4
 11123              	.LCFI77:
 11124              		.cfi_def_cfa_register 7
 11125 0006 F860     		str	r0, [r7, #12]
 11126 0008 B960     		str	r1, [r7, #8]
 11127 000a 7A60     		str	r2, [r7, #4]
1098:/home/cuil/workspace/arm/lm3s811/TI_Stellaris/driverlib/lpc.c ****     unsigned long ulTemp;
1099:/home/cuil/workspace/arm/lm3s811/TI_Stellaris/driverlib/lpc.c **** 
1100:/home/cuil/workspace/arm/lm3s811/TI_Stellaris/driverlib/lpc.c ****     //
1101:/home/cuil/workspace/arm/lm3s811/TI_Stellaris/driverlib/lpc.c ****     // Check the arguments.
1102:/home/cuil/workspace/arm/lm3s811/TI_Stellaris/driverlib/lpc.c ****     //
1103:/home/cuil/workspace/arm/lm3s811/TI_Stellaris/driverlib/lpc.c ****     ASSERT(ulBase == LPC0_BASE);
1104:/home/cuil/workspace/arm/lm3s811/TI_Stellaris/driverlib/lpc.c ****     ASSERT(LPCChannelValid(ulChannel));
1105:/home/cuil/workspace/arm/lm3s811/TI_Stellaris/driverlib/lpc.c ****     ASSERT((ulStatus & (~LPC_CH0ST_USER_M)) == 0);
1106:/home/cuil/workspace/arm/lm3s811/TI_Stellaris/driverlib/lpc.c **** 
1107:/home/cuil/workspace/arm/lm3s811/TI_Stellaris/driverlib/lpc.c ****     //
1108:/home/cuil/workspace/arm/lm3s811/TI_Stellaris/driverlib/lpc.c ****     // Read the status from the LPC Channel, and set new values for
1109:/home/cuil/workspace/arm/lm3s811/TI_Stellaris/driverlib/lpc.c ****     // the user bits.
1110:/home/cuil/workspace/arm/lm3s811/TI_Stellaris/driverlib/lpc.c ****     //
1111:/home/cuil/workspace/arm/lm3s811/TI_Stellaris/driverlib/lpc.c ****     ulTemp = HWREG(ulBase + LPC_O_CH0ST + (ulChannel * 0x10));
 11128              		.loc 1 1111 0
 11129 000c BB68     		ldr	r3, [r7, #8]
 11130 000e 4FEA0312 		lsl	r2, r3, #4
 11131 0012 FB68     		ldr	r3, [r7, #12]
 11132 0014 D318     		adds	r3, r2, r3
 11133 0016 03F11403 		add	r3, r3, #20
 11134 001a 1B68     		ldr	r3, [r3, #0]
 11135 001c 7B61     		str	r3, [r7, #20]
1112:/home/cuil/workspace/arm/lm3s811/TI_Stellaris/driverlib/lpc.c ****     ulTemp |= ulStatus;
 11136              		.loc 1 1112 0
 11137 001e 7A69     		ldr	r2, [r7, #20]
 11138 0020 7B68     		ldr	r3, [r7, #4]
 11139 0022 42EA0303 		orr	r3, r2, r3
 11140 0026 7B61     		str	r3, [r7, #20]
1113:/home/cuil/workspace/arm/lm3s811/TI_Stellaris/driverlib/lpc.c ****     HWREG(ulBase + LPC_O_CH0ST + (ulChannel * 0x10)) = ulTemp;
 11141              		.loc 1 1113 0
 11142 0028 BB68     		ldr	r3, [r7, #8]
 11143 002a 4FEA0312 		lsl	r2, r3, #4
 11144 002e FB68     		ldr	r3, [r7, #12]
 11145 0030 D318     		adds	r3, r2, r3
 11146 0032 03F11403 		add	r3, r3, #20
 11147 0036 7A69     		ldr	r2, [r7, #20]
 11148 0038 1A60     		str	r2, [r3, #0]
1114:/home/cuil/workspace/arm/lm3s811/TI_Stellaris/driverlib/lpc.c **** }
 11149              		.loc 1 1114 0
 11150 003a 07F11C07 		add	r7, r7, #28
 11151 003e BD46     		mov	sp, r7
 11152 0040 80BC     		pop	{r7}
 11153 0042 7047     		bx	lr
 11154              		.cfi_endproc
 11155              	.LFE25:
 11157              		.section	.text.LPCChannelStatusClear,"ax",%progbits
 11158              		.align	2
 11159              		.global	LPCChannelStatusClear
 11160              		.thumb
 11161              		.thumb_func
 11163              	LPCChannelStatusClear:
 11164              	.LFB26:
1115:/home/cuil/workspace/arm/lm3s811/TI_Stellaris/driverlib/lpc.c **** 
1116:/home/cuil/workspace/arm/lm3s811/TI_Stellaris/driverlib/lpc.c **** //*****************************************************************************
1117:/home/cuil/workspace/arm/lm3s811/TI_Stellaris/driverlib/lpc.c **** //
1118:/home/cuil/workspace/arm/lm3s811/TI_Stellaris/driverlib/lpc.c **** //! Clears the user bits in the status word (16-bits) of an LPC Channel.
1119:/home/cuil/workspace/arm/lm3s811/TI_Stellaris/driverlib/lpc.c **** //!
1120:/home/cuil/workspace/arm/lm3s811/TI_Stellaris/driverlib/lpc.c **** //! \param ulBase specifies the LPC module base address.
1121:/home/cuil/workspace/arm/lm3s811/TI_Stellaris/driverlib/lpc.c **** //! \param ulChannel specifies the LPC Channel.
1122:/home/cuil/workspace/arm/lm3s811/TI_Stellaris/driverlib/lpc.c **** //! \param ulStatus is the user bit values to clear.
1123:/home/cuil/workspace/arm/lm3s811/TI_Stellaris/driverlib/lpc.c **** //!
1124:/home/cuil/workspace/arm/lm3s811/TI_Stellaris/driverlib/lpc.c **** //! This function sets the selected user bits of the status word for an LPC 
1125:/home/cuil/workspace/arm/lm3s811/TI_Stellaris/driverlib/lpc.c **** //! channel.
1126:/home/cuil/workspace/arm/lm3s811/TI_Stellaris/driverlib/lpc.c **** //!
1127:/home/cuil/workspace/arm/lm3s811/TI_Stellaris/driverlib/lpc.c **** //! \return None
1128:/home/cuil/workspace/arm/lm3s811/TI_Stellaris/driverlib/lpc.c **** //
1129:/home/cuil/workspace/arm/lm3s811/TI_Stellaris/driverlib/lpc.c **** //*****************************************************************************
1130:/home/cuil/workspace/arm/lm3s811/TI_Stellaris/driverlib/lpc.c **** void
1131:/home/cuil/workspace/arm/lm3s811/TI_Stellaris/driverlib/lpc.c **** LPCChannelStatusClear(unsigned long ulBase, unsigned long ulChannel,
1132:/home/cuil/workspace/arm/lm3s811/TI_Stellaris/driverlib/lpc.c ****                       unsigned long ulStatus)
1133:/home/cuil/workspace/arm/lm3s811/TI_Stellaris/driverlib/lpc.c **** {
 11165              		.loc 1 1133 0
 11166              		.cfi_startproc
 11167              		@ args = 0, pretend = 0, frame = 24
 11168              		@ frame_needed = 1, uses_anonymous_args = 0
 11169              		@ link register save eliminated.
 11170 0000 80B4     		push	{r7}
 11171              	.LCFI78:
 11172              		.cfi_def_cfa_offset 4
 11173 0002 87B0     		sub	sp, sp, #28
 11174              	.LCFI79:
 11175              		.cfi_def_cfa_offset 32
 11176 0004 00AF     		add	r7, sp, #0
 11177              		.cfi_offset 7, -4
 11178              	.LCFI80:
 11179              		.cfi_def_cfa_register 7
 11180 0006 F860     		str	r0, [r7, #12]
 11181 0008 B960     		str	r1, [r7, #8]
 11182 000a 7A60     		str	r2, [r7, #4]
1134:/home/cuil/workspace/arm/lm3s811/TI_Stellaris/driverlib/lpc.c ****     unsigned long ulTemp;
1135:/home/cuil/workspace/arm/lm3s811/TI_Stellaris/driverlib/lpc.c **** 
1136:/home/cuil/workspace/arm/lm3s811/TI_Stellaris/driverlib/lpc.c ****     //
1137:/home/cuil/workspace/arm/lm3s811/TI_Stellaris/driverlib/lpc.c ****     // Check the arguments.
1138:/home/cuil/workspace/arm/lm3s811/TI_Stellaris/driverlib/lpc.c ****     //
1139:/home/cuil/workspace/arm/lm3s811/TI_Stellaris/driverlib/lpc.c ****     ASSERT(ulBase == LPC0_BASE);
1140:/home/cuil/workspace/arm/lm3s811/TI_Stellaris/driverlib/lpc.c ****     ASSERT(LPCChannelValid(ulChannel));
1141:/home/cuil/workspace/arm/lm3s811/TI_Stellaris/driverlib/lpc.c ****     ASSERT((ulStatus & (~LPC_CH0ST_USER_M)) == 0);
1142:/home/cuil/workspace/arm/lm3s811/TI_Stellaris/driverlib/lpc.c **** 
1143:/home/cuil/workspace/arm/lm3s811/TI_Stellaris/driverlib/lpc.c ****     //
1144:/home/cuil/workspace/arm/lm3s811/TI_Stellaris/driverlib/lpc.c ****     // Read the status from the LPC Channel, and set new values for
1145:/home/cuil/workspace/arm/lm3s811/TI_Stellaris/driverlib/lpc.c ****     // the user bits.
1146:/home/cuil/workspace/arm/lm3s811/TI_Stellaris/driverlib/lpc.c ****     //
1147:/home/cuil/workspace/arm/lm3s811/TI_Stellaris/driverlib/lpc.c ****     ulTemp = HWREG(ulBase + LPC_O_CH0ST + (ulChannel * 0x10));
 11183              		.loc 1 1147 0
 11184 000c BB68     		ldr	r3, [r7, #8]
 11185 000e 4FEA0312 		lsl	r2, r3, #4
 11186 0012 FB68     		ldr	r3, [r7, #12]
 11187 0014 D318     		adds	r3, r2, r3
 11188 0016 03F11403 		add	r3, r3, #20
 11189 001a 1B68     		ldr	r3, [r3, #0]
 11190 001c 7B61     		str	r3, [r7, #20]
1148:/home/cuil/workspace/arm/lm3s811/TI_Stellaris/driverlib/lpc.c ****     ulTemp &= ~ulStatus;
 11191              		.loc 1 1148 0
 11192 001e 7B68     		ldr	r3, [r7, #4]
 11193 0020 6FEA0303 		mvn	r3, r3
 11194 0024 7A69     		ldr	r2, [r7, #20]
 11195 0026 02EA0303 		and	r3, r2, r3
 11196 002a 7B61     		str	r3, [r7, #20]
1149:/home/cuil/workspace/arm/lm3s811/TI_Stellaris/driverlib/lpc.c ****     HWREG(ulBase + LPC_O_CH0ST + (ulChannel * 0x10)) = ulTemp;
 11197              		.loc 1 1149 0
 11198 002c BB68     		ldr	r3, [r7, #8]
 11199 002e 4FEA0312 		lsl	r2, r3, #4
 11200 0032 FB68     		ldr	r3, [r7, #12]
 11201 0034 D318     		adds	r3, r2, r3
 11202 0036 03F11403 		add	r3, r3, #20
 11203 003a 7A69     		ldr	r2, [r7, #20]
 11204 003c 1A60     		str	r2, [r3, #0]
1150:/home/cuil/workspace/arm/lm3s811/TI_Stellaris/driverlib/lpc.c **** }
 11205              		.loc 1 1150 0
 11206 003e 07F11C07 		add	r7, r7, #28
 11207 0042 BD46     		mov	sp, r7
 11208 0044 80BC     		pop	{r7}
 11209 0046 7047     		bx	lr
 11210              		.cfi_endproc
 11211              	.LFE26:
 11213              		.section	.text.LPCChannelDMAConfigSet,"ax",%progbits
 11214              		.align	2
 11215              		.global	LPCChannelDMAConfigSet
 11216              		.thumb
 11217              		.thumb_func
 11219              	LPCChannelDMAConfigSet:
 11220              	.LFB27:
1151:/home/cuil/workspace/arm/lm3s811/TI_Stellaris/driverlib/lpc.c **** 
1152:/home/cuil/workspace/arm/lm3s811/TI_Stellaris/driverlib/lpc.c **** //*****************************************************************************
1153:/home/cuil/workspace/arm/lm3s811/TI_Stellaris/driverlib/lpc.c **** //
1154:/home/cuil/workspace/arm/lm3s811/TI_Stellaris/driverlib/lpc.c **** //! Sets the configuration of DMA for LPC channels.
1155:/home/cuil/workspace/arm/lm3s811/TI_Stellaris/driverlib/lpc.c **** //!
1156:/home/cuil/workspace/arm/lm3s811/TI_Stellaris/driverlib/lpc.c **** //! \param ulBase specifies the LPC module base address.
1157:/home/cuil/workspace/arm/lm3s811/TI_Stellaris/driverlib/lpc.c **** //! \param ulConfig specifies the DMA channel configuration.
1158:/home/cuil/workspace/arm/lm3s811/TI_Stellaris/driverlib/lpc.c **** //! \param ulMask specifies the configuration mask to be used.
1159:/home/cuil/workspace/arm/lm3s811/TI_Stellaris/driverlib/lpc.c **** //!
1160:/home/cuil/workspace/arm/lm3s811/TI_Stellaris/driverlib/lpc.c **** //! This function sets the specified DMA channel operation based on the 
1161:/home/cuil/workspace/arm/lm3s811/TI_Stellaris/driverlib/lpc.c **** //! \e ulConfig parameter.
1162:/home/cuil/workspace/arm/lm3s811/TI_Stellaris/driverlib/lpc.c **** //!
1163:/home/cuil/workspace/arm/lm3s811/TI_Stellaris/driverlib/lpc.c **** //! \return None.
1164:/home/cuil/workspace/arm/lm3s811/TI_Stellaris/driverlib/lpc.c **** //
1165:/home/cuil/workspace/arm/lm3s811/TI_Stellaris/driverlib/lpc.c **** //*****************************************************************************
1166:/home/cuil/workspace/arm/lm3s811/TI_Stellaris/driverlib/lpc.c **** void
1167:/home/cuil/workspace/arm/lm3s811/TI_Stellaris/driverlib/lpc.c **** LPCChannelDMAConfigSet(unsigned long ulBase, unsigned long ulConfig,
1168:/home/cuil/workspace/arm/lm3s811/TI_Stellaris/driverlib/lpc.c ****                        unsigned long ulMask)
1169:/home/cuil/workspace/arm/lm3s811/TI_Stellaris/driverlib/lpc.c **** {
 11221              		.loc 1 1169 0
 11222              		.cfi_startproc
 11223              		@ args = 0, pretend = 0, frame = 24
 11224              		@ frame_needed = 1, uses_anonymous_args = 0
 11225              		@ link register save eliminated.
 11226 0000 80B4     		push	{r7}
 11227              	.LCFI81:
 11228              		.cfi_def_cfa_offset 4
 11229 0002 87B0     		sub	sp, sp, #28
 11230              	.LCFI82:
 11231              		.cfi_def_cfa_offset 32
 11232 0004 00AF     		add	r7, sp, #0
 11233              		.cfi_offset 7, -4
 11234              	.LCFI83:
 11235              		.cfi_def_cfa_register 7
 11236 0006 F860     		str	r0, [r7, #12]
 11237 0008 B960     		str	r1, [r7, #8]
 11238 000a 7A60     		str	r2, [r7, #4]
1170:/home/cuil/workspace/arm/lm3s811/TI_Stellaris/driverlib/lpc.c ****     unsigned long ulTemp;
1171:/home/cuil/workspace/arm/lm3s811/TI_Stellaris/driverlib/lpc.c **** 
1172:/home/cuil/workspace/arm/lm3s811/TI_Stellaris/driverlib/lpc.c ****     //
1173:/home/cuil/workspace/arm/lm3s811/TI_Stellaris/driverlib/lpc.c ****     // Check the arguments.
1174:/home/cuil/workspace/arm/lm3s811/TI_Stellaris/driverlib/lpc.c ****     //
1175:/home/cuil/workspace/arm/lm3s811/TI_Stellaris/driverlib/lpc.c ****     ASSERT(ulBase == LPC0_BASE);
1176:/home/cuil/workspace/arm/lm3s811/TI_Stellaris/driverlib/lpc.c ****     ASSERT((ulConfig & ~0x000000FF) == 0);
1177:/home/cuil/workspace/arm/lm3s811/TI_Stellaris/driverlib/lpc.c ****     ASSERT((ulConfig & 0x00000003) != 0x00000003);
1178:/home/cuil/workspace/arm/lm3s811/TI_Stellaris/driverlib/lpc.c ****     ASSERT((ulConfig & 0x0000000C) != 0x0000000C);
1179:/home/cuil/workspace/arm/lm3s811/TI_Stellaris/driverlib/lpc.c ****     ASSERT((ulConfig & 0x00000030) != 0x00000030);
1180:/home/cuil/workspace/arm/lm3s811/TI_Stellaris/driverlib/lpc.c ****     ASSERT((ulConfig & 0x000000C0) != 0x000000C0);
1181:/home/cuil/workspace/arm/lm3s811/TI_Stellaris/driverlib/lpc.c ****     ASSERT((ulMask & ~0x000000FF) == 0);
1182:/home/cuil/workspace/arm/lm3s811/TI_Stellaris/driverlib/lpc.c **** 
1183:/home/cuil/workspace/arm/lm3s811/TI_Stellaris/driverlib/lpc.c ****     //
1184:/home/cuil/workspace/arm/lm3s811/TI_Stellaris/driverlib/lpc.c ****     // Get the current mask value.
1185:/home/cuil/workspace/arm/lm3s811/TI_Stellaris/driverlib/lpc.c ****     //
1186:/home/cuil/workspace/arm/lm3s811/TI_Stellaris/driverlib/lpc.c ****     ulTemp = HWREG(ulBase + LPC_O_DMACX);
 11239              		.loc 1 1186 0
 11240 000c FB68     		ldr	r3, [r7, #12]
 11241 000e 03F59073 		add	r3, r3, #288
 11242 0012 1B68     		ldr	r3, [r3, #0]
 11243 0014 7B61     		str	r3, [r7, #20]
1187:/home/cuil/workspace/arm/lm3s811/TI_Stellaris/driverlib/lpc.c ****     ulTemp &= ~ulMask;
 11244              		.loc 1 1187 0
 11245 0016 7B68     		ldr	r3, [r7, #4]
 11246 0018 6FEA0303 		mvn	r3, r3
 11247 001c 7A69     		ldr	r2, [r7, #20]
 11248 001e 02EA0303 		and	r3, r2, r3
 11249 0022 7B61     		str	r3, [r7, #20]
1188:/home/cuil/workspace/arm/lm3s811/TI_Stellaris/driverlib/lpc.c ****     ulTemp |= (ulConfig & ulMask);
 11250              		.loc 1 1188 0
 11251 0024 BA68     		ldr	r2, [r7, #8]
 11252 0026 7B68     		ldr	r3, [r7, #4]
 11253 0028 02EA0303 		and	r3, r2, r3
 11254 002c 7A69     		ldr	r2, [r7, #20]
 11255 002e 42EA0303 		orr	r3, r2, r3
 11256 0032 7B61     		str	r3, [r7, #20]
1189:/home/cuil/workspace/arm/lm3s811/TI_Stellaris/driverlib/lpc.c ****     HWREG(ulBase + LPC_O_DMACX) = ulTemp;
 11257              		.loc 1 1189 0
 11258 0034 FB68     		ldr	r3, [r7, #12]
 11259 0036 03F59073 		add	r3, r3, #288
 11260 003a 7A69     		ldr	r2, [r7, #20]
 11261 003c 1A60     		str	r2, [r3, #0]
1190:/home/cuil/workspace/arm/lm3s811/TI_Stellaris/driverlib/lpc.c **** }
 11262              		.loc 1 1190 0
 11263 003e 07F11C07 		add	r7, r7, #28
 11264 0042 BD46     		mov	sp, r7
 11265 0044 80BC     		pop	{r7}
 11266 0046 7047     		bx	lr
 11267              		.cfi_endproc
 11268              	.LFE27:
 11270              		.section	.text.LPCChannelDMAConfigGet,"ax",%progbits
 11271              		.align	2
 11272              		.global	LPCChannelDMAConfigGet
 11273              		.thumb
 11274              		.thumb_func
 11276              	LPCChannelDMAConfigGet:
 11277              	.LFB28:
1191:/home/cuil/workspace/arm/lm3s811/TI_Stellaris/driverlib/lpc.c **** 
1192:/home/cuil/workspace/arm/lm3s811/TI_Stellaris/driverlib/lpc.c **** //*****************************************************************************
1193:/home/cuil/workspace/arm/lm3s811/TI_Stellaris/driverlib/lpc.c **** //
1194:/home/cuil/workspace/arm/lm3s811/TI_Stellaris/driverlib/lpc.c **** //! Gets the configuration of DMA for LPC channels.
1195:/home/cuil/workspace/arm/lm3s811/TI_Stellaris/driverlib/lpc.c **** //!
1196:/home/cuil/workspace/arm/lm3s811/TI_Stellaris/driverlib/lpc.c **** //! \param ulBase specifies the LPC module base address.
1197:/home/cuil/workspace/arm/lm3s811/TI_Stellaris/driverlib/lpc.c **** //!
1198:/home/cuil/workspace/arm/lm3s811/TI_Stellaris/driverlib/lpc.c **** //! This function returns the configuration of the LPC DMA channels.
1199:/home/cuil/workspace/arm/lm3s811/TI_Stellaris/driverlib/lpc.c **** //!
1200:/home/cuil/workspace/arm/lm3s811/TI_Stellaris/driverlib/lpc.c **** //! \return Returns the bit-mapped DMA channel configuration.
1201:/home/cuil/workspace/arm/lm3s811/TI_Stellaris/driverlib/lpc.c **** //
1202:/home/cuil/workspace/arm/lm3s811/TI_Stellaris/driverlib/lpc.c **** //*****************************************************************************
1203:/home/cuil/workspace/arm/lm3s811/TI_Stellaris/driverlib/lpc.c **** unsigned long
1204:/home/cuil/workspace/arm/lm3s811/TI_Stellaris/driverlib/lpc.c **** LPCChannelDMAConfigGet(unsigned long ulBase)
1205:/home/cuil/workspace/arm/lm3s811/TI_Stellaris/driverlib/lpc.c **** {
 11278              		.loc 1 1205 0
 11279              		.cfi_startproc
 11280              		@ args = 0, pretend = 0, frame = 8
 11281              		@ frame_needed = 1, uses_anonymous_args = 0
 11282              		@ link register save eliminated.
 11283 0000 80B4     		push	{r7}
 11284              	.LCFI84:
 11285              		.cfi_def_cfa_offset 4
 11286 0002 83B0     		sub	sp, sp, #12
 11287              	.LCFI85:
 11288              		.cfi_def_cfa_offset 16
 11289 0004 00AF     		add	r7, sp, #0
 11290              		.cfi_offset 7, -4
 11291              	.LCFI86:
 11292              		.cfi_def_cfa_register 7
 11293 0006 7860     		str	r0, [r7, #4]
1206:/home/cuil/workspace/arm/lm3s811/TI_Stellaris/driverlib/lpc.c ****     //
1207:/home/cuil/workspace/arm/lm3s811/TI_Stellaris/driverlib/lpc.c ****     // Check the arguments.
1208:/home/cuil/workspace/arm/lm3s811/TI_Stellaris/driverlib/lpc.c ****     //
1209:/home/cuil/workspace/arm/lm3s811/TI_Stellaris/driverlib/lpc.c ****     ASSERT(ulBase == LPC0_BASE);
1210:/home/cuil/workspace/arm/lm3s811/TI_Stellaris/driverlib/lpc.c **** 
1211:/home/cuil/workspace/arm/lm3s811/TI_Stellaris/driverlib/lpc.c ****     //
1212:/home/cuil/workspace/arm/lm3s811/TI_Stellaris/driverlib/lpc.c ****     // Get the current mask value.
1213:/home/cuil/workspace/arm/lm3s811/TI_Stellaris/driverlib/lpc.c ****     //
1214:/home/cuil/workspace/arm/lm3s811/TI_Stellaris/driverlib/lpc.c ****     return(HWREG(ulBase + LPC_O_DMACX) & 0x000000FF);
 11294              		.loc 1 1214 0
 11295 0008 7B68     		ldr	r3, [r7, #4]
 11296 000a 03F59073 		add	r3, r3, #288
 11297 000e 1B68     		ldr	r3, [r3, #0]
 11298 0010 03F0FF03 		and	r3, r3, #255
1215:/home/cuil/workspace/arm/lm3s811/TI_Stellaris/driverlib/lpc.c **** }
 11299              		.loc 1 1215 0
 11300 0014 1846     		mov	r0, r3
 11301 0016 07F10C07 		add	r7, r7, #12
 11302 001a BD46     		mov	sp, r7
 11303 001c 80BC     		pop	{r7}
 11304 001e 7047     		bx	lr
 11305              		.cfi_endproc
 11306              	.LFE28:
 11308              		.section	.text.LPCByteRead,"ax",%progbits
 11309              		.align	2
 11310              		.global	LPCByteRead
 11311              		.thumb
 11312              		.thumb_func
 11314              	LPCByteRead:
 11315              	.LFB29:
1216:/home/cuil/workspace/arm/lm3s811/TI_Stellaris/driverlib/lpc.c **** 
1217:/home/cuil/workspace/arm/lm3s811/TI_Stellaris/driverlib/lpc.c **** //*****************************************************************************
1218:/home/cuil/workspace/arm/lm3s811/TI_Stellaris/driverlib/lpc.c **** //
1219:/home/cuil/workspace/arm/lm3s811/TI_Stellaris/driverlib/lpc.c **** //! Reads a byte from the LPC channel pool.
1220:/home/cuil/workspace/arm/lm3s811/TI_Stellaris/driverlib/lpc.c **** //!
1221:/home/cuil/workspace/arm/lm3s811/TI_Stellaris/driverlib/lpc.c **** //! \param ulBase specifies the LPC module base address.
1222:/home/cuil/workspace/arm/lm3s811/TI_Stellaris/driverlib/lpc.c **** //! \param ulOffset specifies the offset from the beginning of the LPC channel
1223:/home/cuil/workspace/arm/lm3s811/TI_Stellaris/driverlib/lpc.c **** //! pool.
1224:/home/cuil/workspace/arm/lm3s811/TI_Stellaris/driverlib/lpc.c **** //!
1225:/home/cuil/workspace/arm/lm3s811/TI_Stellaris/driverlib/lpc.c **** //! This function reads a byte from the channel pool.
1226:/home/cuil/workspace/arm/lm3s811/TI_Stellaris/driverlib/lpc.c **** //!
1227:/home/cuil/workspace/arm/lm3s811/TI_Stellaris/driverlib/lpc.c **** //! \return Returns the byte read from the pool memory.
1228:/home/cuil/workspace/arm/lm3s811/TI_Stellaris/driverlib/lpc.c **** //
1229:/home/cuil/workspace/arm/lm3s811/TI_Stellaris/driverlib/lpc.c **** //*****************************************************************************
1230:/home/cuil/workspace/arm/lm3s811/TI_Stellaris/driverlib/lpc.c **** unsigned char
1231:/home/cuil/workspace/arm/lm3s811/TI_Stellaris/driverlib/lpc.c **** LPCByteRead(unsigned long ulBase, unsigned long ulOffset)
1232:/home/cuil/workspace/arm/lm3s811/TI_Stellaris/driverlib/lpc.c **** {
 11316              		.loc 1 1232 0
 11317              		.cfi_startproc
 11318              		@ args = 0, pretend = 0, frame = 8
 11319              		@ frame_needed = 1, uses_anonymous_args = 0
 11320              		@ link register save eliminated.
 11321 0000 80B4     		push	{r7}
 11322              	.LCFI87:
 11323              		.cfi_def_cfa_offset 4
 11324 0002 83B0     		sub	sp, sp, #12
 11325              	.LCFI88:
 11326              		.cfi_def_cfa_offset 16
 11327 0004 00AF     		add	r7, sp, #0
 11328              		.cfi_offset 7, -4
 11329              	.LCFI89:
 11330              		.cfi_def_cfa_register 7
 11331 0006 7860     		str	r0, [r7, #4]
 11332 0008 3960     		str	r1, [r7, #0]
1233:/home/cuil/workspace/arm/lm3s811/TI_Stellaris/driverlib/lpc.c ****     //
1234:/home/cuil/workspace/arm/lm3s811/TI_Stellaris/driverlib/lpc.c ****     // Check the arguments.
1235:/home/cuil/workspace/arm/lm3s811/TI_Stellaris/driverlib/lpc.c ****     //
1236:/home/cuil/workspace/arm/lm3s811/TI_Stellaris/driverlib/lpc.c ****     ASSERT(ulBase == LPC0_BASE);
1237:/home/cuil/workspace/arm/lm3s811/TI_Stellaris/driverlib/lpc.c ****     ASSERT(ulOffset < (((HWREG(ulBase + LPC_O_STS) & LPC_STS_POOLSZ_M) >>
1238:/home/cuil/workspace/arm/lm3s811/TI_Stellaris/driverlib/lpc.c ****                         16) * 256));
1239:/home/cuil/workspace/arm/lm3s811/TI_Stellaris/driverlib/lpc.c **** 
1240:/home/cuil/workspace/arm/lm3s811/TI_Stellaris/driverlib/lpc.c ****     //
1241:/home/cuil/workspace/arm/lm3s811/TI_Stellaris/driverlib/lpc.c ****     // Return the byte from the LPC Buffer Pool.
1242:/home/cuil/workspace/arm/lm3s811/TI_Stellaris/driverlib/lpc.c ****     //
1243:/home/cuil/workspace/arm/lm3s811/TI_Stellaris/driverlib/lpc.c ****     return(HWREGB(ulBase + LPC_O_POOL + ulOffset));
 11333              		.loc 1 1243 0
 11334 000a 7A68     		ldr	r2, [r7, #4]
 11335 000c 3B68     		ldr	r3, [r7, #0]
 11336 000e D318     		adds	r3, r2, r3
 11337 0010 03F58063 		add	r3, r3, #1024
 11338 0014 1B78     		ldrb	r3, [r3, #0]
 11339 0016 DBB2     		uxtb	r3, r3
1244:/home/cuil/workspace/arm/lm3s811/TI_Stellaris/driverlib/lpc.c **** }
 11340              		.loc 1 1244 0
 11341 0018 1846     		mov	r0, r3
 11342 001a 07F10C07 		add	r7, r7, #12
 11343 001e BD46     		mov	sp, r7
 11344 0020 80BC     		pop	{r7}
 11345 0022 7047     		bx	lr
 11346              		.cfi_endproc
 11347              	.LFE29:
 11349              		.section	.text.LPCByteWrite,"ax",%progbits
 11350              		.align	2
 11351              		.global	LPCByteWrite
 11352              		.thumb
 11353              		.thumb_func
 11355              	LPCByteWrite:
 11356              	.LFB30:
1245:/home/cuil/workspace/arm/lm3s811/TI_Stellaris/driverlib/lpc.c **** 
1246:/home/cuil/workspace/arm/lm3s811/TI_Stellaris/driverlib/lpc.c **** //*****************************************************************************
1247:/home/cuil/workspace/arm/lm3s811/TI_Stellaris/driverlib/lpc.c **** //
1248:/home/cuil/workspace/arm/lm3s811/TI_Stellaris/driverlib/lpc.c **** //! Writes a byte to the LPC channel pool.
1249:/home/cuil/workspace/arm/lm3s811/TI_Stellaris/driverlib/lpc.c **** //!
1250:/home/cuil/workspace/arm/lm3s811/TI_Stellaris/driverlib/lpc.c **** //! \param ulBase specifies the LPC module base address.
1251:/home/cuil/workspace/arm/lm3s811/TI_Stellaris/driverlib/lpc.c **** //! \param ulOffset specifies the offset from the beginning of the LPC channel
1252:/home/cuil/workspace/arm/lm3s811/TI_Stellaris/driverlib/lpc.c **** //! pool.
1253:/home/cuil/workspace/arm/lm3s811/TI_Stellaris/driverlib/lpc.c **** //! \param ucData specifies the byte to write.
1254:/home/cuil/workspace/arm/lm3s811/TI_Stellaris/driverlib/lpc.c **** //!
1255:/home/cuil/workspace/arm/lm3s811/TI_Stellaris/driverlib/lpc.c **** //! This function writes a byte to the channel pool.
1256:/home/cuil/workspace/arm/lm3s811/TI_Stellaris/driverlib/lpc.c **** //!
1257:/home/cuil/workspace/arm/lm3s811/TI_Stellaris/driverlib/lpc.c **** //! \return None
1258:/home/cuil/workspace/arm/lm3s811/TI_Stellaris/driverlib/lpc.c **** //
1259:/home/cuil/workspace/arm/lm3s811/TI_Stellaris/driverlib/lpc.c **** //*****************************************************************************
1260:/home/cuil/workspace/arm/lm3s811/TI_Stellaris/driverlib/lpc.c **** void
1261:/home/cuil/workspace/arm/lm3s811/TI_Stellaris/driverlib/lpc.c **** LPCByteWrite(unsigned long ulBase, unsigned long ulOffset,
1262:/home/cuil/workspace/arm/lm3s811/TI_Stellaris/driverlib/lpc.c ****              unsigned char ucData)
1263:/home/cuil/workspace/arm/lm3s811/TI_Stellaris/driverlib/lpc.c **** {
 11357              		.loc 1 1263 0
 11358              		.cfi_startproc
 11359              		@ args = 0, pretend = 0, frame = 16
 11360              		@ frame_needed = 1, uses_anonymous_args = 0
 11361              		@ link register save eliminated.
 11362 0000 80B4     		push	{r7}
 11363              	.LCFI90:
 11364              		.cfi_def_cfa_offset 4
 11365 0002 85B0     		sub	sp, sp, #20
 11366              	.LCFI91:
 11367              		.cfi_def_cfa_offset 24
 11368 0004 00AF     		add	r7, sp, #0
 11369              		.cfi_offset 7, -4
 11370              	.LCFI92:
 11371              		.cfi_def_cfa_register 7
 11372 0006 F860     		str	r0, [r7, #12]
 11373 0008 B960     		str	r1, [r7, #8]
 11374 000a 1346     		mov	r3, r2
 11375 000c FB71     		strb	r3, [r7, #7]
1264:/home/cuil/workspace/arm/lm3s811/TI_Stellaris/driverlib/lpc.c ****     //
1265:/home/cuil/workspace/arm/lm3s811/TI_Stellaris/driverlib/lpc.c ****     // Check the arguments.
1266:/home/cuil/workspace/arm/lm3s811/TI_Stellaris/driverlib/lpc.c ****     //
1267:/home/cuil/workspace/arm/lm3s811/TI_Stellaris/driverlib/lpc.c ****     ASSERT(ulBase == LPC0_BASE);
1268:/home/cuil/workspace/arm/lm3s811/TI_Stellaris/driverlib/lpc.c ****     ASSERT(ulOffset < (((HWREG(ulBase + LPC_O_STS) & LPC_STS_POOLSZ_M) >>
1269:/home/cuil/workspace/arm/lm3s811/TI_Stellaris/driverlib/lpc.c ****                         16) * 256));
1270:/home/cuil/workspace/arm/lm3s811/TI_Stellaris/driverlib/lpc.c **** 
1271:/home/cuil/workspace/arm/lm3s811/TI_Stellaris/driverlib/lpc.c ****     //
1272:/home/cuil/workspace/arm/lm3s811/TI_Stellaris/driverlib/lpc.c ****     // Write the byte to the LPC Buffer Pool.
1273:/home/cuil/workspace/arm/lm3s811/TI_Stellaris/driverlib/lpc.c ****     //
1274:/home/cuil/workspace/arm/lm3s811/TI_Stellaris/driverlib/lpc.c ****     HWREGB(ulBase + LPC_O_POOL + ulOffset) = ucData;
 11376              		.loc 1 1274 0
 11377 000e FA68     		ldr	r2, [r7, #12]
 11378 0010 BB68     		ldr	r3, [r7, #8]
 11379 0012 D318     		adds	r3, r2, r3
 11380 0014 03F58063 		add	r3, r3, #1024
 11381 0018 FA79     		ldrb	r2, [r7, #7]
 11382 001a 1A70     		strb	r2, [r3, #0]
1275:/home/cuil/workspace/arm/lm3s811/TI_Stellaris/driverlib/lpc.c **** }
 11383              		.loc 1 1275 0
 11384 001c 07F11407 		add	r7, r7, #20
 11385 0020 BD46     		mov	sp, r7
 11386 0022 80BC     		pop	{r7}
 11387 0024 7047     		bx	lr
 11388              		.cfi_endproc
 11389              	.LFE30:
 11391 0026 00BF     		.section	.text.LPCHalfWordRead,"ax",%progbits
 11392              		.align	2
 11393              		.global	LPCHalfWordRead
 11394              		.thumb
 11395              		.thumb_func
 11397              	LPCHalfWordRead:
 11398              	.LFB31:
1276:/home/cuil/workspace/arm/lm3s811/TI_Stellaris/driverlib/lpc.c **** 
1277:/home/cuil/workspace/arm/lm3s811/TI_Stellaris/driverlib/lpc.c **** //*****************************************************************************
1278:/home/cuil/workspace/arm/lm3s811/TI_Stellaris/driverlib/lpc.c **** //
1279:/home/cuil/workspace/arm/lm3s811/TI_Stellaris/driverlib/lpc.c **** //! Reads a half-word from the LPC channel pool.
1280:/home/cuil/workspace/arm/lm3s811/TI_Stellaris/driverlib/lpc.c **** //!
1281:/home/cuil/workspace/arm/lm3s811/TI_Stellaris/driverlib/lpc.c **** //! \param ulBase specifies the LPC module base address.
1282:/home/cuil/workspace/arm/lm3s811/TI_Stellaris/driverlib/lpc.c **** //! \param ulOffset specifies the offset from the beginning of the LPC channel
1283:/home/cuil/workspace/arm/lm3s811/TI_Stellaris/driverlib/lpc.c **** //! pool.
1284:/home/cuil/workspace/arm/lm3s811/TI_Stellaris/driverlib/lpc.c **** //!
1285:/home/cuil/workspace/arm/lm3s811/TI_Stellaris/driverlib/lpc.c **** //! This function reads a half-word from the channel pool.  The \e ulOffset
1286:/home/cuil/workspace/arm/lm3s811/TI_Stellaris/driverlib/lpc.c **** //! specified must be half-word aligned.
1287:/home/cuil/workspace/arm/lm3s811/TI_Stellaris/driverlib/lpc.c **** //!
1288:/home/cuil/workspace/arm/lm3s811/TI_Stellaris/driverlib/lpc.c **** //! \return Returns the half-word read from the pool memory.
1289:/home/cuil/workspace/arm/lm3s811/TI_Stellaris/driverlib/lpc.c **** //
1290:/home/cuil/workspace/arm/lm3s811/TI_Stellaris/driverlib/lpc.c **** //*****************************************************************************
1291:/home/cuil/workspace/arm/lm3s811/TI_Stellaris/driverlib/lpc.c **** unsigned short
1292:/home/cuil/workspace/arm/lm3s811/TI_Stellaris/driverlib/lpc.c **** LPCHalfWordRead(unsigned long ulBase, unsigned long ulOffset)
1293:/home/cuil/workspace/arm/lm3s811/TI_Stellaris/driverlib/lpc.c **** {
 11399              		.loc 1 1293 0
 11400              		.cfi_startproc
 11401              		@ args = 0, pretend = 0, frame = 8
 11402              		@ frame_needed = 1, uses_anonymous_args = 0
 11403              		@ link register save eliminated.
 11404 0000 80B4     		push	{r7}
 11405              	.LCFI93:
 11406              		.cfi_def_cfa_offset 4
 11407 0002 83B0     		sub	sp, sp, #12
 11408              	.LCFI94:
 11409              		.cfi_def_cfa_offset 16
 11410 0004 00AF     		add	r7, sp, #0
 11411              		.cfi_offset 7, -4
 11412              	.LCFI95:
 11413              		.cfi_def_cfa_register 7
 11414 0006 7860     		str	r0, [r7, #4]
 11415 0008 3960     		str	r1, [r7, #0]
1294:/home/cuil/workspace/arm/lm3s811/TI_Stellaris/driverlib/lpc.c ****     //
1295:/home/cuil/workspace/arm/lm3s811/TI_Stellaris/driverlib/lpc.c ****     // Check the arguments.
1296:/home/cuil/workspace/arm/lm3s811/TI_Stellaris/driverlib/lpc.c ****     //
1297:/home/cuil/workspace/arm/lm3s811/TI_Stellaris/driverlib/lpc.c ****     ASSERT(ulBase == LPC0_BASE);
1298:/home/cuil/workspace/arm/lm3s811/TI_Stellaris/driverlib/lpc.c ****     ASSERT((ulOffset & 1) == 0);
1299:/home/cuil/workspace/arm/lm3s811/TI_Stellaris/driverlib/lpc.c ****     ASSERT(ulOffset < (((HWREG(ulBase + LPC_O_STS) & LPC_STS_POOLSZ_M) >>
1300:/home/cuil/workspace/arm/lm3s811/TI_Stellaris/driverlib/lpc.c ****                         16) * 256));
1301:/home/cuil/workspace/arm/lm3s811/TI_Stellaris/driverlib/lpc.c **** 
1302:/home/cuil/workspace/arm/lm3s811/TI_Stellaris/driverlib/lpc.c ****     //
1303:/home/cuil/workspace/arm/lm3s811/TI_Stellaris/driverlib/lpc.c ****     // Return the half-word from the LPC Buffer Pool.
1304:/home/cuil/workspace/arm/lm3s811/TI_Stellaris/driverlib/lpc.c ****     //
1305:/home/cuil/workspace/arm/lm3s811/TI_Stellaris/driverlib/lpc.c ****     return(HWREGH(ulBase + LPC_O_POOL + ulOffset));
 11416              		.loc 1 1305 0
 11417 000a 7A68     		ldr	r2, [r7, #4]
 11418 000c 3B68     		ldr	r3, [r7, #0]
 11419 000e D318     		adds	r3, r2, r3
 11420 0010 03F58063 		add	r3, r3, #1024
 11421 0014 1B88     		ldrh	r3, [r3, #0]	@ movhi
 11422 0016 9BB2     		uxth	r3, r3
1306:/home/cuil/workspace/arm/lm3s811/TI_Stellaris/driverlib/lpc.c **** }
 11423              		.loc 1 1306 0
 11424 0018 1846     		mov	r0, r3
 11425 001a 07F10C07 		add	r7, r7, #12
 11426 001e BD46     		mov	sp, r7
 11427 0020 80BC     		pop	{r7}
 11428 0022 7047     		bx	lr
 11429              		.cfi_endproc
 11430              	.LFE31:
 11432              		.section	.text.LPCHalfWordWrite,"ax",%progbits
 11433              		.align	2
 11434              		.global	LPCHalfWordWrite
 11435              		.thumb
 11436              		.thumb_func
 11438              	LPCHalfWordWrite:
 11439              	.LFB32:
1307:/home/cuil/workspace/arm/lm3s811/TI_Stellaris/driverlib/lpc.c **** 
1308:/home/cuil/workspace/arm/lm3s811/TI_Stellaris/driverlib/lpc.c **** //*****************************************************************************
1309:/home/cuil/workspace/arm/lm3s811/TI_Stellaris/driverlib/lpc.c **** //
1310:/home/cuil/workspace/arm/lm3s811/TI_Stellaris/driverlib/lpc.c **** //! Writes a half-word to the LPC channel pool.
1311:/home/cuil/workspace/arm/lm3s811/TI_Stellaris/driverlib/lpc.c **** //!
1312:/home/cuil/workspace/arm/lm3s811/TI_Stellaris/driverlib/lpc.c **** //! \param ulBase specifies the LPC module base address.
1313:/home/cuil/workspace/arm/lm3s811/TI_Stellaris/driverlib/lpc.c **** //! \param ulOffset specifies the offset from the beginning of the LPC channel
1314:/home/cuil/workspace/arm/lm3s811/TI_Stellaris/driverlib/lpc.c **** //! pool.
1315:/home/cuil/workspace/arm/lm3s811/TI_Stellaris/driverlib/lpc.c **** //! \param usData specifies the byte to write.
1316:/home/cuil/workspace/arm/lm3s811/TI_Stellaris/driverlib/lpc.c **** //!
1317:/home/cuil/workspace/arm/lm3s811/TI_Stellaris/driverlib/lpc.c **** //! This function writes a half-word to the channel pool.  The \e ulOffset
1318:/home/cuil/workspace/arm/lm3s811/TI_Stellaris/driverlib/lpc.c **** //! specified must be half-word aligned.
1319:/home/cuil/workspace/arm/lm3s811/TI_Stellaris/driverlib/lpc.c **** //!
1320:/home/cuil/workspace/arm/lm3s811/TI_Stellaris/driverlib/lpc.c **** //! \return None
1321:/home/cuil/workspace/arm/lm3s811/TI_Stellaris/driverlib/lpc.c **** //
1322:/home/cuil/workspace/arm/lm3s811/TI_Stellaris/driverlib/lpc.c **** //*****************************************************************************
1323:/home/cuil/workspace/arm/lm3s811/TI_Stellaris/driverlib/lpc.c **** void
1324:/home/cuil/workspace/arm/lm3s811/TI_Stellaris/driverlib/lpc.c **** LPCHalfWordWrite(unsigned long ulBase, unsigned long ulOffset,
1325:/home/cuil/workspace/arm/lm3s811/TI_Stellaris/driverlib/lpc.c ****                  unsigned short usData)
1326:/home/cuil/workspace/arm/lm3s811/TI_Stellaris/driverlib/lpc.c **** {
 11440              		.loc 1 1326 0
 11441              		.cfi_startproc
 11442              		@ args = 0, pretend = 0, frame = 16
 11443              		@ frame_needed = 1, uses_anonymous_args = 0
 11444              		@ link register save eliminated.
 11445 0000 80B4     		push	{r7}
 11446              	.LCFI96:
 11447              		.cfi_def_cfa_offset 4
 11448 0002 85B0     		sub	sp, sp, #20
 11449              	.LCFI97:
 11450              		.cfi_def_cfa_offset 24
 11451 0004 00AF     		add	r7, sp, #0
 11452              		.cfi_offset 7, -4
 11453              	.LCFI98:
 11454              		.cfi_def_cfa_register 7
 11455 0006 F860     		str	r0, [r7, #12]
 11456 0008 B960     		str	r1, [r7, #8]
 11457 000a 1346     		mov	r3, r2
 11458 000c FB80     		strh	r3, [r7, #6]	@ movhi
1327:/home/cuil/workspace/arm/lm3s811/TI_Stellaris/driverlib/lpc.c ****     //
1328:/home/cuil/workspace/arm/lm3s811/TI_Stellaris/driverlib/lpc.c ****     // Check the arguments.
1329:/home/cuil/workspace/arm/lm3s811/TI_Stellaris/driverlib/lpc.c ****     //
1330:/home/cuil/workspace/arm/lm3s811/TI_Stellaris/driverlib/lpc.c ****     ASSERT(ulBase == LPC0_BASE);
1331:/home/cuil/workspace/arm/lm3s811/TI_Stellaris/driverlib/lpc.c ****     ASSERT((ulOffset & 1) == 0);
1332:/home/cuil/workspace/arm/lm3s811/TI_Stellaris/driverlib/lpc.c ****     ASSERT(ulOffset < (((HWREG(ulBase + LPC_O_STS) & LPC_STS_POOLSZ_M) >>
1333:/home/cuil/workspace/arm/lm3s811/TI_Stellaris/driverlib/lpc.c ****                         16) * 256));
1334:/home/cuil/workspace/arm/lm3s811/TI_Stellaris/driverlib/lpc.c **** 
1335:/home/cuil/workspace/arm/lm3s811/TI_Stellaris/driverlib/lpc.c ****     //
1336:/home/cuil/workspace/arm/lm3s811/TI_Stellaris/driverlib/lpc.c ****     // Write the half-word to the LPC Buffer Pool.
1337:/home/cuil/workspace/arm/lm3s811/TI_Stellaris/driverlib/lpc.c ****     //
1338:/home/cuil/workspace/arm/lm3s811/TI_Stellaris/driverlib/lpc.c ****     HWREGH(ulBase + LPC_O_POOL + ulOffset) = usData;
 11459              		.loc 1 1338 0
 11460 000e FA68     		ldr	r2, [r7, #12]
 11461 0010 BB68     		ldr	r3, [r7, #8]
 11462 0012 D318     		adds	r3, r2, r3
 11463 0014 03F58063 		add	r3, r3, #1024
 11464 0018 FA88     		ldrh	r2, [r7, #6]	@ movhi
 11465 001a 1A80     		strh	r2, [r3, #0]	@ movhi
1339:/home/cuil/workspace/arm/lm3s811/TI_Stellaris/driverlib/lpc.c **** }
 11466              		.loc 1 1339 0
 11467 001c 07F11407 		add	r7, r7, #20
 11468 0020 BD46     		mov	sp, r7
 11469 0022 80BC     		pop	{r7}
 11470 0024 7047     		bx	lr
 11471              		.cfi_endproc
 11472              	.LFE32:
 11474 0026 00BF     		.section	.text.LPCWordRead,"ax",%progbits
 11475              		.align	2
 11476              		.global	LPCWordRead
 11477              		.thumb
 11478              		.thumb_func
 11480              	LPCWordRead:
 11481              	.LFB33:
1340:/home/cuil/workspace/arm/lm3s811/TI_Stellaris/driverlib/lpc.c **** 
1341:/home/cuil/workspace/arm/lm3s811/TI_Stellaris/driverlib/lpc.c **** //*****************************************************************************
1342:/home/cuil/workspace/arm/lm3s811/TI_Stellaris/driverlib/lpc.c **** //
1343:/home/cuil/workspace/arm/lm3s811/TI_Stellaris/driverlib/lpc.c **** //! Reads a word from the LPC channel pool.
1344:/home/cuil/workspace/arm/lm3s811/TI_Stellaris/driverlib/lpc.c **** //!
1345:/home/cuil/workspace/arm/lm3s811/TI_Stellaris/driverlib/lpc.c **** //! \param ulBase specifies the LPC module base address.
1346:/home/cuil/workspace/arm/lm3s811/TI_Stellaris/driverlib/lpc.c **** //! \param ulOffset specifies the offset from the beginning of the LPC channel
1347:/home/cuil/workspace/arm/lm3s811/TI_Stellaris/driverlib/lpc.c **** //! pool.
1348:/home/cuil/workspace/arm/lm3s811/TI_Stellaris/driverlib/lpc.c **** //!
1349:/home/cuil/workspace/arm/lm3s811/TI_Stellaris/driverlib/lpc.c **** //! This function reads a word from the channel pool.  The \e ulOffset
1350:/home/cuil/workspace/arm/lm3s811/TI_Stellaris/driverlib/lpc.c **** //! specified must be word aligned.
1351:/home/cuil/workspace/arm/lm3s811/TI_Stellaris/driverlib/lpc.c **** //!
1352:/home/cuil/workspace/arm/lm3s811/TI_Stellaris/driverlib/lpc.c **** //! \return Returns the word read from the pool memory.
1353:/home/cuil/workspace/arm/lm3s811/TI_Stellaris/driverlib/lpc.c **** //
1354:/home/cuil/workspace/arm/lm3s811/TI_Stellaris/driverlib/lpc.c **** //*****************************************************************************
1355:/home/cuil/workspace/arm/lm3s811/TI_Stellaris/driverlib/lpc.c **** unsigned long
1356:/home/cuil/workspace/arm/lm3s811/TI_Stellaris/driverlib/lpc.c **** LPCWordRead(unsigned long ulBase, unsigned long ulOffset)
1357:/home/cuil/workspace/arm/lm3s811/TI_Stellaris/driverlib/lpc.c **** {
 11482              		.loc 1 1357 0
 11483              		.cfi_startproc
 11484              		@ args = 0, pretend = 0, frame = 8
 11485              		@ frame_needed = 1, uses_anonymous_args = 0
 11486              		@ link register save eliminated.
 11487 0000 80B4     		push	{r7}
 11488              	.LCFI99:
 11489              		.cfi_def_cfa_offset 4
 11490 0002 83B0     		sub	sp, sp, #12
 11491              	.LCFI100:
 11492              		.cfi_def_cfa_offset 16
 11493 0004 00AF     		add	r7, sp, #0
 11494              		.cfi_offset 7, -4
 11495              	.LCFI101:
 11496              		.cfi_def_cfa_register 7
 11497 0006 7860     		str	r0, [r7, #4]
 11498 0008 3960     		str	r1, [r7, #0]
1358:/home/cuil/workspace/arm/lm3s811/TI_Stellaris/driverlib/lpc.c ****     //
1359:/home/cuil/workspace/arm/lm3s811/TI_Stellaris/driverlib/lpc.c ****     // Check the arguments.
1360:/home/cuil/workspace/arm/lm3s811/TI_Stellaris/driverlib/lpc.c ****     //
1361:/home/cuil/workspace/arm/lm3s811/TI_Stellaris/driverlib/lpc.c ****     ASSERT(ulBase == LPC0_BASE);
1362:/home/cuil/workspace/arm/lm3s811/TI_Stellaris/driverlib/lpc.c ****     ASSERT((ulOffset & 3) == 0);
1363:/home/cuil/workspace/arm/lm3s811/TI_Stellaris/driverlib/lpc.c ****     ASSERT(ulOffset < (((HWREG(ulBase + LPC_O_STS) & LPC_STS_POOLSZ_M) >>
1364:/home/cuil/workspace/arm/lm3s811/TI_Stellaris/driverlib/lpc.c ****                         16) * 256));
1365:/home/cuil/workspace/arm/lm3s811/TI_Stellaris/driverlib/lpc.c **** 
1366:/home/cuil/workspace/arm/lm3s811/TI_Stellaris/driverlib/lpc.c ****     //
1367:/home/cuil/workspace/arm/lm3s811/TI_Stellaris/driverlib/lpc.c ****     // Return the word from the LPC Buffer Pool.
1368:/home/cuil/workspace/arm/lm3s811/TI_Stellaris/driverlib/lpc.c ****     //
1369:/home/cuil/workspace/arm/lm3s811/TI_Stellaris/driverlib/lpc.c ****     return(HWREG(ulBase + LPC_O_POOL + ulOffset));
 11499              		.loc 1 1369 0
 11500 000a 7A68     		ldr	r2, [r7, #4]
 11501 000c 3B68     		ldr	r3, [r7, #0]
 11502 000e D318     		adds	r3, r2, r3
 11503 0010 03F58063 		add	r3, r3, #1024
 11504 0014 1B68     		ldr	r3, [r3, #0]
1370:/home/cuil/workspace/arm/lm3s811/TI_Stellaris/driverlib/lpc.c **** }
 11505              		.loc 1 1370 0
 11506 0016 1846     		mov	r0, r3
 11507 0018 07F10C07 		add	r7, r7, #12
 11508 001c BD46     		mov	sp, r7
 11509 001e 80BC     		pop	{r7}
 11510 0020 7047     		bx	lr
 11511              		.cfi_endproc
 11512              	.LFE33:
 11514 0022 00BF     		.section	.text.LPCWordWrite,"ax",%progbits
 11515              		.align	2
 11516              		.global	LPCWordWrite
 11517              		.thumb
 11518              		.thumb_func
 11520              	LPCWordWrite:
 11521              	.LFB34:
1371:/home/cuil/workspace/arm/lm3s811/TI_Stellaris/driverlib/lpc.c **** 
1372:/home/cuil/workspace/arm/lm3s811/TI_Stellaris/driverlib/lpc.c **** //*****************************************************************************
1373:/home/cuil/workspace/arm/lm3s811/TI_Stellaris/driverlib/lpc.c **** //
1374:/home/cuil/workspace/arm/lm3s811/TI_Stellaris/driverlib/lpc.c **** //! Writes a word to the LPC channel pool.
1375:/home/cuil/workspace/arm/lm3s811/TI_Stellaris/driverlib/lpc.c **** //!
1376:/home/cuil/workspace/arm/lm3s811/TI_Stellaris/driverlib/lpc.c **** //! \param ulBase specifies the LPC module base address.
1377:/home/cuil/workspace/arm/lm3s811/TI_Stellaris/driverlib/lpc.c **** //! \param ulOffset specifies the offset from the beginning of the LPC channel
1378:/home/cuil/workspace/arm/lm3s811/TI_Stellaris/driverlib/lpc.c **** //! pool.
1379:/home/cuil/workspace/arm/lm3s811/TI_Stellaris/driverlib/lpc.c **** //! \param ulData specifies the word to write.
1380:/home/cuil/workspace/arm/lm3s811/TI_Stellaris/driverlib/lpc.c **** //!
1381:/home/cuil/workspace/arm/lm3s811/TI_Stellaris/driverlib/lpc.c **** //! This function writes a word to the channel pool.  The \e ulOffset
1382:/home/cuil/workspace/arm/lm3s811/TI_Stellaris/driverlib/lpc.c **** //! specified must be word aligned.
1383:/home/cuil/workspace/arm/lm3s811/TI_Stellaris/driverlib/lpc.c **** //!
1384:/home/cuil/workspace/arm/lm3s811/TI_Stellaris/driverlib/lpc.c **** //! \return None
1385:/home/cuil/workspace/arm/lm3s811/TI_Stellaris/driverlib/lpc.c **** //
1386:/home/cuil/workspace/arm/lm3s811/TI_Stellaris/driverlib/lpc.c **** //*****************************************************************************
1387:/home/cuil/workspace/arm/lm3s811/TI_Stellaris/driverlib/lpc.c **** void
1388:/home/cuil/workspace/arm/lm3s811/TI_Stellaris/driverlib/lpc.c **** LPCWordWrite(unsigned long ulBase, unsigned long ulOffset,
1389:/home/cuil/workspace/arm/lm3s811/TI_Stellaris/driverlib/lpc.c ****              unsigned long ulData)
1390:/home/cuil/workspace/arm/lm3s811/TI_Stellaris/driverlib/lpc.c **** {
 11522              		.loc 1 1390 0
 11523              		.cfi_startproc
 11524              		@ args = 0, pretend = 0, frame = 16
 11525              		@ frame_needed = 1, uses_anonymous_args = 0
 11526              		@ link register save eliminated.
 11527 0000 80B4     		push	{r7}
 11528              	.LCFI102:
 11529              		.cfi_def_cfa_offset 4
 11530 0002 85B0     		sub	sp, sp, #20
 11531              	.LCFI103:
 11532              		.cfi_def_cfa_offset 24
 11533 0004 00AF     		add	r7, sp, #0
 11534              		.cfi_offset 7, -4
 11535              	.LCFI104:
 11536              		.cfi_def_cfa_register 7
 11537 0006 F860     		str	r0, [r7, #12]
 11538 0008 B960     		str	r1, [r7, #8]
 11539 000a 7A60     		str	r2, [r7, #4]
1391:/home/cuil/workspace/arm/lm3s811/TI_Stellaris/driverlib/lpc.c ****     //
1392:/home/cuil/workspace/arm/lm3s811/TI_Stellaris/driverlib/lpc.c ****     // Check the arguments.
1393:/home/cuil/workspace/arm/lm3s811/TI_Stellaris/driverlib/lpc.c ****     //
1394:/home/cuil/workspace/arm/lm3s811/TI_Stellaris/driverlib/lpc.c ****     ASSERT(ulBase == LPC0_BASE);
1395:/home/cuil/workspace/arm/lm3s811/TI_Stellaris/driverlib/lpc.c ****     ASSERT((ulOffset & 1) == 0);
1396:/home/cuil/workspace/arm/lm3s811/TI_Stellaris/driverlib/lpc.c ****     ASSERT(ulOffset < (((HWREG(ulBase + LPC_O_STS) & LPC_STS_POOLSZ_M) >>
1397:/home/cuil/workspace/arm/lm3s811/TI_Stellaris/driverlib/lpc.c ****                         16) * 256));
1398:/home/cuil/workspace/arm/lm3s811/TI_Stellaris/driverlib/lpc.c **** 
1399:/home/cuil/workspace/arm/lm3s811/TI_Stellaris/driverlib/lpc.c ****     //
1400:/home/cuil/workspace/arm/lm3s811/TI_Stellaris/driverlib/lpc.c ****     // Write the word to the LPC Buffer Pool.
1401:/home/cuil/workspace/arm/lm3s811/TI_Stellaris/driverlib/lpc.c ****     //
1402:/home/cuil/workspace/arm/lm3s811/TI_Stellaris/driverlib/lpc.c ****     HWREG(ulBase + LPC_O_POOL + ulOffset) = ulData;
 11540              		.loc 1 1402 0
 11541 000c FA68     		ldr	r2, [r7, #12]
 11542 000e BB68     		ldr	r3, [r7, #8]
 11543 0010 D318     		adds	r3, r2, r3
 11544 0012 03F58063 		add	r3, r3, #1024
 11545 0016 7A68     		ldr	r2, [r7, #4]
 11546 0018 1A60     		str	r2, [r3, #0]
1403:/home/cuil/workspace/arm/lm3s811/TI_Stellaris/driverlib/lpc.c **** }
 11547              		.loc 1 1403 0
 11548 001a 07F11407 		add	r7, r7, #20
 11549 001e BD46     		mov	sp, r7
 11550 0020 80BC     		pop	{r7}
 11551 0022 7047     		bx	lr
 11552              		.cfi_endproc
 11553              	.LFE34:
 11555              		.section	.text.LPCCOMxIntEnable,"ax",%progbits
 11556              		.align	2
 11557              		.global	LPCCOMxIntEnable
 11558              		.thumb
 11559              		.thumb_func
 11561              	LPCCOMxIntEnable:
 11562              	.LFB35:
1404:/home/cuil/workspace/arm/lm3s811/TI_Stellaris/driverlib/lpc.c **** 
1405:/home/cuil/workspace/arm/lm3s811/TI_Stellaris/driverlib/lpc.c **** //*****************************************************************************
1406:/home/cuil/workspace/arm/lm3s811/TI_Stellaris/driverlib/lpc.c **** //
1407:/home/cuil/workspace/arm/lm3s811/TI_Stellaris/driverlib/lpc.c **** //! Enables individual COMx interrupt sources.
1408:/home/cuil/workspace/arm/lm3s811/TI_Stellaris/driverlib/lpc.c **** //!
1409:/home/cuil/workspace/arm/lm3s811/TI_Stellaris/driverlib/lpc.c **** //! \param ulBase specifies the LPC module base address.
1410:/home/cuil/workspace/arm/lm3s811/TI_Stellaris/driverlib/lpc.c **** //! \param ulIntFlags is a bit mask of the interrupt sources to be enabled.
1411:/home/cuil/workspace/arm/lm3s811/TI_Stellaris/driverlib/lpc.c **** //!
1412:/home/cuil/workspace/arm/lm3s811/TI_Stellaris/driverlib/lpc.c **** //! This function enables the indicated COMx interrupt sources to trigger the 
1413:/home/cuil/workspace/arm/lm3s811/TI_Stellaris/driverlib/lpc.c **** //! COMx interrupt in the primary LPC interrupt registers.
1414:/home/cuil/workspace/arm/lm3s811/TI_Stellaris/driverlib/lpc.c **** //!
1415:/home/cuil/workspace/arm/lm3s811/TI_Stellaris/driverlib/lpc.c **** //! \return None.
1416:/home/cuil/workspace/arm/lm3s811/TI_Stellaris/driverlib/lpc.c **** //
1417:/home/cuil/workspace/arm/lm3s811/TI_Stellaris/driverlib/lpc.c **** //*****************************************************************************
1418:/home/cuil/workspace/arm/lm3s811/TI_Stellaris/driverlib/lpc.c **** void
1419:/home/cuil/workspace/arm/lm3s811/TI_Stellaris/driverlib/lpc.c **** LPCCOMxIntEnable(unsigned long ulBase, unsigned long ulIntFlags)
1420:/home/cuil/workspace/arm/lm3s811/TI_Stellaris/driverlib/lpc.c **** {
 11563              		.loc 1 1420 0
 11564              		.cfi_startproc
 11565              		@ args = 0, pretend = 0, frame = 8
 11566              		@ frame_needed = 1, uses_anonymous_args = 0
 11567              		@ link register save eliminated.
 11568 0000 80B4     		push	{r7}
 11569              	.LCFI105:
 11570              		.cfi_def_cfa_offset 4
 11571 0002 83B0     		sub	sp, sp, #12
 11572              	.LCFI106:
 11573              		.cfi_def_cfa_offset 16
 11574 0004 00AF     		add	r7, sp, #0
 11575              		.cfi_offset 7, -4
 11576              	.LCFI107:
 11577              		.cfi_def_cfa_register 7
 11578 0006 7860     		str	r0, [r7, #4]
 11579 0008 3960     		str	r1, [r7, #0]
1421:/home/cuil/workspace/arm/lm3s811/TI_Stellaris/driverlib/lpc.c ****     //
1422:/home/cuil/workspace/arm/lm3s811/TI_Stellaris/driverlib/lpc.c ****     // Check the arguments.
1423:/home/cuil/workspace/arm/lm3s811/TI_Stellaris/driverlib/lpc.c ****     //
1424:/home/cuil/workspace/arm/lm3s811/TI_Stellaris/driverlib/lpc.c ****     ASSERT(ulBase == LPC0_BASE);
1425:/home/cuil/workspace/arm/lm3s811/TI_Stellaris/driverlib/lpc.c ****     ASSERT((ulIntFlags & ~(LPC_DMACX_CXEM | LPC_DMACX_CXTXEM |
1426:/home/cuil/workspace/arm/lm3s811/TI_Stellaris/driverlib/lpc.c ****                            LPC_DMACX_CXRXEM)) == 0);
1427:/home/cuil/workspace/arm/lm3s811/TI_Stellaris/driverlib/lpc.c **** 
1428:/home/cuil/workspace/arm/lm3s811/TI_Stellaris/driverlib/lpc.c ****     //
1429:/home/cuil/workspace/arm/lm3s811/TI_Stellaris/driverlib/lpc.c ****     // Get the current mask value.
1430:/home/cuil/workspace/arm/lm3s811/TI_Stellaris/driverlib/lpc.c ****     //
1431:/home/cuil/workspace/arm/lm3s811/TI_Stellaris/driverlib/lpc.c ****     HWREG(ulBase + LPC_O_DMACX) |= ulIntFlags;
 11580              		.loc 1 1431 0
 11581 000a 7B68     		ldr	r3, [r7, #4]
 11582 000c 03F59073 		add	r3, r3, #288
 11583 0010 7A68     		ldr	r2, [r7, #4]
 11584 0012 02F59072 		add	r2, r2, #288
 11585 0016 1168     		ldr	r1, [r2, #0]
 11586 0018 3A68     		ldr	r2, [r7, #0]
 11587 001a 41EA0202 		orr	r2, r1, r2
 11588 001e 1A60     		str	r2, [r3, #0]
1432:/home/cuil/workspace/arm/lm3s811/TI_Stellaris/driverlib/lpc.c **** }
 11589              		.loc 1 1432 0
 11590 0020 07F10C07 		add	r7, r7, #12
 11591 0024 BD46     		mov	sp, r7
 11592 0026 80BC     		pop	{r7}
 11593 0028 7047     		bx	lr
 11594              		.cfi_endproc
 11595              	.LFE35:
 11597 002a 00BF     		.section	.text.LPCCOMxIntDisable,"ax",%progbits
 11598              		.align	2
 11599              		.global	LPCCOMxIntDisable
 11600              		.thumb
 11601              		.thumb_func
 11603              	LPCCOMxIntDisable:
 11604              	.LFB36:
1433:/home/cuil/workspace/arm/lm3s811/TI_Stellaris/driverlib/lpc.c **** 
1434:/home/cuil/workspace/arm/lm3s811/TI_Stellaris/driverlib/lpc.c **** //*****************************************************************************
1435:/home/cuil/workspace/arm/lm3s811/TI_Stellaris/driverlib/lpc.c **** //
1436:/home/cuil/workspace/arm/lm3s811/TI_Stellaris/driverlib/lpc.c **** //! Disables individual COMx interrupt sources.
1437:/home/cuil/workspace/arm/lm3s811/TI_Stellaris/driverlib/lpc.c **** //!
1438:/home/cuil/workspace/arm/lm3s811/TI_Stellaris/driverlib/lpc.c **** //! \param ulBase specifies the LPC module base address.
1439:/home/cuil/workspace/arm/lm3s811/TI_Stellaris/driverlib/lpc.c **** //! \param ulIntFlags is a bit mask of the interrupt sources to be disabled.
1440:/home/cuil/workspace/arm/lm3s811/TI_Stellaris/driverlib/lpc.c **** //!
1441:/home/cuil/workspace/arm/lm3s811/TI_Stellaris/driverlib/lpc.c **** //! This function disables the indicated COMx interrupt sources from triggering
1442:/home/cuil/workspace/arm/lm3s811/TI_Stellaris/driverlib/lpc.c **** //! the COMx interrupt in the primary LPC interrupt registers.
1443:/home/cuil/workspace/arm/lm3s811/TI_Stellaris/driverlib/lpc.c **** //!
1444:/home/cuil/workspace/arm/lm3s811/TI_Stellaris/driverlib/lpc.c **** //! \return None.
1445:/home/cuil/workspace/arm/lm3s811/TI_Stellaris/driverlib/lpc.c **** //
1446:/home/cuil/workspace/arm/lm3s811/TI_Stellaris/driverlib/lpc.c **** //*****************************************************************************
1447:/home/cuil/workspace/arm/lm3s811/TI_Stellaris/driverlib/lpc.c **** void
1448:/home/cuil/workspace/arm/lm3s811/TI_Stellaris/driverlib/lpc.c **** LPCCOMxIntDisable(unsigned long ulBase, unsigned long ulIntFlags)
1449:/home/cuil/workspace/arm/lm3s811/TI_Stellaris/driverlib/lpc.c **** {
 11605              		.loc 1 1449 0
 11606              		.cfi_startproc
 11607              		@ args = 0, pretend = 0, frame = 8
 11608              		@ frame_needed = 1, uses_anonymous_args = 0
 11609              		@ link register save eliminated.
 11610 0000 80B4     		push	{r7}
 11611              	.LCFI108:
 11612              		.cfi_def_cfa_offset 4
 11613 0002 83B0     		sub	sp, sp, #12
 11614              	.LCFI109:
 11615              		.cfi_def_cfa_offset 16
 11616 0004 00AF     		add	r7, sp, #0
 11617              		.cfi_offset 7, -4
 11618              	.LCFI110:
 11619              		.cfi_def_cfa_register 7
 11620 0006 7860     		str	r0, [r7, #4]
 11621 0008 3960     		str	r1, [r7, #0]
1450:/home/cuil/workspace/arm/lm3s811/TI_Stellaris/driverlib/lpc.c ****     //
1451:/home/cuil/workspace/arm/lm3s811/TI_Stellaris/driverlib/lpc.c ****     // Check the arguments.
1452:/home/cuil/workspace/arm/lm3s811/TI_Stellaris/driverlib/lpc.c ****     //
1453:/home/cuil/workspace/arm/lm3s811/TI_Stellaris/driverlib/lpc.c ****     ASSERT(ulBase == LPC0_BASE);
1454:/home/cuil/workspace/arm/lm3s811/TI_Stellaris/driverlib/lpc.c ****     ASSERT((ulIntFlags & ~(LPC_DMACX_CXEM | LPC_DMACX_CXTXEM |
1455:/home/cuil/workspace/arm/lm3s811/TI_Stellaris/driverlib/lpc.c ****                            LPC_DMACX_CXRXEM)) == 0);
1456:/home/cuil/workspace/arm/lm3s811/TI_Stellaris/driverlib/lpc.c **** 
1457:/home/cuil/workspace/arm/lm3s811/TI_Stellaris/driverlib/lpc.c ****     //
1458:/home/cuil/workspace/arm/lm3s811/TI_Stellaris/driverlib/lpc.c ****     // Disable the specified interrupts.
1459:/home/cuil/workspace/arm/lm3s811/TI_Stellaris/driverlib/lpc.c ****     //
1460:/home/cuil/workspace/arm/lm3s811/TI_Stellaris/driverlib/lpc.c ****     HWREG(ulBase + LPC_O_DMACX) &= ~ulIntFlags;
 11622              		.loc 1 1460 0
 11623 000a 7B68     		ldr	r3, [r7, #4]
 11624 000c 03F59073 		add	r3, r3, #288
 11625 0010 7A68     		ldr	r2, [r7, #4]
 11626 0012 02F59072 		add	r2, r2, #288
 11627 0016 1168     		ldr	r1, [r2, #0]
 11628 0018 3A68     		ldr	r2, [r7, #0]
 11629 001a 6FEA0202 		mvn	r2, r2
 11630 001e 01EA0202 		and	r2, r1, r2
 11631 0022 1A60     		str	r2, [r3, #0]
1461:/home/cuil/workspace/arm/lm3s811/TI_Stellaris/driverlib/lpc.c **** }
 11632              		.loc 1 1461 0
 11633 0024 07F10C07 		add	r7, r7, #12
 11634 0028 BD46     		mov	sp, r7
 11635 002a 80BC     		pop	{r7}
 11636 002c 7047     		bx	lr
 11637              		.cfi_endproc
 11638              	.LFE36:
 11640 002e 00BF     		.section	.text.LPCCOMxIntStatus,"ax",%progbits
 11641              		.align	2
 11642              		.global	LPCCOMxIntStatus
 11643              		.thumb
 11644              		.thumb_func
 11646              	LPCCOMxIntStatus:
 11647              	.LFB37:
1462:/home/cuil/workspace/arm/lm3s811/TI_Stellaris/driverlib/lpc.c **** 
1463:/home/cuil/workspace/arm/lm3s811/TI_Stellaris/driverlib/lpc.c **** //*****************************************************************************
1464:/home/cuil/workspace/arm/lm3s811/TI_Stellaris/driverlib/lpc.c **** //
1465:/home/cuil/workspace/arm/lm3s811/TI_Stellaris/driverlib/lpc.c **** //! Gets the current COMx interrupt status.
1466:/home/cuil/workspace/arm/lm3s811/TI_Stellaris/driverlib/lpc.c **** //!
1467:/home/cuil/workspace/arm/lm3s811/TI_Stellaris/driverlib/lpc.c **** //! \param ulBase specifies the LPC module base address.
1468:/home/cuil/workspace/arm/lm3s811/TI_Stellaris/driverlib/lpc.c **** //! \param bMasked is \b false if the raw interrupt status is required or
1469:/home/cuil/workspace/arm/lm3s811/TI_Stellaris/driverlib/lpc.c **** //! \b true if the masked interrupt status is required.
1470:/home/cuil/workspace/arm/lm3s811/TI_Stellaris/driverlib/lpc.c **** //!
1471:/home/cuil/workspace/arm/lm3s811/TI_Stellaris/driverlib/lpc.c **** //! This function returns the interrupt status for the COMx module.
1472:/home/cuil/workspace/arm/lm3s811/TI_Stellaris/driverlib/lpc.c **** //!
1473:/home/cuil/workspace/arm/lm3s811/TI_Stellaris/driverlib/lpc.c **** //! \return The current interrupt status.
1474:/home/cuil/workspace/arm/lm3s811/TI_Stellaris/driverlib/lpc.c **** //
1475:/home/cuil/workspace/arm/lm3s811/TI_Stellaris/driverlib/lpc.c **** //*****************************************************************************
1476:/home/cuil/workspace/arm/lm3s811/TI_Stellaris/driverlib/lpc.c **** unsigned long
1477:/home/cuil/workspace/arm/lm3s811/TI_Stellaris/driverlib/lpc.c **** LPCCOMxIntStatus(unsigned long ulBase, tBoolean bMasked)
1478:/home/cuil/workspace/arm/lm3s811/TI_Stellaris/driverlib/lpc.c **** {
 11648              		.loc 1 1478 0
 11649              		.cfi_startproc
 11650              		@ args = 0, pretend = 0, frame = 16
 11651              		@ frame_needed = 1, uses_anonymous_args = 0
 11652              		@ link register save eliminated.
 11653 0000 80B4     		push	{r7}
 11654              	.LCFI111:
 11655              		.cfi_def_cfa_offset 4
 11656 0002 85B0     		sub	sp, sp, #20
 11657              	.LCFI112:
 11658              		.cfi_def_cfa_offset 24
 11659 0004 00AF     		add	r7, sp, #0
 11660              		.cfi_offset 7, -4
 11661              	.LCFI113:
 11662              		.cfi_def_cfa_register 7
 11663 0006 7860     		str	r0, [r7, #4]
 11664 0008 0B46     		mov	r3, r1
 11665 000a FB70     		strb	r3, [r7, #3]
1479:/home/cuil/workspace/arm/lm3s811/TI_Stellaris/driverlib/lpc.c ****     unsigned long ulStatus;
1480:/home/cuil/workspace/arm/lm3s811/TI_Stellaris/driverlib/lpc.c **** 
1481:/home/cuil/workspace/arm/lm3s811/TI_Stellaris/driverlib/lpc.c ****     //
1482:/home/cuil/workspace/arm/lm3s811/TI_Stellaris/driverlib/lpc.c ****     // Check the arguments.
1483:/home/cuil/workspace/arm/lm3s811/TI_Stellaris/driverlib/lpc.c ****     //
1484:/home/cuil/workspace/arm/lm3s811/TI_Stellaris/driverlib/lpc.c ****     ASSERT(ulBase == LPC0_BASE);
1485:/home/cuil/workspace/arm/lm3s811/TI_Stellaris/driverlib/lpc.c **** 
1486:/home/cuil/workspace/arm/lm3s811/TI_Stellaris/driverlib/lpc.c ****     //
1487:/home/cuil/workspace/arm/lm3s811/TI_Stellaris/driverlib/lpc.c ****     // Return either the interrupt status or the raw interrupt status as
1488:/home/cuil/workspace/arm/lm3s811/TI_Stellaris/driverlib/lpc.c ****     // requested.
1489:/home/cuil/workspace/arm/lm3s811/TI_Stellaris/driverlib/lpc.c ****     //
1490:/home/cuil/workspace/arm/lm3s811/TI_Stellaris/driverlib/lpc.c ****     ulStatus = HWREG(ulBase + LPC_O_DMACX);
 11666              		.loc 1 1490 0
 11667 000c 7B68     		ldr	r3, [r7, #4]
 11668 000e 03F59073 		add	r3, r3, #288
 11669 0012 1B68     		ldr	r3, [r3, #0]
 11670 0014 FB60     		str	r3, [r7, #12]
1491:/home/cuil/workspace/arm/lm3s811/TI_Stellaris/driverlib/lpc.c ****     if(bMasked)
 11671              		.loc 1 1491 0
 11672 0016 FB78     		ldrb	r3, [r7, #3]	@ zero_extendqisi2
 11673 0018 002B     		cmp	r3, #0
 11674 001a 06D0     		beq	.L53
1492:/home/cuil/workspace/arm/lm3s811/TI_Stellaris/driverlib/lpc.c ****     {
1493:/home/cuil/workspace/arm/lm3s811/TI_Stellaris/driverlib/lpc.c ****         ulStatus = ulStatus & (ulStatus << 4);
 11675              		.loc 1 1493 0
 11676 001c FB68     		ldr	r3, [r7, #12]
 11677 001e 4FEA0313 		lsl	r3, r3, #4
 11678 0022 FA68     		ldr	r2, [r7, #12]
 11679 0024 02EA0303 		and	r3, r2, r3
 11680 0028 FB60     		str	r3, [r7, #12]
 11681              	.L53:
1494:/home/cuil/workspace/arm/lm3s811/TI_Stellaris/driverlib/lpc.c ****     }
1495:/home/cuil/workspace/arm/lm3s811/TI_Stellaris/driverlib/lpc.c ****     return(ulStatus & (LPC_DMACX_CXRES | LPC_DMACX_CXTXRES |
 11682              		.loc 1 1495 0
 11683 002a FB68     		ldr	r3, [r7, #12]
 11684 002c 03F06073 		and	r3, r3, #58720256
1496:/home/cuil/workspace/arm/lm3s811/TI_Stellaris/driverlib/lpc.c ****                            LPC_DMACX_CXRXRES));
1497:/home/cuil/workspace/arm/lm3s811/TI_Stellaris/driverlib/lpc.c **** }
 11685              		.loc 1 1497 0
 11686 0030 1846     		mov	r0, r3
 11687 0032 07F11407 		add	r7, r7, #20
 11688 0036 BD46     		mov	sp, r7
 11689 0038 80BC     		pop	{r7}
 11690 003a 7047     		bx	lr
 11691              		.cfi_endproc
 11692              	.LFE37:
 11694              		.section	.text.LPCCOMxIntClear,"ax",%progbits
 11695              		.align	2
 11696              		.global	LPCCOMxIntClear
 11697              		.thumb
 11698              		.thumb_func
 11700              	LPCCOMxIntClear:
 11701              	.LFB38:
1498:/home/cuil/workspace/arm/lm3s811/TI_Stellaris/driverlib/lpc.c **** 
1499:/home/cuil/workspace/arm/lm3s811/TI_Stellaris/driverlib/lpc.c **** //*****************************************************************************
1500:/home/cuil/workspace/arm/lm3s811/TI_Stellaris/driverlib/lpc.c **** //
1501:/home/cuil/workspace/arm/lm3s811/TI_Stellaris/driverlib/lpc.c **** //! Clears COMx interrupt sources.
1502:/home/cuil/workspace/arm/lm3s811/TI_Stellaris/driverlib/lpc.c **** //!
1503:/home/cuil/workspace/arm/lm3s811/TI_Stellaris/driverlib/lpc.c **** //! \param ulBase specifies the LPC module base address.
1504:/home/cuil/workspace/arm/lm3s811/TI_Stellaris/driverlib/lpc.c **** //! \param ulIntFlags is a bit mask of the interrupt sources to be cleared.
1505:/home/cuil/workspace/arm/lm3s811/TI_Stellaris/driverlib/lpc.c **** //!
1506:/home/cuil/workspace/arm/lm3s811/TI_Stellaris/driverlib/lpc.c **** //! This function clears the specified COMx interrupt sources so that they no 
1507:/home/cuil/workspace/arm/lm3s811/TI_Stellaris/driverlib/lpc.c **** //! longer assert.
1508:/home/cuil/workspace/arm/lm3s811/TI_Stellaris/driverlib/lpc.c **** //!
1509:/home/cuil/workspace/arm/lm3s811/TI_Stellaris/driverlib/lpc.c **** //! \return None.
1510:/home/cuil/workspace/arm/lm3s811/TI_Stellaris/driverlib/lpc.c **** //
1511:/home/cuil/workspace/arm/lm3s811/TI_Stellaris/driverlib/lpc.c **** //*****************************************************************************
1512:/home/cuil/workspace/arm/lm3s811/TI_Stellaris/driverlib/lpc.c **** void
1513:/home/cuil/workspace/arm/lm3s811/TI_Stellaris/driverlib/lpc.c **** LPCCOMxIntClear(unsigned long ulBase, unsigned long ulIntFlags)
1514:/home/cuil/workspace/arm/lm3s811/TI_Stellaris/driverlib/lpc.c **** {
 11702              		.loc 1 1514 0
 11703              		.cfi_startproc
 11704              		@ args = 0, pretend = 0, frame = 8
 11705              		@ frame_needed = 1, uses_anonymous_args = 0
 11706              		@ link register save eliminated.
 11707 0000 80B4     		push	{r7}
 11708              	.LCFI114:
 11709              		.cfi_def_cfa_offset 4
 11710 0002 83B0     		sub	sp, sp, #12
 11711              	.LCFI115:
 11712              		.cfi_def_cfa_offset 16
 11713 0004 00AF     		add	r7, sp, #0
 11714              		.cfi_offset 7, -4
 11715              	.LCFI116:
 11716              		.cfi_def_cfa_register 7
 11717 0006 7860     		str	r0, [r7, #4]
 11718 0008 3960     		str	r1, [r7, #0]
1515:/home/cuil/workspace/arm/lm3s811/TI_Stellaris/driverlib/lpc.c ****     //
1516:/home/cuil/workspace/arm/lm3s811/TI_Stellaris/driverlib/lpc.c ****     // Check the arguments.
1517:/home/cuil/workspace/arm/lm3s811/TI_Stellaris/driverlib/lpc.c ****     //
1518:/home/cuil/workspace/arm/lm3s811/TI_Stellaris/driverlib/lpc.c ****     ASSERT(ulBase == LPC0_BASE);
1519:/home/cuil/workspace/arm/lm3s811/TI_Stellaris/driverlib/lpc.c ****     ASSERT((ulIntFlags & ~(LPC_DMACX_CXRES | LPC_DMACX_CXTXRES |
1520:/home/cuil/workspace/arm/lm3s811/TI_Stellaris/driverlib/lpc.c ****                            LPC_DMACX_CXRXRES)) == 0);
1521:/home/cuil/workspace/arm/lm3s811/TI_Stellaris/driverlib/lpc.c **** 
1522:/home/cuil/workspace/arm/lm3s811/TI_Stellaris/driverlib/lpc.c ****     //
1523:/home/cuil/workspace/arm/lm3s811/TI_Stellaris/driverlib/lpc.c ****     // Clear the requested interrupt sources.
1524:/home/cuil/workspace/arm/lm3s811/TI_Stellaris/driverlib/lpc.c ****     //
1525:/home/cuil/workspace/arm/lm3s811/TI_Stellaris/driverlib/lpc.c ****     HWREG(ulBase + LPC_O_DMACX) |= ulIntFlags;
 11719              		.loc 1 1525 0
 11720 000a 7B68     		ldr	r3, [r7, #4]
 11721 000c 03F59073 		add	r3, r3, #288
 11722 0010 7A68     		ldr	r2, [r7, #4]
 11723 0012 02F59072 		add	r2, r2, #288
 11724 0016 1168     		ldr	r1, [r2, #0]
 11725 0018 3A68     		ldr	r2, [r7, #0]
 11726 001a 41EA0202 		orr	r2, r1, r2
 11727 001e 1A60     		str	r2, [r3, #0]
1526:/home/cuil/workspace/arm/lm3s811/TI_Stellaris/driverlib/lpc.c **** }
 11728              		.loc 1 1526 0
 11729 0020 07F10C07 		add	r7, r7, #12
 11730 0024 BD46     		mov	sp, r7
 11731 0026 80BC     		pop	{r7}
 11732 0028 7047     		bx	lr
 11733              		.cfi_endproc
 11734              	.LFE38:
 11736 002a 00BF     		.text
 11737              	.Letext0: