   1              		.syntax unified
   2              		.cpu cortex-m3
   3              		.fpu softvfp
   4              		.eabi_attribute 20, 1
   5              		.eabi_attribute 21, 1
   6              		.eabi_attribute 23, 3
   7              		.eabi_attribute 24, 1
   8              		.eabi_attribute 25, 1
   9              		.eabi_attribute 26, 1
  10              		.eabi_attribute 30, 6
  11              		.eabi_attribute 18, 4
  12              		.thumb
  13              		.file	"pwm.c"
  23              	.Ltext0:
  24              		.file 1 "/home/cuil/workspace/arm/lm3s811/TI_Stellaris/driverlib/pwm.c"
 9072              		.align	2
 9073              		.global	PWMGenConfigure
 9074              		.thumb
 9075              		.thumb_func
 9077              	PWMGenConfigure:
 9078              	.LFB0:
   1:/home/cuil/workspace/arm/lm3s811/TI_Stellaris/driverlib/pwm.c **** //*****************************************************************************
   2:/home/cuil/workspace/arm/lm3s811/TI_Stellaris/driverlib/pwm.c **** //
   3:/home/cuil/workspace/arm/lm3s811/TI_Stellaris/driverlib/pwm.c **** // pwm.c - API for the PWM modules
   4:/home/cuil/workspace/arm/lm3s811/TI_Stellaris/driverlib/pwm.c **** //
   5:/home/cuil/workspace/arm/lm3s811/TI_Stellaris/driverlib/pwm.c **** // Copyright (c) 2005-2011 Texas Instruments Incorporated.  All rights reserved.
   6:/home/cuil/workspace/arm/lm3s811/TI_Stellaris/driverlib/pwm.c **** // Software License Agreement
   7:/home/cuil/workspace/arm/lm3s811/TI_Stellaris/driverlib/pwm.c **** // 
   8:/home/cuil/workspace/arm/lm3s811/TI_Stellaris/driverlib/pwm.c **** // Texas Instruments (TI) is supplying this software for use solely and
   9:/home/cuil/workspace/arm/lm3s811/TI_Stellaris/driverlib/pwm.c **** // exclusively on TI's microcontroller products. The software is owned by
  10:/home/cuil/workspace/arm/lm3s811/TI_Stellaris/driverlib/pwm.c **** // TI and/or its suppliers, and is protected under applicable copyright
  11:/home/cuil/workspace/arm/lm3s811/TI_Stellaris/driverlib/pwm.c **** // laws. You may not combine this software with "viral" open-source
  12:/home/cuil/workspace/arm/lm3s811/TI_Stellaris/driverlib/pwm.c **** // software in order to form a larger program.
  13:/home/cuil/workspace/arm/lm3s811/TI_Stellaris/driverlib/pwm.c **** // 
  14:/home/cuil/workspace/arm/lm3s811/TI_Stellaris/driverlib/pwm.c **** // THIS SOFTWARE IS PROVIDED "AS IS" AND WITH ALL FAULTS.
  15:/home/cuil/workspace/arm/lm3s811/TI_Stellaris/driverlib/pwm.c **** // NO WARRANTIES, WHETHER EXPRESS, IMPLIED OR STATUTORY, INCLUDING, BUT
  16:/home/cuil/workspace/arm/lm3s811/TI_Stellaris/driverlib/pwm.c **** // NOT LIMITED TO, IMPLIED WARRANTIES OF MERCHANTABILITY AND FITNESS FOR
  17:/home/cuil/workspace/arm/lm3s811/TI_Stellaris/driverlib/pwm.c **** // A PARTICULAR PURPOSE APPLY TO THIS SOFTWARE. TI SHALL NOT, UNDER ANY
  18:/home/cuil/workspace/arm/lm3s811/TI_Stellaris/driverlib/pwm.c **** // CIRCUMSTANCES, BE LIABLE FOR SPECIAL, INCIDENTAL, OR CONSEQUENTIAL
  19:/home/cuil/workspace/arm/lm3s811/TI_Stellaris/driverlib/pwm.c **** // DAMAGES, FOR ANY REASON WHATSOEVER.
  20:/home/cuil/workspace/arm/lm3s811/TI_Stellaris/driverlib/pwm.c **** // 
  21:/home/cuil/workspace/arm/lm3s811/TI_Stellaris/driverlib/pwm.c **** // This is part of revision 8264 of the Stellaris Peripheral Driver Library.
  22:/home/cuil/workspace/arm/lm3s811/TI_Stellaris/driverlib/pwm.c **** //
  23:/home/cuil/workspace/arm/lm3s811/TI_Stellaris/driverlib/pwm.c **** //*****************************************************************************
  24:/home/cuil/workspace/arm/lm3s811/TI_Stellaris/driverlib/pwm.c **** 
  25:/home/cuil/workspace/arm/lm3s811/TI_Stellaris/driverlib/pwm.c **** //*****************************************************************************
  26:/home/cuil/workspace/arm/lm3s811/TI_Stellaris/driverlib/pwm.c **** //
  27:/home/cuil/workspace/arm/lm3s811/TI_Stellaris/driverlib/pwm.c **** //! \addtogroup pwm_api
  28:/home/cuil/workspace/arm/lm3s811/TI_Stellaris/driverlib/pwm.c **** //! @{
  29:/home/cuil/workspace/arm/lm3s811/TI_Stellaris/driverlib/pwm.c **** //
  30:/home/cuil/workspace/arm/lm3s811/TI_Stellaris/driverlib/pwm.c **** //*****************************************************************************
  31:/home/cuil/workspace/arm/lm3s811/TI_Stellaris/driverlib/pwm.c **** 
  32:/home/cuil/workspace/arm/lm3s811/TI_Stellaris/driverlib/pwm.c **** #include "inc/hw_ints.h"
  33:/home/cuil/workspace/arm/lm3s811/TI_Stellaris/driverlib/pwm.c **** #include "inc/hw_memmap.h"
  34:/home/cuil/workspace/arm/lm3s811/TI_Stellaris/driverlib/pwm.c **** #include "inc/hw_pwm.h"
  35:/home/cuil/workspace/arm/lm3s811/TI_Stellaris/driverlib/pwm.c **** #include "inc/hw_sysctl.h"
  36:/home/cuil/workspace/arm/lm3s811/TI_Stellaris/driverlib/pwm.c **** #include "inc/hw_types.h"
  37:/home/cuil/workspace/arm/lm3s811/TI_Stellaris/driverlib/pwm.c **** #include "driverlib/debug.h"
  38:/home/cuil/workspace/arm/lm3s811/TI_Stellaris/driverlib/pwm.c **** #include "driverlib/interrupt.h"
  39:/home/cuil/workspace/arm/lm3s811/TI_Stellaris/driverlib/pwm.c **** #include "driverlib/pwm.h"
  40:/home/cuil/workspace/arm/lm3s811/TI_Stellaris/driverlib/pwm.c **** 
  41:/home/cuil/workspace/arm/lm3s811/TI_Stellaris/driverlib/pwm.c **** //*****************************************************************************
  42:/home/cuil/workspace/arm/lm3s811/TI_Stellaris/driverlib/pwm.c **** //
  43:/home/cuil/workspace/arm/lm3s811/TI_Stellaris/driverlib/pwm.c **** // Misc macros for manipulating the encoded generator and output defines used
  44:/home/cuil/workspace/arm/lm3s811/TI_Stellaris/driverlib/pwm.c **** // by the API.
  45:/home/cuil/workspace/arm/lm3s811/TI_Stellaris/driverlib/pwm.c **** //
  46:/home/cuil/workspace/arm/lm3s811/TI_Stellaris/driverlib/pwm.c **** //*****************************************************************************
  47:/home/cuil/workspace/arm/lm3s811/TI_Stellaris/driverlib/pwm.c **** #define PWM_GEN_BADDR(_mod_, _gen_)                                           \
  48:/home/cuil/workspace/arm/lm3s811/TI_Stellaris/driverlib/pwm.c ****                                 ((_mod_) + (_gen_))
  49:/home/cuil/workspace/arm/lm3s811/TI_Stellaris/driverlib/pwm.c **** #define PWM_GEN_EXT_BADDR(_mod_, _gen_)                                       \
  50:/home/cuil/workspace/arm/lm3s811/TI_Stellaris/driverlib/pwm.c ****                                 ((_mod_) + PWM_GEN_EXT_0 +                    \
  51:/home/cuil/workspace/arm/lm3s811/TI_Stellaris/driverlib/pwm.c ****                                  ((_gen_) - PWM_GEN_0) * 2)
  52:/home/cuil/workspace/arm/lm3s811/TI_Stellaris/driverlib/pwm.c **** #define PWM_OUT_BADDR(_mod_, _out_)                                           \
  53:/home/cuil/workspace/arm/lm3s811/TI_Stellaris/driverlib/pwm.c ****                                 ((_mod_) + ((_out_) & 0xFFFFFFC0))
  54:/home/cuil/workspace/arm/lm3s811/TI_Stellaris/driverlib/pwm.c **** #define PWM_IS_OUTPUT_ODD(_out_)                                              \
  55:/home/cuil/workspace/arm/lm3s811/TI_Stellaris/driverlib/pwm.c ****                                 ((_out_) & 0x00000001)
  56:/home/cuil/workspace/arm/lm3s811/TI_Stellaris/driverlib/pwm.c **** 
  57:/home/cuil/workspace/arm/lm3s811/TI_Stellaris/driverlib/pwm.c **** //*****************************************************************************
  58:/home/cuil/workspace/arm/lm3s811/TI_Stellaris/driverlib/pwm.c **** //
  59:/home/cuil/workspace/arm/lm3s811/TI_Stellaris/driverlib/pwm.c **** //! \internal
  60:/home/cuil/workspace/arm/lm3s811/TI_Stellaris/driverlib/pwm.c **** //! Checks a PWM generator number.
  61:/home/cuil/workspace/arm/lm3s811/TI_Stellaris/driverlib/pwm.c **** //!
  62:/home/cuil/workspace/arm/lm3s811/TI_Stellaris/driverlib/pwm.c **** //! \param ulGen is the generator number.
  63:/home/cuil/workspace/arm/lm3s811/TI_Stellaris/driverlib/pwm.c **** //!
  64:/home/cuil/workspace/arm/lm3s811/TI_Stellaris/driverlib/pwm.c **** //! This function determines if a PWM generator number is valid.
  65:/home/cuil/workspace/arm/lm3s811/TI_Stellaris/driverlib/pwm.c **** //!
  66:/home/cuil/workspace/arm/lm3s811/TI_Stellaris/driverlib/pwm.c **** //! \return Returnes \b true if the generator number is valid and \b false
  67:/home/cuil/workspace/arm/lm3s811/TI_Stellaris/driverlib/pwm.c **** //! otherwise.
  68:/home/cuil/workspace/arm/lm3s811/TI_Stellaris/driverlib/pwm.c **** //
  69:/home/cuil/workspace/arm/lm3s811/TI_Stellaris/driverlib/pwm.c **** //*****************************************************************************
  70:/home/cuil/workspace/arm/lm3s811/TI_Stellaris/driverlib/pwm.c **** #ifdef DEBUG
  71:/home/cuil/workspace/arm/lm3s811/TI_Stellaris/driverlib/pwm.c **** static tBoolean
  72:/home/cuil/workspace/arm/lm3s811/TI_Stellaris/driverlib/pwm.c **** PWMGenValid(unsigned long ulGen)
  73:/home/cuil/workspace/arm/lm3s811/TI_Stellaris/driverlib/pwm.c **** {
  74:/home/cuil/workspace/arm/lm3s811/TI_Stellaris/driverlib/pwm.c ****     return((ulGen == PWM_GEN_0) || (ulGen == PWM_GEN_1) ||
  75:/home/cuil/workspace/arm/lm3s811/TI_Stellaris/driverlib/pwm.c ****            (ulGen == PWM_GEN_2) || (ulGen == PWM_GEN_3));
  76:/home/cuil/workspace/arm/lm3s811/TI_Stellaris/driverlib/pwm.c **** }
  77:/home/cuil/workspace/arm/lm3s811/TI_Stellaris/driverlib/pwm.c **** #endif
  78:/home/cuil/workspace/arm/lm3s811/TI_Stellaris/driverlib/pwm.c **** 
  79:/home/cuil/workspace/arm/lm3s811/TI_Stellaris/driverlib/pwm.c **** //*****************************************************************************
  80:/home/cuil/workspace/arm/lm3s811/TI_Stellaris/driverlib/pwm.c **** //
  81:/home/cuil/workspace/arm/lm3s811/TI_Stellaris/driverlib/pwm.c **** //! \internal
  82:/home/cuil/workspace/arm/lm3s811/TI_Stellaris/driverlib/pwm.c **** //! Checks a PWM output number.
  83:/home/cuil/workspace/arm/lm3s811/TI_Stellaris/driverlib/pwm.c **** //!
  84:/home/cuil/workspace/arm/lm3s811/TI_Stellaris/driverlib/pwm.c **** //! \param ulPWMOut is the output number.
  85:/home/cuil/workspace/arm/lm3s811/TI_Stellaris/driverlib/pwm.c **** //!
  86:/home/cuil/workspace/arm/lm3s811/TI_Stellaris/driverlib/pwm.c **** //! This function determines if a PWM output number is valid.
  87:/home/cuil/workspace/arm/lm3s811/TI_Stellaris/driverlib/pwm.c **** //!
  88:/home/cuil/workspace/arm/lm3s811/TI_Stellaris/driverlib/pwm.c **** //! \return Returns \b true if the output number is valid and \b false
  89:/home/cuil/workspace/arm/lm3s811/TI_Stellaris/driverlib/pwm.c **** //! otherwise.
  90:/home/cuil/workspace/arm/lm3s811/TI_Stellaris/driverlib/pwm.c **** //
  91:/home/cuil/workspace/arm/lm3s811/TI_Stellaris/driverlib/pwm.c **** //*****************************************************************************
  92:/home/cuil/workspace/arm/lm3s811/TI_Stellaris/driverlib/pwm.c **** #ifdef DEBUG
  93:/home/cuil/workspace/arm/lm3s811/TI_Stellaris/driverlib/pwm.c **** static tBoolean
  94:/home/cuil/workspace/arm/lm3s811/TI_Stellaris/driverlib/pwm.c **** PWMOutValid(unsigned long ulPWMOut)
  95:/home/cuil/workspace/arm/lm3s811/TI_Stellaris/driverlib/pwm.c **** {
  96:/home/cuil/workspace/arm/lm3s811/TI_Stellaris/driverlib/pwm.c ****     return((ulPWMOut == PWM_OUT_0) || (ulPWMOut == PWM_OUT_1) ||
  97:/home/cuil/workspace/arm/lm3s811/TI_Stellaris/driverlib/pwm.c ****            (ulPWMOut == PWM_OUT_2) || (ulPWMOut == PWM_OUT_3) ||
  98:/home/cuil/workspace/arm/lm3s811/TI_Stellaris/driverlib/pwm.c ****            (ulPWMOut == PWM_OUT_4) || (ulPWMOut == PWM_OUT_5) ||
  99:/home/cuil/workspace/arm/lm3s811/TI_Stellaris/driverlib/pwm.c ****            (ulPWMOut == PWM_OUT_6) || (ulPWMOut == PWM_OUT_7));
 100:/home/cuil/workspace/arm/lm3s811/TI_Stellaris/driverlib/pwm.c **** }
 101:/home/cuil/workspace/arm/lm3s811/TI_Stellaris/driverlib/pwm.c **** #endif
 102:/home/cuil/workspace/arm/lm3s811/TI_Stellaris/driverlib/pwm.c **** 
 103:/home/cuil/workspace/arm/lm3s811/TI_Stellaris/driverlib/pwm.c **** //*****************************************************************************
 104:/home/cuil/workspace/arm/lm3s811/TI_Stellaris/driverlib/pwm.c **** //
 105:/home/cuil/workspace/arm/lm3s811/TI_Stellaris/driverlib/pwm.c **** //! Configures a PWM generator.
 106:/home/cuil/workspace/arm/lm3s811/TI_Stellaris/driverlib/pwm.c **** //!
 107:/home/cuil/workspace/arm/lm3s811/TI_Stellaris/driverlib/pwm.c **** //! \param ulBase is the base address of the PWM module.
 108:/home/cuil/workspace/arm/lm3s811/TI_Stellaris/driverlib/pwm.c **** //! \param ulGen is the PWM generator to configure.  This parameter must be one 
 109:/home/cuil/workspace/arm/lm3s811/TI_Stellaris/driverlib/pwm.c **** //! of \b PWM_GEN_0, \b PWM_GEN_1, \b PWM_GEN_2, or \b PWM_GEN_3.
 110:/home/cuil/workspace/arm/lm3s811/TI_Stellaris/driverlib/pwm.c **** //! \param ulConfig is the configuration for the PWM generator.
 111:/home/cuil/workspace/arm/lm3s811/TI_Stellaris/driverlib/pwm.c **** //!
 112:/home/cuil/workspace/arm/lm3s811/TI_Stellaris/driverlib/pwm.c **** //! This function is used to set the mode of operation for a PWM generator.
 113:/home/cuil/workspace/arm/lm3s811/TI_Stellaris/driverlib/pwm.c **** //! The counting mode, synchronization mode, and debug behavior are all
 114:/home/cuil/workspace/arm/lm3s811/TI_Stellaris/driverlib/pwm.c **** //! configured.  After configuration, the generator is left in the disabled
 115:/home/cuil/workspace/arm/lm3s811/TI_Stellaris/driverlib/pwm.c **** //! state.
 116:/home/cuil/workspace/arm/lm3s811/TI_Stellaris/driverlib/pwm.c **** //!
 117:/home/cuil/workspace/arm/lm3s811/TI_Stellaris/driverlib/pwm.c **** //! A PWM generator can count in two different modes:  count down mode or count
 118:/home/cuil/workspace/arm/lm3s811/TI_Stellaris/driverlib/pwm.c **** //! up/down mode.  In count down mode, it counts from a value down to zero,
 119:/home/cuil/workspace/arm/lm3s811/TI_Stellaris/driverlib/pwm.c **** //! and then resets to the preset value, producing left-aligned PWM
 120:/home/cuil/workspace/arm/lm3s811/TI_Stellaris/driverlib/pwm.c **** //! signals (that is, the rising edge of the two PWM signals produced by the
 121:/home/cuil/workspace/arm/lm3s811/TI_Stellaris/driverlib/pwm.c **** //! generator occur at the same time).  In count up/down mode, it counts up 
 122:/home/cuil/workspace/arm/lm3s811/TI_Stellaris/driverlib/pwm.c **** //! from zero to the preset value, counts back down to zero, and then repeats
 123:/home/cuil/workspace/arm/lm3s811/TI_Stellaris/driverlib/pwm.c **** //! the process, producing center-aligned PWM signals (that is,
 124:/home/cuil/workspace/arm/lm3s811/TI_Stellaris/driverlib/pwm.c **** //! the middle of the high/low period of the PWM signals produced by the
 125:/home/cuil/workspace/arm/lm3s811/TI_Stellaris/driverlib/pwm.c **** //! generator occurs at the same time).
 126:/home/cuil/workspace/arm/lm3s811/TI_Stellaris/driverlib/pwm.c **** //!
 127:/home/cuil/workspace/arm/lm3s811/TI_Stellaris/driverlib/pwm.c **** //! When the PWM generator parameters (period and pulse width) are modified,
 128:/home/cuil/workspace/arm/lm3s811/TI_Stellaris/driverlib/pwm.c **** //! their effect on the output PWM signals can be delayed.  In synchronous
 129:/home/cuil/workspace/arm/lm3s811/TI_Stellaris/driverlib/pwm.c **** //! mode, the parameter updates are not applied until a synchronization event
 130:/home/cuil/workspace/arm/lm3s811/TI_Stellaris/driverlib/pwm.c **** //! occurs.  This mode allows multiple parameters to be modified and take 
 131:/home/cuil/workspace/arm/lm3s811/TI_Stellaris/driverlib/pwm.c **** //! effect simultaneously, instead of one at a time.  Additionally, parameters 
 132:/home/cuil/workspace/arm/lm3s811/TI_Stellaris/driverlib/pwm.c **** //! to multiple PWM generators in synchronous mode can be updated 
 133:/home/cuil/workspace/arm/lm3s811/TI_Stellaris/driverlib/pwm.c **** //! simultaneously, allowing them to be treated as if they were a unified 
 134:/home/cuil/workspace/arm/lm3s811/TI_Stellaris/driverlib/pwm.c **** //! generator.  In non-synchronous mode, the parameter updates are not delayed
 135:/home/cuil/workspace/arm/lm3s811/TI_Stellaris/driverlib/pwm.c **** //! until a synchronization event.  In either mode, the parameter updates only 
 136:/home/cuil/workspace/arm/lm3s811/TI_Stellaris/driverlib/pwm.c **** //! occur when the counter is at zero to help prevent oddly formed PWM signals 
 137:/home/cuil/workspace/arm/lm3s811/TI_Stellaris/driverlib/pwm.c **** //! during the update (that is, a PWM pulse that is too short or too long).
 138:/home/cuil/workspace/arm/lm3s811/TI_Stellaris/driverlib/pwm.c **** //!
 139:/home/cuil/workspace/arm/lm3s811/TI_Stellaris/driverlib/pwm.c **** //! The PWM generator can either pause or continue running when the processor
 140:/home/cuil/workspace/arm/lm3s811/TI_Stellaris/driverlib/pwm.c **** //! is stopped via the debugger.  If configured to pause, it continues to
 141:/home/cuil/workspace/arm/lm3s811/TI_Stellaris/driverlib/pwm.c **** //! count until it reaches zero, at which point it pauses until the
 142:/home/cuil/workspace/arm/lm3s811/TI_Stellaris/driverlib/pwm.c **** //! processor is restarted.  If configured to continue running, it keeps
 143:/home/cuil/workspace/arm/lm3s811/TI_Stellaris/driverlib/pwm.c **** //! counting as if nothing had happened.
 144:/home/cuil/workspace/arm/lm3s811/TI_Stellaris/driverlib/pwm.c **** //!
 145:/home/cuil/workspace/arm/lm3s811/TI_Stellaris/driverlib/pwm.c **** //! The \e ulConfig parameter contains the desired configuration.  It is the
 146:/home/cuil/workspace/arm/lm3s811/TI_Stellaris/driverlib/pwm.c **** //! logical OR of the following:
 147:/home/cuil/workspace/arm/lm3s811/TI_Stellaris/driverlib/pwm.c **** //!
 148:/home/cuil/workspace/arm/lm3s811/TI_Stellaris/driverlib/pwm.c **** //! - \b PWM_GEN_MODE_DOWN or \b PWM_GEN_MODE_UP_DOWN to specify the counting
 149:/home/cuil/workspace/arm/lm3s811/TI_Stellaris/driverlib/pwm.c **** //!   mode
 150:/home/cuil/workspace/arm/lm3s811/TI_Stellaris/driverlib/pwm.c **** //! - \b PWM_GEN_MODE_SYNC or \b PWM_GEN_MODE_NO_SYNC to specify the counter
 151:/home/cuil/workspace/arm/lm3s811/TI_Stellaris/driverlib/pwm.c **** //!   load and comparator update synchronization mode
 152:/home/cuil/workspace/arm/lm3s811/TI_Stellaris/driverlib/pwm.c **** //! - \b PWM_GEN_MODE_DBG_RUN or \b PWM_GEN_MODE_DBG_STOP to specify the debug
 153:/home/cuil/workspace/arm/lm3s811/TI_Stellaris/driverlib/pwm.c **** //!   behavior
 154:/home/cuil/workspace/arm/lm3s811/TI_Stellaris/driverlib/pwm.c **** //! - \b PWM_GEN_MODE_GEN_NO_SYNC, \b PWM_GEN_MODE_GEN_SYNC_LOCAL, or
 155:/home/cuil/workspace/arm/lm3s811/TI_Stellaris/driverlib/pwm.c **** //!   \b PWM_GEN_MODE_GEN_SYNC_GLOBAL to specify the update synchronization
 156:/home/cuil/workspace/arm/lm3s811/TI_Stellaris/driverlib/pwm.c **** //!   mode for generator counting mode changes
 157:/home/cuil/workspace/arm/lm3s811/TI_Stellaris/driverlib/pwm.c **** //! - \b PWM_GEN_MODE_DB_NO_SYNC, \b PWM_GEN_MODE_DB_SYNC_LOCAL, or
 158:/home/cuil/workspace/arm/lm3s811/TI_Stellaris/driverlib/pwm.c **** //!   \b PWM_GEN_MODE_DB_SYNC_GLOBAL to specify the deadband parameter
 159:/home/cuil/workspace/arm/lm3s811/TI_Stellaris/driverlib/pwm.c **** //!   synchronization mode
 160:/home/cuil/workspace/arm/lm3s811/TI_Stellaris/driverlib/pwm.c **** //! - \b PWM_GEN_MODE_FAULT_LATCHED or \b PWM_GEN_MODE_FAULT_UNLATCHED to
 161:/home/cuil/workspace/arm/lm3s811/TI_Stellaris/driverlib/pwm.c **** //!   specify whether fault conditions are latched or not
 162:/home/cuil/workspace/arm/lm3s811/TI_Stellaris/driverlib/pwm.c **** //! - \b PWM_GEN_MODE_FAULT_MINPER or \b PWM_GEN_MODE_FAULT_NO_MINPER to
 163:/home/cuil/workspace/arm/lm3s811/TI_Stellaris/driverlib/pwm.c **** //!   specify whether minimum fault period support is required
 164:/home/cuil/workspace/arm/lm3s811/TI_Stellaris/driverlib/pwm.c **** //! - \b PWM_GEN_MODE_FAULT_EXT or \b PWM_GEN_MODE_FAULT_LEGACY to specify
 165:/home/cuil/workspace/arm/lm3s811/TI_Stellaris/driverlib/pwm.c **** //!   whether extended fault source selection support is enabled or not
 166:/home/cuil/workspace/arm/lm3s811/TI_Stellaris/driverlib/pwm.c **** //!
 167:/home/cuil/workspace/arm/lm3s811/TI_Stellaris/driverlib/pwm.c **** //! Setting \b PWM_GEN_MODE_FAULT_MINPER allows an application to set the
 168:/home/cuil/workspace/arm/lm3s811/TI_Stellaris/driverlib/pwm.c **** //! minimum duration of a PWM fault signal.  Faults are signaled for at
 169:/home/cuil/workspace/arm/lm3s811/TI_Stellaris/driverlib/pwm.c **** //! least this time even if the external fault pin deasserts earlier.  Care
 170:/home/cuil/workspace/arm/lm3s811/TI_Stellaris/driverlib/pwm.c **** //! should be taken when using this mode because during the fault signal 
 171:/home/cuil/workspace/arm/lm3s811/TI_Stellaris/driverlib/pwm.c **** //! period, the fault interrupt from the PWM generator remains asserted.  The 
 172:/home/cuil/workspace/arm/lm3s811/TI_Stellaris/driverlib/pwm.c **** //! fault interrupt handler may, therefore, reenter immediately if it exits 
 173:/home/cuil/workspace/arm/lm3s811/TI_Stellaris/driverlib/pwm.c **** //! prior to expiration of the fault timer.
 174:/home/cuil/workspace/arm/lm3s811/TI_Stellaris/driverlib/pwm.c **** //!
 175:/home/cuil/workspace/arm/lm3s811/TI_Stellaris/driverlib/pwm.c **** //! \note Changes to the counter mode affect the period of the PWM signals
 176:/home/cuil/workspace/arm/lm3s811/TI_Stellaris/driverlib/pwm.c **** //! produced.  PWMGenPeriodSet() and PWMPulseWidthSet() should be called after
 177:/home/cuil/workspace/arm/lm3s811/TI_Stellaris/driverlib/pwm.c **** //! any changes to the counter mode of a generator.
 178:/home/cuil/workspace/arm/lm3s811/TI_Stellaris/driverlib/pwm.c **** //!
 179:/home/cuil/workspace/arm/lm3s811/TI_Stellaris/driverlib/pwm.c **** //! \return None.
 180:/home/cuil/workspace/arm/lm3s811/TI_Stellaris/driverlib/pwm.c **** //
 181:/home/cuil/workspace/arm/lm3s811/TI_Stellaris/driverlib/pwm.c **** //*****************************************************************************
 182:/home/cuil/workspace/arm/lm3s811/TI_Stellaris/driverlib/pwm.c **** void
 183:/home/cuil/workspace/arm/lm3s811/TI_Stellaris/driverlib/pwm.c **** PWMGenConfigure(unsigned long ulBase, unsigned long ulGen,
 184:/home/cuil/workspace/arm/lm3s811/TI_Stellaris/driverlib/pwm.c ****                 unsigned long ulConfig)
 185:/home/cuil/workspace/arm/lm3s811/TI_Stellaris/driverlib/pwm.c **** {
 9079              		.loc 1 185 0
 9080              		.cfi_startproc
 9081              		@ args = 0, pretend = 0, frame = 16
 9082              		@ frame_needed = 1, uses_anonymous_args = 0
 9083              		@ link register save eliminated.
 9084 0000 80B4     		push	{r7}
 9085              	.LCFI0:
 9086              		.cfi_def_cfa_offset 4
 9087 0002 85B0     		sub	sp, sp, #20
 9088              	.LCFI1:
 9089              		.cfi_def_cfa_offset 24
 9090 0004 00AF     		add	r7, sp, #0
 9091              		.cfi_offset 7, -4
 9092              	.LCFI2:
 9093              		.cfi_def_cfa_register 7
 9094 0006 F860     		str	r0, [r7, #12]
 9095 0008 B960     		str	r1, [r7, #8]
 9096 000a 7A60     		str	r2, [r7, #4]
 186:/home/cuil/workspace/arm/lm3s811/TI_Stellaris/driverlib/pwm.c ****     //
 187:/home/cuil/workspace/arm/lm3s811/TI_Stellaris/driverlib/pwm.c ****     // Check the arguments.
 188:/home/cuil/workspace/arm/lm3s811/TI_Stellaris/driverlib/pwm.c ****     //
 189:/home/cuil/workspace/arm/lm3s811/TI_Stellaris/driverlib/pwm.c ****     ASSERT((ulBase == PWM0_BASE) || (ulBase == PWM1_BASE));
 190:/home/cuil/workspace/arm/lm3s811/TI_Stellaris/driverlib/pwm.c ****     ASSERT(PWMGenValid(ulGen));
 191:/home/cuil/workspace/arm/lm3s811/TI_Stellaris/driverlib/pwm.c **** 
 192:/home/cuil/workspace/arm/lm3s811/TI_Stellaris/driverlib/pwm.c ****     //
 193:/home/cuil/workspace/arm/lm3s811/TI_Stellaris/driverlib/pwm.c ****     // Compute the generator's base address.
 194:/home/cuil/workspace/arm/lm3s811/TI_Stellaris/driverlib/pwm.c ****     //
 195:/home/cuil/workspace/arm/lm3s811/TI_Stellaris/driverlib/pwm.c ****     ulGen = PWM_GEN_BADDR(ulBase, ulGen);
 9097              		.loc 1 195 0
 9098 000c BA68     		ldr	r2, [r7, #8]
 9099 000e FB68     		ldr	r3, [r7, #12]
 9100 0010 D318     		adds	r3, r2, r3
 9101 0012 BB60     		str	r3, [r7, #8]
 196:/home/cuil/workspace/arm/lm3s811/TI_Stellaris/driverlib/pwm.c **** 
 197:/home/cuil/workspace/arm/lm3s811/TI_Stellaris/driverlib/pwm.c ****     //
 198:/home/cuil/workspace/arm/lm3s811/TI_Stellaris/driverlib/pwm.c ****     // Change the global configuration of the generator.
 199:/home/cuil/workspace/arm/lm3s811/TI_Stellaris/driverlib/pwm.c ****     //
 200:/home/cuil/workspace/arm/lm3s811/TI_Stellaris/driverlib/pwm.c ****     HWREG(ulGen + PWM_O_X_CTL) = ((HWREG(ulGen + PWM_O_X_CTL) &
 9102              		.loc 1 200 0
 9103 0014 BA68     		ldr	r2, [r7, #8]
 9104 0016 BB68     		ldr	r3, [r7, #8]
 9105 0018 1968     		ldr	r1, [r3, #0]
 9106 001a 144B     		ldr	r3, .L4
 9107 001c 01EA0303 		and	r3, r1, r3
 201:/home/cuil/workspace/arm/lm3s811/TI_Stellaris/driverlib/pwm.c ****                                    ~(PWM_X_CTL_MODE | PWM_X_CTL_DEBUG |
 202:/home/cuil/workspace/arm/lm3s811/TI_Stellaris/driverlib/pwm.c ****                                      PWM_X_CTL_LATCH | PWM_X_CTL_MINFLTPER |
 203:/home/cuil/workspace/arm/lm3s811/TI_Stellaris/driverlib/pwm.c ****                                      PWM_X_CTL_FLTSRC | PWM_X_CTL_DBFALLUPD_M |
 204:/home/cuil/workspace/arm/lm3s811/TI_Stellaris/driverlib/pwm.c ****                                      PWM_X_CTL_DBRISEUPD_M |
 205:/home/cuil/workspace/arm/lm3s811/TI_Stellaris/driverlib/pwm.c ****                                      PWM_X_CTL_DBCTLUPD_M |
 206:/home/cuil/workspace/arm/lm3s811/TI_Stellaris/driverlib/pwm.c ****                                      PWM_X_CTL_GENBUPD_M |
 207:/home/cuil/workspace/arm/lm3s811/TI_Stellaris/driverlib/pwm.c ****                                      PWM_X_CTL_GENAUPD_M |
 208:/home/cuil/workspace/arm/lm3s811/TI_Stellaris/driverlib/pwm.c ****                                      PWM_X_CTL_LOADUPD | PWM_X_CTL_CMPAUPD |
 209:/home/cuil/workspace/arm/lm3s811/TI_Stellaris/driverlib/pwm.c ****                                      PWM_X_CTL_CMPBUPD)) | ulConfig);
 9108              		.loc 1 209 0
 9109 0020 7968     		ldr	r1, [r7, #4]
 9110 0022 0B43     		orrs	r3, r3, r1
 200:/home/cuil/workspace/arm/lm3s811/TI_Stellaris/driverlib/pwm.c ****     HWREG(ulGen + PWM_O_X_CTL) = ((HWREG(ulGen + PWM_O_X_CTL) &
 9111              		.loc 1 200 0
 9112 0024 1360     		str	r3, [r2, #0]
 210:/home/cuil/workspace/arm/lm3s811/TI_Stellaris/driverlib/pwm.c **** 
 211:/home/cuil/workspace/arm/lm3s811/TI_Stellaris/driverlib/pwm.c ****     //
 212:/home/cuil/workspace/arm/lm3s811/TI_Stellaris/driverlib/pwm.c ****     // Set the individual PWM generator controls.
 213:/home/cuil/workspace/arm/lm3s811/TI_Stellaris/driverlib/pwm.c ****     //
 214:/home/cuil/workspace/arm/lm3s811/TI_Stellaris/driverlib/pwm.c ****     if(ulConfig & PWM_X_CTL_MODE)
 9113              		.loc 1 214 0
 9114 0026 7B68     		ldr	r3, [r7, #4]
 9115 0028 03F00203 		and	r3, r3, #2
 9116 002c 002B     		cmp	r3, #0
 9117 002e 0CD0     		beq	.L2
 215:/home/cuil/workspace/arm/lm3s811/TI_Stellaris/driverlib/pwm.c ****     {
 216:/home/cuil/workspace/arm/lm3s811/TI_Stellaris/driverlib/pwm.c ****         //
 217:/home/cuil/workspace/arm/lm3s811/TI_Stellaris/driverlib/pwm.c ****         // In up/down count mode, set the signal high on up count comparison
 218:/home/cuil/workspace/arm/lm3s811/TI_Stellaris/driverlib/pwm.c ****         // and low on down count comparison (that is, center align the
 219:/home/cuil/workspace/arm/lm3s811/TI_Stellaris/driverlib/pwm.c ****         // signals).
 220:/home/cuil/workspace/arm/lm3s811/TI_Stellaris/driverlib/pwm.c ****         //
 221:/home/cuil/workspace/arm/lm3s811/TI_Stellaris/driverlib/pwm.c ****         HWREG(ulGen + PWM_O_X_GENA) = (PWM_X_GENA_ACTCMPAU_ONE |
 9118              		.loc 1 221 0
 9119 0030 BB68     		ldr	r3, [r7, #8]
 9120 0032 03F12003 		add	r3, r3, #32
 9121 0036 4FF0B002 		mov	r2, #176
 9122 003a 1A60     		str	r2, [r3, #0]
 222:/home/cuil/workspace/arm/lm3s811/TI_Stellaris/driverlib/pwm.c ****                                        PWM_X_GENA_ACTCMPAD_ZERO);
 223:/home/cuil/workspace/arm/lm3s811/TI_Stellaris/driverlib/pwm.c ****         HWREG(ulGen + PWM_O_X_GENB) = (PWM_X_GENB_ACTCMPBU_ONE |
 9123              		.loc 1 223 0
 9124 003c BB68     		ldr	r3, [r7, #8]
 9125 003e 03F12403 		add	r3, r3, #36
 9126 0042 4FF43062 		mov	r2, #2816
 9127 0046 1A60     		str	r2, [r3, #0]
 9128 0048 0BE0     		b	.L1
 9129              	.L2:
 224:/home/cuil/workspace/arm/lm3s811/TI_Stellaris/driverlib/pwm.c ****                                        PWM_X_GENB_ACTCMPBD_ZERO);
 225:/home/cuil/workspace/arm/lm3s811/TI_Stellaris/driverlib/pwm.c ****     }
 226:/home/cuil/workspace/arm/lm3s811/TI_Stellaris/driverlib/pwm.c ****     else
 227:/home/cuil/workspace/arm/lm3s811/TI_Stellaris/driverlib/pwm.c ****     {
 228:/home/cuil/workspace/arm/lm3s811/TI_Stellaris/driverlib/pwm.c ****         //
 229:/home/cuil/workspace/arm/lm3s811/TI_Stellaris/driverlib/pwm.c ****         // In down count mode, set the signal high on load and low on count
 230:/home/cuil/workspace/arm/lm3s811/TI_Stellaris/driverlib/pwm.c ****         // comparison (that is, left align the signals).
 231:/home/cuil/workspace/arm/lm3s811/TI_Stellaris/driverlib/pwm.c ****         //
 232:/home/cuil/workspace/arm/lm3s811/TI_Stellaris/driverlib/pwm.c ****         HWREG(ulGen + PWM_O_X_GENA) = (PWM_X_GENA_ACTLOAD_ONE |
 9130              		.loc 1 232 0
 9131 004a BB68     		ldr	r3, [r7, #8]
 9132 004c 03F12003 		add	r3, r3, #32
 9133 0050 4FF08C02 		mov	r2, #140
 9134 0054 1A60     		str	r2, [r3, #0]
 233:/home/cuil/workspace/arm/lm3s811/TI_Stellaris/driverlib/pwm.c ****                                        PWM_X_GENA_ACTCMPAD_ZERO);
 234:/home/cuil/workspace/arm/lm3s811/TI_Stellaris/driverlib/pwm.c ****         HWREG(ulGen + PWM_O_X_GENB) = (PWM_X_GENB_ACTLOAD_ONE |
 9135              		.loc 1 234 0
 9136 0056 BB68     		ldr	r3, [r7, #8]
 9137 0058 03F12403 		add	r3, r3, #36
 9138 005c 40F60C02 		movw	r2, #2060
 9139 0060 1A60     		str	r2, [r3, #0]
 9140              	.L1:
 235:/home/cuil/workspace/arm/lm3s811/TI_Stellaris/driverlib/pwm.c ****                                        PWM_X_GENB_ACTCMPBD_ZERO);
 236:/home/cuil/workspace/arm/lm3s811/TI_Stellaris/driverlib/pwm.c ****     }
 237:/home/cuil/workspace/arm/lm3s811/TI_Stellaris/driverlib/pwm.c **** }
 9141              		.loc 1 237 0
 9142 0062 07F11407 		add	r7, r7, #20
 9143 0066 BD46     		mov	sp, r7
 9144 0068 80BC     		pop	{r7}
 9145 006a 7047     		bx	lr
 9146              	.L5:
 9147              		.align	2
 9148              	.L4:
 9149 006c 0100F8FF 		.word	-524287
 9150              		.cfi_endproc
 9151              	.LFE0:
 9153              		.section	.text.PWMGenPeriodSet,"ax",%progbits
 9154              		.align	2
 9155              		.global	PWMGenPeriodSet
 9156              		.thumb
 9157              		.thumb_func
 9159              	PWMGenPeriodSet:
 9160              	.LFB1:
 238:/home/cuil/workspace/arm/lm3s811/TI_Stellaris/driverlib/pwm.c **** 
 239:/home/cuil/workspace/arm/lm3s811/TI_Stellaris/driverlib/pwm.c **** //*****************************************************************************
 240:/home/cuil/workspace/arm/lm3s811/TI_Stellaris/driverlib/pwm.c **** //
 241:/home/cuil/workspace/arm/lm3s811/TI_Stellaris/driverlib/pwm.c **** //! Sets the period of a PWM generator.
 242:/home/cuil/workspace/arm/lm3s811/TI_Stellaris/driverlib/pwm.c **** //!
 243:/home/cuil/workspace/arm/lm3s811/TI_Stellaris/driverlib/pwm.c **** //! \param ulBase is the base address of the PWM module.
 244:/home/cuil/workspace/arm/lm3s811/TI_Stellaris/driverlib/pwm.c **** //! \param ulGen is the PWM generator to be modified.  This parameter must be 
 245:/home/cuil/workspace/arm/lm3s811/TI_Stellaris/driverlib/pwm.c **** //! one of \b PWM_GEN_0, \b PWM_GEN_1, \b PWM_GEN_2, or \b PWM_GEN_3.
 246:/home/cuil/workspace/arm/lm3s811/TI_Stellaris/driverlib/pwm.c **** //! \param ulPeriod specifies the period of PWM generator output, measured
 247:/home/cuil/workspace/arm/lm3s811/TI_Stellaris/driverlib/pwm.c **** //! in clock ticks.
 248:/home/cuil/workspace/arm/lm3s811/TI_Stellaris/driverlib/pwm.c **** //!
 249:/home/cuil/workspace/arm/lm3s811/TI_Stellaris/driverlib/pwm.c **** //! This function sets the period of the specified PWM generator block, where
 250:/home/cuil/workspace/arm/lm3s811/TI_Stellaris/driverlib/pwm.c **** //! the period of the generator block is defined as the number of PWM clock
 251:/home/cuil/workspace/arm/lm3s811/TI_Stellaris/driverlib/pwm.c **** //! ticks between pulses on the generator block zero signal.
 252:/home/cuil/workspace/arm/lm3s811/TI_Stellaris/driverlib/pwm.c **** //!
 253:/home/cuil/workspace/arm/lm3s811/TI_Stellaris/driverlib/pwm.c **** //! \note Any subsequent calls made to this function before an update occurs
 254:/home/cuil/workspace/arm/lm3s811/TI_Stellaris/driverlib/pwm.c **** //! cause the previous values to be overwritten.
 255:/home/cuil/workspace/arm/lm3s811/TI_Stellaris/driverlib/pwm.c **** //!
 256:/home/cuil/workspace/arm/lm3s811/TI_Stellaris/driverlib/pwm.c **** //! \return None.
 257:/home/cuil/workspace/arm/lm3s811/TI_Stellaris/driverlib/pwm.c **** //
 258:/home/cuil/workspace/arm/lm3s811/TI_Stellaris/driverlib/pwm.c **** //*****************************************************************************
 259:/home/cuil/workspace/arm/lm3s811/TI_Stellaris/driverlib/pwm.c **** void
 260:/home/cuil/workspace/arm/lm3s811/TI_Stellaris/driverlib/pwm.c **** PWMGenPeriodSet(unsigned long ulBase, unsigned long ulGen,
 261:/home/cuil/workspace/arm/lm3s811/TI_Stellaris/driverlib/pwm.c ****                 unsigned long ulPeriod)
 262:/home/cuil/workspace/arm/lm3s811/TI_Stellaris/driverlib/pwm.c **** {
 9161              		.loc 1 262 0
 9162              		.cfi_startproc
 9163              		@ args = 0, pretend = 0, frame = 16
 9164              		@ frame_needed = 1, uses_anonymous_args = 0
 9165              		@ link register save eliminated.
 9166 0000 80B4     		push	{r7}
 9167              	.LCFI3:
 9168              		.cfi_def_cfa_offset 4
 9169 0002 85B0     		sub	sp, sp, #20
 9170              	.LCFI4:
 9171              		.cfi_def_cfa_offset 24
 9172 0004 00AF     		add	r7, sp, #0
 9173              		.cfi_offset 7, -4
 9174              	.LCFI5:
 9175              		.cfi_def_cfa_register 7
 9176 0006 F860     		str	r0, [r7, #12]
 9177 0008 B960     		str	r1, [r7, #8]
 9178 000a 7A60     		str	r2, [r7, #4]
 263:/home/cuil/workspace/arm/lm3s811/TI_Stellaris/driverlib/pwm.c ****     //
 264:/home/cuil/workspace/arm/lm3s811/TI_Stellaris/driverlib/pwm.c ****     // Check the arguments.
 265:/home/cuil/workspace/arm/lm3s811/TI_Stellaris/driverlib/pwm.c ****     //
 266:/home/cuil/workspace/arm/lm3s811/TI_Stellaris/driverlib/pwm.c ****     ASSERT((ulBase == PWM0_BASE) || (ulBase == PWM1_BASE));
 267:/home/cuil/workspace/arm/lm3s811/TI_Stellaris/driverlib/pwm.c ****     ASSERT(PWMGenValid(ulGen));
 268:/home/cuil/workspace/arm/lm3s811/TI_Stellaris/driverlib/pwm.c **** 
 269:/home/cuil/workspace/arm/lm3s811/TI_Stellaris/driverlib/pwm.c ****     //
 270:/home/cuil/workspace/arm/lm3s811/TI_Stellaris/driverlib/pwm.c ****     // Compute the generator's base address.
 271:/home/cuil/workspace/arm/lm3s811/TI_Stellaris/driverlib/pwm.c ****     //
 272:/home/cuil/workspace/arm/lm3s811/TI_Stellaris/driverlib/pwm.c ****     ulGen = PWM_GEN_BADDR(ulBase, ulGen);
 9179              		.loc 1 272 0
 9180 000c BA68     		ldr	r2, [r7, #8]
 9181 000e FB68     		ldr	r3, [r7, #12]
 9182 0010 D318     		adds	r3, r2, r3
 9183 0012 BB60     		str	r3, [r7, #8]
 273:/home/cuil/workspace/arm/lm3s811/TI_Stellaris/driverlib/pwm.c **** 
 274:/home/cuil/workspace/arm/lm3s811/TI_Stellaris/driverlib/pwm.c ****     //
 275:/home/cuil/workspace/arm/lm3s811/TI_Stellaris/driverlib/pwm.c ****     // Set the reload register based on the mode.
 276:/home/cuil/workspace/arm/lm3s811/TI_Stellaris/driverlib/pwm.c ****     //
 277:/home/cuil/workspace/arm/lm3s811/TI_Stellaris/driverlib/pwm.c ****     if(HWREG(ulGen + PWM_O_X_CTL) & PWM_X_CTL_MODE)
 9184              		.loc 1 277 0
 9185 0014 BB68     		ldr	r3, [r7, #8]
 9186 0016 1B68     		ldr	r3, [r3, #0]
 9187 0018 03F00203 		and	r3, r3, #2
 9188 001c 002B     		cmp	r3, #0
 9189 001e 07D0     		beq	.L7
 278:/home/cuil/workspace/arm/lm3s811/TI_Stellaris/driverlib/pwm.c ****     {
 279:/home/cuil/workspace/arm/lm3s811/TI_Stellaris/driverlib/pwm.c ****         //
 280:/home/cuil/workspace/arm/lm3s811/TI_Stellaris/driverlib/pwm.c ****         // In up/down count mode, set the reload register to half the requested
 281:/home/cuil/workspace/arm/lm3s811/TI_Stellaris/driverlib/pwm.c ****         // period.
 282:/home/cuil/workspace/arm/lm3s811/TI_Stellaris/driverlib/pwm.c ****         //
 283:/home/cuil/workspace/arm/lm3s811/TI_Stellaris/driverlib/pwm.c ****         ASSERT((ulPeriod / 2) < 65536);
 284:/home/cuil/workspace/arm/lm3s811/TI_Stellaris/driverlib/pwm.c ****         HWREG(ulGen + PWM_O_X_LOAD) = ulPeriod / 2;
 9190              		.loc 1 284 0
 9191 0020 BB68     		ldr	r3, [r7, #8]
 9192 0022 03F11003 		add	r3, r3, #16
 9193 0026 7A68     		ldr	r2, [r7, #4]
 9194 0028 4FEA5202 		lsr	r2, r2, #1
 9195 002c 1A60     		str	r2, [r3, #0]
 9196 002e 06E0     		b	.L6
 9197              	.L7:
 285:/home/cuil/workspace/arm/lm3s811/TI_Stellaris/driverlib/pwm.c ****     }
 286:/home/cuil/workspace/arm/lm3s811/TI_Stellaris/driverlib/pwm.c ****     else
 287:/home/cuil/workspace/arm/lm3s811/TI_Stellaris/driverlib/pwm.c ****     {
 288:/home/cuil/workspace/arm/lm3s811/TI_Stellaris/driverlib/pwm.c ****         //
 289:/home/cuil/workspace/arm/lm3s811/TI_Stellaris/driverlib/pwm.c ****         // In down count mode, set the reload register to the requested period
 290:/home/cuil/workspace/arm/lm3s811/TI_Stellaris/driverlib/pwm.c ****         // minus one.
 291:/home/cuil/workspace/arm/lm3s811/TI_Stellaris/driverlib/pwm.c ****         //
 292:/home/cuil/workspace/arm/lm3s811/TI_Stellaris/driverlib/pwm.c ****         ASSERT((ulPeriod <= 65536) && (ulPeriod != 0));
 293:/home/cuil/workspace/arm/lm3s811/TI_Stellaris/driverlib/pwm.c ****         HWREG(ulGen + PWM_O_X_LOAD) = ulPeriod - 1;
 9198              		.loc 1 293 0
 9199 0030 BB68     		ldr	r3, [r7, #8]
 9200 0032 03F11003 		add	r3, r3, #16
 9201 0036 7A68     		ldr	r2, [r7, #4]
 9202 0038 02F1FF32 		add	r2, r2, #-1
 9203 003c 1A60     		str	r2, [r3, #0]
 9204              	.L6:
 294:/home/cuil/workspace/arm/lm3s811/TI_Stellaris/driverlib/pwm.c ****     }
 295:/home/cuil/workspace/arm/lm3s811/TI_Stellaris/driverlib/pwm.c **** }
 9205              		.loc 1 295 0
 9206 003e 07F11407 		add	r7, r7, #20
 9207 0042 BD46     		mov	sp, r7
 9208 0044 80BC     		pop	{r7}
 9209 0046 7047     		bx	lr
 9210              		.cfi_endproc
 9211              	.LFE1:
 9213              		.section	.text.PWMGenPeriodGet,"ax",%progbits
 9214              		.align	2
 9215              		.global	PWMGenPeriodGet
 9216              		.thumb
 9217              		.thumb_func
 9219              	PWMGenPeriodGet:
 9220              	.LFB2:
 296:/home/cuil/workspace/arm/lm3s811/TI_Stellaris/driverlib/pwm.c **** 
 297:/home/cuil/workspace/arm/lm3s811/TI_Stellaris/driverlib/pwm.c **** //*****************************************************************************
 298:/home/cuil/workspace/arm/lm3s811/TI_Stellaris/driverlib/pwm.c **** //
 299:/home/cuil/workspace/arm/lm3s811/TI_Stellaris/driverlib/pwm.c **** //! Gets the period of a PWM generator block.
 300:/home/cuil/workspace/arm/lm3s811/TI_Stellaris/driverlib/pwm.c **** //!
 301:/home/cuil/workspace/arm/lm3s811/TI_Stellaris/driverlib/pwm.c **** //! \param ulBase is the base address of the PWM module.
 302:/home/cuil/workspace/arm/lm3s811/TI_Stellaris/driverlib/pwm.c **** //! \param ulGen is the PWM generator to query.  This parameter must be one of
 303:/home/cuil/workspace/arm/lm3s811/TI_Stellaris/driverlib/pwm.c **** //! \b PWM_GEN_0, \b PWM_GEN_1, \b PWM_GEN_2, or \b PWM_GEN_3.
 304:/home/cuil/workspace/arm/lm3s811/TI_Stellaris/driverlib/pwm.c **** //!
 305:/home/cuil/workspace/arm/lm3s811/TI_Stellaris/driverlib/pwm.c **** //! This function gets the period of the specified PWM generator block.  The
 306:/home/cuil/workspace/arm/lm3s811/TI_Stellaris/driverlib/pwm.c **** //! period of the generator block is defined as the number of PWM clock ticks
 307:/home/cuil/workspace/arm/lm3s811/TI_Stellaris/driverlib/pwm.c **** //! between pulses on the generator block zero signal.
 308:/home/cuil/workspace/arm/lm3s811/TI_Stellaris/driverlib/pwm.c **** //!
 309:/home/cuil/workspace/arm/lm3s811/TI_Stellaris/driverlib/pwm.c **** //! If the update of the counter for the specified PWM generator has yet
 310:/home/cuil/workspace/arm/lm3s811/TI_Stellaris/driverlib/pwm.c **** //! to be completed, the value returned may not be the active period.  The
 311:/home/cuil/workspace/arm/lm3s811/TI_Stellaris/driverlib/pwm.c **** //! value returned is the programmed period, measured in PWM clock ticks.
 312:/home/cuil/workspace/arm/lm3s811/TI_Stellaris/driverlib/pwm.c **** //!
 313:/home/cuil/workspace/arm/lm3s811/TI_Stellaris/driverlib/pwm.c **** //! \return Returns the programmed period of the specified generator block
 314:/home/cuil/workspace/arm/lm3s811/TI_Stellaris/driverlib/pwm.c **** //! in PWM clock ticks.
 315:/home/cuil/workspace/arm/lm3s811/TI_Stellaris/driverlib/pwm.c **** //
 316:/home/cuil/workspace/arm/lm3s811/TI_Stellaris/driverlib/pwm.c **** //*****************************************************************************
 317:/home/cuil/workspace/arm/lm3s811/TI_Stellaris/driverlib/pwm.c **** unsigned long
 318:/home/cuil/workspace/arm/lm3s811/TI_Stellaris/driverlib/pwm.c **** PWMGenPeriodGet(unsigned long ulBase, unsigned long ulGen)
 319:/home/cuil/workspace/arm/lm3s811/TI_Stellaris/driverlib/pwm.c **** {
 9221              		.loc 1 319 0
 9222              		.cfi_startproc
 9223              		@ args = 0, pretend = 0, frame = 8
 9224              		@ frame_needed = 1, uses_anonymous_args = 0
 9225              		@ link register save eliminated.
 9226 0000 80B4     		push	{r7}
 9227              	.LCFI6:
 9228              		.cfi_def_cfa_offset 4
 9229 0002 83B0     		sub	sp, sp, #12
 9230              	.LCFI7:
 9231              		.cfi_def_cfa_offset 16
 9232 0004 00AF     		add	r7, sp, #0
 9233              		.cfi_offset 7, -4
 9234              	.LCFI8:
 9235              		.cfi_def_cfa_register 7
 9236 0006 7860     		str	r0, [r7, #4]
 9237 0008 3960     		str	r1, [r7, #0]
 320:/home/cuil/workspace/arm/lm3s811/TI_Stellaris/driverlib/pwm.c ****     //
 321:/home/cuil/workspace/arm/lm3s811/TI_Stellaris/driverlib/pwm.c ****     // Check the arguments.
 322:/home/cuil/workspace/arm/lm3s811/TI_Stellaris/driverlib/pwm.c ****     //
 323:/home/cuil/workspace/arm/lm3s811/TI_Stellaris/driverlib/pwm.c ****     ASSERT((ulBase == PWM0_BASE) || (ulBase == PWM1_BASE));
 324:/home/cuil/workspace/arm/lm3s811/TI_Stellaris/driverlib/pwm.c ****     ASSERT(PWMGenValid(ulGen));
 325:/home/cuil/workspace/arm/lm3s811/TI_Stellaris/driverlib/pwm.c **** 
 326:/home/cuil/workspace/arm/lm3s811/TI_Stellaris/driverlib/pwm.c ****     //
 327:/home/cuil/workspace/arm/lm3s811/TI_Stellaris/driverlib/pwm.c ****     // Compute the generator's base address.
 328:/home/cuil/workspace/arm/lm3s811/TI_Stellaris/driverlib/pwm.c ****     //
 329:/home/cuil/workspace/arm/lm3s811/TI_Stellaris/driverlib/pwm.c ****     ulGen = PWM_GEN_BADDR(ulBase, ulGen);
 9238              		.loc 1 329 0
 9239 000a 3A68     		ldr	r2, [r7, #0]
 9240 000c 7B68     		ldr	r3, [r7, #4]
 9241 000e D318     		adds	r3, r2, r3
 9242 0010 3B60     		str	r3, [r7, #0]
 330:/home/cuil/workspace/arm/lm3s811/TI_Stellaris/driverlib/pwm.c **** 
 331:/home/cuil/workspace/arm/lm3s811/TI_Stellaris/driverlib/pwm.c ****     //
 332:/home/cuil/workspace/arm/lm3s811/TI_Stellaris/driverlib/pwm.c ****     // Figure out the counter mode.
 333:/home/cuil/workspace/arm/lm3s811/TI_Stellaris/driverlib/pwm.c ****     //
 334:/home/cuil/workspace/arm/lm3s811/TI_Stellaris/driverlib/pwm.c ****     if(HWREG(ulGen + PWM_O_X_CTL) & PWM_X_CTL_MODE)
 9243              		.loc 1 334 0
 9244 0012 3B68     		ldr	r3, [r7, #0]
 9245 0014 1B68     		ldr	r3, [r3, #0]
 9246 0016 03F00203 		and	r3, r3, #2
 9247 001a 002B     		cmp	r3, #0
 9248 001c 06D0     		beq	.L10
 335:/home/cuil/workspace/arm/lm3s811/TI_Stellaris/driverlib/pwm.c ****     {
 336:/home/cuil/workspace/arm/lm3s811/TI_Stellaris/driverlib/pwm.c ****         //
 337:/home/cuil/workspace/arm/lm3s811/TI_Stellaris/driverlib/pwm.c ****         // The period is twice the reload register value.
 338:/home/cuil/workspace/arm/lm3s811/TI_Stellaris/driverlib/pwm.c ****         //
 339:/home/cuil/workspace/arm/lm3s811/TI_Stellaris/driverlib/pwm.c ****         return(HWREG(ulGen + PWM_O_X_LOAD) * 2);
 9249              		.loc 1 339 0
 9250 001e 3B68     		ldr	r3, [r7, #0]
 9251 0020 03F11003 		add	r3, r3, #16
 9252 0024 1B68     		ldr	r3, [r3, #0]
 9253 0026 4FEA4303 		lsl	r3, r3, #1
 9254 002a 05E0     		b	.L11
 9255              	.L10:
 340:/home/cuil/workspace/arm/lm3s811/TI_Stellaris/driverlib/pwm.c ****     }
 341:/home/cuil/workspace/arm/lm3s811/TI_Stellaris/driverlib/pwm.c ****     else
 342:/home/cuil/workspace/arm/lm3s811/TI_Stellaris/driverlib/pwm.c ****     {
 343:/home/cuil/workspace/arm/lm3s811/TI_Stellaris/driverlib/pwm.c ****         //
 344:/home/cuil/workspace/arm/lm3s811/TI_Stellaris/driverlib/pwm.c ****         // The period is the reload register value plus one.
 345:/home/cuil/workspace/arm/lm3s811/TI_Stellaris/driverlib/pwm.c ****         //
 346:/home/cuil/workspace/arm/lm3s811/TI_Stellaris/driverlib/pwm.c ****         return(HWREG(ulGen + PWM_O_X_LOAD) + 1);
 9256              		.loc 1 346 0
 9257 002c 3B68     		ldr	r3, [r7, #0]
 9258 002e 03F11003 		add	r3, r3, #16
 9259 0032 1B68     		ldr	r3, [r3, #0]
 9260 0034 03F10103 		add	r3, r3, #1
 9261              	.L11:
 347:/home/cuil/workspace/arm/lm3s811/TI_Stellaris/driverlib/pwm.c ****     }
 348:/home/cuil/workspace/arm/lm3s811/TI_Stellaris/driverlib/pwm.c **** }
 9262              		.loc 1 348 0
 9263 0038 1846     		mov	r0, r3
 9264 003a 07F10C07 		add	r7, r7, #12
 9265 003e BD46     		mov	sp, r7
 9266 0040 80BC     		pop	{r7}
 9267 0042 7047     		bx	lr
 9268              		.cfi_endproc
 9269              	.LFE2:
 9271              		.section	.text.PWMGenEnable,"ax",%progbits
 9272              		.align	2
 9273              		.global	PWMGenEnable
 9274              		.thumb
 9275              		.thumb_func
 9277              	PWMGenEnable:
 9278              	.LFB3:
 349:/home/cuil/workspace/arm/lm3s811/TI_Stellaris/driverlib/pwm.c **** 
 350:/home/cuil/workspace/arm/lm3s811/TI_Stellaris/driverlib/pwm.c **** //*****************************************************************************
 351:/home/cuil/workspace/arm/lm3s811/TI_Stellaris/driverlib/pwm.c **** //
 352:/home/cuil/workspace/arm/lm3s811/TI_Stellaris/driverlib/pwm.c **** //! Enables the timer/counter for a PWM generator block.
 353:/home/cuil/workspace/arm/lm3s811/TI_Stellaris/driverlib/pwm.c **** //!
 354:/home/cuil/workspace/arm/lm3s811/TI_Stellaris/driverlib/pwm.c **** //! \param ulBase is the base address of the PWM module.
 355:/home/cuil/workspace/arm/lm3s811/TI_Stellaris/driverlib/pwm.c **** //! \param ulGen is the PWM generator to be enabled.  This parameter must be 
 356:/home/cuil/workspace/arm/lm3s811/TI_Stellaris/driverlib/pwm.c **** //! one of \b PWM_GEN_0, \b PWM_GEN_1, \b PWM_GEN_2, or \b PWM_GEN_3.
 357:/home/cuil/workspace/arm/lm3s811/TI_Stellaris/driverlib/pwm.c **** //!
 358:/home/cuil/workspace/arm/lm3s811/TI_Stellaris/driverlib/pwm.c **** //! This function allows the PWM clock to drive the timer/counter for the
 359:/home/cuil/workspace/arm/lm3s811/TI_Stellaris/driverlib/pwm.c **** //! specified generator block.
 360:/home/cuil/workspace/arm/lm3s811/TI_Stellaris/driverlib/pwm.c **** //!
 361:/home/cuil/workspace/arm/lm3s811/TI_Stellaris/driverlib/pwm.c **** //! \return None.
 362:/home/cuil/workspace/arm/lm3s811/TI_Stellaris/driverlib/pwm.c **** //
 363:/home/cuil/workspace/arm/lm3s811/TI_Stellaris/driverlib/pwm.c **** //*****************************************************************************
 364:/home/cuil/workspace/arm/lm3s811/TI_Stellaris/driverlib/pwm.c **** void
 365:/home/cuil/workspace/arm/lm3s811/TI_Stellaris/driverlib/pwm.c **** PWMGenEnable(unsigned long ulBase, unsigned long ulGen)
 366:/home/cuil/workspace/arm/lm3s811/TI_Stellaris/driverlib/pwm.c **** {
 9279              		.loc 1 366 0
 9280              		.cfi_startproc
 9281              		@ args = 0, pretend = 0, frame = 8
 9282              		@ frame_needed = 1, uses_anonymous_args = 0
 9283              		@ link register save eliminated.
 9284 0000 80B4     		push	{r7}
 9285              	.LCFI9:
 9286              		.cfi_def_cfa_offset 4
 9287 0002 83B0     		sub	sp, sp, #12
 9288              	.LCFI10:
 9289              		.cfi_def_cfa_offset 16
 9290 0004 00AF     		add	r7, sp, #0
 9291              		.cfi_offset 7, -4
 9292              	.LCFI11:
 9293              		.cfi_def_cfa_register 7
 9294 0006 7860     		str	r0, [r7, #4]
 9295 0008 3960     		str	r1, [r7, #0]
 367:/home/cuil/workspace/arm/lm3s811/TI_Stellaris/driverlib/pwm.c ****     //
 368:/home/cuil/workspace/arm/lm3s811/TI_Stellaris/driverlib/pwm.c ****     // Check the arguments.
 369:/home/cuil/workspace/arm/lm3s811/TI_Stellaris/driverlib/pwm.c ****     //
 370:/home/cuil/workspace/arm/lm3s811/TI_Stellaris/driverlib/pwm.c ****     ASSERT((ulBase == PWM0_BASE) || (ulBase == PWM1_BASE));
 371:/home/cuil/workspace/arm/lm3s811/TI_Stellaris/driverlib/pwm.c ****     ASSERT(PWMGenValid(ulGen));
 372:/home/cuil/workspace/arm/lm3s811/TI_Stellaris/driverlib/pwm.c **** 
 373:/home/cuil/workspace/arm/lm3s811/TI_Stellaris/driverlib/pwm.c ****     //
 374:/home/cuil/workspace/arm/lm3s811/TI_Stellaris/driverlib/pwm.c ****     // Enable the PWM generator.
 375:/home/cuil/workspace/arm/lm3s811/TI_Stellaris/driverlib/pwm.c ****     //
 376:/home/cuil/workspace/arm/lm3s811/TI_Stellaris/driverlib/pwm.c ****     HWREG(PWM_GEN_BADDR(ulBase, ulGen) + PWM_O_X_CTL) |= PWM_X_CTL_ENABLE;
 9296              		.loc 1 376 0
 9297 000a 7A68     		ldr	r2, [r7, #4]
 9298 000c 3B68     		ldr	r3, [r7, #0]
 9299 000e D318     		adds	r3, r2, r3
 9300 0010 7968     		ldr	r1, [r7, #4]
 9301 0012 3A68     		ldr	r2, [r7, #0]
 9302 0014 8A18     		adds	r2, r1, r2
 9303 0016 1268     		ldr	r2, [r2, #0]
 9304 0018 42F00102 		orr	r2, r2, #1
 9305 001c 1A60     		str	r2, [r3, #0]
 377:/home/cuil/workspace/arm/lm3s811/TI_Stellaris/driverlib/pwm.c **** }
 9306              		.loc 1 377 0
 9307 001e 07F10C07 		add	r7, r7, #12
 9308 0022 BD46     		mov	sp, r7
 9309 0024 80BC     		pop	{r7}
 9310 0026 7047     		bx	lr
 9311              		.cfi_endproc
 9312              	.LFE3:
 9314              		.section	.text.PWMGenDisable,"ax",%progbits
 9315              		.align	2
 9316              		.global	PWMGenDisable
 9317              		.thumb
 9318              		.thumb_func
 9320              	PWMGenDisable:
 9321              	.LFB4:
 378:/home/cuil/workspace/arm/lm3s811/TI_Stellaris/driverlib/pwm.c **** 
 379:/home/cuil/workspace/arm/lm3s811/TI_Stellaris/driverlib/pwm.c **** //*****************************************************************************
 380:/home/cuil/workspace/arm/lm3s811/TI_Stellaris/driverlib/pwm.c **** //
 381:/home/cuil/workspace/arm/lm3s811/TI_Stellaris/driverlib/pwm.c **** //! Disables the timer/counter for a PWM generator block.
 382:/home/cuil/workspace/arm/lm3s811/TI_Stellaris/driverlib/pwm.c **** //!
 383:/home/cuil/workspace/arm/lm3s811/TI_Stellaris/driverlib/pwm.c **** //! \param ulBase is the base address of the PWM module.
 384:/home/cuil/workspace/arm/lm3s811/TI_Stellaris/driverlib/pwm.c **** //! \param ulGen is the PWM generator to be disabled.  This parameter must be 
 385:/home/cuil/workspace/arm/lm3s811/TI_Stellaris/driverlib/pwm.c **** //! one of \b PWM_GEN_0, \b PWM_GEN_1, \b PWM_GEN_2, or \b PWM_GEN_3.
 386:/home/cuil/workspace/arm/lm3s811/TI_Stellaris/driverlib/pwm.c **** //!
 387:/home/cuil/workspace/arm/lm3s811/TI_Stellaris/driverlib/pwm.c **** //! This function blocks the PWM clock from driving the timer/counter for the
 388:/home/cuil/workspace/arm/lm3s811/TI_Stellaris/driverlib/pwm.c **** //! specified generator block.
 389:/home/cuil/workspace/arm/lm3s811/TI_Stellaris/driverlib/pwm.c **** //!
 390:/home/cuil/workspace/arm/lm3s811/TI_Stellaris/driverlib/pwm.c **** //! \return None.
 391:/home/cuil/workspace/arm/lm3s811/TI_Stellaris/driverlib/pwm.c **** //
 392:/home/cuil/workspace/arm/lm3s811/TI_Stellaris/driverlib/pwm.c **** //*****************************************************************************
 393:/home/cuil/workspace/arm/lm3s811/TI_Stellaris/driverlib/pwm.c **** void
 394:/home/cuil/workspace/arm/lm3s811/TI_Stellaris/driverlib/pwm.c **** PWMGenDisable(unsigned long ulBase, unsigned long ulGen)
 395:/home/cuil/workspace/arm/lm3s811/TI_Stellaris/driverlib/pwm.c **** {
 9322              		.loc 1 395 0
 9323              		.cfi_startproc
 9324              		@ args = 0, pretend = 0, frame = 8
 9325              		@ frame_needed = 1, uses_anonymous_args = 0
 9326              		@ link register save eliminated.
 9327 0000 80B4     		push	{r7}
 9328              	.LCFI12:
 9329              		.cfi_def_cfa_offset 4
 9330 0002 83B0     		sub	sp, sp, #12
 9331              	.LCFI13:
 9332              		.cfi_def_cfa_offset 16
 9333 0004 00AF     		add	r7, sp, #0
 9334              		.cfi_offset 7, -4
 9335              	.LCFI14:
 9336              		.cfi_def_cfa_register 7
 9337 0006 7860     		str	r0, [r7, #4]
 9338 0008 3960     		str	r1, [r7, #0]
 396:/home/cuil/workspace/arm/lm3s811/TI_Stellaris/driverlib/pwm.c ****     //
 397:/home/cuil/workspace/arm/lm3s811/TI_Stellaris/driverlib/pwm.c ****     // Check the arguments.
 398:/home/cuil/workspace/arm/lm3s811/TI_Stellaris/driverlib/pwm.c ****     //
 399:/home/cuil/workspace/arm/lm3s811/TI_Stellaris/driverlib/pwm.c ****     ASSERT((ulBase == PWM0_BASE) || (ulBase == PWM1_BASE));
 400:/home/cuil/workspace/arm/lm3s811/TI_Stellaris/driverlib/pwm.c ****     ASSERT(PWMGenValid(ulGen));
 401:/home/cuil/workspace/arm/lm3s811/TI_Stellaris/driverlib/pwm.c **** 
 402:/home/cuil/workspace/arm/lm3s811/TI_Stellaris/driverlib/pwm.c ****     //
 403:/home/cuil/workspace/arm/lm3s811/TI_Stellaris/driverlib/pwm.c ****     // Disable the PWM generator.
 404:/home/cuil/workspace/arm/lm3s811/TI_Stellaris/driverlib/pwm.c ****     //
 405:/home/cuil/workspace/arm/lm3s811/TI_Stellaris/driverlib/pwm.c ****     HWREG(PWM_GEN_BADDR(ulBase, + ulGen) + PWM_O_X_CTL) &= ~(PWM_X_CTL_ENABLE);
 9339              		.loc 1 405 0
 9340 000a 7A68     		ldr	r2, [r7, #4]
 9341 000c 3B68     		ldr	r3, [r7, #0]
 9342 000e D318     		adds	r3, r2, r3
 9343 0010 7968     		ldr	r1, [r7, #4]
 9344 0012 3A68     		ldr	r2, [r7, #0]
 9345 0014 8A18     		adds	r2, r1, r2
 9346 0016 1268     		ldr	r2, [r2, #0]
 9347 0018 22F00102 		bic	r2, r2, #1
 9348 001c 1A60     		str	r2, [r3, #0]
 406:/home/cuil/workspace/arm/lm3s811/TI_Stellaris/driverlib/pwm.c **** }
 9349              		.loc 1 406 0
 9350 001e 07F10C07 		add	r7, r7, #12
 9351 0022 BD46     		mov	sp, r7
 9352 0024 80BC     		pop	{r7}
 9353 0026 7047     		bx	lr
 9354              		.cfi_endproc
 9355              	.LFE4:
 9357              		.section	.text.PWMPulseWidthSet,"ax",%progbits
 9358              		.align	2
 9359              		.global	PWMPulseWidthSet
 9360              		.thumb
 9361              		.thumb_func
 9363              	PWMPulseWidthSet:
 9364              	.LFB5:
 407:/home/cuil/workspace/arm/lm3s811/TI_Stellaris/driverlib/pwm.c **** 
 408:/home/cuil/workspace/arm/lm3s811/TI_Stellaris/driverlib/pwm.c **** //*****************************************************************************
 409:/home/cuil/workspace/arm/lm3s811/TI_Stellaris/driverlib/pwm.c **** //
 410:/home/cuil/workspace/arm/lm3s811/TI_Stellaris/driverlib/pwm.c **** //! Sets the pulse width for the specified PWM output.
 411:/home/cuil/workspace/arm/lm3s811/TI_Stellaris/driverlib/pwm.c **** //!
 412:/home/cuil/workspace/arm/lm3s811/TI_Stellaris/driverlib/pwm.c **** //! \param ulBase is the base address of the PWM module.
 413:/home/cuil/workspace/arm/lm3s811/TI_Stellaris/driverlib/pwm.c **** //! \param ulPWMOut is the PWM output to modify.  This parameter must be one 
 414:/home/cuil/workspace/arm/lm3s811/TI_Stellaris/driverlib/pwm.c **** //! of \b PWM_OUT_0, \b PWM_OUT_1, \b PWM_OUT_2, \b PWM_OUT_3, \b PWM_OUT_4, 
 415:/home/cuil/workspace/arm/lm3s811/TI_Stellaris/driverlib/pwm.c **** //! \b PWM_OUT_5, \b PWM_OUT_6, or \b PWM_OUT_7.
 416:/home/cuil/workspace/arm/lm3s811/TI_Stellaris/driverlib/pwm.c **** //! \param ulWidth specifies the width of the positive portion of the pulse.
 417:/home/cuil/workspace/arm/lm3s811/TI_Stellaris/driverlib/pwm.c **** //!
 418:/home/cuil/workspace/arm/lm3s811/TI_Stellaris/driverlib/pwm.c **** //! This function sets the pulse width for the specified PWM output, where the
 419:/home/cuil/workspace/arm/lm3s811/TI_Stellaris/driverlib/pwm.c **** //! pulse width is defined as the number of PWM clock ticks.
 420:/home/cuil/workspace/arm/lm3s811/TI_Stellaris/driverlib/pwm.c **** //!
 421:/home/cuil/workspace/arm/lm3s811/TI_Stellaris/driverlib/pwm.c **** //! \note Any subsequent calls made to this function before an update occurs
 422:/home/cuil/workspace/arm/lm3s811/TI_Stellaris/driverlib/pwm.c **** //! cause the previous values to be overwritten.
 423:/home/cuil/workspace/arm/lm3s811/TI_Stellaris/driverlib/pwm.c **** //!
 424:/home/cuil/workspace/arm/lm3s811/TI_Stellaris/driverlib/pwm.c **** //! \return None.
 425:/home/cuil/workspace/arm/lm3s811/TI_Stellaris/driverlib/pwm.c **** //
 426:/home/cuil/workspace/arm/lm3s811/TI_Stellaris/driverlib/pwm.c **** //*****************************************************************************
 427:/home/cuil/workspace/arm/lm3s811/TI_Stellaris/driverlib/pwm.c **** void
 428:/home/cuil/workspace/arm/lm3s811/TI_Stellaris/driverlib/pwm.c **** PWMPulseWidthSet(unsigned long ulBase, unsigned long ulPWMOut,
 429:/home/cuil/workspace/arm/lm3s811/TI_Stellaris/driverlib/pwm.c ****                  unsigned long ulWidth)
 430:/home/cuil/workspace/arm/lm3s811/TI_Stellaris/driverlib/pwm.c **** {
 9365              		.loc 1 430 0
 9366              		.cfi_startproc
 9367              		@ args = 0, pretend = 0, frame = 24
 9368              		@ frame_needed = 1, uses_anonymous_args = 0
 9369              		@ link register save eliminated.
 9370 0000 80B4     		push	{r7}
 9371              	.LCFI15:
 9372              		.cfi_def_cfa_offset 4
 9373 0002 87B0     		sub	sp, sp, #28
 9374              	.LCFI16:
 9375              		.cfi_def_cfa_offset 32
 9376 0004 00AF     		add	r7, sp, #0
 9377              		.cfi_offset 7, -4
 9378              	.LCFI17:
 9379              		.cfi_def_cfa_register 7
 9380 0006 F860     		str	r0, [r7, #12]
 9381 0008 B960     		str	r1, [r7, #8]
 9382 000a 7A60     		str	r2, [r7, #4]
 431:/home/cuil/workspace/arm/lm3s811/TI_Stellaris/driverlib/pwm.c ****     unsigned long ulGenBase, ulReg;
 432:/home/cuil/workspace/arm/lm3s811/TI_Stellaris/driverlib/pwm.c **** 
 433:/home/cuil/workspace/arm/lm3s811/TI_Stellaris/driverlib/pwm.c ****     //
 434:/home/cuil/workspace/arm/lm3s811/TI_Stellaris/driverlib/pwm.c ****     // Check the arguments.
 435:/home/cuil/workspace/arm/lm3s811/TI_Stellaris/driverlib/pwm.c ****     //
 436:/home/cuil/workspace/arm/lm3s811/TI_Stellaris/driverlib/pwm.c ****     ASSERT((ulBase == PWM0_BASE) || (ulBase == PWM1_BASE));
 437:/home/cuil/workspace/arm/lm3s811/TI_Stellaris/driverlib/pwm.c ****     ASSERT(PWMOutValid(ulPWMOut));
 438:/home/cuil/workspace/arm/lm3s811/TI_Stellaris/driverlib/pwm.c **** 
 439:/home/cuil/workspace/arm/lm3s811/TI_Stellaris/driverlib/pwm.c ****     //
 440:/home/cuil/workspace/arm/lm3s811/TI_Stellaris/driverlib/pwm.c ****     // Compute the generator's base address.
 441:/home/cuil/workspace/arm/lm3s811/TI_Stellaris/driverlib/pwm.c ****     //
 442:/home/cuil/workspace/arm/lm3s811/TI_Stellaris/driverlib/pwm.c ****     ulGenBase = PWM_OUT_BADDR(ulBase, ulPWMOut);
 9383              		.loc 1 442 0
 9384 000c BB68     		ldr	r3, [r7, #8]
 9385 000e 23F03F02 		bic	r2, r3, #63
 9386 0012 FB68     		ldr	r3, [r7, #12]
 9387 0014 D318     		adds	r3, r2, r3
 9388 0016 7B61     		str	r3, [r7, #20]
 443:/home/cuil/workspace/arm/lm3s811/TI_Stellaris/driverlib/pwm.c **** 
 444:/home/cuil/workspace/arm/lm3s811/TI_Stellaris/driverlib/pwm.c ****     //
 445:/home/cuil/workspace/arm/lm3s811/TI_Stellaris/driverlib/pwm.c ****     // If the counter is in up/down count mode, divide the width by two.
 446:/home/cuil/workspace/arm/lm3s811/TI_Stellaris/driverlib/pwm.c ****     //
 447:/home/cuil/workspace/arm/lm3s811/TI_Stellaris/driverlib/pwm.c ****     if(HWREG(ulGenBase + PWM_O_X_CTL) & PWM_X_CTL_MODE)
 9389              		.loc 1 447 0
 9390 0018 7B69     		ldr	r3, [r7, #20]
 9391 001a 1B68     		ldr	r3, [r3, #0]
 9392 001c 03F00203 		and	r3, r3, #2
 9393 0020 002B     		cmp	r3, #0
 9394 0022 03D0     		beq	.L15
 448:/home/cuil/workspace/arm/lm3s811/TI_Stellaris/driverlib/pwm.c ****     {
 449:/home/cuil/workspace/arm/lm3s811/TI_Stellaris/driverlib/pwm.c ****         ulWidth /= 2;
 9395              		.loc 1 449 0
 9396 0024 7B68     		ldr	r3, [r7, #4]
 9397 0026 4FEA5303 		lsr	r3, r3, #1
 9398 002a 7B60     		str	r3, [r7, #4]
 9399              	.L15:
 450:/home/cuil/workspace/arm/lm3s811/TI_Stellaris/driverlib/pwm.c ****     }
 451:/home/cuil/workspace/arm/lm3s811/TI_Stellaris/driverlib/pwm.c **** 
 452:/home/cuil/workspace/arm/lm3s811/TI_Stellaris/driverlib/pwm.c ****     //
 453:/home/cuil/workspace/arm/lm3s811/TI_Stellaris/driverlib/pwm.c ****     // Get the period.
 454:/home/cuil/workspace/arm/lm3s811/TI_Stellaris/driverlib/pwm.c ****     //
 455:/home/cuil/workspace/arm/lm3s811/TI_Stellaris/driverlib/pwm.c ****     ulReg = HWREG(ulGenBase + PWM_O_X_LOAD);
 9400              		.loc 1 455 0
 9401 002c 7B69     		ldr	r3, [r7, #20]
 9402 002e 03F11003 		add	r3, r3, #16
 9403 0032 1B68     		ldr	r3, [r3, #0]
 9404 0034 3B61     		str	r3, [r7, #16]
 456:/home/cuil/workspace/arm/lm3s811/TI_Stellaris/driverlib/pwm.c **** 
 457:/home/cuil/workspace/arm/lm3s811/TI_Stellaris/driverlib/pwm.c ****     //
 458:/home/cuil/workspace/arm/lm3s811/TI_Stellaris/driverlib/pwm.c ****     // Make sure the width is not too large.
 459:/home/cuil/workspace/arm/lm3s811/TI_Stellaris/driverlib/pwm.c ****     //
 460:/home/cuil/workspace/arm/lm3s811/TI_Stellaris/driverlib/pwm.c ****     ASSERT(ulWidth < ulReg);
 461:/home/cuil/workspace/arm/lm3s811/TI_Stellaris/driverlib/pwm.c **** 
 462:/home/cuil/workspace/arm/lm3s811/TI_Stellaris/driverlib/pwm.c ****     //
 463:/home/cuil/workspace/arm/lm3s811/TI_Stellaris/driverlib/pwm.c ****     // Compute the compare value.
 464:/home/cuil/workspace/arm/lm3s811/TI_Stellaris/driverlib/pwm.c ****     //
 465:/home/cuil/workspace/arm/lm3s811/TI_Stellaris/driverlib/pwm.c ****     ulReg = ulReg - ulWidth;
 9405              		.loc 1 465 0
 9406 0036 3A69     		ldr	r2, [r7, #16]
 9407 0038 7B68     		ldr	r3, [r7, #4]
 9408 003a D31A     		subs	r3, r2, r3
 9409 003c 3B61     		str	r3, [r7, #16]
 466:/home/cuil/workspace/arm/lm3s811/TI_Stellaris/driverlib/pwm.c **** 
 467:/home/cuil/workspace/arm/lm3s811/TI_Stellaris/driverlib/pwm.c ****     //
 468:/home/cuil/workspace/arm/lm3s811/TI_Stellaris/driverlib/pwm.c ****     // Write to the appropriate registers.
 469:/home/cuil/workspace/arm/lm3s811/TI_Stellaris/driverlib/pwm.c ****     //
 470:/home/cuil/workspace/arm/lm3s811/TI_Stellaris/driverlib/pwm.c ****     if(PWM_IS_OUTPUT_ODD(ulPWMOut))
 9410              		.loc 1 470 0
 9411 003e BB68     		ldr	r3, [r7, #8]
 9412 0040 03F00103 		and	r3, r3, #1
 9413 0044 DBB2     		uxtb	r3, r3
 9414 0046 002B     		cmp	r3, #0
 9415 0048 05D0     		beq	.L16
 471:/home/cuil/workspace/arm/lm3s811/TI_Stellaris/driverlib/pwm.c ****     {
 472:/home/cuil/workspace/arm/lm3s811/TI_Stellaris/driverlib/pwm.c ****         HWREG(ulGenBase + PWM_O_X_CMPB) = ulReg;
 9416              		.loc 1 472 0
 9417 004a 7B69     		ldr	r3, [r7, #20]
 9418 004c 03F11C03 		add	r3, r3, #28
 9419 0050 3A69     		ldr	r2, [r7, #16]
 9420 0052 1A60     		str	r2, [r3, #0]
 9421 0054 04E0     		b	.L14
 9422              	.L16:
 473:/home/cuil/workspace/arm/lm3s811/TI_Stellaris/driverlib/pwm.c ****     }
 474:/home/cuil/workspace/arm/lm3s811/TI_Stellaris/driverlib/pwm.c ****     else
 475:/home/cuil/workspace/arm/lm3s811/TI_Stellaris/driverlib/pwm.c ****     {
 476:/home/cuil/workspace/arm/lm3s811/TI_Stellaris/driverlib/pwm.c ****         HWREG(ulGenBase + PWM_O_X_CMPA) = ulReg;
 9423              		.loc 1 476 0
 9424 0056 7B69     		ldr	r3, [r7, #20]
 9425 0058 03F11803 		add	r3, r3, #24
 9426 005c 3A69     		ldr	r2, [r7, #16]
 9427 005e 1A60     		str	r2, [r3, #0]
 9428              	.L14:
 477:/home/cuil/workspace/arm/lm3s811/TI_Stellaris/driverlib/pwm.c ****     }
 478:/home/cuil/workspace/arm/lm3s811/TI_Stellaris/driverlib/pwm.c **** }
 9429              		.loc 1 478 0
 9430 0060 07F11C07 		add	r7, r7, #28
 9431 0064 BD46     		mov	sp, r7
 9432 0066 80BC     		pop	{r7}
 9433 0068 7047     		bx	lr
 9434              		.cfi_endproc
 9435              	.LFE5:
 9437 006a 00BF     		.section	.text.PWMPulseWidthGet,"ax",%progbits
 9438              		.align	2
 9439              		.global	PWMPulseWidthGet
 9440              		.thumb
 9441              		.thumb_func
 9443              	PWMPulseWidthGet:
 9444              	.LFB6:
 479:/home/cuil/workspace/arm/lm3s811/TI_Stellaris/driverlib/pwm.c **** 
 480:/home/cuil/workspace/arm/lm3s811/TI_Stellaris/driverlib/pwm.c **** //*****************************************************************************
 481:/home/cuil/workspace/arm/lm3s811/TI_Stellaris/driverlib/pwm.c **** //
 482:/home/cuil/workspace/arm/lm3s811/TI_Stellaris/driverlib/pwm.c **** //! Gets the pulse width of a PWM output.
 483:/home/cuil/workspace/arm/lm3s811/TI_Stellaris/driverlib/pwm.c **** //!
 484:/home/cuil/workspace/arm/lm3s811/TI_Stellaris/driverlib/pwm.c **** //! \param ulBase is the base address of the PWM module.
 485:/home/cuil/workspace/arm/lm3s811/TI_Stellaris/driverlib/pwm.c **** //! \param ulPWMOut is the PWM output to query.  This parameter must be one of 
 486:/home/cuil/workspace/arm/lm3s811/TI_Stellaris/driverlib/pwm.c **** //! \b PWM_OUT_0, \b PWM_OUT_1, \b PWM_OUT_2, \b PWM_OUT_3, \b PWM_OUT_4, 
 487:/home/cuil/workspace/arm/lm3s811/TI_Stellaris/driverlib/pwm.c **** //! \b PWM_OUT_5, \b PWM_OUT_6, or \b PWM_OUT_7.
 488:/home/cuil/workspace/arm/lm3s811/TI_Stellaris/driverlib/pwm.c **** //!
 489:/home/cuil/workspace/arm/lm3s811/TI_Stellaris/driverlib/pwm.c **** //! This function gets the currently programmed pulse width for the specified
 490:/home/cuil/workspace/arm/lm3s811/TI_Stellaris/driverlib/pwm.c **** //! PWM output.  If the update of the comparator for the specified output has
 491:/home/cuil/workspace/arm/lm3s811/TI_Stellaris/driverlib/pwm.c **** //! yet to be completed, the value returned may not be the active pulse width.
 492:/home/cuil/workspace/arm/lm3s811/TI_Stellaris/driverlib/pwm.c **** //! The value returned is the programmed pulse width, measured in PWM clock
 493:/home/cuil/workspace/arm/lm3s811/TI_Stellaris/driverlib/pwm.c **** //! ticks.
 494:/home/cuil/workspace/arm/lm3s811/TI_Stellaris/driverlib/pwm.c **** //!
 495:/home/cuil/workspace/arm/lm3s811/TI_Stellaris/driverlib/pwm.c **** //! \return Returns the width of the pulse in PWM clock ticks.
 496:/home/cuil/workspace/arm/lm3s811/TI_Stellaris/driverlib/pwm.c **** //
 497:/home/cuil/workspace/arm/lm3s811/TI_Stellaris/driverlib/pwm.c **** //*****************************************************************************
 498:/home/cuil/workspace/arm/lm3s811/TI_Stellaris/driverlib/pwm.c **** unsigned long
 499:/home/cuil/workspace/arm/lm3s811/TI_Stellaris/driverlib/pwm.c **** PWMPulseWidthGet(unsigned long ulBase, unsigned long ulPWMOut)
 500:/home/cuil/workspace/arm/lm3s811/TI_Stellaris/driverlib/pwm.c **** {
 9445              		.loc 1 500 0
 9446              		.cfi_startproc
 9447              		@ args = 0, pretend = 0, frame = 24
 9448              		@ frame_needed = 1, uses_anonymous_args = 0
 9449              		@ link register save eliminated.
 9450 0000 80B4     		push	{r7}
 9451              	.LCFI18:
 9452              		.cfi_def_cfa_offset 4
 9453 0002 87B0     		sub	sp, sp, #28
 9454              	.LCFI19:
 9455              		.cfi_def_cfa_offset 32
 9456 0004 00AF     		add	r7, sp, #0
 9457              		.cfi_offset 7, -4
 9458              	.LCFI20:
 9459              		.cfi_def_cfa_register 7
 9460 0006 7860     		str	r0, [r7, #4]
 9461 0008 3960     		str	r1, [r7, #0]
 501:/home/cuil/workspace/arm/lm3s811/TI_Stellaris/driverlib/pwm.c ****     unsigned long ulGenBase, ulReg, ulLoad;
 502:/home/cuil/workspace/arm/lm3s811/TI_Stellaris/driverlib/pwm.c **** 
 503:/home/cuil/workspace/arm/lm3s811/TI_Stellaris/driverlib/pwm.c ****     //
 504:/home/cuil/workspace/arm/lm3s811/TI_Stellaris/driverlib/pwm.c ****     // Check the arguments.
 505:/home/cuil/workspace/arm/lm3s811/TI_Stellaris/driverlib/pwm.c ****     //
 506:/home/cuil/workspace/arm/lm3s811/TI_Stellaris/driverlib/pwm.c ****     ASSERT((ulBase == PWM0_BASE) || (ulBase == PWM1_BASE));
 507:/home/cuil/workspace/arm/lm3s811/TI_Stellaris/driverlib/pwm.c ****     ASSERT(PWMOutValid(ulPWMOut));
 508:/home/cuil/workspace/arm/lm3s811/TI_Stellaris/driverlib/pwm.c **** 
 509:/home/cuil/workspace/arm/lm3s811/TI_Stellaris/driverlib/pwm.c ****     //
 510:/home/cuil/workspace/arm/lm3s811/TI_Stellaris/driverlib/pwm.c ****     // Compute the generator's base address.
 511:/home/cuil/workspace/arm/lm3s811/TI_Stellaris/driverlib/pwm.c ****     //
 512:/home/cuil/workspace/arm/lm3s811/TI_Stellaris/driverlib/pwm.c ****     ulGenBase = PWM_OUT_BADDR(ulBase, ulPWMOut);
 9462              		.loc 1 512 0
 9463 000a 3B68     		ldr	r3, [r7, #0]
 9464 000c 23F03F02 		bic	r2, r3, #63
 9465 0010 7B68     		ldr	r3, [r7, #4]
 9466 0012 D318     		adds	r3, r2, r3
 9467 0014 3B61     		str	r3, [r7, #16]
 513:/home/cuil/workspace/arm/lm3s811/TI_Stellaris/driverlib/pwm.c **** 
 514:/home/cuil/workspace/arm/lm3s811/TI_Stellaris/driverlib/pwm.c ****     //
 515:/home/cuil/workspace/arm/lm3s811/TI_Stellaris/driverlib/pwm.c ****     // Then compute the pulse width.  If mode is UpDown, set
 516:/home/cuil/workspace/arm/lm3s811/TI_Stellaris/driverlib/pwm.c ****     // width = (load - compare) * 2.  Otherwise, set width = load - compare.
 517:/home/cuil/workspace/arm/lm3s811/TI_Stellaris/driverlib/pwm.c ****     //
 518:/home/cuil/workspace/arm/lm3s811/TI_Stellaris/driverlib/pwm.c ****     ulLoad = HWREG(ulGenBase + PWM_O_X_LOAD);
 9468              		.loc 1 518 0
 9469 0016 3B69     		ldr	r3, [r7, #16]
 9470 0018 03F11003 		add	r3, r3, #16
 9471 001c 1B68     		ldr	r3, [r3, #0]
 9472 001e FB60     		str	r3, [r7, #12]
 519:/home/cuil/workspace/arm/lm3s811/TI_Stellaris/driverlib/pwm.c ****     if(PWM_IS_OUTPUT_ODD(ulPWMOut))
 9473              		.loc 1 519 0
 9474 0020 3B68     		ldr	r3, [r7, #0]
 9475 0022 03F00103 		and	r3, r3, #1
 9476 0026 DBB2     		uxtb	r3, r3
 9477 0028 002B     		cmp	r3, #0
 9478 002a 05D0     		beq	.L19
 520:/home/cuil/workspace/arm/lm3s811/TI_Stellaris/driverlib/pwm.c ****     {
 521:/home/cuil/workspace/arm/lm3s811/TI_Stellaris/driverlib/pwm.c ****         ulReg = HWREG(ulGenBase + PWM_O_X_CMPB);
 9479              		.loc 1 521 0
 9480 002c 3B69     		ldr	r3, [r7, #16]
 9481 002e 03F11C03 		add	r3, r3, #28
 9482 0032 1B68     		ldr	r3, [r3, #0]
 9483 0034 7B61     		str	r3, [r7, #20]
 9484 0036 04E0     		b	.L20
 9485              	.L19:
 522:/home/cuil/workspace/arm/lm3s811/TI_Stellaris/driverlib/pwm.c ****     }
 523:/home/cuil/workspace/arm/lm3s811/TI_Stellaris/driverlib/pwm.c ****     else
 524:/home/cuil/workspace/arm/lm3s811/TI_Stellaris/driverlib/pwm.c ****     {
 525:/home/cuil/workspace/arm/lm3s811/TI_Stellaris/driverlib/pwm.c ****         ulReg = HWREG(ulGenBase + PWM_O_X_CMPA);
 9486              		.loc 1 525 0
 9487 0038 3B69     		ldr	r3, [r7, #16]
 9488 003a 03F11803 		add	r3, r3, #24
 9489 003e 1B68     		ldr	r3, [r3, #0]
 9490 0040 7B61     		str	r3, [r7, #20]
 9491              	.L20:
 526:/home/cuil/workspace/arm/lm3s811/TI_Stellaris/driverlib/pwm.c ****     }
 527:/home/cuil/workspace/arm/lm3s811/TI_Stellaris/driverlib/pwm.c ****     ulReg = ulLoad - ulReg;
 9492              		.loc 1 527 0
 9493 0042 FA68     		ldr	r2, [r7, #12]
 9494 0044 7B69     		ldr	r3, [r7, #20]
 9495 0046 D31A     		subs	r3, r2, r3
 9496 0048 7B61     		str	r3, [r7, #20]
 528:/home/cuil/workspace/arm/lm3s811/TI_Stellaris/driverlib/pwm.c **** 
 529:/home/cuil/workspace/arm/lm3s811/TI_Stellaris/driverlib/pwm.c ****     //
 530:/home/cuil/workspace/arm/lm3s811/TI_Stellaris/driverlib/pwm.c ****     // If in up/down count mode, double the pulse width.
 531:/home/cuil/workspace/arm/lm3s811/TI_Stellaris/driverlib/pwm.c ****     //
 532:/home/cuil/workspace/arm/lm3s811/TI_Stellaris/driverlib/pwm.c ****     if(HWREG(ulGenBase + PWM_O_X_CTL) & PWM_X_CTL_MODE)
 9497              		.loc 1 532 0
 9498 004a 3B69     		ldr	r3, [r7, #16]
 9499 004c 1B68     		ldr	r3, [r3, #0]
 9500 004e 03F00203 		and	r3, r3, #2
 9501 0052 002B     		cmp	r3, #0
 9502 0054 03D0     		beq	.L21
 533:/home/cuil/workspace/arm/lm3s811/TI_Stellaris/driverlib/pwm.c ****     {
 534:/home/cuil/workspace/arm/lm3s811/TI_Stellaris/driverlib/pwm.c ****         ulReg = ulReg * 2;
 9503              		.loc 1 534 0
 9504 0056 7B69     		ldr	r3, [r7, #20]
 9505 0058 4FEA4303 		lsl	r3, r3, #1
 9506 005c 7B61     		str	r3, [r7, #20]
 9507              	.L21:
 535:/home/cuil/workspace/arm/lm3s811/TI_Stellaris/driverlib/pwm.c ****     }
 536:/home/cuil/workspace/arm/lm3s811/TI_Stellaris/driverlib/pwm.c **** 
 537:/home/cuil/workspace/arm/lm3s811/TI_Stellaris/driverlib/pwm.c ****     //
 538:/home/cuil/workspace/arm/lm3s811/TI_Stellaris/driverlib/pwm.c ****     // Return the pulse width.
 539:/home/cuil/workspace/arm/lm3s811/TI_Stellaris/driverlib/pwm.c ****     //
 540:/home/cuil/workspace/arm/lm3s811/TI_Stellaris/driverlib/pwm.c ****     return(ulReg);
 9508              		.loc 1 540 0
 9509 005e 7B69     		ldr	r3, [r7, #20]
 541:/home/cuil/workspace/arm/lm3s811/TI_Stellaris/driverlib/pwm.c **** }
 9510              		.loc 1 541 0
 9511 0060 1846     		mov	r0, r3
 9512 0062 07F11C07 		add	r7, r7, #28
 9513 0066 BD46     		mov	sp, r7
 9514 0068 80BC     		pop	{r7}
 9515 006a 7047     		bx	lr
 9516              		.cfi_endproc
 9517              	.LFE6:
 9519              		.section	.text.PWMDeadBandEnable,"ax",%progbits
 9520              		.align	2
 9521              		.global	PWMDeadBandEnable
 9522              		.thumb
 9523              		.thumb_func
 9525              	PWMDeadBandEnable:
 9526              	.LFB7:
 542:/home/cuil/workspace/arm/lm3s811/TI_Stellaris/driverlib/pwm.c **** 
 543:/home/cuil/workspace/arm/lm3s811/TI_Stellaris/driverlib/pwm.c **** //*****************************************************************************
 544:/home/cuil/workspace/arm/lm3s811/TI_Stellaris/driverlib/pwm.c **** //
 545:/home/cuil/workspace/arm/lm3s811/TI_Stellaris/driverlib/pwm.c **** //! Enables the PWM dead band output and sets the dead band delays.
 546:/home/cuil/workspace/arm/lm3s811/TI_Stellaris/driverlib/pwm.c **** //!
 547:/home/cuil/workspace/arm/lm3s811/TI_Stellaris/driverlib/pwm.c **** //! \param ulBase is the base address of the PWM module.
 548:/home/cuil/workspace/arm/lm3s811/TI_Stellaris/driverlib/pwm.c **** //! \param ulGen is the PWM generator to modify.  This parameter must be one 
 549:/home/cuil/workspace/arm/lm3s811/TI_Stellaris/driverlib/pwm.c **** //! of \b PWM_GEN_0, \b PWM_GEN_1, \b PWM_GEN_2, or \b PWM_GEN_3.
 550:/home/cuil/workspace/arm/lm3s811/TI_Stellaris/driverlib/pwm.c **** //! \param usRise specifies the width of delay from the rising edge.
 551:/home/cuil/workspace/arm/lm3s811/TI_Stellaris/driverlib/pwm.c **** //! \param usFall specifies the width of delay from the falling edge.
 552:/home/cuil/workspace/arm/lm3s811/TI_Stellaris/driverlib/pwm.c **** //!
 553:/home/cuil/workspace/arm/lm3s811/TI_Stellaris/driverlib/pwm.c **** //! This function sets the dead bands for the specified PWM generator,
 554:/home/cuil/workspace/arm/lm3s811/TI_Stellaris/driverlib/pwm.c **** //! where the dead bands are defined as the number of \b PWM clock ticks
 555:/home/cuil/workspace/arm/lm3s811/TI_Stellaris/driverlib/pwm.c **** //! from the rising or falling edge of the generator's \b OutA signal.
 556:/home/cuil/workspace/arm/lm3s811/TI_Stellaris/driverlib/pwm.c **** //! Note that this function causes the coupling of \b OutB to \b OutA.
 557:/home/cuil/workspace/arm/lm3s811/TI_Stellaris/driverlib/pwm.c **** //!
 558:/home/cuil/workspace/arm/lm3s811/TI_Stellaris/driverlib/pwm.c **** //! \return None.
 559:/home/cuil/workspace/arm/lm3s811/TI_Stellaris/driverlib/pwm.c **** //
 560:/home/cuil/workspace/arm/lm3s811/TI_Stellaris/driverlib/pwm.c **** //****************************************************************************
 561:/home/cuil/workspace/arm/lm3s811/TI_Stellaris/driverlib/pwm.c **** void
 562:/home/cuil/workspace/arm/lm3s811/TI_Stellaris/driverlib/pwm.c **** PWMDeadBandEnable(unsigned long ulBase, unsigned long ulGen,
 563:/home/cuil/workspace/arm/lm3s811/TI_Stellaris/driverlib/pwm.c ****                   unsigned short usRise, unsigned short usFall)
 564:/home/cuil/workspace/arm/lm3s811/TI_Stellaris/driverlib/pwm.c **** {
 9527              		.loc 1 564 0
 9528              		.cfi_startproc
 9529              		@ args = 0, pretend = 0, frame = 16
 9530              		@ frame_needed = 1, uses_anonymous_args = 0
 9531              		@ link register save eliminated.
 9532 0000 80B4     		push	{r7}
 9533              	.LCFI21:
 9534              		.cfi_def_cfa_offset 4
 9535 0002 85B0     		sub	sp, sp, #20
 9536              	.LCFI22:
 9537              		.cfi_def_cfa_offset 24
 9538 0004 00AF     		add	r7, sp, #0
 9539              		.cfi_offset 7, -4
 9540              	.LCFI23:
 9541              		.cfi_def_cfa_register 7
 9542 0006 F860     		str	r0, [r7, #12]
 9543 0008 B960     		str	r1, [r7, #8]
 9544 000a FA80     		strh	r2, [r7, #6]	@ movhi
 9545 000c BB80     		strh	r3, [r7, #4]	@ movhi
 565:/home/cuil/workspace/arm/lm3s811/TI_Stellaris/driverlib/pwm.c ****     //
 566:/home/cuil/workspace/arm/lm3s811/TI_Stellaris/driverlib/pwm.c ****     // Check the arguments.
 567:/home/cuil/workspace/arm/lm3s811/TI_Stellaris/driverlib/pwm.c ****     //
 568:/home/cuil/workspace/arm/lm3s811/TI_Stellaris/driverlib/pwm.c ****     ASSERT((ulBase == PWM0_BASE) || (ulBase == PWM1_BASE));
 569:/home/cuil/workspace/arm/lm3s811/TI_Stellaris/driverlib/pwm.c ****     ASSERT(PWMGenValid(ulGen));
 570:/home/cuil/workspace/arm/lm3s811/TI_Stellaris/driverlib/pwm.c ****     ASSERT(usRise < 4096);
 571:/home/cuil/workspace/arm/lm3s811/TI_Stellaris/driverlib/pwm.c ****     ASSERT(usFall < 4096);
 572:/home/cuil/workspace/arm/lm3s811/TI_Stellaris/driverlib/pwm.c **** 
 573:/home/cuil/workspace/arm/lm3s811/TI_Stellaris/driverlib/pwm.c ****     //
 574:/home/cuil/workspace/arm/lm3s811/TI_Stellaris/driverlib/pwm.c ****     // Compute the generator's base address.
 575:/home/cuil/workspace/arm/lm3s811/TI_Stellaris/driverlib/pwm.c ****     //
 576:/home/cuil/workspace/arm/lm3s811/TI_Stellaris/driverlib/pwm.c ****     ulGen = PWM_GEN_BADDR(ulBase, ulGen);
 9546              		.loc 1 576 0
 9547 000e BA68     		ldr	r2, [r7, #8]
 9548 0010 FB68     		ldr	r3, [r7, #12]
 9549 0012 D318     		adds	r3, r2, r3
 9550 0014 BB60     		str	r3, [r7, #8]
 577:/home/cuil/workspace/arm/lm3s811/TI_Stellaris/driverlib/pwm.c **** 
 578:/home/cuil/workspace/arm/lm3s811/TI_Stellaris/driverlib/pwm.c ****     //
 579:/home/cuil/workspace/arm/lm3s811/TI_Stellaris/driverlib/pwm.c ****     // Write the dead band delay values.
 580:/home/cuil/workspace/arm/lm3s811/TI_Stellaris/driverlib/pwm.c ****     //
 581:/home/cuil/workspace/arm/lm3s811/TI_Stellaris/driverlib/pwm.c ****     HWREG(ulGen + PWM_O_X_DBRISE) = usRise;
 9551              		.loc 1 581 0
 9552 0016 BB68     		ldr	r3, [r7, #8]
 9553 0018 03F12C03 		add	r3, r3, #44
 9554 001c FA88     		ldrh	r2, [r7, #6]
 9555 001e 1A60     		str	r2, [r3, #0]
 582:/home/cuil/workspace/arm/lm3s811/TI_Stellaris/driverlib/pwm.c ****     HWREG(ulGen + PWM_O_X_DBFALL) = usFall;
 9556              		.loc 1 582 0
 9557 0020 BB68     		ldr	r3, [r7, #8]
 9558 0022 03F13003 		add	r3, r3, #48
 9559 0026 BA88     		ldrh	r2, [r7, #4]
 9560 0028 1A60     		str	r2, [r3, #0]
 583:/home/cuil/workspace/arm/lm3s811/TI_Stellaris/driverlib/pwm.c **** 
 584:/home/cuil/workspace/arm/lm3s811/TI_Stellaris/driverlib/pwm.c ****     //
 585:/home/cuil/workspace/arm/lm3s811/TI_Stellaris/driverlib/pwm.c ****     // Enable the deadband functionality.
 586:/home/cuil/workspace/arm/lm3s811/TI_Stellaris/driverlib/pwm.c ****     //
 587:/home/cuil/workspace/arm/lm3s811/TI_Stellaris/driverlib/pwm.c ****     HWREG(ulGen + PWM_O_X_DBCTL) |= PWM_X_DBCTL_ENABLE;
 9561              		.loc 1 587 0
 9562 002a BB68     		ldr	r3, [r7, #8]
 9563 002c 03F12803 		add	r3, r3, #40
 9564 0030 BA68     		ldr	r2, [r7, #8]
 9565 0032 02F12802 		add	r2, r2, #40
 9566 0036 1268     		ldr	r2, [r2, #0]
 9567 0038 42F00102 		orr	r2, r2, #1
 9568 003c 1A60     		str	r2, [r3, #0]
 588:/home/cuil/workspace/arm/lm3s811/TI_Stellaris/driverlib/pwm.c **** }
 9569              		.loc 1 588 0
 9570 003e 07F11407 		add	r7, r7, #20
 9571 0042 BD46     		mov	sp, r7
 9572 0044 80BC     		pop	{r7}
 9573 0046 7047     		bx	lr
 9574              		.cfi_endproc
 9575              	.LFE7:
 9577              		.section	.text.PWMDeadBandDisable,"ax",%progbits
 9578              		.align	2
 9579              		.global	PWMDeadBandDisable
 9580              		.thumb
 9581              		.thumb_func
 9583              	PWMDeadBandDisable:
 9584              	.LFB8:
 589:/home/cuil/workspace/arm/lm3s811/TI_Stellaris/driverlib/pwm.c **** 
 590:/home/cuil/workspace/arm/lm3s811/TI_Stellaris/driverlib/pwm.c **** //*****************************************************************************
 591:/home/cuil/workspace/arm/lm3s811/TI_Stellaris/driverlib/pwm.c **** //
 592:/home/cuil/workspace/arm/lm3s811/TI_Stellaris/driverlib/pwm.c **** //! Disables the PWM dead band output.
 593:/home/cuil/workspace/arm/lm3s811/TI_Stellaris/driverlib/pwm.c **** //!
 594:/home/cuil/workspace/arm/lm3s811/TI_Stellaris/driverlib/pwm.c **** //! \param ulBase is the base address of the PWM module.
 595:/home/cuil/workspace/arm/lm3s811/TI_Stellaris/driverlib/pwm.c **** //! \param ulGen is the PWM generator to modify. This parameter must be one of
 596:/home/cuil/workspace/arm/lm3s811/TI_Stellaris/driverlib/pwm.c **** //! \b PWM_GEN_0, \b PWM_GEN_1, \b PWM_GEN_2, or \b PWM_GEN_3.
 597:/home/cuil/workspace/arm/lm3s811/TI_Stellaris/driverlib/pwm.c **** //!
 598:/home/cuil/workspace/arm/lm3s811/TI_Stellaris/driverlib/pwm.c **** //! This function disables the dead band mode for the specified PWM generator.
 599:/home/cuil/workspace/arm/lm3s811/TI_Stellaris/driverlib/pwm.c **** //! Doing so decouples the \b OutA and \b OutB signals.
 600:/home/cuil/workspace/arm/lm3s811/TI_Stellaris/driverlib/pwm.c **** //!
 601:/home/cuil/workspace/arm/lm3s811/TI_Stellaris/driverlib/pwm.c **** //! \return None.
 602:/home/cuil/workspace/arm/lm3s811/TI_Stellaris/driverlib/pwm.c **** //
 603:/home/cuil/workspace/arm/lm3s811/TI_Stellaris/driverlib/pwm.c **** //*****************************************************************************
 604:/home/cuil/workspace/arm/lm3s811/TI_Stellaris/driverlib/pwm.c **** void
 605:/home/cuil/workspace/arm/lm3s811/TI_Stellaris/driverlib/pwm.c **** PWMDeadBandDisable(unsigned long ulBase, unsigned long ulGen)
 606:/home/cuil/workspace/arm/lm3s811/TI_Stellaris/driverlib/pwm.c **** {
 9585              		.loc 1 606 0
 9586              		.cfi_startproc
 9587              		@ args = 0, pretend = 0, frame = 8
 9588              		@ frame_needed = 1, uses_anonymous_args = 0
 9589              		@ link register save eliminated.
 9590 0000 80B4     		push	{r7}
 9591              	.LCFI24:
 9592              		.cfi_def_cfa_offset 4
 9593 0002 83B0     		sub	sp, sp, #12
 9594              	.LCFI25:
 9595              		.cfi_def_cfa_offset 16
 9596 0004 00AF     		add	r7, sp, #0
 9597              		.cfi_offset 7, -4
 9598              	.LCFI26:
 9599              		.cfi_def_cfa_register 7
 9600 0006 7860     		str	r0, [r7, #4]
 9601 0008 3960     		str	r1, [r7, #0]
 607:/home/cuil/workspace/arm/lm3s811/TI_Stellaris/driverlib/pwm.c ****     //
 608:/home/cuil/workspace/arm/lm3s811/TI_Stellaris/driverlib/pwm.c ****     // Check the arguments.
 609:/home/cuil/workspace/arm/lm3s811/TI_Stellaris/driverlib/pwm.c ****     //
 610:/home/cuil/workspace/arm/lm3s811/TI_Stellaris/driverlib/pwm.c ****     ASSERT((ulBase == PWM0_BASE) || (ulBase == PWM1_BASE));
 611:/home/cuil/workspace/arm/lm3s811/TI_Stellaris/driverlib/pwm.c ****     ASSERT(PWMGenValid(ulGen));
 612:/home/cuil/workspace/arm/lm3s811/TI_Stellaris/driverlib/pwm.c **** 
 613:/home/cuil/workspace/arm/lm3s811/TI_Stellaris/driverlib/pwm.c ****     //
 614:/home/cuil/workspace/arm/lm3s811/TI_Stellaris/driverlib/pwm.c ****     // Disable the deadband functionality.
 615:/home/cuil/workspace/arm/lm3s811/TI_Stellaris/driverlib/pwm.c ****     //
 616:/home/cuil/workspace/arm/lm3s811/TI_Stellaris/driverlib/pwm.c ****     HWREG(PWM_GEN_BADDR(ulBase, ulGen) + PWM_O_X_DBCTL) &=
 9602              		.loc 1 616 0
 9603 000a 7A68     		ldr	r2, [r7, #4]
 9604 000c 3B68     		ldr	r3, [r7, #0]
 9605 000e D318     		adds	r3, r2, r3
 9606 0010 03F12803 		add	r3, r3, #40
 9607 0014 7968     		ldr	r1, [r7, #4]
 9608 0016 3A68     		ldr	r2, [r7, #0]
 9609 0018 8A18     		adds	r2, r1, r2
 9610 001a 02F12802 		add	r2, r2, #40
 9611 001e 1268     		ldr	r2, [r2, #0]
 9612 0020 22F00102 		bic	r2, r2, #1
 9613 0024 1A60     		str	r2, [r3, #0]
 617:/home/cuil/workspace/arm/lm3s811/TI_Stellaris/driverlib/pwm.c ****         ~(PWM_X_DBCTL_ENABLE);
 618:/home/cuil/workspace/arm/lm3s811/TI_Stellaris/driverlib/pwm.c **** }
 9614              		.loc 1 618 0
 9615 0026 07F10C07 		add	r7, r7, #12
 9616 002a BD46     		mov	sp, r7
 9617 002c 80BC     		pop	{r7}
 9618 002e 7047     		bx	lr
 9619              		.cfi_endproc
 9620              	.LFE8:
 9622              		.section	.text.PWMSyncUpdate,"ax",%progbits
 9623              		.align	2
 9624              		.global	PWMSyncUpdate
 9625              		.thumb
 9626              		.thumb_func
 9628              	PWMSyncUpdate:
 9629              	.LFB9:
 619:/home/cuil/workspace/arm/lm3s811/TI_Stellaris/driverlib/pwm.c **** 
 620:/home/cuil/workspace/arm/lm3s811/TI_Stellaris/driverlib/pwm.c **** //*****************************************************************************
 621:/home/cuil/workspace/arm/lm3s811/TI_Stellaris/driverlib/pwm.c **** //
 622:/home/cuil/workspace/arm/lm3s811/TI_Stellaris/driverlib/pwm.c **** //! Synchronizes all pending updates.
 623:/home/cuil/workspace/arm/lm3s811/TI_Stellaris/driverlib/pwm.c **** //!
 624:/home/cuil/workspace/arm/lm3s811/TI_Stellaris/driverlib/pwm.c **** //! \param ulBase is the base address of the PWM module.
 625:/home/cuil/workspace/arm/lm3s811/TI_Stellaris/driverlib/pwm.c **** //! \param ulGenBits are the PWM generator blocks to be updated.  This
 626:/home/cuil/workspace/arm/lm3s811/TI_Stellaris/driverlib/pwm.c **** //! parameter must be the logical OR of any of \b PWM_GEN_0_BIT, 
 627:/home/cuil/workspace/arm/lm3s811/TI_Stellaris/driverlib/pwm.c **** //! \b PWM_GEN_1_BIT, \b PWM_GEN_2_BIT, or \b PWM_GEN_3_BIT.
 628:/home/cuil/workspace/arm/lm3s811/TI_Stellaris/driverlib/pwm.c **** //!
 629:/home/cuil/workspace/arm/lm3s811/TI_Stellaris/driverlib/pwm.c **** //! For the selected PWM generators, this function causes all queued updates to
 630:/home/cuil/workspace/arm/lm3s811/TI_Stellaris/driverlib/pwm.c **** //! the period or pulse width to be applied the next time the corresponding
 631:/home/cuil/workspace/arm/lm3s811/TI_Stellaris/driverlib/pwm.c **** //! counter becomes zero.
 632:/home/cuil/workspace/arm/lm3s811/TI_Stellaris/driverlib/pwm.c **** //!
 633:/home/cuil/workspace/arm/lm3s811/TI_Stellaris/driverlib/pwm.c **** //! \return None.
 634:/home/cuil/workspace/arm/lm3s811/TI_Stellaris/driverlib/pwm.c **** //
 635:/home/cuil/workspace/arm/lm3s811/TI_Stellaris/driverlib/pwm.c **** //*****************************************************************************
 636:/home/cuil/workspace/arm/lm3s811/TI_Stellaris/driverlib/pwm.c **** void
 637:/home/cuil/workspace/arm/lm3s811/TI_Stellaris/driverlib/pwm.c **** PWMSyncUpdate(unsigned long ulBase, unsigned long ulGenBits)
 638:/home/cuil/workspace/arm/lm3s811/TI_Stellaris/driverlib/pwm.c **** {
 9630              		.loc 1 638 0
 9631              		.cfi_startproc
 9632              		@ args = 0, pretend = 0, frame = 8
 9633              		@ frame_needed = 1, uses_anonymous_args = 0
 9634              		@ link register save eliminated.
 9635 0000 80B4     		push	{r7}
 9636              	.LCFI27:
 9637              		.cfi_def_cfa_offset 4
 9638 0002 83B0     		sub	sp, sp, #12
 9639              	.LCFI28:
 9640              		.cfi_def_cfa_offset 16
 9641 0004 00AF     		add	r7, sp, #0
 9642              		.cfi_offset 7, -4
 9643              	.LCFI29:
 9644              		.cfi_def_cfa_register 7
 9645 0006 7860     		str	r0, [r7, #4]
 9646 0008 3960     		str	r1, [r7, #0]
 639:/home/cuil/workspace/arm/lm3s811/TI_Stellaris/driverlib/pwm.c ****     //
 640:/home/cuil/workspace/arm/lm3s811/TI_Stellaris/driverlib/pwm.c ****     // Check the arguments.
 641:/home/cuil/workspace/arm/lm3s811/TI_Stellaris/driverlib/pwm.c ****     //
 642:/home/cuil/workspace/arm/lm3s811/TI_Stellaris/driverlib/pwm.c ****     ASSERT((ulBase == PWM0_BASE) || (ulBase == PWM1_BASE));
 643:/home/cuil/workspace/arm/lm3s811/TI_Stellaris/driverlib/pwm.c ****     ASSERT(!(ulGenBits & ~(PWM_GEN_0_BIT | PWM_GEN_1_BIT | PWM_GEN_2_BIT |
 644:/home/cuil/workspace/arm/lm3s811/TI_Stellaris/driverlib/pwm.c ****                            PWM_GEN_3_BIT)));
 645:/home/cuil/workspace/arm/lm3s811/TI_Stellaris/driverlib/pwm.c **** 
 646:/home/cuil/workspace/arm/lm3s811/TI_Stellaris/driverlib/pwm.c ****     //
 647:/home/cuil/workspace/arm/lm3s811/TI_Stellaris/driverlib/pwm.c ****     // Synchronize pending PWM register changes.
 648:/home/cuil/workspace/arm/lm3s811/TI_Stellaris/driverlib/pwm.c ****     //
 649:/home/cuil/workspace/arm/lm3s811/TI_Stellaris/driverlib/pwm.c ****     HWREG(ulBase + PWM_O_CTL) = ulGenBits;
 9647              		.loc 1 649 0
 9648 000a 7B68     		ldr	r3, [r7, #4]
 9649 000c 3A68     		ldr	r2, [r7, #0]
 9650 000e 1A60     		str	r2, [r3, #0]
 650:/home/cuil/workspace/arm/lm3s811/TI_Stellaris/driverlib/pwm.c **** }
 9651              		.loc 1 650 0
 9652 0010 07F10C07 		add	r7, r7, #12
 9653 0014 BD46     		mov	sp, r7
 9654 0016 80BC     		pop	{r7}
 9655 0018 7047     		bx	lr
 9656              		.cfi_endproc
 9657              	.LFE9:
 9659 001a 00BF     		.section	.text.PWMSyncTimeBase,"ax",%progbits
 9660              		.align	2
 9661              		.global	PWMSyncTimeBase
 9662              		.thumb
 9663              		.thumb_func
 9665              	PWMSyncTimeBase:
 9666              	.LFB10:
 651:/home/cuil/workspace/arm/lm3s811/TI_Stellaris/driverlib/pwm.c **** 
 652:/home/cuil/workspace/arm/lm3s811/TI_Stellaris/driverlib/pwm.c **** //*****************************************************************************
 653:/home/cuil/workspace/arm/lm3s811/TI_Stellaris/driverlib/pwm.c **** //
 654:/home/cuil/workspace/arm/lm3s811/TI_Stellaris/driverlib/pwm.c **** //! Synchronizes the counters in one or multiple PWM generator blocks.
 655:/home/cuil/workspace/arm/lm3s811/TI_Stellaris/driverlib/pwm.c **** //!
 656:/home/cuil/workspace/arm/lm3s811/TI_Stellaris/driverlib/pwm.c **** //! \param ulBase is the base address of the PWM module.
 657:/home/cuil/workspace/arm/lm3s811/TI_Stellaris/driverlib/pwm.c **** //! \param ulGenBits are the PWM generator blocks to be synchronized.  This 
 658:/home/cuil/workspace/arm/lm3s811/TI_Stellaris/driverlib/pwm.c **** //! parameter must be the logical OR of any of \b PWM_GEN_0_BIT, 
 659:/home/cuil/workspace/arm/lm3s811/TI_Stellaris/driverlib/pwm.c **** //! \b PWM_GEN_1_BIT, \b PWM_GEN_2_BIT, or \b PWM_GEN_3_BIT.
 660:/home/cuil/workspace/arm/lm3s811/TI_Stellaris/driverlib/pwm.c **** //!
 661:/home/cuil/workspace/arm/lm3s811/TI_Stellaris/driverlib/pwm.c **** //! For the selected PWM module, this function synchronizes the time base
 662:/home/cuil/workspace/arm/lm3s811/TI_Stellaris/driverlib/pwm.c **** //! of the generator blocks by causing the specified generator counters to be
 663:/home/cuil/workspace/arm/lm3s811/TI_Stellaris/driverlib/pwm.c **** //! reset to zero.
 664:/home/cuil/workspace/arm/lm3s811/TI_Stellaris/driverlib/pwm.c **** //!
 665:/home/cuil/workspace/arm/lm3s811/TI_Stellaris/driverlib/pwm.c **** //! \return None.
 666:/home/cuil/workspace/arm/lm3s811/TI_Stellaris/driverlib/pwm.c **** //
 667:/home/cuil/workspace/arm/lm3s811/TI_Stellaris/driverlib/pwm.c **** //*****************************************************************************
 668:/home/cuil/workspace/arm/lm3s811/TI_Stellaris/driverlib/pwm.c **** void
 669:/home/cuil/workspace/arm/lm3s811/TI_Stellaris/driverlib/pwm.c **** PWMSyncTimeBase(unsigned long ulBase, unsigned long ulGenBits)
 670:/home/cuil/workspace/arm/lm3s811/TI_Stellaris/driverlib/pwm.c **** {
 9667              		.loc 1 670 0
 9668              		.cfi_startproc
 9669              		@ args = 0, pretend = 0, frame = 8
 9670              		@ frame_needed = 1, uses_anonymous_args = 0
 9671              		@ link register save eliminated.
 9672 0000 80B4     		push	{r7}
 9673              	.LCFI30:
 9674              		.cfi_def_cfa_offset 4
 9675 0002 83B0     		sub	sp, sp, #12
 9676              	.LCFI31:
 9677              		.cfi_def_cfa_offset 16
 9678 0004 00AF     		add	r7, sp, #0
 9679              		.cfi_offset 7, -4
 9680              	.LCFI32:
 9681              		.cfi_def_cfa_register 7
 9682 0006 7860     		str	r0, [r7, #4]
 9683 0008 3960     		str	r1, [r7, #0]
 671:/home/cuil/workspace/arm/lm3s811/TI_Stellaris/driverlib/pwm.c ****     //
 672:/home/cuil/workspace/arm/lm3s811/TI_Stellaris/driverlib/pwm.c ****     // Check the arguments.
 673:/home/cuil/workspace/arm/lm3s811/TI_Stellaris/driverlib/pwm.c ****     //
 674:/home/cuil/workspace/arm/lm3s811/TI_Stellaris/driverlib/pwm.c ****     ASSERT((ulBase == PWM0_BASE) || (ulBase == PWM1_BASE));
 675:/home/cuil/workspace/arm/lm3s811/TI_Stellaris/driverlib/pwm.c ****     ASSERT(!(ulGenBits & ~(PWM_GEN_0_BIT | PWM_GEN_1_BIT | PWM_GEN_2_BIT |
 676:/home/cuil/workspace/arm/lm3s811/TI_Stellaris/driverlib/pwm.c ****                            PWM_GEN_3_BIT)));
 677:/home/cuil/workspace/arm/lm3s811/TI_Stellaris/driverlib/pwm.c **** 
 678:/home/cuil/workspace/arm/lm3s811/TI_Stellaris/driverlib/pwm.c ****     //
 679:/home/cuil/workspace/arm/lm3s811/TI_Stellaris/driverlib/pwm.c ****     // Synchronize the counters in the specified generators by writing to the
 680:/home/cuil/workspace/arm/lm3s811/TI_Stellaris/driverlib/pwm.c ****     // module's synchronization register.
 681:/home/cuil/workspace/arm/lm3s811/TI_Stellaris/driverlib/pwm.c ****     //
 682:/home/cuil/workspace/arm/lm3s811/TI_Stellaris/driverlib/pwm.c ****     HWREG(ulBase + PWM_O_SYNC) = ulGenBits;
 9684              		.loc 1 682 0
 9685 000a 7B68     		ldr	r3, [r7, #4]
 9686 000c 03F10403 		add	r3, r3, #4
 9687 0010 3A68     		ldr	r2, [r7, #0]
 9688 0012 1A60     		str	r2, [r3, #0]
 683:/home/cuil/workspace/arm/lm3s811/TI_Stellaris/driverlib/pwm.c **** }
 9689              		.loc 1 683 0
 9690 0014 07F10C07 		add	r7, r7, #12
 9691 0018 BD46     		mov	sp, r7
 9692 001a 80BC     		pop	{r7}
 9693 001c 7047     		bx	lr
 9694              		.cfi_endproc
 9695              	.LFE10:
 9697 001e 00BF     		.section	.text.PWMOutputState,"ax",%progbits
 9698              		.align	2
 9699              		.global	PWMOutputState
 9700              		.thumb
 9701              		.thumb_func
 9703              	PWMOutputState:
 9704              	.LFB11:
 684:/home/cuil/workspace/arm/lm3s811/TI_Stellaris/driverlib/pwm.c **** 
 685:/home/cuil/workspace/arm/lm3s811/TI_Stellaris/driverlib/pwm.c **** //*****************************************************************************
 686:/home/cuil/workspace/arm/lm3s811/TI_Stellaris/driverlib/pwm.c **** //
 687:/home/cuil/workspace/arm/lm3s811/TI_Stellaris/driverlib/pwm.c **** //! Enables or disables PWM outputs.
 688:/home/cuil/workspace/arm/lm3s811/TI_Stellaris/driverlib/pwm.c **** //!
 689:/home/cuil/workspace/arm/lm3s811/TI_Stellaris/driverlib/pwm.c **** //! \param ulBase is the base address of the PWM module.
 690:/home/cuil/workspace/arm/lm3s811/TI_Stellaris/driverlib/pwm.c **** //! \param ulPWMOutBits are the PWM outputs to be modified.  This parameter 
 691:/home/cuil/workspace/arm/lm3s811/TI_Stellaris/driverlib/pwm.c **** //! must be the logical OR of any of \b PWM_OUT_0_BIT, \b PWM_OUT_1_BIT, 
 692:/home/cuil/workspace/arm/lm3s811/TI_Stellaris/driverlib/pwm.c **** //! \b PWM_OUT_2_BIT, \b PWM_OUT_3_BIT, \b PWM_OUT_4_BIT, \b PWM_OUT_5_BIT, 
 693:/home/cuil/workspace/arm/lm3s811/TI_Stellaris/driverlib/pwm.c **** //! \b PWM_OUT_6_BIT, or \b PWM_OUT_7_BIT.
 694:/home/cuil/workspace/arm/lm3s811/TI_Stellaris/driverlib/pwm.c **** //! \param bEnable determines if the signal is enabled or disabled.
 695:/home/cuil/workspace/arm/lm3s811/TI_Stellaris/driverlib/pwm.c **** //!
 696:/home/cuil/workspace/arm/lm3s811/TI_Stellaris/driverlib/pwm.c **** //! This function enables or disables the selected PWM outputs.  The
 697:/home/cuil/workspace/arm/lm3s811/TI_Stellaris/driverlib/pwm.c **** //! outputs are selected using the parameter \e ulPWMOutBits.  The parameter
 698:/home/cuil/workspace/arm/lm3s811/TI_Stellaris/driverlib/pwm.c **** //! \e bEnable determines the state of the selected outputs.  If \e bEnable is
 699:/home/cuil/workspace/arm/lm3s811/TI_Stellaris/driverlib/pwm.c **** //! \b true, then the selected PWM outputs are enabled, or placed in the active
 700:/home/cuil/workspace/arm/lm3s811/TI_Stellaris/driverlib/pwm.c **** //! state.  If \e bEnable is \b false, then the selected outputs are disabled
 701:/home/cuil/workspace/arm/lm3s811/TI_Stellaris/driverlib/pwm.c **** //! or placed in the inactive state.
 702:/home/cuil/workspace/arm/lm3s811/TI_Stellaris/driverlib/pwm.c **** //!
 703:/home/cuil/workspace/arm/lm3s811/TI_Stellaris/driverlib/pwm.c **** //! \return None.
 704:/home/cuil/workspace/arm/lm3s811/TI_Stellaris/driverlib/pwm.c **** //
 705:/home/cuil/workspace/arm/lm3s811/TI_Stellaris/driverlib/pwm.c **** //*****************************************************************************
 706:/home/cuil/workspace/arm/lm3s811/TI_Stellaris/driverlib/pwm.c **** void
 707:/home/cuil/workspace/arm/lm3s811/TI_Stellaris/driverlib/pwm.c **** PWMOutputState(unsigned long ulBase, unsigned long ulPWMOutBits,
 708:/home/cuil/workspace/arm/lm3s811/TI_Stellaris/driverlib/pwm.c ****                tBoolean bEnable)
 709:/home/cuil/workspace/arm/lm3s811/TI_Stellaris/driverlib/pwm.c **** {
 9705              		.loc 1 709 0
 9706              		.cfi_startproc
 9707              		@ args = 0, pretend = 0, frame = 16
 9708              		@ frame_needed = 1, uses_anonymous_args = 0
 9709              		@ link register save eliminated.
 9710 0000 80B4     		push	{r7}
 9711              	.LCFI33:
 9712              		.cfi_def_cfa_offset 4
 9713 0002 85B0     		sub	sp, sp, #20
 9714              	.LCFI34:
 9715              		.cfi_def_cfa_offset 24
 9716 0004 00AF     		add	r7, sp, #0
 9717              		.cfi_offset 7, -4
 9718              	.LCFI35:
 9719              		.cfi_def_cfa_register 7
 9720 0006 F860     		str	r0, [r7, #12]
 9721 0008 B960     		str	r1, [r7, #8]
 9722 000a 1346     		mov	r3, r2
 9723 000c FB71     		strb	r3, [r7, #7]
 710:/home/cuil/workspace/arm/lm3s811/TI_Stellaris/driverlib/pwm.c ****     //
 711:/home/cuil/workspace/arm/lm3s811/TI_Stellaris/driverlib/pwm.c ****     // Check the arguments.
 712:/home/cuil/workspace/arm/lm3s811/TI_Stellaris/driverlib/pwm.c ****     //
 713:/home/cuil/workspace/arm/lm3s811/TI_Stellaris/driverlib/pwm.c ****     ASSERT((ulBase == PWM0_BASE) || (ulBase == PWM1_BASE));
 714:/home/cuil/workspace/arm/lm3s811/TI_Stellaris/driverlib/pwm.c ****     ASSERT(!(ulPWMOutBits & ~(PWM_OUT_0_BIT | PWM_OUT_1_BIT | PWM_OUT_2_BIT |
 715:/home/cuil/workspace/arm/lm3s811/TI_Stellaris/driverlib/pwm.c ****                               PWM_OUT_3_BIT | PWM_OUT_4_BIT | PWM_OUT_5_BIT |
 716:/home/cuil/workspace/arm/lm3s811/TI_Stellaris/driverlib/pwm.c ****                               PWM_OUT_6_BIT | PWM_OUT_7_BIT)));
 717:/home/cuil/workspace/arm/lm3s811/TI_Stellaris/driverlib/pwm.c **** 
 718:/home/cuil/workspace/arm/lm3s811/TI_Stellaris/driverlib/pwm.c ****     //
 719:/home/cuil/workspace/arm/lm3s811/TI_Stellaris/driverlib/pwm.c ****     // Read the module's ENABLE output control register and set or clear the
 720:/home/cuil/workspace/arm/lm3s811/TI_Stellaris/driverlib/pwm.c ****     // requested bits.
 721:/home/cuil/workspace/arm/lm3s811/TI_Stellaris/driverlib/pwm.c ****     //
 722:/home/cuil/workspace/arm/lm3s811/TI_Stellaris/driverlib/pwm.c ****     if(bEnable == true)
 9724              		.loc 1 722 0
 9725 000e FB79     		ldrb	r3, [r7, #7]	@ zero_extendqisi2
 9726 0010 012B     		cmp	r3, #1
 9727 0012 0BD1     		bne	.L27
 723:/home/cuil/workspace/arm/lm3s811/TI_Stellaris/driverlib/pwm.c ****     {
 724:/home/cuil/workspace/arm/lm3s811/TI_Stellaris/driverlib/pwm.c ****         HWREG(ulBase + PWM_O_ENABLE) |= ulPWMOutBits;
 9728              		.loc 1 724 0
 9729 0014 FB68     		ldr	r3, [r7, #12]
 9730 0016 03F10803 		add	r3, r3, #8
 9731 001a FA68     		ldr	r2, [r7, #12]
 9732 001c 02F10802 		add	r2, r2, #8
 9733 0020 1168     		ldr	r1, [r2, #0]
 9734 0022 BA68     		ldr	r2, [r7, #8]
 9735 0024 41EA0202 		orr	r2, r1, r2
 9736 0028 1A60     		str	r2, [r3, #0]
 9737 002a 0CE0     		b	.L26
 9738              	.L27:
 725:/home/cuil/workspace/arm/lm3s811/TI_Stellaris/driverlib/pwm.c ****     }
 726:/home/cuil/workspace/arm/lm3s811/TI_Stellaris/driverlib/pwm.c ****     else
 727:/home/cuil/workspace/arm/lm3s811/TI_Stellaris/driverlib/pwm.c ****     {
 728:/home/cuil/workspace/arm/lm3s811/TI_Stellaris/driverlib/pwm.c ****         HWREG(ulBase + PWM_O_ENABLE) &= ~(ulPWMOutBits);
 9739              		.loc 1 728 0
 9740 002c FB68     		ldr	r3, [r7, #12]
 9741 002e 03F10803 		add	r3, r3, #8
 9742 0032 FA68     		ldr	r2, [r7, #12]
 9743 0034 02F10802 		add	r2, r2, #8
 9744 0038 1168     		ldr	r1, [r2, #0]
 9745 003a BA68     		ldr	r2, [r7, #8]
 9746 003c 6FEA0202 		mvn	r2, r2
 9747 0040 01EA0202 		and	r2, r1, r2
 9748 0044 1A60     		str	r2, [r3, #0]
 9749              	.L26:
 729:/home/cuil/workspace/arm/lm3s811/TI_Stellaris/driverlib/pwm.c ****     }
 730:/home/cuil/workspace/arm/lm3s811/TI_Stellaris/driverlib/pwm.c **** }
 9750              		.loc 1 730 0
 9751 0046 07F11407 		add	r7, r7, #20
 9752 004a BD46     		mov	sp, r7
 9753 004c 80BC     		pop	{r7}
 9754 004e 7047     		bx	lr
 9755              		.cfi_endproc
 9756              	.LFE11:
 9758              		.section	.text.PWMOutputInvert,"ax",%progbits
 9759              		.align	2
 9760              		.global	PWMOutputInvert
 9761              		.thumb
 9762              		.thumb_func
 9764              	PWMOutputInvert:
 9765              	.LFB12:
 731:/home/cuil/workspace/arm/lm3s811/TI_Stellaris/driverlib/pwm.c **** 
 732:/home/cuil/workspace/arm/lm3s811/TI_Stellaris/driverlib/pwm.c **** //*****************************************************************************
 733:/home/cuil/workspace/arm/lm3s811/TI_Stellaris/driverlib/pwm.c **** //
 734:/home/cuil/workspace/arm/lm3s811/TI_Stellaris/driverlib/pwm.c **** //! Selects the inversion mode for PWM outputs.
 735:/home/cuil/workspace/arm/lm3s811/TI_Stellaris/driverlib/pwm.c **** //!
 736:/home/cuil/workspace/arm/lm3s811/TI_Stellaris/driverlib/pwm.c **** //! \param ulBase is the base address of the PWM module.
 737:/home/cuil/workspace/arm/lm3s811/TI_Stellaris/driverlib/pwm.c **** //! \param ulPWMOutBits are the PWM outputs to be modified.  This parameter
 738:/home/cuil/workspace/arm/lm3s811/TI_Stellaris/driverlib/pwm.c **** //! must be the logical OR of any of \b PWM_OUT_0_BIT, \b PWM_OUT_1_BIT, 
 739:/home/cuil/workspace/arm/lm3s811/TI_Stellaris/driverlib/pwm.c **** //! \b PWM_OUT_2_BIT, \b PWM_OUT_3_BIT, \b PWM_OUT_4_BIT, \b PWM_OUT_5_BIT, 
 740:/home/cuil/workspace/arm/lm3s811/TI_Stellaris/driverlib/pwm.c **** //! \b PWM_OUT_6_BIT, or \b PWM_OUT_7_BIT.
 741:/home/cuil/workspace/arm/lm3s811/TI_Stellaris/driverlib/pwm.c **** //! \param bInvert determines if the signal is inverted or passed through.
 742:/home/cuil/workspace/arm/lm3s811/TI_Stellaris/driverlib/pwm.c **** //!
 743:/home/cuil/workspace/arm/lm3s811/TI_Stellaris/driverlib/pwm.c **** //! This function is used to select the inversion mode for the selected PWM
 744:/home/cuil/workspace/arm/lm3s811/TI_Stellaris/driverlib/pwm.c **** //! outputs.  The outputs are selected using the parameter \e ulPWMOutBits.
 745:/home/cuil/workspace/arm/lm3s811/TI_Stellaris/driverlib/pwm.c **** //! The parameter \e bInvert determines the inversion mode for the selected
 746:/home/cuil/workspace/arm/lm3s811/TI_Stellaris/driverlib/pwm.c **** //! outputs.  If \e bInvert is \b true, this function causes the specified
 747:/home/cuil/workspace/arm/lm3s811/TI_Stellaris/driverlib/pwm.c **** //! PWM output signals to be inverted or made active low.  If \e bInvert is
 748:/home/cuil/workspace/arm/lm3s811/TI_Stellaris/driverlib/pwm.c **** //! \b false, the specified outputs are passed through as is or made active
 749:/home/cuil/workspace/arm/lm3s811/TI_Stellaris/driverlib/pwm.c **** //! high.
 750:/home/cuil/workspace/arm/lm3s811/TI_Stellaris/driverlib/pwm.c **** //!
 751:/home/cuil/workspace/arm/lm3s811/TI_Stellaris/driverlib/pwm.c **** //! \return None.
 752:/home/cuil/workspace/arm/lm3s811/TI_Stellaris/driverlib/pwm.c **** //
 753:/home/cuil/workspace/arm/lm3s811/TI_Stellaris/driverlib/pwm.c **** //*****************************************************************************
 754:/home/cuil/workspace/arm/lm3s811/TI_Stellaris/driverlib/pwm.c **** void
 755:/home/cuil/workspace/arm/lm3s811/TI_Stellaris/driverlib/pwm.c **** PWMOutputInvert(unsigned long ulBase, unsigned long ulPWMOutBits,
 756:/home/cuil/workspace/arm/lm3s811/TI_Stellaris/driverlib/pwm.c ****                 tBoolean bInvert)
 757:/home/cuil/workspace/arm/lm3s811/TI_Stellaris/driverlib/pwm.c **** {
 9766              		.loc 1 757 0
 9767              		.cfi_startproc
 9768              		@ args = 0, pretend = 0, frame = 16
 9769              		@ frame_needed = 1, uses_anonymous_args = 0
 9770              		@ link register save eliminated.
 9771 0000 80B4     		push	{r7}
 9772              	.LCFI36:
 9773              		.cfi_def_cfa_offset 4
 9774 0002 85B0     		sub	sp, sp, #20
 9775              	.LCFI37:
 9776              		.cfi_def_cfa_offset 24
 9777 0004 00AF     		add	r7, sp, #0
 9778              		.cfi_offset 7, -4
 9779              	.LCFI38:
 9780              		.cfi_def_cfa_register 7
 9781 0006 F860     		str	r0, [r7, #12]
 9782 0008 B960     		str	r1, [r7, #8]
 9783 000a 1346     		mov	r3, r2
 9784 000c FB71     		strb	r3, [r7, #7]
 758:/home/cuil/workspace/arm/lm3s811/TI_Stellaris/driverlib/pwm.c ****     //
 759:/home/cuil/workspace/arm/lm3s811/TI_Stellaris/driverlib/pwm.c ****     // Check the arguments.
 760:/home/cuil/workspace/arm/lm3s811/TI_Stellaris/driverlib/pwm.c ****     //
 761:/home/cuil/workspace/arm/lm3s811/TI_Stellaris/driverlib/pwm.c ****     ASSERT((ulBase == PWM0_BASE) || (ulBase == PWM1_BASE));
 762:/home/cuil/workspace/arm/lm3s811/TI_Stellaris/driverlib/pwm.c ****     ASSERT(!(ulPWMOutBits & ~(PWM_OUT_0_BIT | PWM_OUT_1_BIT | PWM_OUT_2_BIT |
 763:/home/cuil/workspace/arm/lm3s811/TI_Stellaris/driverlib/pwm.c ****                               PWM_OUT_3_BIT | PWM_OUT_4_BIT | PWM_OUT_5_BIT |
 764:/home/cuil/workspace/arm/lm3s811/TI_Stellaris/driverlib/pwm.c ****                               PWM_OUT_6_BIT | PWM_OUT_7_BIT)));
 765:/home/cuil/workspace/arm/lm3s811/TI_Stellaris/driverlib/pwm.c **** 
 766:/home/cuil/workspace/arm/lm3s811/TI_Stellaris/driverlib/pwm.c ****     //
 767:/home/cuil/workspace/arm/lm3s811/TI_Stellaris/driverlib/pwm.c ****     // Read the module's INVERT output control register and set or clear the
 768:/home/cuil/workspace/arm/lm3s811/TI_Stellaris/driverlib/pwm.c ****     // requested bits.
 769:/home/cuil/workspace/arm/lm3s811/TI_Stellaris/driverlib/pwm.c ****     //
 770:/home/cuil/workspace/arm/lm3s811/TI_Stellaris/driverlib/pwm.c ****     if(bInvert == true)
 9785              		.loc 1 770 0
 9786 000e FB79     		ldrb	r3, [r7, #7]	@ zero_extendqisi2
 9787 0010 012B     		cmp	r3, #1
 9788 0012 0BD1     		bne	.L30
 771:/home/cuil/workspace/arm/lm3s811/TI_Stellaris/driverlib/pwm.c ****     {
 772:/home/cuil/workspace/arm/lm3s811/TI_Stellaris/driverlib/pwm.c ****         HWREG(ulBase + PWM_O_INVERT) |= ulPWMOutBits;
 9789              		.loc 1 772 0
 9790 0014 FB68     		ldr	r3, [r7, #12]
 9791 0016 03F10C03 		add	r3, r3, #12
 9792 001a FA68     		ldr	r2, [r7, #12]
 9793 001c 02F10C02 		add	r2, r2, #12
 9794 0020 1168     		ldr	r1, [r2, #0]
 9795 0022 BA68     		ldr	r2, [r7, #8]
 9796 0024 41EA0202 		orr	r2, r1, r2
 9797 0028 1A60     		str	r2, [r3, #0]
 9798 002a 0CE0     		b	.L29
 9799              	.L30:
 773:/home/cuil/workspace/arm/lm3s811/TI_Stellaris/driverlib/pwm.c ****     }
 774:/home/cuil/workspace/arm/lm3s811/TI_Stellaris/driverlib/pwm.c ****     else
 775:/home/cuil/workspace/arm/lm3s811/TI_Stellaris/driverlib/pwm.c ****     {
 776:/home/cuil/workspace/arm/lm3s811/TI_Stellaris/driverlib/pwm.c ****         HWREG(ulBase + PWM_O_INVERT) &= ~(ulPWMOutBits);
 9800              		.loc 1 776 0
 9801 002c FB68     		ldr	r3, [r7, #12]
 9802 002e 03F10C03 		add	r3, r3, #12
 9803 0032 FA68     		ldr	r2, [r7, #12]
 9804 0034 02F10C02 		add	r2, r2, #12
 9805 0038 1168     		ldr	r1, [r2, #0]
 9806 003a BA68     		ldr	r2, [r7, #8]
 9807 003c 6FEA0202 		mvn	r2, r2
 9808 0040 01EA0202 		and	r2, r1, r2
 9809 0044 1A60     		str	r2, [r3, #0]
 9810              	.L29:
 777:/home/cuil/workspace/arm/lm3s811/TI_Stellaris/driverlib/pwm.c ****     }
 778:/home/cuil/workspace/arm/lm3s811/TI_Stellaris/driverlib/pwm.c **** }
 9811              		.loc 1 778 0
 9812 0046 07F11407 		add	r7, r7, #20
 9813 004a BD46     		mov	sp, r7
 9814 004c 80BC     		pop	{r7}
 9815 004e 7047     		bx	lr
 9816              		.cfi_endproc
 9817              	.LFE12:
 9819              		.section	.text.PWMOutputFaultLevel,"ax",%progbits
 9820              		.align	2
 9821              		.global	PWMOutputFaultLevel
 9822              		.thumb
 9823              		.thumb_func
 9825              	PWMOutputFaultLevel:
 9826              	.LFB13:
 779:/home/cuil/workspace/arm/lm3s811/TI_Stellaris/driverlib/pwm.c **** 
 780:/home/cuil/workspace/arm/lm3s811/TI_Stellaris/driverlib/pwm.c **** //*****************************************************************************
 781:/home/cuil/workspace/arm/lm3s811/TI_Stellaris/driverlib/pwm.c **** //
 782:/home/cuil/workspace/arm/lm3s811/TI_Stellaris/driverlib/pwm.c **** //! Specifies the level of PWM outputs suppressed in response to a fault
 783:/home/cuil/workspace/arm/lm3s811/TI_Stellaris/driverlib/pwm.c **** //! condition.
 784:/home/cuil/workspace/arm/lm3s811/TI_Stellaris/driverlib/pwm.c **** //!
 785:/home/cuil/workspace/arm/lm3s811/TI_Stellaris/driverlib/pwm.c **** //! \param ulBase is the base address of the PWM module.
 786:/home/cuil/workspace/arm/lm3s811/TI_Stellaris/driverlib/pwm.c **** //! \param ulPWMOutBits are the PWM outputs to be modified.  This parameter 
 787:/home/cuil/workspace/arm/lm3s811/TI_Stellaris/driverlib/pwm.c **** //! must be the logical OR of any of \b PWM_OUT_0_BIT, \b PWM_OUT_1_BIT, 
 788:/home/cuil/workspace/arm/lm3s811/TI_Stellaris/driverlib/pwm.c **** //! \b PWM_OUT_2_BIT, \b PWM_OUT_3_BIT, \b PWM_OUT_4_BIT, \b PWM_OUT_5_BIT, 
 789:/home/cuil/workspace/arm/lm3s811/TI_Stellaris/driverlib/pwm.c **** //! \b PWM_OUT_6_BIT, or \b PWM_OUT_7_BIT.
 790:/home/cuil/workspace/arm/lm3s811/TI_Stellaris/driverlib/pwm.c **** //! \param bDriveHigh determines if the signal is driven high or low during an
 791:/home/cuil/workspace/arm/lm3s811/TI_Stellaris/driverlib/pwm.c **** //! active fault condition.
 792:/home/cuil/workspace/arm/lm3s811/TI_Stellaris/driverlib/pwm.c **** //!
 793:/home/cuil/workspace/arm/lm3s811/TI_Stellaris/driverlib/pwm.c **** //! This function determines whether a PWM output pin that is suppressed in
 794:/home/cuil/workspace/arm/lm3s811/TI_Stellaris/driverlib/pwm.c **** //! response to a fault condition is driven high or low.  The affected outputs
 795:/home/cuil/workspace/arm/lm3s811/TI_Stellaris/driverlib/pwm.c **** //! are selected using the parameter \e ulPWMOutBits.  The parameter
 796:/home/cuil/workspace/arm/lm3s811/TI_Stellaris/driverlib/pwm.c **** //! \e bDriveHigh determines the output level for the pins identified by
 797:/home/cuil/workspace/arm/lm3s811/TI_Stellaris/driverlib/pwm.c **** //! \e ulPWMOutBits.  If \e bDriveHigh is \b true then the selected outputs are
 798:/home/cuil/workspace/arm/lm3s811/TI_Stellaris/driverlib/pwm.c **** //! driven high when a fault is detected.  If it is \e false, the pins are
 799:/home/cuil/workspace/arm/lm3s811/TI_Stellaris/driverlib/pwm.c **** //! driven low.
 800:/home/cuil/workspace/arm/lm3s811/TI_Stellaris/driverlib/pwm.c **** //!
 801:/home/cuil/workspace/arm/lm3s811/TI_Stellaris/driverlib/pwm.c **** //! In a fault condition, pins which have not been configured to be suppressed
 802:/home/cuil/workspace/arm/lm3s811/TI_Stellaris/driverlib/pwm.c **** //! via a call to PWMOutputFault() are unaffected by this function.
 803:/home/cuil/workspace/arm/lm3s811/TI_Stellaris/driverlib/pwm.c **** //!
 804:/home/cuil/workspace/arm/lm3s811/TI_Stellaris/driverlib/pwm.c **** //! \note This function is available only on devices which support extended
 805:/home/cuil/workspace/arm/lm3s811/TI_Stellaris/driverlib/pwm.c **** //! PWM fault handling.
 806:/home/cuil/workspace/arm/lm3s811/TI_Stellaris/driverlib/pwm.c **** //!
 807:/home/cuil/workspace/arm/lm3s811/TI_Stellaris/driverlib/pwm.c **** //! \return None.
 808:/home/cuil/workspace/arm/lm3s811/TI_Stellaris/driverlib/pwm.c **** //
 809:/home/cuil/workspace/arm/lm3s811/TI_Stellaris/driverlib/pwm.c **** //*****************************************************************************
 810:/home/cuil/workspace/arm/lm3s811/TI_Stellaris/driverlib/pwm.c **** void
 811:/home/cuil/workspace/arm/lm3s811/TI_Stellaris/driverlib/pwm.c **** PWMOutputFaultLevel(unsigned long ulBase, unsigned long ulPWMOutBits,
 812:/home/cuil/workspace/arm/lm3s811/TI_Stellaris/driverlib/pwm.c ****                     tBoolean bDriveHigh)
 813:/home/cuil/workspace/arm/lm3s811/TI_Stellaris/driverlib/pwm.c **** {
 9827              		.loc 1 813 0
 9828              		.cfi_startproc
 9829              		@ args = 0, pretend = 0, frame = 16
 9830              		@ frame_needed = 1, uses_anonymous_args = 0
 9831              		@ link register save eliminated.
 9832 0000 80B4     		push	{r7}
 9833              	.LCFI39:
 9834              		.cfi_def_cfa_offset 4
 9835 0002 85B0     		sub	sp, sp, #20
 9836              	.LCFI40:
 9837              		.cfi_def_cfa_offset 24
 9838 0004 00AF     		add	r7, sp, #0
 9839              		.cfi_offset 7, -4
 9840              	.LCFI41:
 9841              		.cfi_def_cfa_register 7
 9842 0006 F860     		str	r0, [r7, #12]
 9843 0008 B960     		str	r1, [r7, #8]
 9844 000a 1346     		mov	r3, r2
 9845 000c FB71     		strb	r3, [r7, #7]
 814:/home/cuil/workspace/arm/lm3s811/TI_Stellaris/driverlib/pwm.c ****     //
 815:/home/cuil/workspace/arm/lm3s811/TI_Stellaris/driverlib/pwm.c ****     // Check the arguments.
 816:/home/cuil/workspace/arm/lm3s811/TI_Stellaris/driverlib/pwm.c ****     //
 817:/home/cuil/workspace/arm/lm3s811/TI_Stellaris/driverlib/pwm.c ****     ASSERT((ulBase == PWM0_BASE) || (ulBase == PWM1_BASE));
 818:/home/cuil/workspace/arm/lm3s811/TI_Stellaris/driverlib/pwm.c ****     ASSERT(!(ulPWMOutBits & ~(PWM_OUT_0_BIT | PWM_OUT_1_BIT | PWM_OUT_2_BIT |
 819:/home/cuil/workspace/arm/lm3s811/TI_Stellaris/driverlib/pwm.c ****                               PWM_OUT_3_BIT | PWM_OUT_4_BIT | PWM_OUT_5_BIT |
 820:/home/cuil/workspace/arm/lm3s811/TI_Stellaris/driverlib/pwm.c ****                               PWM_OUT_6_BIT | PWM_OUT_7_BIT)));
 821:/home/cuil/workspace/arm/lm3s811/TI_Stellaris/driverlib/pwm.c **** 
 822:/home/cuil/workspace/arm/lm3s811/TI_Stellaris/driverlib/pwm.c ****     //
 823:/home/cuil/workspace/arm/lm3s811/TI_Stellaris/driverlib/pwm.c ****     // Read the module's FAULT output control register and set or clear the
 824:/home/cuil/workspace/arm/lm3s811/TI_Stellaris/driverlib/pwm.c ****     // requested bits.
 825:/home/cuil/workspace/arm/lm3s811/TI_Stellaris/driverlib/pwm.c ****     //
 826:/home/cuil/workspace/arm/lm3s811/TI_Stellaris/driverlib/pwm.c ****     if(bDriveHigh == true)
 9846              		.loc 1 826 0
 9847 000e FB79     		ldrb	r3, [r7, #7]	@ zero_extendqisi2
 9848 0010 012B     		cmp	r3, #1
 9849 0012 0BD1     		bne	.L33
 827:/home/cuil/workspace/arm/lm3s811/TI_Stellaris/driverlib/pwm.c ****     {
 828:/home/cuil/workspace/arm/lm3s811/TI_Stellaris/driverlib/pwm.c ****         HWREG(ulBase + PWM_O_FAULTVAL) |= ulPWMOutBits;
 9850              		.loc 1 828 0
 9851 0014 FB68     		ldr	r3, [r7, #12]
 9852 0016 03F12403 		add	r3, r3, #36
 9853 001a FA68     		ldr	r2, [r7, #12]
 9854 001c 02F12402 		add	r2, r2, #36
 9855 0020 1168     		ldr	r1, [r2, #0]
 9856 0022 BA68     		ldr	r2, [r7, #8]
 9857 0024 41EA0202 		orr	r2, r1, r2
 9858 0028 1A60     		str	r2, [r3, #0]
 9859 002a 0CE0     		b	.L32
 9860              	.L33:
 829:/home/cuil/workspace/arm/lm3s811/TI_Stellaris/driverlib/pwm.c ****     }
 830:/home/cuil/workspace/arm/lm3s811/TI_Stellaris/driverlib/pwm.c ****     else
 831:/home/cuil/workspace/arm/lm3s811/TI_Stellaris/driverlib/pwm.c ****     {
 832:/home/cuil/workspace/arm/lm3s811/TI_Stellaris/driverlib/pwm.c ****         HWREG(ulBase + PWM_O_FAULTVAL) &= ~(ulPWMOutBits);
 9861              		.loc 1 832 0
 9862 002c FB68     		ldr	r3, [r7, #12]
 9863 002e 03F12403 		add	r3, r3, #36
 9864 0032 FA68     		ldr	r2, [r7, #12]
 9865 0034 02F12402 		add	r2, r2, #36
 9866 0038 1168     		ldr	r1, [r2, #0]
 9867 003a BA68     		ldr	r2, [r7, #8]
 9868 003c 6FEA0202 		mvn	r2, r2
 9869 0040 01EA0202 		and	r2, r1, r2
 9870 0044 1A60     		str	r2, [r3, #0]
 9871              	.L32:
 833:/home/cuil/workspace/arm/lm3s811/TI_Stellaris/driverlib/pwm.c ****     }
 834:/home/cuil/workspace/arm/lm3s811/TI_Stellaris/driverlib/pwm.c **** }
 9872              		.loc 1 834 0
 9873 0046 07F11407 		add	r7, r7, #20
 9874 004a BD46     		mov	sp, r7
 9875 004c 80BC     		pop	{r7}
 9876 004e 7047     		bx	lr
 9877              		.cfi_endproc
 9878              	.LFE13:
 9880              		.section	.text.PWMOutputFault,"ax",%progbits
 9881              		.align	2
 9882              		.global	PWMOutputFault
 9883              		.thumb
 9884              		.thumb_func
 9886              	PWMOutputFault:
 9887              	.LFB14:
 835:/home/cuil/workspace/arm/lm3s811/TI_Stellaris/driverlib/pwm.c **** 
 836:/home/cuil/workspace/arm/lm3s811/TI_Stellaris/driverlib/pwm.c **** //*****************************************************************************
 837:/home/cuil/workspace/arm/lm3s811/TI_Stellaris/driverlib/pwm.c **** //
 838:/home/cuil/workspace/arm/lm3s811/TI_Stellaris/driverlib/pwm.c **** //! Specifies the state of PWM outputs in response to a fault condition.
 839:/home/cuil/workspace/arm/lm3s811/TI_Stellaris/driverlib/pwm.c **** //!
 840:/home/cuil/workspace/arm/lm3s811/TI_Stellaris/driverlib/pwm.c **** //! \param ulBase is the base address of the PWM module.
 841:/home/cuil/workspace/arm/lm3s811/TI_Stellaris/driverlib/pwm.c **** //! \param ulPWMOutBits are the PWM outputs to be modified.  This parameter
 842:/home/cuil/workspace/arm/lm3s811/TI_Stellaris/driverlib/pwm.c **** //! must be the  logical OR of any of \b PWM_OUT_0_BIT, \b PWM_OUT_1_BIT, 
 843:/home/cuil/workspace/arm/lm3s811/TI_Stellaris/driverlib/pwm.c **** //! \b PWM_OUT_2_BIT, \b PWM_OUT_3_BIT, \b PWM_OUT_4_BIT, \b PWM_OUT_5_BIT, 
 844:/home/cuil/workspace/arm/lm3s811/TI_Stellaris/driverlib/pwm.c **** //! \b PWM_OUT_6_BIT, or \b PWM_OUT_7_BIT.
 845:/home/cuil/workspace/arm/lm3s811/TI_Stellaris/driverlib/pwm.c **** //! \param bFaultSuppress determines if the signal is suppressed or passed
 846:/home/cuil/workspace/arm/lm3s811/TI_Stellaris/driverlib/pwm.c **** //! through during an active fault condition.
 847:/home/cuil/workspace/arm/lm3s811/TI_Stellaris/driverlib/pwm.c **** //!
 848:/home/cuil/workspace/arm/lm3s811/TI_Stellaris/driverlib/pwm.c **** //! This function sets the fault handling characteristics of the selected PWM
 849:/home/cuil/workspace/arm/lm3s811/TI_Stellaris/driverlib/pwm.c **** //! outputs.  The outputs are selected using the parameter \e ulPWMOutBits.
 850:/home/cuil/workspace/arm/lm3s811/TI_Stellaris/driverlib/pwm.c **** //! The parameter \e bFaultSuppress determines the fault handling
 851:/home/cuil/workspace/arm/lm3s811/TI_Stellaris/driverlib/pwm.c **** //! characteristics for the selected outputs.  If \e bFaultSuppress is \b true,
 852:/home/cuil/workspace/arm/lm3s811/TI_Stellaris/driverlib/pwm.c **** //! then the selected outputs are made inactive.  If \e bFaultSuppress is
 853:/home/cuil/workspace/arm/lm3s811/TI_Stellaris/driverlib/pwm.c **** //! \b false, then the selected outputs are unaffected by the detected fault.
 854:/home/cuil/workspace/arm/lm3s811/TI_Stellaris/driverlib/pwm.c **** //!
 855:/home/cuil/workspace/arm/lm3s811/TI_Stellaris/driverlib/pwm.c **** //! On devices supporting extended PWM fault handling, the state the affected
 856:/home/cuil/workspace/arm/lm3s811/TI_Stellaris/driverlib/pwm.c **** //! output pins are driven to can be configured with PWMOutputFaultLevel().  If
 857:/home/cuil/workspace/arm/lm3s811/TI_Stellaris/driverlib/pwm.c **** //! not configured, or if the device does not support extended PWM fault
 858:/home/cuil/workspace/arm/lm3s811/TI_Stellaris/driverlib/pwm.c **** //! handling, affected outputs are driven low on a fault condition.
 859:/home/cuil/workspace/arm/lm3s811/TI_Stellaris/driverlib/pwm.c **** //!
 860:/home/cuil/workspace/arm/lm3s811/TI_Stellaris/driverlib/pwm.c **** //! \return None.
 861:/home/cuil/workspace/arm/lm3s811/TI_Stellaris/driverlib/pwm.c **** //
 862:/home/cuil/workspace/arm/lm3s811/TI_Stellaris/driverlib/pwm.c **** //*****************************************************************************
 863:/home/cuil/workspace/arm/lm3s811/TI_Stellaris/driverlib/pwm.c **** void
 864:/home/cuil/workspace/arm/lm3s811/TI_Stellaris/driverlib/pwm.c **** PWMOutputFault(unsigned long ulBase, unsigned long ulPWMOutBits,
 865:/home/cuil/workspace/arm/lm3s811/TI_Stellaris/driverlib/pwm.c ****                tBoolean bFaultSuppress)
 866:/home/cuil/workspace/arm/lm3s811/TI_Stellaris/driverlib/pwm.c **** {
 9888              		.loc 1 866 0
 9889              		.cfi_startproc
 9890              		@ args = 0, pretend = 0, frame = 16
 9891              		@ frame_needed = 1, uses_anonymous_args = 0
 9892              		@ link register save eliminated.
 9893 0000 80B4     		push	{r7}
 9894              	.LCFI42:
 9895              		.cfi_def_cfa_offset 4
 9896 0002 85B0     		sub	sp, sp, #20
 9897              	.LCFI43:
 9898              		.cfi_def_cfa_offset 24
 9899 0004 00AF     		add	r7, sp, #0
 9900              		.cfi_offset 7, -4
 9901              	.LCFI44:
 9902              		.cfi_def_cfa_register 7
 9903 0006 F860     		str	r0, [r7, #12]
 9904 0008 B960     		str	r1, [r7, #8]
 9905 000a 1346     		mov	r3, r2
 9906 000c FB71     		strb	r3, [r7, #7]
 867:/home/cuil/workspace/arm/lm3s811/TI_Stellaris/driverlib/pwm.c ****     //
 868:/home/cuil/workspace/arm/lm3s811/TI_Stellaris/driverlib/pwm.c ****     // Check the arguments.
 869:/home/cuil/workspace/arm/lm3s811/TI_Stellaris/driverlib/pwm.c ****     //
 870:/home/cuil/workspace/arm/lm3s811/TI_Stellaris/driverlib/pwm.c ****     ASSERT((ulBase == PWM0_BASE) || (ulBase == PWM1_BASE));
 871:/home/cuil/workspace/arm/lm3s811/TI_Stellaris/driverlib/pwm.c ****     ASSERT(!(ulPWMOutBits & ~(PWM_OUT_0_BIT | PWM_OUT_1_BIT | PWM_OUT_2_BIT |
 872:/home/cuil/workspace/arm/lm3s811/TI_Stellaris/driverlib/pwm.c ****                               PWM_OUT_3_BIT | PWM_OUT_4_BIT | PWM_OUT_5_BIT |
 873:/home/cuil/workspace/arm/lm3s811/TI_Stellaris/driverlib/pwm.c ****                               PWM_OUT_6_BIT | PWM_OUT_7_BIT)));
 874:/home/cuil/workspace/arm/lm3s811/TI_Stellaris/driverlib/pwm.c **** 
 875:/home/cuil/workspace/arm/lm3s811/TI_Stellaris/driverlib/pwm.c ****     //
 876:/home/cuil/workspace/arm/lm3s811/TI_Stellaris/driverlib/pwm.c ****     // Read the module's FAULT output control register and set or clear the
 877:/home/cuil/workspace/arm/lm3s811/TI_Stellaris/driverlib/pwm.c ****     // requested bits.
 878:/home/cuil/workspace/arm/lm3s811/TI_Stellaris/driverlib/pwm.c ****     //
 879:/home/cuil/workspace/arm/lm3s811/TI_Stellaris/driverlib/pwm.c ****     if(bFaultSuppress == true)
 9907              		.loc 1 879 0
 9908 000e FB79     		ldrb	r3, [r7, #7]	@ zero_extendqisi2
 9909 0010 012B     		cmp	r3, #1
 9910 0012 0BD1     		bne	.L36
 880:/home/cuil/workspace/arm/lm3s811/TI_Stellaris/driverlib/pwm.c ****     {
 881:/home/cuil/workspace/arm/lm3s811/TI_Stellaris/driverlib/pwm.c ****         HWREG(ulBase + PWM_O_FAULT) |= ulPWMOutBits;
 9911              		.loc 1 881 0
 9912 0014 FB68     		ldr	r3, [r7, #12]
 9913 0016 03F11003 		add	r3, r3, #16
 9914 001a FA68     		ldr	r2, [r7, #12]
 9915 001c 02F11002 		add	r2, r2, #16
 9916 0020 1168     		ldr	r1, [r2, #0]
 9917 0022 BA68     		ldr	r2, [r7, #8]
 9918 0024 41EA0202 		orr	r2, r1, r2
 9919 0028 1A60     		str	r2, [r3, #0]
 9920 002a 0CE0     		b	.L35
 9921              	.L36:
 882:/home/cuil/workspace/arm/lm3s811/TI_Stellaris/driverlib/pwm.c ****     }
 883:/home/cuil/workspace/arm/lm3s811/TI_Stellaris/driverlib/pwm.c ****     else
 884:/home/cuil/workspace/arm/lm3s811/TI_Stellaris/driverlib/pwm.c ****     {
 885:/home/cuil/workspace/arm/lm3s811/TI_Stellaris/driverlib/pwm.c ****         HWREG(ulBase + PWM_O_FAULT) &= ~(ulPWMOutBits);
 9922              		.loc 1 885 0
 9923 002c FB68     		ldr	r3, [r7, #12]
 9924 002e 03F11003 		add	r3, r3, #16
 9925 0032 FA68     		ldr	r2, [r7, #12]
 9926 0034 02F11002 		add	r2, r2, #16
 9927 0038 1168     		ldr	r1, [r2, #0]
 9928 003a BA68     		ldr	r2, [r7, #8]
 9929 003c 6FEA0202 		mvn	r2, r2
 9930 0040 01EA0202 		and	r2, r1, r2
 9931 0044 1A60     		str	r2, [r3, #0]
 9932              	.L35:
 886:/home/cuil/workspace/arm/lm3s811/TI_Stellaris/driverlib/pwm.c ****     }
 887:/home/cuil/workspace/arm/lm3s811/TI_Stellaris/driverlib/pwm.c **** }
 9933              		.loc 1 887 0
 9934 0046 07F11407 		add	r7, r7, #20
 9935 004a BD46     		mov	sp, r7
 9936 004c 80BC     		pop	{r7}
 9937 004e 7047     		bx	lr
 9938              		.cfi_endproc
 9939              	.LFE14:
 9941              		.section	.text.PWMGenIntGet,"ax",%progbits
 9942              		.align	2
 9943              		.thumb
 9944              		.thumb_func
 9946              	PWMGenIntGet:
 9947              	.LFB15:
 888:/home/cuil/workspace/arm/lm3s811/TI_Stellaris/driverlib/pwm.c **** 
 889:/home/cuil/workspace/arm/lm3s811/TI_Stellaris/driverlib/pwm.c **** //*****************************************************************************
 890:/home/cuil/workspace/arm/lm3s811/TI_Stellaris/driverlib/pwm.c **** //
 891:/home/cuil/workspace/arm/lm3s811/TI_Stellaris/driverlib/pwm.c **** //! Gets the PWM generator interrupt number.
 892:/home/cuil/workspace/arm/lm3s811/TI_Stellaris/driverlib/pwm.c **** //!
 893:/home/cuil/workspace/arm/lm3s811/TI_Stellaris/driverlib/pwm.c **** //! \param ulBase is the base address of the PWM module.
 894:/home/cuil/workspace/arm/lm3s811/TI_Stellaris/driverlib/pwm.c **** //! \param ulGen is the PWM generator in question.  This parameter must be one 
 895:/home/cuil/workspace/arm/lm3s811/TI_Stellaris/driverlib/pwm.c **** //! of \b PWM_GEN_0, \b PWM_GEN_1, \b PWM_GEN_2, or \b PWM_GEN_3.
 896:/home/cuil/workspace/arm/lm3s811/TI_Stellaris/driverlib/pwm.c **** //!
 897:/home/cuil/workspace/arm/lm3s811/TI_Stellaris/driverlib/pwm.c **** //! This function returns the interrupt number of the corresponding PWM
 898:/home/cuil/workspace/arm/lm3s811/TI_Stellaris/driverlib/pwm.c **** //! generator.
 899:/home/cuil/workspace/arm/lm3s811/TI_Stellaris/driverlib/pwm.c **** //!
 900:/home/cuil/workspace/arm/lm3s811/TI_Stellaris/driverlib/pwm.c **** //! \return Returns the interrupt number.
 901:/home/cuil/workspace/arm/lm3s811/TI_Stellaris/driverlib/pwm.c **** //
 902:/home/cuil/workspace/arm/lm3s811/TI_Stellaris/driverlib/pwm.c **** //*****************************************************************************
 903:/home/cuil/workspace/arm/lm3s811/TI_Stellaris/driverlib/pwm.c **** static unsigned long
 904:/home/cuil/workspace/arm/lm3s811/TI_Stellaris/driverlib/pwm.c **** PWMGenIntGet(unsigned long ulBase, unsigned long ulGen)
 905:/home/cuil/workspace/arm/lm3s811/TI_Stellaris/driverlib/pwm.c **** {
 9948              		.loc 1 905 0
 9949              		.cfi_startproc
 9950              		@ args = 0, pretend = 0, frame = 8
 9951              		@ frame_needed = 1, uses_anonymous_args = 0
 9952              		@ link register save eliminated.
 9953 0000 80B4     		push	{r7}
 9954              	.LCFI45:
 9955              		.cfi_def_cfa_offset 4
 9956 0002 83B0     		sub	sp, sp, #12
 9957              	.LCFI46:
 9958              		.cfi_def_cfa_offset 16
 9959 0004 00AF     		add	r7, sp, #0
 9960              		.cfi_offset 7, -4
 9961              	.LCFI47:
 9962              		.cfi_def_cfa_register 7
 9963 0006 7860     		str	r0, [r7, #4]
 9964 0008 3960     		str	r1, [r7, #0]
 906:/home/cuil/workspace/arm/lm3s811/TI_Stellaris/driverlib/pwm.c ****     //
 907:/home/cuil/workspace/arm/lm3s811/TI_Stellaris/driverlib/pwm.c ****     // Determine the generator and PWM module in question.
 908:/home/cuil/workspace/arm/lm3s811/TI_Stellaris/driverlib/pwm.c ****     //
 909:/home/cuil/workspace/arm/lm3s811/TI_Stellaris/driverlib/pwm.c ****     switch(ulBase + ulGen)
 9965              		.loc 1 909 0
 9966 000a 7A68     		ldr	r2, [r7, #4]
 9967 000c 3B68     		ldr	r3, [r7, #0]
 9968 000e D318     		adds	r3, r2, r3
 9969 0010 204A     		ldr	r2, .L51
 9970 0012 9342     		cmp	r3, r2
 9971 0014 26D0     		beq	.L43
 9972 0016 1F4A     		ldr	r2, .L51
 9973 0018 9342     		cmp	r3, r2
 9974 001a 09D8     		bhi	.L48
 9975 001c 1E4A     		ldr	r2, .L51+4
 9976 001e 9342     		cmp	r3, r2
 9977 0020 1AD0     		beq	.L41
 9978 0022 1E4A     		ldr	r2, .L51+8
 9979 0024 9342     		cmp	r3, r2
 9980 0026 1AD0     		beq	.L42
 9981 0028 1D4A     		ldr	r2, .L51+12
 9982 002a 9342     		cmp	r3, r2
 9983 002c 11D0     		beq	.L40
 9984 002e 28E0     		b	.L39
 9985              	.L48:
 9986 0030 1C4A     		ldr	r2, .L51+16
 9987 0032 9342     		cmp	r3, r2
 9988 0034 1CD0     		beq	.L45
 9989 0036 1B4A     		ldr	r2, .L51+16
 9990 0038 9342     		cmp	r3, r2
 9991 003a 03D8     		bhi	.L49
 9992 003c 1A4A     		ldr	r2, .L51+20
 9993 003e 9342     		cmp	r3, r2
 9994 0040 13D0     		beq	.L44
 9995 0042 1EE0     		b	.L39
 9996              	.L49:
 9997 0044 194A     		ldr	r2, .L51+24
 9998 0046 9342     		cmp	r3, r2
 9999 0048 15D0     		beq	.L46
 10000 004a 194A     		ldr	r2, .L51+28
 10001 004c 9342     		cmp	r3, r2
 10002 004e 15D0     		beq	.L47
 10003 0050 17E0     		b	.L39
 10004              	.L40:
 910:/home/cuil/workspace/arm/lm3s811/TI_Stellaris/driverlib/pwm.c ****     {
 911:/home/cuil/workspace/arm/lm3s811/TI_Stellaris/driverlib/pwm.c ****         //
 912:/home/cuil/workspace/arm/lm3s811/TI_Stellaris/driverlib/pwm.c ****         // The first PWM generator in the first PWM module.
 913:/home/cuil/workspace/arm/lm3s811/TI_Stellaris/driverlib/pwm.c ****         //
 914:/home/cuil/workspace/arm/lm3s811/TI_Stellaris/driverlib/pwm.c ****         case PWM0_BASE + PWM_GEN_0:
 915:/home/cuil/workspace/arm/lm3s811/TI_Stellaris/driverlib/pwm.c ****         {
 916:/home/cuil/workspace/arm/lm3s811/TI_Stellaris/driverlib/pwm.c ****             return(INT_PWM0_0);
 10005              		.loc 1 916 0
 10006 0052 4FF01A03 		mov	r3, #26
 10007 0056 16E0     		b	.L50
 10008              	.L41:
 917:/home/cuil/workspace/arm/lm3s811/TI_Stellaris/driverlib/pwm.c ****         }
 918:/home/cuil/workspace/arm/lm3s811/TI_Stellaris/driverlib/pwm.c **** 
 919:/home/cuil/workspace/arm/lm3s811/TI_Stellaris/driverlib/pwm.c ****         //
 920:/home/cuil/workspace/arm/lm3s811/TI_Stellaris/driverlib/pwm.c ****         // The second PWM generator in the first PWM module.
 921:/home/cuil/workspace/arm/lm3s811/TI_Stellaris/driverlib/pwm.c ****         //
 922:/home/cuil/workspace/arm/lm3s811/TI_Stellaris/driverlib/pwm.c ****         case PWM0_BASE + PWM_GEN_1:
 923:/home/cuil/workspace/arm/lm3s811/TI_Stellaris/driverlib/pwm.c ****         {
 924:/home/cuil/workspace/arm/lm3s811/TI_Stellaris/driverlib/pwm.c ****             return(INT_PWM0_1);
 10009              		.loc 1 924 0
 10010 0058 4FF01B03 		mov	r3, #27
 10011 005c 13E0     		b	.L50
 10012              	.L42:
 925:/home/cuil/workspace/arm/lm3s811/TI_Stellaris/driverlib/pwm.c ****         }
 926:/home/cuil/workspace/arm/lm3s811/TI_Stellaris/driverlib/pwm.c **** 
 927:/home/cuil/workspace/arm/lm3s811/TI_Stellaris/driverlib/pwm.c ****         //
 928:/home/cuil/workspace/arm/lm3s811/TI_Stellaris/driverlib/pwm.c ****         // The third PWM generator in the first PWM module.
 929:/home/cuil/workspace/arm/lm3s811/TI_Stellaris/driverlib/pwm.c ****         //
 930:/home/cuil/workspace/arm/lm3s811/TI_Stellaris/driverlib/pwm.c ****         case PWM0_BASE + PWM_GEN_2:
 931:/home/cuil/workspace/arm/lm3s811/TI_Stellaris/driverlib/pwm.c ****         {
 932:/home/cuil/workspace/arm/lm3s811/TI_Stellaris/driverlib/pwm.c ****             return(INT_PWM0_2);
 10013              		.loc 1 932 0
 10014 005e 4FF01C03 		mov	r3, #28
 10015 0062 10E0     		b	.L50
 10016              	.L43:
 933:/home/cuil/workspace/arm/lm3s811/TI_Stellaris/driverlib/pwm.c ****         }
 934:/home/cuil/workspace/arm/lm3s811/TI_Stellaris/driverlib/pwm.c **** 
 935:/home/cuil/workspace/arm/lm3s811/TI_Stellaris/driverlib/pwm.c ****         //
 936:/home/cuil/workspace/arm/lm3s811/TI_Stellaris/driverlib/pwm.c ****         // The fourth PWM generator in the first PWM module.
 937:/home/cuil/workspace/arm/lm3s811/TI_Stellaris/driverlib/pwm.c ****         //
 938:/home/cuil/workspace/arm/lm3s811/TI_Stellaris/driverlib/pwm.c ****         case PWM0_BASE + PWM_GEN_3:
 939:/home/cuil/workspace/arm/lm3s811/TI_Stellaris/driverlib/pwm.c ****         {
 940:/home/cuil/workspace/arm/lm3s811/TI_Stellaris/driverlib/pwm.c ****             return(INT_PWM0_3);
 10017              		.loc 1 940 0
 10018 0064 4FF03D03 		mov	r3, #61
 10019 0068 0DE0     		b	.L50
 10020              	.L44:
 941:/home/cuil/workspace/arm/lm3s811/TI_Stellaris/driverlib/pwm.c ****         }
 942:/home/cuil/workspace/arm/lm3s811/TI_Stellaris/driverlib/pwm.c **** 
 943:/home/cuil/workspace/arm/lm3s811/TI_Stellaris/driverlib/pwm.c ****         //
 944:/home/cuil/workspace/arm/lm3s811/TI_Stellaris/driverlib/pwm.c ****         // The first PWM generator in the second PWM module.
 945:/home/cuil/workspace/arm/lm3s811/TI_Stellaris/driverlib/pwm.c ****         //
 946:/home/cuil/workspace/arm/lm3s811/TI_Stellaris/driverlib/pwm.c ****         case PWM1_BASE + PWM_GEN_0:
 947:/home/cuil/workspace/arm/lm3s811/TI_Stellaris/driverlib/pwm.c ****         {
 948:/home/cuil/workspace/arm/lm3s811/TI_Stellaris/driverlib/pwm.c ****             return(INT_PWM1_0);
 10021              		.loc 1 948 0
 10022 006a 4FF09603 		mov	r3, #150
 10023 006e 0AE0     		b	.L50
 10024              	.L45:
 949:/home/cuil/workspace/arm/lm3s811/TI_Stellaris/driverlib/pwm.c ****         }
 950:/home/cuil/workspace/arm/lm3s811/TI_Stellaris/driverlib/pwm.c **** 
 951:/home/cuil/workspace/arm/lm3s811/TI_Stellaris/driverlib/pwm.c ****         //
 952:/home/cuil/workspace/arm/lm3s811/TI_Stellaris/driverlib/pwm.c ****         // The first PWM generator in the second PWM module.
 953:/home/cuil/workspace/arm/lm3s811/TI_Stellaris/driverlib/pwm.c ****         //
 954:/home/cuil/workspace/arm/lm3s811/TI_Stellaris/driverlib/pwm.c ****         case PWM1_BASE + PWM_GEN_1:
 955:/home/cuil/workspace/arm/lm3s811/TI_Stellaris/driverlib/pwm.c ****         {
 956:/home/cuil/workspace/arm/lm3s811/TI_Stellaris/driverlib/pwm.c ****             return(INT_PWM1_1);
 10025              		.loc 1 956 0
 10026 0070 4FF09703 		mov	r3, #151
 10027 0074 07E0     		b	.L50
 10028              	.L46:
 957:/home/cuil/workspace/arm/lm3s811/TI_Stellaris/driverlib/pwm.c ****         }
 958:/home/cuil/workspace/arm/lm3s811/TI_Stellaris/driverlib/pwm.c **** 
 959:/home/cuil/workspace/arm/lm3s811/TI_Stellaris/driverlib/pwm.c ****         //
 960:/home/cuil/workspace/arm/lm3s811/TI_Stellaris/driverlib/pwm.c ****         // The first PWM generator in the second PWM module.
 961:/home/cuil/workspace/arm/lm3s811/TI_Stellaris/driverlib/pwm.c ****         //
 962:/home/cuil/workspace/arm/lm3s811/TI_Stellaris/driverlib/pwm.c ****         case PWM1_BASE + PWM_GEN_2:
 963:/home/cuil/workspace/arm/lm3s811/TI_Stellaris/driverlib/pwm.c ****         {
 964:/home/cuil/workspace/arm/lm3s811/TI_Stellaris/driverlib/pwm.c ****             return(INT_PWM1_2);
 10029              		.loc 1 964 0
 10030 0076 4FF09803 		mov	r3, #152
 10031 007a 04E0     		b	.L50
 10032              	.L47:
 965:/home/cuil/workspace/arm/lm3s811/TI_Stellaris/driverlib/pwm.c ****         }
 966:/home/cuil/workspace/arm/lm3s811/TI_Stellaris/driverlib/pwm.c **** 
 967:/home/cuil/workspace/arm/lm3s811/TI_Stellaris/driverlib/pwm.c ****         //
 968:/home/cuil/workspace/arm/lm3s811/TI_Stellaris/driverlib/pwm.c ****         // The first PWM generator in the second PWM module.
 969:/home/cuil/workspace/arm/lm3s811/TI_Stellaris/driverlib/pwm.c ****         //
 970:/home/cuil/workspace/arm/lm3s811/TI_Stellaris/driverlib/pwm.c ****         case PWM1_BASE + PWM_GEN_3:
 971:/home/cuil/workspace/arm/lm3s811/TI_Stellaris/driverlib/pwm.c ****         {
 972:/home/cuil/workspace/arm/lm3s811/TI_Stellaris/driverlib/pwm.c ****             return(INT_PWM1_3);
 10033              		.loc 1 972 0
 10034 007c 4FF09903 		mov	r3, #153
 10035 0080 01E0     		b	.L50
 10036              	.L39:
 973:/home/cuil/workspace/arm/lm3s811/TI_Stellaris/driverlib/pwm.c ****         }
 974:/home/cuil/workspace/arm/lm3s811/TI_Stellaris/driverlib/pwm.c **** 
 975:/home/cuil/workspace/arm/lm3s811/TI_Stellaris/driverlib/pwm.c ****         //
 976:/home/cuil/workspace/arm/lm3s811/TI_Stellaris/driverlib/pwm.c ****         // An unknown PWM module/generator was specified.
 977:/home/cuil/workspace/arm/lm3s811/TI_Stellaris/driverlib/pwm.c ****         //
 978:/home/cuil/workspace/arm/lm3s811/TI_Stellaris/driverlib/pwm.c ****         default:
 979:/home/cuil/workspace/arm/lm3s811/TI_Stellaris/driverlib/pwm.c ****         {
 980:/home/cuil/workspace/arm/lm3s811/TI_Stellaris/driverlib/pwm.c ****             return(0);
 10037              		.loc 1 980 0
 10038 0082 4FF00003 		mov	r3, #0
 10039              	.L50:
 981:/home/cuil/workspace/arm/lm3s811/TI_Stellaris/driverlib/pwm.c ****         }
 982:/home/cuil/workspace/arm/lm3s811/TI_Stellaris/driverlib/pwm.c ****     }
 983:/home/cuil/workspace/arm/lm3s811/TI_Stellaris/driverlib/pwm.c **** }
 10040              		.loc 1 983 0
 10041 0086 1846     		mov	r0, r3
 10042 0088 07F10C07 		add	r7, r7, #12
 10043 008c BD46     		mov	sp, r7
 10044 008e 80BC     		pop	{r7}
 10045 0090 7047     		bx	lr
 10046              	.L52:
 10047 0092 00BF     		.align	2
 10048              	.L51:
 10049 0094 00810240 		.word	1073905920
 10050 0098 80800240 		.word	1073905792
 10051 009c C0800240 		.word	1073905856
 10052 00a0 40800240 		.word	1073905728
 10053 00a4 80900240 		.word	1073909888
 10054 00a8 40900240 		.word	1073909824
 10055 00ac C0900240 		.word	1073909952
 10056 00b0 00910240 		.word	1073910016
 10057              		.cfi_endproc
 10058              	.LFE15:
 10060              		.section	.text.PWMGenIntRegister,"ax",%progbits
 10061              		.align	2
 10062              		.global	PWMGenIntRegister
 10063              		.thumb
 10064              		.thumb_func
 10066              	PWMGenIntRegister:
 10067              	.LFB16:
 984:/home/cuil/workspace/arm/lm3s811/TI_Stellaris/driverlib/pwm.c **** 
 985:/home/cuil/workspace/arm/lm3s811/TI_Stellaris/driverlib/pwm.c **** //*****************************************************************************
 986:/home/cuil/workspace/arm/lm3s811/TI_Stellaris/driverlib/pwm.c **** //
 987:/home/cuil/workspace/arm/lm3s811/TI_Stellaris/driverlib/pwm.c **** //! Registers an interrupt handler for the specified PWM generator block.
 988:/home/cuil/workspace/arm/lm3s811/TI_Stellaris/driverlib/pwm.c **** //!
 989:/home/cuil/workspace/arm/lm3s811/TI_Stellaris/driverlib/pwm.c **** //! \param ulBase is the base address of the PWM module.
 990:/home/cuil/workspace/arm/lm3s811/TI_Stellaris/driverlib/pwm.c **** //! \param ulGen is the PWM generator in question.  This parameter must be one 
 991:/home/cuil/workspace/arm/lm3s811/TI_Stellaris/driverlib/pwm.c **** //! of \b PWM_GEN_0, \b PWM_GEN_1, \b PWM_GEN_2, or \b PWM_GEN_3.
 992:/home/cuil/workspace/arm/lm3s811/TI_Stellaris/driverlib/pwm.c **** //! \param pfnIntHandler is a pointer to the function to be called when the PWM
 993:/home/cuil/workspace/arm/lm3s811/TI_Stellaris/driverlib/pwm.c **** //! generator interrupt occurs.
 994:/home/cuil/workspace/arm/lm3s811/TI_Stellaris/driverlib/pwm.c **** //!
 995:/home/cuil/workspace/arm/lm3s811/TI_Stellaris/driverlib/pwm.c **** //! This function ensures that the interrupt handler specified by
 996:/home/cuil/workspace/arm/lm3s811/TI_Stellaris/driverlib/pwm.c **** //! \e pfnIntHandler is called when an interrupt is detected for the specified
 997:/home/cuil/workspace/arm/lm3s811/TI_Stellaris/driverlib/pwm.c **** //! PWM generator block.  This function also enables the corresponding
 998:/home/cuil/workspace/arm/lm3s811/TI_Stellaris/driverlib/pwm.c **** //! PWM generator interrupt in the interrupt controller; individual generator
 999:/home/cuil/workspace/arm/lm3s811/TI_Stellaris/driverlib/pwm.c **** //! interrupts and interrupt sources must be enabled with PWMIntEnable() and
1000:/home/cuil/workspace/arm/lm3s811/TI_Stellaris/driverlib/pwm.c **** //! PWMGenIntTrigEnable().
1001:/home/cuil/workspace/arm/lm3s811/TI_Stellaris/driverlib/pwm.c **** //!
1002:/home/cuil/workspace/arm/lm3s811/TI_Stellaris/driverlib/pwm.c **** //! \sa IntRegister() for important information about registering interrupt
1003:/home/cuil/workspace/arm/lm3s811/TI_Stellaris/driverlib/pwm.c **** //! handlers.
1004:/home/cuil/workspace/arm/lm3s811/TI_Stellaris/driverlib/pwm.c **** //!
1005:/home/cuil/workspace/arm/lm3s811/TI_Stellaris/driverlib/pwm.c **** //! \return None.
1006:/home/cuil/workspace/arm/lm3s811/TI_Stellaris/driverlib/pwm.c **** //
1007:/home/cuil/workspace/arm/lm3s811/TI_Stellaris/driverlib/pwm.c **** //*****************************************************************************
1008:/home/cuil/workspace/arm/lm3s811/TI_Stellaris/driverlib/pwm.c **** void
1009:/home/cuil/workspace/arm/lm3s811/TI_Stellaris/driverlib/pwm.c **** PWMGenIntRegister(unsigned long ulBase, unsigned long ulGen,
1010:/home/cuil/workspace/arm/lm3s811/TI_Stellaris/driverlib/pwm.c ****                   void (*pfnIntHandler)(void))
1011:/home/cuil/workspace/arm/lm3s811/TI_Stellaris/driverlib/pwm.c **** {
 10068              		.loc 1 1011 0
 10069              		.cfi_startproc
 10070              		@ args = 0, pretend = 0, frame = 24
 10071              		@ frame_needed = 1, uses_anonymous_args = 0
 10072 0000 80B5     		push	{r7, lr}
 10073              	.LCFI48:
 10074              		.cfi_def_cfa_offset 8
 10075 0002 86B0     		sub	sp, sp, #24
 10076              	.LCFI49:
 10077              		.cfi_def_cfa_offset 32
 10078 0004 00AF     		add	r7, sp, #0
 10079              		.cfi_offset 14, -4
 10080              		.cfi_offset 7, -8
 10081              	.LCFI50:
 10082              		.cfi_def_cfa_register 7
 10083 0006 F860     		str	r0, [r7, #12]
 10084 0008 B960     		str	r1, [r7, #8]
 10085 000a 7A60     		str	r2, [r7, #4]
1012:/home/cuil/workspace/arm/lm3s811/TI_Stellaris/driverlib/pwm.c ****     unsigned long ulInt;
1013:/home/cuil/workspace/arm/lm3s811/TI_Stellaris/driverlib/pwm.c **** 
1014:/home/cuil/workspace/arm/lm3s811/TI_Stellaris/driverlib/pwm.c ****     //
1015:/home/cuil/workspace/arm/lm3s811/TI_Stellaris/driverlib/pwm.c ****     // Check the arguments.
1016:/home/cuil/workspace/arm/lm3s811/TI_Stellaris/driverlib/pwm.c ****     //
1017:/home/cuil/workspace/arm/lm3s811/TI_Stellaris/driverlib/pwm.c ****     ASSERT((ulBase == PWM0_BASE) || (ulBase == PWM1_BASE));
1018:/home/cuil/workspace/arm/lm3s811/TI_Stellaris/driverlib/pwm.c ****     ASSERT(PWMGenValid(ulGen));
1019:/home/cuil/workspace/arm/lm3s811/TI_Stellaris/driverlib/pwm.c **** 
1020:/home/cuil/workspace/arm/lm3s811/TI_Stellaris/driverlib/pwm.c ****     //
1021:/home/cuil/workspace/arm/lm3s811/TI_Stellaris/driverlib/pwm.c ****     // Get the interrupt number associated with the specified generator.
1022:/home/cuil/workspace/arm/lm3s811/TI_Stellaris/driverlib/pwm.c ****     //
1023:/home/cuil/workspace/arm/lm3s811/TI_Stellaris/driverlib/pwm.c ****     ulInt = PWMGenIntGet(ulBase, ulGen);
 10086              		.loc 1 1023 0
 10087 000c F868     		ldr	r0, [r7, #12]
 10088 000e B968     		ldr	r1, [r7, #8]
 10089 0010 FFF7FEFF 		bl	PWMGenIntGet
 10090 0014 7861     		str	r0, [r7, #20]
1024:/home/cuil/workspace/arm/lm3s811/TI_Stellaris/driverlib/pwm.c **** 
1025:/home/cuil/workspace/arm/lm3s811/TI_Stellaris/driverlib/pwm.c ****     //
1026:/home/cuil/workspace/arm/lm3s811/TI_Stellaris/driverlib/pwm.c ****     // Register the interrupt handler.
1027:/home/cuil/workspace/arm/lm3s811/TI_Stellaris/driverlib/pwm.c ****     //
1028:/home/cuil/workspace/arm/lm3s811/TI_Stellaris/driverlib/pwm.c ****     IntRegister(ulInt, pfnIntHandler);
 10091              		.loc 1 1028 0
 10092 0016 7869     		ldr	r0, [r7, #20]
 10093 0018 7968     		ldr	r1, [r7, #4]
 10094 001a FFF7FEFF 		bl	IntRegister
1029:/home/cuil/workspace/arm/lm3s811/TI_Stellaris/driverlib/pwm.c **** 
1030:/home/cuil/workspace/arm/lm3s811/TI_Stellaris/driverlib/pwm.c ****     //
1031:/home/cuil/workspace/arm/lm3s811/TI_Stellaris/driverlib/pwm.c ****     // Enable the PWMx interrupt.
1032:/home/cuil/workspace/arm/lm3s811/TI_Stellaris/driverlib/pwm.c ****     //
1033:/home/cuil/workspace/arm/lm3s811/TI_Stellaris/driverlib/pwm.c ****     IntEnable(ulInt);
 10095              		.loc 1 1033 0
 10096 001e 7869     		ldr	r0, [r7, #20]
 10097 0020 FFF7FEFF 		bl	IntEnable
1034:/home/cuil/workspace/arm/lm3s811/TI_Stellaris/driverlib/pwm.c **** }
 10098              		.loc 1 1034 0
 10099 0024 07F11807 		add	r7, r7, #24
 10100 0028 BD46     		mov	sp, r7
 10101 002a 80BD     		pop	{r7, pc}
 10102              		.cfi_endproc
 10103              	.LFE16:
 10105              		.section	.text.PWMGenIntUnregister,"ax",%progbits
 10106              		.align	2
 10107              		.global	PWMGenIntUnregister
 10108              		.thumb
 10109              		.thumb_func
 10111              	PWMGenIntUnregister:
 10112              	.LFB17:
1035:/home/cuil/workspace/arm/lm3s811/TI_Stellaris/driverlib/pwm.c **** 
1036:/home/cuil/workspace/arm/lm3s811/TI_Stellaris/driverlib/pwm.c **** //*****************************************************************************
1037:/home/cuil/workspace/arm/lm3s811/TI_Stellaris/driverlib/pwm.c **** //
1038:/home/cuil/workspace/arm/lm3s811/TI_Stellaris/driverlib/pwm.c **** //! Removes an interrupt handler for the specified PWM generator block.
1039:/home/cuil/workspace/arm/lm3s811/TI_Stellaris/driverlib/pwm.c **** //!
1040:/home/cuil/workspace/arm/lm3s811/TI_Stellaris/driverlib/pwm.c **** //! \param ulBase is the base address of the PWM module.
1041:/home/cuil/workspace/arm/lm3s811/TI_Stellaris/driverlib/pwm.c **** //! \param ulGen is the PWM generator in question.  This parameter must be one 
1042:/home/cuil/workspace/arm/lm3s811/TI_Stellaris/driverlib/pwm.c **** //! of \b PWM_GEN_0, \b PWM_GEN_1, \b PWM_GEN_2, or \b PWM_GEN_3.
1043:/home/cuil/workspace/arm/lm3s811/TI_Stellaris/driverlib/pwm.c **** //!
1044:/home/cuil/workspace/arm/lm3s811/TI_Stellaris/driverlib/pwm.c **** //! This function unregisters the interrupt handler for the specified
1045:/home/cuil/workspace/arm/lm3s811/TI_Stellaris/driverlib/pwm.c **** //! PWM generator block.  This function also disables the corresponding
1046:/home/cuil/workspace/arm/lm3s811/TI_Stellaris/driverlib/pwm.c **** //! PWM generator interrupt in the interrupt controller; individual generator
1047:/home/cuil/workspace/arm/lm3s811/TI_Stellaris/driverlib/pwm.c **** //! interrupts and interrupt sources must be disabled with PWMIntDisable() and
1048:/home/cuil/workspace/arm/lm3s811/TI_Stellaris/driverlib/pwm.c **** //! PWMGenIntTrigDisable().
1049:/home/cuil/workspace/arm/lm3s811/TI_Stellaris/driverlib/pwm.c **** //!
1050:/home/cuil/workspace/arm/lm3s811/TI_Stellaris/driverlib/pwm.c **** //! \sa IntRegister() for important information about registering interrupt
1051:/home/cuil/workspace/arm/lm3s811/TI_Stellaris/driverlib/pwm.c **** //! handlers.
1052:/home/cuil/workspace/arm/lm3s811/TI_Stellaris/driverlib/pwm.c **** //!
1053:/home/cuil/workspace/arm/lm3s811/TI_Stellaris/driverlib/pwm.c **** //! \return None.
1054:/home/cuil/workspace/arm/lm3s811/TI_Stellaris/driverlib/pwm.c **** //
1055:/home/cuil/workspace/arm/lm3s811/TI_Stellaris/driverlib/pwm.c **** //*****************************************************************************
1056:/home/cuil/workspace/arm/lm3s811/TI_Stellaris/driverlib/pwm.c **** void
1057:/home/cuil/workspace/arm/lm3s811/TI_Stellaris/driverlib/pwm.c **** PWMGenIntUnregister(unsigned long ulBase, unsigned long ulGen)
1058:/home/cuil/workspace/arm/lm3s811/TI_Stellaris/driverlib/pwm.c **** {
 10113              		.loc 1 1058 0
 10114              		.cfi_startproc
 10115              		@ args = 0, pretend = 0, frame = 16
 10116              		@ frame_needed = 1, uses_anonymous_args = 0
 10117 0000 80B5     		push	{r7, lr}
 10118              	.LCFI51:
 10119              		.cfi_def_cfa_offset 8
 10120 0002 84B0     		sub	sp, sp, #16
 10121              	.LCFI52:
 10122              		.cfi_def_cfa_offset 24
 10123 0004 00AF     		add	r7, sp, #0
 10124              		.cfi_offset 14, -4
 10125              		.cfi_offset 7, -8
 10126              	.LCFI53:
 10127              		.cfi_def_cfa_register 7
 10128 0006 7860     		str	r0, [r7, #4]
 10129 0008 3960     		str	r1, [r7, #0]
1059:/home/cuil/workspace/arm/lm3s811/TI_Stellaris/driverlib/pwm.c ****     unsigned long ulInt;
1060:/home/cuil/workspace/arm/lm3s811/TI_Stellaris/driverlib/pwm.c **** 
1061:/home/cuil/workspace/arm/lm3s811/TI_Stellaris/driverlib/pwm.c ****     //
1062:/home/cuil/workspace/arm/lm3s811/TI_Stellaris/driverlib/pwm.c ****     // Check the arguments.
1063:/home/cuil/workspace/arm/lm3s811/TI_Stellaris/driverlib/pwm.c ****     //
1064:/home/cuil/workspace/arm/lm3s811/TI_Stellaris/driverlib/pwm.c ****     ASSERT((ulBase == PWM0_BASE) || (ulBase == PWM1_BASE));
1065:/home/cuil/workspace/arm/lm3s811/TI_Stellaris/driverlib/pwm.c ****     ASSERT(PWMGenValid(ulGen));
1066:/home/cuil/workspace/arm/lm3s811/TI_Stellaris/driverlib/pwm.c **** 
1067:/home/cuil/workspace/arm/lm3s811/TI_Stellaris/driverlib/pwm.c ****     //
1068:/home/cuil/workspace/arm/lm3s811/TI_Stellaris/driverlib/pwm.c ****     // Get the interrupt number associated with the specified generator.
1069:/home/cuil/workspace/arm/lm3s811/TI_Stellaris/driverlib/pwm.c ****     //
1070:/home/cuil/workspace/arm/lm3s811/TI_Stellaris/driverlib/pwm.c ****     ulInt = PWMGenIntGet(ulBase, ulGen);
 10130              		.loc 1 1070 0
 10131 000a 7868     		ldr	r0, [r7, #4]
 10132 000c 3968     		ldr	r1, [r7, #0]
 10133 000e FFF7FEFF 		bl	PWMGenIntGet
 10134 0012 F860     		str	r0, [r7, #12]
1071:/home/cuil/workspace/arm/lm3s811/TI_Stellaris/driverlib/pwm.c **** 
1072:/home/cuil/workspace/arm/lm3s811/TI_Stellaris/driverlib/pwm.c ****     //
1073:/home/cuil/workspace/arm/lm3s811/TI_Stellaris/driverlib/pwm.c ****     // Disable the PWMx interrupt.
1074:/home/cuil/workspace/arm/lm3s811/TI_Stellaris/driverlib/pwm.c ****     //
1075:/home/cuil/workspace/arm/lm3s811/TI_Stellaris/driverlib/pwm.c ****     IntDisable(ulInt);
 10135              		.loc 1 1075 0
 10136 0014 F868     		ldr	r0, [r7, #12]
 10137 0016 FFF7FEFF 		bl	IntDisable
1076:/home/cuil/workspace/arm/lm3s811/TI_Stellaris/driverlib/pwm.c **** 
1077:/home/cuil/workspace/arm/lm3s811/TI_Stellaris/driverlib/pwm.c ****     //
1078:/home/cuil/workspace/arm/lm3s811/TI_Stellaris/driverlib/pwm.c ****     // Unregister the interrupt handler.
1079:/home/cuil/workspace/arm/lm3s811/TI_Stellaris/driverlib/pwm.c ****     //
1080:/home/cuil/workspace/arm/lm3s811/TI_Stellaris/driverlib/pwm.c ****     IntUnregister(ulInt);
 10138              		.loc 1 1080 0
 10139 001a F868     		ldr	r0, [r7, #12]
 10140 001c FFF7FEFF 		bl	IntUnregister
1081:/home/cuil/workspace/arm/lm3s811/TI_Stellaris/driverlib/pwm.c **** }
 10141              		.loc 1 1081 0
 10142 0020 07F11007 		add	r7, r7, #16
 10143 0024 BD46     		mov	sp, r7
 10144 0026 80BD     		pop	{r7, pc}
 10145              		.cfi_endproc
 10146              	.LFE17:
 10148              		.section	.text.PWMFaultIntGet,"ax",%progbits
 10149              		.align	2
 10150              		.thumb
 10151              		.thumb_func
 10153              	PWMFaultIntGet:
 10154              	.LFB18:
1082:/home/cuil/workspace/arm/lm3s811/TI_Stellaris/driverlib/pwm.c **** 
1083:/home/cuil/workspace/arm/lm3s811/TI_Stellaris/driverlib/pwm.c **** //*****************************************************************************
1084:/home/cuil/workspace/arm/lm3s811/TI_Stellaris/driverlib/pwm.c **** //
1085:/home/cuil/workspace/arm/lm3s811/TI_Stellaris/driverlib/pwm.c **** //! Gets the PWM fault interrupt number.
1086:/home/cuil/workspace/arm/lm3s811/TI_Stellaris/driverlib/pwm.c **** //!
1087:/home/cuil/workspace/arm/lm3s811/TI_Stellaris/driverlib/pwm.c **** //! \param ulBase is the base address of the PWM module.
1088:/home/cuil/workspace/arm/lm3s811/TI_Stellaris/driverlib/pwm.c **** //!
1089:/home/cuil/workspace/arm/lm3s811/TI_Stellaris/driverlib/pwm.c **** //! This function returns the fault interrupt number of the corresponding
1090:/home/cuil/workspace/arm/lm3s811/TI_Stellaris/driverlib/pwm.c **** //! PWM module.
1091:/home/cuil/workspace/arm/lm3s811/TI_Stellaris/driverlib/pwm.c **** //!
1092:/home/cuil/workspace/arm/lm3s811/TI_Stellaris/driverlib/pwm.c **** //! \return Returns the interrupt number.
1093:/home/cuil/workspace/arm/lm3s811/TI_Stellaris/driverlib/pwm.c **** //
1094:/home/cuil/workspace/arm/lm3s811/TI_Stellaris/driverlib/pwm.c **** //*****************************************************************************
1095:/home/cuil/workspace/arm/lm3s811/TI_Stellaris/driverlib/pwm.c **** static unsigned long
1096:/home/cuil/workspace/arm/lm3s811/TI_Stellaris/driverlib/pwm.c **** PWMFaultIntGet(unsigned long ulBase)
1097:/home/cuil/workspace/arm/lm3s811/TI_Stellaris/driverlib/pwm.c **** {
 10155              		.loc 1 1097 0
 10156              		.cfi_startproc
 10157              		@ args = 0, pretend = 0, frame = 8
 10158              		@ frame_needed = 1, uses_anonymous_args = 0
 10159              		@ link register save eliminated.
 10160 0000 80B4     		push	{r7}
 10161              	.LCFI54:
 10162              		.cfi_def_cfa_offset 4
 10163 0002 83B0     		sub	sp, sp, #12
 10164              	.LCFI55:
 10165              		.cfi_def_cfa_offset 16
 10166 0004 00AF     		add	r7, sp, #0
 10167              		.cfi_offset 7, -4
 10168              	.LCFI56:
 10169              		.cfi_def_cfa_register 7
 10170 0006 7860     		str	r0, [r7, #4]
1098:/home/cuil/workspace/arm/lm3s811/TI_Stellaris/driverlib/pwm.c ****     //
1099:/home/cuil/workspace/arm/lm3s811/TI_Stellaris/driverlib/pwm.c ****     // Return the fault interrupt number.
1100:/home/cuil/workspace/arm/lm3s811/TI_Stellaris/driverlib/pwm.c ****     //
1101:/home/cuil/workspace/arm/lm3s811/TI_Stellaris/driverlib/pwm.c ****     return((ulBase == PWM0_BASE) ? INT_PWM0_FAULT : INT_PWM1_FAULT);
 10171              		.loc 1 1101 0
 10172 0008 7A68     		ldr	r2, [r7, #4]
 10173 000a 074B     		ldr	r3, .L58
 10174 000c 9A42     		cmp	r2, r3
 10175 000e 02D1     		bne	.L56
 10176              		.loc 1 1101 0 is_stmt 0 discriminator 1
 10177 0010 4FF01903 		mov	r3, #25
 10178 0014 01E0     		b	.L57
 10179              	.L56:
 10180              		.loc 1 1101 0 discriminator 2
 10181 0016 4FF09A03 		mov	r3, #154
 10182              	.L57:
1102:/home/cuil/workspace/arm/lm3s811/TI_Stellaris/driverlib/pwm.c **** }
 10183              		.loc 1 1102 0 is_stmt 1 discriminator 3
 10184 001a 1846     		mov	r0, r3
 10185 001c 07F10C07 		add	r7, r7, #12
 10186 0020 BD46     		mov	sp, r7
 10187 0022 80BC     		pop	{r7}
 10188 0024 7047     		bx	lr
 10189              	.L59:
 10190 0026 00BF     		.align	2
 10191              	.L58:
 10192 0028 00800240 		.word	1073905664
 10193              		.cfi_endproc
 10194              	.LFE18:
 10196              		.section	.text.PWMFaultIntRegister,"ax",%progbits
 10197              		.align	2
 10198              		.global	PWMFaultIntRegister
 10199              		.thumb
 10200              		.thumb_func
 10202              	PWMFaultIntRegister:
 10203              	.LFB19:
1103:/home/cuil/workspace/arm/lm3s811/TI_Stellaris/driverlib/pwm.c **** 
1104:/home/cuil/workspace/arm/lm3s811/TI_Stellaris/driverlib/pwm.c **** //*****************************************************************************
1105:/home/cuil/workspace/arm/lm3s811/TI_Stellaris/driverlib/pwm.c **** //
1106:/home/cuil/workspace/arm/lm3s811/TI_Stellaris/driverlib/pwm.c **** //! Registers an interrupt handler for a fault condition detected in a PWM
1107:/home/cuil/workspace/arm/lm3s811/TI_Stellaris/driverlib/pwm.c **** //! module.
1108:/home/cuil/workspace/arm/lm3s811/TI_Stellaris/driverlib/pwm.c **** //!
1109:/home/cuil/workspace/arm/lm3s811/TI_Stellaris/driverlib/pwm.c **** //! \param ulBase is the base address of the PWM module.
1110:/home/cuil/workspace/arm/lm3s811/TI_Stellaris/driverlib/pwm.c **** //! \param pfnIntHandler is a pointer to the function to be called when the PWM
1111:/home/cuil/workspace/arm/lm3s811/TI_Stellaris/driverlib/pwm.c **** //! fault interrupt occurs.
1112:/home/cuil/workspace/arm/lm3s811/TI_Stellaris/driverlib/pwm.c **** //!
1113:/home/cuil/workspace/arm/lm3s811/TI_Stellaris/driverlib/pwm.c **** //! This function ensures that the interrupt handler specified by
1114:/home/cuil/workspace/arm/lm3s811/TI_Stellaris/driverlib/pwm.c **** //! \e pfnIntHandler is called when a fault interrupt is detected for the
1115:/home/cuil/workspace/arm/lm3s811/TI_Stellaris/driverlib/pwm.c **** //! selected PWM module.  This function also enables the PWM fault
1116:/home/cuil/workspace/arm/lm3s811/TI_Stellaris/driverlib/pwm.c **** //! interrupt in the NVIC; the PWM fault interrupt must also be enabled at the
1117:/home/cuil/workspace/arm/lm3s811/TI_Stellaris/driverlib/pwm.c **** //! module level using PWMIntEnable().
1118:/home/cuil/workspace/arm/lm3s811/TI_Stellaris/driverlib/pwm.c **** //!
1119:/home/cuil/workspace/arm/lm3s811/TI_Stellaris/driverlib/pwm.c **** //! \sa IntRegister() for important information about registering interrupt
1120:/home/cuil/workspace/arm/lm3s811/TI_Stellaris/driverlib/pwm.c **** //! handlers.
1121:/home/cuil/workspace/arm/lm3s811/TI_Stellaris/driverlib/pwm.c **** //!
1122:/home/cuil/workspace/arm/lm3s811/TI_Stellaris/driverlib/pwm.c **** //! \return None.
1123:/home/cuil/workspace/arm/lm3s811/TI_Stellaris/driverlib/pwm.c **** //
1124:/home/cuil/workspace/arm/lm3s811/TI_Stellaris/driverlib/pwm.c **** //*****************************************************************************
1125:/home/cuil/workspace/arm/lm3s811/TI_Stellaris/driverlib/pwm.c **** void
1126:/home/cuil/workspace/arm/lm3s811/TI_Stellaris/driverlib/pwm.c **** PWMFaultIntRegister(unsigned long ulBase, void (*pfnIntHandler)(void))
1127:/home/cuil/workspace/arm/lm3s811/TI_Stellaris/driverlib/pwm.c **** {
 10204              		.loc 1 1127 0
 10205              		.cfi_startproc
 10206              		@ args = 0, pretend = 0, frame = 16
 10207              		@ frame_needed = 1, uses_anonymous_args = 0
 10208 0000 80B5     		push	{r7, lr}
 10209              	.LCFI57:
 10210              		.cfi_def_cfa_offset 8
 10211 0002 84B0     		sub	sp, sp, #16
 10212              	.LCFI58:
 10213              		.cfi_def_cfa_offset 24
 10214 0004 00AF     		add	r7, sp, #0
 10215              		.cfi_offset 14, -4
 10216              		.cfi_offset 7, -8
 10217              	.LCFI59:
 10218              		.cfi_def_cfa_register 7
 10219 0006 7860     		str	r0, [r7, #4]
 10220 0008 3960     		str	r1, [r7, #0]
1128:/home/cuil/workspace/arm/lm3s811/TI_Stellaris/driverlib/pwm.c ****     unsigned long ulInt;
1129:/home/cuil/workspace/arm/lm3s811/TI_Stellaris/driverlib/pwm.c **** 
1130:/home/cuil/workspace/arm/lm3s811/TI_Stellaris/driverlib/pwm.c ****     //
1131:/home/cuil/workspace/arm/lm3s811/TI_Stellaris/driverlib/pwm.c ****     // Check the arguments.
1132:/home/cuil/workspace/arm/lm3s811/TI_Stellaris/driverlib/pwm.c ****     //
1133:/home/cuil/workspace/arm/lm3s811/TI_Stellaris/driverlib/pwm.c ****     ASSERT((ulBase == PWM0_BASE) || (ulBase == PWM1_BASE));
1134:/home/cuil/workspace/arm/lm3s811/TI_Stellaris/driverlib/pwm.c **** 
1135:/home/cuil/workspace/arm/lm3s811/TI_Stellaris/driverlib/pwm.c ****     //
1136:/home/cuil/workspace/arm/lm3s811/TI_Stellaris/driverlib/pwm.c ****     // Get the interrupt number associated with the specified module.
1137:/home/cuil/workspace/arm/lm3s811/TI_Stellaris/driverlib/pwm.c ****     //
1138:/home/cuil/workspace/arm/lm3s811/TI_Stellaris/driverlib/pwm.c ****     ulInt = PWMFaultIntGet(ulBase);
 10221              		.loc 1 1138 0
 10222 000a 7868     		ldr	r0, [r7, #4]
 10223 000c FFF7FEFF 		bl	PWMFaultIntGet
 10224 0010 F860     		str	r0, [r7, #12]
1139:/home/cuil/workspace/arm/lm3s811/TI_Stellaris/driverlib/pwm.c **** 
1140:/home/cuil/workspace/arm/lm3s811/TI_Stellaris/driverlib/pwm.c ****     //
1141:/home/cuil/workspace/arm/lm3s811/TI_Stellaris/driverlib/pwm.c ****     // Register the interrupt handler, returning an error if one occurs.
1142:/home/cuil/workspace/arm/lm3s811/TI_Stellaris/driverlib/pwm.c ****     //
1143:/home/cuil/workspace/arm/lm3s811/TI_Stellaris/driverlib/pwm.c ****     IntRegister(ulInt, pfnIntHandler);
 10225              		.loc 1 1143 0
 10226 0012 F868     		ldr	r0, [r7, #12]
 10227 0014 3968     		ldr	r1, [r7, #0]
 10228 0016 FFF7FEFF 		bl	IntRegister
1144:/home/cuil/workspace/arm/lm3s811/TI_Stellaris/driverlib/pwm.c **** 
1145:/home/cuil/workspace/arm/lm3s811/TI_Stellaris/driverlib/pwm.c ****     //
1146:/home/cuil/workspace/arm/lm3s811/TI_Stellaris/driverlib/pwm.c ****     // Enable the PWM fault interrupt.
1147:/home/cuil/workspace/arm/lm3s811/TI_Stellaris/driverlib/pwm.c ****     //
1148:/home/cuil/workspace/arm/lm3s811/TI_Stellaris/driverlib/pwm.c ****     IntEnable(ulInt);
 10229              		.loc 1 1148 0
 10230 001a F868     		ldr	r0, [r7, #12]
 10231 001c FFF7FEFF 		bl	IntEnable
1149:/home/cuil/workspace/arm/lm3s811/TI_Stellaris/driverlib/pwm.c **** }
 10232              		.loc 1 1149 0
 10233 0020 07F11007 		add	r7, r7, #16
 10234 0024 BD46     		mov	sp, r7
 10235 0026 80BD     		pop	{r7, pc}
 10236              		.cfi_endproc
 10237              	.LFE19:
 10239              		.section	.text.PWMFaultIntUnregister,"ax",%progbits
 10240              		.align	2
 10241              		.global	PWMFaultIntUnregister
 10242              		.thumb
 10243              		.thumb_func
 10245              	PWMFaultIntUnregister:
 10246              	.LFB20:
1150:/home/cuil/workspace/arm/lm3s811/TI_Stellaris/driverlib/pwm.c **** 
1151:/home/cuil/workspace/arm/lm3s811/TI_Stellaris/driverlib/pwm.c **** //*****************************************************************************
1152:/home/cuil/workspace/arm/lm3s811/TI_Stellaris/driverlib/pwm.c **** //
1153:/home/cuil/workspace/arm/lm3s811/TI_Stellaris/driverlib/pwm.c **** //! Removes the PWM fault condition interrupt handler.
1154:/home/cuil/workspace/arm/lm3s811/TI_Stellaris/driverlib/pwm.c **** //!
1155:/home/cuil/workspace/arm/lm3s811/TI_Stellaris/driverlib/pwm.c **** //! \param ulBase is the base address of the PWM module.
1156:/home/cuil/workspace/arm/lm3s811/TI_Stellaris/driverlib/pwm.c **** //!
1157:/home/cuil/workspace/arm/lm3s811/TI_Stellaris/driverlib/pwm.c **** //! This function removes the interrupt handler for a PWM fault interrupt
1158:/home/cuil/workspace/arm/lm3s811/TI_Stellaris/driverlib/pwm.c **** //! from the selected PWM module.  This function also disables the PWM
1159:/home/cuil/workspace/arm/lm3s811/TI_Stellaris/driverlib/pwm.c **** //! fault interrupt in the NVIC; the PWM fault interrupt must also be disabled
1160:/home/cuil/workspace/arm/lm3s811/TI_Stellaris/driverlib/pwm.c **** //! at the module level using PWMIntDisable().
1161:/home/cuil/workspace/arm/lm3s811/TI_Stellaris/driverlib/pwm.c **** //!
1162:/home/cuil/workspace/arm/lm3s811/TI_Stellaris/driverlib/pwm.c **** //! \sa IntRegister() for important information about registering interrupt
1163:/home/cuil/workspace/arm/lm3s811/TI_Stellaris/driverlib/pwm.c **** //! handlers.
1164:/home/cuil/workspace/arm/lm3s811/TI_Stellaris/driverlib/pwm.c **** //!
1165:/home/cuil/workspace/arm/lm3s811/TI_Stellaris/driverlib/pwm.c **** //! \return None.
1166:/home/cuil/workspace/arm/lm3s811/TI_Stellaris/driverlib/pwm.c **** //
1167:/home/cuil/workspace/arm/lm3s811/TI_Stellaris/driverlib/pwm.c **** //*****************************************************************************
1168:/home/cuil/workspace/arm/lm3s811/TI_Stellaris/driverlib/pwm.c **** void
1169:/home/cuil/workspace/arm/lm3s811/TI_Stellaris/driverlib/pwm.c **** PWMFaultIntUnregister(unsigned long ulBase)
1170:/home/cuil/workspace/arm/lm3s811/TI_Stellaris/driverlib/pwm.c **** {
 10247              		.loc 1 1170 0
 10248              		.cfi_startproc
 10249              		@ args = 0, pretend = 0, frame = 16
 10250              		@ frame_needed = 1, uses_anonymous_args = 0
 10251 0000 80B5     		push	{r7, lr}
 10252              	.LCFI60:
 10253              		.cfi_def_cfa_offset 8
 10254 0002 84B0     		sub	sp, sp, #16
 10255              	.LCFI61:
 10256              		.cfi_def_cfa_offset 24
 10257 0004 00AF     		add	r7, sp, #0
 10258              		.cfi_offset 14, -4
 10259              		.cfi_offset 7, -8
 10260              	.LCFI62:
 10261              		.cfi_def_cfa_register 7
 10262 0006 7860     		str	r0, [r7, #4]
1171:/home/cuil/workspace/arm/lm3s811/TI_Stellaris/driverlib/pwm.c ****     unsigned long ulInt;
1172:/home/cuil/workspace/arm/lm3s811/TI_Stellaris/driverlib/pwm.c **** 
1173:/home/cuil/workspace/arm/lm3s811/TI_Stellaris/driverlib/pwm.c ****     //
1174:/home/cuil/workspace/arm/lm3s811/TI_Stellaris/driverlib/pwm.c ****     // Check the arguments.
1175:/home/cuil/workspace/arm/lm3s811/TI_Stellaris/driverlib/pwm.c ****     //
1176:/home/cuil/workspace/arm/lm3s811/TI_Stellaris/driverlib/pwm.c ****     ASSERT((ulBase == PWM0_BASE) || (ulBase == PWM1_BASE));
1177:/home/cuil/workspace/arm/lm3s811/TI_Stellaris/driverlib/pwm.c **** 
1178:/home/cuil/workspace/arm/lm3s811/TI_Stellaris/driverlib/pwm.c ****     //
1179:/home/cuil/workspace/arm/lm3s811/TI_Stellaris/driverlib/pwm.c ****     // Get the interrupt number associated with the specified module.
1180:/home/cuil/workspace/arm/lm3s811/TI_Stellaris/driverlib/pwm.c ****     //
1181:/home/cuil/workspace/arm/lm3s811/TI_Stellaris/driverlib/pwm.c ****     ulInt = PWMFaultIntGet(ulBase);
 10263              		.loc 1 1181 0
 10264 0008 7868     		ldr	r0, [r7, #4]
 10265 000a FFF7FEFF 		bl	PWMFaultIntGet
 10266 000e F860     		str	r0, [r7, #12]
1182:/home/cuil/workspace/arm/lm3s811/TI_Stellaris/driverlib/pwm.c **** 
1183:/home/cuil/workspace/arm/lm3s811/TI_Stellaris/driverlib/pwm.c ****     //
1184:/home/cuil/workspace/arm/lm3s811/TI_Stellaris/driverlib/pwm.c ****     // Disable the PWM fault interrupt.
1185:/home/cuil/workspace/arm/lm3s811/TI_Stellaris/driverlib/pwm.c ****     //
1186:/home/cuil/workspace/arm/lm3s811/TI_Stellaris/driverlib/pwm.c ****     IntDisable(ulInt);
 10267              		.loc 1 1186 0
 10268 0010 F868     		ldr	r0, [r7, #12]
 10269 0012 FFF7FEFF 		bl	IntDisable
1187:/home/cuil/workspace/arm/lm3s811/TI_Stellaris/driverlib/pwm.c **** 
1188:/home/cuil/workspace/arm/lm3s811/TI_Stellaris/driverlib/pwm.c ****     //
1189:/home/cuil/workspace/arm/lm3s811/TI_Stellaris/driverlib/pwm.c ****     // Unregister the interrupt handler, returning an error if one occurs.
1190:/home/cuil/workspace/arm/lm3s811/TI_Stellaris/driverlib/pwm.c ****     //
1191:/home/cuil/workspace/arm/lm3s811/TI_Stellaris/driverlib/pwm.c ****     IntUnregister(ulInt);
 10270              		.loc 1 1191 0
 10271 0016 F868     		ldr	r0, [r7, #12]
 10272 0018 FFF7FEFF 		bl	IntUnregister
1192:/home/cuil/workspace/arm/lm3s811/TI_Stellaris/driverlib/pwm.c **** }
 10273              		.loc 1 1192 0
 10274 001c 07F11007 		add	r7, r7, #16
 10275 0020 BD46     		mov	sp, r7
 10276 0022 80BD     		pop	{r7, pc}
 10277              		.cfi_endproc
 10278              	.LFE20:
 10280              		.section	.text.PWMGenIntTrigEnable,"ax",%progbits
 10281              		.align	2
 10282              		.global	PWMGenIntTrigEnable
 10283              		.thumb
 10284              		.thumb_func
 10286              	PWMGenIntTrigEnable:
 10287              	.LFB21:
1193:/home/cuil/workspace/arm/lm3s811/TI_Stellaris/driverlib/pwm.c **** 
1194:/home/cuil/workspace/arm/lm3s811/TI_Stellaris/driverlib/pwm.c **** //*****************************************************************************
1195:/home/cuil/workspace/arm/lm3s811/TI_Stellaris/driverlib/pwm.c **** //
1196:/home/cuil/workspace/arm/lm3s811/TI_Stellaris/driverlib/pwm.c **** //! Enables interrupts and triggers for the specified PWM generator block.
1197:/home/cuil/workspace/arm/lm3s811/TI_Stellaris/driverlib/pwm.c **** //!
1198:/home/cuil/workspace/arm/lm3s811/TI_Stellaris/driverlib/pwm.c **** //! \param ulBase is the base address of the PWM module.
1199:/home/cuil/workspace/arm/lm3s811/TI_Stellaris/driverlib/pwm.c **** //! \param ulGen is the PWM generator to have interrupts and triggers enabled.
1200:/home/cuil/workspace/arm/lm3s811/TI_Stellaris/driverlib/pwm.c **** //! This parameter must be one of \b PWM_GEN_0, \b PWM_GEN_1, \b PWM_GEN_2, or 
1201:/home/cuil/workspace/arm/lm3s811/TI_Stellaris/driverlib/pwm.c **** //! \b PWM_GEN_3.
1202:/home/cuil/workspace/arm/lm3s811/TI_Stellaris/driverlib/pwm.c **** //! \param ulIntTrig specifies the interrupts and triggers to be enabled.
1203:/home/cuil/workspace/arm/lm3s811/TI_Stellaris/driverlib/pwm.c **** //!
1204:/home/cuil/workspace/arm/lm3s811/TI_Stellaris/driverlib/pwm.c **** //! This function unmasks the specified interrupt(s) and trigger(s) by setting 
1205:/home/cuil/workspace/arm/lm3s811/TI_Stellaris/driverlib/pwm.c **** //! the specified bits of the interrupt/trigger enable register for the 
1206:/home/cuil/workspace/arm/lm3s811/TI_Stellaris/driverlib/pwm.c **** //! specified PWM generator.  The \e ulIntTrig parameter is the logical OR of
1207:/home/cuil/workspace/arm/lm3s811/TI_Stellaris/driverlib/pwm.c **** //! \b PWM_INT_CNT_ZERO, \b PWM_INT_CNT_LOAD, \b PWM_INT_CNT_AU,
1208:/home/cuil/workspace/arm/lm3s811/TI_Stellaris/driverlib/pwm.c **** //! \b PWM_INT_CNT_AD, \b PWM_INT_CNT_BU, \b PWM_INT_CNT_BD,
1209:/home/cuil/workspace/arm/lm3s811/TI_Stellaris/driverlib/pwm.c **** //! \b PWM_TR_CNT_ZERO, \b PWM_TR_CNT_LOAD, \b PWM_TR_CNT_AU, \b PWM_TR_CNT_AD,
1210:/home/cuil/workspace/arm/lm3s811/TI_Stellaris/driverlib/pwm.c **** //! \b PWM_TR_CNT_BU, or \b PWM_TR_CNT_BD.
1211:/home/cuil/workspace/arm/lm3s811/TI_Stellaris/driverlib/pwm.c **** //!
1212:/home/cuil/workspace/arm/lm3s811/TI_Stellaris/driverlib/pwm.c **** //! \return None.
1213:/home/cuil/workspace/arm/lm3s811/TI_Stellaris/driverlib/pwm.c **** //
1214:/home/cuil/workspace/arm/lm3s811/TI_Stellaris/driverlib/pwm.c **** //*****************************************************************************
1215:/home/cuil/workspace/arm/lm3s811/TI_Stellaris/driverlib/pwm.c **** void
1216:/home/cuil/workspace/arm/lm3s811/TI_Stellaris/driverlib/pwm.c **** PWMGenIntTrigEnable(unsigned long ulBase, unsigned long ulGen,
1217:/home/cuil/workspace/arm/lm3s811/TI_Stellaris/driverlib/pwm.c ****                     unsigned long ulIntTrig)
1218:/home/cuil/workspace/arm/lm3s811/TI_Stellaris/driverlib/pwm.c **** {
 10288              		.loc 1 1218 0
 10289              		.cfi_startproc
 10290              		@ args = 0, pretend = 0, frame = 16
 10291              		@ frame_needed = 1, uses_anonymous_args = 0
 10292              		@ link register save eliminated.
 10293 0000 80B4     		push	{r7}
 10294              	.LCFI63:
 10295              		.cfi_def_cfa_offset 4
 10296 0002 85B0     		sub	sp, sp, #20
 10297              	.LCFI64:
 10298              		.cfi_def_cfa_offset 24
 10299 0004 00AF     		add	r7, sp, #0
 10300              		.cfi_offset 7, -4
 10301              	.LCFI65:
 10302              		.cfi_def_cfa_register 7
 10303 0006 F860     		str	r0, [r7, #12]
 10304 0008 B960     		str	r1, [r7, #8]
 10305 000a 7A60     		str	r2, [r7, #4]
1219:/home/cuil/workspace/arm/lm3s811/TI_Stellaris/driverlib/pwm.c ****     //
1220:/home/cuil/workspace/arm/lm3s811/TI_Stellaris/driverlib/pwm.c ****     // Check the arguments.
1221:/home/cuil/workspace/arm/lm3s811/TI_Stellaris/driverlib/pwm.c ****     //
1222:/home/cuil/workspace/arm/lm3s811/TI_Stellaris/driverlib/pwm.c ****     ASSERT((ulBase == PWM0_BASE) || (ulBase == PWM1_BASE));
1223:/home/cuil/workspace/arm/lm3s811/TI_Stellaris/driverlib/pwm.c ****     ASSERT(PWMGenValid(ulGen));
1224:/home/cuil/workspace/arm/lm3s811/TI_Stellaris/driverlib/pwm.c ****     ASSERT((ulIntTrig & ~(PWM_INT_CNT_ZERO | PWM_INT_CNT_LOAD |
1225:/home/cuil/workspace/arm/lm3s811/TI_Stellaris/driverlib/pwm.c ****                           PWM_INT_CNT_AU | PWM_INT_CNT_AD | PWM_INT_CNT_BU |
1226:/home/cuil/workspace/arm/lm3s811/TI_Stellaris/driverlib/pwm.c ****                           PWM_INT_CNT_BD | PWM_TR_CNT_ZERO | PWM_TR_CNT_LOAD |
1227:/home/cuil/workspace/arm/lm3s811/TI_Stellaris/driverlib/pwm.c ****                           PWM_TR_CNT_AU | PWM_TR_CNT_AD | PWM_TR_CNT_BU |
1228:/home/cuil/workspace/arm/lm3s811/TI_Stellaris/driverlib/pwm.c ****                           PWM_TR_CNT_BD)) == 0);
1229:/home/cuil/workspace/arm/lm3s811/TI_Stellaris/driverlib/pwm.c **** 
1230:/home/cuil/workspace/arm/lm3s811/TI_Stellaris/driverlib/pwm.c ****     //
1231:/home/cuil/workspace/arm/lm3s811/TI_Stellaris/driverlib/pwm.c ****     // Enable the specified interrupts/triggers.
1232:/home/cuil/workspace/arm/lm3s811/TI_Stellaris/driverlib/pwm.c ****     //
1233:/home/cuil/workspace/arm/lm3s811/TI_Stellaris/driverlib/pwm.c ****     HWREG(PWM_GEN_BADDR(ulBase, ulGen) + PWM_O_X_INTEN) |= ulIntTrig;
 10306              		.loc 1 1233 0
 10307 000c FA68     		ldr	r2, [r7, #12]
 10308 000e BB68     		ldr	r3, [r7, #8]
 10309 0010 D318     		adds	r3, r2, r3
 10310 0012 03F10403 		add	r3, r3, #4
 10311 0016 F968     		ldr	r1, [r7, #12]
 10312 0018 BA68     		ldr	r2, [r7, #8]
 10313 001a 8A18     		adds	r2, r1, r2
 10314 001c 02F10402 		add	r2, r2, #4
 10315 0020 1168     		ldr	r1, [r2, #0]
 10316 0022 7A68     		ldr	r2, [r7, #4]
 10317 0024 41EA0202 		orr	r2, r1, r2
 10318 0028 1A60     		str	r2, [r3, #0]
1234:/home/cuil/workspace/arm/lm3s811/TI_Stellaris/driverlib/pwm.c **** }
 10319              		.loc 1 1234 0
 10320 002a 07F11407 		add	r7, r7, #20
 10321 002e BD46     		mov	sp, r7
 10322 0030 80BC     		pop	{r7}
 10323 0032 7047     		bx	lr
 10324              		.cfi_endproc
 10325              	.LFE21:
 10327              		.section	.text.PWMGenIntTrigDisable,"ax",%progbits
 10328              		.align	2
 10329              		.global	PWMGenIntTrigDisable
 10330              		.thumb
 10331              		.thumb_func
 10333              	PWMGenIntTrigDisable:
 10334              	.LFB22:
1235:/home/cuil/workspace/arm/lm3s811/TI_Stellaris/driverlib/pwm.c **** 
1236:/home/cuil/workspace/arm/lm3s811/TI_Stellaris/driverlib/pwm.c **** //*****************************************************************************
1237:/home/cuil/workspace/arm/lm3s811/TI_Stellaris/driverlib/pwm.c **** //
1238:/home/cuil/workspace/arm/lm3s811/TI_Stellaris/driverlib/pwm.c **** //! Disables interrupts for the specified PWM generator block.
1239:/home/cuil/workspace/arm/lm3s811/TI_Stellaris/driverlib/pwm.c **** //!
1240:/home/cuil/workspace/arm/lm3s811/TI_Stellaris/driverlib/pwm.c **** //! \param ulBase is the base address of the PWM module.
1241:/home/cuil/workspace/arm/lm3s811/TI_Stellaris/driverlib/pwm.c **** //! \param ulGen is the PWM generator to have interrupts and triggers disabled.
1242:/home/cuil/workspace/arm/lm3s811/TI_Stellaris/driverlib/pwm.c **** //! This parameter must be one of \b PWM_GEN_0, \b PWM_GEN_1, \b PWM_GEN_2, or 
1243:/home/cuil/workspace/arm/lm3s811/TI_Stellaris/driverlib/pwm.c **** //! \b PWM_GEN_3.
1244:/home/cuil/workspace/arm/lm3s811/TI_Stellaris/driverlib/pwm.c **** //! \param ulIntTrig specifies the interrupts and triggers to be disabled.
1245:/home/cuil/workspace/arm/lm3s811/TI_Stellaris/driverlib/pwm.c **** //!
1246:/home/cuil/workspace/arm/lm3s811/TI_Stellaris/driverlib/pwm.c **** //! This function masks the specified interrupt(s) and trigger(s) by clearing 
1247:/home/cuil/workspace/arm/lm3s811/TI_Stellaris/driverlib/pwm.c **** //! the specified bits of the interrupt/trigger enable register for the 
1248:/home/cuil/workspace/arm/lm3s811/TI_Stellaris/driverlib/pwm.c **** //! specified PWM generator.  The \e ulIntTrig parameter is the logical OR of
1249:/home/cuil/workspace/arm/lm3s811/TI_Stellaris/driverlib/pwm.c **** //! \b PWM_INT_CNT_ZERO, \b PWM_INT_CNT_LOAD, \b PWM_INT_CNT_AU,
1250:/home/cuil/workspace/arm/lm3s811/TI_Stellaris/driverlib/pwm.c **** //! \b PWM_INT_CNT_AD, \b PWM_INT_CNT_BU, \b PWM_INT_CNT_BD,
1251:/home/cuil/workspace/arm/lm3s811/TI_Stellaris/driverlib/pwm.c **** //! \b PWM_TR_CNT_ZERO, \b PWM_TR_CNT_LOAD, \b PWM_TR_CNT_AU, \b PWM_TR_CNT_AD,
1252:/home/cuil/workspace/arm/lm3s811/TI_Stellaris/driverlib/pwm.c **** //! \b PWM_TR_CNT_BU, or \b PWM_TR_CNT_BD.
1253:/home/cuil/workspace/arm/lm3s811/TI_Stellaris/driverlib/pwm.c **** //!
1254:/home/cuil/workspace/arm/lm3s811/TI_Stellaris/driverlib/pwm.c **** //! \return None.
1255:/home/cuil/workspace/arm/lm3s811/TI_Stellaris/driverlib/pwm.c **** //
1256:/home/cuil/workspace/arm/lm3s811/TI_Stellaris/driverlib/pwm.c **** //*****************************************************************************
1257:/home/cuil/workspace/arm/lm3s811/TI_Stellaris/driverlib/pwm.c **** void
1258:/home/cuil/workspace/arm/lm3s811/TI_Stellaris/driverlib/pwm.c **** PWMGenIntTrigDisable(unsigned long ulBase, unsigned long ulGen,
1259:/home/cuil/workspace/arm/lm3s811/TI_Stellaris/driverlib/pwm.c ****                      unsigned long ulIntTrig)
1260:/home/cuil/workspace/arm/lm3s811/TI_Stellaris/driverlib/pwm.c **** {
 10335              		.loc 1 1260 0
 10336              		.cfi_startproc
 10337              		@ args = 0, pretend = 0, frame = 16
 10338              		@ frame_needed = 1, uses_anonymous_args = 0
 10339              		@ link register save eliminated.
 10340 0000 80B4     		push	{r7}
 10341              	.LCFI66:
 10342              		.cfi_def_cfa_offset 4
 10343 0002 85B0     		sub	sp, sp, #20
 10344              	.LCFI67:
 10345              		.cfi_def_cfa_offset 24
 10346 0004 00AF     		add	r7, sp, #0
 10347              		.cfi_offset 7, -4
 10348              	.LCFI68:
 10349              		.cfi_def_cfa_register 7
 10350 0006 F860     		str	r0, [r7, #12]
 10351 0008 B960     		str	r1, [r7, #8]
 10352 000a 7A60     		str	r2, [r7, #4]
1261:/home/cuil/workspace/arm/lm3s811/TI_Stellaris/driverlib/pwm.c ****     //
1262:/home/cuil/workspace/arm/lm3s811/TI_Stellaris/driverlib/pwm.c ****     // Check the arguments.
1263:/home/cuil/workspace/arm/lm3s811/TI_Stellaris/driverlib/pwm.c ****     //
1264:/home/cuil/workspace/arm/lm3s811/TI_Stellaris/driverlib/pwm.c ****     ASSERT((ulBase == PWM0_BASE) || (ulBase == PWM1_BASE));
1265:/home/cuil/workspace/arm/lm3s811/TI_Stellaris/driverlib/pwm.c ****     ASSERT(PWMGenValid(ulGen));
1266:/home/cuil/workspace/arm/lm3s811/TI_Stellaris/driverlib/pwm.c ****     ASSERT((ulIntTrig & ~(PWM_INT_CNT_ZERO | PWM_INT_CNT_LOAD |
1267:/home/cuil/workspace/arm/lm3s811/TI_Stellaris/driverlib/pwm.c ****                           PWM_INT_CNT_AU | PWM_INT_CNT_AD | PWM_INT_CNT_BU |
1268:/home/cuil/workspace/arm/lm3s811/TI_Stellaris/driverlib/pwm.c ****                           PWM_INT_CNT_BD | PWM_TR_CNT_ZERO | PWM_TR_CNT_LOAD |
1269:/home/cuil/workspace/arm/lm3s811/TI_Stellaris/driverlib/pwm.c ****                           PWM_TR_CNT_AU | PWM_TR_CNT_AD | PWM_TR_CNT_BU |
1270:/home/cuil/workspace/arm/lm3s811/TI_Stellaris/driverlib/pwm.c ****                           PWM_TR_CNT_BD)) == 0);
1271:/home/cuil/workspace/arm/lm3s811/TI_Stellaris/driverlib/pwm.c **** 
1272:/home/cuil/workspace/arm/lm3s811/TI_Stellaris/driverlib/pwm.c ****     //
1273:/home/cuil/workspace/arm/lm3s811/TI_Stellaris/driverlib/pwm.c ****     // Disable the specified interrupts/triggers.
1274:/home/cuil/workspace/arm/lm3s811/TI_Stellaris/driverlib/pwm.c ****     //
1275:/home/cuil/workspace/arm/lm3s811/TI_Stellaris/driverlib/pwm.c ****     HWREG(PWM_GEN_BADDR(ulBase, ulGen) + PWM_O_X_INTEN) &= ~(ulIntTrig);
 10353              		.loc 1 1275 0
 10354 000c FA68     		ldr	r2, [r7, #12]
 10355 000e BB68     		ldr	r3, [r7, #8]
 10356 0010 D318     		adds	r3, r2, r3
 10357 0012 03F10403 		add	r3, r3, #4
 10358 0016 F968     		ldr	r1, [r7, #12]
 10359 0018 BA68     		ldr	r2, [r7, #8]
 10360 001a 8A18     		adds	r2, r1, r2
 10361 001c 02F10402 		add	r2, r2, #4
 10362 0020 1168     		ldr	r1, [r2, #0]
 10363 0022 7A68     		ldr	r2, [r7, #4]
 10364 0024 6FEA0202 		mvn	r2, r2
 10365 0028 01EA0202 		and	r2, r1, r2
 10366 002c 1A60     		str	r2, [r3, #0]
1276:/home/cuil/workspace/arm/lm3s811/TI_Stellaris/driverlib/pwm.c **** }
 10367              		.loc 1 1276 0
 10368 002e 07F11407 		add	r7, r7, #20
 10369 0032 BD46     		mov	sp, r7
 10370 0034 80BC     		pop	{r7}
 10371 0036 7047     		bx	lr
 10372              		.cfi_endproc
 10373              	.LFE22:
 10375              		.section	.text.PWMGenIntStatus,"ax",%progbits
 10376              		.align	2
 10377              		.global	PWMGenIntStatus
 10378              		.thumb
 10379              		.thumb_func
 10381              	PWMGenIntStatus:
 10382              	.LFB23:
1277:/home/cuil/workspace/arm/lm3s811/TI_Stellaris/driverlib/pwm.c **** 
1278:/home/cuil/workspace/arm/lm3s811/TI_Stellaris/driverlib/pwm.c **** //*****************************************************************************
1279:/home/cuil/workspace/arm/lm3s811/TI_Stellaris/driverlib/pwm.c **** //
1280:/home/cuil/workspace/arm/lm3s811/TI_Stellaris/driverlib/pwm.c **** //! Gets interrupt status for the specified PWM generator block.
1281:/home/cuil/workspace/arm/lm3s811/TI_Stellaris/driverlib/pwm.c **** //!
1282:/home/cuil/workspace/arm/lm3s811/TI_Stellaris/driverlib/pwm.c **** //! \param ulBase is the base address of the PWM module.
1283:/home/cuil/workspace/arm/lm3s811/TI_Stellaris/driverlib/pwm.c **** //! \param ulGen is the PWM generator to query.  This parameter must be one of
1284:/home/cuil/workspace/arm/lm3s811/TI_Stellaris/driverlib/pwm.c **** //! \b PWM_GEN_0,  \b PWM_GEN_1, \b PWM_GEN_2, or \b PWM_GEN_3.
1285:/home/cuil/workspace/arm/lm3s811/TI_Stellaris/driverlib/pwm.c **** //! \param bMasked specifies whether masked or raw interrupt status is
1286:/home/cuil/workspace/arm/lm3s811/TI_Stellaris/driverlib/pwm.c **** //! returned.
1287:/home/cuil/workspace/arm/lm3s811/TI_Stellaris/driverlib/pwm.c **** //!
1288:/home/cuil/workspace/arm/lm3s811/TI_Stellaris/driverlib/pwm.c **** //! If \e bMasked is set as \b true, then the masked interrupt status is
1289:/home/cuil/workspace/arm/lm3s811/TI_Stellaris/driverlib/pwm.c **** //! returned; otherwise, the raw interrupt status is returned.
1290:/home/cuil/workspace/arm/lm3s811/TI_Stellaris/driverlib/pwm.c **** //!
1291:/home/cuil/workspace/arm/lm3s811/TI_Stellaris/driverlib/pwm.c **** //! \return Returns the contents of the interrupt status register or the
1292:/home/cuil/workspace/arm/lm3s811/TI_Stellaris/driverlib/pwm.c **** //! contents of the raw interrupt status register for the specified
1293:/home/cuil/workspace/arm/lm3s811/TI_Stellaris/driverlib/pwm.c **** //! PWM generator.
1294:/home/cuil/workspace/arm/lm3s811/TI_Stellaris/driverlib/pwm.c **** //
1295:/home/cuil/workspace/arm/lm3s811/TI_Stellaris/driverlib/pwm.c **** //*****************************************************************************
1296:/home/cuil/workspace/arm/lm3s811/TI_Stellaris/driverlib/pwm.c **** unsigned long
1297:/home/cuil/workspace/arm/lm3s811/TI_Stellaris/driverlib/pwm.c **** PWMGenIntStatus(unsigned long ulBase, unsigned long ulGen, tBoolean bMasked)
1298:/home/cuil/workspace/arm/lm3s811/TI_Stellaris/driverlib/pwm.c **** {
 10383              		.loc 1 1298 0
 10384              		.cfi_startproc
 10385              		@ args = 0, pretend = 0, frame = 16
 10386              		@ frame_needed = 1, uses_anonymous_args = 0
 10387              		@ link register save eliminated.
 10388 0000 80B4     		push	{r7}
 10389              	.LCFI69:
 10390              		.cfi_def_cfa_offset 4
 10391 0002 85B0     		sub	sp, sp, #20
 10392              	.LCFI70:
 10393              		.cfi_def_cfa_offset 24
 10394 0004 00AF     		add	r7, sp, #0
 10395              		.cfi_offset 7, -4
 10396              	.LCFI71:
 10397              		.cfi_def_cfa_register 7
 10398 0006 F860     		str	r0, [r7, #12]
 10399 0008 B960     		str	r1, [r7, #8]
 10400 000a 1346     		mov	r3, r2
 10401 000c FB71     		strb	r3, [r7, #7]
1299:/home/cuil/workspace/arm/lm3s811/TI_Stellaris/driverlib/pwm.c ****     //
1300:/home/cuil/workspace/arm/lm3s811/TI_Stellaris/driverlib/pwm.c ****     // Check the arguments.
1301:/home/cuil/workspace/arm/lm3s811/TI_Stellaris/driverlib/pwm.c ****     //
1302:/home/cuil/workspace/arm/lm3s811/TI_Stellaris/driverlib/pwm.c ****     ASSERT((ulBase == PWM0_BASE) || (ulBase == PWM1_BASE));
1303:/home/cuil/workspace/arm/lm3s811/TI_Stellaris/driverlib/pwm.c ****     ASSERT(PWMGenValid(ulGen));
1304:/home/cuil/workspace/arm/lm3s811/TI_Stellaris/driverlib/pwm.c **** 
1305:/home/cuil/workspace/arm/lm3s811/TI_Stellaris/driverlib/pwm.c ****     //
1306:/home/cuil/workspace/arm/lm3s811/TI_Stellaris/driverlib/pwm.c ****     // Compute the generator's base address.
1307:/home/cuil/workspace/arm/lm3s811/TI_Stellaris/driverlib/pwm.c ****     //
1308:/home/cuil/workspace/arm/lm3s811/TI_Stellaris/driverlib/pwm.c ****     ulGen = PWM_GEN_BADDR(ulBase, ulGen);
 10402              		.loc 1 1308 0
 10403 000e BA68     		ldr	r2, [r7, #8]
 10404 0010 FB68     		ldr	r3, [r7, #12]
 10405 0012 D318     		adds	r3, r2, r3
 10406 0014 BB60     		str	r3, [r7, #8]
1309:/home/cuil/workspace/arm/lm3s811/TI_Stellaris/driverlib/pwm.c **** 
1310:/home/cuil/workspace/arm/lm3s811/TI_Stellaris/driverlib/pwm.c ****     //
1311:/home/cuil/workspace/arm/lm3s811/TI_Stellaris/driverlib/pwm.c ****     // Read and return the specified generator's raw or enabled interrupt
1312:/home/cuil/workspace/arm/lm3s811/TI_Stellaris/driverlib/pwm.c ****     // status.
1313:/home/cuil/workspace/arm/lm3s811/TI_Stellaris/driverlib/pwm.c ****     //
1314:/home/cuil/workspace/arm/lm3s811/TI_Stellaris/driverlib/pwm.c ****     if(bMasked == true)
 10407              		.loc 1 1314 0
 10408 0016 FB79     		ldrb	r3, [r7, #7]	@ zero_extendqisi2
 10409 0018 012B     		cmp	r3, #1
 10410 001a 04D1     		bne	.L65
1315:/home/cuil/workspace/arm/lm3s811/TI_Stellaris/driverlib/pwm.c ****     {
1316:/home/cuil/workspace/arm/lm3s811/TI_Stellaris/driverlib/pwm.c ****         return(HWREG(ulGen + PWM_O_X_ISC));
 10411              		.loc 1 1316 0
 10412 001c BB68     		ldr	r3, [r7, #8]
 10413 001e 03F10C03 		add	r3, r3, #12
 10414 0022 1B68     		ldr	r3, [r3, #0]
 10415 0024 03E0     		b	.L66
 10416              	.L65:
1317:/home/cuil/workspace/arm/lm3s811/TI_Stellaris/driverlib/pwm.c ****     }
1318:/home/cuil/workspace/arm/lm3s811/TI_Stellaris/driverlib/pwm.c ****     else
1319:/home/cuil/workspace/arm/lm3s811/TI_Stellaris/driverlib/pwm.c ****     {
1320:/home/cuil/workspace/arm/lm3s811/TI_Stellaris/driverlib/pwm.c ****         return(HWREG(ulGen + PWM_O_X_RIS));
 10417              		.loc 1 1320 0
 10418 0026 BB68     		ldr	r3, [r7, #8]
 10419 0028 03F10803 		add	r3, r3, #8
 10420 002c 1B68     		ldr	r3, [r3, #0]
 10421              	.L66:
1321:/home/cuil/workspace/arm/lm3s811/TI_Stellaris/driverlib/pwm.c ****     }
1322:/home/cuil/workspace/arm/lm3s811/TI_Stellaris/driverlib/pwm.c **** }
 10422              		.loc 1 1322 0
 10423 002e 1846     		mov	r0, r3
 10424 0030 07F11407 		add	r7, r7, #20
 10425 0034 BD46     		mov	sp, r7
 10426 0036 80BC     		pop	{r7}
 10427 0038 7047     		bx	lr
 10428              		.cfi_endproc
 10429              	.LFE23:
 10431 003a 00BF     		.section	.text.PWMGenIntClear,"ax",%progbits
 10432              		.align	2
 10433              		.global	PWMGenIntClear
 10434              		.thumb
 10435              		.thumb_func
 10437              	PWMGenIntClear:
 10438              	.LFB24:
1323:/home/cuil/workspace/arm/lm3s811/TI_Stellaris/driverlib/pwm.c **** 
1324:/home/cuil/workspace/arm/lm3s811/TI_Stellaris/driverlib/pwm.c **** //*****************************************************************************
1325:/home/cuil/workspace/arm/lm3s811/TI_Stellaris/driverlib/pwm.c **** //
1326:/home/cuil/workspace/arm/lm3s811/TI_Stellaris/driverlib/pwm.c **** //! Clears the specified interrupt(s) for the specified PWM generator block.
1327:/home/cuil/workspace/arm/lm3s811/TI_Stellaris/driverlib/pwm.c **** //!
1328:/home/cuil/workspace/arm/lm3s811/TI_Stellaris/driverlib/pwm.c **** //! \param ulBase is the base address of the PWM module.
1329:/home/cuil/workspace/arm/lm3s811/TI_Stellaris/driverlib/pwm.c **** //! \param ulGen is the PWM generator to query.  This parameter must be one of 
1330:/home/cuil/workspace/arm/lm3s811/TI_Stellaris/driverlib/pwm.c **** //! \b PWM_GEN_0, \b PWM_GEN_1, \b PWM_GEN_2, or \b PWM_GEN_3.
1331:/home/cuil/workspace/arm/lm3s811/TI_Stellaris/driverlib/pwm.c **** //! \param ulInts specifies the interrupts to be cleared.
1332:/home/cuil/workspace/arm/lm3s811/TI_Stellaris/driverlib/pwm.c **** //!
1333:/home/cuil/workspace/arm/lm3s811/TI_Stellaris/driverlib/pwm.c **** //! This funciton clears the specified interrupt(s) by writing a 1 to the 
1334:/home/cuil/workspace/arm/lm3s811/TI_Stellaris/driverlib/pwm.c **** //! specified bits of the interrupt status register for the specified PWM
1335:/home/cuil/workspace/arm/lm3s811/TI_Stellaris/driverlib/pwm.c **** //! generator.  The \e ulInts parameter is the logical OR of
1336:/home/cuil/workspace/arm/lm3s811/TI_Stellaris/driverlib/pwm.c **** //! \b PWM_INT_CNT_ZERO, \b PWM_INT_CNT_LOAD, \b PWM_INT_CNT_AU, 
1337:/home/cuil/workspace/arm/lm3s811/TI_Stellaris/driverlib/pwm.c **** //! \b PWM_INT_CNT_AD, \b PWM_INT_CNT_BU, or \b PWM_INT_CNT_BD.
1338:/home/cuil/workspace/arm/lm3s811/TI_Stellaris/driverlib/pwm.c **** //!
1339:/home/cuil/workspace/arm/lm3s811/TI_Stellaris/driverlib/pwm.c **** //! \note Because there is a write buffer in the Cortex-M processor, it may
1340:/home/cuil/workspace/arm/lm3s811/TI_Stellaris/driverlib/pwm.c **** //! take several clock cycles before the interrupt source is actually cleared.
1341:/home/cuil/workspace/arm/lm3s811/TI_Stellaris/driverlib/pwm.c **** //! Therefore, it is recommended that the interrupt source be cleared early in
1342:/home/cuil/workspace/arm/lm3s811/TI_Stellaris/driverlib/pwm.c **** //! the interrupt handler (as opposed to the very last action) to avoid
1343:/home/cuil/workspace/arm/lm3s811/TI_Stellaris/driverlib/pwm.c **** //! returning from the interrupt handler before the interrupt source is
1344:/home/cuil/workspace/arm/lm3s811/TI_Stellaris/driverlib/pwm.c **** //! actually cleared.  Failure to do so may result in the interrupt handler
1345:/home/cuil/workspace/arm/lm3s811/TI_Stellaris/driverlib/pwm.c **** //! being immediately reentered (because the interrupt controller still sees
1346:/home/cuil/workspace/arm/lm3s811/TI_Stellaris/driverlib/pwm.c **** //! the interrupt source asserted).
1347:/home/cuil/workspace/arm/lm3s811/TI_Stellaris/driverlib/pwm.c **** //!
1348:/home/cuil/workspace/arm/lm3s811/TI_Stellaris/driverlib/pwm.c **** //! \return None.
1349:/home/cuil/workspace/arm/lm3s811/TI_Stellaris/driverlib/pwm.c **** //
1350:/home/cuil/workspace/arm/lm3s811/TI_Stellaris/driverlib/pwm.c **** //*****************************************************************************
1351:/home/cuil/workspace/arm/lm3s811/TI_Stellaris/driverlib/pwm.c **** void
1352:/home/cuil/workspace/arm/lm3s811/TI_Stellaris/driverlib/pwm.c **** PWMGenIntClear(unsigned long ulBase, unsigned long ulGen, unsigned long ulInts)
1353:/home/cuil/workspace/arm/lm3s811/TI_Stellaris/driverlib/pwm.c **** {
 10439              		.loc 1 1353 0
 10440              		.cfi_startproc
 10441              		@ args = 0, pretend = 0, frame = 16
 10442              		@ frame_needed = 1, uses_anonymous_args = 0
 10443              		@ link register save eliminated.
 10444 0000 80B4     		push	{r7}
 10445              	.LCFI72:
 10446              		.cfi_def_cfa_offset 4
 10447 0002 85B0     		sub	sp, sp, #20
 10448              	.LCFI73:
 10449              		.cfi_def_cfa_offset 24
 10450 0004 00AF     		add	r7, sp, #0
 10451              		.cfi_offset 7, -4
 10452              	.LCFI74:
 10453              		.cfi_def_cfa_register 7
 10454 0006 F860     		str	r0, [r7, #12]
 10455 0008 B960     		str	r1, [r7, #8]
 10456 000a 7A60     		str	r2, [r7, #4]
1354:/home/cuil/workspace/arm/lm3s811/TI_Stellaris/driverlib/pwm.c ****     //
1355:/home/cuil/workspace/arm/lm3s811/TI_Stellaris/driverlib/pwm.c ****     // Check the arguments.
1356:/home/cuil/workspace/arm/lm3s811/TI_Stellaris/driverlib/pwm.c ****     //
1357:/home/cuil/workspace/arm/lm3s811/TI_Stellaris/driverlib/pwm.c ****     ASSERT((ulBase == PWM0_BASE) || (ulBase == PWM1_BASE));
1358:/home/cuil/workspace/arm/lm3s811/TI_Stellaris/driverlib/pwm.c ****     ASSERT(PWMGenValid(ulGen));
1359:/home/cuil/workspace/arm/lm3s811/TI_Stellaris/driverlib/pwm.c ****     ASSERT((ulInts & ~(PWM_INT_CNT_ZERO | PWM_INT_CNT_LOAD | PWM_INT_CNT_AU |
1360:/home/cuil/workspace/arm/lm3s811/TI_Stellaris/driverlib/pwm.c ****                        PWM_INT_CNT_AD | PWM_INT_CNT_BU | PWM_INT_CNT_BD)) ==
1361:/home/cuil/workspace/arm/lm3s811/TI_Stellaris/driverlib/pwm.c ****            0);
1362:/home/cuil/workspace/arm/lm3s811/TI_Stellaris/driverlib/pwm.c **** 
1363:/home/cuil/workspace/arm/lm3s811/TI_Stellaris/driverlib/pwm.c ****     //
1364:/home/cuil/workspace/arm/lm3s811/TI_Stellaris/driverlib/pwm.c ****     // Clear the requested interrupts by writing ones to the specified bit
1365:/home/cuil/workspace/arm/lm3s811/TI_Stellaris/driverlib/pwm.c ****     // of the module's interrupt enable register.
1366:/home/cuil/workspace/arm/lm3s811/TI_Stellaris/driverlib/pwm.c ****     //
1367:/home/cuil/workspace/arm/lm3s811/TI_Stellaris/driverlib/pwm.c ****     HWREG(PWM_GEN_BADDR(ulBase, ulGen) + PWM_O_X_ISC) = ulInts;
 10457              		.loc 1 1367 0
 10458 000c FA68     		ldr	r2, [r7, #12]
 10459 000e BB68     		ldr	r3, [r7, #8]
 10460 0010 D318     		adds	r3, r2, r3
 10461 0012 03F10C03 		add	r3, r3, #12
 10462 0016 7A68     		ldr	r2, [r7, #4]
 10463 0018 1A60     		str	r2, [r3, #0]
1368:/home/cuil/workspace/arm/lm3s811/TI_Stellaris/driverlib/pwm.c **** }
 10464              		.loc 1 1368 0
 10465 001a 07F11407 		add	r7, r7, #20
 10466 001e BD46     		mov	sp, r7
 10467 0020 80BC     		pop	{r7}
 10468 0022 7047     		bx	lr
 10469              		.cfi_endproc
 10470              	.LFE24:
 10472              		.section	.text.PWMIntEnable,"ax",%progbits
 10473              		.align	2
 10474              		.global	PWMIntEnable
 10475              		.thumb
 10476              		.thumb_func
 10478              	PWMIntEnable:
 10479              	.LFB25:
1369:/home/cuil/workspace/arm/lm3s811/TI_Stellaris/driverlib/pwm.c **** 
1370:/home/cuil/workspace/arm/lm3s811/TI_Stellaris/driverlib/pwm.c **** //*****************************************************************************
1371:/home/cuil/workspace/arm/lm3s811/TI_Stellaris/driverlib/pwm.c **** //
1372:/home/cuil/workspace/arm/lm3s811/TI_Stellaris/driverlib/pwm.c **** //! Enables generator and fault interrupts for a PWM module.
1373:/home/cuil/workspace/arm/lm3s811/TI_Stellaris/driverlib/pwm.c **** //!
1374:/home/cuil/workspace/arm/lm3s811/TI_Stellaris/driverlib/pwm.c **** //! \param ulBase is the base address of the PWM module.
1375:/home/cuil/workspace/arm/lm3s811/TI_Stellaris/driverlib/pwm.c **** //! \param ulGenFault contains the interrupts to be enabled.  This parameter
1376:/home/cuil/workspace/arm/lm3s811/TI_Stellaris/driverlib/pwm.c **** //! must be a logical OR of any of \b PWM_INT_GEN_0, \b PWM_INT_GEN_1,
1377:/home/cuil/workspace/arm/lm3s811/TI_Stellaris/driverlib/pwm.c **** //! \b PWM_INT_GEN_2, \b PWM_INT_GEN_3, \b PWM_INT_FAULT0, \b PWM_INT_FAULT1, 
1378:/home/cuil/workspace/arm/lm3s811/TI_Stellaris/driverlib/pwm.c **** //! \b PWM_INT_FAULT2, or \b PWM_INT_FAULT3.
1379:/home/cuil/workspace/arm/lm3s811/TI_Stellaris/driverlib/pwm.c **** //!
1380:/home/cuil/workspace/arm/lm3s811/TI_Stellaris/driverlib/pwm.c **** //! This function unmasks the specified interrupt(s) by setting the specified
1381:/home/cuil/workspace/arm/lm3s811/TI_Stellaris/driverlib/pwm.c **** //! bits of the interrupt enable register for the selected PWM module.
1382:/home/cuil/workspace/arm/lm3s811/TI_Stellaris/driverlib/pwm.c **** //!
1383:/home/cuil/workspace/arm/lm3s811/TI_Stellaris/driverlib/pwm.c **** //! \return None.
1384:/home/cuil/workspace/arm/lm3s811/TI_Stellaris/driverlib/pwm.c **** //
1385:/home/cuil/workspace/arm/lm3s811/TI_Stellaris/driverlib/pwm.c **** //*****************************************************************************
1386:/home/cuil/workspace/arm/lm3s811/TI_Stellaris/driverlib/pwm.c **** void
1387:/home/cuil/workspace/arm/lm3s811/TI_Stellaris/driverlib/pwm.c **** PWMIntEnable(unsigned long ulBase, unsigned long ulGenFault)
1388:/home/cuil/workspace/arm/lm3s811/TI_Stellaris/driverlib/pwm.c **** {
 10480              		.loc 1 1388 0
 10481              		.cfi_startproc
 10482              		@ args = 0, pretend = 0, frame = 8
 10483              		@ frame_needed = 1, uses_anonymous_args = 0
 10484              		@ link register save eliminated.
 10485 0000 80B4     		push	{r7}
 10486              	.LCFI75:
 10487              		.cfi_def_cfa_offset 4
 10488 0002 83B0     		sub	sp, sp, #12
 10489              	.LCFI76:
 10490              		.cfi_def_cfa_offset 16
 10491 0004 00AF     		add	r7, sp, #0
 10492              		.cfi_offset 7, -4
 10493              	.LCFI77:
 10494              		.cfi_def_cfa_register 7
 10495 0006 7860     		str	r0, [r7, #4]
 10496 0008 3960     		str	r1, [r7, #0]
1389:/home/cuil/workspace/arm/lm3s811/TI_Stellaris/driverlib/pwm.c ****     //
1390:/home/cuil/workspace/arm/lm3s811/TI_Stellaris/driverlib/pwm.c ****     // Check the arguments.
1391:/home/cuil/workspace/arm/lm3s811/TI_Stellaris/driverlib/pwm.c ****     //
1392:/home/cuil/workspace/arm/lm3s811/TI_Stellaris/driverlib/pwm.c ****     ASSERT((ulBase == PWM0_BASE) || (ulBase == PWM1_BASE));
1393:/home/cuil/workspace/arm/lm3s811/TI_Stellaris/driverlib/pwm.c ****     ASSERT((ulGenFault & ~(PWM_INT_GEN_0 | PWM_INT_GEN_1 | PWM_INT_GEN_2 |
1394:/home/cuil/workspace/arm/lm3s811/TI_Stellaris/driverlib/pwm.c ****                            PWM_INT_GEN_3 | PWM_INT_FAULT0 | PWM_INT_FAULT1 |
1395:/home/cuil/workspace/arm/lm3s811/TI_Stellaris/driverlib/pwm.c ****                            PWM_INT_FAULT2 | PWM_INT_FAULT3)) == 0);
1396:/home/cuil/workspace/arm/lm3s811/TI_Stellaris/driverlib/pwm.c **** 
1397:/home/cuil/workspace/arm/lm3s811/TI_Stellaris/driverlib/pwm.c ****     //
1398:/home/cuil/workspace/arm/lm3s811/TI_Stellaris/driverlib/pwm.c ****     // Read the module's interrupt enable register and enable interrupts
1399:/home/cuil/workspace/arm/lm3s811/TI_Stellaris/driverlib/pwm.c ****     // for the specified PWM generators.
1400:/home/cuil/workspace/arm/lm3s811/TI_Stellaris/driverlib/pwm.c ****     //
1401:/home/cuil/workspace/arm/lm3s811/TI_Stellaris/driverlib/pwm.c ****     HWREG(ulBase + PWM_O_INTEN) |= ulGenFault;
 10497              		.loc 1 1401 0
 10498 000a 7B68     		ldr	r3, [r7, #4]
 10499 000c 03F11403 		add	r3, r3, #20
 10500 0010 7A68     		ldr	r2, [r7, #4]
 10501 0012 02F11402 		add	r2, r2, #20
 10502 0016 1168     		ldr	r1, [r2, #0]
 10503 0018 3A68     		ldr	r2, [r7, #0]
 10504 001a 41EA0202 		orr	r2, r1, r2
 10505 001e 1A60     		str	r2, [r3, #0]
1402:/home/cuil/workspace/arm/lm3s811/TI_Stellaris/driverlib/pwm.c **** }
 10506              		.loc 1 1402 0
 10507 0020 07F10C07 		add	r7, r7, #12
 10508 0024 BD46     		mov	sp, r7
 10509 0026 80BC     		pop	{r7}
 10510 0028 7047     		bx	lr
 10511              		.cfi_endproc
 10512              	.LFE25:
 10514 002a 00BF     		.section	.text.PWMIntDisable,"ax",%progbits
 10515              		.align	2
 10516              		.global	PWMIntDisable
 10517              		.thumb
 10518              		.thumb_func
 10520              	PWMIntDisable:
 10521              	.LFB26:
1403:/home/cuil/workspace/arm/lm3s811/TI_Stellaris/driverlib/pwm.c **** 
1404:/home/cuil/workspace/arm/lm3s811/TI_Stellaris/driverlib/pwm.c **** //*****************************************************************************
1405:/home/cuil/workspace/arm/lm3s811/TI_Stellaris/driverlib/pwm.c **** //
1406:/home/cuil/workspace/arm/lm3s811/TI_Stellaris/driverlib/pwm.c **** //! Disables generator and fault interrupts for a PWM module.
1407:/home/cuil/workspace/arm/lm3s811/TI_Stellaris/driverlib/pwm.c **** //!
1408:/home/cuil/workspace/arm/lm3s811/TI_Stellaris/driverlib/pwm.c **** //! \param ulBase is the base address of the PWM module.
1409:/home/cuil/workspace/arm/lm3s811/TI_Stellaris/driverlib/pwm.c **** //! \param ulGenFault contains the interrupts to be disabled.  This parameter 
1410:/home/cuil/workspace/arm/lm3s811/TI_Stellaris/driverlib/pwm.c **** //! must be a logical OR of any of \b PWM_INT_GEN_0, \b PWM_INT_GEN_1, 
1411:/home/cuil/workspace/arm/lm3s811/TI_Stellaris/driverlib/pwm.c **** //! \b PWM_INT_GEN_2, \b PWM_INT_GEN_3, \b PWM_INT_FAULT0, \b PWM_INT_FAULT1,
1412:/home/cuil/workspace/arm/lm3s811/TI_Stellaris/driverlib/pwm.c **** //! \b PWM_INT_FAULT2, or \b PWM_INT_FAULT3.
1413:/home/cuil/workspace/arm/lm3s811/TI_Stellaris/driverlib/pwm.c **** //!
1414:/home/cuil/workspace/arm/lm3s811/TI_Stellaris/driverlib/pwm.c **** //! This function masks the specified interrupt(s) by clearing the specified 
1415:/home/cuil/workspace/arm/lm3s811/TI_Stellaris/driverlib/pwm.c **** //! bits of the interrupt enable register for the selected PWM module.
1416:/home/cuil/workspace/arm/lm3s811/TI_Stellaris/driverlib/pwm.c **** //!
1417:/home/cuil/workspace/arm/lm3s811/TI_Stellaris/driverlib/pwm.c **** //! \return None.
1418:/home/cuil/workspace/arm/lm3s811/TI_Stellaris/driverlib/pwm.c **** //
1419:/home/cuil/workspace/arm/lm3s811/TI_Stellaris/driverlib/pwm.c **** //*****************************************************************************
1420:/home/cuil/workspace/arm/lm3s811/TI_Stellaris/driverlib/pwm.c **** void
1421:/home/cuil/workspace/arm/lm3s811/TI_Stellaris/driverlib/pwm.c **** PWMIntDisable(unsigned long ulBase, unsigned long ulGenFault)
1422:/home/cuil/workspace/arm/lm3s811/TI_Stellaris/driverlib/pwm.c **** {
 10522              		.loc 1 1422 0
 10523              		.cfi_startproc
 10524              		@ args = 0, pretend = 0, frame = 8
 10525              		@ frame_needed = 1, uses_anonymous_args = 0
 10526              		@ link register save eliminated.
 10527 0000 80B4     		push	{r7}
 10528              	.LCFI78:
 10529              		.cfi_def_cfa_offset 4
 10530 0002 83B0     		sub	sp, sp, #12
 10531              	.LCFI79:
 10532              		.cfi_def_cfa_offset 16
 10533 0004 00AF     		add	r7, sp, #0
 10534              		.cfi_offset 7, -4
 10535              	.LCFI80:
 10536              		.cfi_def_cfa_register 7
 10537 0006 7860     		str	r0, [r7, #4]
 10538 0008 3960     		str	r1, [r7, #0]
1423:/home/cuil/workspace/arm/lm3s811/TI_Stellaris/driverlib/pwm.c ****     //
1424:/home/cuil/workspace/arm/lm3s811/TI_Stellaris/driverlib/pwm.c ****     // Check the arguments.
1425:/home/cuil/workspace/arm/lm3s811/TI_Stellaris/driverlib/pwm.c ****     //
1426:/home/cuil/workspace/arm/lm3s811/TI_Stellaris/driverlib/pwm.c ****     ASSERT((ulBase == PWM0_BASE) || (ulBase == PWM1_BASE));
1427:/home/cuil/workspace/arm/lm3s811/TI_Stellaris/driverlib/pwm.c ****     ASSERT((ulGenFault & ~(PWM_INT_GEN_0 | PWM_INT_GEN_1 | PWM_INT_GEN_2 |
1428:/home/cuil/workspace/arm/lm3s811/TI_Stellaris/driverlib/pwm.c ****                            PWM_INT_GEN_3 | PWM_INT_FAULT0 | PWM_INT_FAULT1 |
1429:/home/cuil/workspace/arm/lm3s811/TI_Stellaris/driverlib/pwm.c ****                            PWM_INT_FAULT2 | PWM_INT_FAULT3)) == 0);
1430:/home/cuil/workspace/arm/lm3s811/TI_Stellaris/driverlib/pwm.c **** 
1431:/home/cuil/workspace/arm/lm3s811/TI_Stellaris/driverlib/pwm.c ****     //
1432:/home/cuil/workspace/arm/lm3s811/TI_Stellaris/driverlib/pwm.c ****     // Read the module's interrupt enable register and disable interrupts
1433:/home/cuil/workspace/arm/lm3s811/TI_Stellaris/driverlib/pwm.c ****     // for the specified PWM generators.
1434:/home/cuil/workspace/arm/lm3s811/TI_Stellaris/driverlib/pwm.c ****     //
1435:/home/cuil/workspace/arm/lm3s811/TI_Stellaris/driverlib/pwm.c ****     HWREG(ulBase + PWM_O_INTEN) &= ~(ulGenFault);
 10539              		.loc 1 1435 0
 10540 000a 7B68     		ldr	r3, [r7, #4]
 10541 000c 03F11403 		add	r3, r3, #20
 10542 0010 7A68     		ldr	r2, [r7, #4]
 10543 0012 02F11402 		add	r2, r2, #20
 10544 0016 1168     		ldr	r1, [r2, #0]
 10545 0018 3A68     		ldr	r2, [r7, #0]
 10546 001a 6FEA0202 		mvn	r2, r2
 10547 001e 01EA0202 		and	r2, r1, r2
 10548 0022 1A60     		str	r2, [r3, #0]
1436:/home/cuil/workspace/arm/lm3s811/TI_Stellaris/driverlib/pwm.c **** }
 10549              		.loc 1 1436 0
 10550 0024 07F10C07 		add	r7, r7, #12
 10551 0028 BD46     		mov	sp, r7
 10552 002a 80BC     		pop	{r7}
 10553 002c 7047     		bx	lr
 10554              		.cfi_endproc
 10555              	.LFE26:
 10557 002e 00BF     		.section	.text.PWMFaultIntClear,"ax",%progbits
 10558              		.align	2
 10559              		.global	PWMFaultIntClear
 10560              		.thumb
 10561              		.thumb_func
 10563              	PWMFaultIntClear:
 10564              	.LFB27:
1437:/home/cuil/workspace/arm/lm3s811/TI_Stellaris/driverlib/pwm.c **** 
1438:/home/cuil/workspace/arm/lm3s811/TI_Stellaris/driverlib/pwm.c **** //*****************************************************************************
1439:/home/cuil/workspace/arm/lm3s811/TI_Stellaris/driverlib/pwm.c **** //
1440:/home/cuil/workspace/arm/lm3s811/TI_Stellaris/driverlib/pwm.c **** //! Clears the fault interrupt for a PWM module.
1441:/home/cuil/workspace/arm/lm3s811/TI_Stellaris/driverlib/pwm.c **** //!
1442:/home/cuil/workspace/arm/lm3s811/TI_Stellaris/driverlib/pwm.c **** //! \param ulBase is the base address of the PWM module.
1443:/home/cuil/workspace/arm/lm3s811/TI_Stellaris/driverlib/pwm.c **** //!
1444:/home/cuil/workspace/arm/lm3s811/TI_Stellaris/driverlib/pwm.c **** //! This function clears the fault interrupt by writing to the appropriate bit 
1445:/home/cuil/workspace/arm/lm3s811/TI_Stellaris/driverlib/pwm.c **** //! of the interrupt status register for the selected PWM module.
1446:/home/cuil/workspace/arm/lm3s811/TI_Stellaris/driverlib/pwm.c **** //!
1447:/home/cuil/workspace/arm/lm3s811/TI_Stellaris/driverlib/pwm.c **** //! This function clears only the FAULT0 interrupt and is retained for
1448:/home/cuil/workspace/arm/lm3s811/TI_Stellaris/driverlib/pwm.c **** //! backwards compatibility.  It is recommended that PWMFaultIntClearExt() be
1449:/home/cuil/workspace/arm/lm3s811/TI_Stellaris/driverlib/pwm.c **** //! used instead because it supports all fault interrupts supported on devices
1450:/home/cuil/workspace/arm/lm3s811/TI_Stellaris/driverlib/pwm.c **** //! with and without extended PWM fault handling support.
1451:/home/cuil/workspace/arm/lm3s811/TI_Stellaris/driverlib/pwm.c **** //!
1452:/home/cuil/workspace/arm/lm3s811/TI_Stellaris/driverlib/pwm.c **** //! \note Because there is a write buffer in the Cortex-M processor, it may
1453:/home/cuil/workspace/arm/lm3s811/TI_Stellaris/driverlib/pwm.c **** //! take several clock cycles before the interrupt source is actually cleared.
1454:/home/cuil/workspace/arm/lm3s811/TI_Stellaris/driverlib/pwm.c **** //! Therefore, it is recommended that the interrupt source be cleared early in
1455:/home/cuil/workspace/arm/lm3s811/TI_Stellaris/driverlib/pwm.c **** //! the interrupt handler (as opposed to the very last action) to avoid
1456:/home/cuil/workspace/arm/lm3s811/TI_Stellaris/driverlib/pwm.c **** //! returning from the interrupt handler before the interrupt source is
1457:/home/cuil/workspace/arm/lm3s811/TI_Stellaris/driverlib/pwm.c **** //! actually cleared.  Failure to do so may result in the interrupt handler
1458:/home/cuil/workspace/arm/lm3s811/TI_Stellaris/driverlib/pwm.c **** //! being immediately reentered (because the interrupt controller still sees
1459:/home/cuil/workspace/arm/lm3s811/TI_Stellaris/driverlib/pwm.c **** //! the interrupt source asserted).
1460:/home/cuil/workspace/arm/lm3s811/TI_Stellaris/driverlib/pwm.c **** //!
1461:/home/cuil/workspace/arm/lm3s811/TI_Stellaris/driverlib/pwm.c **** //! \return None.
1462:/home/cuil/workspace/arm/lm3s811/TI_Stellaris/driverlib/pwm.c **** //
1463:/home/cuil/workspace/arm/lm3s811/TI_Stellaris/driverlib/pwm.c **** //*****************************************************************************
1464:/home/cuil/workspace/arm/lm3s811/TI_Stellaris/driverlib/pwm.c **** void
1465:/home/cuil/workspace/arm/lm3s811/TI_Stellaris/driverlib/pwm.c **** PWMFaultIntClear(unsigned long ulBase)
1466:/home/cuil/workspace/arm/lm3s811/TI_Stellaris/driverlib/pwm.c **** {
 10565              		.loc 1 1466 0
 10566              		.cfi_startproc
 10567              		@ args = 0, pretend = 0, frame = 8
 10568              		@ frame_needed = 1, uses_anonymous_args = 0
 10569              		@ link register save eliminated.
 10570 0000 80B4     		push	{r7}
 10571              	.LCFI81:
 10572              		.cfi_def_cfa_offset 4
 10573 0002 83B0     		sub	sp, sp, #12
 10574              	.LCFI82:
 10575              		.cfi_def_cfa_offset 16
 10576 0004 00AF     		add	r7, sp, #0
 10577              		.cfi_offset 7, -4
 10578              	.LCFI83:
 10579              		.cfi_def_cfa_register 7
 10580 0006 7860     		str	r0, [r7, #4]
1467:/home/cuil/workspace/arm/lm3s811/TI_Stellaris/driverlib/pwm.c ****     //
1468:/home/cuil/workspace/arm/lm3s811/TI_Stellaris/driverlib/pwm.c ****     // Check the arguments.
1469:/home/cuil/workspace/arm/lm3s811/TI_Stellaris/driverlib/pwm.c ****     //
1470:/home/cuil/workspace/arm/lm3s811/TI_Stellaris/driverlib/pwm.c ****     ASSERT((ulBase == PWM0_BASE) || (ulBase == PWM1_BASE));
1471:/home/cuil/workspace/arm/lm3s811/TI_Stellaris/driverlib/pwm.c **** 
1472:/home/cuil/workspace/arm/lm3s811/TI_Stellaris/driverlib/pwm.c ****     //
1473:/home/cuil/workspace/arm/lm3s811/TI_Stellaris/driverlib/pwm.c ****     // Write the only writeable bit in the module's interrupt register.
1474:/home/cuil/workspace/arm/lm3s811/TI_Stellaris/driverlib/pwm.c ****     //
1475:/home/cuil/workspace/arm/lm3s811/TI_Stellaris/driverlib/pwm.c ****     HWREG(ulBase + PWM_O_ISC) = PWM_ISC_INTFAULT0;
 10581              		.loc 1 1475 0
 10582 0008 7B68     		ldr	r3, [r7, #4]
 10583 000a 03F11C03 		add	r3, r3, #28
 10584 000e 4FF48032 		mov	r2, #65536
 10585 0012 1A60     		str	r2, [r3, #0]
1476:/home/cuil/workspace/arm/lm3s811/TI_Stellaris/driverlib/pwm.c **** }
 10586              		.loc 1 1476 0
 10587 0014 07F10C07 		add	r7, r7, #12
 10588 0018 BD46     		mov	sp, r7
 10589 001a 80BC     		pop	{r7}
 10590 001c 7047     		bx	lr
 10591              		.cfi_endproc
 10592              	.LFE27:
 10594 001e 00BF     		.section	.text.PWMIntStatus,"ax",%progbits
 10595              		.align	2
 10596              		.global	PWMIntStatus
 10597              		.thumb
 10598              		.thumb_func
 10600              	PWMIntStatus:
 10601              	.LFB28:
1477:/home/cuil/workspace/arm/lm3s811/TI_Stellaris/driverlib/pwm.c **** 
1478:/home/cuil/workspace/arm/lm3s811/TI_Stellaris/driverlib/pwm.c **** //*****************************************************************************
1479:/home/cuil/workspace/arm/lm3s811/TI_Stellaris/driverlib/pwm.c **** //
1480:/home/cuil/workspace/arm/lm3s811/TI_Stellaris/driverlib/pwm.c **** //! Gets the interrupt status for a PWM module.
1481:/home/cuil/workspace/arm/lm3s811/TI_Stellaris/driverlib/pwm.c **** //!
1482:/home/cuil/workspace/arm/lm3s811/TI_Stellaris/driverlib/pwm.c **** //! \param ulBase is the base address of the PWM module.
1483:/home/cuil/workspace/arm/lm3s811/TI_Stellaris/driverlib/pwm.c **** //! \param bMasked specifies whether masked or raw interrupt status is
1484:/home/cuil/workspace/arm/lm3s811/TI_Stellaris/driverlib/pwm.c **** //! returned.
1485:/home/cuil/workspace/arm/lm3s811/TI_Stellaris/driverlib/pwm.c **** //!
1486:/home/cuil/workspace/arm/lm3s811/TI_Stellaris/driverlib/pwm.c **** //! If \e bMasked is set as \b true, then the masked interrupt status is
1487:/home/cuil/workspace/arm/lm3s811/TI_Stellaris/driverlib/pwm.c **** //! returned; otherwise, the raw interrupt status is returned.
1488:/home/cuil/workspace/arm/lm3s811/TI_Stellaris/driverlib/pwm.c **** //!
1489:/home/cuil/workspace/arm/lm3s811/TI_Stellaris/driverlib/pwm.c **** //! \return The current interrupt status, enumerated as a bit field of
1490:/home/cuil/workspace/arm/lm3s811/TI_Stellaris/driverlib/pwm.c **** //! \b PWM_INT_GEN_0, \b PWM_INT_GEN_1, \b PWM_INT_GEN_2, \b PWM_INT_GEN_3,
1491:/home/cuil/workspace/arm/lm3s811/TI_Stellaris/driverlib/pwm.c **** //! \b PWM_INT_FAULT0, \b PWM_INT_FAULT1, \b PWM_INT_FAULT2, and
1492:/home/cuil/workspace/arm/lm3s811/TI_Stellaris/driverlib/pwm.c **** //! \b PWM_INT_FAULT3.
1493:/home/cuil/workspace/arm/lm3s811/TI_Stellaris/driverlib/pwm.c **** //!
1494:/home/cuil/workspace/arm/lm3s811/TI_Stellaris/driverlib/pwm.c **** //*****************************************************************************
1495:/home/cuil/workspace/arm/lm3s811/TI_Stellaris/driverlib/pwm.c **** unsigned long
1496:/home/cuil/workspace/arm/lm3s811/TI_Stellaris/driverlib/pwm.c **** PWMIntStatus(unsigned long ulBase, tBoolean bMasked)
1497:/home/cuil/workspace/arm/lm3s811/TI_Stellaris/driverlib/pwm.c **** {
 10602              		.loc 1 1497 0
 10603              		.cfi_startproc
 10604              		@ args = 0, pretend = 0, frame = 8
 10605              		@ frame_needed = 1, uses_anonymous_args = 0
 10606              		@ link register save eliminated.
 10607 0000 80B4     		push	{r7}
 10608              	.LCFI84:
 10609              		.cfi_def_cfa_offset 4
 10610 0002 83B0     		sub	sp, sp, #12
 10611              	.LCFI85:
 10612              		.cfi_def_cfa_offset 16
 10613 0004 00AF     		add	r7, sp, #0
 10614              		.cfi_offset 7, -4
 10615              	.LCFI86:
 10616              		.cfi_def_cfa_register 7
 10617 0006 7860     		str	r0, [r7, #4]
 10618 0008 0B46     		mov	r3, r1
 10619 000a FB70     		strb	r3, [r7, #3]
1498:/home/cuil/workspace/arm/lm3s811/TI_Stellaris/driverlib/pwm.c ****     //
1499:/home/cuil/workspace/arm/lm3s811/TI_Stellaris/driverlib/pwm.c ****     // Check the arguments.
1500:/home/cuil/workspace/arm/lm3s811/TI_Stellaris/driverlib/pwm.c ****     //
1501:/home/cuil/workspace/arm/lm3s811/TI_Stellaris/driverlib/pwm.c ****     ASSERT((ulBase == PWM0_BASE) || (ulBase == PWM1_BASE));
1502:/home/cuil/workspace/arm/lm3s811/TI_Stellaris/driverlib/pwm.c **** 
1503:/home/cuil/workspace/arm/lm3s811/TI_Stellaris/driverlib/pwm.c ****     //
1504:/home/cuil/workspace/arm/lm3s811/TI_Stellaris/driverlib/pwm.c ****     // Read and return either the module's raw or enabled interrupt status.
1505:/home/cuil/workspace/arm/lm3s811/TI_Stellaris/driverlib/pwm.c ****     //
1506:/home/cuil/workspace/arm/lm3s811/TI_Stellaris/driverlib/pwm.c ****     if(bMasked == true)
 10620              		.loc 1 1506 0
 10621 000c FB78     		ldrb	r3, [r7, #3]	@ zero_extendqisi2
 10622 000e 012B     		cmp	r3, #1
 10623 0010 04D1     		bne	.L72
1507:/home/cuil/workspace/arm/lm3s811/TI_Stellaris/driverlib/pwm.c ****     {
1508:/home/cuil/workspace/arm/lm3s811/TI_Stellaris/driverlib/pwm.c ****         return(HWREG(ulBase + PWM_O_ISC));
 10624              		.loc 1 1508 0
 10625 0012 7B68     		ldr	r3, [r7, #4]
 10626 0014 03F11C03 		add	r3, r3, #28
 10627 0018 1B68     		ldr	r3, [r3, #0]
 10628 001a 03E0     		b	.L73
 10629              	.L72:
1509:/home/cuil/workspace/arm/lm3s811/TI_Stellaris/driverlib/pwm.c ****     }
1510:/home/cuil/workspace/arm/lm3s811/TI_Stellaris/driverlib/pwm.c ****     else
1511:/home/cuil/workspace/arm/lm3s811/TI_Stellaris/driverlib/pwm.c ****     {
1512:/home/cuil/workspace/arm/lm3s811/TI_Stellaris/driverlib/pwm.c ****         return(HWREG(ulBase + PWM_O_RIS));
 10630              		.loc 1 1512 0
 10631 001c 7B68     		ldr	r3, [r7, #4]
 10632 001e 03F11803 		add	r3, r3, #24
 10633 0022 1B68     		ldr	r3, [r3, #0]
 10634              	.L73:
1513:/home/cuil/workspace/arm/lm3s811/TI_Stellaris/driverlib/pwm.c ****     }
1514:/home/cuil/workspace/arm/lm3s811/TI_Stellaris/driverlib/pwm.c **** }
 10635              		.loc 1 1514 0
 10636 0024 1846     		mov	r0, r3
 10637 0026 07F10C07 		add	r7, r7, #12
 10638 002a BD46     		mov	sp, r7
 10639 002c 80BC     		pop	{r7}
 10640 002e 7047     		bx	lr
 10641              		.cfi_endproc
 10642              	.LFE28:
 10644              		.section	.text.PWMFaultIntClearExt,"ax",%progbits
 10645              		.align	2
 10646              		.global	PWMFaultIntClearExt
 10647              		.thumb
 10648              		.thumb_func
 10650              	PWMFaultIntClearExt:
 10651              	.LFB29:
1515:/home/cuil/workspace/arm/lm3s811/TI_Stellaris/driverlib/pwm.c **** 
1516:/home/cuil/workspace/arm/lm3s811/TI_Stellaris/driverlib/pwm.c **** //*****************************************************************************
1517:/home/cuil/workspace/arm/lm3s811/TI_Stellaris/driverlib/pwm.c **** //
1518:/home/cuil/workspace/arm/lm3s811/TI_Stellaris/driverlib/pwm.c **** //! Clears the fault interrupt for a PWM module.
1519:/home/cuil/workspace/arm/lm3s811/TI_Stellaris/driverlib/pwm.c **** //!
1520:/home/cuil/workspace/arm/lm3s811/TI_Stellaris/driverlib/pwm.c **** //! \param ulBase is the base address of the PWM module.
1521:/home/cuil/workspace/arm/lm3s811/TI_Stellaris/driverlib/pwm.c **** //! \param ulFaultInts specifies the fault interrupts to clear.
1522:/home/cuil/workspace/arm/lm3s811/TI_Stellaris/driverlib/pwm.c **** //!
1523:/home/cuil/workspace/arm/lm3s811/TI_Stellaris/driverlib/pwm.c **** //! This function clears one or more fault interrupts by writing to the
1524:/home/cuil/workspace/arm/lm3s811/TI_Stellaris/driverlib/pwm.c **** //!  appropriate bit of the PWM interrupt status register.  The parameter 
1525:/home/cuil/workspace/arm/lm3s811/TI_Stellaris/driverlib/pwm.c **** //! \e ulFaultInts must be the logical OR of any of \b PWM_INT_FAULT0, 
1526:/home/cuil/workspace/arm/lm3s811/TI_Stellaris/driverlib/pwm.c **** //! \b PWM_INT_FAULT1, \b PWM_INT_FAULT2, or \b PWM_INT_FAULT3.
1527:/home/cuil/workspace/arm/lm3s811/TI_Stellaris/driverlib/pwm.c **** //!
1528:/home/cuil/workspace/arm/lm3s811/TI_Stellaris/driverlib/pwm.c **** //! When running on a device supporting extended PWM fault handling, the fault
1529:/home/cuil/workspace/arm/lm3s811/TI_Stellaris/driverlib/pwm.c **** //! interrupts are derived by performing a logical OR of each of the configured
1530:/home/cuil/workspace/arm/lm3s811/TI_Stellaris/driverlib/pwm.c **** //! fault trigger signals for a given generator.  Therefore, these interrupts
1531:/home/cuil/workspace/arm/lm3s811/TI_Stellaris/driverlib/pwm.c **** //! are not directly related to the four possible FAULTn inputs to the device
1532:/home/cuil/workspace/arm/lm3s811/TI_Stellaris/driverlib/pwm.c **** //! but indicate that a fault has been signaled to one of the four possible PWM
1533:/home/cuil/workspace/arm/lm3s811/TI_Stellaris/driverlib/pwm.c **** //! generators.  On a device without extended PWM fault handling, the interrupt
1534:/home/cuil/workspace/arm/lm3s811/TI_Stellaris/driverlib/pwm.c **** //! is directly related to the state of the single FAULT pin.
1535:/home/cuil/workspace/arm/lm3s811/TI_Stellaris/driverlib/pwm.c **** //!
1536:/home/cuil/workspace/arm/lm3s811/TI_Stellaris/driverlib/pwm.c **** //! \note Because there is a write buffer in the Cortex-M processor, it may
1537:/home/cuil/workspace/arm/lm3s811/TI_Stellaris/driverlib/pwm.c **** //! take several clock cycles before the interrupt source is actually cleared.
1538:/home/cuil/workspace/arm/lm3s811/TI_Stellaris/driverlib/pwm.c **** //! Therefore, it is recommended that the interrupt source be cleared early in
1539:/home/cuil/workspace/arm/lm3s811/TI_Stellaris/driverlib/pwm.c **** //! the interrupt handler (as opposed to the very last action) to avoid
1540:/home/cuil/workspace/arm/lm3s811/TI_Stellaris/driverlib/pwm.c **** //! returning from the interrupt handler before the interrupt source is
1541:/home/cuil/workspace/arm/lm3s811/TI_Stellaris/driverlib/pwm.c **** //! actually cleared.  Failure to do so may result in the interrupt handler
1542:/home/cuil/workspace/arm/lm3s811/TI_Stellaris/driverlib/pwm.c **** //! being immediately reentered (because the interrupt controller still sees
1543:/home/cuil/workspace/arm/lm3s811/TI_Stellaris/driverlib/pwm.c **** //! the interrupt source asserted).
1544:/home/cuil/workspace/arm/lm3s811/TI_Stellaris/driverlib/pwm.c **** //!
1545:/home/cuil/workspace/arm/lm3s811/TI_Stellaris/driverlib/pwm.c **** //! \return None.
1546:/home/cuil/workspace/arm/lm3s811/TI_Stellaris/driverlib/pwm.c **** //
1547:/home/cuil/workspace/arm/lm3s811/TI_Stellaris/driverlib/pwm.c **** //*****************************************************************************
1548:/home/cuil/workspace/arm/lm3s811/TI_Stellaris/driverlib/pwm.c **** void
1549:/home/cuil/workspace/arm/lm3s811/TI_Stellaris/driverlib/pwm.c **** PWMFaultIntClearExt(unsigned long ulBase, unsigned long ulFaultInts)
1550:/home/cuil/workspace/arm/lm3s811/TI_Stellaris/driverlib/pwm.c **** {
 10652              		.loc 1 1550 0
 10653              		.cfi_startproc
 10654              		@ args = 0, pretend = 0, frame = 8
 10655              		@ frame_needed = 1, uses_anonymous_args = 0
 10656              		@ link register save eliminated.
 10657 0000 80B4     		push	{r7}
 10658              	.LCFI87:
 10659              		.cfi_def_cfa_offset 4
 10660 0002 83B0     		sub	sp, sp, #12
 10661              	.LCFI88:
 10662              		.cfi_def_cfa_offset 16
 10663 0004 00AF     		add	r7, sp, #0
 10664              		.cfi_offset 7, -4
 10665              	.LCFI89:
 10666              		.cfi_def_cfa_register 7
 10667 0006 7860     		str	r0, [r7, #4]
 10668 0008 3960     		str	r1, [r7, #0]
1551:/home/cuil/workspace/arm/lm3s811/TI_Stellaris/driverlib/pwm.c ****     //
1552:/home/cuil/workspace/arm/lm3s811/TI_Stellaris/driverlib/pwm.c ****     // Check the arguments.
1553:/home/cuil/workspace/arm/lm3s811/TI_Stellaris/driverlib/pwm.c ****     //
1554:/home/cuil/workspace/arm/lm3s811/TI_Stellaris/driverlib/pwm.c ****     ASSERT((ulBase == PWM0_BASE) || (ulBase == PWM1_BASE));
1555:/home/cuil/workspace/arm/lm3s811/TI_Stellaris/driverlib/pwm.c ****     ASSERT((ulFaultInts & ~(PWM_INT_FAULT0 | PWM_INT_FAULT1 |
1556:/home/cuil/workspace/arm/lm3s811/TI_Stellaris/driverlib/pwm.c ****                             PWM_INT_FAULT2 | PWM_INT_FAULT3)) == 0);
1557:/home/cuil/workspace/arm/lm3s811/TI_Stellaris/driverlib/pwm.c **** 
1558:/home/cuil/workspace/arm/lm3s811/TI_Stellaris/driverlib/pwm.c ****     //
1559:/home/cuil/workspace/arm/lm3s811/TI_Stellaris/driverlib/pwm.c ****     // Clear the supplied fault bits.
1560:/home/cuil/workspace/arm/lm3s811/TI_Stellaris/driverlib/pwm.c ****     //
1561:/home/cuil/workspace/arm/lm3s811/TI_Stellaris/driverlib/pwm.c ****     HWREG(ulBase + PWM_O_ISC) = ulFaultInts;
 10669              		.loc 1 1561 0
 10670 000a 7B68     		ldr	r3, [r7, #4]
 10671 000c 03F11C03 		add	r3, r3, #28
 10672 0010 3A68     		ldr	r2, [r7, #0]
 10673 0012 1A60     		str	r2, [r3, #0]
1562:/home/cuil/workspace/arm/lm3s811/TI_Stellaris/driverlib/pwm.c **** }
 10674              		.loc 1 1562 0
 10675 0014 07F10C07 		add	r7, r7, #12
 10676 0018 BD46     		mov	sp, r7
 10677 001a 80BC     		pop	{r7}
 10678 001c 7047     		bx	lr
 10679              		.cfi_endproc
 10680              	.LFE29:
 10682 001e 00BF     		.section	.text.PWMGenFaultConfigure,"ax",%progbits
 10683              		.align	2
 10684              		.global	PWMGenFaultConfigure
 10685              		.thumb
 10686              		.thumb_func
 10688              	PWMGenFaultConfigure:
 10689              	.LFB30:
1563:/home/cuil/workspace/arm/lm3s811/TI_Stellaris/driverlib/pwm.c **** 
1564:/home/cuil/workspace/arm/lm3s811/TI_Stellaris/driverlib/pwm.c **** //*****************************************************************************
1565:/home/cuil/workspace/arm/lm3s811/TI_Stellaris/driverlib/pwm.c **** //
1566:/home/cuil/workspace/arm/lm3s811/TI_Stellaris/driverlib/pwm.c **** //! Configures the minimum fault period and fault pin senses for a given
1567:/home/cuil/workspace/arm/lm3s811/TI_Stellaris/driverlib/pwm.c **** //! PWM generator.
1568:/home/cuil/workspace/arm/lm3s811/TI_Stellaris/driverlib/pwm.c **** //!
1569:/home/cuil/workspace/arm/lm3s811/TI_Stellaris/driverlib/pwm.c **** //! \param ulBase is the base address of the PWM module.
1570:/home/cuil/workspace/arm/lm3s811/TI_Stellaris/driverlib/pwm.c **** //! \param ulGen is the PWM generator for which fault configuration is being 
1571:/home/cuil/workspace/arm/lm3s811/TI_Stellaris/driverlib/pwm.c **** //! set. This function must be one of \b PWM_GEN_0, \b PWM_GEN_1, \b PWM_GEN_2,  
1572:/home/cuil/workspace/arm/lm3s811/TI_Stellaris/driverlib/pwm.c **** //! or \b PWM_GEN_3.
1573:/home/cuil/workspace/arm/lm3s811/TI_Stellaris/driverlib/pwm.c **** //! \param ulMinFaultPeriod is the minimum fault active period expressed in
1574:/home/cuil/workspace/arm/lm3s811/TI_Stellaris/driverlib/pwm.c **** //! PWM clock cycles.
1575:/home/cuil/workspace/arm/lm3s811/TI_Stellaris/driverlib/pwm.c **** //! \param ulFaultSenses indicates which sense of each FAULT input should be
1576:/home/cuil/workspace/arm/lm3s811/TI_Stellaris/driverlib/pwm.c **** //! considered the ``asserted'' state.  Valid values are logical OR
1577:/home/cuil/workspace/arm/lm3s811/TI_Stellaris/driverlib/pwm.c **** //! combinations of \b PWM_FAULTn_SENSE_HIGH and \b PWM_FAULTn_SENSE_LOW.
1578:/home/cuil/workspace/arm/lm3s811/TI_Stellaris/driverlib/pwm.c **** //!
1579:/home/cuil/workspace/arm/lm3s811/TI_Stellaris/driverlib/pwm.c **** //! This function configures the minimum fault period for a given generator 
1580:/home/cuil/workspace/arm/lm3s811/TI_Stellaris/driverlib/pwm.c **** //! along with the sense of each of the 4 possible fault inputs.  The minimum 
1581:/home/cuil/workspace/arm/lm3s811/TI_Stellaris/driverlib/pwm.c **** //! fault period is expressed in PWM clock cycles and takes effect only if
1582:/home/cuil/workspace/arm/lm3s811/TI_Stellaris/driverlib/pwm.c **** //! PWMGenConfigure() is called with flag \b PWM_GEN_MODE_FAULT_PER set in the
1583:/home/cuil/workspace/arm/lm3s811/TI_Stellaris/driverlib/pwm.c **** //! \e ulConfig parameter.  When a fault input is asserted, the minimum fault
1584:/home/cuil/workspace/arm/lm3s811/TI_Stellaris/driverlib/pwm.c **** //! period timer ensures that it remains asserted for at least the number of
1585:/home/cuil/workspace/arm/lm3s811/TI_Stellaris/driverlib/pwm.c **** //! clock cycles specified.
1586:/home/cuil/workspace/arm/lm3s811/TI_Stellaris/driverlib/pwm.c **** //!
1587:/home/cuil/workspace/arm/lm3s811/TI_Stellaris/driverlib/pwm.c **** //! \note This function is only available on devices supporting extended PWM
1588:/home/cuil/workspace/arm/lm3s811/TI_Stellaris/driverlib/pwm.c **** //! fault handling.
1589:/home/cuil/workspace/arm/lm3s811/TI_Stellaris/driverlib/pwm.c **** //!
1590:/home/cuil/workspace/arm/lm3s811/TI_Stellaris/driverlib/pwm.c **** //! \return None.
1591:/home/cuil/workspace/arm/lm3s811/TI_Stellaris/driverlib/pwm.c **** //
1592:/home/cuil/workspace/arm/lm3s811/TI_Stellaris/driverlib/pwm.c **** //*****************************************************************************
1593:/home/cuil/workspace/arm/lm3s811/TI_Stellaris/driverlib/pwm.c **** void
1594:/home/cuil/workspace/arm/lm3s811/TI_Stellaris/driverlib/pwm.c **** PWMGenFaultConfigure(unsigned long ulBase, unsigned long ulGen,
1595:/home/cuil/workspace/arm/lm3s811/TI_Stellaris/driverlib/pwm.c ****                      unsigned long ulMinFaultPeriod,
1596:/home/cuil/workspace/arm/lm3s811/TI_Stellaris/driverlib/pwm.c ****                      unsigned long ulFaultSenses)
1597:/home/cuil/workspace/arm/lm3s811/TI_Stellaris/driverlib/pwm.c **** {
 10690              		.loc 1 1597 0
 10691              		.cfi_startproc
 10692              		@ args = 0, pretend = 0, frame = 16
 10693              		@ frame_needed = 1, uses_anonymous_args = 0
 10694              		@ link register save eliminated.
 10695 0000 80B4     		push	{r7}
 10696              	.LCFI90:
 10697              		.cfi_def_cfa_offset 4
 10698 0002 85B0     		sub	sp, sp, #20
 10699              	.LCFI91:
 10700              		.cfi_def_cfa_offset 24
 10701 0004 00AF     		add	r7, sp, #0
 10702              		.cfi_offset 7, -4
 10703              	.LCFI92:
 10704              		.cfi_def_cfa_register 7
 10705 0006 F860     		str	r0, [r7, #12]
 10706 0008 B960     		str	r1, [r7, #8]
 10707 000a 7A60     		str	r2, [r7, #4]
 10708 000c 3B60     		str	r3, [r7, #0]
1598:/home/cuil/workspace/arm/lm3s811/TI_Stellaris/driverlib/pwm.c ****     //
1599:/home/cuil/workspace/arm/lm3s811/TI_Stellaris/driverlib/pwm.c ****     // Check the arguments.
1600:/home/cuil/workspace/arm/lm3s811/TI_Stellaris/driverlib/pwm.c ****     //
1601:/home/cuil/workspace/arm/lm3s811/TI_Stellaris/driverlib/pwm.c ****     ASSERT((ulBase == PWM0_BASE) || (ulBase == PWM1_BASE));
1602:/home/cuil/workspace/arm/lm3s811/TI_Stellaris/driverlib/pwm.c ****     ASSERT(PWMGenValid(ulGen));
1603:/home/cuil/workspace/arm/lm3s811/TI_Stellaris/driverlib/pwm.c ****     ASSERT(ulMinFaultPeriod < PWM_X_MINFLTPER_M);
1604:/home/cuil/workspace/arm/lm3s811/TI_Stellaris/driverlib/pwm.c ****     ASSERT((ulFaultSenses & ~(PWM_FAULT0_SENSE_HIGH | PWM_FAULT0_SENSE_LOW |
1605:/home/cuil/workspace/arm/lm3s811/TI_Stellaris/driverlib/pwm.c ****                               PWM_FAULT1_SENSE_HIGH | PWM_FAULT1_SENSE_LOW |
1606:/home/cuil/workspace/arm/lm3s811/TI_Stellaris/driverlib/pwm.c ****                               PWM_FAULT2_SENSE_HIGH | PWM_FAULT2_SENSE_LOW |
1607:/home/cuil/workspace/arm/lm3s811/TI_Stellaris/driverlib/pwm.c ****                               PWM_FAULT3_SENSE_HIGH | PWM_FAULT3_SENSE_LOW)) ==
1608:/home/cuil/workspace/arm/lm3s811/TI_Stellaris/driverlib/pwm.c ****            0);
1609:/home/cuil/workspace/arm/lm3s811/TI_Stellaris/driverlib/pwm.c **** 
1610:/home/cuil/workspace/arm/lm3s811/TI_Stellaris/driverlib/pwm.c ****     //
1611:/home/cuil/workspace/arm/lm3s811/TI_Stellaris/driverlib/pwm.c ****     // Write the minimum fault period.
1612:/home/cuil/workspace/arm/lm3s811/TI_Stellaris/driverlib/pwm.c ****     //
1613:/home/cuil/workspace/arm/lm3s811/TI_Stellaris/driverlib/pwm.c ****     HWREG(PWM_GEN_BADDR(ulBase, ulGen) + PWM_O_X_MINFLTPER) = ulMinFaultPeriod;
 10709              		.loc 1 1613 0
 10710 000e FA68     		ldr	r2, [r7, #12]
 10711 0010 BB68     		ldr	r3, [r7, #8]
 10712 0012 D318     		adds	r3, r2, r3
 10713 0014 03F13C03 		add	r3, r3, #60
 10714 0018 7A68     		ldr	r2, [r7, #4]
 10715 001a 1A60     		str	r2, [r3, #0]
1614:/home/cuil/workspace/arm/lm3s811/TI_Stellaris/driverlib/pwm.c **** 
1615:/home/cuil/workspace/arm/lm3s811/TI_Stellaris/driverlib/pwm.c ****     //
1616:/home/cuil/workspace/arm/lm3s811/TI_Stellaris/driverlib/pwm.c ****     // Write the fault senses.
1617:/home/cuil/workspace/arm/lm3s811/TI_Stellaris/driverlib/pwm.c ****     //
1618:/home/cuil/workspace/arm/lm3s811/TI_Stellaris/driverlib/pwm.c ****     HWREG(PWM_GEN_EXT_BADDR(ulBase, ulGen) + PWM_O_X_FLTSEN) = ulFaultSenses;
 10716              		.loc 1 1618 0
 10717 001c BB68     		ldr	r3, [r7, #8]
 10718 001e 03F10043 		add	r3, r3, #-2147483648
 10719 0022 A3F14003 		sub	r3, r3, #64
 10720 0026 4FEA4302 		lsl	r2, r3, #1
 10721 002a FB68     		ldr	r3, [r7, #12]
 10722 002c D318     		adds	r3, r2, r3
 10723 002e 03F50063 		add	r3, r3, #2048
 10724 0032 3A68     		ldr	r2, [r7, #0]
 10725 0034 1A60     		str	r2, [r3, #0]
1619:/home/cuil/workspace/arm/lm3s811/TI_Stellaris/driverlib/pwm.c **** }
 10726              		.loc 1 1619 0
 10727 0036 07F11407 		add	r7, r7, #20
 10728 003a BD46     		mov	sp, r7
 10729 003c 80BC     		pop	{r7}
 10730 003e 7047     		bx	lr
 10731              		.cfi_endproc
 10732              	.LFE30:
 10734              		.section	.text.PWMGenFaultTriggerSet,"ax",%progbits
 10735              		.align	2
 10736              		.global	PWMGenFaultTriggerSet
 10737              		.thumb
 10738              		.thumb_func
 10740              	PWMGenFaultTriggerSet:
 10741              	.LFB31:
1620:/home/cuil/workspace/arm/lm3s811/TI_Stellaris/driverlib/pwm.c **** 
1621:/home/cuil/workspace/arm/lm3s811/TI_Stellaris/driverlib/pwm.c **** //*****************************************************************************
1622:/home/cuil/workspace/arm/lm3s811/TI_Stellaris/driverlib/pwm.c **** //
1623:/home/cuil/workspace/arm/lm3s811/TI_Stellaris/driverlib/pwm.c **** //! Configures the set of fault triggers for a given PWM generator.
1624:/home/cuil/workspace/arm/lm3s811/TI_Stellaris/driverlib/pwm.c **** //!
1625:/home/cuil/workspace/arm/lm3s811/TI_Stellaris/driverlib/pwm.c **** //! \param ulBase is the base address of the PWM module.
1626:/home/cuil/workspace/arm/lm3s811/TI_Stellaris/driverlib/pwm.c **** //! \param ulGen is the PWM generator for which fault triggers are being set.  
1627:/home/cuil/workspace/arm/lm3s811/TI_Stellaris/driverlib/pwm.c **** //! This parameter must be one of \b PWM_GEN_0, \b PWM_GEN_1, \b PWM_GEN_2, or
1628:/home/cuil/workspace/arm/lm3s811/TI_Stellaris/driverlib/pwm.c **** //! \b PWM_GEN_3.
1629:/home/cuil/workspace/arm/lm3s811/TI_Stellaris/driverlib/pwm.c **** //! \param ulGroup indicates the subset of possible faults that are to be
1630:/home/cuil/workspace/arm/lm3s811/TI_Stellaris/driverlib/pwm.c **** //! configured.  This parameter must be \b PWM_FAULT_GROUP_0 or 
1631:/home/cuil/workspace/arm/lm3s811/TI_Stellaris/driverlib/pwm.c **** //! \b PWM_FAULT_GROUP_1.
1632:/home/cuil/workspace/arm/lm3s811/TI_Stellaris/driverlib/pwm.c **** //! \param ulFaultTriggers defines the set of inputs that are to contribute
1633:/home/cuil/workspace/arm/lm3s811/TI_Stellaris/driverlib/pwm.c **** //! towards generation of the fault signal to the given PWM generator.  For
1634:/home/cuil/workspace/arm/lm3s811/TI_Stellaris/driverlib/pwm.c **** //! \b PWM_FAULT_GROUP_0, this is the logical OR of \b PWM_FAULT_FAULT0,
1635:/home/cuil/workspace/arm/lm3s811/TI_Stellaris/driverlib/pwm.c **** //! \b PWM_FAULT_FAULT1, \b PWM_FAULT_FAULT2, or \b PWM_FAULT_FAULT3.  For
1636:/home/cuil/workspace/arm/lm3s811/TI_Stellaris/driverlib/pwm.c **** //! \b PWM_FAULT_GROUP_1, this is the logical OR of \b PWM_FAULT_DCMP0,
1637:/home/cuil/workspace/arm/lm3s811/TI_Stellaris/driverlib/pwm.c **** //! \b PWM_FAULT_DCMP1, \b PWM_FAULT_DCMP2, \b PWM_FAULT_DCMP3,
1638:/home/cuil/workspace/arm/lm3s811/TI_Stellaris/driverlib/pwm.c **** //! \b PWM_FAULT_DCMP4, \b PWM_FAULT_DCMP5, \b PWM_FAULT_DCMP6, or
1639:/home/cuil/workspace/arm/lm3s811/TI_Stellaris/driverlib/pwm.c **** //! \b PWM_FAULT_DCMP7.
1640:/home/cuil/workspace/arm/lm3s811/TI_Stellaris/driverlib/pwm.c **** //!
1641:/home/cuil/workspace/arm/lm3s811/TI_Stellaris/driverlib/pwm.c **** //! This function allows selection of the set of fault inputs that is combined
1642:/home/cuil/workspace/arm/lm3s811/TI_Stellaris/driverlib/pwm.c **** //! to generate a fault condition to a given PWM generator.  By default, all
1643:/home/cuil/workspace/arm/lm3s811/TI_Stellaris/driverlib/pwm.c **** //! generators use only FAULT0 (for backwards compatibility) but if
1644:/home/cuil/workspace/arm/lm3s811/TI_Stellaris/driverlib/pwm.c **** //! PWMGenConfigure() is called with flag \b PWM_GEN_MODE_FAULT_SRC in the
1645:/home/cuil/workspace/arm/lm3s811/TI_Stellaris/driverlib/pwm.c **** //! \e ulConfig parameter, extended fault handling is enabled and this function
1646:/home/cuil/workspace/arm/lm3s811/TI_Stellaris/driverlib/pwm.c **** //! must be called to configure the fault triggers.
1647:/home/cuil/workspace/arm/lm3s811/TI_Stellaris/driverlib/pwm.c **** //!
1648:/home/cuil/workspace/arm/lm3s811/TI_Stellaris/driverlib/pwm.c **** //! The fault signal to the PWM generator is generated by ORing together each
1649:/home/cuil/workspace/arm/lm3s811/TI_Stellaris/driverlib/pwm.c **** //! of the signals specified in the \e ulFaultTriggers parameter after having
1650:/home/cuil/workspace/arm/lm3s811/TI_Stellaris/driverlib/pwm.c **** //! adjusted the sense of each FAULTn input based on the configuration  
1651:/home/cuil/workspace/arm/lm3s811/TI_Stellaris/driverlib/pwm.c **** //! previously set using a call to PWMGenFaultConfigure().
1652:/home/cuil/workspace/arm/lm3s811/TI_Stellaris/driverlib/pwm.c **** //!
1653:/home/cuil/workspace/arm/lm3s811/TI_Stellaris/driverlib/pwm.c **** //! \note This function is only available on devices supporting extended PWM
1654:/home/cuil/workspace/arm/lm3s811/TI_Stellaris/driverlib/pwm.c **** //! fault handling.
1655:/home/cuil/workspace/arm/lm3s811/TI_Stellaris/driverlib/pwm.c **** //!
1656:/home/cuil/workspace/arm/lm3s811/TI_Stellaris/driverlib/pwm.c **** //! \return None.
1657:/home/cuil/workspace/arm/lm3s811/TI_Stellaris/driverlib/pwm.c **** //
1658:/home/cuil/workspace/arm/lm3s811/TI_Stellaris/driverlib/pwm.c **** //*****************************************************************************
1659:/home/cuil/workspace/arm/lm3s811/TI_Stellaris/driverlib/pwm.c **** void
1660:/home/cuil/workspace/arm/lm3s811/TI_Stellaris/driverlib/pwm.c **** PWMGenFaultTriggerSet(unsigned long ulBase, unsigned long ulGen,
1661:/home/cuil/workspace/arm/lm3s811/TI_Stellaris/driverlib/pwm.c ****                       unsigned long ulGroup, unsigned long ulFaultTriggers)
1662:/home/cuil/workspace/arm/lm3s811/TI_Stellaris/driverlib/pwm.c **** {
 10742              		.loc 1 1662 0
 10743              		.cfi_startproc
 10744              		@ args = 0, pretend = 0, frame = 16
 10745              		@ frame_needed = 1, uses_anonymous_args = 0
 10746              		@ link register save eliminated.
 10747 0000 80B4     		push	{r7}
 10748              	.LCFI93:
 10749              		.cfi_def_cfa_offset 4
 10750 0002 85B0     		sub	sp, sp, #20
 10751              	.LCFI94:
 10752              		.cfi_def_cfa_offset 24
 10753 0004 00AF     		add	r7, sp, #0
 10754              		.cfi_offset 7, -4
 10755              	.LCFI95:
 10756              		.cfi_def_cfa_register 7
 10757 0006 F860     		str	r0, [r7, #12]
 10758 0008 B960     		str	r1, [r7, #8]
 10759 000a 7A60     		str	r2, [r7, #4]
 10760 000c 3B60     		str	r3, [r7, #0]
1663:/home/cuil/workspace/arm/lm3s811/TI_Stellaris/driverlib/pwm.c ****     //
1664:/home/cuil/workspace/arm/lm3s811/TI_Stellaris/driverlib/pwm.c ****     // Check for valid parameters.
1665:/home/cuil/workspace/arm/lm3s811/TI_Stellaris/driverlib/pwm.c ****     //
1666:/home/cuil/workspace/arm/lm3s811/TI_Stellaris/driverlib/pwm.c ****     ASSERT((ulBase == PWM0_BASE) || (ulBase == PWM1_BASE));
1667:/home/cuil/workspace/arm/lm3s811/TI_Stellaris/driverlib/pwm.c ****     ASSERT(PWMGenValid(ulGen));
1668:/home/cuil/workspace/arm/lm3s811/TI_Stellaris/driverlib/pwm.c ****     ASSERT((ulGroup == PWM_FAULT_GROUP_0) || (ulGroup == PWM_FAULT_GROUP_1));
1669:/home/cuil/workspace/arm/lm3s811/TI_Stellaris/driverlib/pwm.c ****     ASSERT((ulGroup == PWM_FAULT_GROUP_0) &&
1670:/home/cuil/workspace/arm/lm3s811/TI_Stellaris/driverlib/pwm.c ****            ((ulFaultTriggers & ~(PWM_FAULT_FAULT0 | PWM_FAULT_FAULT1 |
1671:/home/cuil/workspace/arm/lm3s811/TI_Stellaris/driverlib/pwm.c ****                                  PWM_FAULT_FAULT2 | PWM_FAULT_FAULT3)) == 0));
1672:/home/cuil/workspace/arm/lm3s811/TI_Stellaris/driverlib/pwm.c ****     ASSERT((ulGroup == PWM_FAULT_GROUP_1) &&
1673:/home/cuil/workspace/arm/lm3s811/TI_Stellaris/driverlib/pwm.c ****            ((ulFaultTriggers & ~(PWM_FAULT_DCMP0 | PWM_FAULT_DCMP1 |
1674:/home/cuil/workspace/arm/lm3s811/TI_Stellaris/driverlib/pwm.c ****                                  PWM_FAULT_DCMP2 | PWM_FAULT_DCMP3 |
1675:/home/cuil/workspace/arm/lm3s811/TI_Stellaris/driverlib/pwm.c ****                                  PWM_FAULT_DCMP4 | PWM_FAULT_DCMP5 |
1676:/home/cuil/workspace/arm/lm3s811/TI_Stellaris/driverlib/pwm.c ****                                  PWM_FAULT_DCMP6 | PWM_FAULT_DCMP7)) == 0));
1677:/home/cuil/workspace/arm/lm3s811/TI_Stellaris/driverlib/pwm.c **** 
1678:/home/cuil/workspace/arm/lm3s811/TI_Stellaris/driverlib/pwm.c ****     //
1679:/home/cuil/workspace/arm/lm3s811/TI_Stellaris/driverlib/pwm.c ****     // Write the fault triggers to the appropriate register.
1680:/home/cuil/workspace/arm/lm3s811/TI_Stellaris/driverlib/pwm.c ****     //
1681:/home/cuil/workspace/arm/lm3s811/TI_Stellaris/driverlib/pwm.c ****     if(ulGroup == PWM_FAULT_GROUP_0)
 10761              		.loc 1 1681 0
 10762 000e 7B68     		ldr	r3, [r7, #4]
 10763 0010 002B     		cmp	r3, #0
 10764 0012 07D1     		bne	.L77
1682:/home/cuil/workspace/arm/lm3s811/TI_Stellaris/driverlib/pwm.c ****     {
1683:/home/cuil/workspace/arm/lm3s811/TI_Stellaris/driverlib/pwm.c ****         HWREG(PWM_GEN_BADDR(ulBase, ulGen) + PWM_O_X_FLTSRC0) =
 10765              		.loc 1 1683 0
 10766 0014 FA68     		ldr	r2, [r7, #12]
 10767 0016 BB68     		ldr	r3, [r7, #8]
 10768 0018 D318     		adds	r3, r2, r3
 10769 001a 03F13403 		add	r3, r3, #52
 10770 001e 3A68     		ldr	r2, [r7, #0]
 10771 0020 1A60     		str	r2, [r3, #0]
 10772 0022 06E0     		b	.L76
 10773              	.L77:
1684:/home/cuil/workspace/arm/lm3s811/TI_Stellaris/driverlib/pwm.c ****             ulFaultTriggers;
1685:/home/cuil/workspace/arm/lm3s811/TI_Stellaris/driverlib/pwm.c ****     }
1686:/home/cuil/workspace/arm/lm3s811/TI_Stellaris/driverlib/pwm.c ****     else
1687:/home/cuil/workspace/arm/lm3s811/TI_Stellaris/driverlib/pwm.c ****     {
1688:/home/cuil/workspace/arm/lm3s811/TI_Stellaris/driverlib/pwm.c ****         HWREG(PWM_GEN_BADDR(ulBase, ulGen) + PWM_O_X_FLTSRC1) =
 10774              		.loc 1 1688 0
 10775 0024 FA68     		ldr	r2, [r7, #12]
 10776 0026 BB68     		ldr	r3, [r7, #8]
 10777 0028 D318     		adds	r3, r2, r3
 10778 002a 03F13803 		add	r3, r3, #56
 10779 002e 3A68     		ldr	r2, [r7, #0]
 10780 0030 1A60     		str	r2, [r3, #0]
 10781              	.L76:
1689:/home/cuil/workspace/arm/lm3s811/TI_Stellaris/driverlib/pwm.c ****             ulFaultTriggers;
1690:/home/cuil/workspace/arm/lm3s811/TI_Stellaris/driverlib/pwm.c ****     }
1691:/home/cuil/workspace/arm/lm3s811/TI_Stellaris/driverlib/pwm.c **** }
 10782              		.loc 1 1691 0
 10783 0032 07F11407 		add	r7, r7, #20
 10784 0036 BD46     		mov	sp, r7
 10785 0038 80BC     		pop	{r7}
 10786 003a 7047     		bx	lr
 10787              		.cfi_endproc
 10788              	.LFE31:
 10790              		.section	.text.PWMGenFaultTriggerGet,"ax",%progbits
 10791              		.align	2
 10792              		.global	PWMGenFaultTriggerGet
 10793              		.thumb
 10794              		.thumb_func
 10796              	PWMGenFaultTriggerGet:
 10797              	.LFB32:
1692:/home/cuil/workspace/arm/lm3s811/TI_Stellaris/driverlib/pwm.c **** 
1693:/home/cuil/workspace/arm/lm3s811/TI_Stellaris/driverlib/pwm.c **** //*****************************************************************************
1694:/home/cuil/workspace/arm/lm3s811/TI_Stellaris/driverlib/pwm.c **** //
1695:/home/cuil/workspace/arm/lm3s811/TI_Stellaris/driverlib/pwm.c **** //! Returns the set of fault triggers currently configured for a given PWM
1696:/home/cuil/workspace/arm/lm3s811/TI_Stellaris/driverlib/pwm.c **** //! generator.
1697:/home/cuil/workspace/arm/lm3s811/TI_Stellaris/driverlib/pwm.c **** //!
1698:/home/cuil/workspace/arm/lm3s811/TI_Stellaris/driverlib/pwm.c **** //! \param ulBase is the base address of the PWM module.
1699:/home/cuil/workspace/arm/lm3s811/TI_Stellaris/driverlib/pwm.c **** //! \param ulGen is the PWM generator for which fault triggers are being 
1700:/home/cuil/workspace/arm/lm3s811/TI_Stellaris/driverlib/pwm.c **** //! queried. This parameter must be one of \b PWM_GEN_0, \b PWM_GEN_1,  
1701:/home/cuil/workspace/arm/lm3s811/TI_Stellaris/driverlib/pwm.c **** //! \b PWM_GEN_2, or \b PWM_GEN_3.
1702:/home/cuil/workspace/arm/lm3s811/TI_Stellaris/driverlib/pwm.c **** //! \param ulGroup indicates the subset of faults that are being queried.  This
1703:/home/cuil/workspace/arm/lm3s811/TI_Stellaris/driverlib/pwm.c **** //! parameter must be \b PWM_FAULT_GROUP_0 or \b PWM_FAULT_GROUP_1.
1704:/home/cuil/workspace/arm/lm3s811/TI_Stellaris/driverlib/pwm.c **** //!
1705:/home/cuil/workspace/arm/lm3s811/TI_Stellaris/driverlib/pwm.c **** //! This function allows an application to query the current set of inputs that
1706:/home/cuil/workspace/arm/lm3s811/TI_Stellaris/driverlib/pwm.c **** //! contribute to the generation of a fault condition to a given PWM generator.
1707:/home/cuil/workspace/arm/lm3s811/TI_Stellaris/driverlib/pwm.c **** //! 
1708:/home/cuil/workspace/arm/lm3s811/TI_Stellaris/driverlib/pwm.c **** //! \note This function is only available on devices supporting extended PWM
1709:/home/cuil/workspace/arm/lm3s811/TI_Stellaris/driverlib/pwm.c **** //! fault handling.
1710:/home/cuil/workspace/arm/lm3s811/TI_Stellaris/driverlib/pwm.c **** //!
1711:/home/cuil/workspace/arm/lm3s811/TI_Stellaris/driverlib/pwm.c **** //! \return Returns the current fault triggers configured for the fault group
1712:/home/cuil/workspace/arm/lm3s811/TI_Stellaris/driverlib/pwm.c **** //! provided.  For \b PWM_FAULT_GROUP_0, the returned value is a logical OR of
1713:/home/cuil/workspace/arm/lm3s811/TI_Stellaris/driverlib/pwm.c **** //! \b PWM_FAULT_FAULT0, \b PWM_FAULT_FAULT1, \b PWM_FAULT_FAULT2, or
1714:/home/cuil/workspace/arm/lm3s811/TI_Stellaris/driverlib/pwm.c **** //! \b PWM_FAULT_FAULT3.  For \b PWM_FAULT_GROUP_1, the return value is the
1715:/home/cuil/workspace/arm/lm3s811/TI_Stellaris/driverlib/pwm.c **** //! logical OR of \b PWM_FAULT_DCMP0, \b PWM_FAULT_DCMP1,
1716:/home/cuil/workspace/arm/lm3s811/TI_Stellaris/driverlib/pwm.c **** //! \b PWM_FAULT_DCMP2, \b PWM_FAULT_DCMP3, \b PWM_FAULT_DCMP4,
1717:/home/cuil/workspace/arm/lm3s811/TI_Stellaris/driverlib/pwm.c **** //! \b PWM_FAULT_DCMP5, \b PWM_FAULT_DCMP6, or \b PWM_FAULT_DCMP7.
1718:/home/cuil/workspace/arm/lm3s811/TI_Stellaris/driverlib/pwm.c **** //
1719:/home/cuil/workspace/arm/lm3s811/TI_Stellaris/driverlib/pwm.c **** //*****************************************************************************
1720:/home/cuil/workspace/arm/lm3s811/TI_Stellaris/driverlib/pwm.c **** unsigned long
1721:/home/cuil/workspace/arm/lm3s811/TI_Stellaris/driverlib/pwm.c **** PWMGenFaultTriggerGet(unsigned long ulBase, unsigned long ulGen,
