   1              		.syntax unified
   2              		.cpu cortex-m3
   3              		.fpu softvfp
   4              		.eabi_attribute 20, 1
   5              		.eabi_attribute 21, 1
   6              		.eabi_attribute 23, 3
   7              		.eabi_attribute 24, 1
   8              		.eabi_attribute 25, 1
   9              		.eabi_attribute 26, 1
  10              		.eabi_attribute 30, 6
  11              		.eabi_attribute 18, 4
  12              		.thumb
  13              		.file	"sysctl.c"
  23              	.Ltext0:
  24              		.file 1 "/home/cuil/workspace/arm/lm3s811/TI_Stellaris/driverlib/sysctl.c"
 11432              		.align	2
 11435              	g_pulDCRegs:
 11436 0000 10E00F40 		.word	1074782224
 11437 0004 14E00F40 		.word	1074782228
 11438 0008 1CE00F40 		.word	1074782236
 11439 000c 10E00F40 		.word	1074782224
 11440              		.align	2
 11443              	g_pulSRCRRegs:
 11444 0010 40E00F40 		.word	1074782272
 11445 0014 44E00F40 		.word	1074782276
 11446 0018 48E00F40 		.word	1074782280
 11447              		.align	2
 11450              	g_pulRCGCRegs:
 11451 001c 00E10F40 		.word	1074782464
 11452 0020 04E10F40 		.word	1074782468
 11453 0024 08E10F40 		.word	1074782472
 11454              		.align	2
 11457              	g_pulSCGCRegs:
 11458 0028 10E10F40 		.word	1074782480
 11459 002c 14E10F40 		.word	1074782484
 11460 0030 18E10F40 		.word	1074782488
 11461              		.align	2
 11464              	g_pulDCGCRegs:
 11465 0034 20E10F40 		.word	1074782496
 11466 0038 24E10F40 		.word	1074782500
 11467 003c 28E10F40 		.word	1074782504
 11468              		.align	2
 11471              	g_pulXtals:
 11472 0040 40420F00 		.word	1000000
 11473 0044 00201C00 		.word	1843200
 11474 0048 80841E00 		.word	2000000
 11475 004c 00802500 		.word	2457600
 11476 0050 999E3600 		.word	3579545
 11477 0054 00403800 		.word	3686400
 11478 0058 00093D00 		.word	4000000
 11479 005c 00803E00 		.word	4096000
 11480 0060 00004B00 		.word	4915200
 11481 0064 404B4C00 		.word	5000000
 11482 0068 00204E00 		.word	5120000
 11483 006c 808D5B00 		.word	6000000
 11484 0070 00C05D00 		.word	6144000
 11485 0074 00807000 		.word	7372800
 11486 0078 00127A00 		.word	8000000
 11487 007c 00007D00 		.word	8192000
 11488 0080 80969800 		.word	10000000
 11489 0084 001BB700 		.word	12000000
 11490 0088 0080BB00 		.word	12288000
 11491 008c C0E8CE00 		.word	13560000
 11492 0090 647ADA00 		.word	14318180
 11493 0094 0024F400 		.word	16000000
 11494 0098 0000FA00 		.word	16384000
 11495 009c 80A81201 		.word	18000000
 11496 00a0 002D3101 		.word	20000000
 11497 00a4 00366E01 		.word	24000000
 11498 00a8 40787D01 		.word	25000000
 11499              		.align	2
 11502              	g_ppulPeripheralMap:
 11503 00ac 01001000 		.word	1048577
 11504 00b0 003800F0 		.word	-268421120
 11505 00b4 02001000 		.word	1048578
 11506 00b8 013800F0 		.word	-268421119
 11507 00bc 00011000 		.word	1048832
 11508 00c0 003400F0 		.word	-268422144
 11509 00c4 00021000 		.word	1049088
 11510 00c8 013400F0 		.word	-268422143
 11511 00cc 00041000 		.word	1049600
 11512 00d0 023400F0 		.word	-268422142
 11513 00d4 00011010 		.word	269484288
 11514 00d8 003C00F0 		.word	-268420096
 11515 00dc 00021010 		.word	269484544
 11516 00e0 003C00F0 		.word	-268420096
 11517 00e4 00041010 		.word	269485056
 11518 00e8 003C00F0 		.word	-268420096
 11519 00ec 01000020 		.word	536870913
 11520 00f0 000800F0 		.word	-268433408
 11521 00f4 02000020 		.word	536870914
 11522 00f8 010800F0 		.word	-268433407
 11523 00fc 04000020 		.word	536870916
 11524 0100 020800F0 		.word	-268433406
 11525 0104 08000020 		.word	536870920
 11526 0108 030800F0 		.word	-268433405
 11527 010c 10000020 		.word	536870928
 11528 0110 040800F0 		.word	-268433404
 11529 0114 20000020 		.word	536870944
 11530 0118 050800F0 		.word	-268433403
 11531 011c 40000020 		.word	536870976
 11532 0120 060800F0 		.word	-268433402
 11533 0124 80000020 		.word	536871040
 11534 0128 070800F0 		.word	-268433401
 11535 012c 00010020 		.word	536871168
 11536 0130 080800F0 		.word	-268433400
 11537 0134 00100010 		.word	268439552
 11538 0138 002000F0 		.word	-268427264
 11539 013c 00400010 		.word	268451840
 11540 0140 012000F0 		.word	-268427263
 11541 0144 10001000 		.word	1048592
 11542 0148 004000F0 		.word	-268419072
 11543 014c 00010010 		.word	268435712
 11544 0150 004400F0 		.word	-268418048
 11545 0154 00020010 		.word	268435968
 11546 0158 014400F0 		.word	-268418047
 11547 015c 10000010 		.word	268435472
 11548 0160 001C00F0 		.word	-268428288
 11549 0164 20000010 		.word	268435488
 11550 0168 011C00F0 		.word	-268428287
 11551 016c 01001010 		.word	269484033
 11552 0170 000400F0 		.word	-268434432
 11553 0174 02001010 		.word	269484034
 11554 0178 010400F0 		.word	-268434431
 11555 017c 04001010 		.word	269484036
 11556 0180 020400F0 		.word	-268434430
 11557 0184 08001010 		.word	269484040
 11558 0188 030400F0 		.word	-268434429
 11559 018c 01000010 		.word	268435457
 11560 0190 001800F0 		.word	-268429312
 11561 0194 02000010 		.word	268435458
 11562 0198 011800F0 		.word	-268429311
 11563 019c 04000010 		.word	268435460
 11564 01a0 021800F0 		.word	-268429310
 11565 01a4 00200020 		.word	536879104
 11566 01a8 000C00F0 		.word	-268432384
 11567 01ac 01001020 		.word	537919489
 11568 01b0 002800F0 		.word	-268425216
 11569 01b4 08000000 		.word	8
 11570 01b8 000000F0 		.word	-268435456
 11571 01bc 00101000 		.word	1052672
 11572 01c0 010000F0 		.word	-268435455
 11573              		.section	.text.SysCtlPeripheralMapToNew,"ax",%progbits
 11574              		.align	2
 11575              		.thumb
 11576              		.thumb_func
 11578              	SysCtlPeripheralMapToNew:
 11579              	.LFB0:
   1:/home/cuil/workspace/arm/lm3s811/TI_Stellaris/driverlib/sysctl.c **** //*****************************************************************************
   2:/home/cuil/workspace/arm/lm3s811/TI_Stellaris/driverlib/sysctl.c **** //
   3:/home/cuil/workspace/arm/lm3s811/TI_Stellaris/driverlib/sysctl.c **** // sysctl.c - Driver for the system controller.
   4:/home/cuil/workspace/arm/lm3s811/TI_Stellaris/driverlib/sysctl.c **** //
   5:/home/cuil/workspace/arm/lm3s811/TI_Stellaris/driverlib/sysctl.c **** // Copyright (c) 2005-2011 Texas Instruments Incorporated.  All rights reserved.
   6:/home/cuil/workspace/arm/lm3s811/TI_Stellaris/driverlib/sysctl.c **** // Software License Agreement
   7:/home/cuil/workspace/arm/lm3s811/TI_Stellaris/driverlib/sysctl.c **** // 
   8:/home/cuil/workspace/arm/lm3s811/TI_Stellaris/driverlib/sysctl.c **** // Texas Instruments (TI) is supplying this software for use solely and
   9:/home/cuil/workspace/arm/lm3s811/TI_Stellaris/driverlib/sysctl.c **** // exclusively on TI's microcontroller products. The software is owned by
  10:/home/cuil/workspace/arm/lm3s811/TI_Stellaris/driverlib/sysctl.c **** // TI and/or its suppliers, and is protected under applicable copyright
  11:/home/cuil/workspace/arm/lm3s811/TI_Stellaris/driverlib/sysctl.c **** // laws. You may not combine this software with "viral" open-source
  12:/home/cuil/workspace/arm/lm3s811/TI_Stellaris/driverlib/sysctl.c **** // software in order to form a larger program.
  13:/home/cuil/workspace/arm/lm3s811/TI_Stellaris/driverlib/sysctl.c **** // 
  14:/home/cuil/workspace/arm/lm3s811/TI_Stellaris/driverlib/sysctl.c **** // THIS SOFTWARE IS PROVIDED "AS IS" AND WITH ALL FAULTS.
  15:/home/cuil/workspace/arm/lm3s811/TI_Stellaris/driverlib/sysctl.c **** // NO WARRANTIES, WHETHER EXPRESS, IMPLIED OR STATUTORY, INCLUDING, BUT
  16:/home/cuil/workspace/arm/lm3s811/TI_Stellaris/driverlib/sysctl.c **** // NOT LIMITED TO, IMPLIED WARRANTIES OF MERCHANTABILITY AND FITNESS FOR
  17:/home/cuil/workspace/arm/lm3s811/TI_Stellaris/driverlib/sysctl.c **** // A PARTICULAR PURPOSE APPLY TO THIS SOFTWARE. TI SHALL NOT, UNDER ANY
  18:/home/cuil/workspace/arm/lm3s811/TI_Stellaris/driverlib/sysctl.c **** // CIRCUMSTANCES, BE LIABLE FOR SPECIAL, INCIDENTAL, OR CONSEQUENTIAL
  19:/home/cuil/workspace/arm/lm3s811/TI_Stellaris/driverlib/sysctl.c **** // DAMAGES, FOR ANY REASON WHATSOEVER.
  20:/home/cuil/workspace/arm/lm3s811/TI_Stellaris/driverlib/sysctl.c **** // 
  21:/home/cuil/workspace/arm/lm3s811/TI_Stellaris/driverlib/sysctl.c **** // This is part of revision 8264 of the Stellaris Peripheral Driver Library.
  22:/home/cuil/workspace/arm/lm3s811/TI_Stellaris/driverlib/sysctl.c **** //
  23:/home/cuil/workspace/arm/lm3s811/TI_Stellaris/driverlib/sysctl.c **** //*****************************************************************************
  24:/home/cuil/workspace/arm/lm3s811/TI_Stellaris/driverlib/sysctl.c **** 
  25:/home/cuil/workspace/arm/lm3s811/TI_Stellaris/driverlib/sysctl.c **** //*****************************************************************************
  26:/home/cuil/workspace/arm/lm3s811/TI_Stellaris/driverlib/sysctl.c **** //
  27:/home/cuil/workspace/arm/lm3s811/TI_Stellaris/driverlib/sysctl.c **** //! \addtogroup sysctl_api
  28:/home/cuil/workspace/arm/lm3s811/TI_Stellaris/driverlib/sysctl.c **** //! @{
  29:/home/cuil/workspace/arm/lm3s811/TI_Stellaris/driverlib/sysctl.c **** //
  30:/home/cuil/workspace/arm/lm3s811/TI_Stellaris/driverlib/sysctl.c **** //*****************************************************************************
  31:/home/cuil/workspace/arm/lm3s811/TI_Stellaris/driverlib/sysctl.c **** 
  32:/home/cuil/workspace/arm/lm3s811/TI_Stellaris/driverlib/sysctl.c **** #include "inc/hw_ints.h"
  33:/home/cuil/workspace/arm/lm3s811/TI_Stellaris/driverlib/sysctl.c **** #include "inc/hw_nvic.h"
  34:/home/cuil/workspace/arm/lm3s811/TI_Stellaris/driverlib/sysctl.c **** #include "inc/hw_sysctl.h"
  35:/home/cuil/workspace/arm/lm3s811/TI_Stellaris/driverlib/sysctl.c **** #include "inc/hw_types.h"
  36:/home/cuil/workspace/arm/lm3s811/TI_Stellaris/driverlib/sysctl.c **** #include "driverlib/cpu.h"
  37:/home/cuil/workspace/arm/lm3s811/TI_Stellaris/driverlib/sysctl.c **** #include "driverlib/debug.h"
  38:/home/cuil/workspace/arm/lm3s811/TI_Stellaris/driverlib/sysctl.c **** #include "driverlib/interrupt.h"
  39:/home/cuil/workspace/arm/lm3s811/TI_Stellaris/driverlib/sysctl.c **** #include "driverlib/sysctl.h"
  40:/home/cuil/workspace/arm/lm3s811/TI_Stellaris/driverlib/sysctl.c **** 
  41:/home/cuil/workspace/arm/lm3s811/TI_Stellaris/driverlib/sysctl.c **** //*****************************************************************************
  42:/home/cuil/workspace/arm/lm3s811/TI_Stellaris/driverlib/sysctl.c **** //
  43:/home/cuil/workspace/arm/lm3s811/TI_Stellaris/driverlib/sysctl.c **** // This macro extracts the array index out of the peripheral number.
  44:/home/cuil/workspace/arm/lm3s811/TI_Stellaris/driverlib/sysctl.c **** //
  45:/home/cuil/workspace/arm/lm3s811/TI_Stellaris/driverlib/sysctl.c **** //*****************************************************************************
  46:/home/cuil/workspace/arm/lm3s811/TI_Stellaris/driverlib/sysctl.c **** #define SYSCTL_PERIPH_INDEX(a)  (((a) >> 28) & 0xf)
  47:/home/cuil/workspace/arm/lm3s811/TI_Stellaris/driverlib/sysctl.c **** 
  48:/home/cuil/workspace/arm/lm3s811/TI_Stellaris/driverlib/sysctl.c **** //*****************************************************************************
  49:/home/cuil/workspace/arm/lm3s811/TI_Stellaris/driverlib/sysctl.c **** //
  50:/home/cuil/workspace/arm/lm3s811/TI_Stellaris/driverlib/sysctl.c **** // This macro constructs the peripheral bit mask from the peripheral number.
  51:/home/cuil/workspace/arm/lm3s811/TI_Stellaris/driverlib/sysctl.c **** //
  52:/home/cuil/workspace/arm/lm3s811/TI_Stellaris/driverlib/sysctl.c **** //*****************************************************************************
  53:/home/cuil/workspace/arm/lm3s811/TI_Stellaris/driverlib/sysctl.c **** #define SYSCTL_PERIPH_MASK(a)   (((a) & 0xffff) << (((a) & 0x001f0000) >> 16))
  54:/home/cuil/workspace/arm/lm3s811/TI_Stellaris/driverlib/sysctl.c **** 
  55:/home/cuil/workspace/arm/lm3s811/TI_Stellaris/driverlib/sysctl.c **** //*****************************************************************************
  56:/home/cuil/workspace/arm/lm3s811/TI_Stellaris/driverlib/sysctl.c **** //
  57:/home/cuil/workspace/arm/lm3s811/TI_Stellaris/driverlib/sysctl.c **** // An array that maps the "peripheral set" number (which is stored in the upper
  58:/home/cuil/workspace/arm/lm3s811/TI_Stellaris/driverlib/sysctl.c **** // nibble of the SYSCTL_PERIPH_* defines) to the SYSCTL DC? register that
  59:/home/cuil/workspace/arm/lm3s811/TI_Stellaris/driverlib/sysctl.c **** // contains the peripheral present bit for that peripheral.
  60:/home/cuil/workspace/arm/lm3s811/TI_Stellaris/driverlib/sysctl.c **** //
  61:/home/cuil/workspace/arm/lm3s811/TI_Stellaris/driverlib/sysctl.c **** //*****************************************************************************
  62:/home/cuil/workspace/arm/lm3s811/TI_Stellaris/driverlib/sysctl.c **** static const unsigned long g_pulDCRegs[] =
  63:/home/cuil/workspace/arm/lm3s811/TI_Stellaris/driverlib/sysctl.c **** {
  64:/home/cuil/workspace/arm/lm3s811/TI_Stellaris/driverlib/sysctl.c ****     SYSCTL_DC1,
  65:/home/cuil/workspace/arm/lm3s811/TI_Stellaris/driverlib/sysctl.c ****     SYSCTL_DC2,
  66:/home/cuil/workspace/arm/lm3s811/TI_Stellaris/driverlib/sysctl.c ****     SYSCTL_DC4,
  67:/home/cuil/workspace/arm/lm3s811/TI_Stellaris/driverlib/sysctl.c ****     SYSCTL_DC1
  68:/home/cuil/workspace/arm/lm3s811/TI_Stellaris/driverlib/sysctl.c **** };
  69:/home/cuil/workspace/arm/lm3s811/TI_Stellaris/driverlib/sysctl.c **** 
  70:/home/cuil/workspace/arm/lm3s811/TI_Stellaris/driverlib/sysctl.c **** //*****************************************************************************
  71:/home/cuil/workspace/arm/lm3s811/TI_Stellaris/driverlib/sysctl.c **** //
  72:/home/cuil/workspace/arm/lm3s811/TI_Stellaris/driverlib/sysctl.c **** // An array that maps the "peripheral set" number (which is stored in the upper
  73:/home/cuil/workspace/arm/lm3s811/TI_Stellaris/driverlib/sysctl.c **** // nibble of the SYSCTL_PERIPH_* defines) to the SYSCTL_SRCR? register that
  74:/home/cuil/workspace/arm/lm3s811/TI_Stellaris/driverlib/sysctl.c **** // controls the software reset for that peripheral.
  75:/home/cuil/workspace/arm/lm3s811/TI_Stellaris/driverlib/sysctl.c **** //
  76:/home/cuil/workspace/arm/lm3s811/TI_Stellaris/driverlib/sysctl.c **** //*****************************************************************************
  77:/home/cuil/workspace/arm/lm3s811/TI_Stellaris/driverlib/sysctl.c **** static const unsigned long g_pulSRCRRegs[] =
  78:/home/cuil/workspace/arm/lm3s811/TI_Stellaris/driverlib/sysctl.c **** {
  79:/home/cuil/workspace/arm/lm3s811/TI_Stellaris/driverlib/sysctl.c ****     SYSCTL_SRCR0,
  80:/home/cuil/workspace/arm/lm3s811/TI_Stellaris/driverlib/sysctl.c ****     SYSCTL_SRCR1,
  81:/home/cuil/workspace/arm/lm3s811/TI_Stellaris/driverlib/sysctl.c ****     SYSCTL_SRCR2
  82:/home/cuil/workspace/arm/lm3s811/TI_Stellaris/driverlib/sysctl.c **** };
  83:/home/cuil/workspace/arm/lm3s811/TI_Stellaris/driverlib/sysctl.c **** 
  84:/home/cuil/workspace/arm/lm3s811/TI_Stellaris/driverlib/sysctl.c **** //*****************************************************************************
  85:/home/cuil/workspace/arm/lm3s811/TI_Stellaris/driverlib/sysctl.c **** //
  86:/home/cuil/workspace/arm/lm3s811/TI_Stellaris/driverlib/sysctl.c **** // An array that maps the "peripheral set" number (which is stored in the upper
  87:/home/cuil/workspace/arm/lm3s811/TI_Stellaris/driverlib/sysctl.c **** // nibble of the SYSCTL_PERIPH_* defines) to the SYSCTL_RCGC? register that
  88:/home/cuil/workspace/arm/lm3s811/TI_Stellaris/driverlib/sysctl.c **** // controls the run-mode enable for that peripheral.
  89:/home/cuil/workspace/arm/lm3s811/TI_Stellaris/driverlib/sysctl.c **** //
  90:/home/cuil/workspace/arm/lm3s811/TI_Stellaris/driverlib/sysctl.c **** //*****************************************************************************
  91:/home/cuil/workspace/arm/lm3s811/TI_Stellaris/driverlib/sysctl.c **** static const unsigned long g_pulRCGCRegs[] =
  92:/home/cuil/workspace/arm/lm3s811/TI_Stellaris/driverlib/sysctl.c **** {
  93:/home/cuil/workspace/arm/lm3s811/TI_Stellaris/driverlib/sysctl.c ****     SYSCTL_RCGC0,
  94:/home/cuil/workspace/arm/lm3s811/TI_Stellaris/driverlib/sysctl.c ****     SYSCTL_RCGC1,
  95:/home/cuil/workspace/arm/lm3s811/TI_Stellaris/driverlib/sysctl.c ****     SYSCTL_RCGC2
  96:/home/cuil/workspace/arm/lm3s811/TI_Stellaris/driverlib/sysctl.c **** };
  97:/home/cuil/workspace/arm/lm3s811/TI_Stellaris/driverlib/sysctl.c **** 
  98:/home/cuil/workspace/arm/lm3s811/TI_Stellaris/driverlib/sysctl.c **** //*****************************************************************************
  99:/home/cuil/workspace/arm/lm3s811/TI_Stellaris/driverlib/sysctl.c **** //
 100:/home/cuil/workspace/arm/lm3s811/TI_Stellaris/driverlib/sysctl.c **** // An array that maps the "peripheral set" number (which is stored in the upper
 101:/home/cuil/workspace/arm/lm3s811/TI_Stellaris/driverlib/sysctl.c **** // nibble of the SYSCTL_PERIPH_* defines) to the SYSCTL_SCGC? register that
 102:/home/cuil/workspace/arm/lm3s811/TI_Stellaris/driverlib/sysctl.c **** // controls the sleep-mode enable for that peripheral.
 103:/home/cuil/workspace/arm/lm3s811/TI_Stellaris/driverlib/sysctl.c **** //
 104:/home/cuil/workspace/arm/lm3s811/TI_Stellaris/driverlib/sysctl.c **** //*****************************************************************************
 105:/home/cuil/workspace/arm/lm3s811/TI_Stellaris/driverlib/sysctl.c **** static const unsigned long g_pulSCGCRegs[] =
 106:/home/cuil/workspace/arm/lm3s811/TI_Stellaris/driverlib/sysctl.c **** {
 107:/home/cuil/workspace/arm/lm3s811/TI_Stellaris/driverlib/sysctl.c ****     SYSCTL_SCGC0,
 108:/home/cuil/workspace/arm/lm3s811/TI_Stellaris/driverlib/sysctl.c ****     SYSCTL_SCGC1,
 109:/home/cuil/workspace/arm/lm3s811/TI_Stellaris/driverlib/sysctl.c ****     SYSCTL_SCGC2
 110:/home/cuil/workspace/arm/lm3s811/TI_Stellaris/driverlib/sysctl.c **** };
 111:/home/cuil/workspace/arm/lm3s811/TI_Stellaris/driverlib/sysctl.c **** 
 112:/home/cuil/workspace/arm/lm3s811/TI_Stellaris/driverlib/sysctl.c **** //*****************************************************************************
 113:/home/cuil/workspace/arm/lm3s811/TI_Stellaris/driverlib/sysctl.c **** //
 114:/home/cuil/workspace/arm/lm3s811/TI_Stellaris/driverlib/sysctl.c **** // An array that maps the "peripheral set" number (which is stored in the upper
 115:/home/cuil/workspace/arm/lm3s811/TI_Stellaris/driverlib/sysctl.c **** // nibble of the SYSCTL_PERIPH_* defines) to the SYSCTL_DCGC? register that
 116:/home/cuil/workspace/arm/lm3s811/TI_Stellaris/driverlib/sysctl.c **** // controls the deep-sleep-mode enable for that peripheral.
 117:/home/cuil/workspace/arm/lm3s811/TI_Stellaris/driverlib/sysctl.c **** //
 118:/home/cuil/workspace/arm/lm3s811/TI_Stellaris/driverlib/sysctl.c **** //*****************************************************************************
 119:/home/cuil/workspace/arm/lm3s811/TI_Stellaris/driverlib/sysctl.c **** static const unsigned long g_pulDCGCRegs[] =
 120:/home/cuil/workspace/arm/lm3s811/TI_Stellaris/driverlib/sysctl.c **** {
 121:/home/cuil/workspace/arm/lm3s811/TI_Stellaris/driverlib/sysctl.c ****     SYSCTL_DCGC0,
 122:/home/cuil/workspace/arm/lm3s811/TI_Stellaris/driverlib/sysctl.c ****     SYSCTL_DCGC1,
 123:/home/cuil/workspace/arm/lm3s811/TI_Stellaris/driverlib/sysctl.c ****     SYSCTL_DCGC2
 124:/home/cuil/workspace/arm/lm3s811/TI_Stellaris/driverlib/sysctl.c **** };
 125:/home/cuil/workspace/arm/lm3s811/TI_Stellaris/driverlib/sysctl.c **** 
 126:/home/cuil/workspace/arm/lm3s811/TI_Stellaris/driverlib/sysctl.c **** //*****************************************************************************
 127:/home/cuil/workspace/arm/lm3s811/TI_Stellaris/driverlib/sysctl.c **** //
 128:/home/cuil/workspace/arm/lm3s811/TI_Stellaris/driverlib/sysctl.c **** // An array that maps the crystal number in RCC to a frequency.
 129:/home/cuil/workspace/arm/lm3s811/TI_Stellaris/driverlib/sysctl.c **** //
 130:/home/cuil/workspace/arm/lm3s811/TI_Stellaris/driverlib/sysctl.c **** //*****************************************************************************
 131:/home/cuil/workspace/arm/lm3s811/TI_Stellaris/driverlib/sysctl.c **** static const unsigned long g_pulXtals[] =
 132:/home/cuil/workspace/arm/lm3s811/TI_Stellaris/driverlib/sysctl.c **** {
 133:/home/cuil/workspace/arm/lm3s811/TI_Stellaris/driverlib/sysctl.c ****     1000000,
 134:/home/cuil/workspace/arm/lm3s811/TI_Stellaris/driverlib/sysctl.c ****     1843200,
 135:/home/cuil/workspace/arm/lm3s811/TI_Stellaris/driverlib/sysctl.c ****     2000000,
 136:/home/cuil/workspace/arm/lm3s811/TI_Stellaris/driverlib/sysctl.c ****     2457600,
 137:/home/cuil/workspace/arm/lm3s811/TI_Stellaris/driverlib/sysctl.c ****     3579545,
 138:/home/cuil/workspace/arm/lm3s811/TI_Stellaris/driverlib/sysctl.c ****     3686400,
 139:/home/cuil/workspace/arm/lm3s811/TI_Stellaris/driverlib/sysctl.c ****     4000000,
 140:/home/cuil/workspace/arm/lm3s811/TI_Stellaris/driverlib/sysctl.c ****     4096000,
 141:/home/cuil/workspace/arm/lm3s811/TI_Stellaris/driverlib/sysctl.c ****     4915200,
 142:/home/cuil/workspace/arm/lm3s811/TI_Stellaris/driverlib/sysctl.c ****     5000000,
 143:/home/cuil/workspace/arm/lm3s811/TI_Stellaris/driverlib/sysctl.c ****     5120000,
 144:/home/cuil/workspace/arm/lm3s811/TI_Stellaris/driverlib/sysctl.c ****     6000000,
 145:/home/cuil/workspace/arm/lm3s811/TI_Stellaris/driverlib/sysctl.c ****     6144000,
 146:/home/cuil/workspace/arm/lm3s811/TI_Stellaris/driverlib/sysctl.c ****     7372800,
 147:/home/cuil/workspace/arm/lm3s811/TI_Stellaris/driverlib/sysctl.c ****     8000000,
 148:/home/cuil/workspace/arm/lm3s811/TI_Stellaris/driverlib/sysctl.c ****     8192000,
 149:/home/cuil/workspace/arm/lm3s811/TI_Stellaris/driverlib/sysctl.c ****     10000000,
 150:/home/cuil/workspace/arm/lm3s811/TI_Stellaris/driverlib/sysctl.c ****     12000000,
 151:/home/cuil/workspace/arm/lm3s811/TI_Stellaris/driverlib/sysctl.c ****     12288000,
 152:/home/cuil/workspace/arm/lm3s811/TI_Stellaris/driverlib/sysctl.c ****     13560000,
 153:/home/cuil/workspace/arm/lm3s811/TI_Stellaris/driverlib/sysctl.c ****     14318180,
 154:/home/cuil/workspace/arm/lm3s811/TI_Stellaris/driverlib/sysctl.c ****     16000000,
 155:/home/cuil/workspace/arm/lm3s811/TI_Stellaris/driverlib/sysctl.c ****     16384000,
 156:/home/cuil/workspace/arm/lm3s811/TI_Stellaris/driverlib/sysctl.c ****     18000000,
 157:/home/cuil/workspace/arm/lm3s811/TI_Stellaris/driverlib/sysctl.c ****     20000000,
 158:/home/cuil/workspace/arm/lm3s811/TI_Stellaris/driverlib/sysctl.c ****     24000000,
 159:/home/cuil/workspace/arm/lm3s811/TI_Stellaris/driverlib/sysctl.c ****     25000000
 160:/home/cuil/workspace/arm/lm3s811/TI_Stellaris/driverlib/sysctl.c **** };
 161:/home/cuil/workspace/arm/lm3s811/TI_Stellaris/driverlib/sysctl.c **** 
 162:/home/cuil/workspace/arm/lm3s811/TI_Stellaris/driverlib/sysctl.c **** //*****************************************************************************
 163:/home/cuil/workspace/arm/lm3s811/TI_Stellaris/driverlib/sysctl.c **** //
 164:/home/cuil/workspace/arm/lm3s811/TI_Stellaris/driverlib/sysctl.c **** // The base addresses of the various peripheral control registers.
 165:/home/cuil/workspace/arm/lm3s811/TI_Stellaris/driverlib/sysctl.c **** //
 166:/home/cuil/workspace/arm/lm3s811/TI_Stellaris/driverlib/sysctl.c **** //*****************************************************************************
 167:/home/cuil/workspace/arm/lm3s811/TI_Stellaris/driverlib/sysctl.c **** #define SYSCTL_PPBASE           0x400fe300
 168:/home/cuil/workspace/arm/lm3s811/TI_Stellaris/driverlib/sysctl.c **** #define SYSCTL_SRBASE           0x400fe500
 169:/home/cuil/workspace/arm/lm3s811/TI_Stellaris/driverlib/sysctl.c **** #define SYSCTL_RCGCBASE         0x400fe600
 170:/home/cuil/workspace/arm/lm3s811/TI_Stellaris/driverlib/sysctl.c **** #define SYSCTL_SCGCBASE         0x400fe700
 171:/home/cuil/workspace/arm/lm3s811/TI_Stellaris/driverlib/sysctl.c **** #define SYSCTL_DCGCBASE         0x400fe800
 172:/home/cuil/workspace/arm/lm3s811/TI_Stellaris/driverlib/sysctl.c **** #define SYSCTL_PCBASE           0x400fe900
 173:/home/cuil/workspace/arm/lm3s811/TI_Stellaris/driverlib/sysctl.c **** #define SYSCTL_PRBASE           0x400fea00
 174:/home/cuil/workspace/arm/lm3s811/TI_Stellaris/driverlib/sysctl.c **** 
 175:/home/cuil/workspace/arm/lm3s811/TI_Stellaris/driverlib/sysctl.c **** //*****************************************************************************
 176:/home/cuil/workspace/arm/lm3s811/TI_Stellaris/driverlib/sysctl.c **** //
 177:/home/cuil/workspace/arm/lm3s811/TI_Stellaris/driverlib/sysctl.c **** //! \internal
 178:/home/cuil/workspace/arm/lm3s811/TI_Stellaris/driverlib/sysctl.c **** //! Checks a peripheral identifier.
 179:/home/cuil/workspace/arm/lm3s811/TI_Stellaris/driverlib/sysctl.c **** //!
 180:/home/cuil/workspace/arm/lm3s811/TI_Stellaris/driverlib/sysctl.c **** //! \param ulPeripheral is the peripheral identifier.
 181:/home/cuil/workspace/arm/lm3s811/TI_Stellaris/driverlib/sysctl.c **** //!
 182:/home/cuil/workspace/arm/lm3s811/TI_Stellaris/driverlib/sysctl.c **** //! This function determines if a peripheral identifier is valid.
 183:/home/cuil/workspace/arm/lm3s811/TI_Stellaris/driverlib/sysctl.c **** //!
 184:/home/cuil/workspace/arm/lm3s811/TI_Stellaris/driverlib/sysctl.c **** //! \return Returns \b true if the peripheral identifier is valid and \b false
 185:/home/cuil/workspace/arm/lm3s811/TI_Stellaris/driverlib/sysctl.c **** //! otherwise.
 186:/home/cuil/workspace/arm/lm3s811/TI_Stellaris/driverlib/sysctl.c **** //
 187:/home/cuil/workspace/arm/lm3s811/TI_Stellaris/driverlib/sysctl.c **** //*****************************************************************************
 188:/home/cuil/workspace/arm/lm3s811/TI_Stellaris/driverlib/sysctl.c **** #ifdef DEBUG
 189:/home/cuil/workspace/arm/lm3s811/TI_Stellaris/driverlib/sysctl.c **** static tBoolean
 190:/home/cuil/workspace/arm/lm3s811/TI_Stellaris/driverlib/sysctl.c **** SysCtlPeripheralValid(unsigned long ulPeripheral)
 191:/home/cuil/workspace/arm/lm3s811/TI_Stellaris/driverlib/sysctl.c **** {
 192:/home/cuil/workspace/arm/lm3s811/TI_Stellaris/driverlib/sysctl.c ****     return((ulPeripheral == SYSCTL_PERIPH_ADC0) ||
 193:/home/cuil/workspace/arm/lm3s811/TI_Stellaris/driverlib/sysctl.c ****            (ulPeripheral == SYSCTL_PERIPH_ADC1) ||
 194:/home/cuil/workspace/arm/lm3s811/TI_Stellaris/driverlib/sysctl.c ****            (ulPeripheral == SYSCTL_PERIPH_CAN0) ||
 195:/home/cuil/workspace/arm/lm3s811/TI_Stellaris/driverlib/sysctl.c ****            (ulPeripheral == SYSCTL_PERIPH_CAN1) ||
 196:/home/cuil/workspace/arm/lm3s811/TI_Stellaris/driverlib/sysctl.c ****            (ulPeripheral == SYSCTL_PERIPH_CAN2) ||
 197:/home/cuil/workspace/arm/lm3s811/TI_Stellaris/driverlib/sysctl.c ****            (ulPeripheral == SYSCTL_PERIPH_COMP0) ||
 198:/home/cuil/workspace/arm/lm3s811/TI_Stellaris/driverlib/sysctl.c ****            (ulPeripheral == SYSCTL_PERIPH_COMP1) ||
 199:/home/cuil/workspace/arm/lm3s811/TI_Stellaris/driverlib/sysctl.c ****            (ulPeripheral == SYSCTL_PERIPH_COMP2) ||
 200:/home/cuil/workspace/arm/lm3s811/TI_Stellaris/driverlib/sysctl.c ****            (ulPeripheral == SYSCTL_PERIPH_EEPROM0) ||
 201:/home/cuil/workspace/arm/lm3s811/TI_Stellaris/driverlib/sysctl.c ****            (ulPeripheral == SYSCTL_PERIPH_EPI0) ||
 202:/home/cuil/workspace/arm/lm3s811/TI_Stellaris/driverlib/sysctl.c ****            (ulPeripheral == SYSCTL_PERIPH_ETH) ||
 203:/home/cuil/workspace/arm/lm3s811/TI_Stellaris/driverlib/sysctl.c ****            (ulPeripheral == SYSCTL_PERIPH_FAN0) ||
 204:/home/cuil/workspace/arm/lm3s811/TI_Stellaris/driverlib/sysctl.c ****            (ulPeripheral == SYSCTL_PERIPH_GPIOA) ||
 205:/home/cuil/workspace/arm/lm3s811/TI_Stellaris/driverlib/sysctl.c ****            (ulPeripheral == SYSCTL_PERIPH_GPIOB) ||
 206:/home/cuil/workspace/arm/lm3s811/TI_Stellaris/driverlib/sysctl.c ****            (ulPeripheral == SYSCTL_PERIPH_GPIOC) ||
 207:/home/cuil/workspace/arm/lm3s811/TI_Stellaris/driverlib/sysctl.c ****            (ulPeripheral == SYSCTL_PERIPH_GPIOD) ||
 208:/home/cuil/workspace/arm/lm3s811/TI_Stellaris/driverlib/sysctl.c ****            (ulPeripheral == SYSCTL_PERIPH_GPIOE) ||
 209:/home/cuil/workspace/arm/lm3s811/TI_Stellaris/driverlib/sysctl.c ****            (ulPeripheral == SYSCTL_PERIPH_GPIOF) ||
 210:/home/cuil/workspace/arm/lm3s811/TI_Stellaris/driverlib/sysctl.c ****            (ulPeripheral == SYSCTL_PERIPH_GPIOG) ||
 211:/home/cuil/workspace/arm/lm3s811/TI_Stellaris/driverlib/sysctl.c ****            (ulPeripheral == SYSCTL_PERIPH_GPIOH) ||
 212:/home/cuil/workspace/arm/lm3s811/TI_Stellaris/driverlib/sysctl.c ****            (ulPeripheral == SYSCTL_PERIPH_GPIOJ) ||
 213:/home/cuil/workspace/arm/lm3s811/TI_Stellaris/driverlib/sysctl.c ****            (ulPeripheral == SYSCTL_PERIPH_GPIOK) ||
 214:/home/cuil/workspace/arm/lm3s811/TI_Stellaris/driverlib/sysctl.c ****            (ulPeripheral == SYSCTL_PERIPH_GPIOL) ||
 215:/home/cuil/workspace/arm/lm3s811/TI_Stellaris/driverlib/sysctl.c ****            (ulPeripheral == SYSCTL_PERIPH_GPIOM) ||
 216:/home/cuil/workspace/arm/lm3s811/TI_Stellaris/driverlib/sysctl.c ****            (ulPeripheral == SYSCTL_PERIPH_GPION) ||
 217:/home/cuil/workspace/arm/lm3s811/TI_Stellaris/driverlib/sysctl.c ****            (ulPeripheral == SYSCTL_PERIPH_GPIOP) ||
 218:/home/cuil/workspace/arm/lm3s811/TI_Stellaris/driverlib/sysctl.c ****            (ulPeripheral == SYSCTL_PERIPH_GPIOQ) ||
 219:/home/cuil/workspace/arm/lm3s811/TI_Stellaris/driverlib/sysctl.c ****            (ulPeripheral == SYSCTL_PERIPH_HIBERNATE) ||
 220:/home/cuil/workspace/arm/lm3s811/TI_Stellaris/driverlib/sysctl.c ****            (ulPeripheral == SYSCTL_PERIPH_I2C0) ||
 221:/home/cuil/workspace/arm/lm3s811/TI_Stellaris/driverlib/sysctl.c ****            (ulPeripheral == SYSCTL_PERIPH_I2C1) ||
 222:/home/cuil/workspace/arm/lm3s811/TI_Stellaris/driverlib/sysctl.c ****            (ulPeripheral == SYSCTL_PERIPH_I2C2) ||
 223:/home/cuil/workspace/arm/lm3s811/TI_Stellaris/driverlib/sysctl.c ****            (ulPeripheral == SYSCTL_PERIPH_I2C3) ||
 224:/home/cuil/workspace/arm/lm3s811/TI_Stellaris/driverlib/sysctl.c ****            (ulPeripheral == SYSCTL_PERIPH_I2C4) ||
 225:/home/cuil/workspace/arm/lm3s811/TI_Stellaris/driverlib/sysctl.c ****            (ulPeripheral == SYSCTL_PERIPH_I2C5) ||
 226:/home/cuil/workspace/arm/lm3s811/TI_Stellaris/driverlib/sysctl.c ****            (ulPeripheral == SYSCTL_PERIPH_I2S0) ||
 227:/home/cuil/workspace/arm/lm3s811/TI_Stellaris/driverlib/sysctl.c ****            (ulPeripheral == SYSCTL_PERIPH_IEEE1588) ||
 228:/home/cuil/workspace/arm/lm3s811/TI_Stellaris/driverlib/sysctl.c ****            (ulPeripheral == SYSCTL_PERIPH_LPC0) ||
 229:/home/cuil/workspace/arm/lm3s811/TI_Stellaris/driverlib/sysctl.c ****            (ulPeripheral == SYSCTL_PERIPH_MPU) ||
 230:/home/cuil/workspace/arm/lm3s811/TI_Stellaris/driverlib/sysctl.c ****            (ulPeripheral == SYSCTL_PERIPH_PECI0) ||
 231:/home/cuil/workspace/arm/lm3s811/TI_Stellaris/driverlib/sysctl.c ****            (ulPeripheral == SYSCTL_PERIPH_PLL) ||
 232:/home/cuil/workspace/arm/lm3s811/TI_Stellaris/driverlib/sysctl.c ****            (ulPeripheral == SYSCTL_PERIPH_PWM0) ||
 233:/home/cuil/workspace/arm/lm3s811/TI_Stellaris/driverlib/sysctl.c ****            (ulPeripheral == SYSCTL_PERIPH_PWM1) ||
 234:/home/cuil/workspace/arm/lm3s811/TI_Stellaris/driverlib/sysctl.c ****            (ulPeripheral == SYSCTL_PERIPH_QEI0) ||
 235:/home/cuil/workspace/arm/lm3s811/TI_Stellaris/driverlib/sysctl.c ****            (ulPeripheral == SYSCTL_PERIPH_QEI1) ||
 236:/home/cuil/workspace/arm/lm3s811/TI_Stellaris/driverlib/sysctl.c ****            (ulPeripheral == SYSCTL_PERIPH_SSI0) ||
 237:/home/cuil/workspace/arm/lm3s811/TI_Stellaris/driverlib/sysctl.c ****            (ulPeripheral == SYSCTL_PERIPH_SSI1) ||
 238:/home/cuil/workspace/arm/lm3s811/TI_Stellaris/driverlib/sysctl.c ****            (ulPeripheral == SYSCTL_PERIPH_SSI2) ||
 239:/home/cuil/workspace/arm/lm3s811/TI_Stellaris/driverlib/sysctl.c ****            (ulPeripheral == SYSCTL_PERIPH_SSI3) ||
 240:/home/cuil/workspace/arm/lm3s811/TI_Stellaris/driverlib/sysctl.c ****            (ulPeripheral == SYSCTL_PERIPH_TEMP) ||
 241:/home/cuil/workspace/arm/lm3s811/TI_Stellaris/driverlib/sysctl.c ****            (ulPeripheral == SYSCTL_PERIPH_TIMER0) ||
 242:/home/cuil/workspace/arm/lm3s811/TI_Stellaris/driverlib/sysctl.c ****            (ulPeripheral == SYSCTL_PERIPH_TIMER1) ||
 243:/home/cuil/workspace/arm/lm3s811/TI_Stellaris/driverlib/sysctl.c ****            (ulPeripheral == SYSCTL_PERIPH_TIMER2) ||
 244:/home/cuil/workspace/arm/lm3s811/TI_Stellaris/driverlib/sysctl.c ****            (ulPeripheral == SYSCTL_PERIPH_TIMER3) ||
 245:/home/cuil/workspace/arm/lm3s811/TI_Stellaris/driverlib/sysctl.c ****            (ulPeripheral == SYSCTL_PERIPH_TIMER4) ||
 246:/home/cuil/workspace/arm/lm3s811/TI_Stellaris/driverlib/sysctl.c ****            (ulPeripheral == SYSCTL_PERIPH_TIMER5) ||
 247:/home/cuil/workspace/arm/lm3s811/TI_Stellaris/driverlib/sysctl.c ****            (ulPeripheral == SYSCTL_PERIPH_UART0) ||
 248:/home/cuil/workspace/arm/lm3s811/TI_Stellaris/driverlib/sysctl.c ****            (ulPeripheral == SYSCTL_PERIPH_UART1) ||
 249:/home/cuil/workspace/arm/lm3s811/TI_Stellaris/driverlib/sysctl.c ****            (ulPeripheral == SYSCTL_PERIPH_UART2) ||
 250:/home/cuil/workspace/arm/lm3s811/TI_Stellaris/driverlib/sysctl.c ****            (ulPeripheral == SYSCTL_PERIPH_UART3) ||
 251:/home/cuil/workspace/arm/lm3s811/TI_Stellaris/driverlib/sysctl.c ****            (ulPeripheral == SYSCTL_PERIPH_UART4) ||
 252:/home/cuil/workspace/arm/lm3s811/TI_Stellaris/driverlib/sysctl.c ****            (ulPeripheral == SYSCTL_PERIPH_UART5) ||
 253:/home/cuil/workspace/arm/lm3s811/TI_Stellaris/driverlib/sysctl.c ****            (ulPeripheral == SYSCTL_PERIPH_UART6) ||
 254:/home/cuil/workspace/arm/lm3s811/TI_Stellaris/driverlib/sysctl.c ****            (ulPeripheral == SYSCTL_PERIPH_UART7) ||
 255:/home/cuil/workspace/arm/lm3s811/TI_Stellaris/driverlib/sysctl.c ****            (ulPeripheral == SYSCTL_PERIPH_UDMA) ||
 256:/home/cuil/workspace/arm/lm3s811/TI_Stellaris/driverlib/sysctl.c ****            (ulPeripheral == SYSCTL_PERIPH_USB0) ||
 257:/home/cuil/workspace/arm/lm3s811/TI_Stellaris/driverlib/sysctl.c ****            (ulPeripheral == SYSCTL_PERIPH_WDOG0) ||
 258:/home/cuil/workspace/arm/lm3s811/TI_Stellaris/driverlib/sysctl.c ****            (ulPeripheral == SYSCTL_PERIPH_WDOG1) ||
 259:/home/cuil/workspace/arm/lm3s811/TI_Stellaris/driverlib/sysctl.c ****            (ulPeripheral == SYSCTL_PERIPH_WTIMER0) ||
 260:/home/cuil/workspace/arm/lm3s811/TI_Stellaris/driverlib/sysctl.c ****            (ulPeripheral == SYSCTL_PERIPH_WTIMER1) ||
 261:/home/cuil/workspace/arm/lm3s811/TI_Stellaris/driverlib/sysctl.c ****            (ulPeripheral == SYSCTL_PERIPH_WTIMER2) ||
 262:/home/cuil/workspace/arm/lm3s811/TI_Stellaris/driverlib/sysctl.c ****            (ulPeripheral == SYSCTL_PERIPH_WTIMER3) ||
 263:/home/cuil/workspace/arm/lm3s811/TI_Stellaris/driverlib/sysctl.c ****            (ulPeripheral == SYSCTL_PERIPH_WTIMER4) ||
 264:/home/cuil/workspace/arm/lm3s811/TI_Stellaris/driverlib/sysctl.c ****            (ulPeripheral == SYSCTL_PERIPH_WTIMER5));
 265:/home/cuil/workspace/arm/lm3s811/TI_Stellaris/driverlib/sysctl.c **** }
 266:/home/cuil/workspace/arm/lm3s811/TI_Stellaris/driverlib/sysctl.c **** #endif
 267:/home/cuil/workspace/arm/lm3s811/TI_Stellaris/driverlib/sysctl.c **** 
 268:/home/cuil/workspace/arm/lm3s811/TI_Stellaris/driverlib/sysctl.c **** //*****************************************************************************
 269:/home/cuil/workspace/arm/lm3s811/TI_Stellaris/driverlib/sysctl.c **** //
 270:/home/cuil/workspace/arm/lm3s811/TI_Stellaris/driverlib/sysctl.c **** // A map of old peripheral defines to new peripheral defines.  Note that the
 271:/home/cuil/workspace/arm/lm3s811/TI_Stellaris/driverlib/sysctl.c **** // new peripheral defines will not work on parts that precede Blizzard class.
 272:/home/cuil/workspace/arm/lm3s811/TI_Stellaris/driverlib/sysctl.c **** //
 273:/home/cuil/workspace/arm/lm3s811/TI_Stellaris/driverlib/sysctl.c **** //*****************************************************************************
 274:/home/cuil/workspace/arm/lm3s811/TI_Stellaris/driverlib/sysctl.c **** static const unsigned long g_ppulPeripheralMap[][2] =
 275:/home/cuil/workspace/arm/lm3s811/TI_Stellaris/driverlib/sysctl.c **** {
 276:/home/cuil/workspace/arm/lm3s811/TI_Stellaris/driverlib/sysctl.c ****     { SYSCTL_PERIPH_ADC0, SYSCTL_PERIPH2_ADC0 },
 277:/home/cuil/workspace/arm/lm3s811/TI_Stellaris/driverlib/sysctl.c ****     { SYSCTL_PERIPH_ADC1, SYSCTL_PERIPH2_ADC1 },
 278:/home/cuil/workspace/arm/lm3s811/TI_Stellaris/driverlib/sysctl.c ****     { SYSCTL_PERIPH_CAN0, SYSCTL_PERIPH2_CAN0 },
 279:/home/cuil/workspace/arm/lm3s811/TI_Stellaris/driverlib/sysctl.c ****     { SYSCTL_PERIPH_CAN1, SYSCTL_PERIPH2_CAN1 },
 280:/home/cuil/workspace/arm/lm3s811/TI_Stellaris/driverlib/sysctl.c ****     { SYSCTL_PERIPH_CAN2, SYSCTL_PERIPH2_CAN2 },
 281:/home/cuil/workspace/arm/lm3s811/TI_Stellaris/driverlib/sysctl.c ****     { SYSCTL_PERIPH_COMP0, SYSCTL_PERIPH2_COMP0 },
 282:/home/cuil/workspace/arm/lm3s811/TI_Stellaris/driverlib/sysctl.c ****     { SYSCTL_PERIPH_COMP1, SYSCTL_PERIPH2_COMP0 },
 283:/home/cuil/workspace/arm/lm3s811/TI_Stellaris/driverlib/sysctl.c ****     { SYSCTL_PERIPH_COMP2, SYSCTL_PERIPH2_COMP0 },
 284:/home/cuil/workspace/arm/lm3s811/TI_Stellaris/driverlib/sysctl.c ****     { SYSCTL_PERIPH_GPIOA, SYSCTL_PERIPH2_GPIOA },
 285:/home/cuil/workspace/arm/lm3s811/TI_Stellaris/driverlib/sysctl.c ****     { SYSCTL_PERIPH_GPIOB, SYSCTL_PERIPH2_GPIOB },
 286:/home/cuil/workspace/arm/lm3s811/TI_Stellaris/driverlib/sysctl.c ****     { SYSCTL_PERIPH_GPIOC, SYSCTL_PERIPH2_GPIOC },
 287:/home/cuil/workspace/arm/lm3s811/TI_Stellaris/driverlib/sysctl.c ****     { SYSCTL_PERIPH_GPIOD, SYSCTL_PERIPH2_GPIOD },
 288:/home/cuil/workspace/arm/lm3s811/TI_Stellaris/driverlib/sysctl.c ****     { SYSCTL_PERIPH_GPIOE, SYSCTL_PERIPH2_GPIOE },
 289:/home/cuil/workspace/arm/lm3s811/TI_Stellaris/driverlib/sysctl.c ****     { SYSCTL_PERIPH_GPIOF, SYSCTL_PERIPH2_GPIOF },
 290:/home/cuil/workspace/arm/lm3s811/TI_Stellaris/driverlib/sysctl.c ****     { SYSCTL_PERIPH_GPIOG, SYSCTL_PERIPH2_GPIOG },
 291:/home/cuil/workspace/arm/lm3s811/TI_Stellaris/driverlib/sysctl.c ****     { SYSCTL_PERIPH_GPIOH, SYSCTL_PERIPH2_GPIOH },
 292:/home/cuil/workspace/arm/lm3s811/TI_Stellaris/driverlib/sysctl.c ****     { SYSCTL_PERIPH_GPIOJ, SYSCTL_PERIPH2_GPIOJ },
 293:/home/cuil/workspace/arm/lm3s811/TI_Stellaris/driverlib/sysctl.c ****     { SYSCTL_PERIPH_I2C0, SYSCTL_PERIPH2_I2C0 },
 294:/home/cuil/workspace/arm/lm3s811/TI_Stellaris/driverlib/sysctl.c ****     { SYSCTL_PERIPH_I2C1, SYSCTL_PERIPH2_I2C1 },
 295:/home/cuil/workspace/arm/lm3s811/TI_Stellaris/driverlib/sysctl.c ****     { SYSCTL_PERIPH_PWM0, SYSCTL_PERIPH2_PWM0 },
 296:/home/cuil/workspace/arm/lm3s811/TI_Stellaris/driverlib/sysctl.c ****     { SYSCTL_PERIPH_QEI0, SYSCTL_PERIPH2_QEI0 },
 297:/home/cuil/workspace/arm/lm3s811/TI_Stellaris/driverlib/sysctl.c ****     { SYSCTL_PERIPH_QEI1, SYSCTL_PERIPH2_QEI1 },
 298:/home/cuil/workspace/arm/lm3s811/TI_Stellaris/driverlib/sysctl.c ****     { SYSCTL_PERIPH_SSI0, SYSCTL_PERIPH2_SSI0 },
 299:/home/cuil/workspace/arm/lm3s811/TI_Stellaris/driverlib/sysctl.c ****     { SYSCTL_PERIPH_SSI1, SYSCTL_PERIPH2_SSI1 },
 300:/home/cuil/workspace/arm/lm3s811/TI_Stellaris/driverlib/sysctl.c ****     { SYSCTL_PERIPH_TIMER0, SYSCTL_PERIPH2_TIMER0 },
 301:/home/cuil/workspace/arm/lm3s811/TI_Stellaris/driverlib/sysctl.c ****     { SYSCTL_PERIPH_TIMER1, SYSCTL_PERIPH2_TIMER1 },
 302:/home/cuil/workspace/arm/lm3s811/TI_Stellaris/driverlib/sysctl.c ****     { SYSCTL_PERIPH_TIMER2, SYSCTL_PERIPH2_TIMER2 },
 303:/home/cuil/workspace/arm/lm3s811/TI_Stellaris/driverlib/sysctl.c ****     { SYSCTL_PERIPH_TIMER3, SYSCTL_PERIPH2_TIMER3 },
 304:/home/cuil/workspace/arm/lm3s811/TI_Stellaris/driverlib/sysctl.c ****     { SYSCTL_PERIPH_UART0, SYSCTL_PERIPH2_UART0 },
 305:/home/cuil/workspace/arm/lm3s811/TI_Stellaris/driverlib/sysctl.c ****     { SYSCTL_PERIPH_UART1, SYSCTL_PERIPH2_UART1 },
 306:/home/cuil/workspace/arm/lm3s811/TI_Stellaris/driverlib/sysctl.c ****     { SYSCTL_PERIPH_UART2, SYSCTL_PERIPH2_UART2 },
 307:/home/cuil/workspace/arm/lm3s811/TI_Stellaris/driverlib/sysctl.c ****     { SYSCTL_PERIPH_UDMA, SYSCTL_PERIPH2_UDMA },
 308:/home/cuil/workspace/arm/lm3s811/TI_Stellaris/driverlib/sysctl.c ****     { SYSCTL_PERIPH_USB0, SYSCTL_PERIPH2_USB0 },
 309:/home/cuil/workspace/arm/lm3s811/TI_Stellaris/driverlib/sysctl.c ****     { SYSCTL_PERIPH_WDOG0, SYSCTL_PERIPH2_WDOG0 },
 310:/home/cuil/workspace/arm/lm3s811/TI_Stellaris/driverlib/sysctl.c ****     { SYSCTL_PERIPH_WDOG1, SYSCTL_PERIPH2_WDOG1 },
 311:/home/cuil/workspace/arm/lm3s811/TI_Stellaris/driverlib/sysctl.c **** };
 312:/home/cuil/workspace/arm/lm3s811/TI_Stellaris/driverlib/sysctl.c **** 
 313:/home/cuil/workspace/arm/lm3s811/TI_Stellaris/driverlib/sysctl.c **** //*****************************************************************************
 314:/home/cuil/workspace/arm/lm3s811/TI_Stellaris/driverlib/sysctl.c **** //
 315:/home/cuil/workspace/arm/lm3s811/TI_Stellaris/driverlib/sysctl.c **** // Maps a SYSCTL_PERIPH_foo identifier into its new-style SYSCTL_PERIPH2_foo
 316:/home/cuil/workspace/arm/lm3s811/TI_Stellaris/driverlib/sysctl.c **** // identifier.
 317:/home/cuil/workspace/arm/lm3s811/TI_Stellaris/driverlib/sysctl.c **** //
 318:/home/cuil/workspace/arm/lm3s811/TI_Stellaris/driverlib/sysctl.c **** //*****************************************************************************
 319:/home/cuil/workspace/arm/lm3s811/TI_Stellaris/driverlib/sysctl.c **** static unsigned long
 320:/home/cuil/workspace/arm/lm3s811/TI_Stellaris/driverlib/sysctl.c **** SysCtlPeripheralMapToNew(unsigned long ulPeripheral)
 321:/home/cuil/workspace/arm/lm3s811/TI_Stellaris/driverlib/sysctl.c **** {
 11580              		.loc 1 321 0
 11581              		.cfi_startproc
 11582              		@ args = 0, pretend = 0, frame = 16
 11583              		@ frame_needed = 1, uses_anonymous_args = 0
 11584              		@ link register save eliminated.
 11585 0000 80B4     		push	{r7}
 11586              	.LCFI0:
 11587              		.cfi_def_cfa_offset 4
 11588 0002 85B0     		sub	sp, sp, #20
 11589              	.LCFI1:
 11590              		.cfi_def_cfa_offset 24
 11591 0004 00AF     		add	r7, sp, #0
 11592              		.cfi_offset 7, -4
 11593              	.LCFI2:
 11594              		.cfi_def_cfa_register 7
 11595 0006 7860     		str	r0, [r7, #4]
 322:/home/cuil/workspace/arm/lm3s811/TI_Stellaris/driverlib/sysctl.c ****     unsigned long ulIndex;
 323:/home/cuil/workspace/arm/lm3s811/TI_Stellaris/driverlib/sysctl.c **** 
 324:/home/cuil/workspace/arm/lm3s811/TI_Stellaris/driverlib/sysctl.c ****     //
 325:/home/cuil/workspace/arm/lm3s811/TI_Stellaris/driverlib/sysctl.c ****     // Loop throug the table of old-style identifiers.
 326:/home/cuil/workspace/arm/lm3s811/TI_Stellaris/driverlib/sysctl.c ****     //
 327:/home/cuil/workspace/arm/lm3s811/TI_Stellaris/driverlib/sysctl.c ****     for(ulIndex = 0; ulIndex < (sizeof(g_ppulPeripheralMap) /
 11596              		.loc 1 327 0
 11597 0008 4FF00003 		mov	r3, #0
 11598 000c FB60     		str	r3, [r7, #12]
 11599 000e 11E0     		b	.L2
 11600              	.L5:
 328:/home/cuil/workspace/arm/lm3s811/TI_Stellaris/driverlib/sysctl.c ****                                 sizeof(g_ppulPeripheralMap[0])); ulIndex++)
 329:/home/cuil/workspace/arm/lm3s811/TI_Stellaris/driverlib/sysctl.c ****     {
 330:/home/cuil/workspace/arm/lm3s811/TI_Stellaris/driverlib/sysctl.c ****         //
 331:/home/cuil/workspace/arm/lm3s811/TI_Stellaris/driverlib/sysctl.c ****         // See if this peripheral matches the old-style identifer.
 332:/home/cuil/workspace/arm/lm3s811/TI_Stellaris/driverlib/sysctl.c ****         //
 333:/home/cuil/workspace/arm/lm3s811/TI_Stellaris/driverlib/sysctl.c ****         if(g_ppulPeripheralMap[ulIndex][0] == ulPeripheral)
 11601              		.loc 1 333 0
 11602 0010 0D4B     		ldr	r3, .L6
 11603 0012 FA68     		ldr	r2, [r7, #12]
 11604 0014 53F83220 		ldr	r2, [r3, r2, lsl #3]
 11605 0018 7B68     		ldr	r3, [r7, #4]
 11606 001a 9A42     		cmp	r2, r3
 11607 001c 06D1     		bne	.L3
 334:/home/cuil/workspace/arm/lm3s811/TI_Stellaris/driverlib/sysctl.c ****         {
 335:/home/cuil/workspace/arm/lm3s811/TI_Stellaris/driverlib/sysctl.c ****             //
 336:/home/cuil/workspace/arm/lm3s811/TI_Stellaris/driverlib/sysctl.c ****             // Return the new-style identifier that corresponds to this
 337:/home/cuil/workspace/arm/lm3s811/TI_Stellaris/driverlib/sysctl.c ****             // peripheral.
 338:/home/cuil/workspace/arm/lm3s811/TI_Stellaris/driverlib/sysctl.c ****             //
 339:/home/cuil/workspace/arm/lm3s811/TI_Stellaris/driverlib/sysctl.c ****             return(g_ppulPeripheralMap[ulIndex][1]);
 11608              		.loc 1 339 0
 11609 001e 0A4A     		ldr	r2, .L6
 11610 0020 FB68     		ldr	r3, [r7, #12]
 11611 0022 4FEAC303 		lsl	r3, r3, #3
 11612 0026 D318     		adds	r3, r2, r3
 11613 0028 5B68     		ldr	r3, [r3, #4]
 11614 002a 07E0     		b	.L4
 11615              	.L3:
 328:/home/cuil/workspace/arm/lm3s811/TI_Stellaris/driverlib/sysctl.c ****                                 sizeof(g_ppulPeripheralMap[0])); ulIndex++)
 11616              		.loc 1 328 0
 11617 002c FB68     		ldr	r3, [r7, #12]
 11618 002e 03F10103 		add	r3, r3, #1
 11619 0032 FB60     		str	r3, [r7, #12]
 11620              	.L2:
 327:/home/cuil/workspace/arm/lm3s811/TI_Stellaris/driverlib/sysctl.c ****     for(ulIndex = 0; ulIndex < (sizeof(g_ppulPeripheralMap) /
 11621              		.loc 1 327 0 discriminator 1
 11622 0034 FB68     		ldr	r3, [r7, #12]
 11623 0036 222B     		cmp	r3, #34
 11624 0038 EAD9     		bls	.L5
 340:/home/cuil/workspace/arm/lm3s811/TI_Stellaris/driverlib/sysctl.c ****         }
 341:/home/cuil/workspace/arm/lm3s811/TI_Stellaris/driverlib/sysctl.c ****     }
 342:/home/cuil/workspace/arm/lm3s811/TI_Stellaris/driverlib/sysctl.c **** 
 343:/home/cuil/workspace/arm/lm3s811/TI_Stellaris/driverlib/sysctl.c ****     //
 344:/home/cuil/workspace/arm/lm3s811/TI_Stellaris/driverlib/sysctl.c ****     // No old-style identifier was found, so return the identifier unchanged
 345:/home/cuil/workspace/arm/lm3s811/TI_Stellaris/driverlib/sysctl.c ****     // (on the assumption that it is already a new-style identifier).
 346:/home/cuil/workspace/arm/lm3s811/TI_Stellaris/driverlib/sysctl.c ****     //
 347:/home/cuil/workspace/arm/lm3s811/TI_Stellaris/driverlib/sysctl.c ****     return(ulPeripheral);
 11625              		.loc 1 347 0
 11626 003a 7B68     		ldr	r3, [r7, #4]
 11627              	.L4:
 348:/home/cuil/workspace/arm/lm3s811/TI_Stellaris/driverlib/sysctl.c **** }
 11628              		.loc 1 348 0
 11629 003c 1846     		mov	r0, r3
 11630 003e 07F11407 		add	r7, r7, #20
 11631 0042 BD46     		mov	sp, r7
 11632 0044 80BC     		pop	{r7}
 11633 0046 7047     		bx	lr
 11634              	.L7:
 11635              		.align	2
 11636              	.L6:
 11637 0048 AC000000 		.word	g_ppulPeripheralMap
 11638              		.cfi_endproc
 11639              	.LFE0:
 11641              		.section	.text.SysCtlSRAMSizeGet,"ax",%progbits
 11642              		.align	2
 11643              		.global	SysCtlSRAMSizeGet
 11644              		.thumb
 11645              		.thumb_func
 11647              	SysCtlSRAMSizeGet:
 11648              	.LFB1:
 349:/home/cuil/workspace/arm/lm3s811/TI_Stellaris/driverlib/sysctl.c **** 
 350:/home/cuil/workspace/arm/lm3s811/TI_Stellaris/driverlib/sysctl.c **** //*****************************************************************************
 351:/home/cuil/workspace/arm/lm3s811/TI_Stellaris/driverlib/sysctl.c **** //
 352:/home/cuil/workspace/arm/lm3s811/TI_Stellaris/driverlib/sysctl.c **** //! Gets the size of the SRAM.
 353:/home/cuil/workspace/arm/lm3s811/TI_Stellaris/driverlib/sysctl.c **** //!
 354:/home/cuil/workspace/arm/lm3s811/TI_Stellaris/driverlib/sysctl.c **** //! This function determines the size of the SRAM on the Stellaris device.
 355:/home/cuil/workspace/arm/lm3s811/TI_Stellaris/driverlib/sysctl.c **** //!
 356:/home/cuil/workspace/arm/lm3s811/TI_Stellaris/driverlib/sysctl.c **** //! \return The total number of bytes of SRAM.
 357:/home/cuil/workspace/arm/lm3s811/TI_Stellaris/driverlib/sysctl.c **** //
 358:/home/cuil/workspace/arm/lm3s811/TI_Stellaris/driverlib/sysctl.c **** //*****************************************************************************
 359:/home/cuil/workspace/arm/lm3s811/TI_Stellaris/driverlib/sysctl.c **** unsigned long
 360:/home/cuil/workspace/arm/lm3s811/TI_Stellaris/driverlib/sysctl.c **** SysCtlSRAMSizeGet(void)
 361:/home/cuil/workspace/arm/lm3s811/TI_Stellaris/driverlib/sysctl.c **** {
 11649              		.loc 1 361 0
 11650              		.cfi_startproc
 11651              		@ args = 0, pretend = 0, frame = 0
 11652              		@ frame_needed = 1, uses_anonymous_args = 0
 11653              		@ link register save eliminated.
 11654 0000 80B4     		push	{r7}
 11655              	.LCFI3:
 11656              		.cfi_def_cfa_offset 4
 11657 0002 00AF     		add	r7, sp, #0
 11658              		.cfi_offset 7, -4
 11659              	.LCFI4:
 11660              		.cfi_def_cfa_register 7
 362:/home/cuil/workspace/arm/lm3s811/TI_Stellaris/driverlib/sysctl.c ****     //
 363:/home/cuil/workspace/arm/lm3s811/TI_Stellaris/driverlib/sysctl.c ****     // Compute the size of the SRAM.
 364:/home/cuil/workspace/arm/lm3s811/TI_Stellaris/driverlib/sysctl.c ****     //
 365:/home/cuil/workspace/arm/lm3s811/TI_Stellaris/driverlib/sysctl.c ****     return(((HWREG(SYSCTL_DC0) & SYSCTL_DC0_SRAMSZ_M) >> 8) + 0x100);
 11661              		.loc 1 365 0
 11662 0004 064B     		ldr	r3, .L9
 11663 0006 1B68     		ldr	r3, [r3, #0]
 11664 0008 4FEA1343 		lsr	r3, r3, #16
 11665 000c 4FEA0343 		lsl	r3, r3, #16
 11666 0010 4FEA1323 		lsr	r3, r3, #8
 11667 0014 03F58073 		add	r3, r3, #256
 366:/home/cuil/workspace/arm/lm3s811/TI_Stellaris/driverlib/sysctl.c **** }
 11668              		.loc 1 366 0
 11669 0018 1846     		mov	r0, r3
 11670 001a BD46     		mov	sp, r7
 11671 001c 80BC     		pop	{r7}
 11672 001e 7047     		bx	lr
 11673              	.L10:
 11674              		.align	2
 11675              	.L9:
 11676 0020 08E00F40 		.word	1074782216
 11677              		.cfi_endproc
 11678              	.LFE1:
 11680              		.section	.text.SysCtlFlashSizeGet,"ax",%progbits
 11681              		.align	2
 11682              		.global	SysCtlFlashSizeGet
 11683              		.thumb
 11684              		.thumb_func
 11686              	SysCtlFlashSizeGet:
 11687              	.LFB2:
 367:/home/cuil/workspace/arm/lm3s811/TI_Stellaris/driverlib/sysctl.c **** 
 368:/home/cuil/workspace/arm/lm3s811/TI_Stellaris/driverlib/sysctl.c **** //*****************************************************************************
 369:/home/cuil/workspace/arm/lm3s811/TI_Stellaris/driverlib/sysctl.c **** //
 370:/home/cuil/workspace/arm/lm3s811/TI_Stellaris/driverlib/sysctl.c **** //! Gets the size of the flash.
 371:/home/cuil/workspace/arm/lm3s811/TI_Stellaris/driverlib/sysctl.c **** //!
 372:/home/cuil/workspace/arm/lm3s811/TI_Stellaris/driverlib/sysctl.c **** //! This function determines the size of the flash on the Stellaris device.
 373:/home/cuil/workspace/arm/lm3s811/TI_Stellaris/driverlib/sysctl.c **** //!
 374:/home/cuil/workspace/arm/lm3s811/TI_Stellaris/driverlib/sysctl.c **** //! \return The total number of bytes of flash.
 375:/home/cuil/workspace/arm/lm3s811/TI_Stellaris/driverlib/sysctl.c **** //
 376:/home/cuil/workspace/arm/lm3s811/TI_Stellaris/driverlib/sysctl.c **** //*****************************************************************************
 377:/home/cuil/workspace/arm/lm3s811/TI_Stellaris/driverlib/sysctl.c **** unsigned long
 378:/home/cuil/workspace/arm/lm3s811/TI_Stellaris/driverlib/sysctl.c **** SysCtlFlashSizeGet(void)
 379:/home/cuil/workspace/arm/lm3s811/TI_Stellaris/driverlib/sysctl.c **** {
 11688              		.loc 1 379 0
 11689              		.cfi_startproc
 11690              		@ args = 0, pretend = 0, frame = 0
 11691              		@ frame_needed = 1, uses_anonymous_args = 0
 11692              		@ link register save eliminated.
 11693 0000 80B4     		push	{r7}
 11694              	.LCFI5:
 11695              		.cfi_def_cfa_offset 4
 11696 0002 00AF     		add	r7, sp, #0
 11697              		.cfi_offset 7, -4
 11698              	.LCFI6:
 11699              		.cfi_def_cfa_register 7
 380:/home/cuil/workspace/arm/lm3s811/TI_Stellaris/driverlib/sysctl.c ****     //
 381:/home/cuil/workspace/arm/lm3s811/TI_Stellaris/driverlib/sysctl.c ****     // Compute the size of the flash.
 382:/home/cuil/workspace/arm/lm3s811/TI_Stellaris/driverlib/sysctl.c ****     //
 383:/home/cuil/workspace/arm/lm3s811/TI_Stellaris/driverlib/sysctl.c ****     return(((HWREG(SYSCTL_DC0) & SYSCTL_DC0_FLASHSZ_M) << 11) + 0x800);
 11700              		.loc 1 383 0
 11701 0004 064B     		ldr	r3, .L12
 11702 0006 1B68     		ldr	r3, [r3, #0]
 11703 0008 4FEA0343 		lsl	r3, r3, #16
 11704 000c 4FEA1343 		lsr	r3, r3, #16
 11705 0010 4FEAC323 		lsl	r3, r3, #11
 11706 0014 03F50063 		add	r3, r3, #2048
 384:/home/cuil/workspace/arm/lm3s811/TI_Stellaris/driverlib/sysctl.c **** }
 11707              		.loc 1 384 0
 11708 0018 1846     		mov	r0, r3
 11709 001a BD46     		mov	sp, r7
 11710 001c 80BC     		pop	{r7}
 11711 001e 7047     		bx	lr
 11712              	.L13:
 11713              		.align	2
 11714              	.L12:
 11715 0020 08E00F40 		.word	1074782216
 11716              		.cfi_endproc
 11717              	.LFE2:
 11719              		.section	.text.SysCtlPinPresent,"ax",%progbits
 11720              		.align	2
 11721              		.global	SysCtlPinPresent
 11722              		.thumb
 11723              		.thumb_func
 11725              	SysCtlPinPresent:
 11726              	.LFB3:
 385:/home/cuil/workspace/arm/lm3s811/TI_Stellaris/driverlib/sysctl.c **** 
 386:/home/cuil/workspace/arm/lm3s811/TI_Stellaris/driverlib/sysctl.c **** //*****************************************************************************
 387:/home/cuil/workspace/arm/lm3s811/TI_Stellaris/driverlib/sysctl.c **** //
 388:/home/cuil/workspace/arm/lm3s811/TI_Stellaris/driverlib/sysctl.c **** //! Determines if a pin is present.
 389:/home/cuil/workspace/arm/lm3s811/TI_Stellaris/driverlib/sysctl.c **** //!
 390:/home/cuil/workspace/arm/lm3s811/TI_Stellaris/driverlib/sysctl.c **** //! \param ulPin is the pin in question.
 391:/home/cuil/workspace/arm/lm3s811/TI_Stellaris/driverlib/sysctl.c **** //!
 392:/home/cuil/workspace/arm/lm3s811/TI_Stellaris/driverlib/sysctl.c **** //! This function determines if a particular pin is present in the device.  The
 393:/home/cuil/workspace/arm/lm3s811/TI_Stellaris/driverlib/sysctl.c **** //! PWM, analog comparators, ADC, and timers have a varying number of pins
 394:/home/cuil/workspace/arm/lm3s811/TI_Stellaris/driverlib/sysctl.c **** //! across members of the Stellaris family; this function determines which pins
 395:/home/cuil/workspace/arm/lm3s811/TI_Stellaris/driverlib/sysctl.c **** //! are present on this device.
 396:/home/cuil/workspace/arm/lm3s811/TI_Stellaris/driverlib/sysctl.c **** //!
 397:/home/cuil/workspace/arm/lm3s811/TI_Stellaris/driverlib/sysctl.c **** //! The \e ulPin argument must be only one of the following values:
 398:/home/cuil/workspace/arm/lm3s811/TI_Stellaris/driverlib/sysctl.c **** //! \b SYSCTL_PIN_PWM0, \b SYSCTL_PIN_PWM1, \b SYSCTL_PIN_PWM2,
 399:/home/cuil/workspace/arm/lm3s811/TI_Stellaris/driverlib/sysctl.c **** //! \b SYSCTL_PIN_PWM3, \b SYSCTL_PIN_PWM4, \b SYSCTL_PIN_PWM5,
 400:/home/cuil/workspace/arm/lm3s811/TI_Stellaris/driverlib/sysctl.c **** //! \b SYSCTL_PIN_C0MINUS, \b SYSCTL_PIN_C0PLUS, \b SYSCTL_PIN_C0O,
 401:/home/cuil/workspace/arm/lm3s811/TI_Stellaris/driverlib/sysctl.c **** //! \b SYSCTL_PIN_C1MINUS, \b SYSCTL_PIN_C1PLUS, \b SYSCTL_PIN_C1O,
 402:/home/cuil/workspace/arm/lm3s811/TI_Stellaris/driverlib/sysctl.c **** //! \b SYSCTL_PIN_C2MINUS, \b SYSCTL_PIN_C2PLUS, \b SYSCTL_PIN_C2O,
 403:/home/cuil/workspace/arm/lm3s811/TI_Stellaris/driverlib/sysctl.c **** //! \b SYSCTL_PIN_ADC0, \b SYSCTL_PIN_ADC1, \b SYSCTL_PIN_ADC2,
 404:/home/cuil/workspace/arm/lm3s811/TI_Stellaris/driverlib/sysctl.c **** //! \b SYSCTL_PIN_ADC3, \b SYSCTL_PIN_ADC4, \b SYSCTL_PIN_ADC5,
 405:/home/cuil/workspace/arm/lm3s811/TI_Stellaris/driverlib/sysctl.c **** //! \b SYSCTL_PIN_ADC6, \b SYSCTL_PIN_ADC7, \b SYSCTL_PIN_CCP0,
 406:/home/cuil/workspace/arm/lm3s811/TI_Stellaris/driverlib/sysctl.c **** //! \b SYSCTL_PIN_CCP1, \b SYSCTL_PIN_CCP2, \b SYSCTL_PIN_CCP3,
 407:/home/cuil/workspace/arm/lm3s811/TI_Stellaris/driverlib/sysctl.c **** //! \b SYSCTL_PIN_CCP4, \b SYSCTL_PIN_CCP5, \b SYSCTL_PIN_CCP6,
 408:/home/cuil/workspace/arm/lm3s811/TI_Stellaris/driverlib/sysctl.c **** //! \b SYSCTL_PIN_CCP7, \b SYSCTL_PIN_32KHZ, or \b SYSCTL_PIN_MC_FAULT0.
 409:/home/cuil/workspace/arm/lm3s811/TI_Stellaris/driverlib/sysctl.c **** //!
 410:/home/cuil/workspace/arm/lm3s811/TI_Stellaris/driverlib/sysctl.c **** //! \return Returns \b true if the specified pin is present and \b false if it
 411:/home/cuil/workspace/arm/lm3s811/TI_Stellaris/driverlib/sysctl.c **** //! is not.
 412:/home/cuil/workspace/arm/lm3s811/TI_Stellaris/driverlib/sysctl.c **** //
 413:/home/cuil/workspace/arm/lm3s811/TI_Stellaris/driverlib/sysctl.c **** //*****************************************************************************
 414:/home/cuil/workspace/arm/lm3s811/TI_Stellaris/driverlib/sysctl.c **** tBoolean
 415:/home/cuil/workspace/arm/lm3s811/TI_Stellaris/driverlib/sysctl.c **** SysCtlPinPresent(unsigned long ulPin)
 416:/home/cuil/workspace/arm/lm3s811/TI_Stellaris/driverlib/sysctl.c **** {
 11727              		.loc 1 416 0
 11728              		.cfi_startproc
 11729              		@ args = 0, pretend = 0, frame = 8
 11730              		@ frame_needed = 1, uses_anonymous_args = 0
 11731              		@ link register save eliminated.
 11732 0000 80B4     		push	{r7}
 11733              	.LCFI7:
 11734              		.cfi_def_cfa_offset 4
 11735 0002 83B0     		sub	sp, sp, #12
 11736              	.LCFI8:
 11737              		.cfi_def_cfa_offset 16
 11738 0004 00AF     		add	r7, sp, #0
 11739              		.cfi_offset 7, -4
 11740              	.LCFI9:
 11741              		.cfi_def_cfa_register 7
 11742 0006 7860     		str	r0, [r7, #4]
 417:/home/cuil/workspace/arm/lm3s811/TI_Stellaris/driverlib/sysctl.c ****     //
 418:/home/cuil/workspace/arm/lm3s811/TI_Stellaris/driverlib/sysctl.c ****     // Check the arguments.
 419:/home/cuil/workspace/arm/lm3s811/TI_Stellaris/driverlib/sysctl.c ****     //
 420:/home/cuil/workspace/arm/lm3s811/TI_Stellaris/driverlib/sysctl.c ****     ASSERT((ulPin == SYSCTL_PIN_PWM0) ||
 421:/home/cuil/workspace/arm/lm3s811/TI_Stellaris/driverlib/sysctl.c ****            (ulPin == SYSCTL_PIN_PWM1) ||
 422:/home/cuil/workspace/arm/lm3s811/TI_Stellaris/driverlib/sysctl.c ****            (ulPin == SYSCTL_PIN_PWM2) ||
 423:/home/cuil/workspace/arm/lm3s811/TI_Stellaris/driverlib/sysctl.c ****            (ulPin == SYSCTL_PIN_PWM3) ||
 424:/home/cuil/workspace/arm/lm3s811/TI_Stellaris/driverlib/sysctl.c ****            (ulPin == SYSCTL_PIN_PWM4) ||
 425:/home/cuil/workspace/arm/lm3s811/TI_Stellaris/driverlib/sysctl.c ****            (ulPin == SYSCTL_PIN_PWM5) ||
 426:/home/cuil/workspace/arm/lm3s811/TI_Stellaris/driverlib/sysctl.c ****            (ulPin == SYSCTL_PIN_C0MINUS) ||
 427:/home/cuil/workspace/arm/lm3s811/TI_Stellaris/driverlib/sysctl.c ****            (ulPin == SYSCTL_PIN_C0PLUS) ||
 428:/home/cuil/workspace/arm/lm3s811/TI_Stellaris/driverlib/sysctl.c ****            (ulPin == SYSCTL_PIN_C0O) ||
 429:/home/cuil/workspace/arm/lm3s811/TI_Stellaris/driverlib/sysctl.c ****            (ulPin == SYSCTL_PIN_C1MINUS) ||
 430:/home/cuil/workspace/arm/lm3s811/TI_Stellaris/driverlib/sysctl.c ****            (ulPin == SYSCTL_PIN_C1PLUS) ||
 431:/home/cuil/workspace/arm/lm3s811/TI_Stellaris/driverlib/sysctl.c ****            (ulPin == SYSCTL_PIN_C1O) ||
 432:/home/cuil/workspace/arm/lm3s811/TI_Stellaris/driverlib/sysctl.c ****            (ulPin == SYSCTL_PIN_C2MINUS) ||
 433:/home/cuil/workspace/arm/lm3s811/TI_Stellaris/driverlib/sysctl.c ****            (ulPin == SYSCTL_PIN_C2PLUS) ||
 434:/home/cuil/workspace/arm/lm3s811/TI_Stellaris/driverlib/sysctl.c ****            (ulPin == SYSCTL_PIN_C2O) ||
 435:/home/cuil/workspace/arm/lm3s811/TI_Stellaris/driverlib/sysctl.c ****            (ulPin == SYSCTL_PIN_MC_FAULT0) ||
 436:/home/cuil/workspace/arm/lm3s811/TI_Stellaris/driverlib/sysctl.c ****            (ulPin == SYSCTL_PIN_ADC0) ||
 437:/home/cuil/workspace/arm/lm3s811/TI_Stellaris/driverlib/sysctl.c ****            (ulPin == SYSCTL_PIN_ADC1) ||
 438:/home/cuil/workspace/arm/lm3s811/TI_Stellaris/driverlib/sysctl.c ****            (ulPin == SYSCTL_PIN_ADC2) ||
 439:/home/cuil/workspace/arm/lm3s811/TI_Stellaris/driverlib/sysctl.c ****            (ulPin == SYSCTL_PIN_ADC3) ||
 440:/home/cuil/workspace/arm/lm3s811/TI_Stellaris/driverlib/sysctl.c ****            (ulPin == SYSCTL_PIN_ADC4) ||
 441:/home/cuil/workspace/arm/lm3s811/TI_Stellaris/driverlib/sysctl.c ****            (ulPin == SYSCTL_PIN_ADC5) ||
 442:/home/cuil/workspace/arm/lm3s811/TI_Stellaris/driverlib/sysctl.c ****            (ulPin == SYSCTL_PIN_ADC6) ||
 443:/home/cuil/workspace/arm/lm3s811/TI_Stellaris/driverlib/sysctl.c ****            (ulPin == SYSCTL_PIN_ADC7) ||
 444:/home/cuil/workspace/arm/lm3s811/TI_Stellaris/driverlib/sysctl.c ****            (ulPin == SYSCTL_PIN_CCP0) ||
 445:/home/cuil/workspace/arm/lm3s811/TI_Stellaris/driverlib/sysctl.c ****            (ulPin == SYSCTL_PIN_CCP1) ||
 446:/home/cuil/workspace/arm/lm3s811/TI_Stellaris/driverlib/sysctl.c ****            (ulPin == SYSCTL_PIN_CCP2) ||
 447:/home/cuil/workspace/arm/lm3s811/TI_Stellaris/driverlib/sysctl.c ****            (ulPin == SYSCTL_PIN_CCP3) ||
 448:/home/cuil/workspace/arm/lm3s811/TI_Stellaris/driverlib/sysctl.c ****            (ulPin == SYSCTL_PIN_CCP4) ||
 449:/home/cuil/workspace/arm/lm3s811/TI_Stellaris/driverlib/sysctl.c ****            (ulPin == SYSCTL_PIN_CCP5) ||
 450:/home/cuil/workspace/arm/lm3s811/TI_Stellaris/driverlib/sysctl.c ****            (ulPin == SYSCTL_PIN_32KHZ));
 451:/home/cuil/workspace/arm/lm3s811/TI_Stellaris/driverlib/sysctl.c **** 
 452:/home/cuil/workspace/arm/lm3s811/TI_Stellaris/driverlib/sysctl.c ****     //
 453:/home/cuil/workspace/arm/lm3s811/TI_Stellaris/driverlib/sysctl.c ****     // Determine if this pin is present.
 454:/home/cuil/workspace/arm/lm3s811/TI_Stellaris/driverlib/sysctl.c ****     //
 455:/home/cuil/workspace/arm/lm3s811/TI_Stellaris/driverlib/sysctl.c ****     if(HWREG(SYSCTL_DC3) & ulPin)
 11743              		.loc 1 455 0
 11744 0008 084B     		ldr	r3, .L17
 11745 000a 1A68     		ldr	r2, [r3, #0]
 11746 000c 7B68     		ldr	r3, [r7, #4]
 11747 000e 02EA0303 		and	r3, r2, r3
 11748 0012 002B     		cmp	r3, #0
 11749 0014 02D0     		beq	.L15
 456:/home/cuil/workspace/arm/lm3s811/TI_Stellaris/driverlib/sysctl.c ****     {
 457:/home/cuil/workspace/arm/lm3s811/TI_Stellaris/driverlib/sysctl.c ****         return(true);
 11750              		.loc 1 457 0
 11751 0016 4FF00103 		mov	r3, #1
 11752 001a 01E0     		b	.L16
 11753              	.L15:
 458:/home/cuil/workspace/arm/lm3s811/TI_Stellaris/driverlib/sysctl.c ****     }
 459:/home/cuil/workspace/arm/lm3s811/TI_Stellaris/driverlib/sysctl.c ****     else
 460:/home/cuil/workspace/arm/lm3s811/TI_Stellaris/driverlib/sysctl.c ****     {
 461:/home/cuil/workspace/arm/lm3s811/TI_Stellaris/driverlib/sysctl.c ****         return(false);
 11754              		.loc 1 461 0
 11755 001c 4FF00003 		mov	r3, #0
 11756              	.L16:
 462:/home/cuil/workspace/arm/lm3s811/TI_Stellaris/driverlib/sysctl.c ****     }
 463:/home/cuil/workspace/arm/lm3s811/TI_Stellaris/driverlib/sysctl.c **** }
 11757              		.loc 1 463 0
 11758 0020 1846     		mov	r0, r3
 11759 0022 07F10C07 		add	r7, r7, #12
 11760 0026 BD46     		mov	sp, r7
 11761 0028 80BC     		pop	{r7}
 11762 002a 7047     		bx	lr
 11763              	.L18:
 11764              		.align	2
 11765              	.L17:
 11766 002c 18E00F40 		.word	1074782232
 11767              		.cfi_endproc
 11768              	.LFE3:
 11770              		.section	.text.SysCtlPeripheralPresent,"ax",%progbits
 11771              		.align	2
 11772              		.global	SysCtlPeripheralPresent
 11773              		.thumb
 11774              		.thumb_func
 11776              	SysCtlPeripheralPresent:
 11777              	.LFB4:
 464:/home/cuil/workspace/arm/lm3s811/TI_Stellaris/driverlib/sysctl.c **** 
 465:/home/cuil/workspace/arm/lm3s811/TI_Stellaris/driverlib/sysctl.c **** //*****************************************************************************
 466:/home/cuil/workspace/arm/lm3s811/TI_Stellaris/driverlib/sysctl.c **** //
 467:/home/cuil/workspace/arm/lm3s811/TI_Stellaris/driverlib/sysctl.c **** //! Determines if a peripheral is present.
 468:/home/cuil/workspace/arm/lm3s811/TI_Stellaris/driverlib/sysctl.c **** //!
 469:/home/cuil/workspace/arm/lm3s811/TI_Stellaris/driverlib/sysctl.c **** //! \param ulPeripheral is the peripheral in question.
 470:/home/cuil/workspace/arm/lm3s811/TI_Stellaris/driverlib/sysctl.c **** //!
 471:/home/cuil/workspace/arm/lm3s811/TI_Stellaris/driverlib/sysctl.c **** //! This function determines if a particular peripheral is present in the 
 472:/home/cuil/workspace/arm/lm3s811/TI_Stellaris/driverlib/sysctl.c **** //! device.  Each member of the Stellaris family has a different peripheral 
 473:/home/cuil/workspace/arm/lm3s811/TI_Stellaris/driverlib/sysctl.c **** //! set; this function determines which peripherals are present on this device.
 474:/home/cuil/workspace/arm/lm3s811/TI_Stellaris/driverlib/sysctl.c **** //!
 475:/home/cuil/workspace/arm/lm3s811/TI_Stellaris/driverlib/sysctl.c **** //! The \e ulPeripheral parameter must be only one of the following values:
 476:/home/cuil/workspace/arm/lm3s811/TI_Stellaris/driverlib/sysctl.c **** //! \b SYSCTL_PERIPH_ADC0, \b SYSCTL_PERIPH_ADC1, \b SYSCTL_PERIPH_CAN0,
 477:/home/cuil/workspace/arm/lm3s811/TI_Stellaris/driverlib/sysctl.c **** //! \b SYSCTL_PERIPH_CAN1, \b SYSCTL_PERIPH_CAN2, \b SYSCTL_PERIPH_COMP0,
 478:/home/cuil/workspace/arm/lm3s811/TI_Stellaris/driverlib/sysctl.c **** //! \b SYSCTL_PERIPH_COMP1, \b SYSCTL_PERIPH_COMP2, \b SYSCTL_PERIPH_EPI0,
 479:/home/cuil/workspace/arm/lm3s811/TI_Stellaris/driverlib/sysctl.c **** //! \b SYSCTL_PERIPH_ETH, \b SYSCTL_PERIPH_FAN0, \b SYSCTL_PERIPH_GPIOA,
 480:/home/cuil/workspace/arm/lm3s811/TI_Stellaris/driverlib/sysctl.c **** //! \b SYSCTL_PERIPH_GPIOB, \b SYSCTL_PERIPH_GPIOC, \b SYSCTL_PERIPH_GPIOD,
 481:/home/cuil/workspace/arm/lm3s811/TI_Stellaris/driverlib/sysctl.c **** //! \b SYSCTL_PERIPH_GPIOE, \b SYSCTL_PERIPH_GPIOF, \b SYSCTL_PERIPH_GPIOG,
 482:/home/cuil/workspace/arm/lm3s811/TI_Stellaris/driverlib/sysctl.c **** //! \b SYSCTL_PERIPH_GPIOH, \b SYSCTL_PERIPH_GPIOJ, \b SYSCTL_PERIPH_GPIOK,
 483:/home/cuil/workspace/arm/lm3s811/TI_Stellaris/driverlib/sysctl.c **** //! \b SYSCTL_PERIPH_GPIOL, \b SYSCTL_PERIPH_GPIOM, \b SYSCTL_PERIPH_GPION,
 484:/home/cuil/workspace/arm/lm3s811/TI_Stellaris/driverlib/sysctl.c **** //! \b SYSCTL_PERIPH_GPIOP, \b SYSCTL_PERIPH_GPIOQ, \b SYSCTL_PERIPH_HIBERNATE,
 485:/home/cuil/workspace/arm/lm3s811/TI_Stellaris/driverlib/sysctl.c **** //! \b SYSCTL_PERIPH_I2C0, \b SYSCTL_PERIPH_I2C1, \b SYSCTL_PERIPH_I2C2,
 486:/home/cuil/workspace/arm/lm3s811/TI_Stellaris/driverlib/sysctl.c **** //! \b SYSCTL_PERIPH_I2C3, \b SYSCTL_PERIPH_I2C4, \b SYSCTL_PERIPH_I2C5,
 487:/home/cuil/workspace/arm/lm3s811/TI_Stellaris/driverlib/sysctl.c **** //! \b SYSCTL_PERIPH_I2S0, \b SYSCTL_PERIPH_IEEE1588, \b SYSCTL_PERIPH_LPC0,
 488:/home/cuil/workspace/arm/lm3s811/TI_Stellaris/driverlib/sysctl.c **** //! \b SYSCTL_PERIPH_MPU, \b SYSCTL_PERIPH_PECI0, \b SYSCTL_PERIPH_PLL,
 489:/home/cuil/workspace/arm/lm3s811/TI_Stellaris/driverlib/sysctl.c **** //! \b SYSCTL_PERIPH_PWM0, \b SYSCTL_PERIPH_PWM1, \b SYSCTL_PERIPH_QEI0,
 490:/home/cuil/workspace/arm/lm3s811/TI_Stellaris/driverlib/sysctl.c **** //! \b SYSCTL_PERIPH_QEI1, \b SYSCTL_PERIPH_SSI0, \b SYSCTL_PERIPH_SSI1,
 491:/home/cuil/workspace/arm/lm3s811/TI_Stellaris/driverlib/sysctl.c **** //! \b SYSCTL_PERIPH_SSI2, \b SYSCTL_PERIPH_SSI3, \b SYSCTL_PERIPH_TEMP,
 492:/home/cuil/workspace/arm/lm3s811/TI_Stellaris/driverlib/sysctl.c **** //! \b SYSCTL_PERIPH_TIMER0, \b SYSCTL_PERIPH_TIMER1, \b SYSCTL_PERIPH_TIMER2,
 493:/home/cuil/workspace/arm/lm3s811/TI_Stellaris/driverlib/sysctl.c **** //! \b SYSCTL_PERIPH_TIMER3, \b SYSCTL_PERIPH_TIMER4, \b SYSCTL_PERIPH_TIMER5,
 494:/home/cuil/workspace/arm/lm3s811/TI_Stellaris/driverlib/sysctl.c **** //! \b SYSCTL_PERIPH_UART0, \b SYSCTL_PERIPH_UART1, \b SYSCTL_PERIPH_UART2,
 495:/home/cuil/workspace/arm/lm3s811/TI_Stellaris/driverlib/sysctl.c **** //! \b SYSCTL_PERIPH_UART3, \b SYSCTL_PERIPH_UART4, \b SYSCTL_PERIPH_UART5,
 496:/home/cuil/workspace/arm/lm3s811/TI_Stellaris/driverlib/sysctl.c **** //! \b SYSCTL_PERIPH_UART6, \b SYSCTL_PERIPH_UART7, \b SYSCTL_PERIPH_UDMA,
 497:/home/cuil/workspace/arm/lm3s811/TI_Stellaris/driverlib/sysctl.c **** //! \b SYSCTL_PERIPH_USB0, \b SYSCTL_PERIPH_WDOG0, \b SYSCTL_PERIPH_WDOG1,
 498:/home/cuil/workspace/arm/lm3s811/TI_Stellaris/driverlib/sysctl.c **** //! \b SYSCTL_PERIPH_WTIMER0, \b SYSCTL_PERIPH_WTIMER1,
 499:/home/cuil/workspace/arm/lm3s811/TI_Stellaris/driverlib/sysctl.c **** //! \b SYSCTL_PERIPH_WTIMER2, \b SYSCTL_PERIPH_WTIMER3,
 500:/home/cuil/workspace/arm/lm3s811/TI_Stellaris/driverlib/sysctl.c **** //! \b SYSCTL_PERIPH_WTIMER4, or \b SYSCTL_PERIPH_WTIMER5,
 501:/home/cuil/workspace/arm/lm3s811/TI_Stellaris/driverlib/sysctl.c **** //!
 502:/home/cuil/workspace/arm/lm3s811/TI_Stellaris/driverlib/sysctl.c **** //! \return Returns \b true if the specified peripheral is present and \b false
 503:/home/cuil/workspace/arm/lm3s811/TI_Stellaris/driverlib/sysctl.c **** //! if it is not.
 504:/home/cuil/workspace/arm/lm3s811/TI_Stellaris/driverlib/sysctl.c **** //
 505:/home/cuil/workspace/arm/lm3s811/TI_Stellaris/driverlib/sysctl.c **** //*****************************************************************************
 506:/home/cuil/workspace/arm/lm3s811/TI_Stellaris/driverlib/sysctl.c **** tBoolean
 507:/home/cuil/workspace/arm/lm3s811/TI_Stellaris/driverlib/sysctl.c **** SysCtlPeripheralPresent(unsigned long ulPeripheral)
 508:/home/cuil/workspace/arm/lm3s811/TI_Stellaris/driverlib/sysctl.c **** {
 11778              		.loc 1 508 0
 11779              		.cfi_startproc
 11780              		@ args = 0, pretend = 0, frame = 8
 11781              		@ frame_needed = 1, uses_anonymous_args = 0
 11782              		@ link register save eliminated.
 11783 0000 80B4     		push	{r7}
 11784              	.LCFI10:
 11785              		.cfi_def_cfa_offset 4
 11786 0002 83B0     		sub	sp, sp, #12
 11787              	.LCFI11:
 11788              		.cfi_def_cfa_offset 16
 11789 0004 00AF     		add	r7, sp, #0
 11790              		.cfi_offset 7, -4
 11791              	.LCFI12:
 11792              		.cfi_def_cfa_register 7
 11793 0006 7860     		str	r0, [r7, #4]
 509:/home/cuil/workspace/arm/lm3s811/TI_Stellaris/driverlib/sysctl.c ****     //
 510:/home/cuil/workspace/arm/lm3s811/TI_Stellaris/driverlib/sysctl.c ****     // Check the arguments.
 511:/home/cuil/workspace/arm/lm3s811/TI_Stellaris/driverlib/sysctl.c ****     //
 512:/home/cuil/workspace/arm/lm3s811/TI_Stellaris/driverlib/sysctl.c ****     ASSERT(SysCtlPeripheralValid(ulPeripheral));
 513:/home/cuil/workspace/arm/lm3s811/TI_Stellaris/driverlib/sysctl.c **** 
 514:/home/cuil/workspace/arm/lm3s811/TI_Stellaris/driverlib/sysctl.c ****     //
 515:/home/cuil/workspace/arm/lm3s811/TI_Stellaris/driverlib/sysctl.c ****     // See if the peripheral index is 15, indicating a peripheral that is
 516:/home/cuil/workspace/arm/lm3s811/TI_Stellaris/driverlib/sysctl.c ****     // accessed via the SYSCTL_PPperiph registers.
 517:/home/cuil/workspace/arm/lm3s811/TI_Stellaris/driverlib/sysctl.c ****     //
 518:/home/cuil/workspace/arm/lm3s811/TI_Stellaris/driverlib/sysctl.c ****     if((ulPeripheral & 0xf0000000) == 0xf0000000)
 11794              		.loc 1 518 0
 11795 0008 7B68     		ldr	r3, [r7, #4]
 11796 000a 03F07043 		and	r3, r3, #-268435456
 11797 000e B3F1704F 		cmp	r3, #-268435456
 11798 0012 22D1     		bne	.L20
 519:/home/cuil/workspace/arm/lm3s811/TI_Stellaris/driverlib/sysctl.c ****     {
 520:/home/cuil/workspace/arm/lm3s811/TI_Stellaris/driverlib/sysctl.c ****         //
 521:/home/cuil/workspace/arm/lm3s811/TI_Stellaris/driverlib/sysctl.c ****         // See if this peripheral is present.
 522:/home/cuil/workspace/arm/lm3s811/TI_Stellaris/driverlib/sysctl.c ****         //
 523:/home/cuil/workspace/arm/lm3s811/TI_Stellaris/driverlib/sysctl.c ****         return(HWREGBITW(SYSCTL_PPBASE + ((ulPeripheral & 0xff00) >> 8),
 11799              		.loc 1 523 0
 11800 0014 7B68     		ldr	r3, [r7, #4]
 11801 0016 03F47F43 		and	r3, r3, #65280
 11802 001a 4FEA1322 		lsr	r2, r3, #8
 11803 001e 284B     		ldr	r3, .L25
 11804 0020 D318     		adds	r3, r2, r3
 11805 0022 03F07042 		and	r2, r3, #-268435456
 11806 0026 7B68     		ldr	r3, [r7, #4]
 11807 0028 03F47F43 		and	r3, r3, #65280
 11808 002c 4FEA1321 		lsr	r1, r3, #8
 11809 0030 234B     		ldr	r3, .L25
 11810 0032 CB18     		adds	r3, r1, r3
 11811 0034 23F07F43 		bic	r3, r3, #-16777216
 11812 0038 23F47003 		bic	r3, r3, #15728640
 11813 003c 4FEA4313 		lsl	r3, r3, #5
 11814 0040 1A43     		orrs	r2, r2, r3
 11815 0042 7B68     		ldr	r3, [r7, #4]
 11816 0044 03F0FF03 		and	r3, r3, #255
 11817 0048 4FEA8303 		lsl	r3, r3, #2
 11818 004c 42EA0303 		orr	r3, r2, r3
 11819 0050 43F00073 		orr	r3, r3, #33554432
 11820 0054 1B68     		ldr	r3, [r3, #0]
 11821 0056 DBB2     		uxtb	r3, r3
 11822 0058 2BE0     		b	.L21
 11823              	.L20:
 524:/home/cuil/workspace/arm/lm3s811/TI_Stellaris/driverlib/sysctl.c ****                          ulPeripheral & 0xff));
 525:/home/cuil/workspace/arm/lm3s811/TI_Stellaris/driverlib/sysctl.c ****     }
 526:/home/cuil/workspace/arm/lm3s811/TI_Stellaris/driverlib/sysctl.c ****     else if(ulPeripheral == SYSCTL_PERIPH_USB0)
 11824              		.loc 1 526 0
 11825 005a 7A68     		ldr	r2, [r7, #4]
 11826 005c 194B     		ldr	r3, .L25+4
 11827 005e 9A42     		cmp	r2, r3
 11828 0060 0BD1     		bne	.L22
 527:/home/cuil/workspace/arm/lm3s811/TI_Stellaris/driverlib/sysctl.c ****     {
 528:/home/cuil/workspace/arm/lm3s811/TI_Stellaris/driverlib/sysctl.c ****         //
 529:/home/cuil/workspace/arm/lm3s811/TI_Stellaris/driverlib/sysctl.c ****         // USB is a special case because the DC bit is missing for USB0.
 530:/home/cuil/workspace/arm/lm3s811/TI_Stellaris/driverlib/sysctl.c ****         //
 531:/home/cuil/workspace/arm/lm3s811/TI_Stellaris/driverlib/sysctl.c ****         if(HWREG(SYSCTL_DC6) & SYSCTL_DC6_USB0_M)
 11829              		.loc 1 531 0
 11830 0062 194B     		ldr	r3, .L25+8
 11831 0064 1B68     		ldr	r3, [r3, #0]
 11832 0066 03F00303 		and	r3, r3, #3
 11833 006a 002B     		cmp	r3, #0
 11834 006c 02D0     		beq	.L23
 532:/home/cuil/workspace/arm/lm3s811/TI_Stellaris/driverlib/sysctl.c ****         {
 533:/home/cuil/workspace/arm/lm3s811/TI_Stellaris/driverlib/sysctl.c ****             return(true);
 11835              		.loc 1 533 0
 11836 006e 4FF00103 		mov	r3, #1
 11837 0072 1EE0     		b	.L21
 11838              	.L23:
 534:/home/cuil/workspace/arm/lm3s811/TI_Stellaris/driverlib/sysctl.c ****         }
 535:/home/cuil/workspace/arm/lm3s811/TI_Stellaris/driverlib/sysctl.c ****         else
 536:/home/cuil/workspace/arm/lm3s811/TI_Stellaris/driverlib/sysctl.c ****         {
 537:/home/cuil/workspace/arm/lm3s811/TI_Stellaris/driverlib/sysctl.c ****             return(false);
 11839              		.loc 1 537 0
 11840 0074 4FF00003 		mov	r3, #0
 11841 0078 1BE0     		b	.L21
 11842              	.L22:
 538:/home/cuil/workspace/arm/lm3s811/TI_Stellaris/driverlib/sysctl.c ****         }
 539:/home/cuil/workspace/arm/lm3s811/TI_Stellaris/driverlib/sysctl.c ****     }
 540:/home/cuil/workspace/arm/lm3s811/TI_Stellaris/driverlib/sysctl.c ****     else if(HWREG(g_pulDCRegs[SYSCTL_PERIPH_INDEX(ulPeripheral)]) &
 11843              		.loc 1 540 0
 11844 007a 7B68     		ldr	r3, [r7, #4]
 11845 007c 4FEA1372 		lsr	r2, r3, #28
 11846 0080 124B     		ldr	r3, .L25+12
 11847 0082 53F82230 		ldr	r3, [r3, r2, lsl #2]
 11848 0086 1A68     		ldr	r2, [r3, #0]
 541:/home/cuil/workspace/arm/lm3s811/TI_Stellaris/driverlib/sysctl.c ****             SYSCTL_PERIPH_MASK(ulPeripheral))
 11849              		.loc 1 541 0
 11850 0088 7B68     		ldr	r3, [r7, #4]
 11851 008a 4FEA0343 		lsl	r3, r3, #16
 11852 008e 4FEA1343 		lsr	r3, r3, #16
 11853 0092 7968     		ldr	r1, [r7, #4]
 11854 0094 01F4F811 		and	r1, r1, #2031616
 11855 0098 4FEA1141 		lsr	r1, r1, #16
 11856 009c 03FA01F3 		lsl	r3, r3, r1
 540:/home/cuil/workspace/arm/lm3s811/TI_Stellaris/driverlib/sysctl.c ****     else if(HWREG(g_pulDCRegs[SYSCTL_PERIPH_INDEX(ulPeripheral)]) &
 11857              		.loc 1 540 0
 11858 00a0 02EA0303 		and	r3, r2, r3
 11859 00a4 002B     		cmp	r3, #0
 11860 00a6 02D0     		beq	.L24
 542:/home/cuil/workspace/arm/lm3s811/TI_Stellaris/driverlib/sysctl.c ****     {
 543:/home/cuil/workspace/arm/lm3s811/TI_Stellaris/driverlib/sysctl.c ****         return(true);
 11861              		.loc 1 543 0
 11862 00a8 4FF00103 		mov	r3, #1
 11863 00ac 01E0     		b	.L21
 11864              	.L24:
 544:/home/cuil/workspace/arm/lm3s811/TI_Stellaris/driverlib/sysctl.c ****     }
 545:/home/cuil/workspace/arm/lm3s811/TI_Stellaris/driverlib/sysctl.c ****     else
 546:/home/cuil/workspace/arm/lm3s811/TI_Stellaris/driverlib/sysctl.c ****     {
 547:/home/cuil/workspace/arm/lm3s811/TI_Stellaris/driverlib/sysctl.c ****         return(false);
 11865              		.loc 1 547 0
 11866 00ae 4FF00003 		mov	r3, #0
 11867              	.L21:
 548:/home/cuil/workspace/arm/lm3s811/TI_Stellaris/driverlib/sysctl.c ****     }
 549:/home/cuil/workspace/arm/lm3s811/TI_Stellaris/driverlib/sysctl.c **** }
 11868              		.loc 1 549 0
 11869 00b2 1846     		mov	r0, r3
 11870 00b4 07F10C07 		add	r7, r7, #12
 11871 00b8 BD46     		mov	sp, r7
 11872 00ba 80BC     		pop	{r7}
 11873 00bc 7047     		bx	lr
 11874              	.L26:
 11875 00be 00BF     		.align	2
 11876              	.L25:
 11877 00c0 00E30F40 		.word	1074782976
 11878 00c4 01001020 		.word	537919489
 11879 00c8 24E00F40 		.word	1074782244
 11880 00cc 00000000 		.word	g_pulDCRegs
 11881              		.cfi_endproc
 11882              	.LFE4:
 11884              		.section	.text.SysCtlPeripheralReady,"ax",%progbits
 11885              		.align	2
 11886              		.global	SysCtlPeripheralReady
 11887              		.thumb
 11888              		.thumb_func
 11890              	SysCtlPeripheralReady:
 11891              	.LFB5:
 550:/home/cuil/workspace/arm/lm3s811/TI_Stellaris/driverlib/sysctl.c **** 
 551:/home/cuil/workspace/arm/lm3s811/TI_Stellaris/driverlib/sysctl.c **** //*****************************************************************************
 552:/home/cuil/workspace/arm/lm3s811/TI_Stellaris/driverlib/sysctl.c **** //
 553:/home/cuil/workspace/arm/lm3s811/TI_Stellaris/driverlib/sysctl.c **** //! Determines if a peripheral is ready.
 554:/home/cuil/workspace/arm/lm3s811/TI_Stellaris/driverlib/sysctl.c **** //!
 555:/home/cuil/workspace/arm/lm3s811/TI_Stellaris/driverlib/sysctl.c **** //! \param ulPeripheral is the peripheral in question.
 556:/home/cuil/workspace/arm/lm3s811/TI_Stellaris/driverlib/sysctl.c **** //!
 557:/home/cuil/workspace/arm/lm3s811/TI_Stellaris/driverlib/sysctl.c **** //! This function determines if a particular peripheral is ready to be 
 558:/home/cuil/workspace/arm/lm3s811/TI_Stellaris/driverlib/sysctl.c **** //! accessed.  The peripheral may be in a non-ready state if it is not enabled,
 559:/home/cuil/workspace/arm/lm3s811/TI_Stellaris/driverlib/sysctl.c **** //! is being held in reset, or is in the process of becoming ready after being 
 560:/home/cuil/workspace/arm/lm3s811/TI_Stellaris/driverlib/sysctl.c **** //! enabled or taken out of reset.
 561:/home/cuil/workspace/arm/lm3s811/TI_Stellaris/driverlib/sysctl.c **** //!
 562:/home/cuil/workspace/arm/lm3s811/TI_Stellaris/driverlib/sysctl.c **** //! The \e ulPeripheral paramter must be only one of the following values:
 563:/home/cuil/workspace/arm/lm3s811/TI_Stellaris/driverlib/sysctl.c **** //! \b SYSCTL_PERIPH_ADC0, \b SYSCTL_PERIPH_ADC1, \b SYSCTL_PERIPH_CAN0,
 564:/home/cuil/workspace/arm/lm3s811/TI_Stellaris/driverlib/sysctl.c **** //! \b SYSCTL_PERIPH_CAN1, \b SYSCTL_PERIPH_CAN2, \b SYSCTL_PERIPH_COMP0,
 565:/home/cuil/workspace/arm/lm3s811/TI_Stellaris/driverlib/sysctl.c **** //! \b SYSCTL_PERIPH_COMP1, \b SYSCTL_PERIPH_COMP2, \b SYSCTL_PERIPH_EEPROM0,
 566:/home/cuil/workspace/arm/lm3s811/TI_Stellaris/driverlib/sysctl.c **** //! \b SYSCTL_PERIPH_EPI0, \b SYSCTL_PERIPH_ETH, \b SYSCTL_PERIPH_FAN0,
 567:/home/cuil/workspace/arm/lm3s811/TI_Stellaris/driverlib/sysctl.c **** //! \b SYSCTL_PERIPH_GPIOA, \b SYSCTL_PERIPH_GPIOB, \b SYSCTL_PERIPH_GPIOC,
 568:/home/cuil/workspace/arm/lm3s811/TI_Stellaris/driverlib/sysctl.c **** //! \b SYSCTL_PERIPH_GPIOD, \b SYSCTL_PERIPH_GPIOE, \b SYSCTL_PERIPH_GPIOF,
 569:/home/cuil/workspace/arm/lm3s811/TI_Stellaris/driverlib/sysctl.c **** //! \b SYSCTL_PERIPH_GPIOG, \b SYSCTL_PERIPH_GPIOH, \b SYSCTL_PERIPH_GPIOJ,
 570:/home/cuil/workspace/arm/lm3s811/TI_Stellaris/driverlib/sysctl.c **** //! \b SYSCTL_PERIPH_GPIOK, \b SYSCTL_PERIPH_GPIOL, \b SYSCTL_PERIPH_GPIOM,
 571:/home/cuil/workspace/arm/lm3s811/TI_Stellaris/driverlib/sysctl.c **** //! \b SYSCTL_PERIPH_GPION, \b SYSCTL_PERIPH_GPIOP, \b SYSCTL_PERIPH_GPIOQ,
 572:/home/cuil/workspace/arm/lm3s811/TI_Stellaris/driverlib/sysctl.c **** //! \b SYSCTL_PERIPH_HIBERNATE, \b SYSCTL_PERIPH_I2C0, \b SYSCTL_PERIPH_I2C1,
 573:/home/cuil/workspace/arm/lm3s811/TI_Stellaris/driverlib/sysctl.c **** //! \b SYSCTL_PERIPH_I2C2, \b SYSCTL_PERIPH_I2C3, \b SYSCTL_PERIPH_I2C4,
 574:/home/cuil/workspace/arm/lm3s811/TI_Stellaris/driverlib/sysctl.c **** //! \b SYSCTL_PERIPH_I2C5, \b SYSCTL_PERIPH_I2S0, \b SYSCTL_PERIPH_LPC0,
 575:/home/cuil/workspace/arm/lm3s811/TI_Stellaris/driverlib/sysctl.c **** //! \b SYSCTL_PERIPH_PECI0, \b SYSCTL_PERIPH_PWM0, \b SYSCTL_PERIPH_PWM1,
 576:/home/cuil/workspace/arm/lm3s811/TI_Stellaris/driverlib/sysctl.c **** //! \b SYSCTL_PERIPH_QEI0, \b SYSCTL_PERIPH_QEI1, \b SYSCTL_PERIPH_SSI0,
 577:/home/cuil/workspace/arm/lm3s811/TI_Stellaris/driverlib/sysctl.c **** //! \b SYSCTL_PERIPH_SSI1, \b SYSCTL_PERIPH_SSI2, \b SYSCTL_PERIPH_SSI3,
 578:/home/cuil/workspace/arm/lm3s811/TI_Stellaris/driverlib/sysctl.c **** //! \b SYSCTL_PERIPH_TIMER0, \b SYSCTL_PERIPH_TIMER1, \b SYSCTL_PERIPH_TIMER2,
 579:/home/cuil/workspace/arm/lm3s811/TI_Stellaris/driverlib/sysctl.c **** //! \b SYSCTL_PERIPH_TIMER3, \b SYSCTL_PERIPH_TIMER4, \b SYSCTL_PERIPH_TIMER5,
 580:/home/cuil/workspace/arm/lm3s811/TI_Stellaris/driverlib/sysctl.c **** //! \b SYSCTL_PERIPH_UART0, \b SYSCTL_PERIPH_UART1, \b SYSCTL_PERIPH_UART2,
 581:/home/cuil/workspace/arm/lm3s811/TI_Stellaris/driverlib/sysctl.c **** //! \b SYSCTL_PERIPH_UART3, \b SYSCTL_PERIPH_UART4, \b SYSCTL_PERIPH_UART5,
 582:/home/cuil/workspace/arm/lm3s811/TI_Stellaris/driverlib/sysctl.c **** //! \b SYSCTL_PERIPH_UART6, \b SYSCTL_PERIPH_UART7, \b SYSCTL_PERIPH_UDMA,
 583:/home/cuil/workspace/arm/lm3s811/TI_Stellaris/driverlib/sysctl.c **** //! \b SYSCTL_PERIPH_USB0, \b SYSCTL_PERIPH_WDOG0, \b SYSCTL_PERIPH_WDOG1,
 584:/home/cuil/workspace/arm/lm3s811/TI_Stellaris/driverlib/sysctl.c **** //! \b SYSCTL_PERIPH_WTIMER0, \b SYSCTL_PERIPH_WTIMER1,
 585:/home/cuil/workspace/arm/lm3s811/TI_Stellaris/driverlib/sysctl.c **** //! \b SYSCTL_PERIPH_WTIMER2, \b SYSCTL_PERIPH_WTIMER3,
 586:/home/cuil/workspace/arm/lm3s811/TI_Stellaris/driverlib/sysctl.c **** //! \b SYSCTL_PERIPH_WTIMER4, or \b SYSCTL_PERIPH_WTIMER5.
 587:/home/cuil/workspace/arm/lm3s811/TI_Stellaris/driverlib/sysctl.c **** //!
 588:/home/cuil/workspace/arm/lm3s811/TI_Stellaris/driverlib/sysctl.c **** //! \note The ability to check for a peripheral being ready varies based on the
 589:/home/cuil/workspace/arm/lm3s811/TI_Stellaris/driverlib/sysctl.c **** //! Stellaris part in use.  Please consult the data sheet for the part you are
 590:/home/cuil/workspace/arm/lm3s811/TI_Stellaris/driverlib/sysctl.c **** //! using to determine if this feature is available.
 591:/home/cuil/workspace/arm/lm3s811/TI_Stellaris/driverlib/sysctl.c **** //!
 592:/home/cuil/workspace/arm/lm3s811/TI_Stellaris/driverlib/sysctl.c **** //! \return Returns \b true if the specified peripheral is ready and \b false
 593:/home/cuil/workspace/arm/lm3s811/TI_Stellaris/driverlib/sysctl.c **** //! if it is not.
 594:/home/cuil/workspace/arm/lm3s811/TI_Stellaris/driverlib/sysctl.c **** //
 595:/home/cuil/workspace/arm/lm3s811/TI_Stellaris/driverlib/sysctl.c **** //*****************************************************************************
 596:/home/cuil/workspace/arm/lm3s811/TI_Stellaris/driverlib/sysctl.c **** tBoolean
 597:/home/cuil/workspace/arm/lm3s811/TI_Stellaris/driverlib/sysctl.c **** SysCtlPeripheralReady(unsigned long ulPeripheral)
 598:/home/cuil/workspace/arm/lm3s811/TI_Stellaris/driverlib/sysctl.c **** {
 11892              		.loc 1 598 0
 11893              		.cfi_startproc
 11894              		@ args = 0, pretend = 0, frame = 8
 11895              		@ frame_needed = 1, uses_anonymous_args = 0
 11896 0000 80B5     		push	{r7, lr}
 11897              	.LCFI13:
 11898              		.cfi_def_cfa_offset 8
 11899 0002 82B0     		sub	sp, sp, #8
 11900              	.LCFI14:
 11901              		.cfi_def_cfa_offset 16
 11902 0004 00AF     		add	r7, sp, #0
 11903              		.cfi_offset 14, -4
 11904              		.cfi_offset 7, -8
 11905              	.LCFI15:
 11906              		.cfi_def_cfa_register 7
 11907 0006 7860     		str	r0, [r7, #4]
 599:/home/cuil/workspace/arm/lm3s811/TI_Stellaris/driverlib/sysctl.c ****     //
 600:/home/cuil/workspace/arm/lm3s811/TI_Stellaris/driverlib/sysctl.c ****     // Check the arguments.
 601:/home/cuil/workspace/arm/lm3s811/TI_Stellaris/driverlib/sysctl.c ****     //
 602:/home/cuil/workspace/arm/lm3s811/TI_Stellaris/driverlib/sysctl.c ****     ASSERT(SysCtlPeripheralValid(ulPeripheral));
 603:/home/cuil/workspace/arm/lm3s811/TI_Stellaris/driverlib/sysctl.c **** 
 604:/home/cuil/workspace/arm/lm3s811/TI_Stellaris/driverlib/sysctl.c ****     //
 605:/home/cuil/workspace/arm/lm3s811/TI_Stellaris/driverlib/sysctl.c ****     // Map the peripheral identifier to the new style identifiers.  If it is
 606:/home/cuil/workspace/arm/lm3s811/TI_Stellaris/driverlib/sysctl.c ****     // already a new style identifier, this is a NOP.
 607:/home/cuil/workspace/arm/lm3s811/TI_Stellaris/driverlib/sysctl.c ****     //
 608:/home/cuil/workspace/arm/lm3s811/TI_Stellaris/driverlib/sysctl.c ****     ulPeripheral = SysCtlPeripheralMapToNew(ulPeripheral);
 11908              		.loc 1 608 0
 11909 0008 7868     		ldr	r0, [r7, #4]
 11910 000a FFF7FEFF 		bl	SysCtlPeripheralMapToNew
 11911 000e 7860     		str	r0, [r7, #4]
 609:/home/cuil/workspace/arm/lm3s811/TI_Stellaris/driverlib/sysctl.c **** 
 610:/home/cuil/workspace/arm/lm3s811/TI_Stellaris/driverlib/sysctl.c ****     //
 611:/home/cuil/workspace/arm/lm3s811/TI_Stellaris/driverlib/sysctl.c ****     // See if this peripheral is ready.
 612:/home/cuil/workspace/arm/lm3s811/TI_Stellaris/driverlib/sysctl.c ****     //
 613:/home/cuil/workspace/arm/lm3s811/TI_Stellaris/driverlib/sysctl.c ****     return(HWREGBITW(SYSCTL_PRBASE + ((ulPeripheral & 0xff00) >> 8),
 11912              		.loc 1 613 0
 11913 0010 7B68     		ldr	r3, [r7, #4]
 11914 0012 03F47F43 		and	r3, r3, #65280
 11915 0016 4FEA1322 		lsr	r2, r3, #8
 11916 001a 114B     		ldr	r3, .L28
 11917 001c D318     		adds	r3, r2, r3
 11918 001e 03F07042 		and	r2, r3, #-268435456
 11919 0022 7B68     		ldr	r3, [r7, #4]
 11920 0024 03F47F43 		and	r3, r3, #65280
 11921 0028 4FEA1321 		lsr	r1, r3, #8
 11922 002c 0C4B     		ldr	r3, .L28
 11923 002e CB18     		adds	r3, r1, r3
 11924 0030 23F07F43 		bic	r3, r3, #-16777216
 11925 0034 23F47003 		bic	r3, r3, #15728640
 11926 0038 4FEA4313 		lsl	r3, r3, #5
 11927 003c 1A43     		orrs	r2, r2, r3
 11928 003e 7B68     		ldr	r3, [r7, #4]
 11929 0040 03F0FF03 		and	r3, r3, #255
 11930 0044 4FEA8303 		lsl	r3, r3, #2
 11931 0048 42EA0303 		orr	r3, r2, r3
 11932 004c 43F00073 		orr	r3, r3, #33554432
 11933 0050 1B68     		ldr	r3, [r3, #0]
 11934 0052 DBB2     		uxtb	r3, r3
 614:/home/cuil/workspace/arm/lm3s811/TI_Stellaris/driverlib/sysctl.c ****                      ulPeripheral & 0xff));
 615:/home/cuil/workspace/arm/lm3s811/TI_Stellaris/driverlib/sysctl.c **** }
 11935              		.loc 1 615 0
 11936 0054 1846     		mov	r0, r3
 11937 0056 07F10807 		add	r7, r7, #8
 11938 005a BD46     		mov	sp, r7
 11939 005c 80BD     		pop	{r7, pc}
 11940              	.L29:
 11941 005e 00BF     		.align	2
 11942              	.L28:
 11943 0060 00EA0F40 		.word	1074784768
 11944              		.cfi_endproc
 11945              	.LFE5:
 11947              		.section	.text.SysCtlPeripheralPowerOn,"ax",%progbits
 11948              		.align	2
 11949              		.global	SysCtlPeripheralPowerOn
 11950              		.thumb
 11951              		.thumb_func
 11953              	SysCtlPeripheralPowerOn:
 11954              	.LFB6:
 616:/home/cuil/workspace/arm/lm3s811/TI_Stellaris/driverlib/sysctl.c **** 
 617:/home/cuil/workspace/arm/lm3s811/TI_Stellaris/driverlib/sysctl.c **** //*****************************************************************************
 618:/home/cuil/workspace/arm/lm3s811/TI_Stellaris/driverlib/sysctl.c **** //
 619:/home/cuil/workspace/arm/lm3s811/TI_Stellaris/driverlib/sysctl.c **** //! Powers on a peripheral.
 620:/home/cuil/workspace/arm/lm3s811/TI_Stellaris/driverlib/sysctl.c **** //!
 621:/home/cuil/workspace/arm/lm3s811/TI_Stellaris/driverlib/sysctl.c **** //! \param ulPeripheral is the peripheral to be powered on.
 622:/home/cuil/workspace/arm/lm3s811/TI_Stellaris/driverlib/sysctl.c **** //!
 623:/home/cuil/workspace/arm/lm3s811/TI_Stellaris/driverlib/sysctl.c **** //! This function turns on the power to a peripheral.  The peripheral continues 
 624:/home/cuil/workspace/arm/lm3s811/TI_Stellaris/driverlib/sysctl.c **** //! to receive power even when its clock is not enabled.
 625:/home/cuil/workspace/arm/lm3s811/TI_Stellaris/driverlib/sysctl.c **** //!
 626:/home/cuil/workspace/arm/lm3s811/TI_Stellaris/driverlib/sysctl.c **** //! The \e ulPeripheral paramter must be only one of the following values:
 627:/home/cuil/workspace/arm/lm3s811/TI_Stellaris/driverlib/sysctl.c **** //! \b SYSCTL_PERIPH_ADC0, \b SYSCTL_PERIPH_ADC1, \b SYSCTL_PERIPH_CAN0,
 628:/home/cuil/workspace/arm/lm3s811/TI_Stellaris/driverlib/sysctl.c **** //! \b SYSCTL_PERIPH_CAN1, \b SYSCTL_PERIPH_CAN2, \b SYSCTL_PERIPH_COMP0,
 629:/home/cuil/workspace/arm/lm3s811/TI_Stellaris/driverlib/sysctl.c **** //! \b SYSCTL_PERIPH_COMP1, \b SYSCTL_PERIPH_COMP2, \b SYSCTL_PERIPH_EEPROM0,
 630:/home/cuil/workspace/arm/lm3s811/TI_Stellaris/driverlib/sysctl.c **** //! \b SYSCTL_PERIPH_EPI0, \b SYSCTL_PERIPH_ETH, \b SYSCTL_PERIPH_FAN0,
 631:/home/cuil/workspace/arm/lm3s811/TI_Stellaris/driverlib/sysctl.c **** //! \b SYSCTL_PERIPH_GPIOA, \b SYSCTL_PERIPH_GPIOB, \b SYSCTL_PERIPH_GPIOC,
 632:/home/cuil/workspace/arm/lm3s811/TI_Stellaris/driverlib/sysctl.c **** //! \b SYSCTL_PERIPH_GPIOD, \b SYSCTL_PERIPH_GPIOE, \b SYSCTL_PERIPH_GPIOF,
 633:/home/cuil/workspace/arm/lm3s811/TI_Stellaris/driverlib/sysctl.c **** //! \b SYSCTL_PERIPH_GPIOG, \b SYSCTL_PERIPH_GPIOH, \b SYSCTL_PERIPH_GPIOJ,
 634:/home/cuil/workspace/arm/lm3s811/TI_Stellaris/driverlib/sysctl.c **** //! \b SYSCTL_PERIPH_GPIOK, \b SYSCTL_PERIPH_GPIOL, \b SYSCTL_PERIPH_GPIOM,
 635:/home/cuil/workspace/arm/lm3s811/TI_Stellaris/driverlib/sysctl.c **** //! \b SYSCTL_PERIPH_GPION, \b SYSCTL_PERIPH_GPIOP, \b SYSCTL_PERIPH_GPIOQ,
 636:/home/cuil/workspace/arm/lm3s811/TI_Stellaris/driverlib/sysctl.c **** //! \b SYSCTL_PERIPH_HIBERNATE, \b SYSCTL_PERIPH_I2C0, \b SYSCTL_PERIPH_I2C1,
 637:/home/cuil/workspace/arm/lm3s811/TI_Stellaris/driverlib/sysctl.c **** //! \b SYSCTL_PERIPH_I2C2, \b SYSCTL_PERIPH_I2C3, \b SYSCTL_PERIPH_I2C4,
 638:/home/cuil/workspace/arm/lm3s811/TI_Stellaris/driverlib/sysctl.c **** //! \b SYSCTL_PERIPH_I2C5, \b SYSCTL_PERIPH_I2S0, \b SYSCTL_PERIPH_LPC0,
 639:/home/cuil/workspace/arm/lm3s811/TI_Stellaris/driverlib/sysctl.c **** //! \b SYSCTL_PERIPH_PECI0, \b SYSCTL_PERIPH_PWM0, \b SYSCTL_PERIPH_PWM1,
 640:/home/cuil/workspace/arm/lm3s811/TI_Stellaris/driverlib/sysctl.c **** //! \b SYSCTL_PERIPH_QEI0, \b SYSCTL_PERIPH_QEI1, \b SYSCTL_PERIPH_SSI0,
 641:/home/cuil/workspace/arm/lm3s811/TI_Stellaris/driverlib/sysctl.c **** //! \b SYSCTL_PERIPH_SSI1, \b SYSCTL_PERIPH_SSI2, \b SYSCTL_PERIPH_SSI3,
 642:/home/cuil/workspace/arm/lm3s811/TI_Stellaris/driverlib/sysctl.c **** //! \b SYSCTL_PERIPH_TIMER0, \b SYSCTL_PERIPH_TIMER1, \b SYSCTL_PERIPH_TIMER2,
 643:/home/cuil/workspace/arm/lm3s811/TI_Stellaris/driverlib/sysctl.c **** //! \b SYSCTL_PERIPH_TIMER3, \b SYSCTL_PERIPH_TIMER4, \b SYSCTL_PERIPH_TIMER5,
 644:/home/cuil/workspace/arm/lm3s811/TI_Stellaris/driverlib/sysctl.c **** //! \b SYSCTL_PERIPH_UART0, \b SYSCTL_PERIPH_UART1, \b SYSCTL_PERIPH_UART2,
 645:/home/cuil/workspace/arm/lm3s811/TI_Stellaris/driverlib/sysctl.c **** //! \b SYSCTL_PERIPH_UART3, \b SYSCTL_PERIPH_UART4, \b SYSCTL_PERIPH_UART5,
 646:/home/cuil/workspace/arm/lm3s811/TI_Stellaris/driverlib/sysctl.c **** //! \b SYSCTL_PERIPH_UART6, \b SYSCTL_PERIPH_UART7, \b SYSCTL_PERIPH_UDMA,
 647:/home/cuil/workspace/arm/lm3s811/TI_Stellaris/driverlib/sysctl.c **** //! \b SYSCTL_PERIPH_USB0, \b SYSCTL_PERIPH_WDOG0, \b SYSCTL_PERIPH_WDOG1,
 648:/home/cuil/workspace/arm/lm3s811/TI_Stellaris/driverlib/sysctl.c **** //! \b SYSCTL_PERIPH_WTIMER0, \b SYSCTL_PERIPH_WTIMER1,
 649:/home/cuil/workspace/arm/lm3s811/TI_Stellaris/driverlib/sysctl.c **** //! \b SYSCTL_PERIPH_WTIMER2, \b SYSCTL_PERIPH_WTIMER3,
 650:/home/cuil/workspace/arm/lm3s811/TI_Stellaris/driverlib/sysctl.c **** //! \b SYSCTL_PERIPH_WTIMER4, or \b SYSCTL_PERIPH_WTIMER5.
 651:/home/cuil/workspace/arm/lm3s811/TI_Stellaris/driverlib/sysctl.c **** //!
 652:/home/cuil/workspace/arm/lm3s811/TI_Stellaris/driverlib/sysctl.c **** //! \note The ability to power off a peripheral varies based on the Stellaris
 653:/home/cuil/workspace/arm/lm3s811/TI_Stellaris/driverlib/sysctl.c **** //! part in use.  Please consult the data sheet for the part you are using to
 654:/home/cuil/workspace/arm/lm3s811/TI_Stellaris/driverlib/sysctl.c **** //! determine if this feature is available.
 655:/home/cuil/workspace/arm/lm3s811/TI_Stellaris/driverlib/sysctl.c **** //!
 656:/home/cuil/workspace/arm/lm3s811/TI_Stellaris/driverlib/sysctl.c **** //! \return None.
 657:/home/cuil/workspace/arm/lm3s811/TI_Stellaris/driverlib/sysctl.c **** //
 658:/home/cuil/workspace/arm/lm3s811/TI_Stellaris/driverlib/sysctl.c **** //*****************************************************************************
 659:/home/cuil/workspace/arm/lm3s811/TI_Stellaris/driverlib/sysctl.c **** void
 660:/home/cuil/workspace/arm/lm3s811/TI_Stellaris/driverlib/sysctl.c **** SysCtlPeripheralPowerOn(unsigned long ulPeripheral)
 661:/home/cuil/workspace/arm/lm3s811/TI_Stellaris/driverlib/sysctl.c **** {
 11955              		.loc 1 661 0
 11956              		.cfi_startproc
 11957              		@ args = 0, pretend = 0, frame = 8
 11958              		@ frame_needed = 1, uses_anonymous_args = 0
 11959 0000 80B5     		push	{r7, lr}
 11960              	.LCFI16:
 11961              		.cfi_def_cfa_offset 8
 11962 0002 82B0     		sub	sp, sp, #8
 11963              	.LCFI17:
 11964              		.cfi_def_cfa_offset 16
 11965 0004 00AF     		add	r7, sp, #0
 11966              		.cfi_offset 14, -4
 11967              		.cfi_offset 7, -8
 11968              	.LCFI18:
 11969              		.cfi_def_cfa_register 7
 11970 0006 7860     		str	r0, [r7, #4]
 662:/home/cuil/workspace/arm/lm3s811/TI_Stellaris/driverlib/sysctl.c ****     //
 663:/home/cuil/workspace/arm/lm3s811/TI_Stellaris/driverlib/sysctl.c ****     // Check the arguments.
 664:/home/cuil/workspace/arm/lm3s811/TI_Stellaris/driverlib/sysctl.c ****     //
 665:/home/cuil/workspace/arm/lm3s811/TI_Stellaris/driverlib/sysctl.c ****     ASSERT(SysCtlPeripheralValid(ulPeripheral));
 666:/home/cuil/workspace/arm/lm3s811/TI_Stellaris/driverlib/sysctl.c **** 
 667:/home/cuil/workspace/arm/lm3s811/TI_Stellaris/driverlib/sysctl.c ****     //
 668:/home/cuil/workspace/arm/lm3s811/TI_Stellaris/driverlib/sysctl.c ****     // Map the peripheral identifier to the new style identifiers.  If it is
 669:/home/cuil/workspace/arm/lm3s811/TI_Stellaris/driverlib/sysctl.c ****     // already a new style identifier, this is a NOP.
 670:/home/cuil/workspace/arm/lm3s811/TI_Stellaris/driverlib/sysctl.c ****     //
 671:/home/cuil/workspace/arm/lm3s811/TI_Stellaris/driverlib/sysctl.c ****     ulPeripheral = SysCtlPeripheralMapToNew(ulPeripheral);
 11971              		.loc 1 671 0
 11972 0008 7868     		ldr	r0, [r7, #4]
 11973 000a FFF7FEFF 		bl	SysCtlPeripheralMapToNew
 11974 000e 7860     		str	r0, [r7, #4]
 672:/home/cuil/workspace/arm/lm3s811/TI_Stellaris/driverlib/sysctl.c **** 
 673:/home/cuil/workspace/arm/lm3s811/TI_Stellaris/driverlib/sysctl.c ****     //
 674:/home/cuil/workspace/arm/lm3s811/TI_Stellaris/driverlib/sysctl.c ****     // Power on this peripheral.
 675:/home/cuil/workspace/arm/lm3s811/TI_Stellaris/driverlib/sysctl.c ****     //
 676:/home/cuil/workspace/arm/lm3s811/TI_Stellaris/driverlib/sysctl.c ****     HWREGBITW(SYSCTL_PCBASE + ((ulPeripheral & 0xff00) >> 8),
 11975              		.loc 1 676 0
 11976 0010 7B68     		ldr	r3, [r7, #4]
 11977 0012 03F47F43 		and	r3, r3, #65280
 11978 0016 4FEA1322 		lsr	r2, r3, #8
 11979 001a 114B     		ldr	r3, .L31
 11980 001c D318     		adds	r3, r2, r3
 11981 001e 03F07042 		and	r2, r3, #-268435456
 11982 0022 7B68     		ldr	r3, [r7, #4]
 11983 0024 03F47F43 		and	r3, r3, #65280
 11984 0028 4FEA1321 		lsr	r1, r3, #8
 11985 002c 0C4B     		ldr	r3, .L31
 11986 002e CB18     		adds	r3, r1, r3
 11987 0030 23F07F43 		bic	r3, r3, #-16777216
 11988 0034 23F47003 		bic	r3, r3, #15728640
 11989 0038 4FEA4313 		lsl	r3, r3, #5
 11990 003c 1A43     		orrs	r2, r2, r3
 11991 003e 7B68     		ldr	r3, [r7, #4]
 11992 0040 03F0FF03 		and	r3, r3, #255
 11993 0044 4FEA8303 		lsl	r3, r3, #2
 11994 0048 42EA0303 		orr	r3, r2, r3
 11995 004c 43F00073 		orr	r3, r3, #33554432
 677:/home/cuil/workspace/arm/lm3s811/TI_Stellaris/driverlib/sysctl.c ****               ulPeripheral & 0xff) = 1;
 11996              		.loc 1 677 0
 11997 0050 4FF00102 		mov	r2, #1
 11998 0054 1A60     		str	r2, [r3, #0]
 678:/home/cuil/workspace/arm/lm3s811/TI_Stellaris/driverlib/sysctl.c **** }
 11999              		.loc 1 678 0
 12000 0056 07F10807 		add	r7, r7, #8
 12001 005a BD46     		mov	sp, r7
 12002 005c 80BD     		pop	{r7, pc}
 12003              	.L32:
 12004 005e 00BF     		.align	2
 12005              	.L31:
 12006 0060 00E90F40 		.word	1074784512
 12007              		.cfi_endproc
 12008              	.LFE6:
 12010              		.section	.text.SysCtlPeripheralPowerOff,"ax",%progbits
 12011              		.align	2
 12012              		.global	SysCtlPeripheralPowerOff
 12013              		.thumb
 12014              		.thumb_func
 12016              	SysCtlPeripheralPowerOff:
 12017              	.LFB7:
 679:/home/cuil/workspace/arm/lm3s811/TI_Stellaris/driverlib/sysctl.c **** 
 680:/home/cuil/workspace/arm/lm3s811/TI_Stellaris/driverlib/sysctl.c **** //*****************************************************************************
 681:/home/cuil/workspace/arm/lm3s811/TI_Stellaris/driverlib/sysctl.c **** //
 682:/home/cuil/workspace/arm/lm3s811/TI_Stellaris/driverlib/sysctl.c **** //! Powers off a peripheral.
 683:/home/cuil/workspace/arm/lm3s811/TI_Stellaris/driverlib/sysctl.c **** //!
 684:/home/cuil/workspace/arm/lm3s811/TI_Stellaris/driverlib/sysctl.c **** //! \param ulPeripheral is the peripheral to be powered off.
 685:/home/cuil/workspace/arm/lm3s811/TI_Stellaris/driverlib/sysctl.c **** //!
 686:/home/cuil/workspace/arm/lm3s811/TI_Stellaris/driverlib/sysctl.c **** //! This function allows the power to a peripheral to be turned off.  The
 687:/home/cuil/workspace/arm/lm3s811/TI_Stellaris/driverlib/sysctl.c **** //! peripheral continues to receive power when its clock is enabled, but
 688:/home/cuil/workspace/arm/lm3s811/TI_Stellaris/driverlib/sysctl.c **** //! the power is removed when its clock is disabled.
 689:/home/cuil/workspace/arm/lm3s811/TI_Stellaris/driverlib/sysctl.c **** //!
 690:/home/cuil/workspace/arm/lm3s811/TI_Stellaris/driverlib/sysctl.c **** //! The \e ulPeripheral paramter must be only one of the following values:
 691:/home/cuil/workspace/arm/lm3s811/TI_Stellaris/driverlib/sysctl.c **** //! \b SYSCTL_PERIPH_ADC0, \b SYSCTL_PERIPH_ADC1, \b SYSCTL_PERIPH_CAN0,
 692:/home/cuil/workspace/arm/lm3s811/TI_Stellaris/driverlib/sysctl.c **** //! \b SYSCTL_PERIPH_CAN1, \b SYSCTL_PERIPH_CAN2, \b SYSCTL_PERIPH_COMP0,
 693:/home/cuil/workspace/arm/lm3s811/TI_Stellaris/driverlib/sysctl.c **** //! \b SYSCTL_PERIPH_COMP1, \b SYSCTL_PERIPH_COMP2, \b SYSCTL_PERIPH_EEPROM0,
 694:/home/cuil/workspace/arm/lm3s811/TI_Stellaris/driverlib/sysctl.c **** //! \b SYSCTL_PERIPH_EPI0, \b SYSCTL_PERIPH_ETH, \b SYSCTL_PERIPH_FAN0,
 695:/home/cuil/workspace/arm/lm3s811/TI_Stellaris/driverlib/sysctl.c **** //! \b SYSCTL_PERIPH_GPIOA, \b SYSCTL_PERIPH_GPIOB, \b SYSCTL_PERIPH_GPIOC,
 696:/home/cuil/workspace/arm/lm3s811/TI_Stellaris/driverlib/sysctl.c **** //! \b SYSCTL_PERIPH_GPIOD, \b SYSCTL_PERIPH_GPIOE, \b SYSCTL_PERIPH_GPIOF,
 697:/home/cuil/workspace/arm/lm3s811/TI_Stellaris/driverlib/sysctl.c **** //! \b SYSCTL_PERIPH_GPIOG, \b SYSCTL_PERIPH_GPIOH, \b SYSCTL_PERIPH_GPIOJ,
 698:/home/cuil/workspace/arm/lm3s811/TI_Stellaris/driverlib/sysctl.c **** //! \b SYSCTL_PERIPH_GPIOK, \b SYSCTL_PERIPH_GPIOL, \b SYSCTL_PERIPH_GPIOM,
 699:/home/cuil/workspace/arm/lm3s811/TI_Stellaris/driverlib/sysctl.c **** //! \b SYSCTL_PERIPH_GPION, \b SYSCTL_PERIPH_GPIOP, \b SYSCTL_PERIPH_GPIOQ,
 700:/home/cuil/workspace/arm/lm3s811/TI_Stellaris/driverlib/sysctl.c **** //! \b SYSCTL_PERIPH_HIBERNATE, \b SYSCTL_PERIPH_I2C0, \b SYSCTL_PERIPH_I2C1,
 701:/home/cuil/workspace/arm/lm3s811/TI_Stellaris/driverlib/sysctl.c **** //! \b SYSCTL_PERIPH_I2C2, \b SYSCTL_PERIPH_I2C3, \b SYSCTL_PERIPH_I2C4,
 702:/home/cuil/workspace/arm/lm3s811/TI_Stellaris/driverlib/sysctl.c **** //! \b SYSCTL_PERIPH_I2C5, \b SYSCTL_PERIPH_I2S0, \b SYSCTL_PERIPH_LPC0,
 703:/home/cuil/workspace/arm/lm3s811/TI_Stellaris/driverlib/sysctl.c **** //! \b SYSCTL_PERIPH_PECI0, \b SYSCTL_PERIPH_PWM0, \b SYSCTL_PERIPH_PWM1,
 704:/home/cuil/workspace/arm/lm3s811/TI_Stellaris/driverlib/sysctl.c **** //! \b SYSCTL_PERIPH_QEI0, \b SYSCTL_PERIPH_QEI1, \b SYSCTL_PERIPH_SSI0,
 705:/home/cuil/workspace/arm/lm3s811/TI_Stellaris/driverlib/sysctl.c **** //! \b SYSCTL_PERIPH_SSI1, \b SYSCTL_PERIPH_SSI2, \b SYSCTL_PERIPH_SSI3,
 706:/home/cuil/workspace/arm/lm3s811/TI_Stellaris/driverlib/sysctl.c **** //! \b SYSCTL_PERIPH_TIMER0, \b SYSCTL_PERIPH_TIMER1, \b SYSCTL_PERIPH_TIMER2,
 707:/home/cuil/workspace/arm/lm3s811/TI_Stellaris/driverlib/sysctl.c **** //! \b SYSCTL_PERIPH_TIMER3, \b SYSCTL_PERIPH_TIMER4, \b SYSCTL_PERIPH_TIMER5,
 708:/home/cuil/workspace/arm/lm3s811/TI_Stellaris/driverlib/sysctl.c **** //! \b SYSCTL_PERIPH_UART0, \b SYSCTL_PERIPH_UART1, \b SYSCTL_PERIPH_UART2,
 709:/home/cuil/workspace/arm/lm3s811/TI_Stellaris/driverlib/sysctl.c **** //! \b SYSCTL_PERIPH_UART3, \b SYSCTL_PERIPH_UART4, \b SYSCTL_PERIPH_UART5,
 710:/home/cuil/workspace/arm/lm3s811/TI_Stellaris/driverlib/sysctl.c **** //! \b SYSCTL_PERIPH_UART6, \b SYSCTL_PERIPH_UART7, \b SYSCTL_PERIPH_UDMA,
 711:/home/cuil/workspace/arm/lm3s811/TI_Stellaris/driverlib/sysctl.c **** //! \b SYSCTL_PERIPH_USB0, \b SYSCTL_PERIPH_WDOG0, \b SYSCTL_PERIPH_WDOG1,
 712:/home/cuil/workspace/arm/lm3s811/TI_Stellaris/driverlib/sysctl.c **** //! \b SYSCTL_PERIPH_WTIMER0, \b SYSCTL_PERIPH_WTIMER1,
 713:/home/cuil/workspace/arm/lm3s811/TI_Stellaris/driverlib/sysctl.c **** //! \b SYSCTL_PERIPH_WTIMER2, \b SYSCTL_PERIPH_WTIMER3,
 714:/home/cuil/workspace/arm/lm3s811/TI_Stellaris/driverlib/sysctl.c **** //! \b SYSCTL_PERIPH_WTIMER4, or \b SYSCTL_PERIPH_WTIMER5.
 715:/home/cuil/workspace/arm/lm3s811/TI_Stellaris/driverlib/sysctl.c **** //!
 716:/home/cuil/workspace/arm/lm3s811/TI_Stellaris/driverlib/sysctl.c **** //! \note The ability to power off a peripheral varies based on the Stellaris
 717:/home/cuil/workspace/arm/lm3s811/TI_Stellaris/driverlib/sysctl.c **** //! part in use.  Please consult the data sheet for the part you are using to
 718:/home/cuil/workspace/arm/lm3s811/TI_Stellaris/driverlib/sysctl.c **** //! determine if this feature is available.
 719:/home/cuil/workspace/arm/lm3s811/TI_Stellaris/driverlib/sysctl.c **** //!
 720:/home/cuil/workspace/arm/lm3s811/TI_Stellaris/driverlib/sysctl.c **** //! \return None.
 721:/home/cuil/workspace/arm/lm3s811/TI_Stellaris/driverlib/sysctl.c **** //
 722:/home/cuil/workspace/arm/lm3s811/TI_Stellaris/driverlib/sysctl.c **** //*****************************************************************************
 723:/home/cuil/workspace/arm/lm3s811/TI_Stellaris/driverlib/sysctl.c **** void
 724:/home/cuil/workspace/arm/lm3s811/TI_Stellaris/driverlib/sysctl.c **** SysCtlPeripheralPowerOff(unsigned long ulPeripheral)
 725:/home/cuil/workspace/arm/lm3s811/TI_Stellaris/driverlib/sysctl.c **** {
 12018              		.loc 1 725 0
 12019              		.cfi_startproc
 12020              		@ args = 0, pretend = 0, frame = 8
 12021              		@ frame_needed = 1, uses_anonymous_args = 0
 12022 0000 80B5     		push	{r7, lr}
 12023              	.LCFI19:
 12024              		.cfi_def_cfa_offset 8
 12025 0002 82B0     		sub	sp, sp, #8
 12026              	.LCFI20:
 12027              		.cfi_def_cfa_offset 16
 12028 0004 00AF     		add	r7, sp, #0
 12029              		.cfi_offset 14, -4
 12030              		.cfi_offset 7, -8
 12031              	.LCFI21:
 12032              		.cfi_def_cfa_register 7
 12033 0006 7860     		str	r0, [r7, #4]
 726:/home/cuil/workspace/arm/lm3s811/TI_Stellaris/driverlib/sysctl.c ****     //
 727:/home/cuil/workspace/arm/lm3s811/TI_Stellaris/driverlib/sysctl.c ****     // Check the arguments.
 728:/home/cuil/workspace/arm/lm3s811/TI_Stellaris/driverlib/sysctl.c ****     //
 729:/home/cuil/workspace/arm/lm3s811/TI_Stellaris/driverlib/sysctl.c ****     ASSERT(SysCtlPeripheralValid(ulPeripheral));
 730:/home/cuil/workspace/arm/lm3s811/TI_Stellaris/driverlib/sysctl.c **** 
 731:/home/cuil/workspace/arm/lm3s811/TI_Stellaris/driverlib/sysctl.c ****     //
 732:/home/cuil/workspace/arm/lm3s811/TI_Stellaris/driverlib/sysctl.c ****     // Map the peripheral identifier to the new style identifiers.  If it is
 733:/home/cuil/workspace/arm/lm3s811/TI_Stellaris/driverlib/sysctl.c ****     // already a new style identifier, this is a NOP.
 734:/home/cuil/workspace/arm/lm3s811/TI_Stellaris/driverlib/sysctl.c ****     //
 735:/home/cuil/workspace/arm/lm3s811/TI_Stellaris/driverlib/sysctl.c ****     ulPeripheral = SysCtlPeripheralMapToNew(ulPeripheral);
 12034              		.loc 1 735 0
 12035 0008 7868     		ldr	r0, [r7, #4]
 12036 000a FFF7FEFF 		bl	SysCtlPeripheralMapToNew
 12037 000e 7860     		str	r0, [r7, #4]
 736:/home/cuil/workspace/arm/lm3s811/TI_Stellaris/driverlib/sysctl.c **** 
 737:/home/cuil/workspace/arm/lm3s811/TI_Stellaris/driverlib/sysctl.c ****     //
 738:/home/cuil/workspace/arm/lm3s811/TI_Stellaris/driverlib/sysctl.c ****     // Power off this peripheral.
 739:/home/cuil/workspace/arm/lm3s811/TI_Stellaris/driverlib/sysctl.c ****     //
 740:/home/cuil/workspace/arm/lm3s811/TI_Stellaris/driverlib/sysctl.c ****     HWREGBITW(SYSCTL_PCBASE + ((ulPeripheral & 0xff00) >> 8),
 12038              		.loc 1 740 0
 12039 0010 7B68     		ldr	r3, [r7, #4]
 12040 0012 03F47F43 		and	r3, r3, #65280
 12041 0016 4FEA1322 		lsr	r2, r3, #8
 12042 001a 114B     		ldr	r3, .L34
 12043 001c D318     		adds	r3, r2, r3
 12044 001e 03F07042 		and	r2, r3, #-268435456
 12045 0022 7B68     		ldr	r3, [r7, #4]
 12046 0024 03F47F43 		and	r3, r3, #65280
 12047 0028 4FEA1321 		lsr	r1, r3, #8
 12048 002c 0C4B     		ldr	r3, .L34
 12049 002e CB18     		adds	r3, r1, r3
 12050 0030 23F07F43 		bic	r3, r3, #-16777216
 12051 0034 23F47003 		bic	r3, r3, #15728640
 12052 0038 4FEA4313 		lsl	r3, r3, #5
 12053 003c 1A43     		orrs	r2, r2, r3
 12054 003e 7B68     		ldr	r3, [r7, #4]
 12055 0040 03F0FF03 		and	r3, r3, #255
 12056 0044 4FEA8303 		lsl	r3, r3, #2
 12057 0048 42EA0303 		orr	r3, r2, r3
 12058 004c 43F00073 		orr	r3, r3, #33554432
 741:/home/cuil/workspace/arm/lm3s811/TI_Stellaris/driverlib/sysctl.c ****               ulPeripheral & 0xff) = 0;
 12059              		.loc 1 741 0
 12060 0050 4FF00002 		mov	r2, #0
 12061 0054 1A60     		str	r2, [r3, #0]
 742:/home/cuil/workspace/arm/lm3s811/TI_Stellaris/driverlib/sysctl.c **** }
 12062              		.loc 1 742 0
 12063 0056 07F10807 		add	r7, r7, #8
 12064 005a BD46     		mov	sp, r7
 12065 005c 80BD     		pop	{r7, pc}
 12066              	.L35:
 12067 005e 00BF     		.align	2
 12068              	.L34:
 12069 0060 00E90F40 		.word	1074784512
 12070              		.cfi_endproc
 12071              	.LFE7:
 12073              		.section	.text.SysCtlPeripheralReset,"ax",%progbits
 12074              		.align	2
 12075              		.global	SysCtlPeripheralReset
 12076              		.thumb
 12077              		.thumb_func
 12079              	SysCtlPeripheralReset:
 12080              	.LFB8:
 743:/home/cuil/workspace/arm/lm3s811/TI_Stellaris/driverlib/sysctl.c **** 
 744:/home/cuil/workspace/arm/lm3s811/TI_Stellaris/driverlib/sysctl.c **** //*****************************************************************************
 745:/home/cuil/workspace/arm/lm3s811/TI_Stellaris/driverlib/sysctl.c **** //
 746:/home/cuil/workspace/arm/lm3s811/TI_Stellaris/driverlib/sysctl.c **** //! Performs a software reset of a peripheral.
 747:/home/cuil/workspace/arm/lm3s811/TI_Stellaris/driverlib/sysctl.c **** //!
 748:/home/cuil/workspace/arm/lm3s811/TI_Stellaris/driverlib/sysctl.c **** //! \param ulPeripheral is the peripheral to reset.
 749:/home/cuil/workspace/arm/lm3s811/TI_Stellaris/driverlib/sysctl.c **** //!
 750:/home/cuil/workspace/arm/lm3s811/TI_Stellaris/driverlib/sysctl.c **** //! This function performs a software reset of the specified peripheral.  An
 751:/home/cuil/workspace/arm/lm3s811/TI_Stellaris/driverlib/sysctl.c **** //! individual peripheral reset signal is asserted for a brief period and then
 752:/home/cuil/workspace/arm/lm3s811/TI_Stellaris/driverlib/sysctl.c **** //! deasserted, returning the internal state of the peripheral to its reset
 753:/home/cuil/workspace/arm/lm3s811/TI_Stellaris/driverlib/sysctl.c **** //! condition.
 754:/home/cuil/workspace/arm/lm3s811/TI_Stellaris/driverlib/sysctl.c **** //!
 755:/home/cuil/workspace/arm/lm3s811/TI_Stellaris/driverlib/sysctl.c **** //! The \e ulPeripheral parameter must be only one of the following values:
 756:/home/cuil/workspace/arm/lm3s811/TI_Stellaris/driverlib/sysctl.c **** //! \b SYSCTL_PERIPH_ADC0, \b SYSCTL_PERIPH_ADC1, \b SYSCTL_PERIPH_CAN0,
 757:/home/cuil/workspace/arm/lm3s811/TI_Stellaris/driverlib/sysctl.c **** //! \b SYSCTL_PERIPH_CAN1, \b SYSCTL_PERIPH_CAN2, \b SYSCTL_PERIPH_COMP0,
 758:/home/cuil/workspace/arm/lm3s811/TI_Stellaris/driverlib/sysctl.c **** //! \b SYSCTL_PERIPH_COMP1, \b SYSCTL_PERIPH_COMP2, \b SYSCTL_PERIPH_EEPROM0,
 759:/home/cuil/workspace/arm/lm3s811/TI_Stellaris/driverlib/sysctl.c **** //! \b SYSCTL_PERIPH_EPI0, \b SYSCTL_PERIPH_ETH, \b SYSCTL_PERIPH_FAN0,
 760:/home/cuil/workspace/arm/lm3s811/TI_Stellaris/driverlib/sysctl.c **** //! \b SYSCTL_PERIPH_GPIOA, \b SYSCTL_PERIPH_GPIOB, \b SYSCTL_PERIPH_GPIOC,
 761:/home/cuil/workspace/arm/lm3s811/TI_Stellaris/driverlib/sysctl.c **** //! \b SYSCTL_PERIPH_GPIOD, \b SYSCTL_PERIPH_GPIOE, \b SYSCTL_PERIPH_GPIOF,
 762:/home/cuil/workspace/arm/lm3s811/TI_Stellaris/driverlib/sysctl.c **** //! \b SYSCTL_PERIPH_GPIOG, \b SYSCTL_PERIPH_GPIOH, \b SYSCTL_PERIPH_GPIOJ,
 763:/home/cuil/workspace/arm/lm3s811/TI_Stellaris/driverlib/sysctl.c **** //! \b SYSCTL_PERIPH_GPIOK, \b SYSCTL_PERIPH_GPIOL, \b SYSCTL_PERIPH_GPIOM,
 764:/home/cuil/workspace/arm/lm3s811/TI_Stellaris/driverlib/sysctl.c **** //! \b SYSCTL_PERIPH_GPION, \b SYSCTL_PERIPH_GPIOP, \b SYSCTL_PERIPH_GPIOQ,
 765:/home/cuil/workspace/arm/lm3s811/TI_Stellaris/driverlib/sysctl.c **** //! \b SYSCTL_PERIPH_HIBERNATE, \b SYSCTL_PERIPH_I2C0, \b SYSCTL_PERIPH_I2C1,
 766:/home/cuil/workspace/arm/lm3s811/TI_Stellaris/driverlib/sysctl.c **** //! \b SYSCTL_PERIPH_I2C2, \b SYSCTL_PERIPH_I2C3, \b SYSCTL_PERIPH_I2C4,
 767:/home/cuil/workspace/arm/lm3s811/TI_Stellaris/driverlib/sysctl.c **** //! \b SYSCTL_PERIPH_I2C5, \b SYSCTL_PERIPH_I2S0, \b SYSCTL_PERIPH_LPC0,
 768:/home/cuil/workspace/arm/lm3s811/TI_Stellaris/driverlib/sysctl.c **** //! \b SYSCTL_PERIPH_PECI0, \b SYSCTL_PERIPH_PWM0, \b SYSCTL_PERIPH_PWM1,
 769:/home/cuil/workspace/arm/lm3s811/TI_Stellaris/driverlib/sysctl.c **** //! \b SYSCTL_PERIPH_QEI0, \b SYSCTL_PERIPH_QEI1, \b SYSCTL_PERIPH_SSI0,
 770:/home/cuil/workspace/arm/lm3s811/TI_Stellaris/driverlib/sysctl.c **** //! \b SYSCTL_PERIPH_SSI1, \b SYSCTL_PERIPH_SSI2, \b SYSCTL_PERIPH_SSI3,
 771:/home/cuil/workspace/arm/lm3s811/TI_Stellaris/driverlib/sysctl.c **** //! \b SYSCTL_PERIPH_TIMER0, \b SYSCTL_PERIPH_TIMER1, \b SYSCTL_PERIPH_TIMER2,
 772:/home/cuil/workspace/arm/lm3s811/TI_Stellaris/driverlib/sysctl.c **** //! \b SYSCTL_PERIPH_TIMER3, \b SYSCTL_PERIPH_TIMER4, \b SYSCTL_PERIPH_TIMER5,
 773:/home/cuil/workspace/arm/lm3s811/TI_Stellaris/driverlib/sysctl.c **** //! \b SYSCTL_PERIPH_UART0, \b SYSCTL_PERIPH_UART1, \b SYSCTL_PERIPH_UART2,
 774:/home/cuil/workspace/arm/lm3s811/TI_Stellaris/driverlib/sysctl.c **** //! \b SYSCTL_PERIPH_UART3, \b SYSCTL_PERIPH_UART4, \b SYSCTL_PERIPH_UART5,
 775:/home/cuil/workspace/arm/lm3s811/TI_Stellaris/driverlib/sysctl.c **** //! \b SYSCTL_PERIPH_UART6, \b SYSCTL_PERIPH_UART7, \b SYSCTL_PERIPH_UDMA,
 776:/home/cuil/workspace/arm/lm3s811/TI_Stellaris/driverlib/sysctl.c **** //! \b SYSCTL_PERIPH_USB0, \b SYSCTL_PERIPH_WDOG0, \b SYSCTL_PERIPH_WDOG1,
 777:/home/cuil/workspace/arm/lm3s811/TI_Stellaris/driverlib/sysctl.c **** //! \b SYSCTL_PERIPH_WTIMER0, \b SYSCTL_PERIPH_WTIMER1,
 778:/home/cuil/workspace/arm/lm3s811/TI_Stellaris/driverlib/sysctl.c **** //! \b SYSCTL_PERIPH_WTIMER2, \b SYSCTL_PERIPH_WTIMER3,
 779:/home/cuil/workspace/arm/lm3s811/TI_Stellaris/driverlib/sysctl.c **** //! \b SYSCTL_PERIPH_WTIMER4, or \b SYSCTL_PERIPH_WTIMER5.
 780:/home/cuil/workspace/arm/lm3s811/TI_Stellaris/driverlib/sysctl.c **** //!
 781:/home/cuil/workspace/arm/lm3s811/TI_Stellaris/driverlib/sysctl.c **** //! \return None.
 782:/home/cuil/workspace/arm/lm3s811/TI_Stellaris/driverlib/sysctl.c **** //
 783:/home/cuil/workspace/arm/lm3s811/TI_Stellaris/driverlib/sysctl.c **** //*****************************************************************************
 784:/home/cuil/workspace/arm/lm3s811/TI_Stellaris/driverlib/sysctl.c **** void
 785:/home/cuil/workspace/arm/lm3s811/TI_Stellaris/driverlib/sysctl.c **** SysCtlPeripheralReset(unsigned long ulPeripheral)
 786:/home/cuil/workspace/arm/lm3s811/TI_Stellaris/driverlib/sysctl.c **** {
 12081              		.loc 1 786 0
 12082              		.cfi_startproc
 12083              		@ args = 0, pretend = 0, frame = 16
 12084              		@ frame_needed = 1, uses_anonymous_args = 0
 12085              		@ link register save eliminated.
 12086 0000 80B4     		push	{r7}
 12087              	.LCFI22:
 12088              		.cfi_def_cfa_offset 4
 12089 0002 85B0     		sub	sp, sp, #20
 12090              	.LCFI23:
 12091              		.cfi_def_cfa_offset 24
 12092 0004 00AF     		add	r7, sp, #0
 12093              		.cfi_offset 7, -4
 12094              	.LCFI24:
 12095              		.cfi_def_cfa_register 7
 12096 0006 7860     		str	r0, [r7, #4]
 787:/home/cuil/workspace/arm/lm3s811/TI_Stellaris/driverlib/sysctl.c ****     volatile unsigned long ulDelay;
 788:/home/cuil/workspace/arm/lm3s811/TI_Stellaris/driverlib/sysctl.c **** 
 789:/home/cuil/workspace/arm/lm3s811/TI_Stellaris/driverlib/sysctl.c ****     //
 790:/home/cuil/workspace/arm/lm3s811/TI_Stellaris/driverlib/sysctl.c ****     // Check the arguments.
 791:/home/cuil/workspace/arm/lm3s811/TI_Stellaris/driverlib/sysctl.c ****     //
 792:/home/cuil/workspace/arm/lm3s811/TI_Stellaris/driverlib/sysctl.c ****     ASSERT(SysCtlPeripheralValid(ulPeripheral));
 793:/home/cuil/workspace/arm/lm3s811/TI_Stellaris/driverlib/sysctl.c **** 
 794:/home/cuil/workspace/arm/lm3s811/TI_Stellaris/driverlib/sysctl.c ****     //
 795:/home/cuil/workspace/arm/lm3s811/TI_Stellaris/driverlib/sysctl.c ****     // See if the peripheral index is 15, indicating a peripheral that is
 796:/home/cuil/workspace/arm/lm3s811/TI_Stellaris/driverlib/sysctl.c ****     // accessed via the SYSCTL_SRperiph registers.
 797:/home/cuil/workspace/arm/lm3s811/TI_Stellaris/driverlib/sysctl.c ****     //
 798:/home/cuil/workspace/arm/lm3s811/TI_Stellaris/driverlib/sysctl.c ****     if((ulPeripheral & 0xf0000000) == 0xf0000000)
 12097              		.loc 1 798 0
 12098 0008 7B68     		ldr	r3, [r7, #4]
 12099 000a 03F07043 		and	r3, r3, #-268435456
 12100 000e B3F1704F 		cmp	r3, #-268435456
 12101 0012 51D1     		bne	.L37
 799:/home/cuil/workspace/arm/lm3s811/TI_Stellaris/driverlib/sysctl.c ****     {
 800:/home/cuil/workspace/arm/lm3s811/TI_Stellaris/driverlib/sysctl.c ****         //
 801:/home/cuil/workspace/arm/lm3s811/TI_Stellaris/driverlib/sysctl.c ****         // Put the peripheral into the reset state.
 802:/home/cuil/workspace/arm/lm3s811/TI_Stellaris/driverlib/sysctl.c ****         //
 803:/home/cuil/workspace/arm/lm3s811/TI_Stellaris/driverlib/sysctl.c ****         HWREGBITW(SYSCTL_SRBASE + ((ulPeripheral & 0xff00) >> 8),
 12102              		.loc 1 803 0
 12103 0014 7B68     		ldr	r3, [r7, #4]
 12104 0016 03F47F43 		and	r3, r3, #65280
 12105 001a 4FEA1322 		lsr	r2, r3, #8
 12106 001e 4C4B     		ldr	r3, .L43
 12107 0020 D318     		adds	r3, r2, r3
 12108 0022 03F07042 		and	r2, r3, #-268435456
 12109 0026 7B68     		ldr	r3, [r7, #4]
 12110 0028 03F47F43 		and	r3, r3, #65280
 12111 002c 4FEA1321 		lsr	r1, r3, #8
 12112 0030 474B     		ldr	r3, .L43
 12113 0032 CB18     		adds	r3, r1, r3
 12114 0034 23F07F43 		bic	r3, r3, #-16777216
 12115 0038 23F47003 		bic	r3, r3, #15728640
 12116 003c 4FEA4313 		lsl	r3, r3, #5
 12117 0040 1A43     		orrs	r2, r2, r3
 12118 0042 7B68     		ldr	r3, [r7, #4]
 12119 0044 03F0FF03 		and	r3, r3, #255
 12120 0048 4FEA8303 		lsl	r3, r3, #2
 12121 004c 42EA0303 		orr	r3, r2, r3
 12122 0050 43F00073 		orr	r3, r3, #33554432
 804:/home/cuil/workspace/arm/lm3s811/TI_Stellaris/driverlib/sysctl.c ****                   ulPeripheral & 0xff) = 1;
 12123              		.loc 1 804 0
 12124 0054 4FF00102 		mov	r2, #1
 12125 0058 1A60     		str	r2, [r3, #0]
 805:/home/cuil/workspace/arm/lm3s811/TI_Stellaris/driverlib/sysctl.c **** 
 806:/home/cuil/workspace/arm/lm3s811/TI_Stellaris/driverlib/sysctl.c ****         //
 807:/home/cuil/workspace/arm/lm3s811/TI_Stellaris/driverlib/sysctl.c ****         // Delay for a little bit.
 808:/home/cuil/workspace/arm/lm3s811/TI_Stellaris/driverlib/sysctl.c ****         //
 809:/home/cuil/workspace/arm/lm3s811/TI_Stellaris/driverlib/sysctl.c ****         for(ulDelay = 0; ulDelay < 16; ulDelay++)
 12126              		.loc 1 809 0
 12127 005a 4FF00003 		mov	r3, #0
 12128 005e FB60     		str	r3, [r7, #12]
 12129 0060 03E0     		b	.L38
 12130              	.L39:
 12131              		.loc 1 809 0 is_stmt 0 discriminator 2
 12132 0062 FB68     		ldr	r3, [r7, #12]
 12133 0064 03F10103 		add	r3, r3, #1
 12134 0068 FB60     		str	r3, [r7, #12]
 12135              	.L38:
 12136              		.loc 1 809 0 discriminator 1
 12137 006a FB68     		ldr	r3, [r7, #12]
 12138 006c 0F2B     		cmp	r3, #15
 12139 006e F8D9     		bls	.L39
 810:/home/cuil/workspace/arm/lm3s811/TI_Stellaris/driverlib/sysctl.c ****         {
 811:/home/cuil/workspace/arm/lm3s811/TI_Stellaris/driverlib/sysctl.c ****         }
 812:/home/cuil/workspace/arm/lm3s811/TI_Stellaris/driverlib/sysctl.c **** 
 813:/home/cuil/workspace/arm/lm3s811/TI_Stellaris/driverlib/sysctl.c ****         //
 814:/home/cuil/workspace/arm/lm3s811/TI_Stellaris/driverlib/sysctl.c ****         // Take the peripheral out of the reset state.
 815:/home/cuil/workspace/arm/lm3s811/TI_Stellaris/driverlib/sysctl.c ****         //
 816:/home/cuil/workspace/arm/lm3s811/TI_Stellaris/driverlib/sysctl.c ****         HWREGBITW(SYSCTL_SRBASE + ((ulPeripheral & 0xff00) >> 8),
 12140              		.loc 1 816 0 is_stmt 1
 12141 0070 7B68     		ldr	r3, [r7, #4]
 12142 0072 03F47F43 		and	r3, r3, #65280
 12143 0076 4FEA1322 		lsr	r2, r3, #8
 12144 007a 354B     		ldr	r3, .L43
 12145 007c D318     		adds	r3, r2, r3
 12146 007e 03F07042 		and	r2, r3, #-268435456
 12147 0082 7B68     		ldr	r3, [r7, #4]
 12148 0084 03F47F43 		and	r3, r3, #65280
 12149 0088 4FEA1321 		lsr	r1, r3, #8
 12150 008c 304B     		ldr	r3, .L43
 12151 008e CB18     		adds	r3, r1, r3
 12152 0090 23F07F43 		bic	r3, r3, #-16777216
 12153 0094 23F47003 		bic	r3, r3, #15728640
 12154 0098 4FEA4313 		lsl	r3, r3, #5
 12155 009c 1A43     		orrs	r2, r2, r3
 12156 009e 7B68     		ldr	r3, [r7, #4]
 12157 00a0 03F0FF03 		and	r3, r3, #255
 12158 00a4 4FEA8303 		lsl	r3, r3, #2
 12159 00a8 42EA0303 		orr	r3, r2, r3
 12160 00ac 43F00073 		orr	r3, r3, #33554432
 817:/home/cuil/workspace/arm/lm3s811/TI_Stellaris/driverlib/sysctl.c ****                   ulPeripheral & 0xff) = 0;
 12161              		.loc 1 817 0
 12162 00b0 4FF00002 		mov	r2, #0
 12163 00b4 1A60     		str	r2, [r3, #0]
 12164 00b6 46E0     		b	.L36
 12165              	.L37:
 818:/home/cuil/workspace/arm/lm3s811/TI_Stellaris/driverlib/sysctl.c ****     }
 819:/home/cuil/workspace/arm/lm3s811/TI_Stellaris/driverlib/sysctl.c ****     else
 820:/home/cuil/workspace/arm/lm3s811/TI_Stellaris/driverlib/sysctl.c ****     {
 821:/home/cuil/workspace/arm/lm3s811/TI_Stellaris/driverlib/sysctl.c ****         //
 822:/home/cuil/workspace/arm/lm3s811/TI_Stellaris/driverlib/sysctl.c ****         // Put the peripheral into the reset state.
 823:/home/cuil/workspace/arm/lm3s811/TI_Stellaris/driverlib/sysctl.c ****         //
 824:/home/cuil/workspace/arm/lm3s811/TI_Stellaris/driverlib/sysctl.c ****         HWREG(g_pulSRCRRegs[SYSCTL_PERIPH_INDEX(ulPeripheral)]) |=
 12166              		.loc 1 824 0
 12167 00b8 7B68     		ldr	r3, [r7, #4]
 12168 00ba 4FEA1372 		lsr	r2, r3, #28
 12169 00be 254B     		ldr	r3, .L43+4
 12170 00c0 53F82230 		ldr	r3, [r3, r2, lsl #2]
 12171 00c4 1A46     		mov	r2, r3
 12172 00c6 7B68     		ldr	r3, [r7, #4]
 12173 00c8 4FEA1371 		lsr	r1, r3, #28
 12174 00cc 214B     		ldr	r3, .L43+4
 12175 00ce 53F82130 		ldr	r3, [r3, r1, lsl #2]
 12176 00d2 1968     		ldr	r1, [r3, #0]
 825:/home/cuil/workspace/arm/lm3s811/TI_Stellaris/driverlib/sysctl.c ****             SYSCTL_PERIPH_MASK(ulPeripheral);
 12177              		.loc 1 825 0
 12178 00d4 7B68     		ldr	r3, [r7, #4]
 12179 00d6 4FEA0343 		lsl	r3, r3, #16
 12180 00da 4FEA1343 		lsr	r3, r3, #16
 12181 00de 7868     		ldr	r0, [r7, #4]
 12182 00e0 00F4F810 		and	r0, r0, #2031616
 12183 00e4 4FEA1040 		lsr	r0, r0, #16
 12184 00e8 03FA00F3 		lsl	r3, r3, r0
 824:/home/cuil/workspace/arm/lm3s811/TI_Stellaris/driverlib/sysctl.c ****         HWREG(g_pulSRCRRegs[SYSCTL_PERIPH_INDEX(ulPeripheral)]) |=
 12185              		.loc 1 824 0
 12186 00ec 41EA0303 		orr	r3, r1, r3
 12187 00f0 1360     		str	r3, [r2, #0]
 826:/home/cuil/workspace/arm/lm3s811/TI_Stellaris/driverlib/sysctl.c **** 
 827:/home/cuil/workspace/arm/lm3s811/TI_Stellaris/driverlib/sysctl.c ****         //
 828:/home/cuil/workspace/arm/lm3s811/TI_Stellaris/driverlib/sysctl.c ****         // Delay for a little bit.
 829:/home/cuil/workspace/arm/lm3s811/TI_Stellaris/driverlib/sysctl.c ****         //
 830:/home/cuil/workspace/arm/lm3s811/TI_Stellaris/driverlib/sysctl.c ****         for(ulDelay = 0; ulDelay < 16; ulDelay++)
 12188              		.loc 1 830 0
 12189 00f2 4FF00003 		mov	r3, #0
 12190 00f6 FB60     		str	r3, [r7, #12]
 12191 00f8 03E0     		b	.L41
 12192              	.L42:
 12193              		.loc 1 830 0 is_stmt 0 discriminator 2
 12194 00fa FB68     		ldr	r3, [r7, #12]
 12195 00fc 03F10103 		add	r3, r3, #1
 12196 0100 FB60     		str	r3, [r7, #12]
 12197              	.L41:
 12198              		.loc 1 830 0 discriminator 1
 12199 0102 FB68     		ldr	r3, [r7, #12]
 12200 0104 0F2B     		cmp	r3, #15
 12201 0106 F8D9     		bls	.L42
 831:/home/cuil/workspace/arm/lm3s811/TI_Stellaris/driverlib/sysctl.c ****         {
 832:/home/cuil/workspace/arm/lm3s811/TI_Stellaris/driverlib/sysctl.c ****         }
 833:/home/cuil/workspace/arm/lm3s811/TI_Stellaris/driverlib/sysctl.c **** 
 834:/home/cuil/workspace/arm/lm3s811/TI_Stellaris/driverlib/sysctl.c ****         //
 835:/home/cuil/workspace/arm/lm3s811/TI_Stellaris/driverlib/sysctl.c ****         // Take the peripheral out of the reset state.
 836:/home/cuil/workspace/arm/lm3s811/TI_Stellaris/driverlib/sysctl.c ****         //
 837:/home/cuil/workspace/arm/lm3s811/TI_Stellaris/driverlib/sysctl.c ****         HWREG(g_pulSRCRRegs[SYSCTL_PERIPH_INDEX(ulPeripheral)]) &=
 12202              		.loc 1 837 0 is_stmt 1
 12203 0108 7B68     		ldr	r3, [r7, #4]
 12204 010a 4FEA1372 		lsr	r2, r3, #28
 12205 010e 114B     		ldr	r3, .L43+4
 12206 0110 53F82230 		ldr	r3, [r3, r2, lsl #2]
 12207 0114 1A46     		mov	r2, r3
 12208 0116 7B68     		ldr	r3, [r7, #4]
 12209 0118 4FEA1371 		lsr	r1, r3, #28
 12210 011c 0D4B     		ldr	r3, .L43+4
 12211 011e 53F82130 		ldr	r3, [r3, r1, lsl #2]
 12212 0122 1968     		ldr	r1, [r3, #0]
 838:/home/cuil/workspace/arm/lm3s811/TI_Stellaris/driverlib/sysctl.c ****             ~SYSCTL_PERIPH_MASK(ulPeripheral);
 12213              		.loc 1 838 0
 12214 0124 7B68     		ldr	r3, [r7, #4]
 12215 0126 4FEA0343 		lsl	r3, r3, #16
 12216 012a 4FEA1343 		lsr	r3, r3, #16
 12217 012e 7868     		ldr	r0, [r7, #4]
 12218 0130 00F4F810 		and	r0, r0, #2031616
 12219 0134 4FEA1040 		lsr	r0, r0, #16
 12220 0138 03FA00F3 		lsl	r3, r3, r0
 12221 013c 6FEA0303 		mvn	r3, r3
 837:/home/cuil/workspace/arm/lm3s811/TI_Stellaris/driverlib/sysctl.c ****         HWREG(g_pulSRCRRegs[SYSCTL_PERIPH_INDEX(ulPeripheral)]) &=
 12222              		.loc 1 837 0
 12223 0140 01EA0303 		and	r3, r1, r3
 12224 0144 1360     		str	r3, [r2, #0]
 12225              	.L36:
 839:/home/cuil/workspace/arm/lm3s811/TI_Stellaris/driverlib/sysctl.c ****     }
 840:/home/cuil/workspace/arm/lm3s811/TI_Stellaris/driverlib/sysctl.c **** }
 12226              		.loc 1 840 0
 12227 0146 07F11407 		add	r7, r7, #20
 12228 014a BD46     		mov	sp, r7
 12229 014c 80BC     		pop	{r7}
 12230 014e 7047     		bx	lr
 12231              	.L44:
 12232              		.align	2
 12233              	.L43:
 12234 0150 00E50F40 		.word	1074783488
 12235 0154 10000000 		.word	g_pulSRCRRegs
 12236              		.cfi_endproc
 12237              	.LFE8:
 12239              		.section	.text.SysCtlPeripheralEnable,"ax",%progbits
 12240              		.align	2
 12241              		.global	SysCtlPeripheralEnable
 12242              		.thumb
 12243              		.thumb_func
 12245              	SysCtlPeripheralEnable:
 12246              	.LFB9:
 841:/home/cuil/workspace/arm/lm3s811/TI_Stellaris/driverlib/sysctl.c **** 
 842:/home/cuil/workspace/arm/lm3s811/TI_Stellaris/driverlib/sysctl.c **** //*****************************************************************************
 843:/home/cuil/workspace/arm/lm3s811/TI_Stellaris/driverlib/sysctl.c **** //
 844:/home/cuil/workspace/arm/lm3s811/TI_Stellaris/driverlib/sysctl.c **** //! Enables a peripheral.
 845:/home/cuil/workspace/arm/lm3s811/TI_Stellaris/driverlib/sysctl.c **** //!
 846:/home/cuil/workspace/arm/lm3s811/TI_Stellaris/driverlib/sysctl.c **** //! \param ulPeripheral is the peripheral to enable.
 847:/home/cuil/workspace/arm/lm3s811/TI_Stellaris/driverlib/sysctl.c **** //!
 848:/home/cuil/workspace/arm/lm3s811/TI_Stellaris/driverlib/sysctl.c **** //! This function enables peripherals.  At power-up, all peripherals
 849:/home/cuil/workspace/arm/lm3s811/TI_Stellaris/driverlib/sysctl.c **** //! are disabled; they must be enabled in order to operate or respond to
 850:/home/cuil/workspace/arm/lm3s811/TI_Stellaris/driverlib/sysctl.c **** //! register reads/writes.
 851:/home/cuil/workspace/arm/lm3s811/TI_Stellaris/driverlib/sysctl.c **** //!
 852:/home/cuil/workspace/arm/lm3s811/TI_Stellaris/driverlib/sysctl.c **** //! The \e ulPeripheral parameter must be only one of the following values:
 853:/home/cuil/workspace/arm/lm3s811/TI_Stellaris/driverlib/sysctl.c **** //! \b SYSCTL_PERIPH_ADC0, \b SYSCTL_PERIPH_ADC1, \b SYSCTL_PERIPH_CAN0,
 854:/home/cuil/workspace/arm/lm3s811/TI_Stellaris/driverlib/sysctl.c **** //! \b SYSCTL_PERIPH_CAN1, \b SYSCTL_PERIPH_CAN2, \b SYSCTL_PERIPH_COMP0,
 855:/home/cuil/workspace/arm/lm3s811/TI_Stellaris/driverlib/sysctl.c **** //! \b SYSCTL_PERIPH_COMP1, \b SYSCTL_PERIPH_COMP2, \b SYSCTL_PERIPH_EEPROM0,
 856:/home/cuil/workspace/arm/lm3s811/TI_Stellaris/driverlib/sysctl.c **** //! \b SYSCTL_PERIPH_EPI0, \b SYSCTL_PERIPH_ETH, \b SYSCTL_PERIPH_FAN0,
 857:/home/cuil/workspace/arm/lm3s811/TI_Stellaris/driverlib/sysctl.c **** //! \b SYSCTL_PERIPH_GPIOA, \b SYSCTL_PERIPH_GPIOB, \b SYSCTL_PERIPH_GPIOC,
 858:/home/cuil/workspace/arm/lm3s811/TI_Stellaris/driverlib/sysctl.c **** //! \b SYSCTL_PERIPH_GPIOD, \b SYSCTL_PERIPH_GPIOE, \b SYSCTL_PERIPH_GPIOF,
 859:/home/cuil/workspace/arm/lm3s811/TI_Stellaris/driverlib/sysctl.c **** //! \b SYSCTL_PERIPH_GPIOG, \b SYSCTL_PERIPH_GPIOH, \b SYSCTL_PERIPH_GPIOJ,
 860:/home/cuil/workspace/arm/lm3s811/TI_Stellaris/driverlib/sysctl.c **** //! \b SYSCTL_PERIPH_GPIOK, \b SYSCTL_PERIPH_GPIOL, \b SYSCTL_PERIPH_GPIOM,
 861:/home/cuil/workspace/arm/lm3s811/TI_Stellaris/driverlib/sysctl.c **** //! \b SYSCTL_PERIPH_GPION, \b SYSCTL_PERIPH_GPIOP, \b SYSCTL_PERIPH_GPIOQ,
 862:/home/cuil/workspace/arm/lm3s811/TI_Stellaris/driverlib/sysctl.c **** //! \b SYSCTL_PERIPH_HIBERNATE, \b SYSCTL_PERIPH_I2C0, \b SYSCTL_PERIPH_I2C1,
 863:/home/cuil/workspace/arm/lm3s811/TI_Stellaris/driverlib/sysctl.c **** //! \b SYSCTL_PERIPH_I2C2, \b SYSCTL_PERIPH_I2C3, \b SYSCTL_PERIPH_I2C4,
 864:/home/cuil/workspace/arm/lm3s811/TI_Stellaris/driverlib/sysctl.c **** //! \b SYSCTL_PERIPH_I2C5, \b SYSCTL_PERIPH_I2S0, \b SYSCTL_PERIPH_LPC0,
 865:/home/cuil/workspace/arm/lm3s811/TI_Stellaris/driverlib/sysctl.c **** //! \b SYSCTL_PERIPH_PECI0, \b SYSCTL_PERIPH_PWM0, \b SYSCTL_PERIPH_PWM1,
 866:/home/cuil/workspace/arm/lm3s811/TI_Stellaris/driverlib/sysctl.c **** //! \b SYSCTL_PERIPH_QEI0, \b SYSCTL_PERIPH_QEI1, \b SYSCTL_PERIPH_SSI0,
 867:/home/cuil/workspace/arm/lm3s811/TI_Stellaris/driverlib/sysctl.c **** //! \b SYSCTL_PERIPH_SSI1, \b SYSCTL_PERIPH_SSI2, \b SYSCTL_PERIPH_SSI3,
 868:/home/cuil/workspace/arm/lm3s811/TI_Stellaris/driverlib/sysctl.c **** //! \b SYSCTL_PERIPH_TIMER0, \b SYSCTL_PERIPH_TIMER1, \b SYSCTL_PERIPH_TIMER2,
 869:/home/cuil/workspace/arm/lm3s811/TI_Stellaris/driverlib/sysctl.c **** //! \b SYSCTL_PERIPH_TIMER3, \b SYSCTL_PERIPH_TIMER4, \b SYSCTL_PERIPH_TIMER5,
 870:/home/cuil/workspace/arm/lm3s811/TI_Stellaris/driverlib/sysctl.c **** //! \b SYSCTL_PERIPH_UART0, \b SYSCTL_PERIPH_UART1, \b SYSCTL_PERIPH_UART2,
 871:/home/cuil/workspace/arm/lm3s811/TI_Stellaris/driverlib/sysctl.c **** //! \b SYSCTL_PERIPH_UART3, \b SYSCTL_PERIPH_UART4, \b SYSCTL_PERIPH_UART5,
 872:/home/cuil/workspace/arm/lm3s811/TI_Stellaris/driverlib/sysctl.c **** //! \b SYSCTL_PERIPH_UART6, \b SYSCTL_PERIPH_UART7, \b SYSCTL_PERIPH_UDMA,
 873:/home/cuil/workspace/arm/lm3s811/TI_Stellaris/driverlib/sysctl.c **** //! \b SYSCTL_PERIPH_USB0, \b SYSCTL_PERIPH_WDOG0, \b SYSCTL_PERIPH_WDOG1,
 874:/home/cuil/workspace/arm/lm3s811/TI_Stellaris/driverlib/sysctl.c **** //! \b SYSCTL_PERIPH_WTIMER0, \b SYSCTL_PERIPH_WTIMER1,
 875:/home/cuil/workspace/arm/lm3s811/TI_Stellaris/driverlib/sysctl.c **** //! \b SYSCTL_PERIPH_WTIMER2, \b SYSCTL_PERIPH_WTIMER3,
 876:/home/cuil/workspace/arm/lm3s811/TI_Stellaris/driverlib/sysctl.c **** //! \b SYSCTL_PERIPH_WTIMER4, or \b SYSCTL_PERIPH_WTIMER5.
 877:/home/cuil/workspace/arm/lm3s811/TI_Stellaris/driverlib/sysctl.c **** //!
 878:/home/cuil/workspace/arm/lm3s811/TI_Stellaris/driverlib/sysctl.c **** //! \note It takes five clock cycles after the write to enable a peripheral
 879:/home/cuil/workspace/arm/lm3s811/TI_Stellaris/driverlib/sysctl.c **** //! before the the peripheral is actually enabled.  During this time, attempts
 880:/home/cuil/workspace/arm/lm3s811/TI_Stellaris/driverlib/sysctl.c **** //! to access the peripheral result in a bus fault.  Care should be taken
 881:/home/cuil/workspace/arm/lm3s811/TI_Stellaris/driverlib/sysctl.c **** //! to ensure that the peripheral is not accessed during this brief time
 882:/home/cuil/workspace/arm/lm3s811/TI_Stellaris/driverlib/sysctl.c **** //! period.
 883:/home/cuil/workspace/arm/lm3s811/TI_Stellaris/driverlib/sysctl.c **** //!
 884:/home/cuil/workspace/arm/lm3s811/TI_Stellaris/driverlib/sysctl.c **** //! \return None.
 885:/home/cuil/workspace/arm/lm3s811/TI_Stellaris/driverlib/sysctl.c **** //
 886:/home/cuil/workspace/arm/lm3s811/TI_Stellaris/driverlib/sysctl.c **** //*****************************************************************************
 887:/home/cuil/workspace/arm/lm3s811/TI_Stellaris/driverlib/sysctl.c **** void
 888:/home/cuil/workspace/arm/lm3s811/TI_Stellaris/driverlib/sysctl.c **** SysCtlPeripheralEnable(unsigned long ulPeripheral)
 889:/home/cuil/workspace/arm/lm3s811/TI_Stellaris/driverlib/sysctl.c **** {
 12247              		.loc 1 889 0
 12248              		.cfi_startproc
 12249              		@ args = 0, pretend = 0, frame = 8
 12250              		@ frame_needed = 1, uses_anonymous_args = 0
 12251              		@ link register save eliminated.
 12252 0000 80B4     		push	{r7}
 12253              	.LCFI25:
 12254              		.cfi_def_cfa_offset 4
 12255 0002 83B0     		sub	sp, sp, #12
 12256              	.LCFI26:
 12257              		.cfi_def_cfa_offset 16
 12258 0004 00AF     		add	r7, sp, #0
 12259              		.cfi_offset 7, -4
 12260              	.LCFI27:
 12261              		.cfi_def_cfa_register 7
 12262 0006 7860     		str	r0, [r7, #4]
 890:/home/cuil/workspace/arm/lm3s811/TI_Stellaris/driverlib/sysctl.c ****     //
 891:/home/cuil/workspace/arm/lm3s811/TI_Stellaris/driverlib/sysctl.c ****     // Check the arguments.
 892:/home/cuil/workspace/arm/lm3s811/TI_Stellaris/driverlib/sysctl.c ****     //
 893:/home/cuil/workspace/arm/lm3s811/TI_Stellaris/driverlib/sysctl.c ****     ASSERT(SysCtlPeripheralValid(ulPeripheral));
 894:/home/cuil/workspace/arm/lm3s811/TI_Stellaris/driverlib/sysctl.c **** 
 895:/home/cuil/workspace/arm/lm3s811/TI_Stellaris/driverlib/sysctl.c ****     //
 896:/home/cuil/workspace/arm/lm3s811/TI_Stellaris/driverlib/sysctl.c ****     // See if the peripheral index is 15, indicating a peripheral that is
 897:/home/cuil/workspace/arm/lm3s811/TI_Stellaris/driverlib/sysctl.c ****     // accessed via the SYSCTL_RCGCperiph registers.
 898:/home/cuil/workspace/arm/lm3s811/TI_Stellaris/driverlib/sysctl.c ****     //
 899:/home/cuil/workspace/arm/lm3s811/TI_Stellaris/driverlib/sysctl.c ****     if((ulPeripheral & 0xf0000000) == 0xf0000000)
 12263              		.loc 1 899 0
 12264 0008 7B68     		ldr	r3, [r7, #4]
 12265 000a 03F07043 		and	r3, r3, #-268435456
 12266 000e B3F1704F 		cmp	r3, #-268435456
 12267 0012 23D1     		bne	.L46
 900:/home/cuil/workspace/arm/lm3s811/TI_Stellaris/driverlib/sysctl.c ****     {
 901:/home/cuil/workspace/arm/lm3s811/TI_Stellaris/driverlib/sysctl.c ****         //
 902:/home/cuil/workspace/arm/lm3s811/TI_Stellaris/driverlib/sysctl.c ****         // Enable this peripheral.
 903:/home/cuil/workspace/arm/lm3s811/TI_Stellaris/driverlib/sysctl.c ****         //
 904:/home/cuil/workspace/arm/lm3s811/TI_Stellaris/driverlib/sysctl.c ****         HWREGBITW(SYSCTL_RCGCBASE + ((ulPeripheral & 0xff00) >> 8),
 12268              		.loc 1 904 0
 12269 0014 7B68     		ldr	r3, [r7, #4]
 12270 0016 03F47F43 		and	r3, r3, #65280
 12271 001a 4FEA1322 		lsr	r2, r3, #8
 12272 001e 204B     		ldr	r3, .L48
 12273 0020 D318     		adds	r3, r2, r3
 12274 0022 03F07042 		and	r2, r3, #-268435456
 12275 0026 7B68     		ldr	r3, [r7, #4]
 12276 0028 03F47F43 		and	r3, r3, #65280
 12277 002c 4FEA1321 		lsr	r1, r3, #8
 12278 0030 1B4B     		ldr	r3, .L48
 12279 0032 CB18     		adds	r3, r1, r3
 12280 0034 23F07F43 		bic	r3, r3, #-16777216
 12281 0038 23F47003 		bic	r3, r3, #15728640
 12282 003c 4FEA4313 		lsl	r3, r3, #5
 12283 0040 1A43     		orrs	r2, r2, r3
 12284 0042 7B68     		ldr	r3, [r7, #4]
 12285 0044 03F0FF03 		and	r3, r3, #255
 12286 0048 4FEA8303 		lsl	r3, r3, #2
 12287 004c 42EA0303 		orr	r3, r2, r3
 12288 0050 43F00073 		orr	r3, r3, #33554432
 905:/home/cuil/workspace/arm/lm3s811/TI_Stellaris/driverlib/sysctl.c ****                   ulPeripheral & 0xff) = 1;
 12289              		.loc 1 905 0
 12290 0054 4FF00102 		mov	r2, #1
 12291 0058 1A60     		str	r2, [r3, #0]
 12292 005a 1CE0     		b	.L45
 12293              	.L46:
 906:/home/cuil/workspace/arm/lm3s811/TI_Stellaris/driverlib/sysctl.c ****     }
 907:/home/cuil/workspace/arm/lm3s811/TI_Stellaris/driverlib/sysctl.c ****     else
 908:/home/cuil/workspace/arm/lm3s811/TI_Stellaris/driverlib/sysctl.c ****     {
 909:/home/cuil/workspace/arm/lm3s811/TI_Stellaris/driverlib/sysctl.c ****         //
 910:/home/cuil/workspace/arm/lm3s811/TI_Stellaris/driverlib/sysctl.c ****         // Enable this peripheral.
 911:/home/cuil/workspace/arm/lm3s811/TI_Stellaris/driverlib/sysctl.c ****         //
 912:/home/cuil/workspace/arm/lm3s811/TI_Stellaris/driverlib/sysctl.c ****         HWREG(g_pulRCGCRegs[SYSCTL_PERIPH_INDEX(ulPeripheral)]) |=
 12294              		.loc 1 912 0
 12295 005c 7B68     		ldr	r3, [r7, #4]
 12296 005e 4FEA1372 		lsr	r2, r3, #28
 12297 0062 104B     		ldr	r3, .L48+4
 12298 0064 53F82230 		ldr	r3, [r3, r2, lsl #2]
 12299 0068 1A46     		mov	r2, r3
 12300 006a 7B68     		ldr	r3, [r7, #4]
 12301 006c 4FEA1371 		lsr	r1, r3, #28
 12302 0070 0C4B     		ldr	r3, .L48+4
 12303 0072 53F82130 		ldr	r3, [r3, r1, lsl #2]
 12304 0076 1968     		ldr	r1, [r3, #0]
 913:/home/cuil/workspace/arm/lm3s811/TI_Stellaris/driverlib/sysctl.c ****             SYSCTL_PERIPH_MASK(ulPeripheral);
 12305              		.loc 1 913 0
 12306 0078 7B68     		ldr	r3, [r7, #4]
 12307 007a 4FEA0343 		lsl	r3, r3, #16
 12308 007e 4FEA1343 		lsr	r3, r3, #16
 12309 0082 7868     		ldr	r0, [r7, #4]
 12310 0084 00F4F810 		and	r0, r0, #2031616
 12311 0088 4FEA1040 		lsr	r0, r0, #16
 12312 008c 03FA00F3 		lsl	r3, r3, r0
 912:/home/cuil/workspace/arm/lm3s811/TI_Stellaris/driverlib/sysctl.c ****         HWREG(g_pulRCGCRegs[SYSCTL_PERIPH_INDEX(ulPeripheral)]) |=
 12313              		.loc 1 912 0
 12314 0090 41EA0303 		orr	r3, r1, r3
 12315 0094 1360     		str	r3, [r2, #0]
 12316              	.L45:
 914:/home/cuil/workspace/arm/lm3s811/TI_Stellaris/driverlib/sysctl.c ****     }
 915:/home/cuil/workspace/arm/lm3s811/TI_Stellaris/driverlib/sysctl.c **** }
 12317              		.loc 1 915 0
 12318 0096 07F10C07 		add	r7, r7, #12
 12319 009a BD46     		mov	sp, r7
 12320 009c 80BC     		pop	{r7}
 12321 009e 7047     		bx	lr
 12322              	.L49:
 12323              		.align	2
 12324              	.L48:
 12325 00a0 00E60F40 		.word	1074783744
 12326 00a4 1C000000 		.word	g_pulRCGCRegs
 12327              		.cfi_endproc
 12328              	.LFE9:
 12330              		.section	.text.SysCtlPeripheralDisable,"ax",%progbits
 12331              		.align	2
 12332              		.global	SysCtlPeripheralDisable
 12333              		.thumb
 12334              		.thumb_func
 12336              	SysCtlPeripheralDisable:
 12337              	.LFB10:
 916:/home/cuil/workspace/arm/lm3s811/TI_Stellaris/driverlib/sysctl.c **** 
 917:/home/cuil/workspace/arm/lm3s811/TI_Stellaris/driverlib/sysctl.c **** //*****************************************************************************
 918:/home/cuil/workspace/arm/lm3s811/TI_Stellaris/driverlib/sysctl.c **** //
 919:/home/cuil/workspace/arm/lm3s811/TI_Stellaris/driverlib/sysctl.c **** //! Disables a peripheral.
 920:/home/cuil/workspace/arm/lm3s811/TI_Stellaris/driverlib/sysctl.c **** //!
 921:/home/cuil/workspace/arm/lm3s811/TI_Stellaris/driverlib/sysctl.c **** //! \param ulPeripheral is the peripheral to disable.
 922:/home/cuil/workspace/arm/lm3s811/TI_Stellaris/driverlib/sysctl.c **** //!
 923:/home/cuil/workspace/arm/lm3s811/TI_Stellaris/driverlib/sysctl.c **** //! This function disables peripherals are disabled with this function.  Once 
 924:/home/cuil/workspace/arm/lm3s811/TI_Stellaris/driverlib/sysctl.c **** //! disabled, they do not operate or respond to register reads/writes.
 925:/home/cuil/workspace/arm/lm3s811/TI_Stellaris/driverlib/sysctl.c **** //!
 926:/home/cuil/workspace/arm/lm3s811/TI_Stellaris/driverlib/sysctl.c **** //! The \e ulPeripheral parameter must be only one of the following values:
 927:/home/cuil/workspace/arm/lm3s811/TI_Stellaris/driverlib/sysctl.c **** //! \b SYSCTL_PERIPH_ADC0, \b SYSCTL_PERIPH_ADC1, \b SYSCTL_PERIPH_CAN0,
 928:/home/cuil/workspace/arm/lm3s811/TI_Stellaris/driverlib/sysctl.c **** //! \b SYSCTL_PERIPH_CAN1, \b SYSCTL_PERIPH_CAN2, \b SYSCTL_PERIPH_COMP0,
 929:/home/cuil/workspace/arm/lm3s811/TI_Stellaris/driverlib/sysctl.c **** //! \b SYSCTL_PERIPH_COMP1, \b SYSCTL_PERIPH_COMP2, \b SYSCTL_PERIPH_EEPROM0,
 930:/home/cuil/workspace/arm/lm3s811/TI_Stellaris/driverlib/sysctl.c **** //! \b SYSCTL_PERIPH_EPI0, \b SYSCTL_PERIPH_ETH, \b SYSCTL_PERIPH_FAN0,
 931:/home/cuil/workspace/arm/lm3s811/TI_Stellaris/driverlib/sysctl.c **** //! \b SYSCTL_PERIPH_GPIOA, \b SYSCTL_PERIPH_GPIOB, \b SYSCTL_PERIPH_GPIOC,
 932:/home/cuil/workspace/arm/lm3s811/TI_Stellaris/driverlib/sysctl.c **** //! \b SYSCTL_PERIPH_GPIOD, \b SYSCTL_PERIPH_GPIOE, \b SYSCTL_PERIPH_GPIOF,
 933:/home/cuil/workspace/arm/lm3s811/TI_Stellaris/driverlib/sysctl.c **** //! \b SYSCTL_PERIPH_GPIOG, \b SYSCTL_PERIPH_GPIOH, \b SYSCTL_PERIPH_GPIOJ,
 934:/home/cuil/workspace/arm/lm3s811/TI_Stellaris/driverlib/sysctl.c **** //! \b SYSCTL_PERIPH_GPIOK, \b SYSCTL_PERIPH_GPIOL, \b SYSCTL_PERIPH_GPIOM,
 935:/home/cuil/workspace/arm/lm3s811/TI_Stellaris/driverlib/sysctl.c **** //! \b SYSCTL_PERIPH_GPION, \b SYSCTL_PERIPH_GPIOP, \b SYSCTL_PERIPH_GPIOQ,
 936:/home/cuil/workspace/arm/lm3s811/TI_Stellaris/driverlib/sysctl.c **** //! \b SYSCTL_PERIPH_HIBERNATE, \b SYSCTL_PERIPH_I2C0, \b SYSCTL_PERIPH_I2C1,
 937:/home/cuil/workspace/arm/lm3s811/TI_Stellaris/driverlib/sysctl.c **** //! \b SYSCTL_PERIPH_I2C2, \b SYSCTL_PERIPH_I2C3, \b SYSCTL_PERIPH_I2C4,
 938:/home/cuil/workspace/arm/lm3s811/TI_Stellaris/driverlib/sysctl.c **** //! \b SYSCTL_PERIPH_I2C5, \b SYSCTL_PERIPH_I2S0, \b SYSCTL_PERIPH_LPC0,
 939:/home/cuil/workspace/arm/lm3s811/TI_Stellaris/driverlib/sysctl.c **** //! \b SYSCTL_PERIPH_PECI0, \b SYSCTL_PERIPH_PWM0, \b SYSCTL_PERIPH_PWM1,
 940:/home/cuil/workspace/arm/lm3s811/TI_Stellaris/driverlib/sysctl.c **** //! \b SYSCTL_PERIPH_QEI0, \b SYSCTL_PERIPH_QEI1, \b SYSCTL_PERIPH_SSI0,
 941:/home/cuil/workspace/arm/lm3s811/TI_Stellaris/driverlib/sysctl.c **** //! \b SYSCTL_PERIPH_SSI1, \b SYSCTL_PERIPH_SSI2, \b SYSCTL_PERIPH_SSI3,
 942:/home/cuil/workspace/arm/lm3s811/TI_Stellaris/driverlib/sysctl.c **** //! \b SYSCTL_PERIPH_TIMER0, \b SYSCTL_PERIPH_TIMER1, \b SYSCTL_PERIPH_TIMER2,
 943:/home/cuil/workspace/arm/lm3s811/TI_Stellaris/driverlib/sysctl.c **** //! \b SYSCTL_PERIPH_TIMER3, \b SYSCTL_PERIPH_TIMER4, \b SYSCTL_PERIPH_TIMER5,
 944:/home/cuil/workspace/arm/lm3s811/TI_Stellaris/driverlib/sysctl.c **** //! \b SYSCTL_PERIPH_UART0, \b SYSCTL_PERIPH_UART1, \b SYSCTL_PERIPH_UART2,
 945:/home/cuil/workspace/arm/lm3s811/TI_Stellaris/driverlib/sysctl.c **** //! \b SYSCTL_PERIPH_UART3, \b SYSCTL_PERIPH_UART4, \b SYSCTL_PERIPH_UART5,
 946:/home/cuil/workspace/arm/lm3s811/TI_Stellaris/driverlib/sysctl.c **** //! \b SYSCTL_PERIPH_UART6, \b SYSCTL_PERIPH_UART7, \b SYSCTL_PERIPH_UDMA,
 947:/home/cuil/workspace/arm/lm3s811/TI_Stellaris/driverlib/sysctl.c **** //! \b SYSCTL_PERIPH_USB0, \b SYSCTL_PERIPH_WDOG0, \b SYSCTL_PERIPH_WDOG1,
 948:/home/cuil/workspace/arm/lm3s811/TI_Stellaris/driverlib/sysctl.c **** //! \b SYSCTL_PERIPH_WTIMER0, \b SYSCTL_PERIPH_WTIMER1,
 949:/home/cuil/workspace/arm/lm3s811/TI_Stellaris/driverlib/sysctl.c **** //! \b SYSCTL_PERIPH_WTIMER2, \b SYSCTL_PERIPH_WTIMER3,
 950:/home/cuil/workspace/arm/lm3s811/TI_Stellaris/driverlib/sysctl.c **** //! \b SYSCTL_PERIPH_WTIMER4, or \b SYSCTL_PERIPH_WTIMER5.
 951:/home/cuil/workspace/arm/lm3s811/TI_Stellaris/driverlib/sysctl.c **** //!
 952:/home/cuil/workspace/arm/lm3s811/TI_Stellaris/driverlib/sysctl.c **** //! \return None.
 953:/home/cuil/workspace/arm/lm3s811/TI_Stellaris/driverlib/sysctl.c **** //
 954:/home/cuil/workspace/arm/lm3s811/TI_Stellaris/driverlib/sysctl.c **** //*****************************************************************************
 955:/home/cuil/workspace/arm/lm3s811/TI_Stellaris/driverlib/sysctl.c **** void
 956:/home/cuil/workspace/arm/lm3s811/TI_Stellaris/driverlib/sysctl.c **** SysCtlPeripheralDisable(unsigned long ulPeripheral)
 957:/home/cuil/workspace/arm/lm3s811/TI_Stellaris/driverlib/sysctl.c **** {
 12338              		.loc 1 957 0
 12339              		.cfi_startproc
 12340              		@ args = 0, pretend = 0, frame = 8
 12341              		@ frame_needed = 1, uses_anonymous_args = 0
 12342              		@ link register save eliminated.
 12343 0000 80B4     		push	{r7}
 12344              	.LCFI28:
 12345              		.cfi_def_cfa_offset 4
 12346 0002 83B0     		sub	sp, sp, #12
 12347              	.LCFI29:
 12348              		.cfi_def_cfa_offset 16
 12349 0004 00AF     		add	r7, sp, #0
 12350              		.cfi_offset 7, -4
 12351              	.LCFI30:
 12352              		.cfi_def_cfa_register 7
 12353 0006 7860     		str	r0, [r7, #4]
 958:/home/cuil/workspace/arm/lm3s811/TI_Stellaris/driverlib/sysctl.c ****     //
 959:/home/cuil/workspace/arm/lm3s811/TI_Stellaris/driverlib/sysctl.c ****     // Check the arguments.
 960:/home/cuil/workspace/arm/lm3s811/TI_Stellaris/driverlib/sysctl.c ****     //
 961:/home/cuil/workspace/arm/lm3s811/TI_Stellaris/driverlib/sysctl.c ****     ASSERT(SysCtlPeripheralValid(ulPeripheral));
 962:/home/cuil/workspace/arm/lm3s811/TI_Stellaris/driverlib/sysctl.c **** 
 963:/home/cuil/workspace/arm/lm3s811/TI_Stellaris/driverlib/sysctl.c ****     //
 964:/home/cuil/workspace/arm/lm3s811/TI_Stellaris/driverlib/sysctl.c ****     // See if the peripheral index is 15, indicating a peripheral that is
 965:/home/cuil/workspace/arm/lm3s811/TI_Stellaris/driverlib/sysctl.c ****     // accessed via the SYSCTL_RCGCperiph registers.
 966:/home/cuil/workspace/arm/lm3s811/TI_Stellaris/driverlib/sysctl.c ****     //
 967:/home/cuil/workspace/arm/lm3s811/TI_Stellaris/driverlib/sysctl.c ****     if((ulPeripheral & 0xf0000000) == 0xf0000000)
 12354              		.loc 1 967 0
 12355 0008 7B68     		ldr	r3, [r7, #4]
 12356 000a 03F07043 		and	r3, r3, #-268435456
 12357 000e B3F1704F 		cmp	r3, #-268435456
 12358 0012 23D1     		bne	.L51
 968:/home/cuil/workspace/arm/lm3s811/TI_Stellaris/driverlib/sysctl.c ****     {
 969:/home/cuil/workspace/arm/lm3s811/TI_Stellaris/driverlib/sysctl.c ****         //
 970:/home/cuil/workspace/arm/lm3s811/TI_Stellaris/driverlib/sysctl.c ****         // Disable this peripheral.
 971:/home/cuil/workspace/arm/lm3s811/TI_Stellaris/driverlib/sysctl.c ****         //
 972:/home/cuil/workspace/arm/lm3s811/TI_Stellaris/driverlib/sysctl.c ****         HWREGBITW(SYSCTL_RCGCBASE + ((ulPeripheral & 0xff00) >> 8),
 12359              		.loc 1 972 0
 12360 0014 7B68     		ldr	r3, [r7, #4]
 12361 0016 03F47F43 		and	r3, r3, #65280
 12362 001a 4FEA1322 		lsr	r2, r3, #8
 12363 001e 214B     		ldr	r3, .L53
 12364 0020 D318     		adds	r3, r2, r3
 12365 0022 03F07042 		and	r2, r3, #-268435456
 12366 0026 7B68     		ldr	r3, [r7, #4]
 12367 0028 03F47F43 		and	r3, r3, #65280
 12368 002c 4FEA1321 		lsr	r1, r3, #8
 12369 0030 1C4B     		ldr	r3, .L53
 12370 0032 CB18     		adds	r3, r1, r3
 12371 0034 23F07F43 		bic	r3, r3, #-16777216
 12372 0038 23F47003 		bic	r3, r3, #15728640
 12373 003c 4FEA4313 		lsl	r3, r3, #5
 12374 0040 1A43     		orrs	r2, r2, r3
 12375 0042 7B68     		ldr	r3, [r7, #4]
 12376 0044 03F0FF03 		and	r3, r3, #255
 12377 0048 4FEA8303 		lsl	r3, r3, #2
 12378 004c 42EA0303 		orr	r3, r2, r3
 12379 0050 43F00073 		orr	r3, r3, #33554432
 973:/home/cuil/workspace/arm/lm3s811/TI_Stellaris/driverlib/sysctl.c ****                   ulPeripheral & 0xff) = 0;
 12380              		.loc 1 973 0
 12381 0054 4FF00002 		mov	r2, #0
 12382 0058 1A60     		str	r2, [r3, #0]
 12383 005a 1EE0     		b	.L50
 12384              	.L51:
 974:/home/cuil/workspace/arm/lm3s811/TI_Stellaris/driverlib/sysctl.c ****     }
 975:/home/cuil/workspace/arm/lm3s811/TI_Stellaris/driverlib/sysctl.c ****     else
 976:/home/cuil/workspace/arm/lm3s811/TI_Stellaris/driverlib/sysctl.c ****     {
 977:/home/cuil/workspace/arm/lm3s811/TI_Stellaris/driverlib/sysctl.c ****         //
 978:/home/cuil/workspace/arm/lm3s811/TI_Stellaris/driverlib/sysctl.c ****         // Disable this peripheral.
 979:/home/cuil/workspace/arm/lm3s811/TI_Stellaris/driverlib/sysctl.c ****         //
 980:/home/cuil/workspace/arm/lm3s811/TI_Stellaris/driverlib/sysctl.c ****         HWREG(g_pulRCGCRegs[SYSCTL_PERIPH_INDEX(ulPeripheral)]) &=
 12385              		.loc 1 980 0
 12386 005c 7B68     		ldr	r3, [r7, #4]
 12387 005e 4FEA1372 		lsr	r2, r3, #28
 12388 0062 114B     		ldr	r3, .L53+4
 12389 0064 53F82230 		ldr	r3, [r3, r2, lsl #2]
 12390 0068 1A46     		mov	r2, r3
 12391 006a 7B68     		ldr	r3, [r7, #4]
 12392 006c 4FEA1371 		lsr	r1, r3, #28
 12393 0070 0D4B     		ldr	r3, .L53+4
 12394 0072 53F82130 		ldr	r3, [r3, r1, lsl #2]
 12395 0076 1968     		ldr	r1, [r3, #0]
 981:/home/cuil/workspace/arm/lm3s811/TI_Stellaris/driverlib/sysctl.c ****             ~SYSCTL_PERIPH_MASK(ulPeripheral);
 12396              		.loc 1 981 0
 12397 0078 7B68     		ldr	r3, [r7, #4]
 12398 007a 4FEA0343 		lsl	r3, r3, #16
 12399 007e 4FEA1343 		lsr	r3, r3, #16
 12400 0082 7868     		ldr	r0, [r7, #4]
 12401 0084 00F4F810 		and	r0, r0, #2031616
 12402 0088 4FEA1040 		lsr	r0, r0, #16
 12403 008c 03FA00F3 		lsl	r3, r3, r0
 12404 0090 6FEA0303 		mvn	r3, r3
 980:/home/cuil/workspace/arm/lm3s811/TI_Stellaris/driverlib/sysctl.c ****         HWREG(g_pulRCGCRegs[SYSCTL_PERIPH_INDEX(ulPeripheral)]) &=
 12405              		.loc 1 980 0
 12406 0094 01EA0303 		and	r3, r1, r3
 12407 0098 1360     		str	r3, [r2, #0]
 12408              	.L50:
 982:/home/cuil/workspace/arm/lm3s811/TI_Stellaris/driverlib/sysctl.c ****     }
 983:/home/cuil/workspace/arm/lm3s811/TI_Stellaris/driverlib/sysctl.c **** }
 12409              		.loc 1 983 0
 12410 009a 07F10C07 		add	r7, r7, #12
 12411 009e BD46     		mov	sp, r7
 12412 00a0 80BC     		pop	{r7}
 12413 00a2 7047     		bx	lr
 12414              	.L54:
 12415              		.align	2
 12416              	.L53:
 12417 00a4 00E60F40 		.word	1074783744
 12418 00a8 1C000000 		.word	g_pulRCGCRegs
 12419              		.cfi_endproc
 12420              	.LFE10:
 12422              		.section	.text.SysCtlPeripheralSleepEnable,"ax",%progbits
 12423              		.align	2
 12424              		.global	SysCtlPeripheralSleepEnable
 12425              		.thumb
 12426              		.thumb_func
 12428              	SysCtlPeripheralSleepEnable:
 12429              	.LFB11:
 984:/home/cuil/workspace/arm/lm3s811/TI_Stellaris/driverlib/sysctl.c **** 
 985:/home/cuil/workspace/arm/lm3s811/TI_Stellaris/driverlib/sysctl.c **** //*****************************************************************************
 986:/home/cuil/workspace/arm/lm3s811/TI_Stellaris/driverlib/sysctl.c **** //
 987:/home/cuil/workspace/arm/lm3s811/TI_Stellaris/driverlib/sysctl.c **** //! Enables a peripheral in sleep mode.
 988:/home/cuil/workspace/arm/lm3s811/TI_Stellaris/driverlib/sysctl.c **** //!
 989:/home/cuil/workspace/arm/lm3s811/TI_Stellaris/driverlib/sysctl.c **** //! \param ulPeripheral is the peripheral to enable in sleep mode.
 990:/home/cuil/workspace/arm/lm3s811/TI_Stellaris/driverlib/sysctl.c **** //!
 991:/home/cuil/workspace/arm/lm3s811/TI_Stellaris/driverlib/sysctl.c **** //! This function allows a peripheral to continue operating when the processor
 992:/home/cuil/workspace/arm/lm3s811/TI_Stellaris/driverlib/sysctl.c **** //! goes into sleep mode.  Because the clocking configuration of the device 
 993:/home/cuil/workspace/arm/lm3s811/TI_Stellaris/driverlib/sysctl.c **** //! does not change, any peripheral can safely continue operating while the
 994:/home/cuil/workspace/arm/lm3s811/TI_Stellaris/driverlib/sysctl.c **** //! processor is in sleep mode and can therefore wake the processor from sleep
 995:/home/cuil/workspace/arm/lm3s811/TI_Stellaris/driverlib/sysctl.c **** //! mode.
 996:/home/cuil/workspace/arm/lm3s811/TI_Stellaris/driverlib/sysctl.c **** //!
 997:/home/cuil/workspace/arm/lm3s811/TI_Stellaris/driverlib/sysctl.c **** //! Sleep mode clocking of peripherals must be enabled via
 998:/home/cuil/workspace/arm/lm3s811/TI_Stellaris/driverlib/sysctl.c **** //! SysCtlPeripheralClockGating(); if disabled, the peripheral sleep mode
 999:/home/cuil/workspace/arm/lm3s811/TI_Stellaris/driverlib/sysctl.c **** //! configuration is maintained but has no effect when sleep mode is entered.
1000:/home/cuil/workspace/arm/lm3s811/TI_Stellaris/driverlib/sysctl.c **** //!
1001:/home/cuil/workspace/arm/lm3s811/TI_Stellaris/driverlib/sysctl.c **** //! The \e ulPeripheral parameter must be only one of the following values:
1002:/home/cuil/workspace/arm/lm3s811/TI_Stellaris/driverlib/sysctl.c **** //! \b SYSCTL_PERIPH_ADC0, \b SYSCTL_PERIPH_ADC1, \b SYSCTL_PERIPH_CAN0,
1003:/home/cuil/workspace/arm/lm3s811/TI_Stellaris/driverlib/sysctl.c **** //! \b SYSCTL_PERIPH_CAN1, \b SYSCTL_PERIPH_CAN2, \b SYSCTL_PERIPH_COMP0,
1004:/home/cuil/workspace/arm/lm3s811/TI_Stellaris/driverlib/sysctl.c **** //! \b SYSCTL_PERIPH_COMP1, \b SYSCTL_PERIPH_COMP2, \b SYSCTL_PERIPH_EEPROM0,
1005:/home/cuil/workspace/arm/lm3s811/TI_Stellaris/driverlib/sysctl.c **** //! \b SYSCTL_PERIPH_EPI0, \b SYSCTL_PERIPH_ETH, \b SYSCTL_PERIPH_FAN0,
1006:/home/cuil/workspace/arm/lm3s811/TI_Stellaris/driverlib/sysctl.c **** //! \b SYSCTL_PERIPH_GPIOA, \b SYSCTL_PERIPH_GPIOB, \b SYSCTL_PERIPH_GPIOC,
1007:/home/cuil/workspace/arm/lm3s811/TI_Stellaris/driverlib/sysctl.c **** //! \b SYSCTL_PERIPH_GPIOD, \b SYSCTL_PERIPH_GPIOE, \b SYSCTL_PERIPH_GPIOF,
1008:/home/cuil/workspace/arm/lm3s811/TI_Stellaris/driverlib/sysctl.c **** //! \b SYSCTL_PERIPH_GPIOG, \b SYSCTL_PERIPH_GPIOH, \b SYSCTL_PERIPH_GPIOJ,
1009:/home/cuil/workspace/arm/lm3s811/TI_Stellaris/driverlib/sysctl.c **** //! \b SYSCTL_PERIPH_GPIOK, \b SYSCTL_PERIPH_GPIOL, \b SYSCTL_PERIPH_GPIOM,
1010:/home/cuil/workspace/arm/lm3s811/TI_Stellaris/driverlib/sysctl.c **** //! \b SYSCTL_PERIPH_GPION, \b SYSCTL_PERIPH_GPIOP, \b SYSCTL_PERIPH_GPIOQ,
1011:/home/cuil/workspace/arm/lm3s811/TI_Stellaris/driverlib/sysctl.c **** //! \b SYSCTL_PERIPH_HIBERNATE, \b SYSCTL_PERIPH_I2C0, \b SYSCTL_PERIPH_I2C1,
1012:/home/cuil/workspace/arm/lm3s811/TI_Stellaris/driverlib/sysctl.c **** //! \b SYSCTL_PERIPH_I2C2, \b SYSCTL_PERIPH_I2C3, \b SYSCTL_PERIPH_I2C4,
1013:/home/cuil/workspace/arm/lm3s811/TI_Stellaris/driverlib/sysctl.c **** //! \b SYSCTL_PERIPH_I2C5, \b SYSCTL_PERIPH_I2S0, \b SYSCTL_PERIPH_LPC0,
1014:/home/cuil/workspace/arm/lm3s811/TI_Stellaris/driverlib/sysctl.c **** //! \b SYSCTL_PERIPH_PECI0, \b SYSCTL_PERIPH_PWM0, \b SYSCTL_PERIPH_PWM1,
1015:/home/cuil/workspace/arm/lm3s811/TI_Stellaris/driverlib/sysctl.c **** //! \b SYSCTL_PERIPH_QEI0, \b SYSCTL_PERIPH_QEI1, \b SYSCTL_PERIPH_SSI0,
1016:/home/cuil/workspace/arm/lm3s811/TI_Stellaris/driverlib/sysctl.c **** //! \b SYSCTL_PERIPH_SSI1, \b SYSCTL_PERIPH_SSI2, \b SYSCTL_PERIPH_SSI3,
1017:/home/cuil/workspace/arm/lm3s811/TI_Stellaris/driverlib/sysctl.c **** //! \b SYSCTL_PERIPH_TIMER0, \b SYSCTL_PERIPH_TIMER1, \b SYSCTL_PERIPH_TIMER2,
1018:/home/cuil/workspace/arm/lm3s811/TI_Stellaris/driverlib/sysctl.c **** //! \b SYSCTL_PERIPH_TIMER3, \b SYSCTL_PERIPH_TIMER4, \b SYSCTL_PERIPH_TIMER5,
1019:/home/cuil/workspace/arm/lm3s811/TI_Stellaris/driverlib/sysctl.c **** //! \b SYSCTL_PERIPH_UART0, \b SYSCTL_PERIPH_UART1, \b SYSCTL_PERIPH_UART2,
1020:/home/cuil/workspace/arm/lm3s811/TI_Stellaris/driverlib/sysctl.c **** //! \b SYSCTL_PERIPH_UART3, \b SYSCTL_PERIPH_UART4, \b SYSCTL_PERIPH_UART5,
1021:/home/cuil/workspace/arm/lm3s811/TI_Stellaris/driverlib/sysctl.c **** //! \b SYSCTL_PERIPH_UART6, \b SYSCTL_PERIPH_UART7, \b SYSCTL_PERIPH_UDMA,
1022:/home/cuil/workspace/arm/lm3s811/TI_Stellaris/driverlib/sysctl.c **** //! \b SYSCTL_PERIPH_USB0, \b SYSCTL_PERIPH_WDOG0, \b SYSCTL_PERIPH_WDOG1,
1023:/home/cuil/workspace/arm/lm3s811/TI_Stellaris/driverlib/sysctl.c **** //! \b SYSCTL_PERIPH_WTIMER0, \b SYSCTL_PERIPH_WTIMER1,
1024:/home/cuil/workspace/arm/lm3s811/TI_Stellaris/driverlib/sysctl.c **** //! \b SYSCTL_PERIPH_WTIMER2, \b SYSCTL_PERIPH_WTIMER3,
1025:/home/cuil/workspace/arm/lm3s811/TI_Stellaris/driverlib/sysctl.c **** //! \b SYSCTL_PERIPH_WTIMER4, or \b SYSCTL_PERIPH_WTIMER5.
1026:/home/cuil/workspace/arm/lm3s811/TI_Stellaris/driverlib/sysctl.c **** //!
1027:/home/cuil/workspace/arm/lm3s811/TI_Stellaris/driverlib/sysctl.c **** //! \return None.
1028:/home/cuil/workspace/arm/lm3s811/TI_Stellaris/driverlib/sysctl.c **** //
1029:/home/cuil/workspace/arm/lm3s811/TI_Stellaris/driverlib/sysctl.c **** //*****************************************************************************
1030:/home/cuil/workspace/arm/lm3s811/TI_Stellaris/driverlib/sysctl.c **** void
1031:/home/cuil/workspace/arm/lm3s811/TI_Stellaris/driverlib/sysctl.c **** SysCtlPeripheralSleepEnable(unsigned long ulPeripheral)
1032:/home/cuil/workspace/arm/lm3s811/TI_Stellaris/driverlib/sysctl.c **** {
 12430              		.loc 1 1032 0
 12431              		.cfi_startproc
 12432              		@ args = 0, pretend = 0, frame = 8
 12433              		@ frame_needed = 1, uses_anonymous_args = 0
 12434              		@ link register save eliminated.
 12435 0000 80B4     		push	{r7}
 12436              	.LCFI31:
 12437              		.cfi_def_cfa_offset 4
 12438 0002 83B0     		sub	sp, sp, #12
 12439              	.LCFI32:
 12440              		.cfi_def_cfa_offset 16
 12441 0004 00AF     		add	r7, sp, #0
 12442              		.cfi_offset 7, -4
 12443              	.LCFI33:
 12444              		.cfi_def_cfa_register 7
 12445 0006 7860     		str	r0, [r7, #4]
1033:/home/cuil/workspace/arm/lm3s811/TI_Stellaris/driverlib/sysctl.c ****     //
1034:/home/cuil/workspace/arm/lm3s811/TI_Stellaris/driverlib/sysctl.c ****     // Check the arguments.
1035:/home/cuil/workspace/arm/lm3s811/TI_Stellaris/driverlib/sysctl.c ****     //
1036:/home/cuil/workspace/arm/lm3s811/TI_Stellaris/driverlib/sysctl.c ****     ASSERT(SysCtlPeripheralValid(ulPeripheral));
1037:/home/cuil/workspace/arm/lm3s811/TI_Stellaris/driverlib/sysctl.c **** 
1038:/home/cuil/workspace/arm/lm3s811/TI_Stellaris/driverlib/sysctl.c ****     //
1039:/home/cuil/workspace/arm/lm3s811/TI_Stellaris/driverlib/sysctl.c ****     // See if the peripheral index is 15, indicating a peripheral that is
1040:/home/cuil/workspace/arm/lm3s811/TI_Stellaris/driverlib/sysctl.c ****     // accessed via the SYSCTL_SCGCperiph registers.
1041:/home/cuil/workspace/arm/lm3s811/TI_Stellaris/driverlib/sysctl.c ****     //
1042:/home/cuil/workspace/arm/lm3s811/TI_Stellaris/driverlib/sysctl.c ****     if((ulPeripheral & 0xf0000000) == 0xf0000000)
 12446              		.loc 1 1042 0
 12447 0008 7B68     		ldr	r3, [r7, #4]
 12448 000a 03F07043 		and	r3, r3, #-268435456
 12449 000e B3F1704F 		cmp	r3, #-268435456
 12450 0012 23D1     		bne	.L56
1043:/home/cuil/workspace/arm/lm3s811/TI_Stellaris/driverlib/sysctl.c ****     {
1044:/home/cuil/workspace/arm/lm3s811/TI_Stellaris/driverlib/sysctl.c ****         //
1045:/home/cuil/workspace/arm/lm3s811/TI_Stellaris/driverlib/sysctl.c ****         // Enable this peripheral in sleep mode.
1046:/home/cuil/workspace/arm/lm3s811/TI_Stellaris/driverlib/sysctl.c ****         //
1047:/home/cuil/workspace/arm/lm3s811/TI_Stellaris/driverlib/sysctl.c ****         HWREGBITW(SYSCTL_SCGCBASE + ((ulPeripheral & 0xff00) >> 8),
 12451              		.loc 1 1047 0
 12452 0014 7B68     		ldr	r3, [r7, #4]
 12453 0016 03F47F43 		and	r3, r3, #65280
 12454 001a 4FEA1322 		lsr	r2, r3, #8
 12455 001e 204B     		ldr	r3, .L58
 12456 0020 D318     		adds	r3, r2, r3
 12457 0022 03F07042 		and	r2, r3, #-268435456
 12458 0026 7B68     		ldr	r3, [r7, #4]
 12459 0028 03F47F43 		and	r3, r3, #65280
 12460 002c 4FEA1321 		lsr	r1, r3, #8
 12461 0030 1B4B     		ldr	r3, .L58
 12462 0032 CB18     		adds	r3, r1, r3
 12463 0034 23F07F43 		bic	r3, r3, #-16777216
 12464 0038 23F47003 		bic	r3, r3, #15728640
 12465 003c 4FEA4313 		lsl	r3, r3, #5
 12466 0040 1A43     		orrs	r2, r2, r3
 12467 0042 7B68     		ldr	r3, [r7, #4]
 12468 0044 03F0FF03 		and	r3, r3, #255
 12469 0048 4FEA8303 		lsl	r3, r3, #2
 12470 004c 42EA0303 		orr	r3, r2, r3
 12471 0050 43F00073 		orr	r3, r3, #33554432
1048:/home/cuil/workspace/arm/lm3s811/TI_Stellaris/driverlib/sysctl.c ****                   ulPeripheral & 0xff) = 1;
 12472              		.loc 1 1048 0
 12473 0054 4FF00102 		mov	r2, #1
 12474 0058 1A60     		str	r2, [r3, #0]
 12475 005a 1CE0     		b	.L55
 12476              	.L56:
1049:/home/cuil/workspace/arm/lm3s811/TI_Stellaris/driverlib/sysctl.c ****     }
1050:/home/cuil/workspace/arm/lm3s811/TI_Stellaris/driverlib/sysctl.c ****     else
1051:/home/cuil/workspace/arm/lm3s811/TI_Stellaris/driverlib/sysctl.c ****     {
1052:/home/cuil/workspace/arm/lm3s811/TI_Stellaris/driverlib/sysctl.c ****         //
1053:/home/cuil/workspace/arm/lm3s811/TI_Stellaris/driverlib/sysctl.c ****         // Enable this peripheral in sleep mode.
1054:/home/cuil/workspace/arm/lm3s811/TI_Stellaris/driverlib/sysctl.c ****         //
1055:/home/cuil/workspace/arm/lm3s811/TI_Stellaris/driverlib/sysctl.c ****         HWREG(g_pulSCGCRegs[SYSCTL_PERIPH_INDEX(ulPeripheral)]) |=
 12477              		.loc 1 1055 0
 12478 005c 7B68     		ldr	r3, [r7, #4]
 12479 005e 4FEA1372 		lsr	r2, r3, #28
 12480 0062 104B     		ldr	r3, .L58+4
 12481 0064 53F82230 		ldr	r3, [r3, r2, lsl #2]
 12482 0068 1A46     		mov	r2, r3
 12483 006a 7B68     		ldr	r3, [r7, #4]
 12484 006c 4FEA1371 		lsr	r1, r3, #28
 12485 0070 0C4B     		ldr	r3, .L58+4
 12486 0072 53F82130 		ldr	r3, [r3, r1, lsl #2]
 12487 0076 1968     		ldr	r1, [r3, #0]
1056:/home/cuil/workspace/arm/lm3s811/TI_Stellaris/driverlib/sysctl.c ****             SYSCTL_PERIPH_MASK(ulPeripheral);
 12488              		.loc 1 1056 0
 12489 0078 7B68     		ldr	r3, [r7, #4]
 12490 007a 4FEA0343 		lsl	r3, r3, #16
 12491 007e 4FEA1343 		lsr	r3, r3, #16
 12492 0082 7868     		ldr	r0, [r7, #4]
 12493 0084 00F4F810 		and	r0, r0, #2031616
 12494 0088 4FEA1040 		lsr	r0, r0, #16
 12495 008c 03FA00F3 		lsl	r3, r3, r0
1055:/home/cuil/workspace/arm/lm3s811/TI_Stellaris/driverlib/sysctl.c ****         HWREG(g_pulSCGCRegs[SYSCTL_PERIPH_INDEX(ulPeripheral)]) |=
 12496              		.loc 1 1055 0
 12497 0090 41EA0303 		orr	r3, r1, r3
 12498 0094 1360     		str	r3, [r2, #0]
 12499              	.L55:
1057:/home/cuil/workspace/arm/lm3s811/TI_Stellaris/driverlib/sysctl.c ****     }
1058:/home/cuil/workspace/arm/lm3s811/TI_Stellaris/driverlib/sysctl.c **** }
 12500              		.loc 1 1058 0
 12501 0096 07F10C07 		add	r7, r7, #12
 12502 009a BD46     		mov	sp, r7
 12503 009c 80BC     		pop	{r7}
 12504 009e 7047     		bx	lr
 12505              	.L59:
 12506              		.align	2
 12507              	.L58:
 12508 00a0 00E70F40 		.word	1074784000
 12509 00a4 28000000 		.word	g_pulSCGCRegs
 12510              		.cfi_endproc
 12511              	.LFE11:
 12513              		.section	.text.SysCtlPeripheralSleepDisable,"ax",%progbits
 12514              		.align	2
 12515              		.global	SysCtlPeripheralSleepDisable
 12516              		.thumb
 12517              		.thumb_func
 12519              	SysCtlPeripheralSleepDisable:
 12520              	.LFB12:
1059:/home/cuil/workspace/arm/lm3s811/TI_Stellaris/driverlib/sysctl.c **** 
1060:/home/cuil/workspace/arm/lm3s811/TI_Stellaris/driverlib/sysctl.c **** //*****************************************************************************
1061:/home/cuil/workspace/arm/lm3s811/TI_Stellaris/driverlib/sysctl.c **** //
1062:/home/cuil/workspace/arm/lm3s811/TI_Stellaris/driverlib/sysctl.c **** //! Disables a peripheral in sleep mode.
1063:/home/cuil/workspace/arm/lm3s811/TI_Stellaris/driverlib/sysctl.c **** //!
1064:/home/cuil/workspace/arm/lm3s811/TI_Stellaris/driverlib/sysctl.c **** //! \param ulPeripheral is the peripheral to disable in sleep mode.
1065:/home/cuil/workspace/arm/lm3s811/TI_Stellaris/driverlib/sysctl.c **** //!
1066:/home/cuil/workspace/arm/lm3s811/TI_Stellaris/driverlib/sysctl.c **** //! This function causes a peripheral to stop operating when the processor goes
1067:/home/cuil/workspace/arm/lm3s811/TI_Stellaris/driverlib/sysctl.c **** //! into sleep mode.  Disabling peripherals while in sleep mode helps to lower
1068:/home/cuil/workspace/arm/lm3s811/TI_Stellaris/driverlib/sysctl.c **** //! the current draw of the device.  If enabled (via SysCtlPeripheralEnable()),
1069:/home/cuil/workspace/arm/lm3s811/TI_Stellaris/driverlib/sysctl.c **** //! the peripheral automatically resumes operation when the processor
1070:/home/cuil/workspace/arm/lm3s811/TI_Stellaris/driverlib/sysctl.c **** //! leaves sleep mode, maintaining its entire state from before sleep mode was
1071:/home/cuil/workspace/arm/lm3s811/TI_Stellaris/driverlib/sysctl.c **** //! entered.
1072:/home/cuil/workspace/arm/lm3s811/TI_Stellaris/driverlib/sysctl.c **** //!
1073:/home/cuil/workspace/arm/lm3s811/TI_Stellaris/driverlib/sysctl.c **** //! Sleep mode clocking of peripherals must be enabled via
1074:/home/cuil/workspace/arm/lm3s811/TI_Stellaris/driverlib/sysctl.c **** //! SysCtlPeripheralClockGating(); if disabled, the peripheral sleep mode
1075:/home/cuil/workspace/arm/lm3s811/TI_Stellaris/driverlib/sysctl.c **** //! configuration is maintained but has no effect when sleep mode is entered.
1076:/home/cuil/workspace/arm/lm3s811/TI_Stellaris/driverlib/sysctl.c **** //!
1077:/home/cuil/workspace/arm/lm3s811/TI_Stellaris/driverlib/sysctl.c **** //! The \e ulPeripheral parameter must be only one of the following values:
1078:/home/cuil/workspace/arm/lm3s811/TI_Stellaris/driverlib/sysctl.c **** //! \b SYSCTL_PERIPH_ADC0, \b SYSCTL_PERIPH_ADC1, \b SYSCTL_PERIPH_CAN0,
1079:/home/cuil/workspace/arm/lm3s811/TI_Stellaris/driverlib/sysctl.c **** //! \b SYSCTL_PERIPH_CAN1, \b SYSCTL_PERIPH_CAN2, \b SYSCTL_PERIPH_COMP0,
1080:/home/cuil/workspace/arm/lm3s811/TI_Stellaris/driverlib/sysctl.c **** //! \b SYSCTL_PERIPH_COMP1, \b SYSCTL_PERIPH_COMP2, \b SYSCTL_PERIPH_EEPROM0,
1081:/home/cuil/workspace/arm/lm3s811/TI_Stellaris/driverlib/sysctl.c **** //! \b SYSCTL_PERIPH_EPI0, \b SYSCTL_PERIPH_ETH, \b SYSCTL_PERIPH_FAN0,
1082:/home/cuil/workspace/arm/lm3s811/TI_Stellaris/driverlib/sysctl.c **** //! \b SYSCTL_PERIPH_GPIOA, \b SYSCTL_PERIPH_GPIOB, \b SYSCTL_PERIPH_GPIOC,
1083:/home/cuil/workspace/arm/lm3s811/TI_Stellaris/driverlib/sysctl.c **** //! \b SYSCTL_PERIPH_GPIOD, \b SYSCTL_PERIPH_GPIOE, \b SYSCTL_PERIPH_GPIOF,
1084:/home/cuil/workspace/arm/lm3s811/TI_Stellaris/driverlib/sysctl.c **** //! \b SYSCTL_PERIPH_GPIOG, \b SYSCTL_PERIPH_GPIOH, \b SYSCTL_PERIPH_GPIOJ,
1085:/home/cuil/workspace/arm/lm3s811/TI_Stellaris/driverlib/sysctl.c **** //! \b SYSCTL_PERIPH_GPIOK, \b SYSCTL_PERIPH_GPIOL, \b SYSCTL_PERIPH_GPIOM,
1086:/home/cuil/workspace/arm/lm3s811/TI_Stellaris/driverlib/sysctl.c **** //! \b SYSCTL_PERIPH_GPION, \b SYSCTL_PERIPH_GPIOP, \b SYSCTL_PERIPH_GPIOQ,
1087:/home/cuil/workspace/arm/lm3s811/TI_Stellaris/driverlib/sysctl.c **** //! \b SYSCTL_PERIPH_HIBERNATE, \b SYSCTL_PERIPH_I2C0, \b SYSCTL_PERIPH_I2C1,
1088:/home/cuil/workspace/arm/lm3s811/TI_Stellaris/driverlib/sysctl.c **** //! \b SYSCTL_PERIPH_I2C2, \b SYSCTL_PERIPH_I2C3, \b SYSCTL_PERIPH_I2C4,
1089:/home/cuil/workspace/arm/lm3s811/TI_Stellaris/driverlib/sysctl.c **** //! \b SYSCTL_PERIPH_I2C5, \b SYSCTL_PERIPH_I2S0, \b SYSCTL_PERIPH_LPC0,
1090:/home/cuil/workspace/arm/lm3s811/TI_Stellaris/driverlib/sysctl.c **** //! \b SYSCTL_PERIPH_PECI0, \b SYSCTL_PERIPH_PWM0, \b SYSCTL_PERIPH_PWM1,
1091:/home/cuil/workspace/arm/lm3s811/TI_Stellaris/driverlib/sysctl.c **** //! \b SYSCTL_PERIPH_QEI0, \b SYSCTL_PERIPH_QEI1, \b SYSCTL_PERIPH_SSI0,
1092:/home/cuil/workspace/arm/lm3s811/TI_Stellaris/driverlib/sysctl.c **** //! \b SYSCTL_PERIPH_SSI1, \b SYSCTL_PERIPH_SSI2, \b SYSCTL_PERIPH_SSI3,
1093:/home/cuil/workspace/arm/lm3s811/TI_Stellaris/driverlib/sysctl.c **** //! \b SYSCTL_PERIPH_TIMER0, \b SYSCTL_PERIPH_TIMER1, \b SYSCTL_PERIPH_TIMER2,
1094:/home/cuil/workspace/arm/lm3s811/TI_Stellaris/driverlib/sysctl.c **** //! \b SYSCTL_PERIPH_TIMER3, \b SYSCTL_PERIPH_TIMER4, \b SYSCTL_PERIPH_TIMER5,
1095:/home/cuil/workspace/arm/lm3s811/TI_Stellaris/driverlib/sysctl.c **** //! \b SYSCTL_PERIPH_UART0, \b SYSCTL_PERIPH_UART1, \b SYSCTL_PERIPH_UART2,
1096:/home/cuil/workspace/arm/lm3s811/TI_Stellaris/driverlib/sysctl.c **** //! \b SYSCTL_PERIPH_UART3, \b SYSCTL_PERIPH_UART4, \b SYSCTL_PERIPH_UART5,
1097:/home/cuil/workspace/arm/lm3s811/TI_Stellaris/driverlib/sysctl.c **** //! \b SYSCTL_PERIPH_UART6, \b SYSCTL_PERIPH_UART7, \b SYSCTL_PERIPH_UDMA,
1098:/home/cuil/workspace/arm/lm3s811/TI_Stellaris/driverlib/sysctl.c **** //! \b SYSCTL_PERIPH_USB0, \b SYSCTL_PERIPH_WDOG0, \b SYSCTL_PERIPH_WDOG1,
1099:/home/cuil/workspace/arm/lm3s811/TI_Stellaris/driverlib/sysctl.c **** //! \b SYSCTL_PERIPH_WTIMER0, \b SYSCTL_PERIPH_WTIMER1,
1100:/home/cuil/workspace/arm/lm3s811/TI_Stellaris/driverlib/sysctl.c **** //! \b SYSCTL_PERIPH_WTIMER2, \b SYSCTL_PERIPH_WTIMER3,
1101:/home/cuil/workspace/arm/lm3s811/TI_Stellaris/driverlib/sysctl.c **** //! \b SYSCTL_PERIPH_WTIMER4, or \b SYSCTL_PERIPH_WTIMER5.
1102:/home/cuil/workspace/arm/lm3s811/TI_Stellaris/driverlib/sysctl.c **** //!
1103:/home/cuil/workspace/arm/lm3s811/TI_Stellaris/driverlib/sysctl.c **** //! \return None.
1104:/home/cuil/workspace/arm/lm3s811/TI_Stellaris/driverlib/sysctl.c **** //
1105:/home/cuil/workspace/arm/lm3s811/TI_Stellaris/driverlib/sysctl.c **** //*****************************************************************************
1106:/home/cuil/workspace/arm/lm3s811/TI_Stellaris/driverlib/sysctl.c **** void
1107:/home/cuil/workspace/arm/lm3s811/TI_Stellaris/driverlib/sysctl.c **** SysCtlPeripheralSleepDisable(unsigned long ulPeripheral)
1108:/home/cuil/workspace/arm/lm3s811/TI_Stellaris/driverlib/sysctl.c **** {
 12521              		.loc 1 1108 0
 12522              		.cfi_startproc
 12523              		@ args = 0, pretend = 0, frame = 8
 12524              		@ frame_needed = 1, uses_anonymous_args = 0
 12525              		@ link register save eliminated.
 12526 0000 80B4     		push	{r7}
 12527              	.LCFI34:
 12528              		.cfi_def_cfa_offset 4
 12529 0002 83B0     		sub	sp, sp, #12
 12530              	.LCFI35:
 12531              		.cfi_def_cfa_offset 16
 12532 0004 00AF     		add	r7, sp, #0
 12533              		.cfi_offset 7, -4
 12534              	.LCFI36:
 12535              		.cfi_def_cfa_register 7
 12536 0006 7860     		str	r0, [r7, #4]
1109:/home/cuil/workspace/arm/lm3s811/TI_Stellaris/driverlib/sysctl.c ****     //
1110:/home/cuil/workspace/arm/lm3s811/TI_Stellaris/driverlib/sysctl.c ****     // Check the arguments.
1111:/home/cuil/workspace/arm/lm3s811/TI_Stellaris/driverlib/sysctl.c ****     //
1112:/home/cuil/workspace/arm/lm3s811/TI_Stellaris/driverlib/sysctl.c ****     ASSERT(SysCtlPeripheralValid(ulPeripheral));
1113:/home/cuil/workspace/arm/lm3s811/TI_Stellaris/driverlib/sysctl.c **** 
1114:/home/cuil/workspace/arm/lm3s811/TI_Stellaris/driverlib/sysctl.c ****     //
1115:/home/cuil/workspace/arm/lm3s811/TI_Stellaris/driverlib/sysctl.c ****     // See if the peripheral index is 15, indicating a peripheral that is
1116:/home/cuil/workspace/arm/lm3s811/TI_Stellaris/driverlib/sysctl.c ****     // accessed via the SYSCTL_SCGCperiph registers.
1117:/home/cuil/workspace/arm/lm3s811/TI_Stellaris/driverlib/sysctl.c ****     //
1118:/home/cuil/workspace/arm/lm3s811/TI_Stellaris/driverlib/sysctl.c ****     if((ulPeripheral & 0xf0000000) == 0xf0000000)
 12537              		.loc 1 1118 0
 12538 0008 7B68     		ldr	r3, [r7, #4]
 12539 000a 03F07043 		and	r3, r3, #-268435456
 12540 000e B3F1704F 		cmp	r3, #-268435456
 12541 0012 23D1     		bne	.L61
1119:/home/cuil/workspace/arm/lm3s811/TI_Stellaris/driverlib/sysctl.c ****     {
1120:/home/cuil/workspace/arm/lm3s811/TI_Stellaris/driverlib/sysctl.c ****         //
1121:/home/cuil/workspace/arm/lm3s811/TI_Stellaris/driverlib/sysctl.c ****         // Disable this peripheral in sleep mode.
1122:/home/cuil/workspace/arm/lm3s811/TI_Stellaris/driverlib/sysctl.c ****         //
1123:/home/cuil/workspace/arm/lm3s811/TI_Stellaris/driverlib/sysctl.c ****         HWREGBITW(SYSCTL_SCGCBASE + ((ulPeripheral & 0xff00) >> 8),
 12542              		.loc 1 1123 0
 12543 0014 7B68     		ldr	r3, [r7, #4]
 12544 0016 03F47F43 		and	r3, r3, #65280
 12545 001a 4FEA1322 		lsr	r2, r3, #8
 12546 001e 214B     		ldr	r3, .L63
 12547 0020 D318     		adds	r3, r2, r3
 12548 0022 03F07042 		and	r2, r3, #-268435456
 12549 0026 7B68     		ldr	r3, [r7, #4]
 12550 0028 03F47F43 		and	r3, r3, #65280
 12551 002c 4FEA1321 		lsr	r1, r3, #8
 12552 0030 1C4B     		ldr	r3, .L63
 12553 0032 CB18     		adds	r3, r1, r3
 12554 0034 23F07F43 		bic	r3, r3, #-16777216
 12555 0038 23F47003 		bic	r3, r3, #15728640
 12556 003c 4FEA4313 		lsl	r3, r3, #5
 12557 0040 1A43     		orrs	r2, r2, r3
 12558 0042 7B68     		ldr	r3, [r7, #4]
 12559 0044 03F0FF03 		and	r3, r3, #255
 12560 0048 4FEA8303 		lsl	r3, r3, #2
 12561 004c 42EA0303 		orr	r3, r2, r3
 12562 0050 43F00073 		orr	r3, r3, #33554432
1124:/home/cuil/workspace/arm/lm3s811/TI_Stellaris/driverlib/sysctl.c ****                   ulPeripheral & 0xff) = 0;
 12563              		.loc 1 1124 0
 12564 0054 4FF00002 		mov	r2, #0
 12565 0058 1A60     		str	r2, [r3, #0]
 12566 005a 1EE0     		b	.L60
 12567              	.L61:
1125:/home/cuil/workspace/arm/lm3s811/TI_Stellaris/driverlib/sysctl.c ****     }
1126:/home/cuil/workspace/arm/lm3s811/TI_Stellaris/driverlib/sysctl.c ****     else
1127:/home/cuil/workspace/arm/lm3s811/TI_Stellaris/driverlib/sysctl.c ****     {
1128:/home/cuil/workspace/arm/lm3s811/TI_Stellaris/driverlib/sysctl.c ****         //
1129:/home/cuil/workspace/arm/lm3s811/TI_Stellaris/driverlib/sysctl.c ****         // Disable this peripheral in sleep mode.
1130:/home/cuil/workspace/arm/lm3s811/TI_Stellaris/driverlib/sysctl.c ****         //
1131:/home/cuil/workspace/arm/lm3s811/TI_Stellaris/driverlib/sysctl.c ****         HWREG(g_pulSCGCRegs[SYSCTL_PERIPH_INDEX(ulPeripheral)]) &=
 12568              		.loc 1 1131 0
 12569 005c 7B68     		ldr	r3, [r7, #4]
 12570 005e 4FEA1372 		lsr	r2, r3, #28
 12571 0062 114B     		ldr	r3, .L63+4
 12572 0064 53F82230 		ldr	r3, [r3, r2, lsl #2]
 12573 0068 1A46     		mov	r2, r3
 12574 006a 7B68     		ldr	r3, [r7, #4]
 12575 006c 4FEA1371 		lsr	r1, r3, #28
 12576 0070 0D4B     		ldr	r3, .L63+4
 12577 0072 53F82130 		ldr	r3, [r3, r1, lsl #2]
 12578 0076 1968     		ldr	r1, [r3, #0]
1132:/home/cuil/workspace/arm/lm3s811/TI_Stellaris/driverlib/sysctl.c ****             ~SYSCTL_PERIPH_MASK(ulPeripheral);
 12579              		.loc 1 1132 0
 12580 0078 7B68     		ldr	r3, [r7, #4]
 12581 007a 4FEA0343 		lsl	r3, r3, #16
 12582 007e 4FEA1343 		lsr	r3, r3, #16
 12583 0082 7868     		ldr	r0, [r7, #4]
 12584 0084 00F4F810 		and	r0, r0, #2031616
 12585 0088 4FEA1040 		lsr	r0, r0, #16
 12586 008c 03FA00F3 		lsl	r3, r3, r0
 12587 0090 6FEA0303 		mvn	r3, r3
1131:/home/cuil/workspace/arm/lm3s811/TI_Stellaris/driverlib/sysctl.c ****         HWREG(g_pulSCGCRegs[SYSCTL_PERIPH_INDEX(ulPeripheral)]) &=
 12588              		.loc 1 1131 0
 12589 0094 01EA0303 		and	r3, r1, r3
 12590 0098 1360     		str	r3, [r2, #0]
 12591              	.L60:
1133:/home/cuil/workspace/arm/lm3s811/TI_Stellaris/driverlib/sysctl.c ****     }
1134:/home/cuil/workspace/arm/lm3s811/TI_Stellaris/driverlib/sysctl.c **** }
 12592              		.loc 1 1134 0
 12593 009a 07F10C07 		add	r7, r7, #12
 12594 009e BD46     		mov	sp, r7
 12595 00a0 80BC     		pop	{r7}
 12596 00a2 7047     		bx	lr
 12597              	.L64:
 12598              		.align	2
 12599              	.L63:
 12600 00a4 00E70F40 		.word	1074784000
 12601 00a8 28000000 		.word	g_pulSCGCRegs
 12602              		.cfi_endproc
 12603              	.LFE12:
 12605              		.section	.text.SysCtlPeripheralDeepSleepEnable,"ax",%progbits
 12606              		.align	2
 12607              		.global	SysCtlPeripheralDeepSleepEnable
 12608              		.thumb
 12609              		.thumb_func
 12611              	SysCtlPeripheralDeepSleepEnable:
 12612              	.LFB13:
1135:/home/cuil/workspace/arm/lm3s811/TI_Stellaris/driverlib/sysctl.c **** 
1136:/home/cuil/workspace/arm/lm3s811/TI_Stellaris/driverlib/sysctl.c **** //*****************************************************************************
1137:/home/cuil/workspace/arm/lm3s811/TI_Stellaris/driverlib/sysctl.c **** //
1138:/home/cuil/workspace/arm/lm3s811/TI_Stellaris/driverlib/sysctl.c **** //! Enables a peripheral in deep-sleep mode.
1139:/home/cuil/workspace/arm/lm3s811/TI_Stellaris/driverlib/sysctl.c **** //!
1140:/home/cuil/workspace/arm/lm3s811/TI_Stellaris/driverlib/sysctl.c **** //! \param ulPeripheral is the peripheral to enable in deep-sleep mode.
1141:/home/cuil/workspace/arm/lm3s811/TI_Stellaris/driverlib/sysctl.c **** //!
1142:/home/cuil/workspace/arm/lm3s811/TI_Stellaris/driverlib/sysctl.c **** //! This function allows a peripheral to continue operating when the processor
1143:/home/cuil/workspace/arm/lm3s811/TI_Stellaris/driverlib/sysctl.c **** //! goes into deep-sleep mode.  Because the clocking configuration of the 
1144:/home/cuil/workspace/arm/lm3s811/TI_Stellaris/driverlib/sysctl.c **** //! device may change, not all peripherals can safely continue operating while 
1145:/home/cuil/workspace/arm/lm3s811/TI_Stellaris/driverlib/sysctl.c **** //! the processor is in sleep mode.  Those that must run at a particular 
1146:/home/cuil/workspace/arm/lm3s811/TI_Stellaris/driverlib/sysctl.c **** //! frequency (such as a UART) do not work as expected if the clock changes.  
1147:/home/cuil/workspace/arm/lm3s811/TI_Stellaris/driverlib/sysctl.c **** //! It is the responsibility of the caller to make sensible choices.
1148:/home/cuil/workspace/arm/lm3s811/TI_Stellaris/driverlib/sysctl.c **** //!
1149:/home/cuil/workspace/arm/lm3s811/TI_Stellaris/driverlib/sysctl.c **** //! Deep-sleep mode clocking of peripherals must be enabled via
1150:/home/cuil/workspace/arm/lm3s811/TI_Stellaris/driverlib/sysctl.c **** //! SysCtlPeripheralClockGating(); if disabled, the peripheral deep-sleep mode
1151:/home/cuil/workspace/arm/lm3s811/TI_Stellaris/driverlib/sysctl.c **** //! configuration is maintained but has no effect when deep-sleep mode is
1152:/home/cuil/workspace/arm/lm3s811/TI_Stellaris/driverlib/sysctl.c **** //! entered.
1153:/home/cuil/workspace/arm/lm3s811/TI_Stellaris/driverlib/sysctl.c **** //!
1154:/home/cuil/workspace/arm/lm3s811/TI_Stellaris/driverlib/sysctl.c **** //! The \e ulPeripheral parameter must be only one of the following values:
1155:/home/cuil/workspace/arm/lm3s811/TI_Stellaris/driverlib/sysctl.c **** //! \b SYSCTL_PERIPH_ADC0, \b SYSCTL_PERIPH_ADC1, \b SYSCTL_PERIPH_CAN0,
1156:/home/cuil/workspace/arm/lm3s811/TI_Stellaris/driverlib/sysctl.c **** //! \b SYSCTL_PERIPH_CAN1, \b SYSCTL_PERIPH_CAN2, \b SYSCTL_PERIPH_COMP0,
1157:/home/cuil/workspace/arm/lm3s811/TI_Stellaris/driverlib/sysctl.c **** //! \b SYSCTL_PERIPH_COMP1, \b SYSCTL_PERIPH_COMP2, \b SYSCTL_PERIPH_EEPROM0,
1158:/home/cuil/workspace/arm/lm3s811/TI_Stellaris/driverlib/sysctl.c **** //! \b SYSCTL_PERIPH_EPI0, \b SYSCTL_PERIPH_ETH, \b SYSCTL_PERIPH_FAN0,
1159:/home/cuil/workspace/arm/lm3s811/TI_Stellaris/driverlib/sysctl.c **** //! \b SYSCTL_PERIPH_GPIOA, \b SYSCTL_PERIPH_GPIOB, \b SYSCTL_PERIPH_GPIOC,
1160:/home/cuil/workspace/arm/lm3s811/TI_Stellaris/driverlib/sysctl.c **** //! \b SYSCTL_PERIPH_GPIOD, \b SYSCTL_PERIPH_GPIOE, \b SYSCTL_PERIPH_GPIOF,
1161:/home/cuil/workspace/arm/lm3s811/TI_Stellaris/driverlib/sysctl.c **** //! \b SYSCTL_PERIPH_GPIOG, \b SYSCTL_PERIPH_GPIOH, \b SYSCTL_PERIPH_GPIOJ,
1162:/home/cuil/workspace/arm/lm3s811/TI_Stellaris/driverlib/sysctl.c **** //! \b SYSCTL_PERIPH_GPIOK, \b SYSCTL_PERIPH_GPIOL, \b SYSCTL_PERIPH_GPIOM,
1163:/home/cuil/workspace/arm/lm3s811/TI_Stellaris/driverlib/sysctl.c **** //! \b SYSCTL_PERIPH_GPION, \b SYSCTL_PERIPH_GPIOP, \b SYSCTL_PERIPH_GPIOQ,
1164:/home/cuil/workspace/arm/lm3s811/TI_Stellaris/driverlib/sysctl.c **** //! \b SYSCTL_PERIPH_HIBERNATE, \b SYSCTL_PERIPH_I2C0, \b SYSCTL_PERIPH_I2C1,
1165:/home/cuil/workspace/arm/lm3s811/TI_Stellaris/driverlib/sysctl.c **** //! \b SYSCTL_PERIPH_I2C2, \b SYSCTL_PERIPH_I2C3, \b SYSCTL_PERIPH_I2C4,
1166:/home/cuil/workspace/arm/lm3s811/TI_Stellaris/driverlib/sysctl.c **** //! \b SYSCTL_PERIPH_I2C5, \b SYSCTL_PERIPH_I2S0, \b SYSCTL_PERIPH_LPC0,
1167:/home/cuil/workspace/arm/lm3s811/TI_Stellaris/driverlib/sysctl.c **** //! \b SYSCTL_PERIPH_PECI0, \b SYSCTL_PERIPH_PWM0, \b SYSCTL_PERIPH_PWM1,
1168:/home/cuil/workspace/arm/lm3s811/TI_Stellaris/driverlib/sysctl.c **** //! \b SYSCTL_PERIPH_QEI0, \b SYSCTL_PERIPH_QEI1, \b SYSCTL_PERIPH_SSI0,
1169:/home/cuil/workspace/arm/lm3s811/TI_Stellaris/driverlib/sysctl.c **** //! \b SYSCTL_PERIPH_SSI1, \b SYSCTL_PERIPH_SSI2, \b SYSCTL_PERIPH_SSI3,
1170:/home/cuil/workspace/arm/lm3s811/TI_Stellaris/driverlib/sysctl.c **** //! \b SYSCTL_PERIPH_TIMER0, \b SYSCTL_PERIPH_TIMER1, \b SYSCTL_PERIPH_TIMER2,
1171:/home/cuil/workspace/arm/lm3s811/TI_Stellaris/driverlib/sysctl.c **** //! \b SYSCTL_PERIPH_TIMER3, \b SYSCTL_PERIPH_TIMER4, \b SYSCTL_PERIPH_TIMER5,
1172:/home/cuil/workspace/arm/lm3s811/TI_Stellaris/driverlib/sysctl.c **** //! \b SYSCTL_PERIPH_UART0, \b SYSCTL_PERIPH_UART1, \b SYSCTL_PERIPH_UART2,
1173:/home/cuil/workspace/arm/lm3s811/TI_Stellaris/driverlib/sysctl.c **** //! \b SYSCTL_PERIPH_UART3, \b SYSCTL_PERIPH_UART4, \b SYSCTL_PERIPH_UART5,
1174:/home/cuil/workspace/arm/lm3s811/TI_Stellaris/driverlib/sysctl.c **** //! \b SYSCTL_PERIPH_UART6, \b SYSCTL_PERIPH_UART7, \b SYSCTL_PERIPH_UDMA,
1175:/home/cuil/workspace/arm/lm3s811/TI_Stellaris/driverlib/sysctl.c **** //! \b SYSCTL_PERIPH_USB0, \b SYSCTL_PERIPH_WDOG0, \b SYSCTL_PERIPH_WDOG1,
1176:/home/cuil/workspace/arm/lm3s811/TI_Stellaris/driverlib/sysctl.c **** //! \b SYSCTL_PERIPH_WTIMER0, \b SYSCTL_PERIPH_WTIMER1,
1177:/home/cuil/workspace/arm/lm3s811/TI_Stellaris/driverlib/sysctl.c **** //! \b SYSCTL_PERIPH_WTIMER2, \b SYSCTL_PERIPH_WTIMER3,
1178:/home/cuil/workspace/arm/lm3s811/TI_Stellaris/driverlib/sysctl.c **** //! \b SYSCTL_PERIPH_WTIMER4, or \b SYSCTL_PERIPH_WTIMER5.
1179:/home/cuil/workspace/arm/lm3s811/TI_Stellaris/driverlib/sysctl.c **** //!
1180:/home/cuil/workspace/arm/lm3s811/TI_Stellaris/driverlib/sysctl.c **** //! \return None.
1181:/home/cuil/workspace/arm/lm3s811/TI_Stellaris/driverlib/sysctl.c **** //
1182:/home/cuil/workspace/arm/lm3s811/TI_Stellaris/driverlib/sysctl.c **** //*****************************************************************************
1183:/home/cuil/workspace/arm/lm3s811/TI_Stellaris/driverlib/sysctl.c **** void
1184:/home/cuil/workspace/arm/lm3s811/TI_Stellaris/driverlib/sysctl.c **** SysCtlPeripheralDeepSleepEnable(unsigned long ulPeripheral)
1185:/home/cuil/workspace/arm/lm3s811/TI_Stellaris/driverlib/sysctl.c **** {
 12613              		.loc 1 1185 0
 12614              		.cfi_startproc
 12615              		@ args = 0, pretend = 0, frame = 8
 12616              		@ frame_needed = 1, uses_anonymous_args = 0
 12617              		@ link register save eliminated.
 12618 0000 80B4     		push	{r7}
 12619              	.LCFI37:
 12620              		.cfi_def_cfa_offset 4
 12621 0002 83B0     		sub	sp, sp, #12
 12622              	.LCFI38:
 12623              		.cfi_def_cfa_offset 16
 12624 0004 00AF     		add	r7, sp, #0
 12625              		.cfi_offset 7, -4
 12626              	.LCFI39:
 12627              		.cfi_def_cfa_register 7
 12628 0006 7860     		str	r0, [r7, #4]
1186:/home/cuil/workspace/arm/lm3s811/TI_Stellaris/driverlib/sysctl.c ****     //
1187:/home/cuil/workspace/arm/lm3s811/TI_Stellaris/driverlib/sysctl.c ****     // Check the arguments.
1188:/home/cuil/workspace/arm/lm3s811/TI_Stellaris/driverlib/sysctl.c ****     //
1189:/home/cuil/workspace/arm/lm3s811/TI_Stellaris/driverlib/sysctl.c ****     ASSERT(SysCtlPeripheralValid(ulPeripheral));
1190:/home/cuil/workspace/arm/lm3s811/TI_Stellaris/driverlib/sysctl.c **** 
1191:/home/cuil/workspace/arm/lm3s811/TI_Stellaris/driverlib/sysctl.c ****     //
1192:/home/cuil/workspace/arm/lm3s811/TI_Stellaris/driverlib/sysctl.c ****     // See if the peripheral index is 15, indicating a peripheral that is
1193:/home/cuil/workspace/arm/lm3s811/TI_Stellaris/driverlib/sysctl.c ****     // accessed via the SYSCTL_DCGCperiph registers.
1194:/home/cuil/workspace/arm/lm3s811/TI_Stellaris/driverlib/sysctl.c ****     //
1195:/home/cuil/workspace/arm/lm3s811/TI_Stellaris/driverlib/sysctl.c ****     if((ulPeripheral & 0xf0000000) == 0xf0000000)
 12629              		.loc 1 1195 0
 12630 0008 7B68     		ldr	r3, [r7, #4]
 12631 000a 03F07043 		and	r3, r3, #-268435456
 12632 000e B3F1704F 		cmp	r3, #-268435456
 12633 0012 23D1     		bne	.L66
1196:/home/cuil/workspace/arm/lm3s811/TI_Stellaris/driverlib/sysctl.c ****     {
1197:/home/cuil/workspace/arm/lm3s811/TI_Stellaris/driverlib/sysctl.c ****         //
1198:/home/cuil/workspace/arm/lm3s811/TI_Stellaris/driverlib/sysctl.c ****         // Enable this peripheral in deep-sleep mode.
1199:/home/cuil/workspace/arm/lm3s811/TI_Stellaris/driverlib/sysctl.c ****         //
1200:/home/cuil/workspace/arm/lm3s811/TI_Stellaris/driverlib/sysctl.c ****         HWREGBITW(SYSCTL_DCGCBASE + ((ulPeripheral & 0xff00) >> 8),
 12634              		.loc 1 1200 0
 12635 0014 7B68     		ldr	r3, [r7, #4]
 12636 0016 03F47F43 		and	r3, r3, #65280
 12637 001a 4FEA1322 		lsr	r2, r3, #8
 12638 001e 204B     		ldr	r3, .L68
 12639 0020 D318     		adds	r3, r2, r3
 12640 0022 03F07042 		and	r2, r3, #-268435456
 12641 0026 7B68     		ldr	r3, [r7, #4]
 12642 0028 03F47F43 		and	r3, r3, #65280
 12643 002c 4FEA1321 		lsr	r1, r3, #8
 12644 0030 1B4B     		ldr	r3, .L68
 12645 0032 CB18     		adds	r3, r1, r3
 12646 0034 23F07F43 		bic	r3, r3, #-16777216
 12647 0038 23F47003 		bic	r3, r3, #15728640
 12648 003c 4FEA4313 		lsl	r3, r3, #5
 12649 0040 1A43     		orrs	r2, r2, r3
 12650 0042 7B68     		ldr	r3, [r7, #4]
 12651 0044 03F0FF03 		and	r3, r3, #255
 12652 0048 4FEA8303 		lsl	r3, r3, #2
 12653 004c 42EA0303 		orr	r3, r2, r3
 12654 0050 43F00073 		orr	r3, r3, #33554432
1201:/home/cuil/workspace/arm/lm3s811/TI_Stellaris/driverlib/sysctl.c ****                   ulPeripheral & 0xff) = 1;
 12655              		.loc 1 1201 0
 12656 0054 4FF00102 		mov	r2, #1
 12657 0058 1A60     		str	r2, [r3, #0]
 12658 005a 1CE0     		b	.L65
 12659              	.L66:
1202:/home/cuil/workspace/arm/lm3s811/TI_Stellaris/driverlib/sysctl.c ****     }
1203:/home/cuil/workspace/arm/lm3s811/TI_Stellaris/driverlib/sysctl.c ****     else
1204:/home/cuil/workspace/arm/lm3s811/TI_Stellaris/driverlib/sysctl.c ****     {
1205:/home/cuil/workspace/arm/lm3s811/TI_Stellaris/driverlib/sysctl.c ****         //
1206:/home/cuil/workspace/arm/lm3s811/TI_Stellaris/driverlib/sysctl.c ****         // Enable this peripheral in deep-sleep mode.
1207:/home/cuil/workspace/arm/lm3s811/TI_Stellaris/driverlib/sysctl.c ****         //
1208:/home/cuil/workspace/arm/lm3s811/TI_Stellaris/driverlib/sysctl.c ****         HWREG(g_pulDCGCRegs[SYSCTL_PERIPH_INDEX(ulPeripheral)]) |=
 12660              		.loc 1 1208 0
 12661 005c 7B68     		ldr	r3, [r7, #4]
 12662 005e 4FEA1372 		lsr	r2, r3, #28
 12663 0062 104B     		ldr	r3, .L68+4
 12664 0064 53F82230 		ldr	r3, [r3, r2, lsl #2]
 12665 0068 1A46     		mov	r2, r3
 12666 006a 7B68     		ldr	r3, [r7, #4]
 12667 006c 4FEA1371 		lsr	r1, r3, #28
 12668 0070 0C4B     		ldr	r3, .L68+4
 12669 0072 53F82130 		ldr	r3, [r3, r1, lsl #2]
 12670 0076 1968     		ldr	r1, [r3, #0]
1209:/home/cuil/workspace/arm/lm3s811/TI_Stellaris/driverlib/sysctl.c ****             SYSCTL_PERIPH_MASK(ulPeripheral);
 12671              		.loc 1 1209 0
 12672 0078 7B68     		ldr	r3, [r7, #4]
 12673 007a 4FEA0343 		lsl	r3, r3, #16
 12674 007e 4FEA1343 		lsr	r3, r3, #16
 12675 0082 7868     		ldr	r0, [r7, #4]
 12676 0084 00F4F810 		and	r0, r0, #2031616
 12677 0088 4FEA1040 		lsr	r0, r0, #16
 12678 008c 03FA00F3 		lsl	r3, r3, r0
1208:/home/cuil/workspace/arm/lm3s811/TI_Stellaris/driverlib/sysctl.c ****         HWREG(g_pulDCGCRegs[SYSCTL_PERIPH_INDEX(ulPeripheral)]) |=
 12679              		.loc 1 1208 0
 12680 0090 41EA0303 		orr	r3, r1, r3
 12681 0094 1360     		str	r3, [r2, #0]
 12682              	.L65:
1210:/home/cuil/workspace/arm/lm3s811/TI_Stellaris/driverlib/sysctl.c ****     }
1211:/home/cuil/workspace/arm/lm3s811/TI_Stellaris/driverlib/sysctl.c **** }
 12683              		.loc 1 1211 0
 12684 0096 07F10C07 		add	r7, r7, #12
 12685 009a BD46     		mov	sp, r7
 12686 009c 80BC     		pop	{r7}
 12687 009e 7047     		bx	lr
 12688              	.L69:
 12689              		.align	2
 12690              	.L68:
 12691 00a0 00E80F40 		.word	1074784256
 12692 00a4 34000000 		.word	g_pulDCGCRegs
 12693              		.cfi_endproc
 12694              	.LFE13:
 12696              		.section	.text.SysCtlPeripheralDeepSleepDisable,"ax",%progbits
 12697              		.align	2
 12698              		.global	SysCtlPeripheralDeepSleepDisable
 12699              		.thumb
 12700              		.thumb_func
 12702              	SysCtlPeripheralDeepSleepDisable:
 12703              	.LFB14:
1212:/home/cuil/workspace/arm/lm3s811/TI_Stellaris/driverlib/sysctl.c **** 
1213:/home/cuil/workspace/arm/lm3s811/TI_Stellaris/driverlib/sysctl.c **** //*****************************************************************************
1214:/home/cuil/workspace/arm/lm3s811/TI_Stellaris/driverlib/sysctl.c **** //
1215:/home/cuil/workspace/arm/lm3s811/TI_Stellaris/driverlib/sysctl.c **** //! Disables a peripheral in deep-sleep mode.
1216:/home/cuil/workspace/arm/lm3s811/TI_Stellaris/driverlib/sysctl.c **** //!
1217:/home/cuil/workspace/arm/lm3s811/TI_Stellaris/driverlib/sysctl.c **** //! \param ulPeripheral is the peripheral to disable in deep-sleep mode.
1218:/home/cuil/workspace/arm/lm3s811/TI_Stellaris/driverlib/sysctl.c **** //!
1219:/home/cuil/workspace/arm/lm3s811/TI_Stellaris/driverlib/sysctl.c **** //! This function causes a peripheral to stop operating when the processor goes
1220:/home/cuil/workspace/arm/lm3s811/TI_Stellaris/driverlib/sysctl.c **** //! into deep-sleep mode.  Disabling peripherals while in deep-sleep mode helps
1221:/home/cuil/workspace/arm/lm3s811/TI_Stellaris/driverlib/sysctl.c **** //! to lower the current draw of the device, and can keep peripherals that
1222:/home/cuil/workspace/arm/lm3s811/TI_Stellaris/driverlib/sysctl.c **** //! require a particular clock frequency from operating when the clock changes
1223:/home/cuil/workspace/arm/lm3s811/TI_Stellaris/driverlib/sysctl.c **** //! as a result of entering deep-sleep mode.  If enabled (via
1224:/home/cuil/workspace/arm/lm3s811/TI_Stellaris/driverlib/sysctl.c **** //! SysCtlPeripheralEnable()), the peripheral automatically resumes
1225:/home/cuil/workspace/arm/lm3s811/TI_Stellaris/driverlib/sysctl.c **** //! operation when the processor leaves deep-sleep mode, maintaining its entire
1226:/home/cuil/workspace/arm/lm3s811/TI_Stellaris/driverlib/sysctl.c **** //! state from before deep-sleep mode was entered.
1227:/home/cuil/workspace/arm/lm3s811/TI_Stellaris/driverlib/sysctl.c **** //!
1228:/home/cuil/workspace/arm/lm3s811/TI_Stellaris/driverlib/sysctl.c **** //! Deep-sleep mode clocking of peripherals must be enabled via
1229:/home/cuil/workspace/arm/lm3s811/TI_Stellaris/driverlib/sysctl.c **** //! SysCtlPeripheralClockGating(); if disabled, the peripheral deep-sleep mode
1230:/home/cuil/workspace/arm/lm3s811/TI_Stellaris/driverlib/sysctl.c **** //! configuration is maintained but has no effect when deep-sleep mode is
1231:/home/cuil/workspace/arm/lm3s811/TI_Stellaris/driverlib/sysctl.c **** //! entered.
1232:/home/cuil/workspace/arm/lm3s811/TI_Stellaris/driverlib/sysctl.c **** //!
1233:/home/cuil/workspace/arm/lm3s811/TI_Stellaris/driverlib/sysctl.c **** //! The \e ulPeripheral parameter must be only one of the following values:
1234:/home/cuil/workspace/arm/lm3s811/TI_Stellaris/driverlib/sysctl.c **** //! \b SYSCTL_PERIPH_ADC0, \b SYSCTL_PERIPH_ADC1, \b SYSCTL_PERIPH_CAN0,
1235:/home/cuil/workspace/arm/lm3s811/TI_Stellaris/driverlib/sysctl.c **** //! \b SYSCTL_PERIPH_CAN1, \b SYSCTL_PERIPH_CAN2, \b SYSCTL_PERIPH_COMP0,
1236:/home/cuil/workspace/arm/lm3s811/TI_Stellaris/driverlib/sysctl.c **** //! \b SYSCTL_PERIPH_COMP1, \b SYSCTL_PERIPH_COMP2, \b SYSCTL_PERIPH_EEPROM0,
1237:/home/cuil/workspace/arm/lm3s811/TI_Stellaris/driverlib/sysctl.c **** //! \b SYSCTL_PERIPH_EPI0, \b SYSCTL_PERIPH_ETH, \b SYSCTL_PERIPH_FAN0,
1238:/home/cuil/workspace/arm/lm3s811/TI_Stellaris/driverlib/sysctl.c **** //! \b SYSCTL_PERIPH_GPIOA, \b SYSCTL_PERIPH_GPIOB, \b SYSCTL_PERIPH_GPIOC,
1239:/home/cuil/workspace/arm/lm3s811/TI_Stellaris/driverlib/sysctl.c **** //! \b SYSCTL_PERIPH_GPIOD, \b SYSCTL_PERIPH_GPIOE, \b SYSCTL_PERIPH_GPIOF,
1240:/home/cuil/workspace/arm/lm3s811/TI_Stellaris/driverlib/sysctl.c **** //! \b SYSCTL_PERIPH_GPIOG, \b SYSCTL_PERIPH_GPIOH, \b SYSCTL_PERIPH_GPIOJ,
1241:/home/cuil/workspace/arm/lm3s811/TI_Stellaris/driverlib/sysctl.c **** //! \b SYSCTL_PERIPH_GPIOK, \b SYSCTL_PERIPH_GPIOL, \b SYSCTL_PERIPH_GPIOM,
1242:/home/cuil/workspace/arm/lm3s811/TI_Stellaris/driverlib/sysctl.c **** //! \b SYSCTL_PERIPH_GPION, \b SYSCTL_PERIPH_GPIOP, \b SYSCTL_PERIPH_GPIOQ,
1243:/home/cuil/workspace/arm/lm3s811/TI_Stellaris/driverlib/sysctl.c **** //! \b SYSCTL_PERIPH_HIBERNATE, \b SYSCTL_PERIPH_I2C0, \b SYSCTL_PERIPH_I2C1,
1244:/home/cuil/workspace/arm/lm3s811/TI_Stellaris/driverlib/sysctl.c **** //! \b SYSCTL_PERIPH_I2C2, \b SYSCTL_PERIPH_I2C3, \b SYSCTL_PERIPH_I2C4,
1245:/home/cuil/workspace/arm/lm3s811/TI_Stellaris/driverlib/sysctl.c **** //! \b SYSCTL_PERIPH_I2C5, \b SYSCTL_PERIPH_I2S0, \b SYSCTL_PERIPH_LPC0,
1246:/home/cuil/workspace/arm/lm3s811/TI_Stellaris/driverlib/sysctl.c **** //! \b SYSCTL_PERIPH_PECI0, \b SYSCTL_PERIPH_PWM0, \b SYSCTL_PERIPH_PWM1,
1247:/home/cuil/workspace/arm/lm3s811/TI_Stellaris/driverlib/sysctl.c **** //! \b SYSCTL_PERIPH_QEI0, \b SYSCTL_PERIPH_QEI1, \b SYSCTL_PERIPH_SSI0,
1248:/home/cuil/workspace/arm/lm3s811/TI_Stellaris/driverlib/sysctl.c **** //! \b SYSCTL_PERIPH_SSI1, \b SYSCTL_PERIPH_SSI2, \b SYSCTL_PERIPH_SSI3,
1249:/home/cuil/workspace/arm/lm3s811/TI_Stellaris/driverlib/sysctl.c **** //! \b SYSCTL_PERIPH_TIMER0, \b SYSCTL_PERIPH_TIMER1, \b SYSCTL_PERIPH_TIMER2,
1250:/home/cuil/workspace/arm/lm3s811/TI_Stellaris/driverlib/sysctl.c **** //! \b SYSCTL_PERIPH_TIMER3, \b SYSCTL_PERIPH_TIMER4, \b SYSCTL_PERIPH_TIMER5,
1251:/home/cuil/workspace/arm/lm3s811/TI_Stellaris/driverlib/sysctl.c **** //! \b SYSCTL_PERIPH_UART0, \b SYSCTL_PERIPH_UART1, \b SYSCTL_PERIPH_UART2,
1252:/home/cuil/workspace/arm/lm3s811/TI_Stellaris/driverlib/sysctl.c **** //! \b SYSCTL_PERIPH_UART3, \b SYSCTL_PERIPH_UART4, \b SYSCTL_PERIPH_UART5,
1253:/home/cuil/workspace/arm/lm3s811/TI_Stellaris/driverlib/sysctl.c **** //! \b SYSCTL_PERIPH_UART6, \b SYSCTL_PERIPH_UART7, \b SYSCTL_PERIPH_UDMA,
1254:/home/cuil/workspace/arm/lm3s811/TI_Stellaris/driverlib/sysctl.c **** //! \b SYSCTL_PERIPH_USB0, \b SYSCTL_PERIPH_WDOG0, \b SYSCTL_PERIPH_WDOG1,
1255:/home/cuil/workspace/arm/lm3s811/TI_Stellaris/driverlib/sysctl.c **** //! \b SYSCTL_PERIPH_WTIMER0, \b SYSCTL_PERIPH_WTIMER1,
1256:/home/cuil/workspace/arm/lm3s811/TI_Stellaris/driverlib/sysctl.c **** //! \b SYSCTL_PERIPH_WTIMER2, \b SYSCTL_PERIPH_WTIMER3,
1257:/home/cuil/workspace/arm/lm3s811/TI_Stellaris/driverlib/sysctl.c **** //! \b SYSCTL_PERIPH_WTIMER4, or \b SYSCTL_PERIPH_WTIMER5.
1258:/home/cuil/workspace/arm/lm3s811/TI_Stellaris/driverlib/sysctl.c **** //!
1259:/home/cuil/workspace/arm/lm3s811/TI_Stellaris/driverlib/sysctl.c **** //! \return None.
1260:/home/cuil/workspace/arm/lm3s811/TI_Stellaris/driverlib/sysctl.c **** //
1261:/home/cuil/workspace/arm/lm3s811/TI_Stellaris/driverlib/sysctl.c **** //*****************************************************************************
1262:/home/cuil/workspace/arm/lm3s811/TI_Stellaris/driverlib/sysctl.c **** void
1263:/home/cuil/workspace/arm/lm3s811/TI_Stellaris/driverlib/sysctl.c **** SysCtlPeripheralDeepSleepDisable(unsigned long ulPeripheral)
1264:/home/cuil/workspace/arm/lm3s811/TI_Stellaris/driverlib/sysctl.c **** {
 12704              		.loc 1 1264 0
 12705              		.cfi_startproc
 12706              		@ args = 0, pretend = 0, frame = 8
 12707              		@ frame_needed = 1, uses_anonymous_args = 0
 12708              		@ link register save eliminated.
 12709 0000 80B4     		push	{r7}
 12710              	.LCFI40:
 12711              		.cfi_def_cfa_offset 4
 12712 0002 83B0     		sub	sp, sp, #12
 12713              	.LCFI41:
 12714              		.cfi_def_cfa_offset 16
 12715 0004 00AF     		add	r7, sp, #0
 12716              		.cfi_offset 7, -4
 12717              	.LCFI42:
 12718              		.cfi_def_cfa_register 7
 12719 0006 7860     		str	r0, [r7, #4]
1265:/home/cuil/workspace/arm/lm3s811/TI_Stellaris/driverlib/sysctl.c ****     //
1266:/home/cuil/workspace/arm/lm3s811/TI_Stellaris/driverlib/sysctl.c ****     // Check the arguments.
1267:/home/cuil/workspace/arm/lm3s811/TI_Stellaris/driverlib/sysctl.c ****     //
1268:/home/cuil/workspace/arm/lm3s811/TI_Stellaris/driverlib/sysctl.c ****     ASSERT(SysCtlPeripheralValid(ulPeripheral));
1269:/home/cuil/workspace/arm/lm3s811/TI_Stellaris/driverlib/sysctl.c **** 
1270:/home/cuil/workspace/arm/lm3s811/TI_Stellaris/driverlib/sysctl.c ****     //
1271:/home/cuil/workspace/arm/lm3s811/TI_Stellaris/driverlib/sysctl.c ****     // See if the peripheral index is 15, indicating a peripheral that is
1272:/home/cuil/workspace/arm/lm3s811/TI_Stellaris/driverlib/sysctl.c ****     // accessed via the SYSCTL_DCGCperiph registers.
1273:/home/cuil/workspace/arm/lm3s811/TI_Stellaris/driverlib/sysctl.c ****     //
1274:/home/cuil/workspace/arm/lm3s811/TI_Stellaris/driverlib/sysctl.c ****     if((ulPeripheral & 0xf0000000) == 0xf0000000)
 12720              		.loc 1 1274 0
 12721 0008 7B68     		ldr	r3, [r7, #4]
 12722 000a 03F07043 		and	r3, r3, #-268435456
 12723 000e B3F1704F 		cmp	r3, #-268435456
 12724 0012 23D1     		bne	.L71
1275:/home/cuil/workspace/arm/lm3s811/TI_Stellaris/driverlib/sysctl.c ****     {
1276:/home/cuil/workspace/arm/lm3s811/TI_Stellaris/driverlib/sysctl.c ****         //
1277:/home/cuil/workspace/arm/lm3s811/TI_Stellaris/driverlib/sysctl.c ****         // Disable this peripheral in deep-sleep mode.
1278:/home/cuil/workspace/arm/lm3s811/TI_Stellaris/driverlib/sysctl.c ****         //
1279:/home/cuil/workspace/arm/lm3s811/TI_Stellaris/driverlib/sysctl.c ****         HWREGBITW(SYSCTL_DCGCBASE + ((ulPeripheral & 0xff00) >> 8),
 12725              		.loc 1 1279 0
 12726 0014 7B68     		ldr	r3, [r7, #4]
 12727 0016 03F47F43 		and	r3, r3, #65280
 12728 001a 4FEA1322 		lsr	r2, r3, #8
 12729 001e 214B     		ldr	r3, .L73
 12730 0020 D318     		adds	r3, r2, r3
 12731 0022 03F07042 		and	r2, r3, #-268435456
 12732 0026 7B68     		ldr	r3, [r7, #4]
 12733 0028 03F47F43 		and	r3, r3, #65280
 12734 002c 4FEA1321 		lsr	r1, r3, #8
 12735 0030 1C4B     		ldr	r3, .L73
 12736 0032 CB18     		adds	r3, r1, r3
 12737 0034 23F07F43 		bic	r3, r3, #-16777216
 12738 0038 23F47003 		bic	r3, r3, #15728640
 12739 003c 4FEA4313 		lsl	r3, r3, #5
 12740 0040 1A43     		orrs	r2, r2, r3
 12741 0042 7B68     		ldr	r3, [r7, #4]
 12742 0044 03F0FF03 		and	r3, r3, #255
 12743 0048 4FEA8303 		lsl	r3, r3, #2
 12744 004c 42EA0303 		orr	r3, r2, r3
 12745 0050 43F00073 		orr	r3, r3, #33554432
1280:/home/cuil/workspace/arm/lm3s811/TI_Stellaris/driverlib/sysctl.c ****                   ulPeripheral & 0xff) = 0;
 12746              		.loc 1 1280 0
 12747 0054 4FF00002 		mov	r2, #0
 12748 0058 1A60     		str	r2, [r3, #0]
 12749 005a 1EE0     		b	.L70
 12750              	.L71:
1281:/home/cuil/workspace/arm/lm3s811/TI_Stellaris/driverlib/sysctl.c ****     }
1282:/home/cuil/workspace/arm/lm3s811/TI_Stellaris/driverlib/sysctl.c ****     else
1283:/home/cuil/workspace/arm/lm3s811/TI_Stellaris/driverlib/sysctl.c ****     {
1284:/home/cuil/workspace/arm/lm3s811/TI_Stellaris/driverlib/sysctl.c ****         //
1285:/home/cuil/workspace/arm/lm3s811/TI_Stellaris/driverlib/sysctl.c ****         // Disable this peripheral in deep-sleep mode.
1286:/home/cuil/workspace/arm/lm3s811/TI_Stellaris/driverlib/sysctl.c ****         //
1287:/home/cuil/workspace/arm/lm3s811/TI_Stellaris/driverlib/sysctl.c ****         HWREG(g_pulDCGCRegs[SYSCTL_PERIPH_INDEX(ulPeripheral)]) &=
 12751              		.loc 1 1287 0
 12752 005c 7B68     		ldr	r3, [r7, #4]
 12753 005e 4FEA1372 		lsr	r2, r3, #28
 12754 0062 114B     		ldr	r3, .L73+4
 12755 0064 53F82230 		ldr	r3, [r3, r2, lsl #2]
 12756 0068 1A46     		mov	r2, r3
 12757 006a 7B68     		ldr	r3, [r7, #4]
 12758 006c 4FEA1371 		lsr	r1, r3, #28
 12759 0070 0D4B     		ldr	r3, .L73+4
 12760 0072 53F82130 		ldr	r3, [r3, r1, lsl #2]
 12761 0076 1968     		ldr	r1, [r3, #0]
1288:/home/cuil/workspace/arm/lm3s811/TI_Stellaris/driverlib/sysctl.c ****             ~SYSCTL_PERIPH_MASK(ulPeripheral);
 12762              		.loc 1 1288 0
 12763 0078 7B68     		ldr	r3, [r7, #4]
 12764 007a 4FEA0343 		lsl	r3, r3, #16
 12765 007e 4FEA1343 		lsr	r3, r3, #16
 12766 0082 7868     		ldr	r0, [r7, #4]
 12767 0084 00F4F810 		and	r0, r0, #2031616
 12768 0088 4FEA1040 		lsr	r0, r0, #16
 12769 008c 03FA00F3 		lsl	r3, r3, r0
 12770 0090 6FEA0303 		mvn	r3, r3
1287:/home/cuil/workspace/arm/lm3s811/TI_Stellaris/driverlib/sysctl.c ****         HWREG(g_pulDCGCRegs[SYSCTL_PERIPH_INDEX(ulPeripheral)]) &=
 12771              		.loc 1 1287 0
 12772 0094 01EA0303 		and	r3, r1, r3
 12773 0098 1360     		str	r3, [r2, #0]
 12774              	.L70:
1289:/home/cuil/workspace/arm/lm3s811/TI_Stellaris/driverlib/sysctl.c ****     }
1290:/home/cuil/workspace/arm/lm3s811/TI_Stellaris/driverlib/sysctl.c **** }
 12775              		.loc 1 1290 0
 12776 009a 07F10C07 		add	r7, r7, #12
 12777 009e BD46     		mov	sp, r7
 12778 00a0 80BC     		pop	{r7}
 12779 00a2 7047     		bx	lr
 12780              	.L74:
 12781              		.align	2
 12782              	.L73:
 12783 00a4 00E80F40 		.word	1074784256
 12784 00a8 34000000 		.word	g_pulDCGCRegs
 12785              		.cfi_endproc
 12786              	.LFE14:
 12788              		.section	.text.SysCtlPeripheralClockGating,"ax",%progbits
 12789              		.align	2
 12790              		.global	SysCtlPeripheralClockGating
 12791              		.thumb
 12792              		.thumb_func
 12794              	SysCtlPeripheralClockGating:
 12795              	.LFB15:
1291:/home/cuil/workspace/arm/lm3s811/TI_Stellaris/driverlib/sysctl.c **** 
1292:/home/cuil/workspace/arm/lm3s811/TI_Stellaris/driverlib/sysctl.c **** //*****************************************************************************
1293:/home/cuil/workspace/arm/lm3s811/TI_Stellaris/driverlib/sysctl.c **** //
1294:/home/cuil/workspace/arm/lm3s811/TI_Stellaris/driverlib/sysctl.c **** //! Controls peripheral clock gating in sleep and deep-sleep mode.
1295:/home/cuil/workspace/arm/lm3s811/TI_Stellaris/driverlib/sysctl.c **** //!
1296:/home/cuil/workspace/arm/lm3s811/TI_Stellaris/driverlib/sysctl.c **** //! \param bEnable is a boolean that is \b true if the sleep and deep-sleep
1297:/home/cuil/workspace/arm/lm3s811/TI_Stellaris/driverlib/sysctl.c **** //! peripheral configuration should be used and \b false if not.
1298:/home/cuil/workspace/arm/lm3s811/TI_Stellaris/driverlib/sysctl.c **** //!
1299:/home/cuil/workspace/arm/lm3s811/TI_Stellaris/driverlib/sysctl.c **** //! This function controls how peripherals are clocked when the processor goes
1300:/home/cuil/workspace/arm/lm3s811/TI_Stellaris/driverlib/sysctl.c **** //! into sleep or deep-sleep mode.  By default, the peripherals are clocked the
1301:/home/cuil/workspace/arm/lm3s811/TI_Stellaris/driverlib/sysctl.c **** //! same as in run mode; if peripheral clock gating is enabled, they are 
1302:/home/cuil/workspace/arm/lm3s811/TI_Stellaris/driverlib/sysctl.c **** //! clocked according to the configuration set by 
1303:/home/cuil/workspace/arm/lm3s811/TI_Stellaris/driverlib/sysctl.c **** //! SysCtlPeripheralSleepEnable(), SysCtlPeripheralSleepDisable(), 
1304:/home/cuil/workspace/arm/lm3s811/TI_Stellaris/driverlib/sysctl.c **** //! SysCtlPeripheralDeepSleepEnable(), and SysCtlPeripheralDeepSleepDisable().
1305:/home/cuil/workspace/arm/lm3s811/TI_Stellaris/driverlib/sysctl.c **** //!
1306:/home/cuil/workspace/arm/lm3s811/TI_Stellaris/driverlib/sysctl.c **** //! \return None.
1307:/home/cuil/workspace/arm/lm3s811/TI_Stellaris/driverlib/sysctl.c **** //
1308:/home/cuil/workspace/arm/lm3s811/TI_Stellaris/driverlib/sysctl.c **** //*****************************************************************************
1309:/home/cuil/workspace/arm/lm3s811/TI_Stellaris/driverlib/sysctl.c **** void
1310:/home/cuil/workspace/arm/lm3s811/TI_Stellaris/driverlib/sysctl.c **** SysCtlPeripheralClockGating(tBoolean bEnable)
1311:/home/cuil/workspace/arm/lm3s811/TI_Stellaris/driverlib/sysctl.c **** {
 12796              		.loc 1 1311 0
 12797              		.cfi_startproc
 12798              		@ args = 0, pretend = 0, frame = 8
 12799              		@ frame_needed = 1, uses_anonymous_args = 0
 12800              		@ link register save eliminated.
 12801 0000 80B4     		push	{r7}
 12802              	.LCFI43:
 12803              		.cfi_def_cfa_offset 4
 12804 0002 83B0     		sub	sp, sp, #12
 12805              	.LCFI44:
 12806              		.cfi_def_cfa_offset 16
 12807 0004 00AF     		add	r7, sp, #0
 12808              		.cfi_offset 7, -4
 12809              	.LCFI45:
 12810              		.cfi_def_cfa_register 7
 12811 0006 0346     		mov	r3, r0
 12812 0008 FB71     		strb	r3, [r7, #7]
1312:/home/cuil/workspace/arm/lm3s811/TI_Stellaris/driverlib/sysctl.c ****     //
1313:/home/cuil/workspace/arm/lm3s811/TI_Stellaris/driverlib/sysctl.c ****     // Enable peripheral clock gating as requested.
1314:/home/cuil/workspace/arm/lm3s811/TI_Stellaris/driverlib/sysctl.c ****     //
1315:/home/cuil/workspace/arm/lm3s811/TI_Stellaris/driverlib/sysctl.c ****     if(bEnable)
 12813              		.loc 1 1315 0
 12814 000a FB79     		ldrb	r3, [r7, #7]	@ zero_extendqisi2
 12815 000c 002B     		cmp	r3, #0
 12816 000e 06D0     		beq	.L76
1316:/home/cuil/workspace/arm/lm3s811/TI_Stellaris/driverlib/sysctl.c ****     {
1317:/home/cuil/workspace/arm/lm3s811/TI_Stellaris/driverlib/sysctl.c ****         HWREG(SYSCTL_RCC) |= SYSCTL_RCC_ACG;
 12817              		.loc 1 1317 0
 12818 0010 084B     		ldr	r3, .L78
 12819 0012 084A     		ldr	r2, .L78
 12820 0014 1268     		ldr	r2, [r2, #0]
 12821 0016 42F00062 		orr	r2, r2, #134217728
 12822 001a 1A60     		str	r2, [r3, #0]
 12823 001c 05E0     		b	.L75
 12824              	.L76:
1318:/home/cuil/workspace/arm/lm3s811/TI_Stellaris/driverlib/sysctl.c ****     }
1319:/home/cuil/workspace/arm/lm3s811/TI_Stellaris/driverlib/sysctl.c ****     else
1320:/home/cuil/workspace/arm/lm3s811/TI_Stellaris/driverlib/sysctl.c ****     {
1321:/home/cuil/workspace/arm/lm3s811/TI_Stellaris/driverlib/sysctl.c ****         HWREG(SYSCTL_RCC) &= ~(SYSCTL_RCC_ACG);
 12825              		.loc 1 1321 0
 12826 001e 054B     		ldr	r3, .L78
 12827 0020 044A     		ldr	r2, .L78
 12828 0022 1268     		ldr	r2, [r2, #0]
 12829 0024 22F00062 		bic	r2, r2, #134217728
 12830 0028 1A60     		str	r2, [r3, #0]
 12831              	.L75:
1322:/home/cuil/workspace/arm/lm3s811/TI_Stellaris/driverlib/sysctl.c ****     }
1323:/home/cuil/workspace/arm/lm3s811/TI_Stellaris/driverlib/sysctl.c **** }
 12832              		.loc 1 1323 0
 12833 002a 07F10C07 		add	r7, r7, #12
 12834 002e BD46     		mov	sp, r7
 12835 0030 80BC     		pop	{r7}
 12836 0032 7047     		bx	lr
 12837              	.L79:
 12838              		.align	2
 12839              	.L78:
 12840 0034 60E00F40 		.word	1074782304
 12841              		.cfi_endproc
 12842              	.LFE15:
 12844              		.section	.text.SysCtlIntRegister,"ax",%progbits
 12845              		.align	2
 12846              		.global	SysCtlIntRegister
 12847              		.thumb
 12848              		.thumb_func
 12850              	SysCtlIntRegister:
 12851              	.LFB16:
1324:/home/cuil/workspace/arm/lm3s811/TI_Stellaris/driverlib/sysctl.c **** 
1325:/home/cuil/workspace/arm/lm3s811/TI_Stellaris/driverlib/sysctl.c **** //*****************************************************************************
1326:/home/cuil/workspace/arm/lm3s811/TI_Stellaris/driverlib/sysctl.c **** //
1327:/home/cuil/workspace/arm/lm3s811/TI_Stellaris/driverlib/sysctl.c **** //! Registers an interrupt handler for the system control interrupt.
1328:/home/cuil/workspace/arm/lm3s811/TI_Stellaris/driverlib/sysctl.c **** //!
1329:/home/cuil/workspace/arm/lm3s811/TI_Stellaris/driverlib/sysctl.c **** //! \param pfnHandler is a pointer to the function to be called when the system
1330:/home/cuil/workspace/arm/lm3s811/TI_Stellaris/driverlib/sysctl.c **** //! control interrupt occurs.
1331:/home/cuil/workspace/arm/lm3s811/TI_Stellaris/driverlib/sysctl.c **** //!
1332:/home/cuil/workspace/arm/lm3s811/TI_Stellaris/driverlib/sysctl.c **** //! This function registers the handler to be called when a system control 
1333:/home/cuil/workspace/arm/lm3s811/TI_Stellaris/driverlib/sysctl.c **** //! interrupt occurs. This function enables the global interrupt in the 
1334:/home/cuil/workspace/arm/lm3s811/TI_Stellaris/driverlib/sysctl.c **** //! interrupt controller; specific system control interrupts must be enabled 
1335:/home/cuil/workspace/arm/lm3s811/TI_Stellaris/driverlib/sysctl.c **** //! via SysCtlIntEnable().  It is the interrupt handler's responsibility to 
1336:/home/cuil/workspace/arm/lm3s811/TI_Stellaris/driverlib/sysctl.c **** //! clear the interrupt source via SysCtlIntClear().
1337:/home/cuil/workspace/arm/lm3s811/TI_Stellaris/driverlib/sysctl.c **** //!
1338:/home/cuil/workspace/arm/lm3s811/TI_Stellaris/driverlib/sysctl.c **** //! System control can generate interrupts when the PLL achieves lock, if the
1339:/home/cuil/workspace/arm/lm3s811/TI_Stellaris/driverlib/sysctl.c **** //! internal LDO current limit is exceeded, if the internal oscillator fails,
1340:/home/cuil/workspace/arm/lm3s811/TI_Stellaris/driverlib/sysctl.c **** //! if the main oscillator fails, if the internal LDO output voltage droops too
1341:/home/cuil/workspace/arm/lm3s811/TI_Stellaris/driverlib/sysctl.c **** //! much, if the external voltage droops too much, or if the PLL fails. 
1342:/home/cuil/workspace/arm/lm3s811/TI_Stellaris/driverlib/sysctl.c **** //!
1343:/home/cuil/workspace/arm/lm3s811/TI_Stellaris/driverlib/sysctl.c **** //! \sa IntRegister() for important information about registering interrupt
1344:/home/cuil/workspace/arm/lm3s811/TI_Stellaris/driverlib/sysctl.c **** //! handlers.
1345:/home/cuil/workspace/arm/lm3s811/TI_Stellaris/driverlib/sysctl.c **** //!
1346:/home/cuil/workspace/arm/lm3s811/TI_Stellaris/driverlib/sysctl.c **** //! \note The events that cause system control interrupts vary based on the 
1347:/home/cuil/workspace/arm/lm3s811/TI_Stellaris/driverlib/sysctl.c **** //! Stellaris part in use.  Please consult the data sheet for the part you are 
1348:/home/cuil/workspace/arm/lm3s811/TI_Stellaris/driverlib/sysctl.c **** //! using to determine which interrupt sources are available.
1349:/home/cuil/workspace/arm/lm3s811/TI_Stellaris/driverlib/sysctl.c **** //!
1350:/home/cuil/workspace/arm/lm3s811/TI_Stellaris/driverlib/sysctl.c **** //! \return None.
1351:/home/cuil/workspace/arm/lm3s811/TI_Stellaris/driverlib/sysctl.c **** //
1352:/home/cuil/workspace/arm/lm3s811/TI_Stellaris/driverlib/sysctl.c **** //*****************************************************************************
1353:/home/cuil/workspace/arm/lm3s811/TI_Stellaris/driverlib/sysctl.c **** void
1354:/home/cuil/workspace/arm/lm3s811/TI_Stellaris/driverlib/sysctl.c **** SysCtlIntRegister(void (*pfnHandler)(void))
1355:/home/cuil/workspace/arm/lm3s811/TI_Stellaris/driverlib/sysctl.c **** {
 12852              		.loc 1 1355 0
 12853              		.cfi_startproc
 12854              		@ args = 0, pretend = 0, frame = 8
 12855              		@ frame_needed = 1, uses_anonymous_args = 0
 12856 0000 80B5     		push	{r7, lr}
 12857              	.LCFI46:
 12858              		.cfi_def_cfa_offset 8
 12859 0002 82B0     		sub	sp, sp, #8
 12860              	.LCFI47:
 12861              		.cfi_def_cfa_offset 16
 12862 0004 00AF     		add	r7, sp, #0
 12863              		.cfi_offset 14, -4
 12864              		.cfi_offset 7, -8
 12865              	.LCFI48:
 12866              		.cfi_def_cfa_register 7
 12867 0006 7860     		str	r0, [r7, #4]
1356:/home/cuil/workspace/arm/lm3s811/TI_Stellaris/driverlib/sysctl.c ****     //
1357:/home/cuil/workspace/arm/lm3s811/TI_Stellaris/driverlib/sysctl.c ****     // Register the interrupt handler, returning an error if an error occurs.
1358:/home/cuil/workspace/arm/lm3s811/TI_Stellaris/driverlib/sysctl.c ****     //
1359:/home/cuil/workspace/arm/lm3s811/TI_Stellaris/driverlib/sysctl.c ****     IntRegister(INT_SYSCTL, pfnHandler);
 12868              		.loc 1 1359 0
 12869 0008 4FF02C00 		mov	r0, #44
 12870 000c 7968     		ldr	r1, [r7, #4]
 12871 000e FFF7FEFF 		bl	IntRegister
1360:/home/cuil/workspace/arm/lm3s811/TI_Stellaris/driverlib/sysctl.c **** 
1361:/home/cuil/workspace/arm/lm3s811/TI_Stellaris/driverlib/sysctl.c ****     //
1362:/home/cuil/workspace/arm/lm3s811/TI_Stellaris/driverlib/sysctl.c ****     // Enable the system control interrupt.
1363:/home/cuil/workspace/arm/lm3s811/TI_Stellaris/driverlib/sysctl.c ****     //
1364:/home/cuil/workspace/arm/lm3s811/TI_Stellaris/driverlib/sysctl.c ****     IntEnable(INT_SYSCTL);
 12872              		.loc 1 1364 0
 12873 0012 4FF02C00 		mov	r0, #44
 12874 0016 FFF7FEFF 		bl	IntEnable
1365:/home/cuil/workspace/arm/lm3s811/TI_Stellaris/driverlib/sysctl.c **** }
 12875              		.loc 1 1365 0
 12876 001a 07F10807 		add	r7, r7, #8
 12877 001e BD46     		mov	sp, r7
 12878 0020 80BD     		pop	{r7, pc}
 12879              		.cfi_endproc
 12880              	.LFE16:
 12882 0022 00BF     		.section	.text.SysCtlIntUnregister,"ax",%progbits
 12883              		.align	2
 12884              		.global	SysCtlIntUnregister
 12885              		.thumb
 12886              		.thumb_func
 12888              	SysCtlIntUnregister:
 12889              	.LFB17:
1366:/home/cuil/workspace/arm/lm3s811/TI_Stellaris/driverlib/sysctl.c **** 
1367:/home/cuil/workspace/arm/lm3s811/TI_Stellaris/driverlib/sysctl.c **** //*****************************************************************************
1368:/home/cuil/workspace/arm/lm3s811/TI_Stellaris/driverlib/sysctl.c **** //
1369:/home/cuil/workspace/arm/lm3s811/TI_Stellaris/driverlib/sysctl.c **** //! Unregisters the interrupt handler for the system control interrupt.
1370:/home/cuil/workspace/arm/lm3s811/TI_Stellaris/driverlib/sysctl.c **** //!
1371:/home/cuil/workspace/arm/lm3s811/TI_Stellaris/driverlib/sysctl.c **** //! This function unregisters the handler to be called when a system control
1372:/home/cuil/workspace/arm/lm3s811/TI_Stellaris/driverlib/sysctl.c **** //! interrupt occurs.  This function also masks off the interrupt in the 
1373:/home/cuil/workspace/arm/lm3s811/TI_Stellaris/driverlib/sysctl.c **** //! interrupt controller so that the interrupt handler no longer is called.
1374:/home/cuil/workspace/arm/lm3s811/TI_Stellaris/driverlib/sysctl.c **** //!
1375:/home/cuil/workspace/arm/lm3s811/TI_Stellaris/driverlib/sysctl.c **** //! \sa IntRegister() for important information about registering interrupt
1376:/home/cuil/workspace/arm/lm3s811/TI_Stellaris/driverlib/sysctl.c **** //! handlers.
1377:/home/cuil/workspace/arm/lm3s811/TI_Stellaris/driverlib/sysctl.c **** //!
1378:/home/cuil/workspace/arm/lm3s811/TI_Stellaris/driverlib/sysctl.c **** //! \return None.
1379:/home/cuil/workspace/arm/lm3s811/TI_Stellaris/driverlib/sysctl.c **** //
1380:/home/cuil/workspace/arm/lm3s811/TI_Stellaris/driverlib/sysctl.c **** //*****************************************************************************
1381:/home/cuil/workspace/arm/lm3s811/TI_Stellaris/driverlib/sysctl.c **** void
1382:/home/cuil/workspace/arm/lm3s811/TI_Stellaris/driverlib/sysctl.c **** SysCtlIntUnregister(void)
1383:/home/cuil/workspace/arm/lm3s811/TI_Stellaris/driverlib/sysctl.c **** {
 12890              		.loc 1 1383 0
 12891              		.cfi_startproc
 12892              		@ args = 0, pretend = 0, frame = 0
 12893              		@ frame_needed = 1, uses_anonymous_args = 0
 12894 0000 80B5     		push	{r7, lr}
 12895              	.LCFI49:
 12896              		.cfi_def_cfa_offset 8
 12897 0002 00AF     		add	r7, sp, #0
 12898              		.cfi_offset 14, -4
 12899              		.cfi_offset 7, -8
 12900              	.LCFI50:
 12901              		.cfi_def_cfa_register 7
1384:/home/cuil/workspace/arm/lm3s811/TI_Stellaris/driverlib/sysctl.c ****     //
1385:/home/cuil/workspace/arm/lm3s811/TI_Stellaris/driverlib/sysctl.c ****     // Disable the interrupt.
1386:/home/cuil/workspace/arm/lm3s811/TI_Stellaris/driverlib/sysctl.c ****     //
1387:/home/cuil/workspace/arm/lm3s811/TI_Stellaris/driverlib/sysctl.c ****     IntDisable(INT_SYSCTL);
 12902              		.loc 1 1387 0
 12903 0004 4FF02C00 		mov	r0, #44
 12904 0008 FFF7FEFF 		bl	IntDisable
1388:/home/cuil/workspace/arm/lm3s811/TI_Stellaris/driverlib/sysctl.c **** 
1389:/home/cuil/workspace/arm/lm3s811/TI_Stellaris/driverlib/sysctl.c ****     //
1390:/home/cuil/workspace/arm/lm3s811/TI_Stellaris/driverlib/sysctl.c ****     // Unregister the interrupt handler.
1391:/home/cuil/workspace/arm/lm3s811/TI_Stellaris/driverlib/sysctl.c ****     //
1392:/home/cuil/workspace/arm/lm3s811/TI_Stellaris/driverlib/sysctl.c ****     IntUnregister(INT_SYSCTL);
 12905              		.loc 1 1392 0
 12906 000c 4FF02C00 		mov	r0, #44
 12907 0010 FFF7FEFF 		bl	IntUnregister
1393:/home/cuil/workspace/arm/lm3s811/TI_Stellaris/driverlib/sysctl.c **** }
 12908              		.loc 1 1393 0
 12909 0014 80BD     		pop	{r7, pc}
 12910              		.cfi_endproc
 12911              	.LFE17:
 12913 0016 00BF     		.section	.text.SysCtlIntEnable,"ax",%progbits
 12914              		.align	2
 12915              		.global	SysCtlIntEnable
 12916              		.thumb
 12917              		.thumb_func
 12919              	SysCtlIntEnable:
 12920              	.LFB18:
1394:/home/cuil/workspace/arm/lm3s811/TI_Stellaris/driverlib/sysctl.c **** 
1395:/home/cuil/workspace/arm/lm3s811/TI_Stellaris/driverlib/sysctl.c **** //*****************************************************************************
1396:/home/cuil/workspace/arm/lm3s811/TI_Stellaris/driverlib/sysctl.c **** //
1397:/home/cuil/workspace/arm/lm3s811/TI_Stellaris/driverlib/sysctl.c **** //! Enables individual system control interrupt sources.
1398:/home/cuil/workspace/arm/lm3s811/TI_Stellaris/driverlib/sysctl.c **** //!
1399:/home/cuil/workspace/arm/lm3s811/TI_Stellaris/driverlib/sysctl.c **** //! \param ulInts is a bit mask of the interrupt sources to be enabled.  Must
1400:/home/cuil/workspace/arm/lm3s811/TI_Stellaris/driverlib/sysctl.c **** //! be a logical OR of \b SYSCTL_INT_PLL_LOCK, \b SYSCTL_INT_CUR_LIMIT,
1401:/home/cuil/workspace/arm/lm3s811/TI_Stellaris/driverlib/sysctl.c **** //! \b SYSCTL_INT_IOSC_FAIL, \b SYSCTL_INT_MOSC_FAIL, \b SYSCTL_INT_POR,
1402:/home/cuil/workspace/arm/lm3s811/TI_Stellaris/driverlib/sysctl.c **** //! \b SYSCTL_INT_BOR, and/or \b SYSCTL_INT_PLL_FAIL.
1403:/home/cuil/workspace/arm/lm3s811/TI_Stellaris/driverlib/sysctl.c **** //!
1404:/home/cuil/workspace/arm/lm3s811/TI_Stellaris/driverlib/sysctl.c **** //! This function enables the indicated system control interrupt sources.  Only 
1405:/home/cuil/workspace/arm/lm3s811/TI_Stellaris/driverlib/sysctl.c **** //! the sources that are enabled can be reflected to the processor interrupt; 
1406:/home/cuil/workspace/arm/lm3s811/TI_Stellaris/driverlib/sysctl.c **** //! disabled sources have no effect on the processor.
1407:/home/cuil/workspace/arm/lm3s811/TI_Stellaris/driverlib/sysctl.c **** //!
1408:/home/cuil/workspace/arm/lm3s811/TI_Stellaris/driverlib/sysctl.c **** //! \note The interrupt sources vary based on the Stellaris part in use.  
1409:/home/cuil/workspace/arm/lm3s811/TI_Stellaris/driverlib/sysctl.c **** //! Please consult the data sheet for the part you are using to determine
1410:/home/cuil/workspace/arm/lm3s811/TI_Stellaris/driverlib/sysctl.c **** //! which interrupt sources are available.
1411:/home/cuil/workspace/arm/lm3s811/TI_Stellaris/driverlib/sysctl.c **** //!
1412:/home/cuil/workspace/arm/lm3s811/TI_Stellaris/driverlib/sysctl.c **** //! \return None.
1413:/home/cuil/workspace/arm/lm3s811/TI_Stellaris/driverlib/sysctl.c **** //
1414:/home/cuil/workspace/arm/lm3s811/TI_Stellaris/driverlib/sysctl.c **** //*****************************************************************************
1415:/home/cuil/workspace/arm/lm3s811/TI_Stellaris/driverlib/sysctl.c **** void
1416:/home/cuil/workspace/arm/lm3s811/TI_Stellaris/driverlib/sysctl.c **** SysCtlIntEnable(unsigned long ulInts)
1417:/home/cuil/workspace/arm/lm3s811/TI_Stellaris/driverlib/sysctl.c **** {
 12921              		.loc 1 1417 0
 12922              		.cfi_startproc
 12923              		@ args = 0, pretend = 0, frame = 8
 12924              		@ frame_needed = 1, uses_anonymous_args = 0
 12925              		@ link register save eliminated.
 12926 0000 80B4     		push	{r7}
 12927              	.LCFI51:
 12928              		.cfi_def_cfa_offset 4
 12929 0002 83B0     		sub	sp, sp, #12
 12930              	.LCFI52:
 12931              		.cfi_def_cfa_offset 16
 12932 0004 00AF     		add	r7, sp, #0
 12933              		.cfi_offset 7, -4
 12934              	.LCFI53:
 12935              		.cfi_def_cfa_register 7
 12936 0006 7860     		str	r0, [r7, #4]
1418:/home/cuil/workspace/arm/lm3s811/TI_Stellaris/driverlib/sysctl.c ****     //
1419:/home/cuil/workspace/arm/lm3s811/TI_Stellaris/driverlib/sysctl.c ****     // Enable the specified interrupts.
1420:/home/cuil/workspace/arm/lm3s811/TI_Stellaris/driverlib/sysctl.c ****     //
1421:/home/cuil/workspace/arm/lm3s811/TI_Stellaris/driverlib/sysctl.c ****     HWREG(SYSCTL_IMC) |= ulInts;
 12937              		.loc 1 1421 0
 12938 0008 054B     		ldr	r3, .L83
 12939 000a 054A     		ldr	r2, .L83
 12940 000c 1168     		ldr	r1, [r2, #0]
 12941 000e 7A68     		ldr	r2, [r7, #4]
 12942 0010 41EA0202 		orr	r2, r1, r2
 12943 0014 1A60     		str	r2, [r3, #0]
1422:/home/cuil/workspace/arm/lm3s811/TI_Stellaris/driverlib/sysctl.c **** }
 12944              		.loc 1 1422 0
 12945 0016 07F10C07 		add	r7, r7, #12
 12946 001a BD46     		mov	sp, r7
 12947 001c 80BC     		pop	{r7}
 12948 001e 7047     		bx	lr
 12949              	.L84:
 12950              		.align	2
 12951              	.L83:
 12952 0020 54E00F40 		.word	1074782292
 12953              		.cfi_endproc
 12954              	.LFE18:
 12956              		.section	.text.SysCtlIntDisable,"ax",%progbits
 12957              		.align	2
 12958              		.global	SysCtlIntDisable
 12959              		.thumb
 12960              		.thumb_func
 12962              	SysCtlIntDisable:
 12963              	.LFB19:
1423:/home/cuil/workspace/arm/lm3s811/TI_Stellaris/driverlib/sysctl.c **** 
1424:/home/cuil/workspace/arm/lm3s811/TI_Stellaris/driverlib/sysctl.c **** //*****************************************************************************
1425:/home/cuil/workspace/arm/lm3s811/TI_Stellaris/driverlib/sysctl.c **** //
1426:/home/cuil/workspace/arm/lm3s811/TI_Stellaris/driverlib/sysctl.c **** //! Disables individual system control interrupt sources.
1427:/home/cuil/workspace/arm/lm3s811/TI_Stellaris/driverlib/sysctl.c **** //!
1428:/home/cuil/workspace/arm/lm3s811/TI_Stellaris/driverlib/sysctl.c **** //! \param ulInts is a bit mask of the interrupt sources to be disabled.  Must
1429:/home/cuil/workspace/arm/lm3s811/TI_Stellaris/driverlib/sysctl.c **** //! be a logical OR of \b SYSCTL_INT_PLL_LOCK, \b SYSCTL_INT_CUR_LIMIT,
1430:/home/cuil/workspace/arm/lm3s811/TI_Stellaris/driverlib/sysctl.c **** //! \b SYSCTL_INT_IOSC_FAIL, \b SYSCTL_INT_MOSC_FAIL, \b SYSCTL_INT_POR,
1431:/home/cuil/workspace/arm/lm3s811/TI_Stellaris/driverlib/sysctl.c **** //! \b SYSCTL_INT_BOR, and/or \b SYSCTL_INT_PLL_FAIL.
1432:/home/cuil/workspace/arm/lm3s811/TI_Stellaris/driverlib/sysctl.c **** //!
1433:/home/cuil/workspace/arm/lm3s811/TI_Stellaris/driverlib/sysctl.c **** //! This function disables the indicated system control interrupt sources.  
1434:/home/cuil/workspace/arm/lm3s811/TI_Stellaris/driverlib/sysctl.c **** //! Only the sources that are enabled can be reflected to the processor 
1435:/home/cuil/workspace/arm/lm3s811/TI_Stellaris/driverlib/sysctl.c **** //! interrupt; disabled sources have no effect on the processor.
1436:/home/cuil/workspace/arm/lm3s811/TI_Stellaris/driverlib/sysctl.c **** //!
1437:/home/cuil/workspace/arm/lm3s811/TI_Stellaris/driverlib/sysctl.c **** //! \note The interrupt sources vary based on the Stellaris part in use.  
1438:/home/cuil/workspace/arm/lm3s811/TI_Stellaris/driverlib/sysctl.c **** //! Please consult the data sheet for the part you are using to determine
1439:/home/cuil/workspace/arm/lm3s811/TI_Stellaris/driverlib/sysctl.c **** //! which interrupt sources are available.
1440:/home/cuil/workspace/arm/lm3s811/TI_Stellaris/driverlib/sysctl.c **** //!
1441:/home/cuil/workspace/arm/lm3s811/TI_Stellaris/driverlib/sysctl.c **** //! \return None.
1442:/home/cuil/workspace/arm/lm3s811/TI_Stellaris/driverlib/sysctl.c **** //
1443:/home/cuil/workspace/arm/lm3s811/TI_Stellaris/driverlib/sysctl.c **** //*****************************************************************************
1444:/home/cuil/workspace/arm/lm3s811/TI_Stellaris/driverlib/sysctl.c **** void
1445:/home/cuil/workspace/arm/lm3s811/TI_Stellaris/driverlib/sysctl.c **** SysCtlIntDisable(unsigned long ulInts)
1446:/home/cuil/workspace/arm/lm3s811/TI_Stellaris/driverlib/sysctl.c **** {
 12964              		.loc 1 1446 0
 12965              		.cfi_startproc
 12966              		@ args = 0, pretend = 0, frame = 8
 12967              		@ frame_needed = 1, uses_anonymous_args = 0
 12968              		@ link register save eliminated.
 12969 0000 80B4     		push	{r7}
 12970              	.LCFI54:
 12971              		.cfi_def_cfa_offset 4
 12972 0002 83B0     		sub	sp, sp, #12
 12973              	.LCFI55:
 12974              		.cfi_def_cfa_offset 16
 12975 0004 00AF     		add	r7, sp, #0
 12976              		.cfi_offset 7, -4
 12977              	.LCFI56:
 12978              		.cfi_def_cfa_register 7
 12979 0006 7860     		str	r0, [r7, #4]
1447:/home/cuil/workspace/arm/lm3s811/TI_Stellaris/driverlib/sysctl.c ****     //
1448:/home/cuil/workspace/arm/lm3s811/TI_Stellaris/driverlib/sysctl.c ****     // Disable the specified interrupts.
1449:/home/cuil/workspace/arm/lm3s811/TI_Stellaris/driverlib/sysctl.c ****     //
1450:/home/cuil/workspace/arm/lm3s811/TI_Stellaris/driverlib/sysctl.c ****     HWREG(SYSCTL_IMC) &= ~(ulInts);
 12980              		.loc 1 1450 0
 12981 0008 064B     		ldr	r3, .L86
 12982 000a 064A     		ldr	r2, .L86
 12983 000c 1168     		ldr	r1, [r2, #0]
 12984 000e 7A68     		ldr	r2, [r7, #4]
 12985 0010 6FEA0202 		mvn	r2, r2
 12986 0014 01EA0202 		and	r2, r1, r2
 12987 0018 1A60     		str	r2, [r3, #0]
1451:/home/cuil/workspace/arm/lm3s811/TI_Stellaris/driverlib/sysctl.c **** }
 12988              		.loc 1 1451 0
 12989 001a 07F10C07 		add	r7, r7, #12
 12990 001e BD46     		mov	sp, r7
 12991 0020 80BC     		pop	{r7}
 12992 0022 7047     		bx	lr
 12993              	.L87:
 12994              		.align	2
 12995              	.L86:
 12996 0024 54E00F40 		.word	1074782292
 12997              		.cfi_endproc
 12998              	.LFE19:
 13000              		.section	.text.SysCtlIntClear,"ax",%progbits
 13001              		.align	2
 13002              		.global	SysCtlIntClear
 13003              		.thumb
 13004              		.thumb_func
 13006              	SysCtlIntClear:
 13007              	.LFB20:
1452:/home/cuil/workspace/arm/lm3s811/TI_Stellaris/driverlib/sysctl.c **** 
1453:/home/cuil/workspace/arm/lm3s811/TI_Stellaris/driverlib/sysctl.c **** //*****************************************************************************
1454:/home/cuil/workspace/arm/lm3s811/TI_Stellaris/driverlib/sysctl.c **** //
1455:/home/cuil/workspace/arm/lm3s811/TI_Stellaris/driverlib/sysctl.c **** //! Clears system control interrupt sources.
1456:/home/cuil/workspace/arm/lm3s811/TI_Stellaris/driverlib/sysctl.c **** //!
1457:/home/cuil/workspace/arm/lm3s811/TI_Stellaris/driverlib/sysctl.c **** //! \param ulInts is a bit mask of the interrupt sources to be cleared.  Must
1458:/home/cuil/workspace/arm/lm3s811/TI_Stellaris/driverlib/sysctl.c **** //! be a logical OR of \b SYSCTL_INT_PLL_LOCK, \b SYSCTL_INT_CUR_LIMIT,
1459:/home/cuil/workspace/arm/lm3s811/TI_Stellaris/driverlib/sysctl.c **** //! \b SYSCTL_INT_IOSC_FAIL, \b SYSCTL_INT_MOSC_FAIL, \b SYSCTL_INT_POR,
1460:/home/cuil/workspace/arm/lm3s811/TI_Stellaris/driverlib/sysctl.c **** //! \b SYSCTL_INT_BOR, and/or \b SYSCTL_INT_PLL_FAIL.
1461:/home/cuil/workspace/arm/lm3s811/TI_Stellaris/driverlib/sysctl.c **** //!
1462:/home/cuil/workspace/arm/lm3s811/TI_Stellaris/driverlib/sysctl.c **** //! The specified system control interrupt sources are cleared, so that they no
1463:/home/cuil/workspace/arm/lm3s811/TI_Stellaris/driverlib/sysctl.c **** //! longer assert.  This function must be called in the interrupt handler to 
1464:/home/cuil/workspace/arm/lm3s811/TI_Stellaris/driverlib/sysctl.c **** //! keep it from being called again immediately upon exit.
1465:/home/cuil/workspace/arm/lm3s811/TI_Stellaris/driverlib/sysctl.c **** //!
1466:/home/cuil/workspace/arm/lm3s811/TI_Stellaris/driverlib/sysctl.c **** //! \note Because there is a write buffer in the Cortex-M processor, it may
1467:/home/cuil/workspace/arm/lm3s811/TI_Stellaris/driverlib/sysctl.c **** //! take several clock cycles before the interrupt source is actually cleared.
1468:/home/cuil/workspace/arm/lm3s811/TI_Stellaris/driverlib/sysctl.c **** //! Therefore, it is recommended that the interrupt source be cleared early in
1469:/home/cuil/workspace/arm/lm3s811/TI_Stellaris/driverlib/sysctl.c **** //! the interrupt handler (as opposed to the very last action) to avoid
1470:/home/cuil/workspace/arm/lm3s811/TI_Stellaris/driverlib/sysctl.c **** //! returning from the interrupt handler before the interrupt source is
1471:/home/cuil/workspace/arm/lm3s811/TI_Stellaris/driverlib/sysctl.c **** //! actually cleared.  Failure to do so may result in the interrupt handler
1472:/home/cuil/workspace/arm/lm3s811/TI_Stellaris/driverlib/sysctl.c **** //! being immediately reentered (because the interrupt controller still sees
1473:/home/cuil/workspace/arm/lm3s811/TI_Stellaris/driverlib/sysctl.c **** //! the interrupt source asserted).
1474:/home/cuil/workspace/arm/lm3s811/TI_Stellaris/driverlib/sysctl.c **** //!
1475:/home/cuil/workspace/arm/lm3s811/TI_Stellaris/driverlib/sysctl.c **** //! \note The interrupt sources vary based on the Stellaris part in use.  
1476:/home/cuil/workspace/arm/lm3s811/TI_Stellaris/driverlib/sysctl.c **** //! Please consult the data sheet for the part you are using to determine
1477:/home/cuil/workspace/arm/lm3s811/TI_Stellaris/driverlib/sysctl.c **** //! which interrupt sources are available.
1478:/home/cuil/workspace/arm/lm3s811/TI_Stellaris/driverlib/sysctl.c **** //!
1479:/home/cuil/workspace/arm/lm3s811/TI_Stellaris/driverlib/sysctl.c **** //! \return None.
1480:/home/cuil/workspace/arm/lm3s811/TI_Stellaris/driverlib/sysctl.c **** //
1481:/home/cuil/workspace/arm/lm3s811/TI_Stellaris/driverlib/sysctl.c **** //*****************************************************************************
1482:/home/cuil/workspace/arm/lm3s811/TI_Stellaris/driverlib/sysctl.c **** void
1483:/home/cuil/workspace/arm/lm3s811/TI_Stellaris/driverlib/sysctl.c **** SysCtlIntClear(unsigned long ulInts)
1484:/home/cuil/workspace/arm/lm3s811/TI_Stellaris/driverlib/sysctl.c **** {
 13008              		.loc 1 1484 0
 13009              		.cfi_startproc
 13010              		@ args = 0, pretend = 0, frame = 8
 13011              		@ frame_needed = 1, uses_anonymous_args = 0
 13012              		@ link register save eliminated.
 13013 0000 80B4     		push	{r7}
 13014              	.LCFI57:
 13015              		.cfi_def_cfa_offset 4
 13016 0002 83B0     		sub	sp, sp, #12
 13017              	.LCFI58:
 13018              		.cfi_def_cfa_offset 16
 13019 0004 00AF     		add	r7, sp, #0
 13020              		.cfi_offset 7, -4
 13021              	.LCFI59:
 13022              		.cfi_def_cfa_register 7
 13023 0006 7860     		str	r0, [r7, #4]
1485:/home/cuil/workspace/arm/lm3s811/TI_Stellaris/driverlib/sysctl.c ****     //
1486:/home/cuil/workspace/arm/lm3s811/TI_Stellaris/driverlib/sysctl.c ****     // Clear the requested interrupt sources.
1487:/home/cuil/workspace/arm/lm3s811/TI_Stellaris/driverlib/sysctl.c ****     //
1488:/home/cuil/workspace/arm/lm3s811/TI_Stellaris/driverlib/sysctl.c ****     HWREG(SYSCTL_MISC) = ulInts;
 13024              		.loc 1 1488 0
 13025 0008 034B     		ldr	r3, .L89
 13026 000a 7A68     		ldr	r2, [r7, #4]
 13027 000c 1A60     		str	r2, [r3, #0]
1489:/home/cuil/workspace/arm/lm3s811/TI_Stellaris/driverlib/sysctl.c **** }
 13028              		.loc 1 1489 0
 13029 000e 07F10C07 		add	r7, r7, #12
 13030 0012 BD46     		mov	sp, r7
 13031 0014 80BC     		pop	{r7}
 13032 0016 7047     		bx	lr
 13033              	.L90:
 13034              		.align	2
 13035              	.L89:
 13036 0018 58E00F40 		.word	1074782296
 13037              		.cfi_endproc
 13038              	.LFE20:
 13040              		.section	.text.SysCtlIntStatus,"ax",%progbits
 13041              		.align	2
 13042              		.global	SysCtlIntStatus
 13043              		.thumb
 13044              		.thumb_func
 13046              	SysCtlIntStatus:
 13047              	.LFB21:
1490:/home/cuil/workspace/arm/lm3s811/TI_Stellaris/driverlib/sysctl.c **** 
1491:/home/cuil/workspace/arm/lm3s811/TI_Stellaris/driverlib/sysctl.c **** //*****************************************************************************
1492:/home/cuil/workspace/arm/lm3s811/TI_Stellaris/driverlib/sysctl.c **** //
1493:/home/cuil/workspace/arm/lm3s811/TI_Stellaris/driverlib/sysctl.c **** //! Gets the current interrupt status.
1494:/home/cuil/workspace/arm/lm3s811/TI_Stellaris/driverlib/sysctl.c **** //!
1495:/home/cuil/workspace/arm/lm3s811/TI_Stellaris/driverlib/sysctl.c **** //! \param bMasked is false if the raw interrupt status is required and true if
1496:/home/cuil/workspace/arm/lm3s811/TI_Stellaris/driverlib/sysctl.c **** //! the masked interrupt status is required.
1497:/home/cuil/workspace/arm/lm3s811/TI_Stellaris/driverlib/sysctl.c **** //!
1498:/home/cuil/workspace/arm/lm3s811/TI_Stellaris/driverlib/sysctl.c **** //! This function returns the interrupt status for the system controller.  
1499:/home/cuil/workspace/arm/lm3s811/TI_Stellaris/driverlib/sysctl.c **** //! Either the raw interrupt status or the status of interrupts that are
1500:/home/cuil/workspace/arm/lm3s811/TI_Stellaris/driverlib/sysctl.c **** //! allowed to reflect to the processor can be returned.
1501:/home/cuil/workspace/arm/lm3s811/TI_Stellaris/driverlib/sysctl.c **** //!
1502:/home/cuil/workspace/arm/lm3s811/TI_Stellaris/driverlib/sysctl.c **** //! \return The current interrupt status, enumerated as a bit field of
1503:/home/cuil/workspace/arm/lm3s811/TI_Stellaris/driverlib/sysctl.c **** //! \b SYSCTL_INT_PLL_LOCK, \b SYSCTL_INT_CUR_LIMIT, \b SYSCTL_INT_IOSC_FAIL,
1504:/home/cuil/workspace/arm/lm3s811/TI_Stellaris/driverlib/sysctl.c **** //! \b SYSCTL_INT_MOSC_FAIL, \b SYSCTL_INT_POR, \b SYSCTL_INT_BOR, and
1505:/home/cuil/workspace/arm/lm3s811/TI_Stellaris/driverlib/sysctl.c **** //! \b SYSCTL_INT_PLL_FAIL.
1506:/home/cuil/workspace/arm/lm3s811/TI_Stellaris/driverlib/sysctl.c **** //!
1507:/home/cuil/workspace/arm/lm3s811/TI_Stellaris/driverlib/sysctl.c **** //! \note The interrupt sources vary based on the Stellaris part in use.  
1508:/home/cuil/workspace/arm/lm3s811/TI_Stellaris/driverlib/sysctl.c **** //! Please consult the data sheet for the part you are using to determine
1509:/home/cuil/workspace/arm/lm3s811/TI_Stellaris/driverlib/sysctl.c **** //! which interrupt sources are available.
1510:/home/cuil/workspace/arm/lm3s811/TI_Stellaris/driverlib/sysctl.c **** //
1511:/home/cuil/workspace/arm/lm3s811/TI_Stellaris/driverlib/sysctl.c **** //*****************************************************************************
1512:/home/cuil/workspace/arm/lm3s811/TI_Stellaris/driverlib/sysctl.c **** unsigned long
1513:/home/cuil/workspace/arm/lm3s811/TI_Stellaris/driverlib/sysctl.c **** SysCtlIntStatus(tBoolean bMasked)
1514:/home/cuil/workspace/arm/lm3s811/TI_Stellaris/driverlib/sysctl.c **** {
 13048              		.loc 1 1514 0
 13049              		.cfi_startproc
 13050              		@ args = 0, pretend = 0, frame = 8
 13051              		@ frame_needed = 1, uses_anonymous_args = 0
 13052              		@ link register save eliminated.
 13053 0000 80B4     		push	{r7}
 13054              	.LCFI60:
 13055              		.cfi_def_cfa_offset 4
 13056 0002 83B0     		sub	sp, sp, #12
 13057              	.LCFI61:
 13058              		.cfi_def_cfa_offset 16
 13059 0004 00AF     		add	r7, sp, #0
 13060              		.cfi_offset 7, -4
 13061              	.LCFI62:
 13062              		.cfi_def_cfa_register 7
 13063 0006 0346     		mov	r3, r0
 13064 0008 FB71     		strb	r3, [r7, #7]
1515:/home/cuil/workspace/arm/lm3s811/TI_Stellaris/driverlib/sysctl.c ****     //
1516:/home/cuil/workspace/arm/lm3s811/TI_Stellaris/driverlib/sysctl.c ****     // Return either the interrupt status or the raw interrupt status as
1517:/home/cuil/workspace/arm/lm3s811/TI_Stellaris/driverlib/sysctl.c ****     // requested.
1518:/home/cuil/workspace/arm/lm3s811/TI_Stellaris/driverlib/sysctl.c ****     //
1519:/home/cuil/workspace/arm/lm3s811/TI_Stellaris/driverlib/sysctl.c ****     if(bMasked)
 13065              		.loc 1 1519 0
 13066 000a FB79     		ldrb	r3, [r7, #7]	@ zero_extendqisi2
 13067 000c 002B     		cmp	r3, #0
 13068 000e 02D0     		beq	.L92
1520:/home/cuil/workspace/arm/lm3s811/TI_Stellaris/driverlib/sysctl.c ****     {
1521:/home/cuil/workspace/arm/lm3s811/TI_Stellaris/driverlib/sysctl.c ****         return(HWREG(SYSCTL_MISC));
 13069              		.loc 1 1521 0
 13070 0010 054B     		ldr	r3, .L94
 13071 0012 1B68     		ldr	r3, [r3, #0]
 13072 0014 01E0     		b	.L93
 13073              	.L92:
1522:/home/cuil/workspace/arm/lm3s811/TI_Stellaris/driverlib/sysctl.c ****     }
1523:/home/cuil/workspace/arm/lm3s811/TI_Stellaris/driverlib/sysctl.c ****     else
1524:/home/cuil/workspace/arm/lm3s811/TI_Stellaris/driverlib/sysctl.c ****     {
1525:/home/cuil/workspace/arm/lm3s811/TI_Stellaris/driverlib/sysctl.c ****         return(HWREG(SYSCTL_RIS));
 13074              		.loc 1 1525 0
 13075 0016 054B     		ldr	r3, .L94+4
 13076 0018 1B68     		ldr	r3, [r3, #0]
 13077              	.L93:
1526:/home/cuil/workspace/arm/lm3s811/TI_Stellaris/driverlib/sysctl.c ****     }
1527:/home/cuil/workspace/arm/lm3s811/TI_Stellaris/driverlib/sysctl.c **** }
 13078              		.loc 1 1527 0
 13079 001a 1846     		mov	r0, r3
 13080 001c 07F10C07 		add	r7, r7, #12
 13081 0020 BD46     		mov	sp, r7
 13082 0022 80BC     		pop	{r7}
 13083 0024 7047     		bx	lr
 13084              	.L95:
 13085 0026 00BF     		.align	2
 13086              	.L94:
 13087 0028 58E00F40 		.word	1074782296
 13088 002c 50E00F40 		.word	1074782288
 13089              		.cfi_endproc
 13090              	.LFE21:
 13092              		.section	.text.SysCtlLDOSet,"ax",%progbits
 13093              		.align	2
 13094              		.global	SysCtlLDOSet
 13095              		.thumb
 13096              		.thumb_func
 13098              	SysCtlLDOSet:
 13099              	.LFB22:
1528:/home/cuil/workspace/arm/lm3s811/TI_Stellaris/driverlib/sysctl.c **** 
1529:/home/cuil/workspace/arm/lm3s811/TI_Stellaris/driverlib/sysctl.c **** //*****************************************************************************
1530:/home/cuil/workspace/arm/lm3s811/TI_Stellaris/driverlib/sysctl.c **** //
1531:/home/cuil/workspace/arm/lm3s811/TI_Stellaris/driverlib/sysctl.c **** //! Sets the output voltage of the LDO.
1532:/home/cuil/workspace/arm/lm3s811/TI_Stellaris/driverlib/sysctl.c **** //!
1533:/home/cuil/workspace/arm/lm3s811/TI_Stellaris/driverlib/sysctl.c **** //! \param ulVoltage is the required output voltage from the LDO.  Must be one
1534:/home/cuil/workspace/arm/lm3s811/TI_Stellaris/driverlib/sysctl.c **** //! of \b SYSCTL_LDO_2_25V, \b SYSCTL_LDO_2_30V, \b SYSCTL_LDO_2_35V,
1535:/home/cuil/workspace/arm/lm3s811/TI_Stellaris/driverlib/sysctl.c **** //! \b SYSCTL_LDO_2_40V, \b SYSCTL_LDO_2_45V, \b SYSCTL_LDO_2_50V,
1536:/home/cuil/workspace/arm/lm3s811/TI_Stellaris/driverlib/sysctl.c **** //! \b SYSCTL_LDO_2_55V, \b SYSCTL_LDO_2_60V, \b SYSCTL_LDO_2_65V,
1537:/home/cuil/workspace/arm/lm3s811/TI_Stellaris/driverlib/sysctl.c **** //! \b SYSCTL_LDO_2_70V, or \b SYSCTL_LDO_2_75V.
1538:/home/cuil/workspace/arm/lm3s811/TI_Stellaris/driverlib/sysctl.c **** //!
1539:/home/cuil/workspace/arm/lm3s811/TI_Stellaris/driverlib/sysctl.c **** //! This function sets the output voltage of the LDO.
1540:/home/cuil/workspace/arm/lm3s811/TI_Stellaris/driverlib/sysctl.c **** //!
1541:/home/cuil/workspace/arm/lm3s811/TI_Stellaris/driverlib/sysctl.c **** //! \note The default LDO voltage and the adjustment range varies with the
1542:/home/cuil/workspace/arm/lm3s811/TI_Stellaris/driverlib/sysctl.c **** //! Stellaris part in use.  Please consult the datasheet for the part you are
1543:/home/cuil/workspace/arm/lm3s811/TI_Stellaris/driverlib/sysctl.c **** //! using to determine the default voltage and range available.
1544:/home/cuil/workspace/arm/lm3s811/TI_Stellaris/driverlib/sysctl.c **** //!
1545:/home/cuil/workspace/arm/lm3s811/TI_Stellaris/driverlib/sysctl.c **** //! \return None.
1546:/home/cuil/workspace/arm/lm3s811/TI_Stellaris/driverlib/sysctl.c **** //
1547:/home/cuil/workspace/arm/lm3s811/TI_Stellaris/driverlib/sysctl.c **** //*****************************************************************************
1548:/home/cuil/workspace/arm/lm3s811/TI_Stellaris/driverlib/sysctl.c **** void
1549:/home/cuil/workspace/arm/lm3s811/TI_Stellaris/driverlib/sysctl.c **** SysCtlLDOSet(unsigned long ulVoltage)
1550:/home/cuil/workspace/arm/lm3s811/TI_Stellaris/driverlib/sysctl.c **** {
 13100              		.loc 1 1550 0
 13101              		.cfi_startproc
 13102              		@ args = 0, pretend = 0, frame = 8
 13103              		@ frame_needed = 1, uses_anonymous_args = 0
 13104              		@ link register save eliminated.
 13105 0000 80B4     		push	{r7}
 13106              	.LCFI63:
 13107              		.cfi_def_cfa_offset 4
 13108 0002 83B0     		sub	sp, sp, #12
 13109              	.LCFI64:
 13110              		.cfi_def_cfa_offset 16
 13111 0004 00AF     		add	r7, sp, #0
 13112              		.cfi_offset 7, -4
 13113              	.LCFI65:
 13114              		.cfi_def_cfa_register 7
 13115 0006 7860     		str	r0, [r7, #4]
1551:/home/cuil/workspace/arm/lm3s811/TI_Stellaris/driverlib/sysctl.c ****     //
1552:/home/cuil/workspace/arm/lm3s811/TI_Stellaris/driverlib/sysctl.c ****     // Check the arguments.
1553:/home/cuil/workspace/arm/lm3s811/TI_Stellaris/driverlib/sysctl.c ****     //
1554:/home/cuil/workspace/arm/lm3s811/TI_Stellaris/driverlib/sysctl.c ****     ASSERT((ulVoltage == SYSCTL_LDO_2_25V) ||
1555:/home/cuil/workspace/arm/lm3s811/TI_Stellaris/driverlib/sysctl.c ****            (ulVoltage == SYSCTL_LDO_2_30V) ||
1556:/home/cuil/workspace/arm/lm3s811/TI_Stellaris/driverlib/sysctl.c ****            (ulVoltage == SYSCTL_LDO_2_35V) ||
1557:/home/cuil/workspace/arm/lm3s811/TI_Stellaris/driverlib/sysctl.c ****            (ulVoltage == SYSCTL_LDO_2_40V) ||
1558:/home/cuil/workspace/arm/lm3s811/TI_Stellaris/driverlib/sysctl.c ****            (ulVoltage == SYSCTL_LDO_2_45V) ||
1559:/home/cuil/workspace/arm/lm3s811/TI_Stellaris/driverlib/sysctl.c ****            (ulVoltage == SYSCTL_LDO_2_50V) ||
1560:/home/cuil/workspace/arm/lm3s811/TI_Stellaris/driverlib/sysctl.c ****            (ulVoltage == SYSCTL_LDO_2_55V) ||
1561:/home/cuil/workspace/arm/lm3s811/TI_Stellaris/driverlib/sysctl.c ****            (ulVoltage == SYSCTL_LDO_2_60V) ||
1562:/home/cuil/workspace/arm/lm3s811/TI_Stellaris/driverlib/sysctl.c ****            (ulVoltage == SYSCTL_LDO_2_65V) ||
1563:/home/cuil/workspace/arm/lm3s811/TI_Stellaris/driverlib/sysctl.c ****            (ulVoltage == SYSCTL_LDO_2_70V) ||
1564:/home/cuil/workspace/arm/lm3s811/TI_Stellaris/driverlib/sysctl.c ****            (ulVoltage == SYSCTL_LDO_2_75V));
1565:/home/cuil/workspace/arm/lm3s811/TI_Stellaris/driverlib/sysctl.c **** 
1566:/home/cuil/workspace/arm/lm3s811/TI_Stellaris/driverlib/sysctl.c ****     //
1567:/home/cuil/workspace/arm/lm3s811/TI_Stellaris/driverlib/sysctl.c ****     // Set the LDO voltage to the requested value.
1568:/home/cuil/workspace/arm/lm3s811/TI_Stellaris/driverlib/sysctl.c ****     //
1569:/home/cuil/workspace/arm/lm3s811/TI_Stellaris/driverlib/sysctl.c ****     HWREG(SYSCTL_LDOPCTL) = ulVoltage;
 13116              		.loc 1 1569 0
 13117 0008 034B     		ldr	r3, .L97
 13118 000a 7A68     		ldr	r2, [r7, #4]
 13119 000c 1A60     		str	r2, [r3, #0]
1570:/home/cuil/workspace/arm/lm3s811/TI_Stellaris/driverlib/sysctl.c **** }
 13120              		.loc 1 1570 0
 13121 000e 07F10C07 		add	r7, r7, #12
 13122 0012 BD46     		mov	sp, r7
 13123 0014 80BC     		pop	{r7}
 13124 0016 7047     		bx	lr
 13125              	.L98:
 13126              		.align	2
 13127              	.L97:
 13128 0018 34E00F40 		.word	1074782260
 13129              		.cfi_endproc
 13130              	.LFE22:
 13132              		.section	.text.SysCtlLDOGet,"ax",%progbits
 13133              		.align	2
 13134              		.global	SysCtlLDOGet
 13135              		.thumb
 13136              		.thumb_func
 13138              	SysCtlLDOGet:
 13139              	.LFB23:
1571:/home/cuil/workspace/arm/lm3s811/TI_Stellaris/driverlib/sysctl.c **** 
1572:/home/cuil/workspace/arm/lm3s811/TI_Stellaris/driverlib/sysctl.c **** //*****************************************************************************
1573:/home/cuil/workspace/arm/lm3s811/TI_Stellaris/driverlib/sysctl.c **** //
1574:/home/cuil/workspace/arm/lm3s811/TI_Stellaris/driverlib/sysctl.c **** //! Gets the output voltage of the LDO.
1575:/home/cuil/workspace/arm/lm3s811/TI_Stellaris/driverlib/sysctl.c **** //!
1576:/home/cuil/workspace/arm/lm3s811/TI_Stellaris/driverlib/sysctl.c **** //! This function determines the output voltage of the LDO, as specified by the
1577:/home/cuil/workspace/arm/lm3s811/TI_Stellaris/driverlib/sysctl.c **** //! control register.
1578:/home/cuil/workspace/arm/lm3s811/TI_Stellaris/driverlib/sysctl.c **** //!
1579:/home/cuil/workspace/arm/lm3s811/TI_Stellaris/driverlib/sysctl.c **** //! \return Returns the current voltage of the LDO; is one of
1580:/home/cuil/workspace/arm/lm3s811/TI_Stellaris/driverlib/sysctl.c **** //! \b SYSCTL_LDO_2_25V, \b SYSCTL_LDO_2_30V, \b SYSCTL_LDO_2_35V,
1581:/home/cuil/workspace/arm/lm3s811/TI_Stellaris/driverlib/sysctl.c **** //! \b SYSCTL_LDO_2_40V, \b SYSCTL_LDO_2_45V, \b SYSCTL_LDO_2_50V,
1582:/home/cuil/workspace/arm/lm3s811/TI_Stellaris/driverlib/sysctl.c **** //! \b SYSCTL_LDO_2_55V, \b SYSCTL_LDO_2_60V, \b SYSCTL_LDO_2_65V,
1583:/home/cuil/workspace/arm/lm3s811/TI_Stellaris/driverlib/sysctl.c **** //! \b SYSCTL_LDO_2_70V, or \b SYSCTL_LDO_2_75V.
1584:/home/cuil/workspace/arm/lm3s811/TI_Stellaris/driverlib/sysctl.c **** //
1585:/home/cuil/workspace/arm/lm3s811/TI_Stellaris/driverlib/sysctl.c **** //*****************************************************************************
1586:/home/cuil/workspace/arm/lm3s811/TI_Stellaris/driverlib/sysctl.c **** unsigned long
1587:/home/cuil/workspace/arm/lm3s811/TI_Stellaris/driverlib/sysctl.c **** SysCtlLDOGet(void)
