   1              		.syntax unified
   2              		.cpu cortex-m3
   3              		.fpu softvfp
   4              		.eabi_attribute 20, 1
   5              		.eabi_attribute 21, 1
   6              		.eabi_attribute 23, 3
   7              		.eabi_attribute 24, 1
   8              		.eabi_attribute 25, 1
   9              		.eabi_attribute 26, 1
  10              		.eabi_attribute 30, 6
  11              		.eabi_attribute 18, 4
  12              		.thumb
  13              		.file	"sysctl.c"
  23              	.Ltext0:
  24              		.file 1 "/home/cuil/workspace/arm/lm3s811/TI_Stellaris/driverlib/sysctl.c"
 11432              		.align	2
 11435              	g_pulDCRegs:
 11436 0000 10E00F40 		.word	1074782224
 11437 0004 14E00F40 		.word	1074782228
 11438 0008 1CE00F40 		.word	1074782236
 11439 000c 10E00F40 		.word	1074782224
 11440              		.align	2
 11443              	g_pulSRCRRegs:
 11444 0010 40E00F40 		.word	1074782272
 11445 0014 44E00F40 		.word	1074782276
 11446 0018 48E00F40 		.word	1074782280
 11447              		.align	2
 11450              	g_pulRCGCRegs:
 11451 001c 00E10F40 		.word	1074782464
 11452 0020 04E10F40 		.word	1074782468
 11453 0024 08E10F40 		.word	1074782472
 11454              		.align	2
 11457              	g_pulSCGCRegs:
 11458 0028 10E10F40 		.word	1074782480
 11459 002c 14E10F40 		.word	1074782484
 11460 0030 18E10F40 		.word	1074782488
 11461              		.align	2
 11464              	g_pulDCGCRegs:
 11465 0034 20E10F40 		.word	1074782496
 11466 0038 24E10F40 		.word	1074782500
 11467 003c 28E10F40 		.word	1074782504
 11468              		.align	2
 11471              	g_pulXtals:
 11472 0040 40420F00 		.word	1000000
 11473 0044 00201C00 		.word	1843200
 11474 0048 80841E00 		.word	2000000
 11475 004c 00802500 		.word	2457600
 11476 0050 999E3600 		.word	3579545
 11477 0054 00403800 		.word	3686400
 11478 0058 00093D00 		.word	4000000
 11479 005c 00803E00 		.word	4096000
 11480 0060 00004B00 		.word	4915200
 11481 0064 404B4C00 		.word	5000000
 11482 0068 00204E00 		.word	5120000
 11483 006c 808D5B00 		.word	6000000
 11484 0070 00C05D00 		.word	6144000
 11485 0074 00807000 		.word	7372800
 11486 0078 00127A00 		.word	8000000
 11487 007c 00007D00 		.word	8192000
 11488 0080 80969800 		.word	10000000
 11489 0084 001BB700 		.word	12000000
 11490 0088 0080BB00 		.word	12288000
 11491 008c C0E8CE00 		.word	13560000
 11492 0090 647ADA00 		.word	14318180
 11493 0094 0024F400 		.word	16000000
 11494 0098 0000FA00 		.word	16384000
 11495 009c 80A81201 		.word	18000000
 11496 00a0 002D3101 		.word	20000000
 11497 00a4 00366E01 		.word	24000000
 11498 00a8 40787D01 		.word	25000000
 11499              		.align	2
 11502              	g_ppulPeripheralMap:
 11503 00ac 01001000 		.word	1048577
 11504 00b0 003800F0 		.word	-268421120
 11505 00b4 02001000 		.word	1048578
 11506 00b8 013800F0 		.word	-268421119
 11507 00bc 00011000 		.word	1048832
 11508 00c0 003400F0 		.word	-268422144
 11509 00c4 00021000 		.word	1049088
 11510 00c8 013400F0 		.word	-268422143
 11511 00cc 00041000 		.word	1049600
 11512 00d0 023400F0 		.word	-268422142
 11513 00d4 00011010 		.word	269484288
 11514 00d8 003C00F0 		.word	-268420096
 11515 00dc 00021010 		.word	269484544
 11516 00e0 003C00F0 		.word	-268420096
 11517 00e4 00041010 		.word	269485056
 11518 00e8 003C00F0 		.word	-268420096
 11519 00ec 01000020 		.word	536870913
 11520 00f0 000800F0 		.word	-268433408
 11521 00f4 02000020 		.word	536870914
 11522 00f8 010800F0 		.word	-268433407
 11523 00fc 04000020 		.word	536870916
 11524 0100 020800F0 		.word	-268433406
 11525 0104 08000020 		.word	536870920
 11526 0108 030800F0 		.word	-268433405
 11527 010c 10000020 		.word	536870928
 11528 0110 040800F0 		.word	-268433404
 11529 0114 20000020 		.word	536870944
 11530 0118 050800F0 		.word	-268433403
 11531 011c 40000020 		.word	536870976
 11532 0120 060800F0 		.word	-268433402
 11533 0124 80000020 		.word	536871040
 11534 0128 070800F0 		.word	-268433401
 11535 012c 00010020 		.word	536871168
 11536 0130 080800F0 		.word	-268433400
 11537 0134 00100010 		.word	268439552
 11538 0138 002000F0 		.word	-268427264
 11539 013c 00400010 		.word	268451840
 11540 0140 012000F0 		.word	-268427263
 11541 0144 10001000 		.word	1048592
 11542 0148 004000F0 		.word	-268419072
 11543 014c 00010010 		.word	268435712
 11544 0150 004400F0 		.word	-268418048
 11545 0154 00020010 		.word	268435968
 11546 0158 014400F0 		.word	-268418047
 11547 015c 10000010 		.word	268435472
 11548 0160 001C00F0 		.word	-268428288
 11549 0164 20000010 		.word	268435488
 11550 0168 011C00F0 		.word	-268428287
 11551 016c 01001010 		.word	269484033
 11552 0170 000400F0 		.word	-268434432
 11553 0174 02001010 		.word	269484034
 11554 0178 010400F0 		.word	-268434431
 11555 017c 04001010 		.word	269484036
 11556 0180 020400F0 		.word	-268434430
 11557 0184 08001010 		.word	269484040
 11558 0188 030400F0 		.word	-268434429
 11559 018c 01000010 		.word	268435457
 11560 0190 001800F0 		.word	-268429312
 11561 0194 02000010 		.word	268435458
 11562 0198 011800F0 		.word	-268429311
 11563 019c 04000010 		.word	268435460
 11564 01a0 021800F0 		.word	-268429310
 11565 01a4 00200020 		.word	536879104
 11566 01a8 000C00F0 		.word	-268432384
 11567 01ac 01001020 		.word	537919489
 11568 01b0 002800F0 		.word	-268425216
 11569 01b4 08000000 		.word	8
 11570 01b8 000000F0 		.word	-268435456
 11571 01bc 00101000 		.word	1052672
 11572 01c0 010000F0 		.word	-268435455
 11573              		.section	.text.SysCtlPeripheralMapToNew,"ax",%progbits
 11574              		.align	2
 11575              		.thumb
 11576              		.thumb_func
 11578              	SysCtlPeripheralMapToNew:
 11579              	.LFB0:
   1:/home/cuil/workspace/arm/lm3s811/TI_Stellaris/driverlib/sysctl.c **** //*****************************************************************************
   2:/home/cuil/workspace/arm/lm3s811/TI_Stellaris/driverlib/sysctl.c **** //
   3:/home/cuil/workspace/arm/lm3s811/TI_Stellaris/driverlib/sysctl.c **** // sysctl.c - Driver for the system controller.
   4:/home/cuil/workspace/arm/lm3s811/TI_Stellaris/driverlib/sysctl.c **** //
   5:/home/cuil/workspace/arm/lm3s811/TI_Stellaris/driverlib/sysctl.c **** // Copyright (c) 2005-2011 Texas Instruments Incorporated.  All rights reserved.
   6:/home/cuil/workspace/arm/lm3s811/TI_Stellaris/driverlib/sysctl.c **** // Software License Agreement
   7:/home/cuil/workspace/arm/lm3s811/TI_Stellaris/driverlib/sysctl.c **** // 
   8:/home/cuil/workspace/arm/lm3s811/TI_Stellaris/driverlib/sysctl.c **** // Texas Instruments (TI) is supplying this software for use solely and
   9:/home/cuil/workspace/arm/lm3s811/TI_Stellaris/driverlib/sysctl.c **** // exclusively on TI's microcontroller products. The software is owned by
  10:/home/cuil/workspace/arm/lm3s811/TI_Stellaris/driverlib/sysctl.c **** // TI and/or its suppliers, and is protected under applicable copyright
  11:/home/cuil/workspace/arm/lm3s811/TI_Stellaris/driverlib/sysctl.c **** // laws. You may not combine this software with "viral" open-source
  12:/home/cuil/workspace/arm/lm3s811/TI_Stellaris/driverlib/sysctl.c **** // software in order to form a larger program.
  13:/home/cuil/workspace/arm/lm3s811/TI_Stellaris/driverlib/sysctl.c **** // 
  14:/home/cuil/workspace/arm/lm3s811/TI_Stellaris/driverlib/sysctl.c **** // THIS SOFTWARE IS PROVIDED "AS IS" AND WITH ALL FAULTS.
  15:/home/cuil/workspace/arm/lm3s811/TI_Stellaris/driverlib/sysctl.c **** // NO WARRANTIES, WHETHER EXPRESS, IMPLIED OR STATUTORY, INCLUDING, BUT
  16:/home/cuil/workspace/arm/lm3s811/TI_Stellaris/driverlib/sysctl.c **** // NOT LIMITED TO, IMPLIED WARRANTIES OF MERCHANTABILITY AND FITNESS FOR
  17:/home/cuil/workspace/arm/lm3s811/TI_Stellaris/driverlib/sysctl.c **** // A PARTICULAR PURPOSE APPLY TO THIS SOFTWARE. TI SHALL NOT, UNDER ANY
  18:/home/cuil/workspace/arm/lm3s811/TI_Stellaris/driverlib/sysctl.c **** // CIRCUMSTANCES, BE LIABLE FOR SPECIAL, INCIDENTAL, OR CONSEQUENTIAL
  19:/home/cuil/workspace/arm/lm3s811/TI_Stellaris/driverlib/sysctl.c **** // DAMAGES, FOR ANY REASON WHATSOEVER.
  20:/home/cuil/workspace/arm/lm3s811/TI_Stellaris/driverlib/sysctl.c **** // 
  21:/home/cuil/workspace/arm/lm3s811/TI_Stellaris/driverlib/sysctl.c **** // This is part of revision 8264 of the Stellaris Peripheral Driver Library.
  22:/home/cuil/workspace/arm/lm3s811/TI_Stellaris/driverlib/sysctl.c **** //
  23:/home/cuil/workspace/arm/lm3s811/TI_Stellaris/driverlib/sysctl.c **** //*****************************************************************************
  24:/home/cuil/workspace/arm/lm3s811/TI_Stellaris/driverlib/sysctl.c **** 
  25:/home/cuil/workspace/arm/lm3s811/TI_Stellaris/driverlib/sysctl.c **** //*****************************************************************************
  26:/home/cuil/workspace/arm/lm3s811/TI_Stellaris/driverlib/sysctl.c **** //
  27:/home/cuil/workspace/arm/lm3s811/TI_Stellaris/driverlib/sysctl.c **** //! \addtogroup sysctl_api
  28:/home/cuil/workspace/arm/lm3s811/TI_Stellaris/driverlib/sysctl.c **** //! @{
  29:/home/cuil/workspace/arm/lm3s811/TI_Stellaris/driverlib/sysctl.c **** //
  30:/home/cuil/workspace/arm/lm3s811/TI_Stellaris/driverlib/sysctl.c **** //*****************************************************************************
  31:/home/cuil/workspace/arm/lm3s811/TI_Stellaris/driverlib/sysctl.c **** 
  32:/home/cuil/workspace/arm/lm3s811/TI_Stellaris/driverlib/sysctl.c **** #include "inc/hw_ints.h"
  33:/home/cuil/workspace/arm/lm3s811/TI_Stellaris/driverlib/sysctl.c **** #include "inc/hw_nvic.h"
  34:/home/cuil/workspace/arm/lm3s811/TI_Stellaris/driverlib/sysctl.c **** #include "inc/hw_sysctl.h"
  35:/home/cuil/workspace/arm/lm3s811/TI_Stellaris/driverlib/sysctl.c **** #include "inc/hw_types.h"
  36:/home/cuil/workspace/arm/lm3s811/TI_Stellaris/driverlib/sysctl.c **** #include "driverlib/cpu.h"
  37:/home/cuil/workspace/arm/lm3s811/TI_Stellaris/driverlib/sysctl.c **** #include "driverlib/debug.h"
  38:/home/cuil/workspace/arm/lm3s811/TI_Stellaris/driverlib/sysctl.c **** #include "driverlib/interrupt.h"
  39:/home/cuil/workspace/arm/lm3s811/TI_Stellaris/driverlib/sysctl.c **** #include "driverlib/sysctl.h"
  40:/home/cuil/workspace/arm/lm3s811/TI_Stellaris/driverlib/sysctl.c **** 
  41:/home/cuil/workspace/arm/lm3s811/TI_Stellaris/driverlib/sysctl.c **** //*****************************************************************************
  42:/home/cuil/workspace/arm/lm3s811/TI_Stellaris/driverlib/sysctl.c **** //
  43:/home/cuil/workspace/arm/lm3s811/TI_Stellaris/driverlib/sysctl.c **** // This macro extracts the array index out of the peripheral number.
  44:/home/cuil/workspace/arm/lm3s811/TI_Stellaris/driverlib/sysctl.c **** //
  45:/home/cuil/workspace/arm/lm3s811/TI_Stellaris/driverlib/sysctl.c **** //*****************************************************************************
  46:/home/cuil/workspace/arm/lm3s811/TI_Stellaris/driverlib/sysctl.c **** #define SYSCTL_PERIPH_INDEX(a)  (((a) >> 28) & 0xf)
  47:/home/cuil/workspace/arm/lm3s811/TI_Stellaris/driverlib/sysctl.c **** 
  48:/home/cuil/workspace/arm/lm3s811/TI_Stellaris/driverlib/sysctl.c **** //*****************************************************************************
  49:/home/cuil/workspace/arm/lm3s811/TI_Stellaris/driverlib/sysctl.c **** //
  50:/home/cuil/workspace/arm/lm3s811/TI_Stellaris/driverlib/sysctl.c **** // This macro constructs the peripheral bit mask from the peripheral number.
  51:/home/cuil/workspace/arm/lm3s811/TI_Stellaris/driverlib/sysctl.c **** //
  52:/home/cuil/workspace/arm/lm3s811/TI_Stellaris/driverlib/sysctl.c **** //*****************************************************************************
  53:/home/cuil/workspace/arm/lm3s811/TI_Stellaris/driverlib/sysctl.c **** #define SYSCTL_PERIPH_MASK(a)   (((a) & 0xffff) << (((a) & 0x001f0000) >> 16))
  54:/home/cuil/workspace/arm/lm3s811/TI_Stellaris/driverlib/sysctl.c **** 
  55:/home/cuil/workspace/arm/lm3s811/TI_Stellaris/driverlib/sysctl.c **** //*****************************************************************************
  56:/home/cuil/workspace/arm/lm3s811/TI_Stellaris/driverlib/sysctl.c **** //
  57:/home/cuil/workspace/arm/lm3s811/TI_Stellaris/driverlib/sysctl.c **** // An array that maps the "peripheral set" number (which is stored in the upper
  58:/home/cuil/workspace/arm/lm3s811/TI_Stellaris/driverlib/sysctl.c **** // nibble of the SYSCTL_PERIPH_* defines) to the SYSCTL DC? register that
  59:/home/cuil/workspace/arm/lm3s811/TI_Stellaris/driverlib/sysctl.c **** // contains the peripheral present bit for that peripheral.
  60:/home/cuil/workspace/arm/lm3s811/TI_Stellaris/driverlib/sysctl.c **** //
  61:/home/cuil/workspace/arm/lm3s811/TI_Stellaris/driverlib/sysctl.c **** //*****************************************************************************
  62:/home/cuil/workspace/arm/lm3s811/TI_Stellaris/driverlib/sysctl.c **** static const unsigned long g_pulDCRegs[] =
  63:/home/cuil/workspace/arm/lm3s811/TI_Stellaris/driverlib/sysctl.c **** {
  64:/home/cuil/workspace/arm/lm3s811/TI_Stellaris/driverlib/sysctl.c ****     SYSCTL_DC1,
  65:/home/cuil/workspace/arm/lm3s811/TI_Stellaris/driverlib/sysctl.c ****     SYSCTL_DC2,
  66:/home/cuil/workspace/arm/lm3s811/TI_Stellaris/driverlib/sysctl.c ****     SYSCTL_DC4,
  67:/home/cuil/workspace/arm/lm3s811/TI_Stellaris/driverlib/sysctl.c ****     SYSCTL_DC1
  68:/home/cuil/workspace/arm/lm3s811/TI_Stellaris/driverlib/sysctl.c **** };
  69:/home/cuil/workspace/arm/lm3s811/TI_Stellaris/driverlib/sysctl.c **** 
  70:/home/cuil/workspace/arm/lm3s811/TI_Stellaris/driverlib/sysctl.c **** //*****************************************************************************
  71:/home/cuil/workspace/arm/lm3s811/TI_Stellaris/driverlib/sysctl.c **** //
  72:/home/cuil/workspace/arm/lm3s811/TI_Stellaris/driverlib/sysctl.c **** // An array that maps the "peripheral set" number (which is stored in the upper
  73:/home/cuil/workspace/arm/lm3s811/TI_Stellaris/driverlib/sysctl.c **** // nibble of the SYSCTL_PERIPH_* defines) to the SYSCTL_SRCR? register that
  74:/home/cuil/workspace/arm/lm3s811/TI_Stellaris/driverlib/sysctl.c **** // controls the software reset for that peripheral.
  75:/home/cuil/workspace/arm/lm3s811/TI_Stellaris/driverlib/sysctl.c **** //
  76:/home/cuil/workspace/arm/lm3s811/TI_Stellaris/driverlib/sysctl.c **** //*****************************************************************************
  77:/home/cuil/workspace/arm/lm3s811/TI_Stellaris/driverlib/sysctl.c **** static const unsigned long g_pulSRCRRegs[] =
  78:/home/cuil/workspace/arm/lm3s811/TI_Stellaris/driverlib/sysctl.c **** {
  79:/home/cuil/workspace/arm/lm3s811/TI_Stellaris/driverlib/sysctl.c ****     SYSCTL_SRCR0,
  80:/home/cuil/workspace/arm/lm3s811/TI_Stellaris/driverlib/sysctl.c ****     SYSCTL_SRCR1,
  81:/home/cuil/workspace/arm/lm3s811/TI_Stellaris/driverlib/sysctl.c ****     SYSCTL_SRCR2
  82:/home/cuil/workspace/arm/lm3s811/TI_Stellaris/driverlib/sysctl.c **** };
  83:/home/cuil/workspace/arm/lm3s811/TI_Stellaris/driverlib/sysctl.c **** 
  84:/home/cuil/workspace/arm/lm3s811/TI_Stellaris/driverlib/sysctl.c **** //*****************************************************************************
  85:/home/cuil/workspace/arm/lm3s811/TI_Stellaris/driverlib/sysctl.c **** //
  86:/home/cuil/workspace/arm/lm3s811/TI_Stellaris/driverlib/sysctl.c **** // An array that maps the "peripheral set" number (which is stored in the upper
  87:/home/cuil/workspace/arm/lm3s811/TI_Stellaris/driverlib/sysctl.c **** // nibble of the SYSCTL_PERIPH_* defines) to the SYSCTL_RCGC? register that
  88:/home/cuil/workspace/arm/lm3s811/TI_Stellaris/driverlib/sysctl.c **** // controls the run-mode enable for that peripheral.
  89:/home/cuil/workspace/arm/lm3s811/TI_Stellaris/driverlib/sysctl.c **** //
  90:/home/cuil/workspace/arm/lm3s811/TI_Stellaris/driverlib/sysctl.c **** //*****************************************************************************
  91:/home/cuil/workspace/arm/lm3s811/TI_Stellaris/driverlib/sysctl.c **** static const unsigned long g_pulRCGCRegs[] =
  92:/home/cuil/workspace/arm/lm3s811/TI_Stellaris/driverlib/sysctl.c **** {
  93:/home/cuil/workspace/arm/lm3s811/TI_Stellaris/driverlib/sysctl.c ****     SYSCTL_RCGC0,
  94:/home/cuil/workspace/arm/lm3s811/TI_Stellaris/driverlib/sysctl.c ****     SYSCTL_RCGC1,
  95:/home/cuil/workspace/arm/lm3s811/TI_Stellaris/driverlib/sysctl.c ****     SYSCTL_RCGC2
  96:/home/cuil/workspace/arm/lm3s811/TI_Stellaris/driverlib/sysctl.c **** };
  97:/home/cuil/workspace/arm/lm3s811/TI_Stellaris/driverlib/sysctl.c **** 
  98:/home/cuil/workspace/arm/lm3s811/TI_Stellaris/driverlib/sysctl.c **** //*****************************************************************************
  99:/home/cuil/workspace/arm/lm3s811/TI_Stellaris/driverlib/sysctl.c **** //
 100:/home/cuil/workspace/arm/lm3s811/TI_Stellaris/driverlib/sysctl.c **** // An array that maps the "peripheral set" number (which is stored in the upper
 101:/home/cuil/workspace/arm/lm3s811/TI_Stellaris/driverlib/sysctl.c **** // nibble of the SYSCTL_PERIPH_* defines) to the SYSCTL_SCGC? register that
 102:/home/cuil/workspace/arm/lm3s811/TI_Stellaris/driverlib/sysctl.c **** // controls the sleep-mode enable for that peripheral.
 103:/home/cuil/workspace/arm/lm3s811/TI_Stellaris/driverlib/sysctl.c **** //
 104:/home/cuil/workspace/arm/lm3s811/TI_Stellaris/driverlib/sysctl.c **** //*****************************************************************************
 105:/home/cuil/workspace/arm/lm3s811/TI_Stellaris/driverlib/sysctl.c **** static const unsigned long g_pulSCGCRegs[] =
 106:/home/cuil/workspace/arm/lm3s811/TI_Stellaris/driverlib/sysctl.c **** {
 107:/home/cuil/workspace/arm/lm3s811/TI_Stellaris/driverlib/sysctl.c ****     SYSCTL_SCGC0,
 108:/home/cuil/workspace/arm/lm3s811/TI_Stellaris/driverlib/sysctl.c ****     SYSCTL_SCGC1,
 109:/home/cuil/workspace/arm/lm3s811/TI_Stellaris/driverlib/sysctl.c ****     SYSCTL_SCGC2
 110:/home/cuil/workspace/arm/lm3s811/TI_Stellaris/driverlib/sysctl.c **** };
 111:/home/cuil/workspace/arm/lm3s811/TI_Stellaris/driverlib/sysctl.c **** 
 112:/home/cuil/workspace/arm/lm3s811/TI_Stellaris/driverlib/sysctl.c **** //*****************************************************************************
 113:/home/cuil/workspace/arm/lm3s811/TI_Stellaris/driverlib/sysctl.c **** //
 114:/home/cuil/workspace/arm/lm3s811/TI_Stellaris/driverlib/sysctl.c **** // An array that maps the "peripheral set" number (which is stored in the upper
 115:/home/cuil/workspace/arm/lm3s811/TI_Stellaris/driverlib/sysctl.c **** // nibble of the SYSCTL_PERIPH_* defines) to the SYSCTL_DCGC? register that
 116:/home/cuil/workspace/arm/lm3s811/TI_Stellaris/driverlib/sysctl.c **** // controls the deep-sleep-mode enable for that peripheral.
 117:/home/cuil/workspace/arm/lm3s811/TI_Stellaris/driverlib/sysctl.c **** //
 118:/home/cuil/workspace/arm/lm3s811/TI_Stellaris/driverlib/sysctl.c **** //*****************************************************************************
 119:/home/cuil/workspace/arm/lm3s811/TI_Stellaris/driverlib/sysctl.c **** static const unsigned long g_pulDCGCRegs[] =
 120:/home/cuil/workspace/arm/lm3s811/TI_Stellaris/driverlib/sysctl.c **** {
 121:/home/cuil/workspace/arm/lm3s811/TI_Stellaris/driverlib/sysctl.c ****     SYSCTL_DCGC0,
 122:/home/cuil/workspace/arm/lm3s811/TI_Stellaris/driverlib/sysctl.c ****     SYSCTL_DCGC1,
 123:/home/cuil/workspace/arm/lm3s811/TI_Stellaris/driverlib/sysctl.c ****     SYSCTL_DCGC2
 124:/home/cuil/workspace/arm/lm3s811/TI_Stellaris/driverlib/sysctl.c **** };
 125:/home/cuil/workspace/arm/lm3s811/TI_Stellaris/driverlib/sysctl.c **** 
 126:/home/cuil/workspace/arm/lm3s811/TI_Stellaris/driverlib/sysctl.c **** //*****************************************************************************
 127:/home/cuil/workspace/arm/lm3s811/TI_Stellaris/driverlib/sysctl.c **** //
 128:/home/cuil/workspace/arm/lm3s811/TI_Stellaris/driverlib/sysctl.c **** // An array that maps the crystal number in RCC to a frequency.
 129:/home/cuil/workspace/arm/lm3s811/TI_Stellaris/driverlib/sysctl.c **** //
 130:/home/cuil/workspace/arm/lm3s811/TI_Stellaris/driverlib/sysctl.c **** //*****************************************************************************
 131:/home/cuil/workspace/arm/lm3s811/TI_Stellaris/driverlib/sysctl.c **** static const unsigned long g_pulXtals[] =
 132:/home/cuil/workspace/arm/lm3s811/TI_Stellaris/driverlib/sysctl.c **** {
 133:/home/cuil/workspace/arm/lm3s811/TI_Stellaris/driverlib/sysctl.c ****     1000000,
 134:/home/cuil/workspace/arm/lm3s811/TI_Stellaris/driverlib/sysctl.c ****     1843200,
 135:/home/cuil/workspace/arm/lm3s811/TI_Stellaris/driverlib/sysctl.c ****     2000000,
 136:/home/cuil/workspace/arm/lm3s811/TI_Stellaris/driverlib/sysctl.c ****     2457600,
 137:/home/cuil/workspace/arm/lm3s811/TI_Stellaris/driverlib/sysctl.c ****     3579545,
 138:/home/cuil/workspace/arm/lm3s811/TI_Stellaris/driverlib/sysctl.c ****     3686400,
 139:/home/cuil/workspace/arm/lm3s811/TI_Stellaris/driverlib/sysctl.c ****     4000000,
 140:/home/cuil/workspace/arm/lm3s811/TI_Stellaris/driverlib/sysctl.c ****     4096000,
 141:/home/cuil/workspace/arm/lm3s811/TI_Stellaris/driverlib/sysctl.c ****     4915200,
 142:/home/cuil/workspace/arm/lm3s811/TI_Stellaris/driverlib/sysctl.c ****     5000000,
 143:/home/cuil/workspace/arm/lm3s811/TI_Stellaris/driverlib/sysctl.c ****     5120000,
 144:/home/cuil/workspace/arm/lm3s811/TI_Stellaris/driverlib/sysctl.c ****     6000000,
 145:/home/cuil/workspace/arm/lm3s811/TI_Stellaris/driverlib/sysctl.c ****     6144000,
 146:/home/cuil/workspace/arm/lm3s811/TI_Stellaris/driverlib/sysctl.c ****     7372800,
 147:/home/cuil/workspace/arm/lm3s811/TI_Stellaris/driverlib/sysctl.c ****     8000000,
 148:/home/cuil/workspace/arm/lm3s811/TI_Stellaris/driverlib/sysctl.c ****     8192000,
 149:/home/cuil/workspace/arm/lm3s811/TI_Stellaris/driverlib/sysctl.c ****     10000000,
 150:/home/cuil/workspace/arm/lm3s811/TI_Stellaris/driverlib/sysctl.c ****     12000000,
 151:/home/cuil/workspace/arm/lm3s811/TI_Stellaris/driverlib/sysctl.c ****     12288000,
 152:/home/cuil/workspace/arm/lm3s811/TI_Stellaris/driverlib/sysctl.c ****     13560000,
 153:/home/cuil/workspace/arm/lm3s811/TI_Stellaris/driverlib/sysctl.c ****     14318180,
 154:/home/cuil/workspace/arm/lm3s811/TI_Stellaris/driverlib/sysctl.c ****     16000000,
 155:/home/cuil/workspace/arm/lm3s811/TI_Stellaris/driverlib/sysctl.c ****     16384000,
 156:/home/cuil/workspace/arm/lm3s811/TI_Stellaris/driverlib/sysctl.c ****     18000000,
 157:/home/cuil/workspace/arm/lm3s811/TI_Stellaris/driverlib/sysctl.c ****     20000000,
 158:/home/cuil/workspace/arm/lm3s811/TI_Stellaris/driverlib/sysctl.c ****     24000000,
 159:/home/cuil/workspace/arm/lm3s811/TI_Stellaris/driverlib/sysctl.c ****     25000000
 160:/home/cuil/workspace/arm/lm3s811/TI_Stellaris/driverlib/sysctl.c **** };
 161:/home/cuil/workspace/arm/lm3s811/TI_Stellaris/driverlib/sysctl.c **** 
 162:/home/cuil/workspace/arm/lm3s811/TI_Stellaris/driverlib/sysctl.c **** //*****************************************************************************
 163:/home/cuil/workspace/arm/lm3s811/TI_Stellaris/driverlib/sysctl.c **** //
 164:/home/cuil/workspace/arm/lm3s811/TI_Stellaris/driverlib/sysctl.c **** // The base addresses of the various peripheral control registers.
 165:/home/cuil/workspace/arm/lm3s811/TI_Stellaris/driverlib/sysctl.c **** //
 166:/home/cuil/workspace/arm/lm3s811/TI_Stellaris/driverlib/sysctl.c **** //*****************************************************************************
 167:/home/cuil/workspace/arm/lm3s811/TI_Stellaris/driverlib/sysctl.c **** #define SYSCTL_PPBASE           0x400fe300
 168:/home/cuil/workspace/arm/lm3s811/TI_Stellaris/driverlib/sysctl.c **** #define SYSCTL_SRBASE           0x400fe500
 169:/home/cuil/workspace/arm/lm3s811/TI_Stellaris/driverlib/sysctl.c **** #define SYSCTL_RCGCBASE         0x400fe600
 170:/home/cuil/workspace/arm/lm3s811/TI_Stellaris/driverlib/sysctl.c **** #define SYSCTL_SCGCBASE         0x400fe700
 171:/home/cuil/workspace/arm/lm3s811/TI_Stellaris/driverlib/sysctl.c **** #define SYSCTL_DCGCBASE         0x400fe800
 172:/home/cuil/workspace/arm/lm3s811/TI_Stellaris/driverlib/sysctl.c **** #define SYSCTL_PCBASE           0x400fe900
 173:/home/cuil/workspace/arm/lm3s811/TI_Stellaris/driverlib/sysctl.c **** #define SYSCTL_PRBASE           0x400fea00
 174:/home/cuil/workspace/arm/lm3s811/TI_Stellaris/driverlib/sysctl.c **** 
 175:/home/cuil/workspace/arm/lm3s811/TI_Stellaris/driverlib/sysctl.c **** //*****************************************************************************
 176:/home/cuil/workspace/arm/lm3s811/TI_Stellaris/driverlib/sysctl.c **** //
 177:/home/cuil/workspace/arm/lm3s811/TI_Stellaris/driverlib/sysctl.c **** //! \internal
 178:/home/cuil/workspace/arm/lm3s811/TI_Stellaris/driverlib/sysctl.c **** //! Checks a peripheral identifier.
 179:/home/cuil/workspace/arm/lm3s811/TI_Stellaris/driverlib/sysctl.c **** //!
 180:/home/cuil/workspace/arm/lm3s811/TI_Stellaris/driverlib/sysctl.c **** //! \param ulPeripheral is the peripheral identifier.
 181:/home/cuil/workspace/arm/lm3s811/TI_Stellaris/driverlib/sysctl.c **** //!
 182:/home/cuil/workspace/arm/lm3s811/TI_Stellaris/driverlib/sysctl.c **** //! This function determines if a peripheral identifier is valid.
 183:/home/cuil/workspace/arm/lm3s811/TI_Stellaris/driverlib/sysctl.c **** //!
 184:/home/cuil/workspace/arm/lm3s811/TI_Stellaris/driverlib/sysctl.c **** //! \return Returns \b true if the peripheral identifier is valid and \b false
 185:/home/cuil/workspace/arm/lm3s811/TI_Stellaris/driverlib/sysctl.c **** //! otherwise.
 186:/home/cuil/workspace/arm/lm3s811/TI_Stellaris/driverlib/sysctl.c **** //
 187:/home/cuil/workspace/arm/lm3s811/TI_Stellaris/driverlib/sysctl.c **** //*****************************************************************************
 188:/home/cuil/workspace/arm/lm3s811/TI_Stellaris/driverlib/sysctl.c **** #ifdef DEBUG
 189:/home/cuil/workspace/arm/lm3s811/TI_Stellaris/driverlib/sysctl.c **** static tBoolean
 190:/home/cuil/workspace/arm/lm3s811/TI_Stellaris/driverlib/sysctl.c **** SysCtlPeripheralValid(unsigned long ulPeripheral)
 191:/home/cuil/workspace/arm/lm3s811/TI_Stellaris/driverlib/sysctl.c **** {
 192:/home/cuil/workspace/arm/lm3s811/TI_Stellaris/driverlib/sysctl.c ****     return((ulPeripheral == SYSCTL_PERIPH_ADC0) ||
 193:/home/cuil/workspace/arm/lm3s811/TI_Stellaris/driverlib/sysctl.c ****            (ulPeripheral == SYSCTL_PERIPH_ADC1) ||
 194:/home/cuil/workspace/arm/lm3s811/TI_Stellaris/driverlib/sysctl.c ****            (ulPeripheral == SYSCTL_PERIPH_CAN0) ||
 195:/home/cuil/workspace/arm/lm3s811/TI_Stellaris/driverlib/sysctl.c ****            (ulPeripheral == SYSCTL_PERIPH_CAN1) ||
 196:/home/cuil/workspace/arm/lm3s811/TI_Stellaris/driverlib/sysctl.c ****            (ulPeripheral == SYSCTL_PERIPH_CAN2) ||
 197:/home/cuil/workspace/arm/lm3s811/TI_Stellaris/driverlib/sysctl.c ****            (ulPeripheral == SYSCTL_PERIPH_COMP0) ||
 198:/home/cuil/workspace/arm/lm3s811/TI_Stellaris/driverlib/sysctl.c ****            (ulPeripheral == SYSCTL_PERIPH_COMP1) ||
 199:/home/cuil/workspace/arm/lm3s811/TI_Stellaris/driverlib/sysctl.c ****            (ulPeripheral == SYSCTL_PERIPH_COMP2) ||
 200:/home/cuil/workspace/arm/lm3s811/TI_Stellaris/driverlib/sysctl.c ****            (ulPeripheral == SYSCTL_PERIPH_EEPROM0) ||
 201:/home/cuil/workspace/arm/lm3s811/TI_Stellaris/driverlib/sysctl.c ****            (ulPeripheral == SYSCTL_PERIPH_EPI0) ||
 202:/home/cuil/workspace/arm/lm3s811/TI_Stellaris/driverlib/sysctl.c ****            (ulPeripheral == SYSCTL_PERIPH_ETH) ||
 203:/home/cuil/workspace/arm/lm3s811/TI_Stellaris/driverlib/sysctl.c ****            (ulPeripheral == SYSCTL_PERIPH_FAN0) ||
 204:/home/cuil/workspace/arm/lm3s811/TI_Stellaris/driverlib/sysctl.c ****            (ulPeripheral == SYSCTL_PERIPH_GPIOA) ||
 205:/home/cuil/workspace/arm/lm3s811/TI_Stellaris/driverlib/sysctl.c ****            (ulPeripheral == SYSCTL_PERIPH_GPIOB) ||
 206:/home/cuil/workspace/arm/lm3s811/TI_Stellaris/driverlib/sysctl.c ****            (ulPeripheral == SYSCTL_PERIPH_GPIOC) ||
 207:/home/cuil/workspace/arm/lm3s811/TI_Stellaris/driverlib/sysctl.c ****            (ulPeripheral == SYSCTL_PERIPH_GPIOD) ||
 208:/home/cuil/workspace/arm/lm3s811/TI_Stellaris/driverlib/sysctl.c ****            (ulPeripheral == SYSCTL_PERIPH_GPIOE) ||
 209:/home/cuil/workspace/arm/lm3s811/TI_Stellaris/driverlib/sysctl.c ****            (ulPeripheral == SYSCTL_PERIPH_GPIOF) ||
 210:/home/cuil/workspace/arm/lm3s811/TI_Stellaris/driverlib/sysctl.c ****            (ulPeripheral == SYSCTL_PERIPH_GPIOG) ||
 211:/home/cuil/workspace/arm/lm3s811/TI_Stellaris/driverlib/sysctl.c ****            (ulPeripheral == SYSCTL_PERIPH_GPIOH) ||
 212:/home/cuil/workspace/arm/lm3s811/TI_Stellaris/driverlib/sysctl.c ****            (ulPeripheral == SYSCTL_PERIPH_GPIOJ) ||
 213:/home/cuil/workspace/arm/lm3s811/TI_Stellaris/driverlib/sysctl.c ****            (ulPeripheral == SYSCTL_PERIPH_GPIOK) ||
 214:/home/cuil/workspace/arm/lm3s811/TI_Stellaris/driverlib/sysctl.c ****            (ulPeripheral == SYSCTL_PERIPH_GPIOL) ||
 215:/home/cuil/workspace/arm/lm3s811/TI_Stellaris/driverlib/sysctl.c ****            (ulPeripheral == SYSCTL_PERIPH_GPIOM) ||
 216:/home/cuil/workspace/arm/lm3s811/TI_Stellaris/driverlib/sysctl.c ****            (ulPeripheral == SYSCTL_PERIPH_GPION) ||
 217:/home/cuil/workspace/arm/lm3s811/TI_Stellaris/driverlib/sysctl.c ****            (ulPeripheral == SYSCTL_PERIPH_GPIOP) ||
 218:/home/cuil/workspace/arm/lm3s811/TI_Stellaris/driverlib/sysctl.c ****            (ulPeripheral == SYSCTL_PERIPH_GPIOQ) ||
 219:/home/cuil/workspace/arm/lm3s811/TI_Stellaris/driverlib/sysctl.c ****            (ulPeripheral == SYSCTL_PERIPH_HIBERNATE) ||
 220:/home/cuil/workspace/arm/lm3s811/TI_Stellaris/driverlib/sysctl.c ****            (ulPeripheral == SYSCTL_PERIPH_I2C0) ||
 221:/home/cuil/workspace/arm/lm3s811/TI_Stellaris/driverlib/sysctl.c ****            (ulPeripheral == SYSCTL_PERIPH_I2C1) ||
 222:/home/cuil/workspace/arm/lm3s811/TI_Stellaris/driverlib/sysctl.c ****            (ulPeripheral == SYSCTL_PERIPH_I2C2) ||
 223:/home/cuil/workspace/arm/lm3s811/TI_Stellaris/driverlib/sysctl.c ****            (ulPeripheral == SYSCTL_PERIPH_I2C3) ||
 224:/home/cuil/workspace/arm/lm3s811/TI_Stellaris/driverlib/sysctl.c ****            (ulPeripheral == SYSCTL_PERIPH_I2C4) ||
 225:/home/cuil/workspace/arm/lm3s811/TI_Stellaris/driverlib/sysctl.c ****            (ulPeripheral == SYSCTL_PERIPH_I2C5) ||
 226:/home/cuil/workspace/arm/lm3s811/TI_Stellaris/driverlib/sysctl.c ****            (ulPeripheral == SYSCTL_PERIPH_I2S0) ||
 227:/home/cuil/workspace/arm/lm3s811/TI_Stellaris/driverlib/sysctl.c ****            (ulPeripheral == SYSCTL_PERIPH_IEEE1588) ||
 228:/home/cuil/workspace/arm/lm3s811/TI_Stellaris/driverlib/sysctl.c ****            (ulPeripheral == SYSCTL_PERIPH_LPC0) ||
 229:/home/cuil/workspace/arm/lm3s811/TI_Stellaris/driverlib/sysctl.c ****            (ulPeripheral == SYSCTL_PERIPH_MPU) ||
 230:/home/cuil/workspace/arm/lm3s811/TI_Stellaris/driverlib/sysctl.c ****            (ulPeripheral == SYSCTL_PERIPH_PECI0) ||
 231:/home/cuil/workspace/arm/lm3s811/TI_Stellaris/driverlib/sysctl.c ****            (ulPeripheral == SYSCTL_PERIPH_PLL) ||
 232:/home/cuil/workspace/arm/lm3s811/TI_Stellaris/driverlib/sysctl.c ****            (ulPeripheral == SYSCTL_PERIPH_PWM0) ||
 233:/home/cuil/workspace/arm/lm3s811/TI_Stellaris/driverlib/sysctl.c ****            (ulPeripheral == SYSCTL_PERIPH_PWM1) ||
 234:/home/cuil/workspace/arm/lm3s811/TI_Stellaris/driverlib/sysctl.c ****            (ulPeripheral == SYSCTL_PERIPH_QEI0) ||
 235:/home/cuil/workspace/arm/lm3s811/TI_Stellaris/driverlib/sysctl.c ****            (ulPeripheral == SYSCTL_PERIPH_QEI1) ||
 236:/home/cuil/workspace/arm/lm3s811/TI_Stellaris/driverlib/sysctl.c ****            (ulPeripheral == SYSCTL_PERIPH_SSI0) ||
 237:/home/cuil/workspace/arm/lm3s811/TI_Stellaris/driverlib/sysctl.c ****            (ulPeripheral == SYSCTL_PERIPH_SSI1) ||
 238:/home/cuil/workspace/arm/lm3s811/TI_Stellaris/driverlib/sysctl.c ****            (ulPeripheral == SYSCTL_PERIPH_SSI2) ||
 239:/home/cuil/workspace/arm/lm3s811/TI_Stellaris/driverlib/sysctl.c ****            (ulPeripheral == SYSCTL_PERIPH_SSI3) ||
 240:/home/cuil/workspace/arm/lm3s811/TI_Stellaris/driverlib/sysctl.c ****            (ulPeripheral == SYSCTL_PERIPH_TEMP) ||
 241:/home/cuil/workspace/arm/lm3s811/TI_Stellaris/driverlib/sysctl.c ****            (ulPeripheral == SYSCTL_PERIPH_TIMER0) ||
 242:/home/cuil/workspace/arm/lm3s811/TI_Stellaris/driverlib/sysctl.c ****            (ulPeripheral == SYSCTL_PERIPH_TIMER1) ||
 243:/home/cuil/workspace/arm/lm3s811/TI_Stellaris/driverlib/sysctl.c ****            (ulPeripheral == SYSCTL_PERIPH_TIMER2) ||
 244:/home/cuil/workspace/arm/lm3s811/TI_Stellaris/driverlib/sysctl.c ****            (ulPeripheral == SYSCTL_PERIPH_TIMER3) ||
 245:/home/cuil/workspace/arm/lm3s811/TI_Stellaris/driverlib/sysctl.c ****            (ulPeripheral == SYSCTL_PERIPH_TIMER4) ||
 246:/home/cuil/workspace/arm/lm3s811/TI_Stellaris/driverlib/sysctl.c ****            (ulPeripheral == SYSCTL_PERIPH_TIMER5) ||
 247:/home/cuil/workspace/arm/lm3s811/TI_Stellaris/driverlib/sysctl.c ****            (ulPeripheral == SYSCTL_PERIPH_UART0) ||
 248:/home/cuil/workspace/arm/lm3s811/TI_Stellaris/driverlib/sysctl.c ****            (ulPeripheral == SYSCTL_PERIPH_UART1) ||
 249:/home/cuil/workspace/arm/lm3s811/TI_Stellaris/driverlib/sysctl.c ****            (ulPeripheral == SYSCTL_PERIPH_UART2) ||
 250:/home/cuil/workspace/arm/lm3s811/TI_Stellaris/driverlib/sysctl.c ****            (ulPeripheral == SYSCTL_PERIPH_UART3) ||
 251:/home/cuil/workspace/arm/lm3s811/TI_Stellaris/driverlib/sysctl.c ****            (ulPeripheral == SYSCTL_PERIPH_UART4) ||
 252:/home/cuil/workspace/arm/lm3s811/TI_Stellaris/driverlib/sysctl.c ****            (ulPeripheral == SYSCTL_PERIPH_UART5) ||
 253:/home/cuil/workspace/arm/lm3s811/TI_Stellaris/driverlib/sysctl.c ****            (ulPeripheral == SYSCTL_PERIPH_UART6) ||
 254:/home/cuil/workspace/arm/lm3s811/TI_Stellaris/driverlib/sysctl.c ****            (ulPeripheral == SYSCTL_PERIPH_UART7) ||
 255:/home/cuil/workspace/arm/lm3s811/TI_Stellaris/driverlib/sysctl.c ****            (ulPeripheral == SYSCTL_PERIPH_UDMA) ||
 256:/home/cuil/workspace/arm/lm3s811/TI_Stellaris/driverlib/sysctl.c ****            (ulPeripheral == SYSCTL_PERIPH_USB0) ||
 257:/home/cuil/workspace/arm/lm3s811/TI_Stellaris/driverlib/sysctl.c ****            (ulPeripheral == SYSCTL_PERIPH_WDOG0) ||
 258:/home/cuil/workspace/arm/lm3s811/TI_Stellaris/driverlib/sysctl.c ****            (ulPeripheral == SYSCTL_PERIPH_WDOG1) ||
 259:/home/cuil/workspace/arm/lm3s811/TI_Stellaris/driverlib/sysctl.c ****            (ulPeripheral == SYSCTL_PERIPH_WTIMER0) ||
 260:/home/cuil/workspace/arm/lm3s811/TI_Stellaris/driverlib/sysctl.c ****            (ulPeripheral == SYSCTL_PERIPH_WTIMER1) ||
 261:/home/cuil/workspace/arm/lm3s811/TI_Stellaris/driverlib/sysctl.c ****            (ulPeripheral == SYSCTL_PERIPH_WTIMER2) ||
 262:/home/cuil/workspace/arm/lm3s811/TI_Stellaris/driverlib/sysctl.c ****            (ulPeripheral == SYSCTL_PERIPH_WTIMER3) ||
 263:/home/cuil/workspace/arm/lm3s811/TI_Stellaris/driverlib/sysctl.c ****            (ulPeripheral == SYSCTL_PERIPH_WTIMER4) ||
 264:/home/cuil/workspace/arm/lm3s811/TI_Stellaris/driverlib/sysctl.c ****            (ulPeripheral == SYSCTL_PERIPH_WTIMER5));
 265:/home/cuil/workspace/arm/lm3s811/TI_Stellaris/driverlib/sysctl.c **** }
 266:/home/cuil/workspace/arm/lm3s811/TI_Stellaris/driverlib/sysctl.c **** #endif
 267:/home/cuil/workspace/arm/lm3s811/TI_Stellaris/driverlib/sysctl.c **** 
 268:/home/cuil/workspace/arm/lm3s811/TI_Stellaris/driverlib/sysctl.c **** //*****************************************************************************
 269:/home/cuil/workspace/arm/lm3s811/TI_Stellaris/driverlib/sysctl.c **** //
 270:/home/cuil/workspace/arm/lm3s811/TI_Stellaris/driverlib/sysctl.c **** // A map of old peripheral defines to new peripheral defines.  Note that the
 271:/home/cuil/workspace/arm/lm3s811/TI_Stellaris/driverlib/sysctl.c **** // new peripheral defines will not work on parts that precede Blizzard class.
 272:/home/cuil/workspace/arm/lm3s811/TI_Stellaris/driverlib/sysctl.c **** //
 273:/home/cuil/workspace/arm/lm3s811/TI_Stellaris/driverlib/sysctl.c **** //*****************************************************************************
 274:/home/cuil/workspace/arm/lm3s811/TI_Stellaris/driverlib/sysctl.c **** static const unsigned long g_ppulPeripheralMap[][2] =
 275:/home/cuil/workspace/arm/lm3s811/TI_Stellaris/driverlib/sysctl.c **** {
 276:/home/cuil/workspace/arm/lm3s811/TI_Stellaris/driverlib/sysctl.c ****     { SYSCTL_PERIPH_ADC0, SYSCTL_PERIPH2_ADC0 },
 277:/home/cuil/workspace/arm/lm3s811/TI_Stellaris/driverlib/sysctl.c ****     { SYSCTL_PERIPH_ADC1, SYSCTL_PERIPH2_ADC1 },
 278:/home/cuil/workspace/arm/lm3s811/TI_Stellaris/driverlib/sysctl.c ****     { SYSCTL_PERIPH_CAN0, SYSCTL_PERIPH2_CAN0 },
 279:/home/cuil/workspace/arm/lm3s811/TI_Stellaris/driverlib/sysctl.c ****     { SYSCTL_PERIPH_CAN1, SYSCTL_PERIPH2_CAN1 },
 280:/home/cuil/workspace/arm/lm3s811/TI_Stellaris/driverlib/sysctl.c ****     { SYSCTL_PERIPH_CAN2, SYSCTL_PERIPH2_CAN2 },
 281:/home/cuil/workspace/arm/lm3s811/TI_Stellaris/driverlib/sysctl.c ****     { SYSCTL_PERIPH_COMP0, SYSCTL_PERIPH2_COMP0 },
 282:/home/cuil/workspace/arm/lm3s811/TI_Stellaris/driverlib/sysctl.c ****     { SYSCTL_PERIPH_COMP1, SYSCTL_PERIPH2_COMP0 },
 283:/home/cuil/workspace/arm/lm3s811/TI_Stellaris/driverlib/sysctl.c ****     { SYSCTL_PERIPH_COMP2, SYSCTL_PERIPH2_COMP0 },
 284:/home/cuil/workspace/arm/lm3s811/TI_Stellaris/driverlib/sysctl.c ****     { SYSCTL_PERIPH_GPIOA, SYSCTL_PERIPH2_GPIOA },
 285:/home/cuil/workspace/arm/lm3s811/TI_Stellaris/driverlib/sysctl.c ****     { SYSCTL_PERIPH_GPIOB, SYSCTL_PERIPH2_GPIOB },
 286:/home/cuil/workspace/arm/lm3s811/TI_Stellaris/driverlib/sysctl.c ****     { SYSCTL_PERIPH_GPIOC, SYSCTL_PERIPH2_GPIOC },
 287:/home/cuil/workspace/arm/lm3s811/TI_Stellaris/driverlib/sysctl.c ****     { SYSCTL_PERIPH_GPIOD, SYSCTL_PERIPH2_GPIOD },
 288:/home/cuil/workspace/arm/lm3s811/TI_Stellaris/driverlib/sysctl.c ****     { SYSCTL_PERIPH_GPIOE, SYSCTL_PERIPH2_GPIOE },
 289:/home/cuil/workspace/arm/lm3s811/TI_Stellaris/driverlib/sysctl.c ****     { SYSCTL_PERIPH_GPIOF, SYSCTL_PERIPH2_GPIOF },
 290:/home/cuil/workspace/arm/lm3s811/TI_Stellaris/driverlib/sysctl.c ****     { SYSCTL_PERIPH_GPIOG, SYSCTL_PERIPH2_GPIOG },
 291:/home/cuil/workspace/arm/lm3s811/TI_Stellaris/driverlib/sysctl.c ****     { SYSCTL_PERIPH_GPIOH, SYSCTL_PERIPH2_GPIOH },
 292:/home/cuil/workspace/arm/lm3s811/TI_Stellaris/driverlib/sysctl.c ****     { SYSCTL_PERIPH_GPIOJ, SYSCTL_PERIPH2_GPIOJ },
 293:/home/cuil/workspace/arm/lm3s811/TI_Stellaris/driverlib/sysctl.c ****     { SYSCTL_PERIPH_I2C0, SYSCTL_PERIPH2_I2C0 },
 294:/home/cuil/workspace/arm/lm3s811/TI_Stellaris/driverlib/sysctl.c ****     { SYSCTL_PERIPH_I2C1, SYSCTL_PERIPH2_I2C1 },
 295:/home/cuil/workspace/arm/lm3s811/TI_Stellaris/driverlib/sysctl.c ****     { SYSCTL_PERIPH_PWM0, SYSCTL_PERIPH2_PWM0 },
 296:/home/cuil/workspace/arm/lm3s811/TI_Stellaris/driverlib/sysctl.c ****     { SYSCTL_PERIPH_QEI0, SYSCTL_PERIPH2_QEI0 },
 297:/home/cuil/workspace/arm/lm3s811/TI_Stellaris/driverlib/sysctl.c ****     { SYSCTL_PERIPH_QEI1, SYSCTL_PERIPH2_QEI1 },
 298:/home/cuil/workspace/arm/lm3s811/TI_Stellaris/driverlib/sysctl.c ****     { SYSCTL_PERIPH_SSI0, SYSCTL_PERIPH2_SSI0 },
 299:/home/cuil/workspace/arm/lm3s811/TI_Stellaris/driverlib/sysctl.c ****     { SYSCTL_PERIPH_SSI1, SYSCTL_PERIPH2_SSI1 },
 300:/home/cuil/workspace/arm/lm3s811/TI_Stellaris/driverlib/sysctl.c ****     { SYSCTL_PERIPH_TIMER0, SYSCTL_PERIPH2_TIMER0 },
 301:/home/cuil/workspace/arm/lm3s811/TI_Stellaris/driverlib/sysctl.c ****     { SYSCTL_PERIPH_TIMER1, SYSCTL_PERIPH2_TIMER1 },
 302:/home/cuil/workspace/arm/lm3s811/TI_Stellaris/driverlib/sysctl.c ****     { SYSCTL_PERIPH_TIMER2, SYSCTL_PERIPH2_TIMER2 },
 303:/home/cuil/workspace/arm/lm3s811/TI_Stellaris/driverlib/sysctl.c ****     { SYSCTL_PERIPH_TIMER3, SYSCTL_PERIPH2_TIMER3 },
 304:/home/cuil/workspace/arm/lm3s811/TI_Stellaris/driverlib/sysctl.c ****     { SYSCTL_PERIPH_UART0, SYSCTL_PERIPH2_UART0 },
 305:/home/cuil/workspace/arm/lm3s811/TI_Stellaris/driverlib/sysctl.c ****     { SYSCTL_PERIPH_UART1, SYSCTL_PERIPH2_UART1 },
 306:/home/cuil/workspace/arm/lm3s811/TI_Stellaris/driverlib/sysctl.c ****     { SYSCTL_PERIPH_UART2, SYSCTL_PERIPH2_UART2 },
 307:/home/cuil/workspace/arm/lm3s811/TI_Stellaris/driverlib/sysctl.c ****     { SYSCTL_PERIPH_UDMA, SYSCTL_PERIPH2_UDMA },
 308:/home/cuil/workspace/arm/lm3s811/TI_Stellaris/driverlib/sysctl.c ****     { SYSCTL_PERIPH_USB0, SYSCTL_PERIPH2_USB0 },
 309:/home/cuil/workspace/arm/lm3s811/TI_Stellaris/driverlib/sysctl.c ****     { SYSCTL_PERIPH_WDOG0, SYSCTL_PERIPH2_WDOG0 },
 310:/home/cuil/workspace/arm/lm3s811/TI_Stellaris/driverlib/sysctl.c ****     { SYSCTL_PERIPH_WDOG1, SYSCTL_PERIPH2_WDOG1 },
 311:/home/cuil/workspace/arm/lm3s811/TI_Stellaris/driverlib/sysctl.c **** };
 312:/home/cuil/workspace/arm/lm3s811/TI_Stellaris/driverlib/sysctl.c **** 
 313:/home/cuil/workspace/arm/lm3s811/TI_Stellaris/driverlib/sysctl.c **** //*****************************************************************************
 314:/home/cuil/workspace/arm/lm3s811/TI_Stellaris/driverlib/sysctl.c **** //
 315:/home/cuil/workspace/arm/lm3s811/TI_Stellaris/driverlib/sysctl.c **** // Maps a SYSCTL_PERIPH_foo identifier into its new-style SYSCTL_PERIPH2_foo
 316:/home/cuil/workspace/arm/lm3s811/TI_Stellaris/driverlib/sysctl.c **** // identifier.
 317:/home/cuil/workspace/arm/lm3s811/TI_Stellaris/driverlib/sysctl.c **** //
 318:/home/cuil/workspace/arm/lm3s811/TI_Stellaris/driverlib/sysctl.c **** //*****************************************************************************
 319:/home/cuil/workspace/arm/lm3s811/TI_Stellaris/driverlib/sysctl.c **** static unsigned long
 320:/home/cuil/workspace/arm/lm3s811/TI_Stellaris/driverlib/sysctl.c **** SysCtlPeripheralMapToNew(unsigned long ulPeripheral)
 321:/home/cuil/workspace/arm/lm3s811/TI_Stellaris/driverlib/sysctl.c **** {
 11580              		.loc 1 321 0
 11581              		.cfi_startproc
 11582              		@ args = 0, pretend = 0, frame = 16
 11583              		@ frame_needed = 1, uses_anonymous_args = 0
 11584              		@ link register save eliminated.
 11585 0000 80B4     		push	{r7}
 11586              	.LCFI0:
 11587              		.cfi_def_cfa_offset 4
 11588 0002 85B0     		sub	sp, sp, #20
 11589              	.LCFI1:
 11590              		.cfi_def_cfa_offset 24
 11591 0004 00AF     		add	r7, sp, #0
 11592              		.cfi_offset 7, -4
 11593              	.LCFI2:
 11594              		.cfi_def_cfa_register 7
 11595 0006 7860     		str	r0, [r7, #4]
 322:/home/cuil/workspace/arm/lm3s811/TI_Stellaris/driverlib/sysctl.c ****     unsigned long ulIndex;
 323:/home/cuil/workspace/arm/lm3s811/TI_Stellaris/driverlib/sysctl.c **** 
 324:/home/cuil/workspace/arm/lm3s811/TI_Stellaris/driverlib/sysctl.c ****     //
 325:/home/cuil/workspace/arm/lm3s811/TI_Stellaris/driverlib/sysctl.c ****     // Loop throug the table of old-style identifiers.
 326:/home/cuil/workspace/arm/lm3s811/TI_Stellaris/driverlib/sysctl.c ****     //
 327:/home/cuil/workspace/arm/lm3s811/TI_Stellaris/driverlib/sysctl.c ****     for(ulIndex = 0; ulIndex < (sizeof(g_ppulPeripheralMap) /
 11596              		.loc 1 327 0
 11597 0008 4FF00003 		mov	r3, #0
 11598 000c FB60     		str	r3, [r7, #12]
 11599 000e 11E0     		b	.L2
 11600              	.L5:
 328:/home/cuil/workspace/arm/lm3s811/TI_Stellaris/driverlib/sysctl.c ****                                 sizeof(g_ppulPeripheralMap[0])); ulIndex++)
 329:/home/cuil/workspace/arm/lm3s811/TI_Stellaris/driverlib/sysctl.c ****     {
 330:/home/cuil/workspace/arm/lm3s811/TI_Stellaris/driverlib/sysctl.c ****         //
 331:/home/cuil/workspace/arm/lm3s811/TI_Stellaris/driverlib/sysctl.c ****         // See if this peripheral matches the old-style identifer.
 332:/home/cuil/workspace/arm/lm3s811/TI_Stellaris/driverlib/sysctl.c ****         //
 333:/home/cuil/workspace/arm/lm3s811/TI_Stellaris/driverlib/sysctl.c ****         if(g_ppulPeripheralMap[ulIndex][0] == ulPeripheral)
 11601              		.loc 1 333 0
 11602 0010 0D4B     		ldr	r3, .L6
 11603 0012 FA68     		ldr	r2, [r7, #12]
 11604 0014 53F83220 		ldr	r2, [r3, r2, lsl #3]
 11605 0018 7B68     		ldr	r3, [r7, #4]
 11606 001a 9A42     		cmp	r2, r3
 11607 001c 06D1     		bne	.L3
 334:/home/cuil/workspace/arm/lm3s811/TI_Stellaris/driverlib/sysctl.c ****         {
 335:/home/cuil/workspace/arm/lm3s811/TI_Stellaris/driverlib/sysctl.c ****             //
 336:/home/cuil/workspace/arm/lm3s811/TI_Stellaris/driverlib/sysctl.c ****             // Return the new-style identifier that corresponds to this
 337:/home/cuil/workspace/arm/lm3s811/TI_Stellaris/driverlib/sysctl.c ****             // peripheral.
 338:/home/cuil/workspace/arm/lm3s811/TI_Stellaris/driverlib/sysctl.c ****             //
 339:/home/cuil/workspace/arm/lm3s811/TI_Stellaris/driverlib/sysctl.c ****             return(g_ppulPeripheralMap[ulIndex][1]);
 11608              		.loc 1 339 0
 11609 001e 0A4A     		ldr	r2, .L6
 11610 0020 FB68     		ldr	r3, [r7, #12]
 11611 0022 4FEAC303 		lsl	r3, r3, #3
 11612 0026 D318     		adds	r3, r2, r3
 11613 0028 5B68     		ldr	r3, [r3, #4]
 11614 002a 07E0     		b	.L4
 11615              	.L3:
 328:/home/cuil/workspace/arm/lm3s811/TI_Stellaris/driverlib/sysctl.c ****                                 sizeof(g_ppulPeripheralMap[0])); ulIndex++)
 11616              		.loc 1 328 0
 11617 002c FB68     		ldr	r3, [r7, #12]
 11618 002e 03F10103 		add	r3, r3, #1
 11619 0032 FB60     		str	r3, [r7, #12]
 11620              	.L2:
 327:/home/cuil/workspace/arm/lm3s811/TI_Stellaris/driverlib/sysctl.c ****     for(ulIndex = 0; ulIndex < (sizeof(g_ppulPeripheralMap) /
 11621              		.loc 1 327 0 discriminator 1
 11622 0034 FB68     		ldr	r3, [r7, #12]
 11623 0036 222B     		cmp	r3, #34
 11624 0038 EAD9     		bls	.L5
 340:/home/cuil/workspace/arm/lm3s811/TI_Stellaris/driverlib/sysctl.c ****         }
 341:/home/cuil/workspace/arm/lm3s811/TI_Stellaris/driverlib/sysctl.c ****     }
 342:/home/cuil/workspace/arm/lm3s811/TI_Stellaris/driverlib/sysctl.c **** 
 343:/home/cuil/workspace/arm/lm3s811/TI_Stellaris/driverlib/sysctl.c ****     //
 344:/home/cuil/workspace/arm/lm3s811/TI_Stellaris/driverlib/sysctl.c ****     // No old-style identifier was found, so return the identifier unchanged
 345:/home/cuil/workspace/arm/lm3s811/TI_Stellaris/driverlib/sysctl.c ****     // (on the assumption that it is already a new-style identifier).
 346:/home/cuil/workspace/arm/lm3s811/TI_Stellaris/driverlib/sysctl.c ****     //
 347:/home/cuil/workspace/arm/lm3s811/TI_Stellaris/driverlib/sysctl.c ****     return(ulPeripheral);
 11625              		.loc 1 347 0
 11626 003a 7B68     		ldr	r3, [r7, #4]
 11627              	.L4:
 348:/home/cuil/workspace/arm/lm3s811/TI_Stellaris/driverlib/sysctl.c **** }
 11628              		.loc 1 348 0
 11629 003c 1846     		mov	r0, r3
 11630 003e 07F11407 		add	r7, r7, #20
 11631 0042 BD46     		mov	sp, r7
 11632 0044 80BC     		pop	{r7}
 11633 0046 7047     		bx	lr
 11634              	.L7:
 11635              		.align	2
 11636              	.L6:
 11637 0048 AC000000 		.word	g_ppulPeripheralMap
 11638              		.cfi_endproc
 11639              	.LFE0:
 11641              		.section	.text.SysCtlSRAMSizeGet,"ax",%progbits
 11642              		.align	2
 11643              		.global	SysCtlSRAMSizeGet
 11644              		.thumb
 11645              		.thumb_func
 11647              	SysCtlSRAMSizeGet:
 11648              	.LFB1:
 349:/home/cuil/workspace/arm/lm3s811/TI_Stellaris/driverlib/sysctl.c **** 
 350:/home/cuil/workspace/arm/lm3s811/TI_Stellaris/driverlib/sysctl.c **** //*****************************************************************************
 351:/home/cuil/workspace/arm/lm3s811/TI_Stellaris/driverlib/sysctl.c **** //
 352:/home/cuil/workspace/arm/lm3s811/TI_Stellaris/driverlib/sysctl.c **** //! Gets the size of the SRAM.
 353:/home/cuil/workspace/arm/lm3s811/TI_Stellaris/driverlib/sysctl.c **** //!
 354:/home/cuil/workspace/arm/lm3s811/TI_Stellaris/driverlib/sysctl.c **** //! This function determines the size of the SRAM on the Stellaris device.
 355:/home/cuil/workspace/arm/lm3s811/TI_Stellaris/driverlib/sysctl.c **** //!
 356:/home/cuil/workspace/arm/lm3s811/TI_Stellaris/driverlib/sysctl.c **** //! \return The total number of bytes of SRAM.
 357:/home/cuil/workspace/arm/lm3s811/TI_Stellaris/driverlib/sysctl.c **** //
 358:/home/cuil/workspace/arm/lm3s811/TI_Stellaris/driverlib/sysctl.c **** //*****************************************************************************
 359:/home/cuil/workspace/arm/lm3s811/TI_Stellaris/driverlib/sysctl.c **** unsigned long
 360:/home/cuil/workspace/arm/lm3s811/TI_Stellaris/driverlib/sysctl.c **** SysCtlSRAMSizeGet(void)
 361:/home/cuil/workspace/arm/lm3s811/TI_Stellaris/driverlib/sysctl.c **** {
 11649              		.loc 1 361 0
 11650              		.cfi_startproc
 11651              		@ args = 0, pretend = 0, frame = 0
 11652              		@ frame_needed = 1, uses_anonymous_args = 0
 11653              		@ link register save eliminated.
 11654 0000 80B4     		push	{r7}
 11655              	.LCFI3:
 11656              		.cfi_def_cfa_offset 4
 11657 0002 00AF     		add	r7, sp, #0
 11658              		.cfi_offset 7, -4
 11659              	.LCFI4:
 11660              		.cfi_def_cfa_register 7
 362:/home/cuil/workspace/arm/lm3s811/TI_Stellaris/driverlib/sysctl.c ****     //
 363:/home/cuil/workspace/arm/lm3s811/TI_Stellaris/driverlib/sysctl.c ****     // Compute the size of the SRAM.
 364:/home/cuil/workspace/arm/lm3s811/TI_Stellaris/driverlib/sysctl.c ****     //
 365:/home/cuil/workspace/arm/lm3s811/TI_Stellaris/driverlib/sysctl.c ****     return(((HWREG(SYSCTL_DC0) & SYSCTL_DC0_SRAMSZ_M) >> 8) + 0x100);
 11661              		.loc 1 365 0
 11662 0004 064B     		ldr	r3, .L9
 11663 0006 1B68     		ldr	r3, [r3, #0]
 11664 0008 4FEA1343 		lsr	r3, r3, #16
 11665 000c 4FEA0343 		lsl	r3, r3, #16
 11666 0010 4FEA1323 		lsr	r3, r3, #8
 11667 0014 03F58073 		add	r3, r3, #256
 366:/home/cuil/workspace/arm/lm3s811/TI_Stellaris/driverlib/sysctl.c **** }
 11668              		.loc 1 366 0
 11669 0018 1846     		mov	r0, r3
 11670 001a BD46     		mov	sp, r7
 11671 001c 80BC     		pop	{r7}
 11672 001e 7047     		bx	lr
 11673              	.L10:
 11674              		.align	2
 11675              	.L9:
 11676 0020 08E00F40 		.word	1074782216
 11677              		.cfi_endproc
 11678              	.LFE1:
 11680              		.section	.text.SysCtlFlashSizeGet,"ax",%progbits
 11681              		.align	2
 11682              		.global	SysCtlFlashSizeGet
 11683              		.thumb
 11684              		.thumb_func
 11686              	SysCtlFlashSizeGet:
 11687              	.LFB2:
 367:/home/cuil/workspace/arm/lm3s811/TI_Stellaris/driverlib/sysctl.c **** 
 368:/home/cuil/workspace/arm/lm3s811/TI_Stellaris/driverlib/sysctl.c **** //*****************************************************************************
 369:/home/cuil/workspace/arm/lm3s811/TI_Stellaris/driverlib/sysctl.c **** //
 370:/home/cuil/workspace/arm/lm3s811/TI_Stellaris/driverlib/sysctl.c **** //! Gets the size of the flash.
 371:/home/cuil/workspace/arm/lm3s811/TI_Stellaris/driverlib/sysctl.c **** //!
 372:/home/cuil/workspace/arm/lm3s811/TI_Stellaris/driverlib/sysctl.c **** //! This function determines the size of the flash on the Stellaris device.
 373:/home/cuil/workspace/arm/lm3s811/TI_Stellaris/driverlib/sysctl.c **** //!
 374:/home/cuil/workspace/arm/lm3s811/TI_Stellaris/driverlib/sysctl.c **** //! \return The total number of bytes of flash.
 375:/home/cuil/workspace/arm/lm3s811/TI_Stellaris/driverlib/sysctl.c **** //
 376:/home/cuil/workspace/arm/lm3s811/TI_Stellaris/driverlib/sysctl.c **** //*****************************************************************************
 377:/home/cuil/workspace/arm/lm3s811/TI_Stellaris/driverlib/sysctl.c **** unsigned long
 378:/home/cuil/workspace/arm/lm3s811/TI_Stellaris/driverlib/sysctl.c **** SysCtlFlashSizeGet(void)
 379:/home/cuil/workspace/arm/lm3s811/TI_Stellaris/driverlib/sysctl.c **** {
 11688              		.loc 1 379 0
 11689              		.cfi_startproc
 11690              		@ args = 0, pretend = 0, frame = 0
 11691              		@ frame_needed = 1, uses_anonymous_args = 0
 11692              		@ link register save eliminated.
 11693 0000 80B4     		push	{r7}
 11694              	.LCFI5:
 11695              		.cfi_def_cfa_offset 4
 11696 0002 00AF     		add	r7, sp, #0
 11697              		.cfi_offset 7, -4
 11698              	.LCFI6:
 11699              		.cfi_def_cfa_register 7
 380:/home/cuil/workspace/arm/lm3s811/TI_Stellaris/driverlib/sysctl.c ****     //
 381:/home/cuil/workspace/arm/lm3s811/TI_Stellaris/driverlib/sysctl.c ****     // Compute the size of the flash.
 382:/home/cuil/workspace/arm/lm3s811/TI_Stellaris/driverlib/sysctl.c ****     //
 383:/home/cuil/workspace/arm/lm3s811/TI_Stellaris/driverlib/sysctl.c ****     return(((HWREG(SYSCTL_DC0) & SYSCTL_DC0_FLASHSZ_M) << 11) + 0x800);
 11700              		.loc 1 383 0
 11701 0004 064B     		ldr	r3, .L12
 11702 0006 1B68     		ldr	r3, [r3, #0]
 11703 0008 4FEA0343 		lsl	r3, r3, #16
 11704 000c 4FEA1343 		lsr	r3, r3, #16
 11705 0010 4FEAC323 		lsl	r3, r3, #11
 11706 0014 03F50063 		add	r3, r3, #2048
 384:/home/cuil/workspace/arm/lm3s811/TI_Stellaris/driverlib/sysctl.c **** }
 11707              		.loc 1 384 0
 11708 0018 1846     		mov	r0, r3
 11709 001a BD46     		mov	sp, r7
 11710 001c 80BC     		pop	{r7}
 11711 001e 7047     		bx	lr
 11712              	.L13:
 11713              		.align	2
 11714              	.L12:
 11715 0020 08E00F40 		.word	1074782216
 11716              		.cfi_endproc
 11717              	.LFE2:
 11719              		.section	.text.SysCtlPinPresent,"ax",%progbits
 11720              		.align	2
 11721              		.global	SysCtlPinPresent
 11722              		.thumb
 11723              		.thumb_func
 11725              	SysCtlPinPresent:
 11726              	.LFB3:
 385:/home/cuil/workspace/arm/lm3s811/TI_Stellaris/driverlib/sysctl.c **** 
 386:/home/cuil/workspace/arm/lm3s811/TI_Stellaris/driverlib/sysctl.c **** //*****************************************************************************
 387:/home/cuil/workspace/arm/lm3s811/TI_Stellaris/driverlib/sysctl.c **** //
 388:/home/cuil/workspace/arm/lm3s811/TI_Stellaris/driverlib/sysctl.c **** //! Determines if a pin is present.
 389:/home/cuil/workspace/arm/lm3s811/TI_Stellaris/driverlib/sysctl.c **** //!
 390:/home/cuil/workspace/arm/lm3s811/TI_Stellaris/driverlib/sysctl.c **** //! \param ulPin is the pin in question.
 391:/home/cuil/workspace/arm/lm3s811/TI_Stellaris/driverlib/sysctl.c **** //!
 392:/home/cuil/workspace/arm/lm3s811/TI_Stellaris/driverlib/sysctl.c **** //! This function determines if a particular pin is present in the device.  The
 393:/home/cuil/workspace/arm/lm3s811/TI_Stellaris/driverlib/sysctl.c **** //! PWM, analog comparators, ADC, and timers have a varying number of pins
 394:/home/cuil/workspace/arm/lm3s811/TI_Stellaris/driverlib/sysctl.c **** //! across members of the Stellaris family; this function determines which pins
 395:/home/cuil/workspace/arm/lm3s811/TI_Stellaris/driverlib/sysctl.c **** //! are present on this device.
 396:/home/cuil/workspace/arm/lm3s811/TI_Stellaris/driverlib/sysctl.c **** //!
 397:/home/cuil/workspace/arm/lm3s811/TI_Stellaris/driverlib/sysctl.c **** //! The \e ulPin argument must be only one of the following values:
 398:/home/cuil/workspace/arm/lm3s811/TI_Stellaris/driverlib/sysctl.c **** //! \b SYSCTL_PIN_PWM0, \b SYSCTL_PIN_PWM1, \b SYSCTL_PIN_PWM2,
 399:/home/cuil/workspace/arm/lm3s811/TI_Stellaris/driverlib/sysctl.c **** //! \b SYSCTL_PIN_PWM3, \b SYSCTL_PIN_PWM4, \b SYSCTL_PIN_PWM5,
 400:/home/cuil/workspace/arm/lm3s811/TI_Stellaris/driverlib/sysctl.c **** //! \b SYSCTL_PIN_C0MINUS, \b SYSCTL_PIN_C0PLUS, \b SYSCTL_PIN_C0O,
 401:/home/cuil/workspace/arm/lm3s811/TI_Stellaris/driverlib/sysctl.c **** //! \b SYSCTL_PIN_C1MINUS, \b SYSCTL_PIN_C1PLUS, \b SYSCTL_PIN_C1O,
 402:/home/cuil/workspace/arm/lm3s811/TI_Stellaris/driverlib/sysctl.c **** //! \b SYSCTL_PIN_C2MINUS, \b SYSCTL_PIN_C2PLUS, \b SYSCTL_PIN_C2O,
 403:/home/cuil/workspace/arm/lm3s811/TI_Stellaris/driverlib/sysctl.c **** //! \b SYSCTL_PIN_ADC0, \b SYSCTL_PIN_ADC1, \b SYSCTL_PIN_ADC2,
 404:/home/cuil/workspace/arm/lm3s811/TI_Stellaris/driverlib/sysctl.c **** //! \b SYSCTL_PIN_ADC3, \b SYSCTL_PIN_ADC4, \b SYSCTL_PIN_ADC5,
 405:/home/cuil/workspace/arm/lm3s811/TI_Stellaris/driverlib/sysctl.c **** //! \b SYSCTL_PIN_ADC6, \b SYSCTL_PIN_ADC7, \b SYSCTL_PIN_CCP0,
 406:/home/cuil/workspace/arm/lm3s811/TI_Stellaris/driverlib/sysctl.c **** //! \b SYSCTL_PIN_CCP1, \b SYSCTL_PIN_CCP2, \b SYSCTL_PIN_CCP3,
 407:/home/cuil/workspace/arm/lm3s811/TI_Stellaris/driverlib/sysctl.c **** //! \b SYSCTL_PIN_CCP4, \b SYSCTL_PIN_CCP5, \b SYSCTL_PIN_CCP6,
 408:/home/cuil/workspace/arm/lm3s811/TI_Stellaris/driverlib/sysctl.c **** //! \b SYSCTL_PIN_CCP7, \b SYSCTL_PIN_32KHZ, or \b SYSCTL_PIN_MC_FAULT0.
 409:/home/cuil/workspace/arm/lm3s811/TI_Stellaris/driverlib/sysctl.c **** //!
 410:/home/cuil/workspace/arm/lm3s811/TI_Stellaris/driverlib/sysctl.c **** //! \return Returns \b true if the specified pin is present and \b false if it
 411:/home/cuil/workspace/arm/lm3s811/TI_Stellaris/driverlib/sysctl.c **** //! is not.
 412:/home/cuil/workspace/arm/lm3s811/TI_Stellaris/driverlib/sysctl.c **** //
 413:/home/cuil/workspace/arm/lm3s811/TI_Stellaris/driverlib/sysctl.c **** //*****************************************************************************
 414:/home/cuil/workspace/arm/lm3s811/TI_Stellaris/driverlib/sysctl.c **** tBoolean
 415:/home/cuil/workspace/arm/lm3s811/TI_Stellaris/driverlib/sysctl.c **** SysCtlPinPresent(unsigned long ulPin)
 416:/home/cuil/workspace/arm/lm3s811/TI_Stellaris/driverlib/sysctl.c **** {
 11727              		.loc 1 416 0
 11728              		.cfi_startproc
 11729              		@ args = 0, pretend = 0, frame = 8
 11730              		@ frame_needed = 1, uses_anonymous_args = 0
 11731              		@ link register save eliminated.
 11732 0000 80B4     		push	{r7}
 11733              	.LCFI7:
 11734              		.cfi_def_cfa_offset 4
 11735 0002 83B0     		sub	sp, sp, #12
 11736              	.LCFI8:
 11737              		.cfi_def_cfa_offset 16
 11738 0004 00AF     		add	r7, sp, #0
 11739              		.cfi_offset 7, -4
 11740              	.LCFI9:
 11741              		.cfi_def_cfa_register 7
 11742 0006 7860     		str	r0, [r7, #4]
 417:/home/cuil/workspace/arm/lm3s811/TI_Stellaris/driverlib/sysctl.c ****     //
 418:/home/cuil/workspace/arm/lm3s811/TI_Stellaris/driverlib/sysctl.c ****     // Check the arguments.
 419:/home/cuil/workspace/arm/lm3s811/TI_Stellaris/driverlib/sysctl.c ****     //
 420:/home/cuil/workspace/arm/lm3s811/TI_Stellaris/driverlib/sysctl.c ****     ASSERT((ulPin == SYSCTL_PIN_PWM0) ||
 421:/home/cuil/workspace/arm/lm3s811/TI_Stellaris/driverlib/sysctl.c ****            (ulPin == SYSCTL_PIN_PWM1) ||
 422:/home/cuil/workspace/arm/lm3s811/TI_Stellaris/driverlib/sysctl.c ****            (ulPin == SYSCTL_PIN_PWM2) ||
 423:/home/cuil/workspace/arm/lm3s811/TI_Stellaris/driverlib/sysctl.c ****            (ulPin == SYSCTL_PIN_PWM3) ||
 424:/home/cuil/workspace/arm/lm3s811/TI_Stellaris/driverlib/sysctl.c ****            (ulPin == SYSCTL_PIN_PWM4) ||
 425:/home/cuil/workspace/arm/lm3s811/TI_Stellaris/driverlib/sysctl.c ****            (ulPin == SYSCTL_PIN_PWM5) ||
 426:/home/cuil/workspace/arm/lm3s811/TI_Stellaris/driverlib/sysctl.c ****            (ulPin == SYSCTL_PIN_C0MINUS) ||
 427:/home/cuil/workspace/arm/lm3s811/TI_Stellaris/driverlib/sysctl.c ****            (ulPin == SYSCTL_PIN_C0PLUS) ||
 428:/home/cuil/workspace/arm/lm3s811/TI_Stellaris/driverlib/sysctl.c ****            (ulPin == SYSCTL_PIN_C0O) ||
 429:/home/cuil/workspace/arm/lm3s811/TI_Stellaris/driverlib/sysctl.c ****            (ulPin == SYSCTL_PIN_C1MINUS) ||
 430:/home/cuil/workspace/arm/lm3s811/TI_Stellaris/driverlib/sysctl.c ****            (ulPin == SYSCTL_PIN_C1PLUS) ||
 431:/home/cuil/workspace/arm/lm3s811/TI_Stellaris/driverlib/sysctl.c ****            (ulPin == SYSCTL_PIN_C1O) ||
 432:/home/cuil/workspace/arm/lm3s811/TI_Stellaris/driverlib/sysctl.c ****            (ulPin == SYSCTL_PIN_C2MINUS) ||
 433:/home/cuil/workspace/arm/lm3s811/TI_Stellaris/driverlib/sysctl.c ****            (ulPin == SYSCTL_PIN_C2PLUS) ||
 434:/home/cuil/workspace/arm/lm3s811/TI_Stellaris/driverlib/sysctl.c ****            (ulPin == SYSCTL_PIN_C2O) ||
 435:/home/cuil/workspace/arm/lm3s811/TI_Stellaris/driverlib/sysctl.c ****            (ulPin == SYSCTL_PIN_MC_FAULT0) ||
 436:/home/cuil/workspace/arm/lm3s811/TI_Stellaris/driverlib/sysctl.c ****            (ulPin == SYSCTL_PIN_ADC0) ||
 437:/home/cuil/workspace/arm/lm3s811/TI_Stellaris/driverlib/sysctl.c ****            (ulPin == SYSCTL_PIN_ADC1) ||
 438:/home/cuil/workspace/arm/lm3s811/TI_Stellaris/driverlib/sysctl.c ****            (ulPin == SYSCTL_PIN_ADC2) ||
 439:/home/cuil/workspace/arm/lm3s811/TI_Stellaris/driverlib/sysctl.c ****            (ulPin == SYSCTL_PIN_ADC3) ||
 440:/home/cuil/workspace/arm/lm3s811/TI_Stellaris/driverlib/sysctl.c ****            (ulPin == SYSCTL_PIN_ADC4) ||
 441:/home/cuil/workspace/arm/lm3s811/TI_Stellaris/driverlib/sysctl.c ****            (ulPin == SYSCTL_PIN_ADC5) ||
 442:/home/cuil/workspace/arm/lm3s811/TI_Stellaris/driverlib/sysctl.c ****            (ulPin == SYSCTL_PIN_ADC6) ||
 443:/home/cuil/workspace/arm/lm3s811/TI_Stellaris/driverlib/sysctl.c ****            (ulPin == SYSCTL_PIN_ADC7) ||
 444:/home/cuil/workspace/arm/lm3s811/TI_Stellaris/driverlib/sysctl.c ****            (ulPin == SYSCTL_PIN_CCP0) ||
 445:/home/cuil/workspace/arm/lm3s811/TI_Stellaris/driverlib/sysctl.c ****            (ulPin == SYSCTL_PIN_CCP1) ||
 446:/home/cuil/workspace/arm/lm3s811/TI_Stellaris/driverlib/sysctl.c ****            (ulPin == SYSCTL_PIN_CCP2) ||
 447:/home/cuil/workspace/arm/lm3s811/TI_Stellaris/driverlib/sysctl.c ****            (ulPin == SYSCTL_PIN_CCP3) ||
 448:/home/cuil/workspace/arm/lm3s811/TI_Stellaris/driverlib/sysctl.c ****            (ulPin == SYSCTL_PIN_CCP4) ||
 449:/home/cuil/workspace/arm/lm3s811/TI_Stellaris/driverlib/sysctl.c ****            (ulPin == SYSCTL_PIN_CCP5) ||
 450:/home/cuil/workspace/arm/lm3s811/TI_Stellaris/driverlib/sysctl.c ****            (ulPin == SYSCTL_PIN_32KHZ));
 451:/home/cuil/workspace/arm/lm3s811/TI_Stellaris/driverlib/sysctl.c **** 
 452:/home/cuil/workspace/arm/lm3s811/TI_Stellaris/driverlib/sysctl.c ****     //
 453:/home/cuil/workspace/arm/lm3s811/TI_Stellaris/driverlib/sysctl.c ****     // Determine if this pin is present.
 454:/home/cuil/workspace/arm/lm3s811/TI_Stellaris/driverlib/sysctl.c ****     //
 455:/home/cuil/workspace/arm/lm3s811/TI_Stellaris/driverlib/sysctl.c ****     if(HWREG(SYSCTL_DC3) & ulPin)
 11743              		.loc 1 455 0
 11744 0008 084B     		ldr	r3, .L17
 11745 000a 1A68     		ldr	r2, [r3, #0]
 11746 000c 7B68     		ldr	r3, [r7, #4]
 11747 000e 02EA0303 		and	r3, r2, r3
 11748 0012 002B     		cmp	r3, #0
 11749 0014 02D0     		beq	.L15
 456:/home/cuil/workspace/arm/lm3s811/TI_Stellaris/driverlib/sysctl.c ****     {
 457:/home/cuil/workspace/arm/lm3s811/TI_Stellaris/driverlib/sysctl.c ****         return(true);
 11750              		.loc 1 457 0
 11751 0016 4FF00103 		mov	r3, #1
 11752 001a 01E0     		b	.L16
 11753              	.L15:
 458:/home/cuil/workspace/arm/lm3s811/TI_Stellaris/driverlib/sysctl.c ****     }
 459:/home/cuil/workspace/arm/lm3s811/TI_Stellaris/driverlib/sysctl.c ****     else
 460:/home/cuil/workspace/arm/lm3s811/TI_Stellaris/driverlib/sysctl.c ****     {
 461:/home/cuil/workspace/arm/lm3s811/TI_Stellaris/driverlib/sysctl.c ****         return(false);
 11754              		.loc 1 461 0
 11755 001c 4FF00003 		mov	r3, #0
 11756              	.L16:
 462:/home/cuil/workspace/arm/lm3s811/TI_Stellaris/driverlib/sysctl.c ****     }
 463:/home/cuil/workspace/arm/lm3s811/TI_Stellaris/driverlib/sysctl.c **** }
 11757              		.loc 1 463 0
 11758 0020 1846     		mov	r0, r3
 11759 0022 07F10C07 		add	r7, r7, #12
 11760 0026 BD46     		mov	sp, r7
 11761 0028 80BC     		pop	{r7}
 11762 002a 7047     		bx	lr
 11763              	.L18:
 11764              		.align	2
 11765              	.L17:
 11766 002c 18E00F40 		.word	1074782232
 11767              		.cfi_endproc
 11768              	.LFE3:
 11770              		.section	.text.SysCtlPeripheralPresent,"ax",%progbits
 11771              		.align	2
 11772              		.global	SysCtlPeripheralPresent
 11773              		.thumb
 11774              		.thumb_func
 11776              	SysCtlPeripheralPresent:
 11777              	.LFB4:
 464:/home/cuil/workspace/arm/lm3s811/TI_Stellaris/driverlib/sysctl.c **** 
 465:/home/cuil/workspace/arm/lm3s811/TI_Stellaris/driverlib/sysctl.c **** //*****************************************************************************
 466:/home/cuil/workspace/arm/lm3s811/TI_Stellaris/driverlib/sysctl.c **** //
 467:/home/cuil/workspace/arm/lm3s811/TI_Stellaris/driverlib/sysctl.c **** //! Determines if a peripheral is present.
 468:/home/cuil/workspace/arm/lm3s811/TI_Stellaris/driverlib/sysctl.c **** //!
 469:/home/cuil/workspace/arm/lm3s811/TI_Stellaris/driverlib/sysctl.c **** //! \param ulPeripheral is the peripheral in question.
 470:/home/cuil/workspace/arm/lm3s811/TI_Stellaris/driverlib/sysctl.c **** //!
 471:/home/cuil/workspace/arm/lm3s811/TI_Stellaris/driverlib/sysctl.c **** //! This function determines if a particular peripheral is present in the 
 472:/home/cuil/workspace/arm/lm3s811/TI_Stellaris/driverlib/sysctl.c **** //! device.  Each member of the Stellaris family has a different peripheral 
 473:/home/cuil/workspace/arm/lm3s811/TI_Stellaris/driverlib/sysctl.c **** //! set; this function determines which peripherals are present on this device.
 474:/home/cuil/workspace/arm/lm3s811/TI_Stellaris/driverlib/sysctl.c **** //!
 475:/home/cuil/workspace/arm/lm3s811/TI_Stellaris/driverlib/sysctl.c **** //! The \e ulPeripheral parameter must be only one of the following values:
 476:/home/cuil/workspace/arm/lm3s811/TI_Stellaris/driverlib/sysctl.c **** //! \b SYSCTL_PERIPH_ADC0, \b SYSCTL_PERIPH_ADC1, \b SYSCTL_PERIPH_CAN0,
 477:/home/cuil/workspace/arm/lm3s811/TI_Stellaris/driverlib/sysctl.c **** //! \b SYSCTL_PERIPH_CAN1, \b SYSCTL_PERIPH_CAN2, \b SYSCTL_PERIPH_COMP0,
 478:/home/cuil/workspace/arm/lm3s811/TI_Stellaris/driverlib/sysctl.c **** //! \b SYSCTL_PERIPH_COMP1, \b SYSCTL_PERIPH_COMP2, \b SYSCTL_PERIPH_EPI0,
 479:/home/cuil/workspace/arm/lm3s811/TI_Stellaris/driverlib/sysctl.c **** //! \b SYSCTL_PERIPH_ETH, \b SYSCTL_PERIPH_FAN0, \b SYSCTL_PERIPH_GPIOA,
 480:/home/cuil/workspace/arm/lm3s811/TI_Stellaris/driverlib/sysctl.c **** //! \b SYSCTL_PERIPH_GPIOB, \b SYSCTL_PERIPH_GPIOC, \b SYSCTL_PERIPH_GPIOD,
 481:/home/cuil/workspace/arm/lm3s811/TI_Stellaris/driverlib/sysctl.c **** //! \b SYSCTL_PERIPH_GPIOE, \b SYSCTL_PERIPH_GPIOF, \b SYSCTL_PERIPH_GPIOG,
 482:/home/cuil/workspace/arm/lm3s811/TI_Stellaris/driverlib/sysctl.c **** //! \b SYSCTL_PERIPH_GPIOH, \b SYSCTL_PERIPH_GPIOJ, \b SYSCTL_PERIPH_GPIOK,
 483:/home/cuil/workspace/arm/lm3s811/TI_Stellaris/driverlib/sysctl.c **** //! \b SYSCTL_PERIPH_GPIOL, \b SYSCTL_PERIPH_GPIOM, \b SYSCTL_PERIPH_GPION,
 484:/home/cuil/workspace/arm/lm3s811/TI_Stellaris/driverlib/sysctl.c **** //! \b SYSCTL_PERIPH_GPIOP, \b SYSCTL_PERIPH_GPIOQ, \b SYSCTL_PERIPH_HIBERNATE,
 485:/home/cuil/workspace/arm/lm3s811/TI_Stellaris/driverlib/sysctl.c **** //! \b SYSCTL_PERIPH_I2C0, \b SYSCTL_PERIPH_I2C1, \b SYSCTL_PERIPH_I2C2,
 486:/home/cuil/workspace/arm/lm3s811/TI_Stellaris/driverlib/sysctl.c **** //! \b SYSCTL_PERIPH_I2C3, \b SYSCTL_PERIPH_I2C4, \b SYSCTL_PERIPH_I2C5,
 487:/home/cuil/workspace/arm/lm3s811/TI_Stellaris/driverlib/sysctl.c **** //! \b SYSCTL_PERIPH_I2S0, \b SYSCTL_PERIPH_IEEE1588, \b SYSCTL_PERIPH_LPC0,
 488:/home/cuil/workspace/arm/lm3s811/TI_Stellaris/driverlib/sysctl.c **** //! \b SYSCTL_PERIPH_MPU, \b SYSCTL_PERIPH_PECI0, \b SYSCTL_PERIPH_PLL,
 489:/home/cuil/workspace/arm/lm3s811/TI_Stellaris/driverlib/sysctl.c **** //! \b SYSCTL_PERIPH_PWM0, \b SYSCTL_PERIPH_PWM1, \b SYSCTL_PERIPH_QEI0,
 490:/home/cuil/workspace/arm/lm3s811/TI_Stellaris/driverlib/sysctl.c **** //! \b SYSCTL_PERIPH_QEI1, \b SYSCTL_PERIPH_SSI0, \b SYSCTL_PERIPH_SSI1,
 491:/home/cuil/workspace/arm/lm3s811/TI_Stellaris/driverlib/sysctl.c **** //! \b SYSCTL_PERIPH_SSI2, \b SYSCTL_PERIPH_SSI3, \b SYSCTL_PERIPH_TEMP,
 492:/home/cuil/workspace/arm/lm3s811/TI_Stellaris/driverlib/sysctl.c **** //! \b SYSCTL_PERIPH_TIMER0, \b SYSCTL_PERIPH_TIMER1, \b SYSCTL_PERIPH_TIMER2,
 493:/home/cuil/workspace/arm/lm3s811/TI_Stellaris/driverlib/sysctl.c **** //! \b SYSCTL_PERIPH_TIMER3, \b SYSCTL_PERIPH_TIMER4, \b SYSCTL_PERIPH_TIMER5,
 494:/home/cuil/workspace/arm/lm3s811/TI_Stellaris/driverlib/sysctl.c **** //! \b SYSCTL_PERIPH_UART0, \b SYSCTL_PERIPH_UART1, \b SYSCTL_PERIPH_UART2,
 495:/home/cuil/workspace/arm/lm3s811/TI_Stellaris/driverlib/sysctl.c **** //! \b SYSCTL_PERIPH_UART3, \b SYSCTL_PERIPH_UART4, \b SYSCTL_PERIPH_UART5,
 496:/home/cuil/workspace/arm/lm3s811/TI_Stellaris/driverlib/sysctl.c **** //! \b SYSCTL_PERIPH_UART6, \b SYSCTL_PERIPH_UART7, \b SYSCTL_PERIPH_UDMA,
 497:/home/cuil/workspace/arm/lm3s811/TI_Stellaris/driverlib/sysctl.c **** //! \b SYSCTL_PERIPH_USB0, \b SYSCTL_PERIPH_WDOG0, \b SYSCTL_PERIPH_WDOG1,
 498:/home/cuil/workspace/arm/lm3s811/TI_Stellaris/driverlib/sysctl.c **** //! \b SYSCTL_PERIPH_WTIMER0, \b SYSCTL_PERIPH_WTIMER1,
 499:/home/cuil/workspace/arm/lm3s811/TI_Stellaris/driverlib/sysctl.c **** //! \b SYSCTL_PERIPH_WTIMER2, \b SYSCTL_PERIPH_WTIMER3,
 500:/home/cuil/workspace/arm/lm3s811/TI_Stellaris/driverlib/sysctl.c **** //! \b SYSCTL_PERIPH_WTIMER4, or \b SYSCTL_PERIPH_WTIMER5,
 501:/home/cuil/workspace/arm/lm3s811/TI_Stellaris/driverlib/sysctl.c **** //!
 502:/home/cuil/workspace/arm/lm3s811/TI_Stellaris/driverlib/sysctl.c **** //! \return Returns \b true if the specified peripheral is present and \b false
 503:/home/cuil/workspace/arm/lm3s811/TI_Stellaris/driverlib/sysctl.c **** //! if it is not.
 504:/home/cuil/workspace/arm/lm3s811/TI_Stellaris/driverlib/sysctl.c **** //
 505:/home/cuil/workspace/arm/lm3s811/TI_Stellaris/driverlib/sysctl.c **** //*****************************************************************************
 506:/home/cuil/workspace/arm/lm3s811/TI_Stellaris/driverlib/sysctl.c **** tBoolean
 507:/home/cuil/workspace/arm/lm3s811/TI_Stellaris/driverlib/sysctl.c **** SysCtlPeripheralPresent(unsigned long ulPeripheral)
 508:/home/cuil/workspace/arm/lm3s811/TI_Stellaris/driverlib/sysctl.c **** {
 11778              		.loc 1 508 0
 11779              		.cfi_startproc
 11780              		@ args = 0, pretend = 0, frame = 8
 11781              		@ frame_needed = 1, uses_anonymous_args = 0
 11782              		@ link register save eliminated.
 11783 0000 80B4     		push	{r7}
 11784              	.LCFI10:
 11785              		.cfi_def_cfa_offset 4
 11786 0002 83B0     		sub	sp, sp, #12
 11787              	.LCFI11:
 11788              		.cfi_def_cfa_offset 16
 11789 0004 00AF     		add	r7, sp, #0
 11790              		.cfi_offset 7, -4
 11791              	.LCFI12:
 11792              		.cfi_def_cfa_register 7
 11793 0006 7860     		str	r0, [r7, #4]
 509:/home/cuil/workspace/arm/lm3s811/TI_Stellaris/driverlib/sysctl.c ****     //
 510:/home/cuil/workspace/arm/lm3s811/TI_Stellaris/driverlib/sysctl.c ****     // Check the arguments.
 511:/home/cuil/workspace/arm/lm3s811/TI_Stellaris/driverlib/sysctl.c ****     //
 512:/home/cuil/workspace/arm/lm3s811/TI_Stellaris/driverlib/sysctl.c ****     ASSERT(SysCtlPeripheralValid(ulPeripheral));
 513:/home/cuil/workspace/arm/lm3s811/TI_Stellaris/driverlib/sysctl.c **** 
 514:/home/cuil/workspace/arm/lm3s811/TI_Stellaris/driverlib/sysctl.c ****     //
 515:/home/cuil/workspace/arm/lm3s811/TI_Stellaris/driverlib/sysctl.c ****     // See if the peripheral index is 15, indicating a peripheral that is
 516:/home/cuil/workspace/arm/lm3s811/TI_Stellaris/driverlib/sysctl.c ****     // accessed via the SYSCTL_PPperiph registers.
 517:/home/cuil/workspace/arm/lm3s811/TI_Stellaris/driverlib/sysctl.c ****     //
 518:/home/cuil/workspace/arm/lm3s811/TI_Stellaris/driverlib/sysctl.c ****     if((ulPeripheral & 0xf0000000) == 0xf0000000)
 11794              		.loc 1 518 0
 11795 0008 7B68     		ldr	r3, [r7, #4]
 11796 000a 03F07043 		and	r3, r3, #-268435456
 11797 000e B3F1704F 		cmp	r3, #-268435456
 11798 0012 22D1     		bne	.L20
 519:/home/cuil/workspace/arm/lm3s811/TI_Stellaris/driverlib/sysctl.c ****     {
 520:/home/cuil/workspace/arm/lm3s811/TI_Stellaris/driverlib/sysctl.c ****         //
 521:/home/cuil/workspace/arm/lm3s811/TI_Stellaris/driverlib/sysctl.c ****         // See if this peripheral is present.
 522:/home/cuil/workspace/arm/lm3s811/TI_Stellaris/driverlib/sysctl.c ****         //
 523:/home/cuil/workspace/arm/lm3s811/TI_Stellaris/driverlib/sysctl.c ****         return(HWREGBITW(SYSCTL_PPBASE + ((ulPeripheral & 0xff00) >> 8),
 11799              		.loc 1 523 0
 11800 0014 7B68     		ldr	r3, [r7, #4]
 11801 0016 03F47F43 		and	r3, r3, #65280
 11802 001a 4FEA1322 		lsr	r2, r3, #8
 11803 001e 284B     		ldr	r3, .L25
 11804 0020 D318     		adds	r3, r2, r3
 11805 0022 03F07042 		and	r2, r3, #-268435456
 11806 0026 7B68     		ldr	r3, [r7, #4]
 11807 0028 03F47F43 		and	r3, r3, #65280
 11808 002c 4FEA1321 		lsr	r1, r3, #8
 11809 0030 234B     		ldr	r3, .L25
 11810 0032 CB18     		adds	r3, r1, r3
 11811 0034 23F07F43 		bic	r3, r3, #-16777216
 11812 0038 23F47003 		bic	r3, r3, #15728640
 11813 003c 4FEA4313 		lsl	r3, r3, #5
 11814 0040 1A43     		orrs	r2, r2, r3
 11815 0042 7B68     		ldr	r3, [r7, #4]
 11816 0044 03F0FF03 		and	r3, r3, #255
 11817 0048 4FEA8303 		lsl	r3, r3, #2
 11818 004c 42EA0303 		orr	r3, r2, r3
 11819 0050 43F00073 		orr	r3, r3, #33554432
 11820 0054 1B68     		ldr	r3, [r3, #0]
 11821 0056 DBB2     		uxtb	r3, r3
 11822 0058 2BE0     		b	.L21
 11823              	.L20:
 524:/home/cuil/workspace/arm/lm3s811/TI_Stellaris/driverlib/sysctl.c ****                          ulPeripheral & 0xff));
 525:/home/cuil/workspace/arm/lm3s811/TI_Stellaris/driverlib/sysctl.c ****     }
 526:/home/cuil/workspace/arm/lm3s811/TI_Stellaris/driverlib/sysctl.c ****     else if(ulPeripheral == SYSCTL_PERIPH_USB0)
 11824              		.loc 1 526 0
 11825 005a 7A68     		ldr	r2, [r7, #4]
 11826 005c 194B     		ldr	r3, .L25+4
 11827 005e 9A42     		cmp	r2, r3
 11828 0060 0BD1     		bne	.L22
 527:/home/cuil/workspace/arm/lm3s811/TI_Stellaris/driverlib/sysctl.c ****     {
 528:/home/cuil/workspace/arm/lm3s811/TI_Stellaris/driverlib/sysctl.c ****         //
 529:/home/cuil/workspace/arm/lm3s811/TI_Stellaris/driverlib/sysctl.c ****         // USB is a special case because the DC bit is missing for USB0.
 530:/home/cuil/workspace/arm/lm3s811/TI_Stellaris/driverlib/sysctl.c ****         //
 531:/home/cuil/workspace/arm/lm3s811/TI_Stellaris/driverlib/sysctl.c ****         if(HWREG(SYSCTL_DC6) & SYSCTL_DC6_USB0_M)
 11829              		.loc 1 531 0
 11830 0062 194B     		ldr	r3, .L25+8
 11831 0064 1B68     		ldr	r3, [r3, #0]
 11832 0066 03F00303 		and	r3, r3, #3
 11833 006a 002B     		cmp	r3, #0
 11834 006c 02D0     		beq	.L23
 532:/home/cuil/workspace/arm/lm3s811/TI_Stellaris/driverlib/sysctl.c ****         {
 533:/home/cuil/workspace/arm/lm3s811/TI_Stellaris/driverlib/sysctl.c ****             return(true);
 11835              		.loc 1 533 0
 11836 006e 4FF00103 		mov	r3, #1
 11837 0072 1EE0     		b	.L21
 11838              	.L23:
 534:/home/cuil/workspace/arm/lm3s811/TI_Stellaris/driverlib/sysctl.c ****         }
 535:/home/cuil/workspace/arm/lm3s811/TI_Stellaris/driverlib/sysctl.c ****         else
 536:/home/cuil/workspace/arm/lm3s811/TI_Stellaris/driverlib/sysctl.c ****         {
 537:/home/cuil/workspace/arm/lm3s811/TI_Stellaris/driverlib/sysctl.c ****             return(false);
 11839              		.loc 1 537 0
 11840 0074 4FF00003 		mov	r3, #0
 11841 0078 1BE0     		b	.L21
 11842              	.L22:
 538:/home/cuil/workspace/arm/lm3s811/TI_Stellaris/driverlib/sysctl.c ****         }
 539:/home/cuil/workspace/arm/lm3s811/TI_Stellaris/driverlib/sysctl.c ****     }
 540:/home/cuil/workspace/arm/lm3s811/TI_Stellaris/driverlib/sysctl.c ****     else if(HWREG(g_pulDCRegs[SYSCTL_PERIPH_INDEX(ulPeripheral)]) &
 11843              		.loc 1 540 0
 11844 007a 7B68     		ldr	r3, [r7, #4]
 11845 007c 4FEA1372 		lsr	r2, r3, #28
 11846 0080 124B     		ldr	r3, .L25+12
 11847 0082 53F82230 		ldr	r3, [r3, r2, lsl #2]
 11848 0086 1A68     		ldr	r2, [r3, #0]
 541:/home/cuil/workspace/arm/lm3s811/TI_Stellaris/driverlib/sysctl.c ****             SYSCTL_PERIPH_MASK(ulPeripheral))
 11849              		.loc 1 541 0
 11850 0088 7B68     		ldr	r3, [r7, #4]
 11851 008a 4FEA0343 		lsl	r3, r3, #16
 11852 008e 4FEA1343 		lsr	r3, r3, #16
 11853 0092 7968     		ldr	r1, [r7, #4]
 11854 0094 01F4F811 		and	r1, r1, #2031616
 11855 0098 4FEA1141 		lsr	r1, r1, #16
 11856 009c 03FA01F3 		lsl	r3, r3, r1
 540:/home/cuil/workspace/arm/lm3s811/TI_Stellaris/driverlib/sysctl.c ****     else if(HWREG(g_pulDCRegs[SYSCTL_PERIPH_INDEX(ulPeripheral)]) &
 11857              		.loc 1 540 0
 11858 00a0 02EA0303 		and	r3, r2, r3
 11859 00a4 002B     		cmp	r3, #0
 11860 00a6 02D0     		beq	.L24
 542:/home/cuil/workspace/arm/lm3s811/TI_Stellaris/driverlib/sysctl.c ****     {
 543:/home/cuil/workspace/arm/lm3s811/TI_Stellaris/driverlib/sysctl.c ****         return(true);
 11861              		.loc 1 543 0
 11862 00a8 4FF00103 		mov	r3, #1
 11863 00ac 01E0     		b	.L21
 11864              	.L24:
 544:/home/cuil/workspace/arm/lm3s811/TI_Stellaris/driverlib/sysctl.c ****     }
 545:/home/cuil/workspace/arm/lm3s811/TI_Stellaris/driverlib/sysctl.c ****     else
 546:/home/cuil/workspace/arm/lm3s811/TI_Stellaris/driverlib/sysctl.c ****     {
 547:/home/cuil/workspace/arm/lm3s811/TI_Stellaris/driverlib/sysctl.c ****         return(false);
 11865              		.loc 1 547 0
 11866 00ae 4FF00003 		mov	r3, #0
 11867              	.L21:
 548:/home/cuil/workspace/arm/lm3s811/TI_Stellaris/driverlib/sysctl.c ****     }
 549:/home/cuil/workspace/arm/lm3s811/TI_Stellaris/driverlib/sysctl.c **** }
 11868              		.loc 1 549 0
 11869 00b2 1846     		mov	r0, r3
 11870 00b4 07F10C07 		add	r7, r7, #12
 11871 00b8 BD46     		mov	sp, r7
 11872 00ba 80BC     		pop	{r7}
 11873 00bc 7047     		bx	lr
 11874              	.L26:
 11875 00be 00BF     		.align	2
 11876              	.L25:
 11877 00c0 00E30F40 		.word	1074782976
 11878 00c4 01001020 		.word	537919489
 11879 00c8 24E00F40 		.word	1074782244
 11880 00cc 00000000 		.word	g_pulDCRegs
 11881              		.cfi_endproc
 11882              	.LFE4:
 11884              		.section	.text.SysCtlPeripheralReady,"ax",%progbits
 11885              		.align	2
 11886              		.global	SysCtlPeripheralReady
 11887              		.thumb
 11888              		.thumb_func
 11890              	SysCtlPeripheralReady:
 11891              	.LFB5:
 550:/home/cuil/workspace/arm/lm3s811/TI_Stellaris/driverlib/sysctl.c **** 
 551:/home/cuil/workspace/arm/lm3s811/TI_Stellaris/driverlib/sysctl.c **** //*****************************************************************************
 552:/home/cuil/workspace/arm/lm3s811/TI_Stellaris/driverlib/sysctl.c **** //
 553:/home/cuil/workspace/arm/lm3s811/TI_Stellaris/driverlib/sysctl.c **** //! Determines if a peripheral is ready.
 554:/home/cuil/workspace/arm/lm3s811/TI_Stellaris/driverlib/sysctl.c **** //!
 555:/home/cuil/workspace/arm/lm3s811/TI_Stellaris/driverlib/sysctl.c **** //! \param ulPeripheral is the peripheral in question.
 556:/home/cuil/workspace/arm/lm3s811/TI_Stellaris/driverlib/sysctl.c **** //!
 557:/home/cuil/workspace/arm/lm3s811/TI_Stellaris/driverlib/sysctl.c **** //! This function determines if a particular peripheral is ready to be 
 558:/home/cuil/workspace/arm/lm3s811/TI_Stellaris/driverlib/sysctl.c **** //! accessed.  The peripheral may be in a non-ready state if it is not enabled,
 559:/home/cuil/workspace/arm/lm3s811/TI_Stellaris/driverlib/sysctl.c **** //! is being held in reset, or is in the process of becoming ready after being 
 560:/home/cuil/workspace/arm/lm3s811/TI_Stellaris/driverlib/sysctl.c **** //! enabled or taken out of reset.
 561:/home/cuil/workspace/arm/lm3s811/TI_Stellaris/driverlib/sysctl.c **** //!
 562:/home/cuil/workspace/arm/lm3s811/TI_Stellaris/driverlib/sysctl.c **** //! The \e ulPeripheral paramter must be only one of the following values:
 563:/home/cuil/workspace/arm/lm3s811/TI_Stellaris/driverlib/sysctl.c **** //! \b SYSCTL_PERIPH_ADC0, \b SYSCTL_PERIPH_ADC1, \b SYSCTL_PERIPH_CAN0,
 564:/home/cuil/workspace/arm/lm3s811/TI_Stellaris/driverlib/sysctl.c **** //! \b SYSCTL_PERIPH_CAN1, \b SYSCTL_PERIPH_CAN2, \b SYSCTL_PERIPH_COMP0,
 565:/home/cuil/workspace/arm/lm3s811/TI_Stellaris/driverlib/sysctl.c **** //! \b SYSCTL_PERIPH_COMP1, \b SYSCTL_PERIPH_COMP2, \b SYSCTL_PERIPH_EEPROM0,
 566:/home/cuil/workspace/arm/lm3s811/TI_Stellaris/driverlib/sysctl.c **** //! \b SYSCTL_PERIPH_EPI0, \b SYSCTL_PERIPH_ETH, \b SYSCTL_PERIPH_FAN0,
 567:/home/cuil/workspace/arm/lm3s811/TI_Stellaris/driverlib/sysctl.c **** //! \b SYSCTL_PERIPH_GPIOA, \b SYSCTL_PERIPH_GPIOB, \b SYSCTL_PERIPH_GPIOC,
 568:/home/cuil/workspace/arm/lm3s811/TI_Stellaris/driverlib/sysctl.c **** //! \b SYSCTL_PERIPH_GPIOD, \b SYSCTL_PERIPH_GPIOE, \b SYSCTL_PERIPH_GPIOF,
 569:/home/cuil/workspace/arm/lm3s811/TI_Stellaris/driverlib/sysctl.c **** //! \b SYSCTL_PERIPH_GPIOG, \b SYSCTL_PERIPH_GPIOH, \b SYSCTL_PERIPH_GPIOJ,
 570:/home/cuil/workspace/arm/lm3s811/TI_Stellaris/driverlib/sysctl.c **** //! \b SYSCTL_PERIPH_GPIOK, \b SYSCTL_PERIPH_GPIOL, \b SYSCTL_PERIPH_GPIOM,
 571:/home/cuil/workspace/arm/lm3s811/TI_Stellaris/driverlib/sysctl.c **** //! \b SYSCTL_PERIPH_GPION, \b SYSCTL_PERIPH_GPIOP, \b SYSCTL_PERIPH_GPIOQ,
 572:/home/cuil/workspace/arm/lm3s811/TI_Stellaris/driverlib/sysctl.c **** //! \b SYSCTL_PERIPH_HIBERNATE, \b SYSCTL_PERIPH_I2C0, \b SYSCTL_PERIPH_I2C1,
 573:/home/cuil/workspace/arm/lm3s811/TI_Stellaris/driverlib/sysctl.c **** //! \b SYSCTL_PERIPH_I2C2, \b SYSCTL_PERIPH_I2C3, \b SYSCTL_PERIPH_I2C4,
 574:/home/cuil/workspace/arm/lm3s811/TI_Stellaris/driverlib/sysctl.c **** //! \b SYSCTL_PERIPH_I2C5, \b SYSCTL_PERIPH_I2S0, \b SYSCTL_PERIPH_LPC0,
 575:/home/cuil/workspace/arm/lm3s811/TI_Stellaris/driverlib/sysctl.c **** //! \b SYSCTL_PERIPH_PECI0, \b SYSCTL_PERIPH_PWM0, \b SYSCTL_PERIPH_PWM1,
 576:/home/cuil/workspace/arm/lm3s811/TI_Stellaris/driverlib/sysctl.c **** //! \b SYSCTL_PERIPH_QEI0, \b SYSCTL_PERIPH_QEI1, \b SYSCTL_PERIPH_SSI0,
 577:/home/cuil/workspace/arm/lm3s811/TI_Stellaris/driverlib/sysctl.c **** //! \b SYSCTL_PERIPH_SSI1, \b SYSCTL_PERIPH_SSI2, \b SYSCTL_PERIPH_SSI3,
 578:/home/cuil/workspace/arm/lm3s811/TI_Stellaris/driverlib/sysctl.c **** //! \b SYSCTL_PERIPH_TIMER0, \b SYSCTL_PERIPH_TIMER1, \b SYSCTL_PERIPH_TIMER2,
 579:/home/cuil/workspace/arm/lm3s811/TI_Stellaris/driverlib/sysctl.c **** //! \b SYSCTL_PERIPH_TIMER3, \b SYSCTL_PERIPH_TIMER4, \b SYSCTL_PERIPH_TIMER5,
 580:/home/cuil/workspace/arm/lm3s811/TI_Stellaris/driverlib/sysctl.c **** //! \b SYSCTL_PERIPH_UART0, \b SYSCTL_PERIPH_UART1, \b SYSCTL_PERIPH_UART2,
 581:/home/cuil/workspace/arm/lm3s811/TI_Stellaris/driverlib/sysctl.c **** //! \b SYSCTL_PERIPH_UART3, \b SYSCTL_PERIPH_UART4, \b SYSCTL_PERIPH_UART5,
 582:/home/cuil/workspace/arm/lm3s811/TI_Stellaris/driverlib/sysctl.c **** //! \b SYSCTL_PERIPH_UART6, \b SYSCTL_PERIPH_UART7, \b SYSCTL_PERIPH_UDMA,
 583:/home/cuil/workspace/arm/lm3s811/TI_Stellaris/driverlib/sysctl.c **** //! \b SYSCTL_PERIPH_USB0, \b SYSCTL_PERIPH_WDOG0, \b SYSCTL_PERIPH_WDOG1,
 584:/home/cuil/workspace/arm/lm3s811/TI_Stellaris/driverlib/sysctl.c **** //! \b SYSCTL_PERIPH_WTIMER0, \b SYSCTL_PERIPH_WTIMER1,
 585:/home/cuil/workspace/arm/lm3s811/TI_Stellaris/driverlib/sysctl.c **** //! \b SYSCTL_PERIPH_WTIMER2, \b SYSCTL_PERIPH_WTIMER3,
 586:/home/cuil/workspace/arm/lm3s811/TI_Stellaris/driverlib/sysctl.c **** //! \b SYSCTL_PERIPH_WTIMER4, or \b SYSCTL_PERIPH_WTIMER5.
 587:/home/cuil/workspace/arm/lm3s811/TI_Stellaris/driverlib/sysctl.c **** //!
 588:/home/cuil/workspace/arm/lm3s811/TI_Stellaris/driverlib/sysctl.c **** //! \note The ability to check for a peripheral being ready varies based on the
 589:/home/cuil/workspace/arm/lm3s811/TI_Stellaris/driverlib/sysctl.c **** //! Stellaris part in use.  Please consult the data sheet for the part you are
 590:/home/cuil/workspace/arm/lm3s811/TI_Stellaris/driverlib/sysctl.c **** //! using to determine if this feature is available.
 591:/home/cuil/workspace/arm/lm3s811/TI_Stellaris/driverlib/sysctl.c **** //!
 592:/home/cuil/workspace/arm/lm3s811/TI_Stellaris/driverlib/sysctl.c **** //! \return Returns \b true if the specified peripheral is ready and \b false
 593:/home/cuil/workspace/arm/lm3s811/TI_Stellaris/driverlib/sysctl.c **** //! if it is not.
 594:/home/cuil/workspace/arm/lm3s811/TI_Stellaris/driverlib/sysctl.c **** //
 595:/home/cuil/workspace/arm/lm3s811/TI_Stellaris/driverlib/sysctl.c **** //*****************************************************************************
 596:/home/cuil/workspace/arm/lm3s811/TI_Stellaris/driverlib/sysctl.c **** tBoolean
 597:/home/cuil/workspace/arm/lm3s811/TI_Stellaris/driverlib/sysctl.c **** SysCtlPeripheralReady(unsigned long ulPeripheral)
 598:/home/cuil/workspace/arm/lm3s811/TI_Stellaris/driverlib/sysctl.c **** {
 11892              		.loc 1 598 0
 11893              		.cfi_startproc
 11894              		@ args = 0, pretend = 0, frame = 8
 11895              		@ frame_needed = 1, uses_anonymous_args = 0
 11896 0000 80B5     		push	{r7, lr}
 11897              	.LCFI13:
 11898              		.cfi_def_cfa_offset 8
 11899 0002 82B0     		sub	sp, sp, #8
 11900              	.LCFI14:
 11901              		.cfi_def_cfa_offset 16
 11902 0004 00AF     		add	r7, sp, #0
 11903              		.cfi_offset 14, -4
 11904              		.cfi_offset 7, -8
 11905              	.LCFI15:
 11906              		.cfi_def_cfa_register 7
 11907 0006 7860     		str	r0, [r7, #4]
 599:/home/cuil/workspace/arm/lm3s811/TI_Stellaris/driverlib/sysctl.c ****     //
 600:/home/cuil/workspace/arm/lm3s811/TI_Stellaris/driverlib/sysctl.c ****     // Check the arguments.
 601:/home/cuil/workspace/arm/lm3s811/TI_Stellaris/driverlib/sysctl.c ****     //
 602:/home/cuil/workspace/arm/lm3s811/TI_Stellaris/driverlib/sysctl.c ****     ASSERT(SysCtlPeripheralValid(ulPeripheral));
 603:/home/cuil/workspace/arm/lm3s811/TI_Stellaris/driverlib/sysctl.c **** 
 604:/home/cuil/workspace/arm/lm3s811/TI_Stellaris/driverlib/sysctl.c ****     //
 605:/home/cuil/workspace/arm/lm3s811/TI_Stellaris/driverlib/sysctl.c ****     // Map the peripheral identifier to the new style identifiers.  If it is
 606:/home/cuil/workspace/arm/lm3s811/TI_Stellaris/driverlib/sysctl.c ****     // already a new style identifier, this is a NOP.
 607:/home/cuil/workspace/arm/lm3s811/TI_Stellaris/driverlib/sysctl.c ****     //
 608:/home/cuil/workspace/arm/lm3s811/TI_Stellaris/driverlib/sysctl.c ****     ulPeripheral = SysCtlPeripheralMapToNew(ulPeripheral);
 11908              		.loc 1 608 0
 11909 0008 7868     		ldr	r0, [r7, #4]
 11910 000a FFF7FEFF 		bl	SysCtlPeripheralMapToNew
 11911 000e 7860     		str	r0, [r7, #4]
 609:/home/cuil/workspace/arm/lm3s811/TI_Stellaris/driverlib/sysctl.c **** 
 610:/home/cuil/workspace/arm/lm3s811/TI_Stellaris/driverlib/sysctl.c ****     //
 611:/home/cuil/workspace/arm/lm3s811/TI_Stellaris/driverlib/sysctl.c ****     // See if this peripheral is ready.
 612:/home/cuil/workspace/arm/lm3s811/TI_Stellaris/driverlib/sysctl.c ****     //
 613:/home/cuil/workspace/arm/lm3s811/TI_Stellaris/driverlib/sysctl.c ****     return(HWREGBITW(SYSCTL_PRBASE + ((ulPeripheral & 0xff00) >> 8),
 11912              		.loc 1 613 0
 11913 0010 7B68     		ldr	r3, [r7, #4]
 11914 0012 03F47F43 		and	r3, r3, #65280
 11915 0016 4FEA1322 		lsr	r2, r3, #8
 11916 001a 114B     		ldr	r3, .L28
 11917 001c D318     		adds	r3, r2, r3
 11918 001e 03F07042 		and	r2, r3, #-268435456
 11919 0022 7B68     		ldr	r3, [r7, #4]
 11920 0024 03F47F43 		and	r3, r3, #65280
 11921 0028 4FEA1321 		lsr	r1, r3, #8
 11922 002c 0C4B     		ldr	r3, .L28
 11923 002e CB18     		adds	r3, r1, r3
 11924 0030 23F07F43 		bic	r3, r3, #-16777216
 11925 0034 23F47003 		bic	r3, r3, #15728640
 11926 0038 4FEA4313 		lsl	r3, r3, #5
 11927 003c 1A43     		orrs	r2, r2, r3
 11928 003e 7B68     		ldr	r3, [r7, #4]
 11929 0040 03F0FF03 		and	r3, r3, #255
 11930 0044 4FEA8303 		lsl	r3, r3, #2
 11931 0048 42EA0303 		orr	r3, r2, r3
 11932 004c 43F00073 		orr	r3, r3, #33554432
 11933 0050 1B68     		ldr	r3, [r3, #0]
 11934 0052 DBB2     		uxtb	r3, r3
 614:/home/cuil/workspace/arm/lm3s811/TI_Stellaris/driverlib/sysctl.c ****                      ulPeripheral & 0xff));
 615:/home/cuil/workspace/arm/lm3s811/TI_Stellaris/driverlib/sysctl.c **** }
 11935              		.loc 1 615 0
 11936 0054 1846     		mov	r0, r3
 11937 0056 07F10807 		add	r7, r7, #8
 11938 005a BD46     		mov	sp, r7
 11939 005c 80BD     		pop	{r7, pc}
 11940              	.L29:
 11941 005e 00BF     		.align	2
 11942              	.L28:
 11943 0060 00EA0F40 		.word	1074784768
 11944              		.cfi_endproc
 11945              	.LFE5:
 11947              		.section	.text.SysCtlPeripheralPowerOn,"ax",%progbits
 11948              		.align	2
 11949              		.global	SysCtlPeripheralPowerOn
 11950              		.thumb
 11951              		.thumb_func
 11953              	SysCtlPeripheralPowerOn:
 11954              	.LFB6:
 616:/home/cuil/workspace/arm/lm3s811/TI_Stellaris/driverlib/sysctl.c **** 
 617:/home/cuil/workspace/arm/lm3s811/TI_Stellaris/driverlib/sysctl.c **** //*****************************************************************************
 618:/home/cuil/workspace/arm/lm3s811/TI_Stellaris/driverlib/sysctl.c **** //
 619:/home/cuil/workspace/arm/lm3s811/TI_Stellaris/driverlib/sysctl.c **** //! Powers on a peripheral.
 620:/home/cuil/workspace/arm/lm3s811/TI_Stellaris/driverlib/sysctl.c **** //!
 621:/home/cuil/workspace/arm/lm3s811/TI_Stellaris/driverlib/sysctl.c **** //! \param ulPeripheral is the peripheral to be powered on.
 622:/home/cuil/workspace/arm/lm3s811/TI_Stellaris/driverlib/sysctl.c **** //!
 623:/home/cuil/workspace/arm/lm3s811/TI_Stellaris/driverlib/sysctl.c **** //! This function turns on the power to a peripheral.  The peripheral continues 
 624:/home/cuil/workspace/arm/lm3s811/TI_Stellaris/driverlib/sysctl.c **** //! to receive power even when its clock is not enabled.
 625:/home/cuil/workspace/arm/lm3s811/TI_Stellaris/driverlib/sysctl.c **** //!
 626:/home/cuil/workspace/arm/lm3s811/TI_Stellaris/driverlib/sysctl.c **** //! The \e ulPeripheral paramter must be only one of the following values:
 627:/home/cuil/workspace/arm/lm3s811/TI_Stellaris/driverlib/sysctl.c **** //! \b SYSCTL_PERIPH_ADC0, \b SYSCTL_PERIPH_ADC1, \b SYSCTL_PERIPH_CAN0,
 628:/home/cuil/workspace/arm/lm3s811/TI_Stellaris/driverlib/sysctl.c **** //! \b SYSCTL_PERIPH_CAN1, \b SYSCTL_PERIPH_CAN2, \b SYSCTL_PERIPH_COMP0,
 629:/home/cuil/workspace/arm/lm3s811/TI_Stellaris/driverlib/sysctl.c **** //! \b SYSCTL_PERIPH_COMP1, \b SYSCTL_PERIPH_COMP2, \b SYSCTL_PERIPH_EEPROM0,
 630:/home/cuil/workspace/arm/lm3s811/TI_Stellaris/driverlib/sysctl.c **** //! \b SYSCTL_PERIPH_EPI0, \b SYSCTL_PERIPH_ETH, \b SYSCTL_PERIPH_FAN0,
 631:/home/cuil/workspace/arm/lm3s811/TI_Stellaris/driverlib/sysctl.c **** //! \b SYSCTL_PERIPH_GPIOA, \b SYSCTL_PERIPH_GPIOB, \b SYSCTL_PERIPH_GPIOC,
 632:/home/cuil/workspace/arm/lm3s811/TI_Stellaris/driverlib/sysctl.c **** //! \b SYSCTL_PERIPH_GPIOD, \b SYSCTL_PERIPH_GPIOE, \b SYSCTL_PERIPH_GPIOF,
 633:/home/cuil/workspace/arm/lm3s811/TI_Stellaris/driverlib/sysctl.c **** //! \b SYSCTL_PERIPH_GPIOG, \b SYSCTL_PERIPH_GPIOH, \b SYSCTL_PERIPH_GPIOJ,
 634:/home/cuil/workspace/arm/lm3s811/TI_Stellaris/driverlib/sysctl.c **** //! \b SYSCTL_PERIPH_GPIOK, \b SYSCTL_PERIPH_GPIOL, \b SYSCTL_PERIPH_GPIOM,
 635:/home/cuil/workspace/arm/lm3s811/TI_Stellaris/driverlib/sysctl.c **** //! \b SYSCTL_PERIPH_GPION, \b SYSCTL_PERIPH_GPIOP, \b SYSCTL_PERIPH_GPIOQ,
 636:/home/cuil/workspace/arm/lm3s811/TI_Stellaris/driverlib/sysctl.c **** //! \b SYSCTL_PERIPH_HIBERNATE, \b SYSCTL_PERIPH_I2C0, \b SYSCTL_PERIPH_I2C1,
 637:/home/cuil/workspace/arm/lm3s811/TI_Stellaris/driverlib/sysctl.c **** //! \b SYSCTL_PERIPH_I2C2, \b SYSCTL_PERIPH_I2C3, \b SYSCTL_PERIPH_I2C4,
 638:/home/cuil/workspace/arm/lm3s811/TI_Stellaris/driverlib/sysctl.c **** //! \b SYSCTL_PERIPH_I2C5, \b SYSCTL_PERIPH_I2S0, \b SYSCTL_PERIPH_LPC0,
 639:/home/cuil/workspace/arm/lm3s811/TI_Stellaris/driverlib/sysctl.c **** //! \b SYSCTL_PERIPH_PECI0, \b SYSCTL_PERIPH_PWM0, \b SYSCTL_PERIPH_PWM1,
 640:/home/cuil/workspace/arm/lm3s811/TI_Stellaris/driverlib/sysctl.c **** //! \b SYSCTL_PERIPH_QEI0, \b SYSCTL_PERIPH_QEI1, \b SYSCTL_PERIPH_SSI0,
 641:/home/cuil/workspace/arm/lm3s811/TI_Stellaris/driverlib/sysctl.c **** //! \b SYSCTL_PERIPH_SSI1, \b SYSCTL_PERIPH_SSI2, \b SYSCTL_PERIPH_SSI3,
 642:/home/cuil/workspace/arm/lm3s811/TI_Stellaris/driverlib/sysctl.c **** //! \b SYSCTL_PERIPH_TIMER0, \b SYSCTL_PERIPH_TIMER1, \b SYSCTL_PERIPH_TIMER2,
 643:/home/cuil/workspace/arm/lm3s811/TI_Stellaris/driverlib/sysctl.c **** //! \b SYSCTL_PERIPH_TIMER3, \b SYSCTL_PERIPH_TIMER4, \b SYSCTL_PERIPH_TIMER5,
 644:/home/cuil/workspace/arm/lm3s811/TI_Stellaris/driverlib/sysctl.c **** //! \b SYSCTL_PERIPH_UART0, \b SYSCTL_PERIPH_UART1, \b SYSCTL_PERIPH_UART2,
 645:/home/cuil/workspace/arm/lm3s811/TI_Stellaris/driverlib/sysctl.c **** //! \b SYSCTL_PERIPH_UART3, \b SYSCTL_PERIPH_UART4, \b SYSCTL_PERIPH_UART5,
 646:/home/cuil/workspace/arm/lm3s811/TI_Stellaris/driverlib/sysctl.c **** //! \b SYSCTL_PERIPH_UART6, \b SYSCTL_PERIPH_UART7, \b SYSCTL_PERIPH_UDMA,
 647:/home/cuil/workspace/arm/lm3s811/TI_Stellaris/driverlib/sysctl.c **** //! \b SYSCTL_PERIPH_USB0, \b SYSCTL_PERIPH_WDOG0, \b SYSCTL_PERIPH_WDOG1,
 648:/home/cuil/workspace/arm/lm3s811/TI_Stellaris/driverlib/sysctl.c **** //! \b SYSCTL_PERIPH_WTIMER0, \b SYSCTL_PERIPH_WTIMER1,
 649:/home/cuil/workspace/arm/lm3s811/TI_Stellaris/driverlib/sysctl.c **** //! \b SYSCTL_PERIPH_WTIMER2, \b SYSCTL_PERIPH_WTIMER3,
 650:/home/cuil/workspace/arm/lm3s811/TI_Stellaris/driverlib/sysctl.c **** //! \b SYSCTL_PERIPH_WTIMER4, or \b SYSCTL_PERIPH_WTIMER5.
 651:/home/cuil/workspace/arm/lm3s811/TI_Stellaris/driverlib/sysctl.c **** //!
 652:/home/cuil/workspace/arm/lm3s811/TI_Stellaris/driverlib/sysctl.c **** //! \note The ability to power off a peripheral varies based on the Stellaris
 653:/home/cuil/workspace/arm/lm3s811/TI_Stellaris/driverlib/sysctl.c **** //! part in use.  Please consult the data sheet for the part you are using to
 654:/home/cuil/workspace/arm/lm3s811/TI_Stellaris/driverlib/sysctl.c **** //! determine if this feature is available.
 655:/home/cuil/workspace/arm/lm3s811/TI_Stellaris/driverlib/sysctl.c **** //!
 656:/home/cuil/workspace/arm/lm3s811/TI_Stellaris/driverlib/sysctl.c **** //! \return None.
 657:/home/cuil/workspace/arm/lm3s811/TI_Stellaris/driverlib/sysctl.c **** //
 658:/home/cuil/workspace/arm/lm3s811/TI_Stellaris/driverlib/sysctl.c **** //*****************************************************************************
 659:/home/cuil/workspace/arm/lm3s811/TI_Stellaris/driverlib/sysctl.c **** void
 660:/home/cuil/workspace/arm/lm3s811/TI_Stellaris/driverlib/sysctl.c **** SysCtlPeripheralPowerOn(unsigned long ulPeripheral)
 661:/home/cuil/workspace/arm/lm3s811/TI_Stellaris/driverlib/sysctl.c **** {
 11955              		.loc 1 661 0
 11956              		.cfi_startproc
 11957              		@ args = 0, pretend = 0, frame = 8
 11958              		@ frame_needed = 1, uses_anonymous_args = 0
 11959 0000 80B5     		push	{r7, lr}
 11960              	.LCFI16:
 11961              		.cfi_def_cfa_offset 8
 11962 0002 82B0     		sub	sp, sp, #8
 11963              	.LCFI17:
 11964              		.cfi_def_cfa_offset 16
 11965 0004 00AF     		add	r7, sp, #0
 11966              		.cfi_offset 14, -4
 11967              		.cfi_offset 7, -8
 11968              	.LCFI18:
 11969              		.cfi_def_cfa_register 7
 11970 0006 7860     		str	r0, [r7, #4]
 662:/home/cuil/workspace/arm/lm3s811/TI_Stellaris/driverlib/sysctl.c ****     //
 663:/home/cuil/workspace/arm/lm3s811/TI_Stellaris/driverlib/sysctl.c ****     // Check the arguments.
 664:/home/cuil/workspace/arm/lm3s811/TI_Stellaris/driverlib/sysctl.c ****     //
 665:/home/cuil/workspace/arm/lm3s811/TI_Stellaris/driverlib/sysctl.c ****     ASSERT(SysCtlPeripheralValid(ulPeripheral));
 666:/home/cuil/workspace/arm/lm3s811/TI_Stellaris/driverlib/sysctl.c **** 
 667:/home/cuil/workspace/arm/lm3s811/TI_Stellaris/driverlib/sysctl.c ****     //
 668:/home/cuil/workspace/arm/lm3s811/TI_Stellaris/driverlib/sysctl.c ****     // Map the peripheral identifier to the new style identifiers.  If it is
 669:/home/cuil/workspace/arm/lm3s811/TI_Stellaris/driverlib/sysctl.c ****     // already a new style identifier, this is a NOP.
 670:/home/cuil/workspace/arm/lm3s811/TI_Stellaris/driverlib/sysctl.c ****     //
 671:/home/cuil/workspace/arm/lm3s811/TI_Stellaris/driverlib/sysctl.c ****     ulPeripheral = SysCtlPeripheralMapToNew(ulPeripheral);
 11971              		.loc 1 671 0
 11972 0008 7868     		ldr	r0, [r7, #4]
 11973 000a FFF7FEFF 		bl	SysCtlPeripheralMapToNew
 11974 000e 7860     		str	r0, [r7, #4]
 672:/home/cuil/workspace/arm/lm3s811/TI_Stellaris/driverlib/sysctl.c **** 
 673:/home/cuil/workspace/arm/lm3s811/TI_Stellaris/driverlib/sysctl.c ****     //
 674:/home/cuil/workspace/arm/lm3s811/TI_Stellaris/driverlib/sysctl.c ****     // Power on this peripheral.
 675:/home/cuil/workspace/arm/lm3s811/TI_Stellaris/driverlib/sysctl.c ****     //
 676:/home/cuil/workspace/arm/lm3s811/TI_Stellaris/driverlib/sysctl.c ****     HWREGBITW(SYSCTL_PCBASE + ((ulPeripheral & 0xff00) >> 8),
 11975              		.loc 1 676 0
 11976 0010 7B68     		ldr	r3, [r7, #4]
 11977 0012 03F47F43 		and	r3, r3, #65280
 11978 0016 4FEA1322 		lsr	r2, r3, #8
 11979 001a 114B     		ldr	r3, .L31
 11980 001c D318     		adds	r3, r2, r3
 11981 001e 03F07042 		and	r2, r3, #-268435456
 11982 0022 7B68     		ldr	r3, [r7, #4]
 11983 0024 03F47F43 		and	r3, r3, #65280
 11984 0028 4FEA1321 		lsr	r1, r3, #8
 11985 002c 0C4B     		ldr	r3, .L31
 11986 002e CB18     		adds	r3, r1, r3
 11987 0030 23F07F43 		bic	r3, r3, #-16777216
 11988 0034 23F47003 		bic	r3, r3, #15728640
 11989 0038 4FEA4313 		lsl	r3, r3, #5
 11990 003c 1A43     		orrs	r2, r2, r3
 11991 003e 7B68     		ldr	r3, [r7, #4]
 11992 0040 03F0FF03 		and	r3, r3, #255
 11993 0044 4FEA8303 		lsl	r3, r3, #2
 11994 0048 42EA0303 		orr	r3, r2, r3
 11995 004c 43F00073 		orr	r3, r3, #33554432
 677:/home/cuil/workspace/arm/lm3s811/TI_Stellaris/driverlib/sysctl.c ****               ulPeripheral & 0xff) = 1;
 11996              		.loc 1 677 0
 11997 0050 4FF00102 		mov	r2, #1
 11998 0054 1A60     		str	r2, [r3, #0]
 678:/home/cuil/workspace/arm/lm3s811/TI_Stellaris/driverlib/sysctl.c **** }
 11999              		.loc 1 678 0
 12000 0056 07F10807 		add	r7, r7, #8
 12001 005a BD46     		mov	sp, r7
 12002 005c 80BD     		pop	{r7, pc}
 12003              	.L32:
 12004 005e 00BF     		.align	2
 12005              	.L31:
 12006 0060 00E90F40 		.word	1074784512
 12007              		.cfi_endproc
 12008              	.LFE6:
 12010              		.section	.text.SysCtlPeripheralPowerOff,"ax",%progbits
 12011              		.align	2
 12012              		.global	SysCtlPeripheralPowerOff
 12013              		.thumb
 12014              		.thumb_func
 12016              	SysCtlPeripheralPowerOff:
 12017              	.LFB7:
 679:/home/cuil/workspace/arm/lm3s811/TI_Stellaris/driverlib/sysctl.c **** 
 680:/home/cuil/workspace/arm/lm3s811/TI_Stellaris/driverlib/sysctl.c **** //*****************************************************************************
 681:/home/cuil/workspace/arm/lm3s811/TI_Stellaris/driverlib/sysctl.c **** //
 682:/home/cuil/workspace/arm/lm3s811/TI_Stellaris/driverlib/sysctl.c **** //! Powers off a peripheral.
 683:/home/cuil/workspace/arm/lm3s811/TI_Stellaris/driverlib/sysctl.c **** //!
 684:/home/cuil/workspace/arm/lm3s811/TI_Stellaris/driverlib/sysctl.c **** //! \param ulPeripheral is the peripheral to be powered off.
 685:/home/cuil/workspace/arm/lm3s811/TI_Stellaris/driverlib/sysctl.c **** //!
 686:/home/cuil/workspace/arm/lm3s811/TI_Stellaris/driverlib/sysctl.c **** //! This function allows the power to a peripheral to be turned off.  The
 687:/home/cuil/workspace/arm/lm3s811/TI_Stellaris/driverlib/sysctl.c **** //! peripheral continues to receive power when its clock is enabled, but
 688:/home/cuil/workspace/arm/lm3s811/TI_Stellaris/driverlib/sysctl.c **** //! the power is removed when its clock is disabled.
 689:/home/cuil/workspace/arm/lm3s811/TI_Stellaris/driverlib/sysctl.c **** //!
 690:/home/cuil/workspace/arm/lm3s811/TI_Stellaris/driverlib/sysctl.c **** //! The \e ulPeripheral paramter must be only one of the following values:
 691:/home/cuil/workspace/arm/lm3s811/TI_Stellaris/driverlib/sysctl.c **** //! \b SYSCTL_PERIPH_ADC0, \b SYSCTL_PERIPH_ADC1, \b SYSCTL_PERIPH_CAN0,
 692:/home/cuil/workspace/arm/lm3s811/TI_Stellaris/driverlib/sysctl.c **** //! \b SYSCTL_PERIPH_CAN1, \b SYSCTL_PERIPH_CAN2, \b SYSCTL_PERIPH_COMP0,
 693:/home/cuil/workspace/arm/lm3s811/TI_Stellaris/driverlib/sysctl.c **** //! \b SYSCTL_PERIPH_COMP1, \b SYSCTL_PERIPH_COMP2, \b SYSCTL_PERIPH_EEPROM0,
 694:/home/cuil/workspace/arm/lm3s811/TI_Stellaris/driverlib/sysctl.c **** //! \b SYSCTL_PERIPH_EPI0, \b SYSCTL_PERIPH_ETH, \b SYSCTL_PERIPH_FAN0,
 695:/home/cuil/workspace/arm/lm3s811/TI_Stellaris/driverlib/sysctl.c **** //! \b SYSCTL_PERIPH_GPIOA, \b SYSCTL_PERIPH_GPIOB, \b SYSCTL_PERIPH_GPIOC,
 696:/home/cuil/workspace/arm/lm3s811/TI_Stellaris/driverlib/sysctl.c **** //! \b SYSCTL_PERIPH_GPIOD, \b SYSCTL_PERIPH_GPIOE, \b SYSCTL_PERIPH_GPIOF,
 697:/home/cuil/workspace/arm/lm3s811/TI_Stellaris/driverlib/sysctl.c **** //! \b SYSCTL_PERIPH_GPIOG, \b SYSCTL_PERIPH_GPIOH, \b SYSCTL_PERIPH_GPIOJ,
 698:/home/cuil/workspace/arm/lm3s811/TI_Stellaris/driverlib/sysctl.c **** //! \b SYSCTL_PERIPH_GPIOK, \b SYSCTL_PERIPH_GPIOL, \b SYSCTL_PERIPH_GPIOM,
 699:/home/cuil/workspace/arm/lm3s811/TI_Stellaris/driverlib/sysctl.c **** //! \b SYSCTL_PERIPH_GPION, \b SYSCTL_PERIPH_GPIOP, \b SYSCTL_PERIPH_GPIOQ,
 700:/home/cuil/workspace/arm/lm3s811/TI_Stellaris/driverlib/sysctl.c **** //! \b SYSCTL_PERIPH_HIBERNATE, \b SYSCTL_PERIPH_I2C0, \b SYSCTL_PERIPH_I2C1,
 701:/home/cuil/workspace/arm/lm3s811/TI_Stellaris/driverlib/sysctl.c **** //! \b SYSCTL_PERIPH_I2C2, \b SYSCTL_PERIPH_I2C3, \b SYSCTL_PERIPH_I2C4,
 702:/home/cuil/workspace/arm/lm3s811/TI_Stellaris/driverlib/sysctl.c **** //! \b SYSCTL_PERIPH_I2C5, \b SYSCTL_PERIPH_I2S0, \b SYSCTL_PERIPH_LPC0,
 703:/home/cuil/workspace/arm/lm3s811/TI_Stellaris/driverlib/sysctl.c **** //! \b SYSCTL_PERIPH_PECI0, \b SYSCTL_PERIPH_PWM0, \b SYSCTL_PERIPH_PWM1,
 704:/home/cuil/workspace/arm/lm3s811/TI_Stellaris/driverlib/sysctl.c **** //! \b SYSCTL_PERIPH_QEI0, \b SYSCTL_PERIPH_QEI1, \b SYSCTL_PERIPH_SSI0,
 705:/home/cuil/workspace/arm/lm3s811/TI_Stellaris/driverlib/sysctl.c **** //! \b SYSCTL_PERIPH_SSI1, \b SYSCTL_PERIPH_SSI2, \b SYSCTL_PERIPH_SSI3,
 706:/home/cuil/workspace/arm/lm3s811/TI_Stellaris/driverlib/sysctl.c **** //! \b SYSCTL_PERIPH_TIMER0, \b SYSCTL_PERIPH_TIMER1, \b SYSCTL_PERIPH_TIMER2,
 707:/home/cuil/workspace/arm/lm3s811/TI_Stellaris/driverlib/sysctl.c **** //! \b SYSCTL_PERIPH_TIMER3, \b SYSCTL_PERIPH_TIMER4, \b SYSCTL_PERIPH_TIMER5,
 708:/home/cuil/workspace/arm/lm3s811/TI_Stellaris/driverlib/sysctl.c **** //! \b SYSCTL_PERIPH_UART0, \b SYSCTL_PERIPH_UART1, \b SYSCTL_PERIPH_UART2,
 709:/home/cuil/workspace/arm/lm3s811/TI_Stellaris/driverlib/sysctl.c **** //! \b SYSCTL_PERIPH_UART3, \b SYSCTL_PERIPH_UART4, \b SYSCTL_PERIPH_UART5,
 710:/home/cuil/workspace/arm/lm3s811/TI_Stellaris/driverlib/sysctl.c **** //! \b SYSCTL_PERIPH_UART6, \b SYSCTL_PERIPH_UART7, \b SYSCTL_PERIPH_UDMA,
 711:/home/cuil/workspace/arm/lm3s811/TI_Stellaris/driverlib/sysctl.c **** //! \b SYSCTL_PERIPH_USB0, \b SYSCTL_PERIPH_WDOG0, \b SYSCTL_PERIPH_WDOG1,
 712:/home/cuil/workspace/arm/lm3s811/TI_Stellaris/driverlib/sysctl.c **** //! \b SYSCTL_PERIPH_WTIMER0, \b SYSCTL_PERIPH_WTIMER1,
 713:/home/cuil/workspace/arm/lm3s811/TI_Stellaris/driverlib/sysctl.c **** //! \b SYSCTL_PERIPH_WTIMER2, \b SYSCTL_PERIPH_WTIMER3,
 714:/home/cuil/workspace/arm/lm3s811/TI_Stellaris/driverlib/sysctl.c **** //! \b SYSCTL_PERIPH_WTIMER4, or \b SYSCTL_PERIPH_WTIMER5.
 715:/home/cuil/workspace/arm/lm3s811/TI_Stellaris/driverlib/sysctl.c **** //!
 716:/home/cuil/workspace/arm/lm3s811/TI_Stellaris/driverlib/sysctl.c **** //! \note The ability to power off a peripheral varies based on the Stellaris
 717:/home/cuil/workspace/arm/lm3s811/TI_Stellaris/driverlib/sysctl.c **** //! part in use.  Please consult the data sheet for the part you are using to
 718:/home/cuil/workspace/arm/lm3s811/TI_Stellaris/driverlib/sysctl.c **** //! determine if this feature is available.
 719:/home/cuil/workspace/arm/lm3s811/TI_Stellaris/driverlib/sysctl.c **** //!
 720:/home/cuil/workspace/arm/lm3s811/TI_Stellaris/driverlib/sysctl.c **** //! \return None.
 721:/home/cuil/workspace/arm/lm3s811/TI_Stellaris/driverlib/sysctl.c **** //
 722:/home/cuil/workspace/arm/lm3s811/TI_Stellaris/driverlib/sysctl.c **** //*****************************************************************************
 723:/home/cuil/workspace/arm/lm3s811/TI_Stellaris/driverlib/sysctl.c **** void
 724:/home/cuil/workspace/arm/lm3s811/TI_Stellaris/driverlib/sysctl.c **** SysCtlPeripheralPowerOff(unsigned long ulPeripheral)
 725:/home/cuil/workspace/arm/lm3s811/TI_Stellaris/driverlib/sysctl.c **** {
 12018              		.loc 1 725 0
 12019              		.cfi_startproc
 12020              		@ args = 0, pretend = 0, frame = 8
 12021              		@ frame_needed = 1, uses_anonymous_args = 0
 12022 0000 80B5     		push	{r7, lr}
 12023              	.LCFI19:
 12024              		.cfi_def_cfa_offset 8
 12025 0002 82B0     		sub	sp, sp, #8
 12026              	.LCFI20:
 12027              		.cfi_def_cfa_offset 16
 12028 0004 00AF     		add	r7, sp, #0
 12029              		.cfi_offset 14, -4
 12030              		.cfi_offset 7, -8
 12031              	.LCFI21:
 12032              		.cfi_def_cfa_register 7
 12033 0006 7860     		str	r0, [r7, #4]
 726:/home/cuil/workspace/arm/lm3s811/TI_Stellaris/driverlib/sysctl.c ****     //
 727:/home/cuil/workspace/arm/lm3s811/TI_Stellaris/driverlib/sysctl.c ****     // Check the arguments.
 728:/home/cuil/workspace/arm/lm3s811/TI_Stellaris/driverlib/sysctl.c ****     //
 729:/home/cuil/workspace/arm/lm3s811/TI_Stellaris/driverlib/sysctl.c ****     ASSERT(SysCtlPeripheralValid(ulPeripheral));
 730:/home/cuil/workspace/arm/lm3s811/TI_Stellaris/driverlib/sysctl.c **** 
 731:/home/cuil/workspace/arm/lm3s811/TI_Stellaris/driverlib/sysctl.c ****     //
 732:/home/cuil/workspace/arm/lm3s811/TI_Stellaris/driverlib/sysctl.c ****     // Map the peripheral identifier to the new style identifiers.  If it is
 733:/home/cuil/workspace/arm/lm3s811/TI_Stellaris/driverlib/sysctl.c ****     // already a new style identifier, this is a NOP.
 734:/home/cuil/workspace/arm/lm3s811/TI_Stellaris/driverlib/sysctl.c ****     //
 735:/home/cuil/workspace/arm/lm3s811/TI_Stellaris/driverlib/sysctl.c ****     ulPeripheral = SysCtlPeripheralMapToNew(ulPeripheral);
 12034              		.loc 1 735 0
 12035 0008 7868     		ldr	r0, [r7, #4]
 12036 000a FFF7FEFF 		bl	SysCtlPeripheralMapToNew
 12037 000e 7860     		str	r0, [r7, #4]
 736:/home/cuil/workspace/arm/lm3s811/TI_Stellaris/driverlib/sysctl.c **** 
 737:/home/cuil/workspace/arm/lm3s811/TI_Stellaris/driverlib/sysctl.c ****     //
 738:/home/cuil/workspace/arm/lm3s811/TI_Stellaris/driverlib/sysctl.c ****     // Power off this peripheral.
 739:/home/cuil/workspace/arm/lm3s811/TI_Stellaris/driverlib/sysctl.c ****     //
 740:/home/cuil/workspace/arm/lm3s811/TI_Stellaris/driverlib/sysctl.c ****     HWREGBITW(SYSCTL_PCBASE + ((ulPeripheral & 0xff00) >> 8),
 12038              		.loc 1 740 0
 12039 0010 7B68     		ldr	r3, [r7, #4]
 12040 0012 03F47F43 		and	r3, r3, #65280
 12041 0016 4FEA1322 		lsr	r2, r3, #8
 12042 001a 114B     		ldr	r3, .L34
 12043 001c D318     		adds	r3, r2, r3
 12044 001e 03F07042 		and	r2, r3, #-268435456
 12045 0022 7B68     		ldr	r3, [r7, #4]
 12046 0024 03F47F43 		and	r3, r3, #65280
 12047 0028 4FEA1321 		lsr	r1, r3, #8
 12048 002c 0C4B     		ldr	r3, .L34
 12049 002e CB18     		adds	r3, r1, r3
 12050 0030 23F07F43 		bic	r3, r3, #-16777216
 12051 0034 23F47003 		bic	r3, r3, #15728640
 12052 0038 4FEA4313 		lsl	r3, r3, #5
 12053 003c 1A43     		orrs	r2, r2, r3
 12054 003e 7B68     		ldr	r3, [r7, #4]
 12055 0040 03F0FF03 		and	r3, r3, #255
 12056 0044 4FEA8303 		lsl	r3, r3, #2
 12057 0048 42EA0303 		orr	r3, r2, r3
 12058 004c 43F00073 		orr	r3, r3, #33554432
 741:/home/cuil/workspace/arm/lm3s811/TI_Stellaris/driverlib/sysctl.c ****               ulPeripheral & 0xff) = 0;
 12059              		.loc 1 741 0
 12060 0050 4FF00002 		mov	r2, #0
 12061 0054 1A60     		str	r2, [r3, #0]
 742:/home/cuil/workspace/arm/lm3s811/TI_Stellaris/driverlib/sysctl.c **** }
 12062              		.loc 1 742 0
 12063 0056 07F10807 		add	r7, r7, #8
 12064 005a BD46     		mov	sp, r7
 12065 005c 80BD     		pop	{r7, pc}
 12066              	.L35:
 12067 005e 00BF     		.align	2
 12068              	.L34:
 12069 0060 00E90F40 		.word	1074784512
 12070              		.cfi_endproc
 12071              	.LFE7:
 12073              		.section	.text.SysCtlPeripheralReset,"ax",%progbits
 12074              		.align	2
 12075              		.global	SysCtlPeripheralReset
 12076              		.thumb
 12077              		.thumb_func
 12079              	SysCtlPeripheralReset:
 12080              	.LFB8:
 743:/home/cuil/workspace/arm/lm3s811/TI_Stellaris/driverlib/sysctl.c **** 
 744:/home/cuil/workspace/arm/lm3s811/TI_Stellaris/driverlib/sysctl.c **** //*****************************************************************************
 745:/home/cuil/workspace/arm/lm3s811/TI_Stellaris/driverlib/sysctl.c **** //
 746:/home/cuil/workspace/arm/lm3s811/TI_Stellaris/driverlib/sysctl.c **** //! Performs a software reset of a peripheral.
 747:/home/cuil/workspace/arm/lm3s811/TI_Stellaris/driverlib/sysctl.c **** //!
 748:/home/cuil/workspace/arm/lm3s811/TI_Stellaris/driverlib/sysctl.c **** //! \param ulPeripheral is the peripheral to reset.
 749:/home/cuil/workspace/arm/lm3s811/TI_Stellaris/driverlib/sysctl.c **** //!
 750:/home/cuil/workspace/arm/lm3s811/TI_Stellaris/driverlib/sysctl.c **** //! This function performs a software reset of the specified peripheral.  An
 751:/home/cuil/workspace/arm/lm3s811/TI_Stellaris/driverlib/sysctl.c **** //! individual peripheral reset signal is asserted for a brief period and then
 752:/home/cuil/workspace/arm/lm3s811/TI_Stellaris/driverlib/sysctl.c **** //! deasserted, returning the internal state of the peripheral to its reset
 753:/home/cuil/workspace/arm/lm3s811/TI_Stellaris/driverlib/sysctl.c **** //! condition.
 754:/home/cuil/workspace/arm/lm3s811/TI_Stellaris/driverlib/sysctl.c **** //!
 755:/home/cuil/workspace/arm/lm3s811/TI_Stellaris/driverlib/sysctl.c **** //! The \e ulPeripheral parameter must be only one of the following values:
 756:/home/cuil/workspace/arm/lm3s811/TI_Stellaris/driverlib/sysctl.c **** //! \b SYSCTL_PERIPH_ADC0, \b SYSCTL_PERIPH_ADC1, \b SYSCTL_PERIPH_CAN0,
 757:/home/cuil/workspace/arm/lm3s811/TI_Stellaris/driverlib/sysctl.c **** //! \b SYSCTL_PERIPH_CAN1, \b SYSCTL_PERIPH_CAN2, \b SYSCTL_PERIPH_COMP0,
 758:/home/cuil/workspace/arm/lm3s811/TI_Stellaris/driverlib/sysctl.c **** //! \b SYSCTL_PERIPH_COMP1, \b SYSCTL_PERIPH_COMP2, \b SYSCTL_PERIPH_EEPROM0,
 759:/home/cuil/workspace/arm/lm3s811/TI_Stellaris/driverlib/sysctl.c **** //! \b SYSCTL_PERIPH_EPI0, \b SYSCTL_PERIPH_ETH, \b SYSCTL_PERIPH_FAN0,
 760:/home/cuil/workspace/arm/lm3s811/TI_Stellaris/driverlib/sysctl.c **** //! \b SYSCTL_PERIPH_GPIOA, \b SYSCTL_PERIPH_GPIOB, \b SYSCTL_PERIPH_GPIOC,
 761:/home/cuil/workspace/arm/lm3s811/TI_Stellaris/driverlib/sysctl.c **** //! \b SYSCTL_PERIPH_GPIOD, \b SYSCTL_PERIPH_GPIOE, \b SYSCTL_PERIPH_GPIOF,
 762:/home/cuil/workspace/arm/lm3s811/TI_Stellaris/driverlib/sysctl.c **** //! \b SYSCTL_PERIPH_GPIOG, \b SYSCTL_PERIPH_GPIOH, \b SYSCTL_PERIPH_GPIOJ,
 763:/home/cuil/workspace/arm/lm3s811/TI_Stellaris/driverlib/sysctl.c **** //! \b SYSCTL_PERIPH_GPIOK, \b SYSCTL_PERIPH_GPIOL, \b SYSCTL_PERIPH_GPIOM,
 764:/home/cuil/workspace/arm/lm3s811/TI_Stellaris/driverlib/sysctl.c **** //! \b SYSCTL_PERIPH_GPION, \b SYSCTL_PERIPH_GPIOP, \b SYSCTL_PERIPH_GPIOQ,
 765:/home/cuil/workspace/arm/lm3s811/TI_Stellaris/driverlib/sysctl.c **** //! \b SYSCTL_PERIPH_HIBERNATE, \b SYSCTL_PERIPH_I2C0, \b SYSCTL_PERIPH_I2C1,
 766:/home/cuil/workspace/arm/lm3s811/TI_Stellaris/driverlib/sysctl.c **** //! \b SYSCTL_PERIPH_I2C2, \b SYSCTL_PERIPH_I2C3, \b SYSCTL_PERIPH_I2C4,
 767:/home/cuil/workspace/arm/lm3s811/TI_Stellaris/driverlib/sysctl.c **** //! \b SYSCTL_PERIPH_I2C5, \b SYSCTL_PERIPH_I2S0, \b SYSCTL_PERIPH_LPC0,
 768:/home/cuil/workspace/arm/lm3s811/TI_Stellaris/driverlib/sysctl.c **** //! \b SYSCTL_PERIPH_PECI0, \b SYSCTL_PERIPH_PWM0, \b SYSCTL_PERIPH_PWM1,
 769:/home/cuil/workspace/arm/lm3s811/TI_Stellaris/driverlib/sysctl.c **** //! \b SYSCTL_PERIPH_QEI0, \b SYSCTL_PERIPH_QEI1, \b SYSCTL_PERIPH_SSI0,
 770:/home/cuil/workspace/arm/lm3s811/TI_Stellaris/driverlib/sysctl.c **** //! \b SYSCTL_PERIPH_SSI1, \b SYSCTL_PERIPH_SSI2, \b SYSCTL_PERIPH_SSI3,
 771:/home/cuil/workspace/arm/lm3s811/TI_Stellaris/driverlib/sysctl.c **** //! \b SYSCTL_PERIPH_TIMER0, \b SYSCTL_PERIPH_TIMER1, \b SYSCTL_PERIPH_TIMER2,
 772:/home/cuil/workspace/arm/lm3s811/TI_Stellaris/driverlib/sysctl.c **** //! \b SYSCTL_PERIPH_TIMER3, \b SYSCTL_PERIPH_TIMER4, \b SYSCTL_PERIPH_TIMER5,
 773:/home/cuil/workspace/arm/lm3s811/TI_Stellaris/driverlib/sysctl.c **** //! \b SYSCTL_PERIPH_UART0, \b SYSCTL_PERIPH_UART1, \b SYSCTL_PERIPH_UART2,
 774:/home/cuil/workspace/arm/lm3s811/TI_Stellaris/driverlib/sysctl.c **** //! \b SYSCTL_PERIPH_UART3, \b SYSCTL_PERIPH_UART4, \b SYSCTL_PERIPH_UART5,
 775:/home/cuil/workspace/arm/lm3s811/TI_Stellaris/driverlib/sysctl.c **** //! \b SYSCTL_PERIPH_UART6, \b SYSCTL_PERIPH_UART7, \b SYSCTL_PERIPH_UDMA,
 776:/home/cuil/workspace/arm/lm3s811/TI_Stellaris/driverlib/sysctl.c **** //! \b SYSCTL_PERIPH_USB0, \b SYSCTL_PERIPH_WDOG0, \b SYSCTL_PERIPH_WDOG1,
 777:/home/cuil/workspace/arm/lm3s811/TI_Stellaris/driverlib/sysctl.c **** //! \b SYSCTL_PERIPH_WTIMER0, \b SYSCTL_PERIPH_WTIMER1,
 778:/home/cuil/workspace/arm/lm3s811/TI_Stellaris/driverlib/sysctl.c **** //! \b SYSCTL_PERIPH_WTIMER2, \b SYSCTL_PERIPH_WTIMER3,
 779:/home/cuil/workspace/arm/lm3s811/TI_Stellaris/driverlib/sysctl.c **** //! \b SYSCTL_PERIPH_WTIMER4, or \b SYSCTL_PERIPH_WTIMER5.
 780:/home/cuil/workspace/arm/lm3s811/TI_Stellaris/driverlib/sysctl.c **** //!
 781:/home/cuil/workspace/arm/lm3s811/TI_Stellaris/driverlib/sysctl.c **** //! \return None.
 782:/home/cuil/workspace/arm/lm3s811/TI_Stellaris/driverlib/sysctl.c **** //
 783:/home/cuil/workspace/arm/lm3s811/TI_Stellaris/driverlib/sysctl.c **** //*****************************************************************************
 784:/home/cuil/workspace/arm/lm3s811/TI_Stellaris/driverlib/sysctl.c **** void
 785:/home/cuil/workspace/arm/lm3s811/TI_Stellaris/driverlib/sysctl.c **** SysCtlPeripheralReset(unsigned long ulPeripheral)
 786:/home/cuil/workspace/arm/lm3s811/TI_Stellaris/driverlib/sysctl.c **** {
 12081              		.loc 1 786 0
 12082              		.cfi_startproc
 12083              		@ args = 0, pretend = 0, frame = 16
 12084              		@ frame_needed = 1, uses_anonymous_args = 0
 12085              		@ link register save eliminated.
 12086 0000 80B4     		push	{r7}
 12087              	.LCFI22:
 12088              		.cfi_def_cfa_offset 4
 12089 0002 85B0     		sub	sp, sp, #20
 12090              	.LCFI23:
 12091              		.cfi_def_cfa_offset 24
 12092 0004 00AF     		add	r7, sp, #0
 12093              		.cfi_offset 7, -4
 12094              	.LCFI24:
 12095              		.cfi_def_cfa_register 7
 12096 0006 7860     		str	r0, [r7, #4]
 787:/home/cuil/workspace/arm/lm3s811/TI_Stellaris/driverlib/sysctl.c ****     volatile unsigned long ulDelay;
 788:/home/cuil/workspace/arm/lm3s811/TI_Stellaris/driverlib/sysctl.c **** 
 789:/home/cuil/workspace/arm/lm3s811/TI_Stellaris/driverlib/sysctl.c ****     //
 790:/home/cuil/workspace/arm/lm3s811/TI_Stellaris/driverlib/sysctl.c ****     // Check the arguments.
 791:/home/cuil/workspace/arm/lm3s811/TI_Stellaris/driverlib/sysctl.c ****     //
 792:/home/cuil/workspace/arm/lm3s811/TI_Stellaris/driverlib/sysctl.c ****     ASSERT(SysCtlPeripheralValid(ulPeripheral));
 793:/home/cuil/workspace/arm/lm3s811/TI_Stellaris/driverlib/sysctl.c **** 
 794:/home/cuil/workspace/arm/lm3s811/TI_Stellaris/driverlib/sysctl.c ****     //
 795:/home/cuil/workspace/arm/lm3s811/TI_Stellaris/driverlib/sysctl.c ****     // See if the peripheral index is 15, indicating a peripheral that is
 796:/home/cuil/workspace/arm/lm3s811/TI_Stellaris/driverlib/sysctl.c ****     // accessed via the SYSCTL_SRperiph registers.
 797:/home/cuil/workspace/arm/lm3s811/TI_Stellaris/driverlib/sysctl.c ****     //
 798:/home/cuil/workspace/arm/lm3s811/TI_Stellaris/driverlib/sysctl.c ****     if((ulPeripheral & 0xf0000000) == 0xf0000000)
 12097              		.loc 1 798 0
 12098 0008 7B68     		ldr	r3, [r7, #4]
 12099 000a 03F07043 		and	r3, r3, #-268435456
 12100 000e B3F1704F 		cmp	r3, #-268435456
 12101 0012 51D1     		bne	.L37
 799:/home/cuil/workspace/arm/lm3s811/TI_Stellaris/driverlib/sysctl.c ****     {
 800:/home/cuil/workspace/arm/lm3s811/TI_Stellaris/driverlib/sysctl.c ****         //
 801:/home/cuil/workspace/arm/lm3s811/TI_Stellaris/driverlib/sysctl.c ****         // Put the peripheral into the reset state.
 802:/home/cuil/workspace/arm/lm3s811/TI_Stellaris/driverlib/sysctl.c ****         //
 803:/home/cuil/workspace/arm/lm3s811/TI_Stellaris/driverlib/sysctl.c ****         HWREGBITW(SYSCTL_SRBASE + ((ulPeripheral & 0xff00) >> 8),
 12102              		.loc 1 803 0
 12103 0014 7B68     		ldr	r3, [r7, #4]
 12104 0016 03F47F43 		and	r3, r3, #65280
 12105 001a 4FEA1322 		lsr	r2, r3, #8
 12106 001e 4C4B     		ldr	r3, .L43
 12107 0020 D318     		adds	r3, r2, r3
 12108 0022 03F07042 		and	r2, r3, #-268435456
 12109 0026 7B68     		ldr	r3, [r7, #4]
 12110 0028 03F47F43 		and	r3, r3, #65280
 12111 002c 4FEA1321 		lsr	r1, r3, #8
 12112 0030 474B     		ldr	r3, .L43
 12113 0032 CB18     		adds	r3, r1, r3
 12114 0034 23F07F43 		bic	r3, r3, #-16777216
 12115 0038 23F47003 		bic	r3, r3, #15728640
 12116 003c 4FEA4313 		lsl	r3, r3, #5
 12117 0040 1A43     		orrs	r2, r2, r3
 12118 0042 7B68     		ldr	r3, [r7, #4]
 12119 0044 03F0FF03 		and	r3, r3, #255
 12120 0048 4FEA8303 		lsl	r3, r3, #2
 12121 004c 42EA0303 		orr	r3, r2, r3
 12122 0050 43F00073 		orr	r3, r3, #33554432
 804:/home/cuil/workspace/arm/lm3s811/TI_Stellaris/driverlib/sysctl.c ****                   ulPeripheral & 0xff) = 1;
 12123              		.loc 1 804 0
 12124 0054 4FF00102 		mov	r2, #1
 12125 0058 1A60     		str	r2, [r3, #0]
 805:/home/cuil/workspace/arm/lm3s811/TI_Stellaris/driverlib/sysctl.c **** 
 806:/home/cuil/workspace/arm/lm3s811/TI_Stellaris/driverlib/sysctl.c ****         //
 807:/home/cuil/workspace/arm/lm3s811/TI_Stellaris/driverlib/sysctl.c ****         // Delay for a little bit.
 808:/home/cuil/workspace/arm/lm3s811/TI_Stellaris/driverlib/sysctl.c ****         //
 809:/home/cuil/workspace/arm/lm3s811/TI_Stellaris/driverlib/sysctl.c ****         for(ulDelay = 0; ulDelay < 16; ulDelay++)
 12126              		.loc 1 809 0
 12127 005a 4FF00003 		mov	r3, #0
 12128 005e FB60     		str	r3, [r7, #12]
 12129 0060 03E0     		b	.L38
 12130              	.L39:
 12131              		.loc 1 809 0 is_stmt 0 discriminator 2
 12132 0062 FB68     		ldr	r3, [r7, #12]
 12133 0064 03F10103 		add	r3, r3, #1
 12134 0068 FB60     		str	r3, [r7, #12]
 12135              	.L38:
 12136              		.loc 1 809 0 discriminator 1
 12137 006a FB68     		ldr	r3, [r7, #12]
 12138 006c 0F2B     		cmp	r3, #15
 12139 006e F8D9     		bls	.L39
 810:/home/cuil/workspace/arm/lm3s811/TI_Stellaris/driverlib/sysctl.c ****         {
 811:/home/cuil/workspace/arm/lm3s811/TI_Stellaris/driverlib/sysctl.c ****         }
 812:/home/cuil/workspace/arm/lm3s811/TI_Stellaris/driverlib/sysctl.c **** 
 813:/home/cuil/workspace/arm/lm3s811/TI_Stellaris/driverlib/sysctl.c ****         //
 814:/home/cuil/workspace/arm/lm3s811/TI_Stellaris/driverlib/sysctl.c ****         // Take the peripheral out of the reset state.
 815:/home/cuil/workspace/arm/lm3s811/TI_Stellaris/driverlib/sysctl.c ****         //
 816:/home/cuil/workspace/arm/lm3s811/TI_Stellaris/driverlib/sysctl.c ****         HWREGBITW(SYSCTL_SRBASE + ((ulPeripheral & 0xff00) >> 8),
 12140              		.loc 1 816 0 is_stmt 1
 12141 0070 7B68     		ldr	r3, [r7, #4]
 12142 0072 03F47F43 		and	r3, r3, #65280
 12143 0076 4FEA1322 		lsr	r2, r3, #8
 12144 007a 354B     		ldr	r3, .L43
 12145 007c D318     		adds	r3, r2, r3
 12146 007e 03F07042 		and	r2, r3, #-268435456
 12147 0082 7B68     		ldr	r3, [r7, #4]
 12148 0084 03F47F43 		and	r3, r3, #65280
 12149 0088 4FEA1321 		lsr	r1, r3, #8
 12150 008c 304B     		ldr	r3, .L43
 12151 008e CB18     		adds	r3, r1, r3
 12152 0090 23F07F43 		bic	r3, r3, #-16777216
 12153 0094 23F47003 		bic	r3, r3, #15728640
 12154 0098 4FEA4313 		lsl	r3, r3, #5
 12155 009c 1A43     		orrs	r2, r2, r3
 12156 009e 7B68     		ldr	r3, [r7, #4]
 12157 00a0 03F0FF03 		and	r3, r3, #255
 12158 00a4 4FEA8303 		lsl	r3, r3, #2
 12159 00a8 42EA0303 		orr	r3, r2, r3
 12160 00ac 43F00073 		orr	r3, r3, #33554432
 817:/home/cuil/workspace/arm/lm3s811/TI_Stellaris/driverlib/sysctl.c ****                   ulPeripheral & 0xff) = 0;
 12161              		.loc 1 817 0
 12162 00b0 4FF00002 		mov	r2, #0
 12163 00b4 1A60     		str	r2, [r3, #0]
 12164 00b6 46E0     		b	.L36
 12165              	.L37:
 818:/home/cuil/workspace/arm/lm3s811/TI_Stellaris/driverlib/sysctl.c ****     }
 819:/home/cuil/workspace/arm/lm3s811/TI_Stellaris/driverlib/sysctl.c ****     else
 820:/home/cuil/workspace/arm/lm3s811/TI_Stellaris/driverlib/sysctl.c ****     {
 821:/home/cuil/workspace/arm/lm3s811/TI_Stellaris/driverlib/sysctl.c ****         //
 822:/home/cuil/workspace/arm/lm3s811/TI_Stellaris/driverlib/sysctl.c ****         // Put the peripheral into the reset state.
 823:/home/cuil/workspace/arm/lm3s811/TI_Stellaris/driverlib/sysctl.c ****         //
 824:/home/cuil/workspace/arm/lm3s811/TI_Stellaris/driverlib/sysctl.c ****         HWREG(g_pulSRCRRegs[SYSCTL_PERIPH_INDEX(ulPeripheral)]) |=
 12166              		.loc 1 824 0
 12167 00b8 7B68     		ldr	r3, [r7, #4]
 12168 00ba 4FEA1372 		lsr	r2, r3, #28
 12169 00be 254B     		ldr	r3, .L43+4
 12170 00c0 53F82230 		ldr	r3, [r3, r2, lsl #2]
 12171 00c4 1A46     		mov	r2, r3
 12172 00c6 7B68     		ldr	r3, [r7, #4]
 12173 00c8 4FEA1371 		lsr	r1, r3, #28
 12174 00cc 214B     		ldr	r3, .L43+4
 12175 00ce 53F82130 		ldr	r3, [r3, r1, lsl #2]
 12176 00d2 1968     		ldr	r1, [r3, #0]
 825:/home/cuil/workspace/arm/lm3s811/TI_Stellaris/driverlib/sysctl.c ****             SYSCTL_PERIPH_MASK(ulPeripheral);
 12177              		.loc 1 825 0
 12178 00d4 7B68     		ldr	r3, [r7, #4]
 12179 00d6 4FEA0343 		lsl	r3, r3, #16
 12180 00da 4FEA1343 		lsr	r3, r3, #16
 12181 00de 7868     		ldr	r0, [r7, #4]
 12182 00e0 00F4F810 		and	r0, r0, #2031616
 12183 00e4 4FEA1040 		lsr	r0, r0, #16
 12184 00e8 03FA00F3 		lsl	r3, r3, r0
 824:/home/cuil/workspace/arm/lm3s811/TI_Stellaris/driverlib/sysctl.c ****         HWREG(g_pulSRCRRegs[SYSCTL_PERIPH_INDEX(ulPeripheral)]) |=
 12185              		.loc 1 824 0
 12186 00ec 41EA0303 		orr	r3, r1, r3
 12187 00f0 1360     		str	r3, [r2, #0]
 826:/home/cuil/workspace/arm/lm3s811/TI_Stellaris/driverlib/sysctl.c **** 
 827:/home/cuil/workspace/arm/lm3s811/TI_Stellaris/driverlib/sysctl.c ****         //
 828:/home/cuil/workspace/arm/lm3s811/TI_Stellaris/driverlib/sysctl.c ****         // Delay for a little bit.
 829:/home/cuil/workspace/arm/lm3s811/TI_Stellaris/driverlib/sysctl.c ****         //
 830:/home/cuil/workspace/arm/lm3s811/TI_Stellaris/driverlib/sysctl.c ****         for(ulDelay = 0; ulDelay < 16; ulDelay++)
 12188              		.loc 1 830 0
 12189 00f2 4FF00003 		mov	r3, #0
 12190 00f6 FB60     		str	r3, [r7, #12]
 12191 00f8 03E0     		b	.L41
 12192              	.L42:
 12193              		.loc 1 830 0 is_stmt 0 discriminator 2
 12194 00fa FB68     		ldr	r3, [r7, #12]
 12195 00fc 03F10103 		add	r3, r3, #1
 12196 0100 FB60     		str	r3, [r7, #12]
 12197              	.L41:
 12198              		.loc 1 830 0 discriminator 1
 12199 0102 FB68     		ldr	r3, [r7, #12]
 12200 0104 0F2B     		cmp	r3, #15
 12201 0106 F8D9     		bls	.L42
 831:/home/cuil/workspace/arm/lm3s811/TI_Stellaris/driverlib/sysctl.c ****         {
 832:/home/cuil/workspace/arm/lm3s811/TI_Stellaris/driverlib/sysctl.c ****         }
 833:/home/cuil/workspace/arm/lm3s811/TI_Stellaris/driverlib/sysctl.c **** 
 834:/home/cuil/workspace/arm/lm3s811/TI_Stellaris/driverlib/sysctl.c ****         //
 835:/home/cuil/workspace/arm/lm3s811/TI_Stellaris/driverlib/sysctl.c ****         // Take the peripheral out of the reset state.
 836:/home/cuil/workspace/arm/lm3s811/TI_Stellaris/driverlib/sysctl.c ****         //
 837:/home/cuil/workspace/arm/lm3s811/TI_Stellaris/driverlib/sysctl.c ****         HWREG(g_pulSRCRRegs[SYSCTL_PERIPH_INDEX(ulPeripheral)]) &=
 12202              		.loc 1 837 0 is_stmt 1
 12203 0108 7B68     		ldr	r3, [r7, #4]
 12204 010a 4FEA1372 		lsr	r2, r3, #28
 12205 010e 114B     		ldr	r3, .L43+4
 12206 0110 53F82230 		ldr	r3, [r3, r2, lsl #2]
 12207 0114 1A46     		mov	r2, r3
 12208 0116 7B68     		ldr	r3, [r7, #4]
 12209 0118 4FEA1371 		lsr	r1, r3, #28
 12210 011c 0D4B     		ldr	r3, .L43+4
 12211 011e 53F82130 		ldr	r3, [r3, r1, lsl #2]
 12212 0122 1968     		ldr	r1, [r3, #0]
 838:/home/cuil/workspace/arm/lm3s811/TI_Stellaris/driverlib/sysctl.c ****             ~SYSCTL_PERIPH_MASK(ulPeripheral);
 12213              		.loc 1 838 0
 12214 0124 7B68     		ldr	r3, [r7, #4]
 12215 0126 4FEA0343 		lsl	r3, r3, #16
 12216 012a 4FEA1343 		lsr	r3, r3, #16
 12217 012e 7868     		ldr	r0, [r7, #4]
 12218 0130 00F4F810 		and	r0, r0, #2031616
 12219 0134 4FEA1040 		lsr	r0, r0, #16
 12220 0138 03FA00F3 		lsl	r3, r3, r0
 12221 013c 6FEA0303 		mvn	r3, r3
 837:/home/cuil/workspace/arm/lm3s811/TI_Stellaris/driverlib/sysctl.c ****         HWREG(g_pulSRCRRegs[SYSCTL_PERIPH_INDEX(ulPeripheral)]) &=
 12222              		.loc 1 837 0
 12223 0140 01EA0303 		and	r3, r1, r3
 12224 0144 1360     		str	r3, [r2, #0]
 12225              	.L36:
 839:/home/cuil/workspace/arm/lm3s811/TI_Stellaris/driverlib/sysctl.c ****     }
 840:/home/cuil/workspace/arm/lm3s811/TI_Stellaris/driverlib/sysctl.c **** }
 12226              		.loc 1 840 0
 12227 0146 07F11407 		add	r7, r7, #20
 12228 014a BD46     		mov	sp, r7
 12229 014c 80BC     		pop	{r7}
 12230 014e 7047     		bx	lr
 12231              	.L44:
 12232              		.align	2
 12233              	.L43:
 12234 0150 00E50F40 		.word	1074783488
 12235 0154 10000000 		.word	g_pulSRCRRegs
 12236              		.cfi_endproc
 12237              	.LFE8:
 12239              		.section	.text.SysCtlPeripheralEnable,"ax",%progbits
 12240              		.align	2
 12241              		.global	SysCtlPeripheralEnable
 12242              		.thumb
 12243              		.thumb_func
 12245              	SysCtlPeripheralEnable:
 12246              	.LFB9:
 841:/home/cuil/workspace/arm/lm3s811/TI_Stellaris/driverlib/sysctl.c **** 
 842:/home/cuil/workspace/arm/lm3s811/TI_Stellaris/driverlib/sysctl.c **** //*****************************************************************************
 843:/home/cuil/workspace/arm/lm3s811/TI_Stellaris/driverlib/sysctl.c **** //
 844:/home/cuil/workspace/arm/lm3s811/TI_Stellaris/driverlib/sysctl.c **** //! Enables a peripheral.
 845:/home/cuil/workspace/arm/lm3s811/TI_Stellaris/driverlib/sysctl.c **** //!
 846:/home/cuil/workspace/arm/lm3s811/TI_Stellaris/driverlib/sysctl.c **** //! \param ulPeripheral is the peripheral to enable.
 847:/home/cuil/workspace/arm/lm3s811/TI_Stellaris/driverlib/sysctl.c **** //!
 848:/home/cuil/workspace/arm/lm3s811/TI_Stellaris/driverlib/sysctl.c **** //! This function enables peripherals.  At power-up, all peripherals
 849:/home/cuil/workspace/arm/lm3s811/TI_Stellaris/driverlib/sysctl.c **** //! are disabled; they must be enabled in order to operate or respond to
 850:/home/cuil/workspace/arm/lm3s811/TI_Stellaris/driverlib/sysctl.c **** //! register reads/writes.
 851:/home/cuil/workspace/arm/lm3s811/TI_Stellaris/driverlib/sysctl.c **** //!
 852:/home/cuil/workspace/arm/lm3s811/TI_Stellaris/driverlib/sysctl.c **** //! The \e ulPeripheral parameter must be only one of the following values:
 853:/home/cuil/workspace/arm/lm3s811/TI_Stellaris/driverlib/sysctl.c **** //! \b SYSCTL_PERIPH_ADC0, \b SYSCTL_PERIPH_ADC1, \b SYSCTL_PERIPH_CAN0,
 854:/home/cuil/workspace/arm/lm3s811/TI_Stellaris/driverlib/sysctl.c **** //! \b SYSCTL_PERIPH_CAN1, \b SYSCTL_PERIPH_CAN2, \b SYSCTL_PERIPH_COMP0,
 855:/home/cuil/workspace/arm/lm3s811/TI_Stellaris/driverlib/sysctl.c **** //! \b SYSCTL_PERIPH_COMP1, \b SYSCTL_PERIPH_COMP2, \b SYSCTL_PERIPH_EEPROM0,
 856:/home/cuil/workspace/arm/lm3s811/TI_Stellaris/driverlib/sysctl.c **** //! \b SYSCTL_PERIPH_EPI0, \b SYSCTL_PERIPH_ETH, \b SYSCTL_PERIPH_FAN0,
 857:/home/cuil/workspace/arm/lm3s811/TI_Stellaris/driverlib/sysctl.c **** //! \b SYSCTL_PERIPH_GPIOA, \b SYSCTL_PERIPH_GPIOB, \b SYSCTL_PERIPH_GPIOC,
 858:/home/cuil/workspace/arm/lm3s811/TI_Stellaris/driverlib/sysctl.c **** //! \b SYSCTL_PERIPH_GPIOD, \b SYSCTL_PERIPH_GPIOE, \b SYSCTL_PERIPH_GPIOF,
 859:/home/cuil/workspace/arm/lm3s811/TI_Stellaris/driverlib/sysctl.c **** //! \b SYSCTL_PERIPH_GPIOG, \b SYSCTL_PERIPH_GPIOH, \b SYSCTL_PERIPH_GPIOJ,
 860:/home/cuil/workspace/arm/lm3s811/TI_Stellaris/driverlib/sysctl.c **** //! \b SYSCTL_PERIPH_GPIOK, \b SYSCTL_PERIPH_GPIOL, \b SYSCTL_PERIPH_GPIOM,
 861:/home/cuil/workspace/arm/lm3s811/TI_Stellaris/driverlib/sysctl.c **** //! \b SYSCTL_PERIPH_GPION, \b SYSCTL_PERIPH_GPIOP, \b SYSCTL_PERIPH_GPIOQ,
 862:/home/cuil/workspace/arm/lm3s811/TI_Stellaris/driverlib/sysctl.c **** //! \b SYSCTL_PERIPH_HIBERNATE, \b SYSCTL_PERIPH_I2C0, \b SYSCTL_PERIPH_I2C1,
 863:/home/cuil/workspace/arm/lm3s811/TI_Stellaris/driverlib/sysctl.c **** //! \b SYSCTL_PERIPH_I2C2, \b SYSCTL_PERIPH_I2C3, \b SYSCTL_PERIPH_I2C4,
 864:/home/cuil/workspace/arm/lm3s811/TI_Stellaris/driverlib/sysctl.c **** //! \b SYSCTL_PERIPH_I2C5, \b SYSCTL_PERIPH_I2S0, \b SYSCTL_PERIPH_LPC0,
 865:/home/cuil/workspace/arm/lm3s811/TI_Stellaris/driverlib/sysctl.c **** //! \b SYSCTL_PERIPH_PECI0, \b SYSCTL_PERIPH_PWM0, \b SYSCTL_PERIPH_PWM1,
 866:/home/cuil/workspace/arm/lm3s811/TI_Stellaris/driverlib/sysctl.c **** //! \b SYSCTL_PERIPH_QEI0, \b SYSCTL_PERIPH_QEI1, \b SYSCTL_PERIPH_SSI0,
 867:/home/cuil/workspace/arm/lm3s811/TI_Stellaris/driverlib/sysctl.c **** //! \b SYSCTL_PERIPH_SSI1, \b SYSCTL_PERIPH_SSI2, \b SYSCTL_PERIPH_SSI3,
 868:/home/cuil/workspace/arm/lm3s811/TI_Stellaris/driverlib/sysctl.c **** //! \b SYSCTL_PERIPH_TIMER0, \b SYSCTL_PERIPH_TIMER1, \b SYSCTL_PERIPH_TIMER2,
 869:/home/cuil/workspace/arm/lm3s811/TI_Stellaris/driverlib/sysctl.c **** //! \b SYSCTL_PERIPH_TIMER3, \b SYSCTL_PERIPH_TIMER4, \b SYSCTL_PERIPH_TIMER5,
 870:/home/cuil/workspace/arm/lm3s811/TI_Stellaris/driverlib/sysctl.c **** //! \b SYSCTL_PERIPH_UART0, \b SYSCTL_PERIPH_UART1, \b SYSCTL_PERIPH_UART2,
 871:/home/cuil/workspace/arm/lm3s811/TI_Stellaris/driverlib/sysctl.c **** //! \b SYSCTL_PERIPH_UART3, \b SYSCTL_PERIPH_UART4, \b SYSCTL_PERIPH_UART5,
 872:/home/cuil/workspace/arm/lm3s811/TI_Stellaris/driverlib/sysctl.c **** //! \b SYSCTL_PERIPH_UART6, \b SYSCTL_PERIPH_UART7, \b SYSCTL_PERIPH_UDMA,
 873:/home/cuil/workspace/arm/lm3s811/TI_Stellaris/driverlib/sysctl.c **** //! \b SYSCTL_PERIPH_USB0, \b SYSCTL_PERIPH_WDOG0, \b SYSCTL_PERIPH_WDOG1,
 874:/home/cuil/workspace/arm/lm3s811/TI_Stellaris/driverlib/sysctl.c **** //! \b SYSCTL_PERIPH_WTIMER0, \b SYSCTL_PERIPH_WTIMER1,
 875:/home/cuil/workspace/arm/lm3s811/TI_Stellaris/driverlib/sysctl.c **** //! \b SYSCTL_PERIPH_WTIMER2, \b SYSCTL_PERIPH_WTIMER3,
 876:/home/cuil/workspace/arm/lm3s811/TI_Stellaris/driverlib/sysctl.c **** //! \b SYSCTL_PERIPH_WTIMER4, or \b SYSCTL_PERIPH_WTIMER5.
 877:/home/cuil/workspace/arm/lm3s811/TI_Stellaris/driverlib/sysctl.c **** //!
 878:/home/cuil/workspace/arm/lm3s811/TI_Stellaris/driverlib/sysctl.c **** //! \note It takes five clock cycles after the write to enable a peripheral
 879:/home/cuil/workspace/arm/lm3s811/TI_Stellaris/driverlib/sysctl.c **** //! before the the peripheral is actually enabled.  During this time, attempts
 880:/home/cuil/workspace/arm/lm3s811/TI_Stellaris/driverlib/sysctl.c **** //! to access the peripheral result in a bus fault.  Care should be taken
 881:/home/cuil/workspace/arm/lm3s811/TI_Stellaris/driverlib/sysctl.c **** //! to ensure that the peripheral is not accessed during this brief time
 882:/home/cuil/workspace/arm/lm3s811/TI_Stellaris/driverlib/sysctl.c **** //! period.
 883:/home/cuil/workspace/arm/lm3s811/TI_Stellaris/driverlib/sysctl.c **** //!
 884:/home/cuil/workspace/arm/lm3s811/TI_Stellaris/driverlib/sysctl.c **** //! \return None.
 885:/home/cuil/workspace/arm/lm3s811/TI_Stellaris/driverlib/sysctl.c **** //
 886:/home/cuil/workspace/arm/lm3s811/TI_Stellaris/driverlib/sysctl.c **** //*****************************************************************************
 887:/home/cuil/workspace/arm/lm3s811/TI_Stellaris/driverlib/sysctl.c **** void
 888:/home/cuil/workspace/arm/lm3s811/TI_Stellaris/driverlib/sysctl.c **** SysCtlPeripheralEnable(unsigned long ulPeripheral)
 889:/home/cuil/workspace/arm/lm3s811/TI_Stellaris/driverlib/sysctl.c **** {
 12247              		.loc 1 889 0
 12248              		.cfi_startproc
 12249              		@ args = 0, pretend = 0, frame = 8
 12250              		@ frame_needed = 1, uses_anonymous_args = 0
 12251              		@ link register save eliminated.
 12252 0000 80B4     		push	{r7}
 12253              	.LCFI25:
 12254              		.cfi_def_cfa_offset 4
 12255 0002 83B0     		sub	sp, sp, #12
 12256              	.LCFI26:
 12257              		.cfi_def_cfa_offset 16
 12258 0004 00AF     		add	r7, sp, #0
 12259              		.cfi_offset 7, -4
 12260              	.LCFI27:
 12261              		.cfi_def_cfa_register 7
 12262 0006 7860     		str	r0, [r7, #4]
 890:/home/cuil/workspace/arm/lm3s811/TI_Stellaris/driverlib/sysctl.c ****     //
 891:/home/cuil/workspace/arm/lm3s811/TI_Stellaris/driverlib/sysctl.c ****     // Check the arguments.
 892:/home/cuil/workspace/arm/lm3s811/TI_Stellaris/driverlib/sysctl.c ****     //
 893:/home/cuil/workspace/arm/lm3s811/TI_Stellaris/driverlib/sysctl.c ****     ASSERT(SysCtlPeripheralValid(ulPeripheral));
 894:/home/cuil/workspace/arm/lm3s811/TI_Stellaris/driverlib/sysctl.c **** 
 895:/home/cuil/workspace/arm/lm3s811/TI_Stellaris/driverlib/sysctl.c ****     //
 896:/home/cuil/workspace/arm/lm3s811/TI_Stellaris/driverlib/sysctl.c ****     // See if the peripheral index is 15, indicating a peripheral that is
 897:/home/cuil/workspace/arm/lm3s811/TI_Stellaris/driverlib/sysctl.c ****     // accessed via the SYSCTL_RCGCperiph registers.
 898:/home/cuil/workspace/arm/lm3s811/TI_Stellaris/driverlib/sysctl.c ****     //
 899:/home/cuil/workspace/arm/lm3s811/TI_Stellaris/driverlib/sysctl.c ****     if((ulPeripheral & 0xf0000000) == 0xf0000000)
 12263              		.loc 1 899 0
 12264 0008 7B68     		ldr	r3, [r7, #4]
 12265 000a 03F07043 		and	r3, r3, #-268435456
 12266 000e B3F1704F 		cmp	r3, #-268435456
 12267 0012 23D1     		bne	.L46
 900:/home/cuil/workspace/arm/lm3s811/TI_Stellaris/driverlib/sysctl.c ****     {
 901:/home/cuil/workspace/arm/lm3s811/TI_Stellaris/driverlib/sysctl.c ****         //
 902:/home/cuil/workspace/arm/lm3s811/TI_Stellaris/driverlib/sysctl.c ****         // Enable this peripheral.
 903:/home/cuil/workspace/arm/lm3s811/TI_Stellaris/driverlib/sysctl.c ****         //
 904:/home/cuil/workspace/arm/lm3s811/TI_Stellaris/driverlib/sysctl.c ****         HWREGBITW(SYSCTL_RCGCBASE + ((ulPeripheral & 0xff00) >> 8),
 12268              		.loc 1 904 0
 12269 0014 7B68     		ldr	r3, [r7, #4]
 12270 0016 03F47F43 		and	r3, r3, #65280
 12271 001a 4FEA1322 		lsr	r2, r3, #8
 12272 001e 204B     		ldr	r3, .L48
 12273 0020 D318     		adds	r3, r2, r3
 12274 0022 03F07042 		and	r2, r3, #-268435456
 12275 0026 7B68     		ldr	r3, [r7, #4]
 12276 0028 03F47F43 		and	r3, r3, #65280
 12277 002c 4FEA1321 		lsr	r1, r3, #8
 12278 0030 1B4B     		ldr	r3, .L48
 12279 0032 CB18     		adds	r3, r1, r3
 12280 0034 23F07F43 		bic	r3, r3, #-16777216
 12281 0038 23F47003 		bic	r3, r3, #15728640
 12282 003c 4FEA4313 		lsl	r3, r3, #5
 12283 0040 1A43     		orrs	r2, r2, r3
 12284 0042 7B68     		ldr	r3, [r7, #4]
 12285 0044 03F0FF03 		and	r3, r3, #255
 12286 0048 4FEA8303 		lsl	r3, r3, #2
 12287 004c 42EA0303 		orr	r3, r2, r3
 12288 0050 43F00073 		orr	r3, r3, #33554432
 905:/home/cuil/workspace/arm/lm3s811/TI_Stellaris/driverlib/sysctl.c ****                   ulPeripheral & 0xff) = 1;
 12289              		.loc 1 905 0
 12290 0054 4FF00102 		mov	r2, #1
 12291 0058 1A60     		str	r2, [r3, #0]
 12292 005a 1CE0     		b	.L45
 12293              	.L46:
 906:/home/cuil/workspace/arm/lm3s811/TI_Stellaris/driverlib/sysctl.c ****     }
 907:/home/cuil/workspace/arm/lm3s811/TI_Stellaris/driverlib/sysctl.c ****     else
 908:/home/cuil/workspace/arm/lm3s811/TI_Stellaris/driverlib/sysctl.c ****     {
 909:/home/cuil/workspace/arm/lm3s811/TI_Stellaris/driverlib/sysctl.c ****         //
 910:/home/cuil/workspace/arm/lm3s811/TI_Stellaris/driverlib/sysctl.c ****         // Enable this peripheral.
 911:/home/cuil/workspace/arm/lm3s811/TI_Stellaris/driverlib/sysctl.c ****         //
 912:/home/cuil/workspace/arm/lm3s811/TI_Stellaris/driverlib/sysctl.c ****         HWREG(g_pulRCGCRegs[SYSCTL_PERIPH_INDEX(ulPeripheral)]) |=
 12294              		.loc 1 912 0
 12295 005c 7B68     		ldr	r3, [r7, #4]
 12296 005e 4FEA1372 		lsr	r2, r3, #28
 12297 0062 104B     		ldr	r3, .L48+4
 12298 0064 53F82230 		ldr	r3, [r3, r2, lsl #2]
 12299 0068 1A46     		mov	r2, r3
 12300 006a 7B68     		ldr	r3, [r7, #4]
 12301 006c 4FEA1371 		lsr	r1, r3, #28
 12302 0070 0C4B     		ldr	r3, .L48+4
 12303 0072 53F82130 		ldr	r3, [r3, r1, lsl #2]
 12304 0076 1968     		ldr	r1, [r3, #0]
 913:/home/cuil/workspace/arm/lm3s811/TI_Stellaris/driverlib/sysctl.c ****             SYSCTL_PERIPH_MASK(ulPeripheral);
 12305              		.loc 1 913 0
 12306 0078 7B68     		ldr	r3, [r7, #4]
 12307 007a 4FEA0343 		lsl	r3, r3, #16
 12308 007e 4FEA1343 		lsr	r3, r3, #16
 12309 0082 7868     		ldr	r0, [r7, #4]
 12310 0084 00F4F810 		and	r0, r0, #2031616
 12311 0088 4FEA1040 		lsr	r0, r0, #16
 12312 008c 03FA00F3 		lsl	r3, r3, r0
 912:/home/cuil/workspace/arm/lm3s811/TI_Stellaris/driverlib/sysctl.c ****         HWREG(g_pulRCGCRegs[SYSCTL_PERIPH_INDEX(ulPeripheral)]) |=
 12313              		.loc 1 912 0
 12314 0090 41EA0303 		orr	r3, r1, r3
 12315 0094 1360     		str	r3, [r2, #0]
 12316              	.L45:
 914:/home/cuil/workspace/arm/lm3s811/TI_Stellaris/driverlib/sysctl.c ****     }
 915:/home/cuil/workspace/arm/lm3s811/TI_Stellaris/driverlib/sysctl.c **** }
 12317              		.loc 1 915 0
 12318 0096 07F10C07 		add	r7, r7, #12
 12319 009a BD46     		mov	sp, r7
 12320 009c 80BC     		pop	{r7}
 12321 009e 7047     		bx	lr
 12322              	.L49:
 12323              		.align	2
 12324              	.L48:
 12325 00a0 00E60F40 		.word	1074783744
 12326 00a4 1C000000 		.word	g_pulRCGCRegs
 12327              		.cfi_endproc
 12328              	.LFE9:
 12330              		.section	.text.SysCtlPeripheralDisable,"ax",%progbits
 12331              		.align	2
 12332              		.global	SysCtlPeripheralDisable
 12333              		.thumb
 12334              		.thumb_func
 12336              	SysCtlPeripheralDisable:
 12337              	.LFB10:
 916:/home/cuil/workspace/arm/lm3s811/TI_Stellaris/driverlib/sysctl.c **** 
 917:/home/cuil/workspace/arm/lm3s811/TI_Stellaris/driverlib/sysctl.c **** //*****************************************************************************
 918:/home/cuil/workspace/arm/lm3s811/TI_Stellaris/driverlib/sysctl.c **** //
 919:/home/cuil/workspace/arm/lm3s811/TI_Stellaris/driverlib/sysctl.c **** //! Disables a peripheral.
 920:/home/cuil/workspace/arm/lm3s811/TI_Stellaris/driverlib/sysctl.c **** //!
 921:/home/cuil/workspace/arm/lm3s811/TI_Stellaris/driverlib/sysctl.c **** //! \param ulPeripheral is the peripheral to disable.
 922:/home/cuil/workspace/arm/lm3s811/TI_Stellaris/driverlib/sysctl.c **** //!
 923:/home/cuil/workspace/arm/lm3s811/TI_Stellaris/driverlib/sysctl.c **** //! This function disables peripherals are disabled with this function.  Once 
 924:/home/cuil/workspace/arm/lm3s811/TI_Stellaris/driverlib/sysctl.c **** //! disabled, they do not operate or respond to register reads/writes.
 925:/home/cuil/workspace/arm/lm3s811/TI_Stellaris/driverlib/sysctl.c **** //!
 926:/home/cuil/workspace/arm/lm3s811/TI_Stellaris/driverlib/sysctl.c **** //! The \e ulPeripheral parameter must be only one of the following values:
 927:/home/cuil/workspace/arm/lm3s811/TI_Stellaris/driverlib/sysctl.c **** //! \b SYSCTL_PERIPH_ADC0, \b SYSCTL_PERIPH_ADC1, \b SYSCTL_PERIPH_CAN0,
 928:/home/cuil/workspace/arm/lm3s811/TI_Stellaris/driverlib/sysctl.c **** //! \b SYSCTL_PERIPH_CAN1, \b SYSCTL_PERIPH_CAN2, \b SYSCTL_PERIPH_COMP0,
 929:/home/cuil/workspace/arm/lm3s811/TI_Stellaris/driverlib/sysctl.c **** //! \b SYSCTL_PERIPH_COMP1, \b SYSCTL_PERIPH_COMP2, \b SYSCTL_PERIPH_EEPROM0,
 930:/home/cuil/workspace/arm/lm3s811/TI_Stellaris/driverlib/sysctl.c **** //! \b SYSCTL_PERIPH_EPI0, \b SYSCTL_PERIPH_ETH, \b SYSCTL_PERIPH_FAN0,
 931:/home/cuil/workspace/arm/lm3s811/TI_Stellaris/driverlib/sysctl.c **** //! \b SYSCTL_PERIPH_GPIOA, \b SYSCTL_PERIPH_GPIOB, \b SYSCTL_PERIPH_GPIOC,
 932:/home/cuil/workspace/arm/lm3s811/TI_Stellaris/driverlib/sysctl.c **** //! \b SYSCTL_PERIPH_GPIOD, \b SYSCTL_PERIPH_GPIOE, \b SYSCTL_PERIPH_GPIOF,
 933:/home/cuil/workspace/arm/lm3s811/TI_Stellaris/driverlib/sysctl.c **** //! \b SYSCTL_PERIPH_GPIOG, \b SYSCTL_PERIPH_GPIOH, \b SYSCTL_PERIPH_GPIOJ,
 934:/home/cuil/workspace/arm/lm3s811/TI_Stellaris/driverlib/sysctl.c **** //! \b SYSCTL_PERIPH_GPIOK, \b SYSCTL_PERIPH_GPIOL, \b SYSCTL_PERIPH_GPIOM,
 935:/home/cuil/workspace/arm/lm3s811/TI_Stellaris/driverlib/sysctl.c **** //! \b SYSCTL_PERIPH_GPION, \b SYSCTL_PERIPH_GPIOP, \b SYSCTL_PERIPH_GPIOQ,
 936:/home/cuil/workspace/arm/lm3s811/TI_Stellaris/driverlib/sysctl.c **** //! \b SYSCTL_PERIPH_HIBERNATE, \b SYSCTL_PERIPH_I2C0, \b SYSCTL_PERIPH_I2C1,
 937:/home/cuil/workspace/arm/lm3s811/TI_Stellaris/driverlib/sysctl.c **** //! \b SYSCTL_PERIPH_I2C2, \b SYSCTL_PERIPH_I2C3, \b SYSCTL_PERIPH_I2C4,
 938:/home/cuil/workspace/arm/lm3s811/TI_Stellaris/driverlib/sysctl.c **** //! \b SYSCTL_PERIPH_I2C5, \b SYSCTL_PERIPH_I2S0, \b SYSCTL_PERIPH_LPC0,
 939:/home/cuil/workspace/arm/lm3s811/TI_Stellaris/driverlib/sysctl.c **** //! \b SYSCTL_PERIPH_PECI0, \b SYSCTL_PERIPH_PWM0, \b SYSCTL_PERIPH_PWM1,
 940:/home/cuil/workspace/arm/lm3s811/TI_Stellaris/driverlib/sysctl.c **** //! \b SYSCTL_PERIPH_QEI0, \b SYSCTL_PERIPH_QEI1, \b SYSCTL_PERIPH_SSI0,
 941:/home/cuil/workspace/arm/lm3s811/TI_Stellaris/driverlib/sysctl.c **** //! \b SYSCTL_PERIPH_SSI1, \b SYSCTL_PERIPH_SSI2, \b SYSCTL_PERIPH_SSI3,
 942:/home/cuil/workspace/arm/lm3s811/TI_Stellaris/driverlib/sysctl.c **** //! \b SYSCTL_PERIPH_TIMER0, \b SYSCTL_PERIPH_TIMER1, \b SYSCTL_PERIPH_TIMER2,
 943:/home/cuil/workspace/arm/lm3s811/TI_Stellaris/driverlib/sysctl.c **** //! \b SYSCTL_PERIPH_TIMER3, \b SYSCTL_PERIPH_TIMER4, \b SYSCTL_PERIPH_TIMER5,
 944:/home/cuil/workspace/arm/lm3s811/TI_Stellaris/driverlib/sysctl.c **** //! \b SYSCTL_PERIPH_UART0, \b SYSCTL_PERIPH_UART1, \b SYSCTL_PERIPH_UART2,
 945:/home/cuil/workspace/arm/lm3s811/TI_Stellaris/driverlib/sysctl.c **** //! \b SYSCTL_PERIPH_UART3, \b SYSCTL_PERIPH_UART4, \b SYSCTL_PERIPH_UART5,
 946:/home/cuil/workspace/arm/lm3s811/TI_Stellaris/driverlib/sysctl.c **** //! \b SYSCTL_PERIPH_UART6, \b SYSCTL_PERIPH_UART7, \b SYSCTL_PERIPH_UDMA,
 947:/home/cuil/workspace/arm/lm3s811/TI_Stellaris/driverlib/sysctl.c **** //! \b SYSCTL_PERIPH_USB0, \b SYSCTL_PERIPH_WDOG0, \b SYSCTL_PERIPH_WDOG1,
 948:/home/cuil/workspace/arm/lm3s811/TI_Stellaris/driverlib/sysctl.c **** //! \b SYSCTL_PERIPH_WTIMER0, \b SYSCTL_PERIPH_WTIMER1,
 949:/home/cuil/workspace/arm/lm3s811/TI_Stellaris/driverlib/sysctl.c **** //! \b SYSCTL_PERIPH_WTIMER2, \b SYSCTL_PERIPH_WTIMER3,
 950:/home/cuil/workspace/arm/lm3s811/TI_Stellaris/driverlib/sysctl.c **** //! \b SYSCTL_PERIPH_WTIMER4, or \b SYSCTL_PERIPH_WTIMER5.
 951:/home/cuil/workspace/arm/lm3s811/TI_Stellaris/driverlib/sysctl.c **** //!
 952:/home/cuil/workspace/arm/lm3s811/TI_Stellaris/driverlib/sysctl.c **** //! \return None.
 953:/home/cuil/workspace/arm/lm3s811/TI_Stellaris/driverlib/sysctl.c **** //
 954:/home/cuil/workspace/arm/lm3s811/TI_Stellaris/driverlib/sysctl.c **** //*****************************************************************************
 955:/home/cuil/workspace/arm/lm3s811/TI_Stellaris/driverlib/sysctl.c **** void
 956:/home/cuil/workspace/arm/lm3s811/TI_Stellaris/driverlib/sysctl.c **** SysCtlPeripheralDisable(unsigned long ulPeripheral)
 957:/home/cuil/workspace/arm/lm3s811/TI_Stellaris/driverlib/sysctl.c **** {
 12338              		.loc 1 957 0
 12339              		.cfi_startproc
 12340              		@ args = 0, pretend = 0, frame = 8
 12341              		@ frame_needed = 1, uses_anonymous_args = 0
 12342              		@ link register save eliminated.
 12343 0000 80B4     		push	{r7}
 12344              	.LCFI28:
 12345              		.cfi_def_cfa_offset 4
 12346 0002 83B0     		sub	sp, sp, #12
 12347              	.LCFI29:
 12348              		.cfi_def_cfa_offset 16
 12349 0004 00AF     		add	r7, sp, #0
 12350              		.cfi_offset 7, -4
 12351              	.LCFI30:
 12352              		.cfi_def_cfa_register 7
 12353 0006 7860     		str	r0, [r7, #4]
 958:/home/cuil/workspace/arm/lm3s811/TI_Stellaris/driverlib/sysctl.c ****     //
 959:/home/cuil/workspace/arm/lm3s811/TI_Stellaris/driverlib/sysctl.c ****     // Check the arguments.
 960:/home/cuil/workspace/arm/lm3s811/TI_Stellaris/driverlib/sysctl.c ****     //
 961:/home/cuil/workspace/arm/lm3s811/TI_Stellaris/driverlib/sysctl.c ****     ASSERT(SysCtlPeripheralValid(ulPeripheral));
 962:/home/cuil/workspace/arm/lm3s811/TI_Stellaris/driverlib/sysctl.c **** 
 963:/home/cuil/workspace/arm/lm3s811/TI_Stellaris/driverlib/sysctl.c ****     //
 964:/home/cuil/workspace/arm/lm3s811/TI_Stellaris/driverlib/sysctl.c ****     // See if the peripheral index is 15, indicating a peripheral that is
 965:/home/cuil/workspace/arm/lm3s811/TI_Stellaris/driverlib/sysctl.c ****     // accessed via the SYSCTL_RCGCperiph registers.
 966:/home/cuil/workspace/arm/lm3s811/TI_Stellaris/driverlib/sysctl.c ****     //
 967:/home/cuil/workspace/arm/lm3s811/TI_Stellaris/driverlib/sysctl.c ****     if((ulPeripheral & 0xf0000000) == 0xf0000000)
 12354              		.loc 1 967 0
 12355 0008 7B68     		ldr	r3, [r7, #4]
 12356 000a 03F07043 		and	r3, r3, #-268435456
 12357 000e B3F1704F 		cmp	r3, #-268435456
 12358 0012 23D1     		bne	.L51
 968:/home/cuil/workspace/arm/lm3s811/TI_Stellaris/driverlib/sysctl.c ****     {
 969:/home/cuil/workspace/arm/lm3s811/TI_Stellaris/driverlib/sysctl.c ****         //
 970:/home/cuil/workspace/arm/lm3s811/TI_Stellaris/driverlib/sysctl.c ****         // Disable this peripheral.
 971:/home/cuil/workspace/arm/lm3s811/TI_Stellaris/driverlib/sysctl.c ****         //
 972:/home/cuil/workspace/arm/lm3s811/TI_Stellaris/driverlib/sysctl.c ****         HWREGBITW(SYSCTL_RCGCBASE + ((ulPeripheral & 0xff00) >> 8),
 12359              		.loc 1 972 0
 12360 0014 7B68     		ldr	r3, [r7, #4]
 12361 0016 03F47F43 		and	r3, r3, #65280
 12362 001a 4FEA1322 		lsr	r2, r3, #8
 12363 001e 214B     		ldr	r3, .L53
 12364 0020 D318     		adds	r3, r2, r3
 12365 0022 03F07042 		and	r2, r3, #-268435456
 12366 0026 7B68     		ldr	r3, [r7, #4]
 12367 0028 03F47F43 		and	r3, r3, #65280
 12368 002c 4FEA1321 		lsr	r1, r3, #8
 12369 0030 1C4B     		ldr	r3, .L53
 12370 0032 CB18     		adds	r3, r1, r3
 12371 0034 23F07F43 		bic	r3, r3, #-16777216
 12372 0038 23F47003 		bic	r3, r3, #15728640
 12373 003c 4FEA4313 		lsl	r3, r3, #5
 12374 0040 1A43     		orrs	r2, r2, r3
 12375 0042 7B68     		ldr	r3, [r7, #4]
 12376 0044 03F0FF03 		and	r3, r3, #255
 12377 0048 4FEA8303 		lsl	r3, r3, #2
 12378 004c 42EA0303 		orr	r3, r2, r3
 12379 0050 43F00073 		orr	r3, r3, #33554432
 973:/home/cuil/workspace/arm/lm3s811/TI_Stellaris/driverlib/sysctl.c ****                   ulPeripheral & 0xff) = 0;
 12380              		.loc 1 973 0
 12381 0054 4FF00002 		mov	r2, #0
 12382 0058 1A60     		str	r2, [r3, #0]
 12383 005a 1EE0     		b	.L50
 12384              	.L51:
 974:/home/cuil/workspace/arm/lm3s811/TI_Stellaris/driverlib/sysctl.c ****     }
 975:/home/cuil/workspace/arm/lm3s811/TI_Stellaris/driverlib/sysctl.c ****     else
 976:/home/cuil/workspace/arm/lm3s811/TI_Stellaris/driverlib/sysctl.c ****     {
 977:/home/cuil/workspace/arm/lm3s811/TI_Stellaris/driverlib/sysctl.c ****         //
 978:/home/cuil/workspace/arm/lm3s811/TI_Stellaris/driverlib/sysctl.c ****         // Disable this peripheral.
 979:/home/cuil/workspace/arm/lm3s811/TI_Stellaris/driverlib/sysctl.c ****         //
 980:/home/cuil/workspace/arm/lm3s811/TI_Stellaris/driverlib/sysctl.c ****         HWREG(g_pulRCGCRegs[SYSCTL_PERIPH_INDEX(ulPeripheral)]) &=
 12385              		.loc 1 980 0
 12386 005c 7B68     		ldr	r3, [r7, #4]
 12387 005e 4FEA1372 		lsr	r2, r3, #28
 12388 0062 114B     		ldr	r3, .L53+4
 12389 0064 53F82230 		ldr	r3, [r3, r2, lsl #2]
 12390 0068 1A46     		mov	r2, r3
 12391 006a 7B68     		ldr	r3, [r7, #4]
 12392 006c 4FEA1371 		lsr	r1, r3, #28
 12393 0070 0D4B     		ldr	r3, .L53+4
 12394 0072 53F82130 		ldr	r3, [r3, r1, lsl #2]
 12395 0076 1968     		ldr	r1, [r3, #0]
 981:/home/cuil/workspace/arm/lm3s811/TI_Stellaris/driverlib/sysctl.c ****             ~SYSCTL_PERIPH_MASK(ulPeripheral);
 12396              		.loc 1 981 0
 12397 0078 7B68     		ldr	r3, [r7, #4]
 12398 007a 4FEA0343 		lsl	r3, r3, #16
 12399 007e 4FEA1343 		lsr	r3, r3, #16
 12400 0082 7868     		ldr	r0, [r7, #4]
 12401 0084 00F4F810 		and	r0, r0, #2031616
 12402 0088 4FEA1040 		lsr	r0, r0, #16
 12403 008c 03FA00F3 		lsl	r3, r3, r0
 12404 0090 6FEA0303 		mvn	r3, r3
 980:/home/cuil/workspace/arm/lm3s811/TI_Stellaris/driverlib/sysctl.c ****         HWREG(g_pulRCGCRegs[SYSCTL_PERIPH_INDEX(ulPeripheral)]) &=
 12405              		.loc 1 980 0
 12406 0094 01EA0303 		and	r3, r1, r3
 12407 0098 1360     		str	r3, [r2, #0]
 12408              	.L50:
 982:/home/cuil/workspace/arm/lm3s811/TI_Stellaris/driverlib/sysctl.c ****     }
 983:/home/cuil/workspace/arm/lm3s811/TI_Stellaris/driverlib/sysctl.c **** }
 12409              		.loc 1 983 0
 12410 009a 07F10C07 		add	r7, r7, #12
 12411 009e BD46     		mov	sp, r7
 12412 00a0 80BC     		pop	{r7}
 12413 00a2 7047     		bx	lr
 12414              	.L54:
 12415              		.align	2
 12416              	.L53:
 12417 00a4 00E60F40 		.word	1074783744
 12418 00a8 1C000000 		.word	g_pulRCGCRegs
 12419              		.cfi_endproc
 12420              	.LFE10:
 12422              		.section	.text.SysCtlPeripheralSleepEnable,"ax",%progbits
 12423              		.align	2
 12424              		.global	SysCtlPeripheralSleepEnable
 12425              		.thumb
 12426              		.thumb_func
 12428              	SysCtlPeripheralSleepEnable:
 12429              	.LFB11:
 984:/home/cuil/workspace/arm/lm3s811/TI_Stellaris/driverlib/sysctl.c **** 
 985:/home/cuil/workspace/arm/lm3s811/TI_Stellaris/driverlib/sysctl.c **** //*****************************************************************************
 986:/home/cuil/workspace/arm/lm3s811/TI_Stellaris/driverlib/sysctl.c **** //
 987:/home/cuil/workspace/arm/lm3s811/TI_Stellaris/driverlib/sysctl.c **** //! Enables a peripheral in sleep mode.
 988:/home/cuil/workspace/arm/lm3s811/TI_Stellaris/driverlib/sysctl.c **** //!
 989:/home/cuil/workspace/arm/lm3s811/TI_Stellaris/driverlib/sysctl.c **** //! \param ulPeripheral is the peripheral to enable in sleep mode.
 990:/home/cuil/workspace/arm/lm3s811/TI_Stellaris/driverlib/sysctl.c **** //!
 991:/home/cuil/workspace/arm/lm3s811/TI_Stellaris/driverlib/sysctl.c **** //! This function allows a peripheral to continue operating when the processor
 992:/home/cuil/workspace/arm/lm3s811/TI_Stellaris/driverlib/sysctl.c **** //! goes into sleep mode.  Because the clocking configuration of the device 
 993:/home/cuil/workspace/arm/lm3s811/TI_Stellaris/driverlib/sysctl.c **** //! does not change, any peripheral can safely continue operating while the
 994:/home/cuil/workspace/arm/lm3s811/TI_Stellaris/driverlib/sysctl.c **** //! processor is in sleep mode and can therefore wake the processor from sleep
 995:/home/cuil/workspace/arm/lm3s811/TI_Stellaris/driverlib/sysctl.c **** //! mode.
 996:/home/cuil/workspace/arm/lm3s811/TI_Stellaris/driverlib/sysctl.c **** //!
 997:/home/cuil/workspace/arm/lm3s811/TI_Stellaris/driverlib/sysctl.c **** //! Sleep mode clocking of peripherals must be enabled via
 998:/home/cuil/workspace/arm/lm3s811/TI_Stellaris/driverlib/sysctl.c **** //! SysCtlPeripheralClockGating(); if disabled, the peripheral sleep mode
 999:/home/cuil/workspace/arm/lm3s811/TI_Stellaris/driverlib/sysctl.c **** //! configuration is maintained but has no effect when sleep mode is entered.
1000:/home/cuil/workspace/arm/lm3s811/TI_Stellaris/driverlib/sysctl.c **** //!
1001:/home/cuil/workspace/arm/lm3s811/TI_Stellaris/driverlib/sysctl.c **** //! The \e ulPeripheral parameter must be only one of the following values:
1002:/home/cuil/workspace/arm/lm3s811/TI_Stellaris/driverlib/sysctl.c **** //! \b SYSCTL_PERIPH_ADC0, \b SYSCTL_PERIPH_ADC1, \b SYSCTL_PERIPH_CAN0,
1003:/home/cuil/workspace/arm/lm3s811/TI_Stellaris/driverlib/sysctl.c **** //! \b SYSCTL_PERIPH_CAN1, \b SYSCTL_PERIPH_CAN2, \b SYSCTL_PERIPH_COMP0,
1004:/home/cuil/workspace/arm/lm3s811/TI_Stellaris/driverlib/sysctl.c **** //! \b SYSCTL_PERIPH_COMP1, \b SYSCTL_PERIPH_COMP2, \b SYSCTL_PERIPH_EEPROM0,
1005:/home/cuil/workspace/arm/lm3s811/TI_Stellaris/driverlib/sysctl.c **** //! \b SYSCTL_PERIPH_EPI0, \b SYSCTL_PERIPH_ETH, \b SYSCTL_PERIPH_FAN0,
1006:/home/cuil/workspace/arm/lm3s811/TI_Stellaris/driverlib/sysctl.c **** //! \b SYSCTL_PERIPH_GPIOA, \b SYSCTL_PERIPH_GPIOB, \b SYSCTL_PERIPH_GPIOC,
1007:/home/cuil/workspace/arm/lm3s811/TI_Stellaris/driverlib/sysctl.c **** //! \b SYSCTL_PERIPH_GPIOD, \b SYSCTL_PERIPH_GPIOE, \b SYSCTL_PERIPH_GPIOF,
1008:/home/cuil/workspace/arm/lm3s811/TI_Stellaris/driverlib/sysctl.c **** //! \b SYSCTL_PERIPH_GPIOG, \b SYSCTL_PERIPH_GPIOH, \b SYSCTL_PERIPH_GPIOJ,
1009:/home/cuil/workspace/arm/lm3s811/TI_Stellaris/driverlib/sysctl.c **** //! \b SYSCTL_PERIPH_GPIOK, \b SYSCTL_PERIPH_GPIOL, \b SYSCTL_PERIPH_GPIOM,
1010:/home/cuil/workspace/arm/lm3s811/TI_Stellaris/driverlib/sysctl.c **** //! \b SYSCTL_PERIPH_GPION, \b SYSCTL_PERIPH_GPIOP, \b SYSCTL_PERIPH_GPIOQ,
1011:/home/cuil/workspace/arm/lm3s811/TI_Stellaris/driverlib/sysctl.c **** //! \b SYSCTL_PERIPH_HIBERNATE, \b SYSCTL_PERIPH_I2C0, \b SYSCTL_PERIPH_I2C1,
1012:/home/cuil/workspace/arm/lm3s811/TI_Stellaris/driverlib/sysctl.c **** //! \b SYSCTL_PERIPH_I2C2, \b SYSCTL_PERIPH_I2C3, \b SYSCTL_PERIPH_I2C4,
1013:/home/cuil/workspace/arm/lm3s811/TI_Stellaris/driverlib/sysctl.c **** //! \b SYSCTL_PERIPH_I2C5, \b SYSCTL_PERIPH_I2S0, \b SYSCTL_PERIPH_LPC0,
1014:/home/cuil/workspace/arm/lm3s811/TI_Stellaris/driverlib/sysctl.c **** //! \b SYSCTL_PERIPH_PECI0, \b SYSCTL_PERIPH_PWM0, \b SYSCTL_PERIPH_PWM1,
1015:/home/cuil/workspace/arm/lm3s811/TI_Stellaris/driverlib/sysctl.c **** //! \b SYSCTL_PERIPH_QEI0, \b SYSCTL_PERIPH_QEI1, \b SYSCTL_PERIPH_SSI0,
1016:/home/cuil/workspace/arm/lm3s811/TI_Stellaris/driverlib/sysctl.c **** //! \b SYSCTL_PERIPH_SSI1, \b SYSCTL_PERIPH_SSI2, \b SYSCTL_PERIPH_SSI3,
1017:/home/cuil/workspace/arm/lm3s811/TI_Stellaris/driverlib/sysctl.c **** //! \b SYSCTL_PERIPH_TIMER0, \b SYSCTL_PERIPH_TIMER1, \b SYSCTL_PERIPH_TIMER2,
1018:/home/cuil/workspace/arm/lm3s811/TI_Stellaris/driverlib/sysctl.c **** //! \b SYSCTL_PERIPH_TIMER3, \b SYSCTL_PERIPH_TIMER4, \b SYSCTL_PERIPH_TIMER5,
1019:/home/cuil/workspace/arm/lm3s811/TI_Stellaris/driverlib/sysctl.c **** //! \b SYSCTL_PERIPH_UART0, \b SYSCTL_PERIPH_UART1, \b SYSCTL_PERIPH_UART2,
1020:/home/cuil/workspace/arm/lm3s811/TI_Stellaris/driverlib/sysctl.c **** //! \b SYSCTL_PERIPH_UART3, \b SYSCTL_PERIPH_UART4, \b SYSCTL_PERIPH_UART5,
1021:/home/cuil/workspace/arm/lm3s811/TI_Stellaris/driverlib/sysctl.c **** //! \b SYSCTL_PERIPH_UART6, \b SYSCTL_PERIPH_UART7, \b SYSCTL_PERIPH_UDMA,
1022:/home/cuil/workspace/arm/lm3s811/TI_Stellaris/driverlib/sysctl.c **** //! \b SYSCTL_PERIPH_USB0, \b SYSCTL_PERIPH_WDOG0, \b SYSCTL_PERIPH_WDOG1,
1023:/home/cuil/workspace/arm/lm3s811/TI_Stellaris/driverlib/sysctl.c **** //! \b SYSCTL_PERIPH_WTIMER0, \b SYSCTL_PERIPH_WTIMER1,
1024:/home/cuil/workspace/arm/lm3s811/TI_Stellaris/driverlib/sysctl.c **** //! \b SYSCTL_PERIPH_WTIMER2, \b SYSCTL_PERIPH_WTIMER3,
1025:/home/cuil/workspace/arm/lm3s811/TI_Stellaris/driverlib/sysctl.c **** //! \b SYSCTL_PERIPH_WTIMER4, or \b SYSCTL_PERIPH_WTIMER5.
1026:/home/cuil/workspace/arm/lm3s811/TI_Stellaris/driverlib/sysctl.c **** //!
1027:/home/cuil/workspace/arm/lm3s811/TI_Stellaris/driverlib/sysctl.c **** //! \return None.
1028:/home/cuil/workspace/arm/lm3s811/TI_Stellaris/driverlib/sysctl.c **** //
1029:/home/cuil/workspace/arm/lm3s811/TI_Stellaris/driverlib/sysctl.c **** //*****************************************************************************
1030:/home/cuil/workspace/arm/lm3s811/TI_Stellaris/driverlib/sysctl.c **** void
1031:/home/cuil/workspace/arm/lm3s811/TI_Stellaris/driverlib/sysctl.c **** SysCtlPeripheralSleepEnable(unsigned long ulPeripheral)
1032:/home/cuil/workspace/arm/lm3s811/TI_Stellaris/driverlib/sysctl.c **** {
 12430              		.loc 1 1032 0
 12431              		.cfi_startproc
 12432              		@ args = 0, pretend = 0, frame = 8
 12433              		@ frame_needed = 1, uses_anonymous_args = 0
 12434              		@ link register save eliminated.
 12435 0000 80B4     		push	{r7}
 12436              	.LCFI31:
 12437              		.cfi_def_cfa_offset 4
 12438 0002 83B0     		sub	sp, sp, #12
 12439              	.LCFI32:
 12440              		.cfi_def_cfa_offset 16
 12441 0004 00AF     		add	r7, sp, #0
 12442              		.cfi_offset 7, -4
 12443              	.LCFI33:
 12444              		.cfi_def_cfa_register 7
 12445 0006 7860     		str	r0, [r7, #4]
1033:/home/cuil/workspace/arm/lm3s811/TI_Stellaris/driverlib/sysctl.c ****     //
1034:/home/cuil/workspace/arm/lm3s811/TI_Stellaris/driverlib/sysctl.c ****     // Check the arguments.
1035:/home/cuil/workspace/arm/lm3s811/TI_Stellaris/driverlib/sysctl.c ****     //
1036:/home/cuil/workspace/arm/lm3s811/TI_Stellaris/driverlib/sysctl.c ****     ASSERT(SysCtlPeripheralValid(ulPeripheral));
1037:/home/cuil/workspace/arm/lm3s811/TI_Stellaris/driverlib/sysctl.c **** 
1038:/home/cuil/workspace/arm/lm3s811/TI_Stellaris/driverlib/sysctl.c ****     //
1039:/home/cuil/workspace/arm/lm3s811/TI_Stellaris/driverlib/sysctl.c ****     // See if the peripheral index is 15, indicating a peripheral that is
1040:/home/cuil/workspace/arm/lm3s811/TI_Stellaris/driverlib/sysctl.c ****     // accessed via the SYSCTL_SCGCperiph registers.
1041:/home/cuil/workspace/arm/lm3s811/TI_Stellaris/driverlib/sysctl.c ****     //
1042:/home/cuil/workspace/arm/lm3s811/TI_Stellaris/driverlib/sysctl.c ****     if((ulPeripheral & 0xf0000000) == 0xf0000000)
 12446              		.loc 1 1042 0
 12447 0008 7B68     		ldr	r3, [r7, #4]
 12448 000a 03F07043 		and	r3, r3, #-268435456
 12449 000e B3F1704F 		cmp	r3, #-268435456
 12450 0012 23D1     		bne	.L56
1043:/home/cuil/workspace/arm/lm3s811/TI_Stellaris/driverlib/sysctl.c ****     {
1044:/home/cuil/workspace/arm/lm3s811/TI_Stellaris/driverlib/sysctl.c ****         //
1045:/home/cuil/workspace/arm/lm3s811/TI_Stellaris/driverlib/sysctl.c ****         // Enable this peripheral in sleep mode.
1046:/home/cuil/workspace/arm/lm3s811/TI_Stellaris/driverlib/sysctl.c ****         //
1047:/home/cuil/workspace/arm/lm3s811/TI_Stellaris/driverlib/sysctl.c ****         HWREGBITW(SYSCTL_SCGCBASE + ((ulPeripheral & 0xff00) >> 8),
 12451              		.loc 1 1047 0
 12452 0014 7B68     		ldr	r3, [r7, #4]
 12453 0016 03F47F43 		and	r3, r3, #65280
 12454 001a 4FEA1322 		lsr	r2, r3, #8
 12455 001e 204B     		ldr	r3, .L58
 12456 0020 D318     		adds	r3, r2, r3
 12457 0022 03F07042 		and	r2, r3, #-268435456
 12458 0026 7B68     		ldr	r3, [r7, #4]
 12459 0028 03F47F43 		and	r3, r3, #65280
 12460 002c 4FEA1321 		lsr	r1, r3, #8
 12461 0030 1B4B     		ldr	r3, .L58
 12462 0032 CB18     		adds	r3, r1, r3
 12463 0034 23F07F43 		bic	r3, r3, #-16777216
 12464 0038 23F47003 		bic	r3, r3, #15728640
 12465 003c 4FEA4313 		lsl	r3, r3, #5
 12466 0040 1A43     		orrs	r2, r2, r3
 12467 0042 7B68     		ldr	r3, [r7, #4]
 12468 0044 03F0FF03 		and	r3, r3, #255
 12469 0048 4FEA8303 		lsl	r3, r3, #2
 12470 004c 42EA0303 		orr	r3, r2, r3
 12471 0050 43F00073 		orr	r3, r3, #33554432
1048:/home/cuil/workspace/arm/lm3s811/TI_Stellaris/driverlib/sysctl.c ****                   ulPeripheral & 0xff) = 1;
 12472              		.loc 1 1048 0
 12473 0054 4FF00102 		mov	r2, #1
 12474 0058 1A60     		str	r2, [r3, #0]
 12475 005a 1CE0     		b	.L55
 12476              	.L56:
1049:/home/cuil/workspace/arm/lm3s811/TI_Stellaris/driverlib/sysctl.c ****     }
1050:/home/cuil/workspace/arm/lm3s811/TI_Stellaris/driverlib/sysctl.c ****     else
1051:/home/cuil/workspace/arm/lm3s811/TI_Stellaris/driverlib/sysctl.c ****     {
1052:/home/cuil/workspace/arm/lm3s811/TI_Stellaris/driverlib/sysctl.c ****         //
1053:/home/cuil/workspace/arm/lm3s811/TI_Stellaris/driverlib/sysctl.c ****         // Enable this peripheral in sleep mode.
1054:/home/cuil/workspace/arm/lm3s811/TI_Stellaris/driverlib/sysctl.c ****         //
1055:/home/cuil/workspace/arm/lm3s811/TI_Stellaris/driverlib/sysctl.c ****         HWREG(g_pulSCGCRegs[SYSCTL_PERIPH_INDEX(ulPeripheral)]) |=
 12477              		.loc 1 1055 0
 12478 005c 7B68     		ldr	r3, [r7, #4]
 12479 005e 4FEA1372 		lsr	r2, r3, #28
 12480 0062 104B     		ldr	r3, .L58+4
 12481 0064 53F82230 		ldr	r3, [r3, r2, lsl #2]
 12482 0068 1A46     		mov	r2, r3
 12483 006a 7B68     		ldr	r3, [r7, #4]
 12484 006c 4FEA1371 		lsr	r1, r3, #28
 12485 0070 0C4B     		ldr	r3, .L58+4
 12486 0072 53F82130 		ldr	r3, [r3, r1, lsl #2]
 12487 0076 1968     		ldr	r1, [r3, #0]
1056:/home/cuil/workspace/arm/lm3s811/TI_Stellaris/driverlib/sysctl.c ****             SYSCTL_PERIPH_MASK(ulPeripheral);
 12488              		.loc 1 1056 0
 12489 0078 7B68     		ldr	r3, [r7, #4]
 12490 007a 4FEA0343 		lsl	r3, r3, #16
 12491 007e 4FEA1343 		lsr	r3, r3, #16
 12492 0082 7868     		ldr	r0, [r7, #4]
 12493 0084 00F4F810 		and	r0, r0, #2031616
 12494 0088 4FEA1040 		lsr	r0, r0, #16
 12495 008c 03FA00F3 		lsl	r3, r3, r0
1055:/home/cuil/workspace/arm/lm3s811/TI_Stellaris/driverlib/sysctl.c ****         HWREG(g_pulSCGCRegs[SYSCTL_PERIPH_INDEX(ulPeripheral)]) |=
 12496              		.loc 1 1055 0
 12497 0090 41EA0303 		orr	r3, r1, r3
 12498 0094 1360     		str	r3, [r2, #0]
 12499              	.L55:
1057:/home/cuil/workspace/arm/lm3s811/TI_Stellaris/driverlib/sysctl.c ****     }
1058:/home/cuil/workspace/arm/lm3s811/TI_Stellaris/driverlib/sysctl.c **** }
 12500              		.loc 1 1058 0
 12501 0096 07F10C07 		add	r7, r7, #12
 12502 009a BD46     		mov	sp, r7
 12503 009c 80BC     		pop	{r7}
 12504 009e 7047     		bx	lr
 12505              	.L59:
 12506              		.align	2
 12507              	.L58:
 12508 00a0 00E70F40 		.word	1074784000
 12509 00a4 28000000 		.word	g_pulSCGCRegs
 12510              		.cfi_endproc
 12511              	.LFE11:
 12513              		.section	.text.SysCtlPeripheralSleepDisable,"ax",%progbits
 12514              		.align	2
 12515              		.global	SysCtlPeripheralSleepDisable
 12516              		.thumb
 12517              		.thumb_func
 12519              	SysCtlPeripheralSleepDisable:
 12520              	.LFB12:
1059:/home/cuil/workspace/arm/lm3s811/TI_Stellaris/driverlib/sysctl.c **** 
1060:/home/cuil/workspace/arm/lm3s811/TI_Stellaris/driverlib/sysctl.c **** //*****************************************************************************
1061:/home/cuil/workspace/arm/lm3s811/TI_Stellaris/driverlib/sysctl.c **** //
1062:/home/cuil/workspace/arm/lm3s811/TI_Stellaris/driverlib/sysctl.c **** //! Disables a peripheral in sleep mode.
1063:/home/cuil/workspace/arm/lm3s811/TI_Stellaris/driverlib/sysctl.c **** //!
1064:/home/cuil/workspace/arm/lm3s811/TI_Stellaris/driverlib/sysctl.c **** //! \param ulPeripheral is the peripheral to disable in sleep mode.
1065:/home/cuil/workspace/arm/lm3s811/TI_Stellaris/driverlib/sysctl.c **** //!
1066:/home/cuil/workspace/arm/lm3s811/TI_Stellaris/driverlib/sysctl.c **** //! This function causes a peripheral to stop operating when the processor goes
1067:/home/cuil/workspace/arm/lm3s811/TI_Stellaris/driverlib/sysctl.c **** //! into sleep mode.  Disabling peripherals while in sleep mode helps to lower
1068:/home/cuil/workspace/arm/lm3s811/TI_Stellaris/driverlib/sysctl.c **** //! the current draw of the device.  If enabled (via SysCtlPeripheralEnable()),
1069:/home/cuil/workspace/arm/lm3s811/TI_Stellaris/driverlib/sysctl.c **** //! the peripheral automatically resumes operation when the processor
1070:/home/cuil/workspace/arm/lm3s811/TI_Stellaris/driverlib/sysctl.c **** //! leaves sleep mode, maintaining its entire state from before sleep mode was
1071:/home/cuil/workspace/arm/lm3s811/TI_Stellaris/driverlib/sysctl.c **** //! entered.
1072:/home/cuil/workspace/arm/lm3s811/TI_Stellaris/driverlib/sysctl.c **** //!
1073:/home/cuil/workspace/arm/lm3s811/TI_Stellaris/driverlib/sysctl.c **** //! Sleep mode clocking of peripherals must be enabled via
1074:/home/cuil/workspace/arm/lm3s811/TI_Stellaris/driverlib/sysctl.c **** //! SysCtlPeripheralClockGating(); if disabled, the peripheral sleep mode
1075:/home/cuil/workspace/arm/lm3s811/TI_Stellaris/driverlib/sysctl.c **** //! configuration is maintained but has no effect when sleep mode is entered.
1076:/home/cuil/workspace/arm/lm3s811/TI_Stellaris/driverlib/sysctl.c **** //!
1077:/home/cuil/workspace/arm/lm3s811/TI_Stellaris/driverlib/sysctl.c **** //! The \e ulPeripheral parameter must be only one of the following values:
1078:/home/cuil/workspace/arm/lm3s811/TI_Stellaris/driverlib/sysctl.c **** //! \b SYSCTL_PERIPH_ADC0, \b SYSCTL_PERIPH_ADC1, \b SYSCTL_PERIPH_CAN0,
1079:/home/cuil/workspace/arm/lm3s811/TI_Stellaris/driverlib/sysctl.c **** //! \b SYSCTL_PERIPH_CAN1, \b SYSCTL_PERIPH_CAN2, \b SYSCTL_PERIPH_COMP0,
1080:/home/cuil/workspace/arm/lm3s811/TI_Stellaris/driverlib/sysctl.c **** //! \b SYSCTL_PERIPH_COMP1, \b SYSCTL_PERIPH_COMP2, \b SYSCTL_PERIPH_EEPROM0,
1081:/home/cuil/workspace/arm/lm3s811/TI_Stellaris/driverlib/sysctl.c **** //! \b SYSCTL_PERIPH_EPI0, \b SYSCTL_PERIPH_ETH, \b SYSCTL_PERIPH_FAN0,
1082:/home/cuil/workspace/arm/lm3s811/TI_Stellaris/driverlib/sysctl.c **** //! \b SYSCTL_PERIPH_GPIOA, \b SYSCTL_PERIPH_GPIOB, \b SYSCTL_PERIPH_GPIOC,
1083:/home/cuil/workspace/arm/lm3s811/TI_Stellaris/driverlib/sysctl.c **** //! \b SYSCTL_PERIPH_GPIOD, \b SYSCTL_PERIPH_GPIOE, \b SYSCTL_PERIPH_GPIOF,
1084:/home/cuil/workspace/arm/lm3s811/TI_Stellaris/driverlib/sysctl.c **** //! \b SYSCTL_PERIPH_GPIOG, \b SYSCTL_PERIPH_GPIOH, \b SYSCTL_PERIPH_GPIOJ,
1085:/home/cuil/workspace/arm/lm3s811/TI_Stellaris/driverlib/sysctl.c **** //! \b SYSCTL_PERIPH_GPIOK, \b SYSCTL_PERIPH_GPIOL, \b SYSCTL_PERIPH_GPIOM,
1086:/home/cuil/workspace/arm/lm3s811/TI_Stellaris/driverlib/sysctl.c **** //! \b SYSCTL_PERIPH_GPION, \b SYSCTL_PERIPH_GPIOP, \b SYSCTL_PERIPH_GPIOQ,
1087:/home/cuil/workspace/arm/lm3s811/TI_Stellaris/driverlib/sysctl.c **** //! \b SYSCTL_PERIPH_HIBERNATE, \b SYSCTL_PERIPH_I2C0, \b SYSCTL_PERIPH_I2C1,
1088:/home/cuil/workspace/arm/lm3s811/TI_Stellaris/driverlib/sysctl.c **** //! \b SYSCTL_PERIPH_I2C2, \b SYSCTL_PERIPH_I2C3, \b SYSCTL_PERIPH_I2C4,
1089:/home/cuil/workspace/arm/lm3s811/TI_Stellaris/driverlib/sysctl.c **** //! \b SYSCTL_PERIPH_I2C5, \b SYSCTL_PERIPH_I2S0, \b SYSCTL_PERIPH_LPC0,
1090:/home/cuil/workspace/arm/lm3s811/TI_Stellaris/driverlib/sysctl.c **** //! \b SYSCTL_PERIPH_PECI0, \b SYSCTL_PERIPH_PWM0, \b SYSCTL_PERIPH_PWM1,
1091:/home/cuil/workspace/arm/lm3s811/TI_Stellaris/driverlib/sysctl.c **** //! \b SYSCTL_PERIPH_QEI0, \b SYSCTL_PERIPH_QEI1, \b SYSCTL_PERIPH_SSI0,
1092:/home/cuil/workspace/arm/lm3s811/TI_Stellaris/driverlib/sysctl.c **** //! \b SYSCTL_PERIPH_SSI1, \b SYSCTL_PERIPH_SSI2, \b SYSCTL_PERIPH_SSI3,
1093:/home/cuil/workspace/arm/lm3s811/TI_Stellaris/driverlib/sysctl.c **** //! \b SYSCTL_PERIPH_TIMER0, \b SYSCTL_PERIPH_TIMER1, \b SYSCTL_PERIPH_TIMER2,
1094:/home/cuil/workspace/arm/lm3s811/TI_Stellaris/driverlib/sysctl.c **** //! \b SYSCTL_PERIPH_TIMER3, \b SYSCTL_PERIPH_TIMER4, \b SYSCTL_PERIPH_TIMER5,
1095:/home/cuil/workspace/arm/lm3s811/TI_Stellaris/driverlib/sysctl.c **** //! \b SYSCTL_PERIPH_UART0, \b SYSCTL_PERIPH_UART1, \b SYSCTL_PERIPH_UART2,
1096:/home/cuil/workspace/arm/lm3s811/TI_Stellaris/driverlib/sysctl.c **** //! \b SYSCTL_PERIPH_UART3, \b SYSCTL_PERIPH_UART4, \b SYSCTL_PERIPH_UART5,
1097:/home/cuil/workspace/arm/lm3s811/TI_Stellaris/driverlib/sysctl.c **** //! \b SYSCTL_PERIPH_UART6, \b SYSCTL_PERIPH_UART7, \b SYSCTL_PERIPH_UDMA,
1098:/home/cuil/workspace/arm/lm3s811/TI_Stellaris/driverlib/sysctl.c **** //! \b SYSCTL_PERIPH_USB0, \b SYSCTL_PERIPH_WDOG0, \b SYSCTL_PERIPH_WDOG1,
1099:/home/cuil/workspace/arm/lm3s811/TI_Stellaris/driverlib/sysctl.c **** //! \b SYSCTL_PERIPH_WTIMER0, \b SYSCTL_PERIPH_WTIMER1,
1100:/home/cuil/workspace/arm/lm3s811/TI_Stellaris/driverlib/sysctl.c **** //! \b SYSCTL_PERIPH_WTIMER2, \b SYSCTL_PERIPH_WTIMER3,
1101:/home/cuil/workspace/arm/lm3s811/TI_Stellaris/driverlib/sysctl.c **** //! \b SYSCTL_PERIPH_WTIMER4, or \b SYSCTL_PERIPH_WTIMER5.
1102:/home/cuil/workspace/arm/lm3s811/TI_Stellaris/driverlib/sysctl.c **** //!
1103:/home/cuil/workspace/arm/lm3s811/TI_Stellaris/driverlib/sysctl.c **** //! \return None.
1104:/home/cuil/workspace/arm/lm3s811/TI_Stellaris/driverlib/sysctl.c **** //
1105:/home/cuil/workspace/arm/lm3s811/TI_Stellaris/driverlib/sysctl.c **** //*****************************************************************************
1106:/home/cuil/workspace/arm/lm3s811/TI_Stellaris/driverlib/sysctl.c **** void
1107:/home/cuil/workspace/arm/lm3s811/TI_Stellaris/driverlib/sysctl.c **** SysCtlPeripheralSleepDisable(unsigned long ulPeripheral)
1108:/home/cuil/workspace/arm/lm3s811/TI_Stellaris/driverlib/sysctl.c **** {
 12521              		.loc 1 1108 0
 12522              		.cfi_startproc
 12523              		@ args = 0, pretend = 0, frame = 8
 12524              		@ frame_needed = 1, uses_anonymous_args = 0
 12525              		@ link register save eliminated.
 12526 0000 80B4     		push	{r7}
 12527              	.LCFI34:
 12528              		.cfi_def_cfa_offset 4
 12529 0002 83B0     		sub	sp, sp, #12
 12530              	.LCFI35:
 12531              		.cfi_def_cfa_offset 16
 12532 0004 00AF     		add	r7, sp, #0
 12533              		.cfi_offset 7, -4
 12534              	.LCFI36:
 12535              		.cfi_def_cfa_register 7
 12536 0006 7860     		str	r0, [r7, #4]
1109:/home/cuil/workspace/arm/lm3s811/TI_Stellaris/driverlib/sysctl.c ****     //
1110:/home/cuil/workspace/arm/lm3s811/TI_Stellaris/driverlib/sysctl.c ****     // Check the arguments.
1111:/home/cuil/workspace/arm/lm3s811/TI_Stellaris/driverlib/sysctl.c ****     //
1112:/home/cuil/workspace/arm/lm3s811/TI_Stellaris/driverlib/sysctl.c ****     ASSERT(SysCtlPeripheralValid(ulPeripheral));
1113:/home/cuil/workspace/arm/lm3s811/TI_Stellaris/driverlib/sysctl.c **** 
1114:/home/cuil/workspace/arm/lm3s811/TI_Stellaris/driverlib/sysctl.c ****     //
1115:/home/cuil/workspace/arm/lm3s811/TI_Stellaris/driverlib/sysctl.c ****     // See if the peripheral index is 15, indicating a peripheral that is
1116:/home/cuil/workspace/arm/lm3s811/TI_Stellaris/driverlib/sysctl.c ****     // accessed via the SYSCTL_SCGCperiph registers.
1117:/home/cuil/workspace/arm/lm3s811/TI_Stellaris/driverlib/sysctl.c ****     //
1118:/home/cuil/workspace/arm/lm3s811/TI_Stellaris/driverlib/sysctl.c ****     if((ulPeripheral & 0xf0000000) == 0xf0000000)
 12537              		.loc 1 1118 0
 12538 0008 7B68     		ldr	r3, [r7, #4]
 12539 000a 03F07043 		and	r3, r3, #-268435456
 12540 000e B3F1704F 		cmp	r3, #-268435456
 12541 0012 23D1     		bne	.L61
1119:/home/cuil/workspace/arm/lm3s811/TI_Stellaris/driverlib/sysctl.c ****     {
1120:/home/cuil/workspace/arm/lm3s811/TI_Stellaris/driverlib/sysctl.c ****         //
1121:/home/cuil/workspace/arm/lm3s811/TI_Stellaris/driverlib/sysctl.c ****         // Disable this peripheral in sleep mode.
1122:/home/cuil/workspace/arm/lm3s811/TI_Stellaris/driverlib/sysctl.c ****         //
1123:/home/cuil/workspace/arm/lm3s811/TI_Stellaris/driverlib/sysctl.c ****         HWREGBITW(SYSCTL_SCGCBASE + ((ulPeripheral & 0xff00) >> 8),
 12542              		.loc 1 1123 0
 12543 0014 7B68     		ldr	r3, [r7, #4]
 12544 0016 03F47F43 		and	r3, r3, #65280
 12545 001a 4FEA1322 		lsr	r2, r3, #8
 12546 001e 214B     		ldr	r3, .L63
 12547 0020 D318     		adds	r3, r2, r3
 12548 0022 03F07042 		and	r2, r3, #-268435456
 12549 0026 7B68     		ldr	r3, [r7, #4]
 12550 0028 03F47F43 		and	r3, r3, #65280
 12551 002c 4FEA1321 		lsr	r1, r3, #8
 12552 0030 1C4B     		ldr	r3, .L63
 12553 0032 CB18     		adds	r3, r1, r3
 12554 0034 23F07F43 		bic	r3, r3, #-16777216
 12555 0038 23F47003 		bic	r3, r3, #15728640
 12556 003c 4FEA4313 		lsl	r3, r3, #5
 12557 0040 1A43     		orrs	r2, r2, r3
 12558 0042 7B68     		ldr	r3, [r7, #4]
 12559 0044 03F0FF03 		and	r3, r3, #255
 12560 0048 4FEA8303 		lsl	r3, r3, #2
 12561 004c 42EA0303 		orr	r3, r2, r3
 12562 0050 43F00073 		orr	r3, r3, #33554432
1124:/home/cuil/workspace/arm/lm3s811/TI_Stellaris/driverlib/sysctl.c ****                   ulPeripheral & 0xff) = 0;
 12563              		.loc 1 1124 0
 12564 0054 4FF00002 		mov	r2, #0
 12565 0058 1A60     		str	r2, [r3, #0]
 12566 005a 1EE0     		b	.L60
 12567              	.L61:
1125:/home/cuil/workspace/arm/lm3s811/TI_Stellaris/driverlib/sysctl.c ****     }
1126:/home/cuil/workspace/arm/lm3s811/TI_Stellaris/driverlib/sysctl.c ****     else
1127:/home/cuil/workspace/arm/lm3s811/TI_Stellaris/driverlib/sysctl.c ****     {
1128:/home/cuil/workspace/arm/lm3s811/TI_Stellaris/driverlib/sysctl.c ****         //
1129:/home/cuil/workspace/arm/lm3s811/TI_Stellaris/driverlib/sysctl.c ****         // Disable this peripheral in sleep mode.
1130:/home/cuil/workspace/arm/lm3s811/TI_Stellaris/driverlib/sysctl.c ****         //
1131:/home/cuil/workspace/arm/lm3s811/TI_Stellaris/driverlib/sysctl.c ****         HWREG(g_pulSCGCRegs[SYSCTL_PERIPH_INDEX(ulPeripheral)]) &=
 12568              		.loc 1 1131 0
 12569 005c 7B68     		ldr	r3, [r7, #4]
 12570 005e 4FEA1372 		lsr	r2, r3, #28
 12571 0062 114B     		ldr	r3, .L63+4
 12572 0064 53F82230 		ldr	r3, [r3, r2, lsl #2]
 12573 0068 1A46     		mov	r2, r3
 12574 006a 7B68     		ldr	r3, [r7, #4]
 12575 006c 4FEA1371 		lsr	r1, r3, #28
 12576 0070 0D4B     		ldr	r3, .L63+4
 12577 0072 53F82130 		ldr	r3, [r3, r1, lsl #2]
 12578 0076 1968     		ldr	r1, [r3, #0]
1132:/home/cuil/workspace/arm/lm3s811/TI_Stellaris/driverlib/sysctl.c ****             ~SYSCTL_PERIPH_MASK(ulPeripheral);
 12579              		.loc 1 1132 0
 12580 0078 7B68     		ldr	r3, [r7, #4]
 12581 007a 4FEA0343 		lsl	r3, r3, #16
 12582 007e 4FEA1343 		lsr	r3, r3, #16
 12583 0082 7868     		ldr	r0, [r7, #4]
 12584 0084 00F4F810 		and	r0, r0, #2031616
 12585 0088 4FEA1040 		lsr	r0, r0, #16
 12586 008c 03FA00F3 		lsl	r3, r3, r0
 12587 0090 6FEA0303 		mvn	r3, r3
1131:/home/cuil/workspace/arm/lm3s811/TI_Stellaris/driverlib/sysctl.c ****         HWREG(g_pulSCGCRegs[SYSCTL_PERIPH_INDEX(ulPeripheral)]) &=
 12588              		.loc 1 1131 0
 12589 0094 01EA0303 		and	r3, r1, r3
 12590 0098 1360     		str	r3, [r2, #0]
 12591              	.L60:
1133:/home/cuil/workspace/arm/lm3s811/TI_Stellaris/driverlib/sysctl.c ****     }
1134:/home/cuil/workspace/arm/lm3s811/TI_Stellaris/driverlib/sysctl.c **** }
 12592              		.loc 1 1134 0
 12593 009a 07F10C07 		add	r7, r7, #12
 12594 009e BD46     		mov	sp, r7
 12595 00a0 80BC     		pop	{r7}
 12596 00a2 7047     		bx	lr
 12597              	.L64:
 12598              		.align	2
 12599              	.L63:
 12600 00a4 00E70F40 		.word	1074784000
 12601 00a8 28000000 		.word	g_pulSCGCRegs
 12602              		.cfi_endproc
 12603              	.LFE12:
 12605              		.section	.text.SysCtlPeripheralDeepSleepEnable,"ax",%progbits
 12606              		.align	2
 12607              		.global	SysCtlPeripheralDeepSleepEnable
 12608              		.thumb
 12609              		.thumb_func
 12611              	SysCtlPeripheralDeepSleepEnable:
 12612              	.LFB13:
1135:/home/cuil/workspace/arm/lm3s811/TI_Stellaris/driverlib/sysctl.c **** 
1136:/home/cuil/workspace/arm/lm3s811/TI_Stellaris/driverlib/sysctl.c **** //*****************************************************************************
1137:/home/cuil/workspace/arm/lm3s811/TI_Stellaris/driverlib/sysctl.c **** //
1138:/home/cuil/workspace/arm/lm3s811/TI_Stellaris/driverlib/sysctl.c **** //! Enables a peripheral in deep-sleep mode.
1139:/home/cuil/workspace/arm/lm3s811/TI_Stellaris/driverlib/sysctl.c **** //!
1140:/home/cuil/workspace/arm/lm3s811/TI_Stellaris/driverlib/sysctl.c **** //! \param ulPeripheral is the peripheral to enable in deep-sleep mode.
1141:/home/cuil/workspace/arm/lm3s811/TI_Stellaris/driverlib/sysctl.c **** //!
1142:/home/cuil/workspace/arm/lm3s811/TI_Stellaris/driverlib/sysctl.c **** //! This function allows a peripheral to continue operating when the processor
1143:/home/cuil/workspace/arm/lm3s811/TI_Stellaris/driverlib/sysctl.c **** //! goes into deep-sleep mode.  Because the clocking configuration of the 
1144:/home/cuil/workspace/arm/lm3s811/TI_Stellaris/driverlib/sysctl.c **** //! device may change, not all peripherals can safely continue operating while 
1145:/home/cuil/workspace/arm/lm3s811/TI_Stellaris/driverlib/sysctl.c **** //! the processor is in sleep mode.  Those that must run at a particular 
1146:/home/cuil/workspace/arm/lm3s811/TI_Stellaris/driverlib/sysctl.c **** //! frequency (such as a UART) do not work as expected if the clock changes.  
1147:/home/cuil/workspace/arm/lm3s811/TI_Stellaris/driverlib/sysctl.c **** //! It is the responsibility of the caller to make sensible choices.
1148:/home/cuil/workspace/arm/lm3s811/TI_Stellaris/driverlib/sysctl.c **** //!
1149:/home/cuil/workspace/arm/lm3s811/TI_Stellaris/driverlib/sysctl.c **** //! Deep-sleep mode clocking of peripherals must be enabled via
1150:/home/cuil/workspace/arm/lm3s811/TI_Stellaris/driverlib/sysctl.c **** //! SysCtlPeripheralClockGating(); if disabled, the peripheral deep-sleep mode
1151:/home/cuil/workspace/arm/lm3s811/TI_Stellaris/driverlib/sysctl.c **** //! configuration is maintained but has no effect when deep-sleep mode is
1152:/home/cuil/workspace/arm/lm3s811/TI_Stellaris/driverlib/sysctl.c **** //! entered.
1153:/home/cuil/workspace/arm/lm3s811/TI_Stellaris/driverlib/sysctl.c **** //!
1154:/home/cuil/workspace/arm/lm3s811/TI_Stellaris/driverlib/sysctl.c **** //! The \e ulPeripheral parameter must be only one of the following values:
1155:/home/cuil/workspace/arm/lm3s811/TI_Stellaris/driverlib/sysctl.c **** //! \b SYSCTL_PERIPH_ADC0, \b SYSCTL_PERIPH_ADC1, \b SYSCTL_PERIPH_CAN0,
1156:/home/cuil/workspace/arm/lm3s811/TI_Stellaris/driverlib/sysctl.c **** //! \b SYSCTL_PERIPH_CAN1, \b SYSCTL_PERIPH_CAN2, \b SYSCTL_PERIPH_COMP0,
1157:/home/cuil/workspace/arm/lm3s811/TI_Stellaris/driverlib/sysctl.c **** //! \b SYSCTL_PERIPH_COMP1, \b SYSCTL_PERIPH_COMP2, \b SYSCTL_PERIPH_EEPROM0,
1158:/home/cuil/workspace/arm/lm3s811/TI_Stellaris/driverlib/sysctl.c **** //! \b SYSCTL_PERIPH_EPI0, \b SYSCTL_PERIPH_ETH, \b SYSCTL_PERIPH_FAN0,
1159:/home/cuil/workspace/arm/lm3s811/TI_Stellaris/driverlib/sysctl.c **** //! \b SYSCTL_PERIPH_GPIOA, \b SYSCTL_PERIPH_GPIOB, \b SYSCTL_PERIPH_GPIOC,
1160:/home/cuil/workspace/arm/lm3s811/TI_Stellaris/driverlib/sysctl.c **** //! \b SYSCTL_PERIPH_GPIOD, \b SYSCTL_PERIPH_GPIOE, \b SYSCTL_PERIPH_GPIOF,
1161:/home/cuil/workspace/arm/lm3s811/TI_Stellaris/driverlib/sysctl.c **** //! \b SYSCTL_PERIPH_GPIOG, \b SYSCTL_PERIPH_GPIOH, \b SYSCTL_PERIPH_GPIOJ,
1162:/home/cuil/workspace/arm/lm3s811/TI_Stellaris/driverlib/sysctl.c **** //! \b SYSCTL_PERIPH_GPIOK, \b SYSCTL_PERIPH_GPIOL, \b SYSCTL_PERIPH_GPIOM,
1163:/home/cuil/workspace/arm/lm3s811/TI_Stellaris/driverlib/sysctl.c **** //! \b SYSCTL_PERIPH_GPION, \b SYSCTL_PERIPH_GPIOP, \b SYSCTL_PERIPH_GPIOQ,
1164:/home/cuil/workspace/arm/lm3s811/TI_Stellaris/driverlib/sysctl.c **** //! \b SYSCTL_PERIPH_HIBERNATE, \b SYSCTL_PERIPH_I2C0, \b SYSCTL_PERIPH_I2C1,
1165:/home/cuil/workspace/arm/lm3s811/TI_Stellaris/driverlib/sysctl.c **** //! \b SYSCTL_PERIPH_I2C2, \b SYSCTL_PERIPH_I2C3, \b SYSCTL_PERIPH_I2C4,
1166:/home/cuil/workspace/arm/lm3s811/TI_Stellaris/driverlib/sysctl.c **** //! \b SYSCTL_PERIPH_I2C5, \b SYSCTL_PERIPH_I2S0, \b SYSCTL_PERIPH_LPC0,
1167:/home/cuil/workspace/arm/lm3s811/TI_Stellaris/driverlib/sysctl.c **** //! \b SYSCTL_PERIPH_PECI0, \b SYSCTL_PERIPH_PWM0, \b SYSCTL_PERIPH_PWM1,
1168:/home/cuil/workspace/arm/lm3s811/TI_Stellaris/driverlib/sysctl.c **** //! \b SYSCTL_PERIPH_QEI0, \b SYSCTL_PERIPH_QEI1, \b SYSCTL_PERIPH_SSI0,
1169:/home/cuil/workspace/arm/lm3s811/TI_Stellaris/driverlib/sysctl.c **** //! \b SYSCTL_PERIPH_SSI1, \b SYSCTL_PERIPH_SSI2, \b SYSCTL_PERIPH_SSI3,
1170:/home/cuil/workspace/arm/lm3s811/TI_Stellaris/driverlib/sysctl.c **** //! \b SYSCTL_PERIPH_TIMER0, \b SYSCTL_PERIPH_TIMER1, \b SYSCTL_PERIPH_TIMER2,
1171:/home/cuil/workspace/arm/lm3s811/TI_Stellaris/driverlib/sysctl.c **** //! \b SYSCTL_PERIPH_TIMER3, \b SYSCTL_PERIPH_TIMER4, \b SYSCTL_PERIPH_TIMER5,
1172:/home/cuil/workspace/arm/lm3s811/TI_Stellaris/driverlib/sysctl.c **** //! \b SYSCTL_PERIPH_UART0, \b SYSCTL_PERIPH_UART1, \b SYSCTL_PERIPH_UART2,
1173:/home/cuil/workspace/arm/lm3s811/TI_Stellaris/driverlib/sysctl.c **** //! \b SYSCTL_PERIPH_UART3, \b SYSCTL_PERIPH_UART4, \b SYSCTL_PERIPH_UART5,
1174:/home/cuil/workspace/arm/lm3s811/TI_Stellaris/driverlib/sysctl.c **** //! \b SYSCTL_PERIPH_UART6, \b SYSCTL_PERIPH_UART7, \b SYSCTL_PERIPH_UDMA,
1175:/home/cuil/workspace/arm/lm3s811/TI_Stellaris/driverlib/sysctl.c **** //! \b SYSCTL_PERIPH_USB0, \b SYSCTL_PERIPH_WDOG0, \b SYSCTL_PERIPH_WDOG1,
1176:/home/cuil/workspace/arm/lm3s811/TI_Stellaris/driverlib/sysctl.c **** //! \b SYSCTL_PERIPH_WTIMER0, \b SYSCTL_PERIPH_WTIMER1,
1177:/home/cuil/workspace/arm/lm3s811/TI_Stellaris/driverlib/sysctl.c **** //! \b SYSCTL_PERIPH_WTIMER2, \b SYSCTL_PERIPH_WTIMER3,
1178:/home/cuil/workspace/arm/lm3s811/TI_Stellaris/driverlib/sysctl.c **** //! \b SYSCTL_PERIPH_WTIMER4, or \b SYSCTL_PERIPH_WTIMER5.
1179:/home/cuil/workspace/arm/lm3s811/TI_Stellaris/driverlib/sysctl.c **** //!
1180:/home/cuil/workspace/arm/lm3s811/TI_Stellaris/driverlib/sysctl.c **** //! \return None.
1181:/home/cuil/workspace/arm/lm3s811/TI_Stellaris/driverlib/sysctl.c **** //
1182:/home/cuil/workspace/arm/lm3s811/TI_Stellaris/driverlib/sysctl.c **** //*****************************************************************************
1183:/home/cuil/workspace/arm/lm3s811/TI_Stellaris/driverlib/sysctl.c **** void
1184:/home/cuil/workspace/arm/lm3s811/TI_Stellaris/driverlib/sysctl.c **** SysCtlPeripheralDeepSleepEnable(unsigned long ulPeripheral)
1185:/home/cuil/workspace/arm/lm3s811/TI_Stellaris/driverlib/sysctl.c **** {
 12613              		.loc 1 1185 0
 12614              		.cfi_startproc
 12615              		@ args = 0, pretend = 0, frame = 8
 12616              		@ frame_needed = 1, uses_anonymous_args = 0
 12617              		@ link register save eliminated.
 12618 0000 80B4     		push	{r7}
 12619              	.LCFI37:
 12620              		.cfi_def_cfa_offset 4
 12621 0002 83B0     		sub	sp, sp, #12
 12622              	.LCFI38:
 12623              		.cfi_def_cfa_offset 16
 12624 0004 00AF     		add	r7, sp, #0
 12625              		.cfi_offset 7, -4
 12626              	.LCFI39:
 12627              		.cfi_def_cfa_register 7
 12628 0006 7860     		str	r0, [r7, #4]
1186:/home/cuil/workspace/arm/lm3s811/TI_Stellaris/driverlib/sysctl.c ****     //
1187:/home/cuil/workspace/arm/lm3s811/TI_Stellaris/driverlib/sysctl.c ****     // Check the arguments.
1188:/home/cuil/workspace/arm/lm3s811/TI_Stellaris/driverlib/sysctl.c ****     //
1189:/home/cuil/workspace/arm/lm3s811/TI_Stellaris/driverlib/sysctl.c ****     ASSERT(SysCtlPeripheralValid(ulPeripheral));
1190:/home/cuil/workspace/arm/lm3s811/TI_Stellaris/driverlib/sysctl.c **** 
1191:/home/cuil/workspace/arm/lm3s811/TI_Stellaris/driverlib/sysctl.c ****     //
1192:/home/cuil/workspace/arm/lm3s811/TI_Stellaris/driverlib/sysctl.c ****     // See if the peripheral index is 15, indicating a peripheral that is
1193:/home/cuil/workspace/arm/lm3s811/TI_Stellaris/driverlib/sysctl.c ****     // accessed via the SYSCTL_DCGCperiph registers.
1194:/home/cuil/workspace/arm/lm3s811/TI_Stellaris/driverlib/sysctl.c ****     //
1195:/home/cuil/workspace/arm/lm3s811/TI_Stellaris/driverlib/sysctl.c ****     if((ulPeripheral & 0xf0000000) == 0xf0000000)
 12629              		.loc 1 1195 0
 12630 0008 7B68     		ldr	r3, [r7, #4]
 12631 000a 03F07043 		and	r3, r3, #-268435456
 12632 000e B3F1704F 		cmp	r3, #-268435456
 12633 0012 23D1     		bne	.L66
1196:/home/cuil/workspace/arm/lm3s811/TI_Stellaris/driverlib/sysctl.c ****     {
1197:/home/cuil/workspace/arm/lm3s811/TI_Stellaris/driverlib/sysctl.c ****         //
1198:/home/cuil/workspace/arm/lm3s811/TI_Stellaris/driverlib/sysctl.c ****         // Enable this peripheral in deep-sleep mode.
1199:/home/cuil/workspace/arm/lm3s811/TI_Stellaris/driverlib/sysctl.c ****         //
1200:/home/cuil/workspace/arm/lm3s811/TI_Stellaris/driverlib/sysctl.c ****         HWREGBITW(SYSCTL_DCGCBASE + ((ulPeripheral & 0xff00) >> 8),
 12634              		.loc 1 1200 0
 12635 0014 7B68     		ldr	r3, [r7, #4]
 12636 0016 03F47F43 		and	r3, r3, #65280
 12637 001a 4FEA1322 		lsr	r2, r3, #8
 12638 001e 204B     		ldr	r3, .L68
 12639 0020 D318     		adds	r3, r2, r3
 12640 0022 03F07042 		and	r2, r3, #-268435456
 12641 0026 7B68     		ldr	r3, [r7, #4]
 12642 0028 03F47F43 		and	r3, r3, #65280
 12643 002c 4FEA1321 		lsr	r1, r3, #8
 12644 0030 1B4B     		ldr	r3, .L68
 12645 0032 CB18     		adds	r3, r1, r3
 12646 0034 23F07F43 		bic	r3, r3, #-16777216
 12647 0038 23F47003 		bic	r3, r3, #15728640
 12648 003c 4FEA4313 		lsl	r3, r3, #5
 12649 0040 1A43     		orrs	r2, r2, r3
 12650 0042 7B68     		ldr	r3, [r7, #4]
 12651 0044 03F0FF03 		and	r3, r3, #255
 12652 0048 4FEA8303 		lsl	r3, r3, #2
 12653 004c 42EA0303 		orr	r3, r2, r3
 12654 0050 43F00073 		orr	r3, r3, #33554432
1201:/home/cuil/workspace/arm/lm3s811/TI_Stellaris/driverlib/sysctl.c ****                   ulPeripheral & 0xff) = 1;
 12655              		.loc 1 1201 0
 12656 0054 4FF00102 		mov	r2, #1
 12657 0058 1A60     		str	r2, [r3, #0]
 12658 005a 1CE0     		b	.L65
 12659              	.L66:
1202:/home/cuil/workspace/arm/lm3s811/TI_Stellaris/driverlib/sysctl.c ****     }
1203:/home/cuil/workspace/arm/lm3s811/TI_Stellaris/driverlib/sysctl.c ****     else
1204:/home/cuil/workspace/arm/lm3s811/TI_Stellaris/driverlib/sysctl.c ****     {
1205:/home/cuil/workspace/arm/lm3s811/TI_Stellaris/driverlib/sysctl.c ****         //
1206:/home/cuil/workspace/arm/lm3s811/TI_Stellaris/driverlib/sysctl.c ****         // Enable this peripheral in deep-sleep mode.
1207:/home/cuil/workspace/arm/lm3s811/TI_Stellaris/driverlib/sysctl.c ****         //
1208:/home/cuil/workspace/arm/lm3s811/TI_Stellaris/driverlib/sysctl.c ****         HWREG(g_pulDCGCRegs[SYSCTL_PERIPH_INDEX(ulPeripheral)]) |=
 12660              		.loc 1 1208 0
 12661 005c 7B68     		ldr	r3, [r7, #4]
 12662 005e 4FEA1372 		lsr	r2, r3, #28
 12663 0062 104B     		ldr	r3, .L68+4
 12664 0064 53F82230 		ldr	r3, [r3, r2, lsl #2]
 12665 0068 1A46     		mov	r2, r3
 12666 006a 7B68     		ldr	r3, [r7, #4]
 12667 006c 4FEA1371 		lsr	r1, r3, #28
 12668 0070 0C4B     		ldr	r3, .L68+4
 12669 0072 53F82130 		ldr	r3, [r3, r1, lsl #2]
 12670 0076 1968     		ldr	r1, [r3, #0]
1209:/home/cuil/workspace/arm/lm3s811/TI_Stellaris/driverlib/sysctl.c ****             SYSCTL_PERIPH_MASK(ulPeripheral);
 12671              		.loc 1 1209 0
 12672 0078 7B68     		ldr	r3, [r7, #4]
 12673 007a 4FEA0343 		lsl	r3, r3, #16
 12674 007e 4FEA1343 		lsr	r3, r3, #16
 12675 0082 7868     		ldr	r0, [r7, #4]
 12676 0084 00F4F810 		and	r0, r0, #2031616
 12677 0088 4FEA1040 		lsr	r0, r0, #16
 12678 008c 03FA00F3 		lsl	r3, r3, r0
1208:/home/cuil/workspace/arm/lm3s811/TI_Stellaris/driverlib/sysctl.c ****         HWREG(g_pulDCGCRegs[SYSCTL_PERIPH_INDEX(ulPeripheral)]) |=
 12679              		.loc 1 1208 0
 12680 0090 41EA0303 		orr	r3, r1, r3
 12681 0094 1360     		str	r3, [r2, #0]
 12682              	.L65:
1210:/home/cuil/workspace/arm/lm3s811/TI_Stellaris/driverlib/sysctl.c ****     }
1211:/home/cuil/workspace/arm/lm3s811/TI_Stellaris/driverlib/sysctl.c **** }
 12683              		.loc 1 1211 0
 12684 0096 07F10C07 		add	r7, r7, #12
 12685 009a BD46     		mov	sp, r7
 12686 009c 80BC     		pop	{r7}
 12687 009e 7047     		bx	lr
 12688              	.L69:
 12689              		.align	2
 12690              	.L68:
 12691 00a0 00E80F40 		.word	1074784256
 12692 00a4 34000000 		.word	g_pulDCGCRegs
 12693              		.cfi_endproc
 12694              	.LFE13:
 12696              		.section	.text.SysCtlPeripheralDeepSleepDisable,"ax",%progbits
 12697              		.align	2
 12698              		.global	SysCtlPeripheralDeepSleepDisable
 12699              		.thumb
 12700              		.thumb_func
 12702              	SysCtlPeripheralDeepSleepDisable:
 12703              	.LFB14:
1212:/home/cuil/workspace/arm/lm3s811/TI_Stellaris/driverlib/sysctl.c **** 
1213:/home/cuil/workspace/arm/lm3s811/TI_Stellaris/driverlib/sysctl.c **** //*****************************************************************************
1214:/home/cuil/workspace/arm/lm3s811/TI_Stellaris/driverlib/sysctl.c **** //
1215:/home/cuil/workspace/arm/lm3s811/TI_Stellaris/driverlib/sysctl.c **** //! Disables a peripheral in deep-sleep mode.
1216:/home/cuil/workspace/arm/lm3s811/TI_Stellaris/driverlib/sysctl.c **** //!
1217:/home/cuil/workspace/arm/lm3s811/TI_Stellaris/driverlib/sysctl.c **** //! \param ulPeripheral is the peripheral to disable in deep-sleep mode.
1218:/home/cuil/workspace/arm/lm3s811/TI_Stellaris/driverlib/sysctl.c **** //!
1219:/home/cuil/workspace/arm/lm3s811/TI_Stellaris/driverlib/sysctl.c **** //! This function causes a peripheral to stop operating when the processor goes
1220:/home/cuil/workspace/arm/lm3s811/TI_Stellaris/driverlib/sysctl.c **** //! into deep-sleep mode.  Disabling peripherals while in deep-sleep mode helps
1221:/home/cuil/workspace/arm/lm3s811/TI_Stellaris/driverlib/sysctl.c **** //! to lower the current draw of the device, and can keep peripherals that
1222:/home/cuil/workspace/arm/lm3s811/TI_Stellaris/driverlib/sysctl.c **** //! require a particular clock frequency from operating when the clock changes
1223:/home/cuil/workspace/arm/lm3s811/TI_Stellaris/driverlib/sysctl.c **** //! as a result of entering deep-sleep mode.  If enabled (via
1224:/home/cuil/workspace/arm/lm3s811/TI_Stellaris/driverlib/sysctl.c **** //! SysCtlPeripheralEnable()), the peripheral automatically resumes
1225:/home/cuil/workspace/arm/lm3s811/TI_Stellaris/driverlib/sysctl.c **** //! operation when the processor leaves deep-sleep mode, maintaining its entire
1226:/home/cuil/workspace/arm/lm3s811/TI_Stellaris/driverlib/sysctl.c **** //! state from before deep-sleep mode was entered.
1227:/home/cuil/workspace/arm/lm3s811/TI_Stellaris/driverlib/sysctl.c **** //!
1228:/home/cuil/workspace/arm/lm3s811/TI_Stellaris/driverlib/sysctl.c **** //! Deep-sleep mode clocking of peripherals must be enabled via
1229:/home/cuil/workspace/arm/lm3s811/TI_Stellaris/driverlib/sysctl.c **** //! SysCtlPeripheralClockGating(); if disabled, the peripheral deep-sleep mode
1230:/home/cuil/workspace/arm/lm3s811/TI_Stellaris/driverlib/sysctl.c **** //! configuration is maintained but has no effect when deep-sleep mode is
1231:/home/cuil/workspace/arm/lm3s811/TI_Stellaris/driverlib/sysctl.c **** //! entered.
1232:/home/cuil/workspace/arm/lm3s811/TI_Stellaris/driverlib/sysctl.c **** //!
1233:/home/cuil/workspace/arm/lm3s811/TI_Stellaris/driverlib/sysctl.c **** //! The \e ulPeripheral parameter must be only one of the following values:
1234:/home/cuil/workspace/arm/lm3s811/TI_Stellaris/driverlib/sysctl.c **** //! \b SYSCTL_PERIPH_ADC0, \b SYSCTL_PERIPH_ADC1, \b SYSCTL_PERIPH_CAN0,
1235:/home/cuil/workspace/arm/lm3s811/TI_Stellaris/driverlib/sysctl.c **** //! \b SYSCTL_PERIPH_CAN1, \b SYSCTL_PERIPH_CAN2, \b SYSCTL_PERIPH_COMP0,
1236:/home/cuil/workspace/arm/lm3s811/TI_Stellaris/driverlib/sysctl.c **** //! \b SYSCTL_PERIPH_COMP1, \b SYSCTL_PERIPH_COMP2, \b SYSCTL_PERIPH_EEPROM0,
1237:/home/cuil/workspace/arm/lm3s811/TI_Stellaris/driverlib/sysctl.c **** //! \b SYSCTL_PERIPH_EPI0, \b SYSCTL_PERIPH_ETH, \b SYSCTL_PERIPH_FAN0,
1238:/home/cuil/workspace/arm/lm3s811/TI_Stellaris/driverlib/sysctl.c **** //! \b SYSCTL_PERIPH_GPIOA, \b SYSCTL_PERIPH_GPIOB, \b SYSCTL_PERIPH_GPIOC,
1239:/home/cuil/workspace/arm/lm3s811/TI_Stellaris/driverlib/sysctl.c **** //! \b SYSCTL_PERIPH_GPIOD, \b SYSCTL_PERIPH_GPIOE, \b SYSCTL_PERIPH_GPIOF,
1240:/home/cuil/workspace/arm/lm3s811/TI_Stellaris/driverlib/sysctl.c **** //! \b SYSCTL_PERIPH_GPIOG, \b SYSCTL_PERIPH_GPIOH, \b SYSCTL_PERIPH_GPIOJ,
1241:/home/cuil/workspace/arm/lm3s811/TI_Stellaris/driverlib/sysctl.c **** //! \b SYSCTL_PERIPH_GPIOK, \b SYSCTL_PERIPH_GPIOL, \b SYSCTL_PERIPH_GPIOM,
1242:/home/cuil/workspace/arm/lm3s811/TI_Stellaris/driverlib/sysctl.c **** //! \b SYSCTL_PERIPH_GPION, \b SYSCTL_PERIPH_GPIOP, \b SYSCTL_PERIPH_GPIOQ,
1243:/home/cuil/workspace/arm/lm3s811/TI_Stellaris/driverlib/sysctl.c **** //! \b SYSCTL_PERIPH_HIBERNATE, \b SYSCTL_PERIPH_I2C0, \b SYSCTL_PERIPH_I2C1,
1244:/home/cuil/workspace/arm/lm3s811/TI_Stellaris/driverlib/sysctl.c **** //! \b SYSCTL_PERIPH_I2C2, \b SYSCTL_PERIPH_I2C3, \b SYSCTL_PERIPH_I2C4,
1245:/home/cuil/workspace/arm/lm3s811/TI_Stellaris/driverlib/sysctl.c **** //! \b SYSCTL_PERIPH_I2C5, \b SYSCTL_PERIPH_I2S0, \b SYSCTL_PERIPH_LPC0,
1246:/home/cuil/workspace/arm/lm3s811/TI_Stellaris/driverlib/sysctl.c **** //! \b SYSCTL_PERIPH_PECI0, \b SYSCTL_PERIPH_PWM0, \b SYSCTL_PERIPH_PWM1,
1247:/home/cuil/workspace/arm/lm3s811/TI_Stellaris/driverlib/sysctl.c **** //! \b SYSCTL_PERIPH_QEI0, \b SYSCTL_PERIPH_QEI1, \b SYSCTL_PERIPH_SSI0,
1248:/home/cuil/workspace/arm/lm3s811/TI_Stellaris/driverlib/sysctl.c **** //! \b SYSCTL_PERIPH_SSI1, \b SYSCTL_PERIPH_SSI2, \b SYSCTL_PERIPH_SSI3,
1249:/home/cuil/workspace/arm/lm3s811/TI_Stellaris/driverlib/sysctl.c **** //! \b SYSCTL_PERIPH_TIMER0, \b SYSCTL_PERIPH_TIMER1, \b SYSCTL_PERIPH_TIMER2,
1250:/home/cuil/workspace/arm/lm3s811/TI_Stellaris/driverlib/sysctl.c **** //! \b SYSCTL_PERIPH_TIMER3, \b SYSCTL_PERIPH_TIMER4, \b SYSCTL_PERIPH_TIMER5,
1251:/home/cuil/workspace/arm/lm3s811/TI_Stellaris/driverlib/sysctl.c **** //! \b SYSCTL_PERIPH_UART0, \b SYSCTL_PERIPH_UART1, \b SYSCTL_PERIPH_UART2,
1252:/home/cuil/workspace/arm/lm3s811/TI_Stellaris/driverlib/sysctl.c **** //! \b SYSCTL_PERIPH_UART3, \b SYSCTL_PERIPH_UART4, \b SYSCTL_PERIPH_UART5,
1253:/home/cuil/workspace/arm/lm3s811/TI_Stellaris/driverlib/sysctl.c **** //! \b SYSCTL_PERIPH_UART6, \b SYSCTL_PERIPH_UART7, \b SYSCTL_PERIPH_UDMA,
1254:/home/cuil/workspace/arm/lm3s811/TI_Stellaris/driverlib/sysctl.c **** //! \b SYSCTL_PERIPH_USB0, \b SYSCTL_PERIPH_WDOG0, \b SYSCTL_PERIPH_WDOG1,
1255:/home/cuil/workspace/arm/lm3s811/TI_Stellaris/driverlib/sysctl.c **** //! \b SYSCTL_PERIPH_WTIMER0, \b SYSCTL_PERIPH_WTIMER1,
1256:/home/cuil/workspace/arm/lm3s811/TI_Stellaris/driverlib/sysctl.c **** //! \b SYSCTL_PERIPH_WTIMER2, \b SYSCTL_PERIPH_WTIMER3,
1257:/home/cuil/workspace/arm/lm3s811/TI_Stellaris/driverlib/sysctl.c **** //! \b SYSCTL_PERIPH_WTIMER4, or \b SYSCTL_PERIPH_WTIMER5.
1258:/home/cuil/workspace/arm/lm3s811/TI_Stellaris/driverlib/sysctl.c **** //!
1259:/home/cuil/workspace/arm/lm3s811/TI_Stellaris/driverlib/sysctl.c **** //! \return None.
1260:/home/cuil/workspace/arm/lm3s811/TI_Stellaris/driverlib/sysctl.c **** //
1261:/home/cuil/workspace/arm/lm3s811/TI_Stellaris/driverlib/sysctl.c **** //*****************************************************************************
1262:/home/cuil/workspace/arm/lm3s811/TI_Stellaris/driverlib/sysctl.c **** void
1263:/home/cuil/workspace/arm/lm3s811/TI_Stellaris/driverlib/sysctl.c **** SysCtlPeripheralDeepSleepDisable(unsigned long ulPeripheral)
1264:/home/cuil/workspace/arm/lm3s811/TI_Stellaris/driverlib/sysctl.c **** {
 12704              		.loc 1 1264 0
 12705              		.cfi_startproc
 12706              		@ args = 0, pretend = 0, frame = 8
 12707              		@ frame_needed = 1, uses_anonymous_args = 0
 12708              		@ link register save eliminated.
 12709 0000 80B4     		push	{r7}
 12710              	.LCFI40:
 12711              		.cfi_def_cfa_offset 4
 12712 0002 83B0     		sub	sp, sp, #12
 12713              	.LCFI41:
 12714              		.cfi_def_cfa_offset 16
 12715 0004 00AF     		add	r7, sp, #0
 12716              		.cfi_offset 7, -4
 12717              	.LCFI42:
 12718              		.cfi_def_cfa_register 7
 12719 0006 7860     		str	r0, [r7, #4]
1265:/home/cuil/workspace/arm/lm3s811/TI_Stellaris/driverlib/sysctl.c ****     //
1266:/home/cuil/workspace/arm/lm3s811/TI_Stellaris/driverlib/sysctl.c ****     // Check the arguments.
1267:/home/cuil/workspace/arm/lm3s811/TI_Stellaris/driverlib/sysctl.c ****     //
1268:/home/cuil/workspace/arm/lm3s811/TI_Stellaris/driverlib/sysctl.c ****     ASSERT(SysCtlPeripheralValid(ulPeripheral));
1269:/home/cuil/workspace/arm/lm3s811/TI_Stellaris/driverlib/sysctl.c **** 
1270:/home/cuil/workspace/arm/lm3s811/TI_Stellaris/driverlib/sysctl.c ****     //
1271:/home/cuil/workspace/arm/lm3s811/TI_Stellaris/driverlib/sysctl.c ****     // See if the peripheral index is 15, indicating a peripheral that is
1272:/home/cuil/workspace/arm/lm3s811/TI_Stellaris/driverlib/sysctl.c ****     // accessed via the SYSCTL_DCGCperiph registers.
1273:/home/cuil/workspace/arm/lm3s811/TI_Stellaris/driverlib/sysctl.c ****     //
1274:/home/cuil/workspace/arm/lm3s811/TI_Stellaris/driverlib/sysctl.c ****     if((ulPeripheral & 0xf0000000) == 0xf0000000)
 12720              		.loc 1 1274 0
 12721 0008 7B68     		ldr	r3, [r7, #4]
 12722 000a 03F07043 		and	r3, r3, #-268435456
 12723 000e B3F1704F 		cmp	r3, #-268435456
 12724 0012 23D1     		bne	.L71
1275:/home/cuil/workspace/arm/lm3s811/TI_Stellaris/driverlib/sysctl.c ****     {
1276:/home/cuil/workspace/arm/lm3s811/TI_Stellaris/driverlib/sysctl.c ****         //
1277:/home/cuil/workspace/arm/lm3s811/TI_Stellaris/driverlib/sysctl.c ****         // Disable this peripheral in deep-sleep mode.
1278:/home/cuil/workspace/arm/lm3s811/TI_Stellaris/driverlib/sysctl.c ****         //
1279:/home/cuil/workspace/arm/lm3s811/TI_Stellaris/driverlib/sysctl.c ****         HWREGBITW(SYSCTL_DCGCBASE + ((ulPeripheral & 0xff00) >> 8),
 12725              		.loc 1 1279 0
 12726 0014 7B68     		ldr	r3, [r7, #4]
 12727 0016 03F47F43 		and	r3, r3, #65280
 12728 001a 4FEA1322 		lsr	r2, r3, #8
 12729 001e 214B     		ldr	r3, .L73
 12730 0020 D318     		adds	r3, r2, r3
 12731 0022 03F07042 		and	r2, r3, #-268435456
 12732 0026 7B68     		ldr	r3, [r7, #4]
 12733 0028 03F47F43 		and	r3, r3, #65280
 12734 002c 4FEA1321 		lsr	r1, r3, #8
 12735 0030 1C4B     		ldr	r3, .L73
 12736 0032 CB18     		adds	r3, r1, r3
 12737 0034 23F07F43 		bic	r3, r3, #-16777216
 12738 0038 23F47003 		bic	r3, r3, #15728640
 12739 003c 4FEA4313 		lsl	r3, r3, #5
 12740 0040 1A43     		orrs	r2, r2, r3
 12741 0042 7B68     		ldr	r3, [r7, #4]
 12742 0044 03F0FF03 		and	r3, r3, #255
 12743 0048 4FEA8303 		lsl	r3, r3, #2
 12744 004c 42EA0303 		orr	r3, r2, r3
 12745 0050 43F00073 		orr	r3, r3, #33554432
1280:/home/cuil/workspace/arm/lm3s811/TI_Stellaris/driverlib/sysctl.c ****                   ulPeripheral & 0xff) = 0;
 12746              		.loc 1 1280 0
 12747 0054 4FF00002 		mov	r2, #0
 12748 0058 1A60     		str	r2, [r3, #0]
 12749 005a 1EE0     		b	.L70
 12750              	.L71:
1281:/home/cuil/workspace/arm/lm3s811/TI_Stellaris/driverlib/sysctl.c ****     }
1282:/home/cuil/workspace/arm/lm3s811/TI_Stellaris/driverlib/sysctl.c ****     else
1283:/home/cuil/workspace/arm/lm3s811/TI_Stellaris/driverlib/sysctl.c ****     {
1284:/home/cuil/workspace/arm/lm3s811/TI_Stellaris/driverlib/sysctl.c ****         //
1285:/home/cuil/workspace/arm/lm3s811/TI_Stellaris/driverlib/sysctl.c ****         // Disable this peripheral in deep-sleep mode.
1286:/home/cuil/workspace/arm/lm3s811/TI_Stellaris/driverlib/sysctl.c ****         //
1287:/home/cuil/workspace/arm/lm3s811/TI_Stellaris/driverlib/sysctl.c ****         HWREG(g_pulDCGCRegs[SYSCTL_PERIPH_INDEX(ulPeripheral)]) &=
 12751              		.loc 1 1287 0
 12752 005c 7B68     		ldr	r3, [r7, #4]
 12753 005e 4FEA1372 		lsr	r2, r3, #28
 12754 0062 114B     		ldr	r3, .L73+4
 12755 0064 53F82230 		ldr	r3, [r3, r2, lsl #2]
 12756 0068 1A46     		mov	r2, r3
 12757 006a 7B68     		ldr	r3, [r7, #4]
 12758 006c 4FEA1371 		lsr	r1, r3, #28
 12759 0070 0D4B     		ldr	r3, .L73+4
 12760 0072 53F82130 		ldr	r3, [r3, r1, lsl #2]
 12761 0076 1968     		ldr	r1, [r3, #0]
1288:/home/cuil/workspace/arm/lm3s811/TI_Stellaris/driverlib/sysctl.c ****             ~SYSCTL_PERIPH_MASK(ulPeripheral);
 12762              		.loc 1 1288 0
 12763 0078 7B68     		ldr	r3, [r7, #4]
 12764 007a 4FEA0343 		lsl	r3, r3, #16
 12765 007e 4FEA1343 		lsr	r3, r3, #16
 12766 0082 7868     		ldr	r0, [r7, #4]
 12767 0084 00F4F810 		and	r0, r0, #2031616
 12768 0088 4FEA1040 		lsr	r0, r0, #16
 12769 008c 03FA00F3 		lsl	r3, r3, r0
 12770 0090 6FEA0303 		mvn	r3, r3
1287:/home/cuil/workspace/arm/lm3s811/TI_Stellaris/driverlib/sysctl.c ****         HWREG(g_pulDCGCRegs[SYSCTL_PERIPH_INDEX(ulPeripheral)]) &=
 12771              		.loc 1 1287 0
 12772 0094 01EA0303 		and	r3, r1, r3
 12773 0098 1360     		str	r3, [r2, #0]
 12774              	.L70:
1289:/home/cuil/workspace/arm/lm3s811/TI_Stellaris/driverlib/sysctl.c ****     }
1290:/home/cuil/workspace/arm/lm3s811/TI_Stellaris/driverlib/sysctl.c **** }
 12775              		.loc 1 1290 0
 12776 009a 07F10C07 		add	r7, r7, #12
 12777 009e BD46     		mov	sp, r7
 12778 00a0 80BC     		pop	{r7}
 12779 00a2 7047     		bx	lr
 12780              	.L74:
 12781              		.align	2
 12782              	.L73:
 12783 00a4 00E80F40 		.word	1074784256
 12784 00a8 34000000 		.word	g_pulDCGCRegs
 12785              		.cfi_endproc
 12786              	.LFE14:
 12788              		.section	.text.SysCtlPeripheralClockGating,"ax",%progbits
 12789              		.align	2
 12790              		.global	SysCtlPeripheralClockGating
 12791              		.thumb
 12792              		.thumb_func
 12794              	SysCtlPeripheralClockGating:
 12795              	.LFB15:
1291:/home/cuil/workspace/arm/lm3s811/TI_Stellaris/driverlib/sysctl.c **** 
1292:/home/cuil/workspace/arm/lm3s811/TI_Stellaris/driverlib/sysctl.c **** //*****************************************************************************
1293:/home/cuil/workspace/arm/lm3s811/TI_Stellaris/driverlib/sysctl.c **** //
1294:/home/cuil/workspace/arm/lm3s811/TI_Stellaris/driverlib/sysctl.c **** //! Controls peripheral clock gating in sleep and deep-sleep mode.
1295:/home/cuil/workspace/arm/lm3s811/TI_Stellaris/driverlib/sysctl.c **** //!
1296:/home/cuil/workspace/arm/lm3s811/TI_Stellaris/driverlib/sysctl.c **** //! \param bEnable is a boolean that is \b true if the sleep and deep-sleep
1297:/home/cuil/workspace/arm/lm3s811/TI_Stellaris/driverlib/sysctl.c **** //! peripheral configuration should be used and \b false if not.
1298:/home/cuil/workspace/arm/lm3s811/TI_Stellaris/driverlib/sysctl.c **** //!
1299:/home/cuil/workspace/arm/lm3s811/TI_Stellaris/driverlib/sysctl.c **** //! This function controls how peripherals are clocked when the processor goes
1300:/home/cuil/workspace/arm/lm3s811/TI_Stellaris/driverlib/sysctl.c **** //! into sleep or deep-sleep mode.  By default, the peripherals are clocked the
1301:/home/cuil/workspace/arm/lm3s811/TI_Stellaris/driverlib/sysctl.c **** //! same as in run mode; if peripheral clock gating is enabled, they are 
1302:/home/cuil/workspace/arm/lm3s811/TI_Stellaris/driverlib/sysctl.c **** //! clocked according to the configuration set by 
1303:/home/cuil/workspace/arm/lm3s811/TI_Stellaris/driverlib/sysctl.c **** //! SysCtlPeripheralSleepEnable(), SysCtlPeripheralSleepDisable(), 
1304:/home/cuil/workspace/arm/lm3s811/TI_Stellaris/driverlib/sysctl.c **** //! SysCtlPeripheralDeepSleepEnable(), and SysCtlPeripheralDeepSleepDisable().
1305:/home/cuil/workspace/arm/lm3s811/TI_Stellaris/driverlib/sysctl.c **** //!
1306:/home/cuil/workspace/arm/lm3s811/TI_Stellaris/driverlib/sysctl.c **** //! \return None.
1307:/home/cuil/workspace/arm/lm3s811/TI_Stellaris/driverlib/sysctl.c **** //
1308:/home/cuil/workspace/arm/lm3s811/TI_Stellaris/driverlib/sysctl.c **** //*****************************************************************************
1309:/home/cuil/workspace/arm/lm3s811/TI_Stellaris/driverlib/sysctl.c **** void
1310:/home/cuil/workspace/arm/lm3s811/TI_Stellaris/driverlib/sysctl.c **** SysCtlPeripheralClockGating(tBoolean bEnable)
1311:/home/cuil/workspace/arm/lm3s811/TI_Stellaris/driverlib/sysctl.c **** {
 12796              		.loc 1 1311 0
 12797              		.cfi_startproc
 12798              		@ args = 0, pretend = 0, frame = 8
 12799              		@ frame_needed = 1, uses_anonymous_args = 0
 12800              		@ link register save eliminated.
 12801 0000 80B4     		push	{r7}
 12802              	.LCFI43:
 12803              		.cfi_def_cfa_offset 4
 12804 0002 83B0     		sub	sp, sp, #12
 12805              	.LCFI44:
 12806              		.cfi_def_cfa_offset 16
 12807 0004 00AF     		add	r7, sp, #0
 12808              		.cfi_offset 7, -4
 12809              	.LCFI45:
 12810              		.cfi_def_cfa_register 7
 12811 0006 0346     		mov	r3, r0
 12812 0008 FB71     		strb	r3, [r7, #7]
1312:/home/cuil/workspace/arm/lm3s811/TI_Stellaris/driverlib/sysctl.c ****     //
1313:/home/cuil/workspace/arm/lm3s811/TI_Stellaris/driverlib/sysctl.c ****     // Enable peripheral clock gating as requested.
1314:/home/cuil/workspace/arm/lm3s811/TI_Stellaris/driverlib/sysctl.c ****     //
1315:/home/cuil/workspace/arm/lm3s811/TI_Stellaris/driverlib/sysctl.c ****     if(bEnable)
 12813              		.loc 1 1315 0
 12814 000a FB79     		ldrb	r3, [r7, #7]	@ zero_extendqisi2
 12815 000c 002B     		cmp	r3, #0
 12816 000e 06D0     		beq	.L76
1316:/home/cuil/workspace/arm/lm3s811/TI_Stellaris/driverlib/sysctl.c ****     {
1317:/home/cuil/workspace/arm/lm3s811/TI_Stellaris/driverlib/sysctl.c ****         HWREG(SYSCTL_RCC) |= SYSCTL_RCC_ACG;
 12817              		.loc 1 1317 0
 12818 0010 084B     		ldr	r3, .L78
 12819 0012 084A     		ldr	r2, .L78
 12820 0014 1268     		ldr	r2, [r2, #0]
 12821 0016 42F00062 		orr	r2, r2, #134217728
 12822 001a 1A60     		str	r2, [r3, #0]
 12823 001c 05E0     		b	.L75
 12824              	.L76:
1318:/home/cuil/workspace/arm/lm3s811/TI_Stellaris/driverlib/sysctl.c ****     }
1319:/home/cuil/workspace/arm/lm3s811/TI_Stellaris/driverlib/sysctl.c ****     else
1320:/home/cuil/workspace/arm/lm3s811/TI_Stellaris/driverlib/sysctl.c ****     {
1321:/home/cuil/workspace/arm/lm3s811/TI_Stellaris/driverlib/sysctl.c ****         HWREG(SYSCTL_RCC) &= ~(SYSCTL_RCC_ACG);
 12825              		.loc 1 1321 0
 12826 001e 054B     		ldr	r3, .L78
 12827 0020 044A     		ldr	r2, .L78
 12828 0022 1268     		ldr	r2, [r2, #0]
 12829 0024 22F00062 		bic	r2, r2, #134217728
 12830 0028 1A60     		str	r2, [r3, #0]
 12831              	.L75:
1322:/home/cuil/workspace/arm/lm3s811/TI_Stellaris/driverlib/sysctl.c ****     }
1323:/home/cuil/workspace/arm/lm3s811/TI_Stellaris/driverlib/sysctl.c **** }
 12832              		.loc 1 1323 0
 12833 002a 07F10C07 		add	r7, r7, #12
 12834 002e BD46     		mov	sp, r7
 12835 0030 80BC     		pop	{r7}
 12836 0032 7047     		bx	lr
 12837              	.L79:
 12838              		.align	2
 12839              	.L78:
 12840 0034 60E00F40 		.word	1074782304
 12841              		.cfi_endproc
 12842              	.LFE15:
 12844              		.section	.text.SysCtlIntRegister,"ax",%progbits
 12845              		.align	2
 12846              		.global	SysCtlIntRegister
 12847              		.thumb
 12848              		.thumb_func
 12850              	SysCtlIntRegister:
 12851              	.LFB16:
1324:/home/cuil/workspace/arm/lm3s811/TI_Stellaris/driverlib/sysctl.c **** 
1325:/home/cuil/workspace/arm/lm3s811/TI_Stellaris/driverlib/sysctl.c **** //*****************************************************************************
1326:/home/cuil/workspace/arm/lm3s811/TI_Stellaris/driverlib/sysctl.c **** //
1327:/home/cuil/workspace/arm/lm3s811/TI_Stellaris/driverlib/sysctl.c **** //! Registers an interrupt handler for the system control interrupt.
1328:/home/cuil/workspace/arm/lm3s811/TI_Stellaris/driverlib/sysctl.c **** //!
1329:/home/cuil/workspace/arm/lm3s811/TI_Stellaris/driverlib/sysctl.c **** //! \param pfnHandler is a pointer to the function to be called when the system
1330:/home/cuil/workspace/arm/lm3s811/TI_Stellaris/driverlib/sysctl.c **** //! control interrupt occurs.
1331:/home/cuil/workspace/arm/lm3s811/TI_Stellaris/driverlib/sysctl.c **** //!
1332:/home/cuil/workspace/arm/lm3s811/TI_Stellaris/driverlib/sysctl.c **** //! This function registers the handler to be called when a system control 
1333:/home/cuil/workspace/arm/lm3s811/TI_Stellaris/driverlib/sysctl.c **** //! interrupt occurs. This function enables the global interrupt in the 
1334:/home/cuil/workspace/arm/lm3s811/TI_Stellaris/driverlib/sysctl.c **** //! interrupt controller; specific system control interrupts must be enabled 
1335:/home/cuil/workspace/arm/lm3s811/TI_Stellaris/driverlib/sysctl.c **** //! via SysCtlIntEnable().  It is the interrupt handler's responsibility to 
1336:/home/cuil/workspace/arm/lm3s811/TI_Stellaris/driverlib/sysctl.c **** //! clear the interrupt source via SysCtlIntClear().
1337:/home/cuil/workspace/arm/lm3s811/TI_Stellaris/driverlib/sysctl.c **** //!
1338:/home/cuil/workspace/arm/lm3s811/TI_Stellaris/driverlib/sysctl.c **** //! System control can generate interrupts when the PLL achieves lock, if the
1339:/home/cuil/workspace/arm/lm3s811/TI_Stellaris/driverlib/sysctl.c **** //! internal LDO current limit is exceeded, if the internal oscillator fails,
1340:/home/cuil/workspace/arm/lm3s811/TI_Stellaris/driverlib/sysctl.c **** //! if the main oscillator fails, if the internal LDO output voltage droops too
1341:/home/cuil/workspace/arm/lm3s811/TI_Stellaris/driverlib/sysctl.c **** //! much, if the external voltage droops too much, or if the PLL fails. 
1342:/home/cuil/workspace/arm/lm3s811/TI_Stellaris/driverlib/sysctl.c **** //!
1343:/home/cuil/workspace/arm/lm3s811/TI_Stellaris/driverlib/sysctl.c **** //! \sa IntRegister() for important information about registering interrupt
1344:/home/cuil/workspace/arm/lm3s811/TI_Stellaris/driverlib/sysctl.c **** //! handlers.
1345:/home/cuil/workspace/arm/lm3s811/TI_Stellaris/driverlib/sysctl.c **** //!
1346:/home/cuil/workspace/arm/lm3s811/TI_Stellaris/driverlib/sysctl.c **** //! \note The events that cause system control interrupts vary based on the 
1347:/home/cuil/workspace/arm/lm3s811/TI_Stellaris/driverlib/sysctl.c **** //! Stellaris part in use.  Please consult the data sheet for the part you are 
1348:/home/cuil/workspace/arm/lm3s811/TI_Stellaris/driverlib/sysctl.c **** //! using to determine which interrupt sources are available.
1349:/home/cuil/workspace/arm/lm3s811/TI_Stellaris/driverlib/sysctl.c **** //!
1350:/home/cuil/workspace/arm/lm3s811/TI_Stellaris/driverlib/sysctl.c **** //! \return None.
1351:/home/cuil/workspace/arm/lm3s811/TI_Stellaris/driverlib/sysctl.c **** //
1352:/home/cuil/workspace/arm/lm3s811/TI_Stellaris/driverlib/sysctl.c **** //*****************************************************************************
1353:/home/cuil/workspace/arm/lm3s811/TI_Stellaris/driverlib/sysctl.c **** void
1354:/home/cuil/workspace/arm/lm3s811/TI_Stellaris/driverlib/sysctl.c **** SysCtlIntRegister(void (*pfnHandler)(void))
1355:/home/cuil/workspace/arm/lm3s811/TI_Stellaris/driverlib/sysctl.c **** {
 12852              		.loc 1 1355 0
 12853              		.cfi_startproc
 12854              		@ args = 0, pretend = 0, frame = 8
 12855              		@ frame_needed = 1, uses_anonymous_args = 0
 12856 0000 80B5     		push	{r7, lr}
 12857              	.LCFI46:
 12858              		.cfi_def_cfa_offset 8
 12859 0002 82B0     		sub	sp, sp, #8
 12860              	.LCFI47:
 12861              		.cfi_def_cfa_offset 16
 12862 0004 00AF     		add	r7, sp, #0
 12863              		.cfi_offset 14, -4
 12864              		.cfi_offset 7, -8
 12865              	.LCFI48:
 12866              		.cfi_def_cfa_register 7
 12867 0006 7860     		str	r0, [r7, #4]
1356:/home/cuil/workspace/arm/lm3s811/TI_Stellaris/driverlib/sysctl.c ****     //
1357:/home/cuil/workspace/arm/lm3s811/TI_Stellaris/driverlib/sysctl.c ****     // Register the interrupt handler, returning an error if an error occurs.
1358:/home/cuil/workspace/arm/lm3s811/TI_Stellaris/driverlib/sysctl.c ****     //
1359:/home/cuil/workspace/arm/lm3s811/TI_Stellaris/driverlib/sysctl.c ****     IntRegister(INT_SYSCTL, pfnHandler);
 12868              		.loc 1 1359 0
 12869 0008 4FF02C00 		mov	r0, #44
 12870 000c 7968     		ldr	r1, [r7, #4]
 12871 000e FFF7FEFF 		bl	IntRegister
1360:/home/cuil/workspace/arm/lm3s811/TI_Stellaris/driverlib/sysctl.c **** 
1361:/home/cuil/workspace/arm/lm3s811/TI_Stellaris/driverlib/sysctl.c ****     //
1362:/home/cuil/workspace/arm/lm3s811/TI_Stellaris/driverlib/sysctl.c ****     // Enable the system control interrupt.
1363:/home/cuil/workspace/arm/lm3s811/TI_Stellaris/driverlib/sysctl.c ****     //
1364:/home/cuil/workspace/arm/lm3s811/TI_Stellaris/driverlib/sysctl.c ****     IntEnable(INT_SYSCTL);
 12872              		.loc 1 1364 0
 12873 0012 4FF02C00 		mov	r0, #44
 12874 0016 FFF7FEFF 		bl	IntEnable
1365:/home/cuil/workspace/arm/lm3s811/TI_Stellaris/driverlib/sysctl.c **** }
 12875              		.loc 1 1365 0
 12876 001a 07F10807 		add	r7, r7, #8
 12877 001e BD46     		mov	sp, r7
 12878 0020 80BD     		pop	{r7, pc}
 12879              		.cfi_endproc
 12880              	.LFE16:
 12882 0022 00BF     		.section	.text.SysCtlIntUnregister,"ax",%progbits
 12883              		.align	2
 12884              		.global	SysCtlIntUnregister
 12885              		.thumb
 12886              		.thumb_func
 12888              	SysCtlIntUnregister:
 12889              	.LFB17:
1366:/home/cuil/workspace/arm/lm3s811/TI_Stellaris/driverlib/sysctl.c **** 
1367:/home/cuil/workspace/arm/lm3s811/TI_Stellaris/driverlib/sysctl.c **** //*****************************************************************************
1368:/home/cuil/workspace/arm/lm3s811/TI_Stellaris/driverlib/sysctl.c **** //
1369:/home/cuil/workspace/arm/lm3s811/TI_Stellaris/driverlib/sysctl.c **** //! Unregisters the interrupt handler for the system control interrupt.
1370:/home/cuil/workspace/arm/lm3s811/TI_Stellaris/driverlib/sysctl.c **** //!
1371:/home/cuil/workspace/arm/lm3s811/TI_Stellaris/driverlib/sysctl.c **** //! This function unregisters the handler to be called when a system control
1372:/home/cuil/workspace/arm/lm3s811/TI_Stellaris/driverlib/sysctl.c **** //! interrupt occurs.  This function also masks off the interrupt in the 
1373:/home/cuil/workspace/arm/lm3s811/TI_Stellaris/driverlib/sysctl.c **** //! interrupt controller so that the interrupt handler no longer is called.
1374:/home/cuil/workspace/arm/lm3s811/TI_Stellaris/driverlib/sysctl.c **** //!
1375:/home/cuil/workspace/arm/lm3s811/TI_Stellaris/driverlib/sysctl.c **** //! \sa IntRegister() for important information about registering interrupt
1376:/home/cuil/workspace/arm/lm3s811/TI_Stellaris/driverlib/sysctl.c **** //! handlers.
1377:/home/cuil/workspace/arm/lm3s811/TI_Stellaris/driverlib/sysctl.c **** //!
1378:/home/cuil/workspace/arm/lm3s811/TI_Stellaris/driverlib/sysctl.c **** //! \return None.
1379:/home/cuil/workspace/arm/lm3s811/TI_Stellaris/driverlib/sysctl.c **** //
1380:/home/cuil/workspace/arm/lm3s811/TI_Stellaris/driverlib/sysctl.c **** //*****************************************************************************
1381:/home/cuil/workspace/arm/lm3s811/TI_Stellaris/driverlib/sysctl.c **** void
1382:/home/cuil/workspace/arm/lm3s811/TI_Stellaris/driverlib/sysctl.c **** SysCtlIntUnregister(void)
1383:/home/cuil/workspace/arm/lm3s811/TI_Stellaris/driverlib/sysctl.c **** {
 12890              		.loc 1 1383 0
 12891              		.cfi_startproc
 12892              		@ args = 0, pretend = 0, frame = 0
 12893              		@ frame_needed = 1, uses_anonymous_args = 0
 12894 0000 80B5     		push	{r7, lr}
 12895              	.LCFI49:
 12896              		.cfi_def_cfa_offset 8
 12897 0002 00AF     		add	r7, sp, #0
 12898              		.cfi_offset 14, -4
 12899              		.cfi_offset 7, -8
 12900              	.LCFI50:
 12901              		.cfi_def_cfa_register 7
1384:/home/cuil/workspace/arm/lm3s811/TI_Stellaris/driverlib/sysctl.c ****     //
1385:/home/cuil/workspace/arm/lm3s811/TI_Stellaris/driverlib/sysctl.c ****     // Disable the interrupt.
1386:/home/cuil/workspace/arm/lm3s811/TI_Stellaris/driverlib/sysctl.c ****     //
1387:/home/cuil/workspace/arm/lm3s811/TI_Stellaris/driverlib/sysctl.c ****     IntDisable(INT_SYSCTL);
 12902              		.loc 1 1387 0
 12903 0004 4FF02C00 		mov	r0, #44
 12904 0008 FFF7FEFF 		bl	IntDisable
1388:/home/cuil/workspace/arm/lm3s811/TI_Stellaris/driverlib/sysctl.c **** 
1389:/home/cuil/workspace/arm/lm3s811/TI_Stellaris/driverlib/sysctl.c ****     //
1390:/home/cuil/workspace/arm/lm3s811/TI_Stellaris/driverlib/sysctl.c ****     // Unregister the interrupt handler.
1391:/home/cuil/workspace/arm/lm3s811/TI_Stellaris/driverlib/sysctl.c ****     //
1392:/home/cuil/workspace/arm/lm3s811/TI_Stellaris/driverlib/sysctl.c ****     IntUnregister(INT_SYSCTL);
 12905              		.loc 1 1392 0
 12906 000c 4FF02C00 		mov	r0, #44
 12907 0010 FFF7FEFF 		bl	IntUnregister
1393:/home/cuil/workspace/arm/lm3s811/TI_Stellaris/driverlib/sysctl.c **** }
 12908              		.loc 1 1393 0
 12909 0014 80BD     		pop	{r7, pc}
 12910              		.cfi_endproc
 12911              	.LFE17:
 12913 0016 00BF     		.section	.text.SysCtlIntEnable,"ax",%progbits
 12914              		.align	2
 12915              		.global	SysCtlIntEnable
 12916              		.thumb
 12917              		.thumb_func
 12919              	SysCtlIntEnable:
 12920              	.LFB18:
1394:/home/cuil/workspace/arm/lm3s811/TI_Stellaris/driverlib/sysctl.c **** 
1395:/home/cuil/workspace/arm/lm3s811/TI_Stellaris/driverlib/sysctl.c **** //*****************************************************************************
1396:/home/cuil/workspace/arm/lm3s811/TI_Stellaris/driverlib/sysctl.c **** //
1397:/home/cuil/workspace/arm/lm3s811/TI_Stellaris/driverlib/sysctl.c **** //! Enables individual system control interrupt sources.
1398:/home/cuil/workspace/arm/lm3s811/TI_Stellaris/driverlib/sysctl.c **** //!
1399:/home/cuil/workspace/arm/lm3s811/TI_Stellaris/driverlib/sysctl.c **** //! \param ulInts is a bit mask of the interrupt sources to be enabled.  Must
1400:/home/cuil/workspace/arm/lm3s811/TI_Stellaris/driverlib/sysctl.c **** //! be a logical OR of \b SYSCTL_INT_PLL_LOCK, \b SYSCTL_INT_CUR_LIMIT,
1401:/home/cuil/workspace/arm/lm3s811/TI_Stellaris/driverlib/sysctl.c **** //! \b SYSCTL_INT_IOSC_FAIL, \b SYSCTL_INT_MOSC_FAIL, \b SYSCTL_INT_POR,
1402:/home/cuil/workspace/arm/lm3s811/TI_Stellaris/driverlib/sysctl.c **** //! \b SYSCTL_INT_BOR, and/or \b SYSCTL_INT_PLL_FAIL.
1403:/home/cuil/workspace/arm/lm3s811/TI_Stellaris/driverlib/sysctl.c **** //!
1404:/home/cuil/workspace/arm/lm3s811/TI_Stellaris/driverlib/sysctl.c **** //! This function enables the indicated system control interrupt sources.  Only 
1405:/home/cuil/workspace/arm/lm3s811/TI_Stellaris/driverlib/sysctl.c **** //! the sources that are enabled can be reflected to the processor interrupt; 
1406:/home/cuil/workspace/arm/lm3s811/TI_Stellaris/driverlib/sysctl.c **** //! disabled sources have no effect on the processor.
1407:/home/cuil/workspace/arm/lm3s811/TI_Stellaris/driverlib/sysctl.c **** //!
1408:/home/cuil/workspace/arm/lm3s811/TI_Stellaris/driverlib/sysctl.c **** //! \note The interrupt sources vary based on the Stellaris part in use.  
1409:/home/cuil/workspace/arm/lm3s811/TI_Stellaris/driverlib/sysctl.c **** //! Please consult the data sheet for the part you are using to determine
1410:/home/cuil/workspace/arm/lm3s811/TI_Stellaris/driverlib/sysctl.c **** //! which interrupt sources are available.
1411:/home/cuil/workspace/arm/lm3s811/TI_Stellaris/driverlib/sysctl.c **** //!
1412:/home/cuil/workspace/arm/lm3s811/TI_Stellaris/driverlib/sysctl.c **** //! \return None.
1413:/home/cuil/workspace/arm/lm3s811/TI_Stellaris/driverlib/sysctl.c **** //
1414:/home/cuil/workspace/arm/lm3s811/TI_Stellaris/driverlib/sysctl.c **** //*****************************************************************************
1415:/home/cuil/workspace/arm/lm3s811/TI_Stellaris/driverlib/sysctl.c **** void
1416:/home/cuil/workspace/arm/lm3s811/TI_Stellaris/driverlib/sysctl.c **** SysCtlIntEnable(unsigned long ulInts)
1417:/home/cuil/workspace/arm/lm3s811/TI_Stellaris/driverlib/sysctl.c **** {
 12921              		.loc 1 1417 0
 12922              		.cfi_startproc
 12923              		@ args = 0, pretend = 0, frame = 8
 12924              		@ frame_needed = 1, uses_anonymous_args = 0
 12925              		@ link register save eliminated.
 12926 0000 80B4     		push	{r7}
 12927              	.LCFI51:
 12928              		.cfi_def_cfa_offset 4
 12929 0002 83B0     		sub	sp, sp, #12
 12930              	.LCFI52:
 12931              		.cfi_def_cfa_offset 16
 12932 0004 00AF     		add	r7, sp, #0
 12933              		.cfi_offset 7, -4
 12934              	.LCFI53:
 12935              		.cfi_def_cfa_register 7
 12936 0006 7860     		str	r0, [r7, #4]
1418:/home/cuil/workspace/arm/lm3s811/TI_Stellaris/driverlib/sysctl.c ****     //
1419:/home/cuil/workspace/arm/lm3s811/TI_Stellaris/driverlib/sysctl.c ****     // Enable the specified interrupts.
1420:/home/cuil/workspace/arm/lm3s811/TI_Stellaris/driverlib/sysctl.c ****     //
1421:/home/cuil/workspace/arm/lm3s811/TI_Stellaris/driverlib/sysctl.c ****     HWREG(SYSCTL_IMC) |= ulInts;
 12937              		.loc 1 1421 0
 12938 0008 054B     		ldr	r3, .L83
 12939 000a 054A     		ldr	r2, .L83
 12940 000c 1168     		ldr	r1, [r2, #0]
 12941 000e 7A68     		ldr	r2, [r7, #4]
 12942 0010 41EA0202 		orr	r2, r1, r2
 12943 0014 1A60     		str	r2, [r3, #0]
1422:/home/cuil/workspace/arm/lm3s811/TI_Stellaris/driverlib/sysctl.c **** }
 12944              		.loc 1 1422 0
 12945 0016 07F10C07 		add	r7, r7, #12
 12946 001a BD46     		mov	sp, r7
 12947 001c 80BC     		pop	{r7}
 12948 001e 7047     		bx	lr
 12949              	.L84:
 12950              		.align	2
 12951              	.L83:
 12952 0020 54E00F40 		.word	1074782292
 12953              		.cfi_endproc
 12954              	.LFE18:
 12956              		.section	.text.SysCtlIntDisable,"ax",%progbits
 12957              		.align	2
 12958              		.global	SysCtlIntDisable
 12959              		.thumb
 12960              		.thumb_func
 12962              	SysCtlIntDisable:
 12963              	.LFB19:
1423:/home/cuil/workspace/arm/lm3s811/TI_Stellaris/driverlib/sysctl.c **** 
1424:/home/cuil/workspace/arm/lm3s811/TI_Stellaris/driverlib/sysctl.c **** //*****************************************************************************
1425:/home/cuil/workspace/arm/lm3s811/TI_Stellaris/driverlib/sysctl.c **** //
1426:/home/cuil/workspace/arm/lm3s811/TI_Stellaris/driverlib/sysctl.c **** //! Disables individual system control interrupt sources.
1427:/home/cuil/workspace/arm/lm3s811/TI_Stellaris/driverlib/sysctl.c **** //!
1428:/home/cuil/workspace/arm/lm3s811/TI_Stellaris/driverlib/sysctl.c **** //! \param ulInts is a bit mask of the interrupt sources to be disabled.  Must
1429:/home/cuil/workspace/arm/lm3s811/TI_Stellaris/driverlib/sysctl.c **** //! be a logical OR of \b SYSCTL_INT_PLL_LOCK, \b SYSCTL_INT_CUR_LIMIT,
1430:/home/cuil/workspace/arm/lm3s811/TI_Stellaris/driverlib/sysctl.c **** //! \b SYSCTL_INT_IOSC_FAIL, \b SYSCTL_INT_MOSC_FAIL, \b SYSCTL_INT_POR,
1431:/home/cuil/workspace/arm/lm3s811/TI_Stellaris/driverlib/sysctl.c **** //! \b SYSCTL_INT_BOR, and/or \b SYSCTL_INT_PLL_FAIL.
1432:/home/cuil/workspace/arm/lm3s811/TI_Stellaris/driverlib/sysctl.c **** //!
1433:/home/cuil/workspace/arm/lm3s811/TI_Stellaris/driverlib/sysctl.c **** //! This function disables the indicated system control interrupt sources.  
1434:/home/cuil/workspace/arm/lm3s811/TI_Stellaris/driverlib/sysctl.c **** //! Only the sources that are enabled can be reflected to the processor 
1435:/home/cuil/workspace/arm/lm3s811/TI_Stellaris/driverlib/sysctl.c **** //! interrupt; disabled sources have no effect on the processor.
1436:/home/cuil/workspace/arm/lm3s811/TI_Stellaris/driverlib/sysctl.c **** //!
1437:/home/cuil/workspace/arm/lm3s811/TI_Stellaris/driverlib/sysctl.c **** //! \note The interrupt sources vary based on the Stellaris part in use.  
1438:/home/cuil/workspace/arm/lm3s811/TI_Stellaris/driverlib/sysctl.c **** //! Please consult the data sheet for the part you are using to determine
1439:/home/cuil/workspace/arm/lm3s811/TI_Stellaris/driverlib/sysctl.c **** //! which interrupt sources are available.
1440:/home/cuil/workspace/arm/lm3s811/TI_Stellaris/driverlib/sysctl.c **** //!
1441:/home/cuil/workspace/arm/lm3s811/TI_Stellaris/driverlib/sysctl.c **** //! \return None.
1442:/home/cuil/workspace/arm/lm3s811/TI_Stellaris/driverlib/sysctl.c **** //
1443:/home/cuil/workspace/arm/lm3s811/TI_Stellaris/driverlib/sysctl.c **** //*****************************************************************************
1444:/home/cuil/workspace/arm/lm3s811/TI_Stellaris/driverlib/sysctl.c **** void
1445:/home/cuil/workspace/arm/lm3s811/TI_Stellaris/driverlib/sysctl.c **** SysCtlIntDisable(unsigned long ulInts)
1446:/home/cuil/workspace/arm/lm3s811/TI_Stellaris/driverlib/sysctl.c **** {
 12964              		.loc 1 1446 0
 12965              		.cfi_startproc
 12966              		@ args = 0, pretend = 0, frame = 8
 12967              		@ frame_needed = 1, uses_anonymous_args = 0
 12968              		@ link register save eliminated.
 12969 0000 80B4     		push	{r7}
 12970              	.LCFI54:
 12971              		.cfi_def_cfa_offset 4
 12972 0002 83B0     		sub	sp, sp, #12
 12973              	.LCFI55:
 12974              		.cfi_def_cfa_offset 16
 12975 0004 00AF     		add	r7, sp, #0
 12976              		.cfi_offset 7, -4
 12977              	.LCFI56:
 12978              		.cfi_def_cfa_register 7
 12979 0006 7860     		str	r0, [r7, #4]
1447:/home/cuil/workspace/arm/lm3s811/TI_Stellaris/driverlib/sysctl.c ****     //
1448:/home/cuil/workspace/arm/lm3s811/TI_Stellaris/driverlib/sysctl.c ****     // Disable the specified interrupts.
1449:/home/cuil/workspace/arm/lm3s811/TI_Stellaris/driverlib/sysctl.c ****     //
1450:/home/cuil/workspace/arm/lm3s811/TI_Stellaris/driverlib/sysctl.c ****     HWREG(SYSCTL_IMC) &= ~(ulInts);
 12980              		.loc 1 1450 0
 12981 0008 064B     		ldr	r3, .L86
 12982 000a 064A     		ldr	r2, .L86
 12983 000c 1168     		ldr	r1, [r2, #0]
 12984 000e 7A68     		ldr	r2, [r7, #4]
 12985 0010 6FEA0202 		mvn	r2, r2
 12986 0014 01EA0202 		and	r2, r1, r2
 12987 0018 1A60     		str	r2, [r3, #0]
1451:/home/cuil/workspace/arm/lm3s811/TI_Stellaris/driverlib/sysctl.c **** }
 12988              		.loc 1 1451 0
 12989 001a 07F10C07 		add	r7, r7, #12
 12990 001e BD46     		mov	sp, r7
 12991 0020 80BC     		pop	{r7}
 12992 0022 7047     		bx	lr
 12993              	.L87:
 12994              		.align	2
 12995              	.L86:
 12996 0024 54E00F40 		.word	1074782292
 12997              		.cfi_endproc
 12998              	.LFE19:
 13000              		.section	.text.SysCtlIntClear,"ax",%progbits
 13001              		.align	2
 13002              		.global	SysCtlIntClear
 13003              		.thumb
 13004              		.thumb_func
 13006              	SysCtlIntClear:
 13007              	.LFB20:
1452:/home/cuil/workspace/arm/lm3s811/TI_Stellaris/driverlib/sysctl.c **** 
1453:/home/cuil/workspace/arm/lm3s811/TI_Stellaris/driverlib/sysctl.c **** //*****************************************************************************
1454:/home/cuil/workspace/arm/lm3s811/TI_Stellaris/driverlib/sysctl.c **** //
1455:/home/cuil/workspace/arm/lm3s811/TI_Stellaris/driverlib/sysctl.c **** //! Clears system control interrupt sources.
1456:/home/cuil/workspace/arm/lm3s811/TI_Stellaris/driverlib/sysctl.c **** //!
1457:/home/cuil/workspace/arm/lm3s811/TI_Stellaris/driverlib/sysctl.c **** //! \param ulInts is a bit mask of the interrupt sources to be cleared.  Must
1458:/home/cuil/workspace/arm/lm3s811/TI_Stellaris/driverlib/sysctl.c **** //! be a logical OR of \b SYSCTL_INT_PLL_LOCK, \b SYSCTL_INT_CUR_LIMIT,
1459:/home/cuil/workspace/arm/lm3s811/TI_Stellaris/driverlib/sysctl.c **** //! \b SYSCTL_INT_IOSC_FAIL, \b SYSCTL_INT_MOSC_FAIL, \b SYSCTL_INT_POR,
1460:/home/cuil/workspace/arm/lm3s811/TI_Stellaris/driverlib/sysctl.c **** //! \b SYSCTL_INT_BOR, and/or \b SYSCTL_INT_PLL_FAIL.
1461:/home/cuil/workspace/arm/lm3s811/TI_Stellaris/driverlib/sysctl.c **** //!
1462:/home/cuil/workspace/arm/lm3s811/TI_Stellaris/driverlib/sysctl.c **** //! The specified system control interrupt sources are cleared, so that they no
1463:/home/cuil/workspace/arm/lm3s811/TI_Stellaris/driverlib/sysctl.c **** //! longer assert.  This function must be called in the interrupt handler to 
1464:/home/cuil/workspace/arm/lm3s811/TI_Stellaris/driverlib/sysctl.c **** //! keep it from being called again immediately upon exit.
1465:/home/cuil/workspace/arm/lm3s811/TI_Stellaris/driverlib/sysctl.c **** //!
1466:/home/cuil/workspace/arm/lm3s811/TI_Stellaris/driverlib/sysctl.c **** //! \note Because there is a write buffer in the Cortex-M processor, it may
1467:/home/cuil/workspace/arm/lm3s811/TI_Stellaris/driverlib/sysctl.c **** //! take several clock cycles before the interrupt source is actually cleared.
1468:/home/cuil/workspace/arm/lm3s811/TI_Stellaris/driverlib/sysctl.c **** //! Therefore, it is recommended that the interrupt source be cleared early in
1469:/home/cuil/workspace/arm/lm3s811/TI_Stellaris/driverlib/sysctl.c **** //! the interrupt handler (as opposed to the very last action) to avoid
1470:/home/cuil/workspace/arm/lm3s811/TI_Stellaris/driverlib/sysctl.c **** //! returning from the interrupt handler before the interrupt source is
1471:/home/cuil/workspace/arm/lm3s811/TI_Stellaris/driverlib/sysctl.c **** //! actually cleared.  Failure to do so may result in the interrupt handler
1472:/home/cuil/workspace/arm/lm3s811/TI_Stellaris/driverlib/sysctl.c **** //! being immediately reentered (because the interrupt controller still sees
1473:/home/cuil/workspace/arm/lm3s811/TI_Stellaris/driverlib/sysctl.c **** //! the interrupt source asserted).
1474:/home/cuil/workspace/arm/lm3s811/TI_Stellaris/driverlib/sysctl.c **** //!
1475:/home/cuil/workspace/arm/lm3s811/TI_Stellaris/driverlib/sysctl.c **** //! \note The interrupt sources vary based on the Stellaris part in use.  
1476:/home/cuil/workspace/arm/lm3s811/TI_Stellaris/driverlib/sysctl.c **** //! Please consult the data sheet for the part you are using to determine
1477:/home/cuil/workspace/arm/lm3s811/TI_Stellaris/driverlib/sysctl.c **** //! which interrupt sources are available.
1478:/home/cuil/workspace/arm/lm3s811/TI_Stellaris/driverlib/sysctl.c **** //!
1479:/home/cuil/workspace/arm/lm3s811/TI_Stellaris/driverlib/sysctl.c **** //! \return None.
1480:/home/cuil/workspace/arm/lm3s811/TI_Stellaris/driverlib/sysctl.c **** //
1481:/home/cuil/workspace/arm/lm3s811/TI_Stellaris/driverlib/sysctl.c **** //*****************************************************************************
1482:/home/cuil/workspace/arm/lm3s811/TI_Stellaris/driverlib/sysctl.c **** void
1483:/home/cuil/workspace/arm/lm3s811/TI_Stellaris/driverlib/sysctl.c **** SysCtlIntClear(unsigned long ulInts)
1484:/home/cuil/workspace/arm/lm3s811/TI_Stellaris/driverlib/sysctl.c **** {
 13008              		.loc 1 1484 0
 13009              		.cfi_startproc
 13010              		@ args = 0, pretend = 0, frame = 8
 13011              		@ frame_needed = 1, uses_anonymous_args = 0
 13012              		@ link register save eliminated.
 13013 0000 80B4     		push	{r7}
 13014              	.LCFI57:
 13015              		.cfi_def_cfa_offset 4
 13016 0002 83B0     		sub	sp, sp, #12
 13017              	.LCFI58:
 13018              		.cfi_def_cfa_offset 16
 13019 0004 00AF     		add	r7, sp, #0
 13020              		.cfi_offset 7, -4
 13021              	.LCFI59:
 13022              		.cfi_def_cfa_register 7
 13023 0006 7860     		str	r0, [r7, #4]
1485:/home/cuil/workspace/arm/lm3s811/TI_Stellaris/driverlib/sysctl.c ****     //
1486:/home/cuil/workspace/arm/lm3s811/TI_Stellaris/driverlib/sysctl.c ****     // Clear the requested interrupt sources.
1487:/home/cuil/workspace/arm/lm3s811/TI_Stellaris/driverlib/sysctl.c ****     //
1488:/home/cuil/workspace/arm/lm3s811/TI_Stellaris/driverlib/sysctl.c ****     HWREG(SYSCTL_MISC) = ulInts;
 13024              		.loc 1 1488 0
 13025 0008 034B     		ldr	r3, .L89
 13026 000a 7A68     		ldr	r2, [r7, #4]
 13027 000c 1A60     		str	r2, [r3, #0]
1489:/home/cuil/workspace/arm/lm3s811/TI_Stellaris/driverlib/sysctl.c **** }
 13028              		.loc 1 1489 0
 13029 000e 07F10C07 		add	r7, r7, #12
 13030 0012 BD46     		mov	sp, r7
 13031 0014 80BC     		pop	{r7}
 13032 0016 7047     		bx	lr
 13033              	.L90:
 13034              		.align	2
 13035              	.L89:
 13036 0018 58E00F40 		.word	1074782296
 13037              		.cfi_endproc
 13038              	.LFE20:
 13040              		.section	.text.SysCtlIntStatus,"ax",%progbits
 13041              		.align	2
 13042              		.global	SysCtlIntStatus
 13043              		.thumb
 13044              		.thumb_func
 13046              	SysCtlIntStatus:
 13047              	.LFB21:
1490:/home/cuil/workspace/arm/lm3s811/TI_Stellaris/driverlib/sysctl.c **** 
1491:/home/cuil/workspace/arm/lm3s811/TI_Stellaris/driverlib/sysctl.c **** //*****************************************************************************
1492:/home/cuil/workspace/arm/lm3s811/TI_Stellaris/driverlib/sysctl.c **** //
1493:/home/cuil/workspace/arm/lm3s811/TI_Stellaris/driverlib/sysctl.c **** //! Gets the current interrupt status.
1494:/home/cuil/workspace/arm/lm3s811/TI_Stellaris/driverlib/sysctl.c **** //!
1495:/home/cuil/workspace/arm/lm3s811/TI_Stellaris/driverlib/sysctl.c **** //! \param bMasked is false if the raw interrupt status is required and true if
1496:/home/cuil/workspace/arm/lm3s811/TI_Stellaris/driverlib/sysctl.c **** //! the masked interrupt status is required.
1497:/home/cuil/workspace/arm/lm3s811/TI_Stellaris/driverlib/sysctl.c **** //!
1498:/home/cuil/workspace/arm/lm3s811/TI_Stellaris/driverlib/sysctl.c **** //! This function returns the interrupt status for the system controller.  
1499:/home/cuil/workspace/arm/lm3s811/TI_Stellaris/driverlib/sysctl.c **** //! Either the raw interrupt status or the status of interrupts that are
1500:/home/cuil/workspace/arm/lm3s811/TI_Stellaris/driverlib/sysctl.c **** //! allowed to reflect to the processor can be returned.
1501:/home/cuil/workspace/arm/lm3s811/TI_Stellaris/driverlib/sysctl.c **** //!
1502:/home/cuil/workspace/arm/lm3s811/TI_Stellaris/driverlib/sysctl.c **** //! \return The current interrupt status, enumerated as a bit field of
1503:/home/cuil/workspace/arm/lm3s811/TI_Stellaris/driverlib/sysctl.c **** //! \b SYSCTL_INT_PLL_LOCK, \b SYSCTL_INT_CUR_LIMIT, \b SYSCTL_INT_IOSC_FAIL,
1504:/home/cuil/workspace/arm/lm3s811/TI_Stellaris/driverlib/sysctl.c **** //! \b SYSCTL_INT_MOSC_FAIL, \b SYSCTL_INT_POR, \b SYSCTL_INT_BOR, and
1505:/home/cuil/workspace/arm/lm3s811/TI_Stellaris/driverlib/sysctl.c **** //! \b SYSCTL_INT_PLL_FAIL.
1506:/home/cuil/workspace/arm/lm3s811/TI_Stellaris/driverlib/sysctl.c **** //!
1507:/home/cuil/workspace/arm/lm3s811/TI_Stellaris/driverlib/sysctl.c **** //! \note The interrupt sources vary based on the Stellaris part in use.  
1508:/home/cuil/workspace/arm/lm3s811/TI_Stellaris/driverlib/sysctl.c **** //! Please consult the data sheet for the part you are using to determine
1509:/home/cuil/workspace/arm/lm3s811/TI_Stellaris/driverlib/sysctl.c **** //! which interrupt sources are available.
1510:/home/cuil/workspace/arm/lm3s811/TI_Stellaris/driverlib/sysctl.c **** //
1511:/home/cuil/workspace/arm/lm3s811/TI_Stellaris/driverlib/sysctl.c **** //*****************************************************************************
1512:/home/cuil/workspace/arm/lm3s811/TI_Stellaris/driverlib/sysctl.c **** unsigned long
1513:/home/cuil/workspace/arm/lm3s811/TI_Stellaris/driverlib/sysctl.c **** SysCtlIntStatus(tBoolean bMasked)
1514:/home/cuil/workspace/arm/lm3s811/TI_Stellaris/driverlib/sysctl.c **** {
 13048              		.loc 1 1514 0
 13049              		.cfi_startproc
 13050              		@ args = 0, pretend = 0, frame = 8
 13051              		@ frame_needed = 1, uses_anonymous_args = 0
 13052              		@ link register save eliminated.
 13053 0000 80B4     		push	{r7}
 13054              	.LCFI60:
 13055              		.cfi_def_cfa_offset 4
 13056 0002 83B0     		sub	sp, sp, #12
 13057              	.LCFI61:
 13058              		.cfi_def_cfa_offset 16
 13059 0004 00AF     		add	r7, sp, #0
 13060              		.cfi_offset 7, -4
 13061              	.LCFI62:
 13062              		.cfi_def_cfa_register 7
 13063 0006 0346     		mov	r3, r0
 13064 0008 FB71     		strb	r3, [r7, #7]
1515:/home/cuil/workspace/arm/lm3s811/TI_Stellaris/driverlib/sysctl.c ****     //
1516:/home/cuil/workspace/arm/lm3s811/TI_Stellaris/driverlib/sysctl.c ****     // Return either the interrupt status or the raw interrupt status as
1517:/home/cuil/workspace/arm/lm3s811/TI_Stellaris/driverlib/sysctl.c ****     // requested.
1518:/home/cuil/workspace/arm/lm3s811/TI_Stellaris/driverlib/sysctl.c ****     //
1519:/home/cuil/workspace/arm/lm3s811/TI_Stellaris/driverlib/sysctl.c ****     if(bMasked)
 13065              		.loc 1 1519 0
 13066 000a FB79     		ldrb	r3, [r7, #7]	@ zero_extendqisi2
 13067 000c 002B     		cmp	r3, #0
 13068 000e 02D0     		beq	.L92
1520:/home/cuil/workspace/arm/lm3s811/TI_Stellaris/driverlib/sysctl.c ****     {
1521:/home/cuil/workspace/arm/lm3s811/TI_Stellaris/driverlib/sysctl.c ****         return(HWREG(SYSCTL_MISC));
 13069              		.loc 1 1521 0
 13070 0010 054B     		ldr	r3, .L94
 13071 0012 1B68     		ldr	r3, [r3, #0]
 13072 0014 01E0     		b	.L93
 13073              	.L92:
1522:/home/cuil/workspace/arm/lm3s811/TI_Stellaris/driverlib/sysctl.c ****     }
1523:/home/cuil/workspace/arm/lm3s811/TI_Stellaris/driverlib/sysctl.c ****     else
1524:/home/cuil/workspace/arm/lm3s811/TI_Stellaris/driverlib/sysctl.c ****     {
1525:/home/cuil/workspace/arm/lm3s811/TI_Stellaris/driverlib/sysctl.c ****         return(HWREG(SYSCTL_RIS));
 13074              		.loc 1 1525 0
 13075 0016 054B     		ldr	r3, .L94+4
 13076 0018 1B68     		ldr	r3, [r3, #0]
 13077              	.L93:
1526:/home/cuil/workspace/arm/lm3s811/TI_Stellaris/driverlib/sysctl.c ****     }
1527:/home/cuil/workspace/arm/lm3s811/TI_Stellaris/driverlib/sysctl.c **** }
 13078              		.loc 1 1527 0
 13079 001a 1846     		mov	r0, r3
 13080 001c 07F10C07 		add	r7, r7, #12
 13081 0020 BD46     		mov	sp, r7
 13082 0022 80BC     		pop	{r7}
 13083 0024 7047     		bx	lr
 13084              	.L95:
 13085 0026 00BF     		.align	2
 13086              	.L94:
 13087 0028 58E00F40 		.word	1074782296
 13088 002c 50E00F40 		.word	1074782288
 13089              		.cfi_endproc
 13090              	.LFE21:
 13092              		.section	.text.SysCtlLDOSet,"ax",%progbits
 13093              		.align	2
 13094              		.global	SysCtlLDOSet
 13095              		.thumb
 13096              		.thumb_func
 13098              	SysCtlLDOSet:
 13099              	.LFB22:
1528:/home/cuil/workspace/arm/lm3s811/TI_Stellaris/driverlib/sysctl.c **** 
1529:/home/cuil/workspace/arm/lm3s811/TI_Stellaris/driverlib/sysctl.c **** //*****************************************************************************
1530:/home/cuil/workspace/arm/lm3s811/TI_Stellaris/driverlib/sysctl.c **** //
1531:/home/cuil/workspace/arm/lm3s811/TI_Stellaris/driverlib/sysctl.c **** //! Sets the output voltage of the LDO.
1532:/home/cuil/workspace/arm/lm3s811/TI_Stellaris/driverlib/sysctl.c **** //!
1533:/home/cuil/workspace/arm/lm3s811/TI_Stellaris/driverlib/sysctl.c **** //! \param ulVoltage is the required output voltage from the LDO.  Must be one
1534:/home/cuil/workspace/arm/lm3s811/TI_Stellaris/driverlib/sysctl.c **** //! of \b SYSCTL_LDO_2_25V, \b SYSCTL_LDO_2_30V, \b SYSCTL_LDO_2_35V,
1535:/home/cuil/workspace/arm/lm3s811/TI_Stellaris/driverlib/sysctl.c **** //! \b SYSCTL_LDO_2_40V, \b SYSCTL_LDO_2_45V, \b SYSCTL_LDO_2_50V,
1536:/home/cuil/workspace/arm/lm3s811/TI_Stellaris/driverlib/sysctl.c **** //! \b SYSCTL_LDO_2_55V, \b SYSCTL_LDO_2_60V, \b SYSCTL_LDO_2_65V,
1537:/home/cuil/workspace/arm/lm3s811/TI_Stellaris/driverlib/sysctl.c **** //! \b SYSCTL_LDO_2_70V, or \b SYSCTL_LDO_2_75V.
1538:/home/cuil/workspace/arm/lm3s811/TI_Stellaris/driverlib/sysctl.c **** //!
1539:/home/cuil/workspace/arm/lm3s811/TI_Stellaris/driverlib/sysctl.c **** //! This function sets the output voltage of the LDO.
1540:/home/cuil/workspace/arm/lm3s811/TI_Stellaris/driverlib/sysctl.c **** //!
1541:/home/cuil/workspace/arm/lm3s811/TI_Stellaris/driverlib/sysctl.c **** //! \note The default LDO voltage and the adjustment range varies with the
1542:/home/cuil/workspace/arm/lm3s811/TI_Stellaris/driverlib/sysctl.c **** //! Stellaris part in use.  Please consult the datasheet for the part you are
1543:/home/cuil/workspace/arm/lm3s811/TI_Stellaris/driverlib/sysctl.c **** //! using to determine the default voltage and range available.
1544:/home/cuil/workspace/arm/lm3s811/TI_Stellaris/driverlib/sysctl.c **** //!
1545:/home/cuil/workspace/arm/lm3s811/TI_Stellaris/driverlib/sysctl.c **** //! \return None.
1546:/home/cuil/workspace/arm/lm3s811/TI_Stellaris/driverlib/sysctl.c **** //
1547:/home/cuil/workspace/arm/lm3s811/TI_Stellaris/driverlib/sysctl.c **** //*****************************************************************************
1548:/home/cuil/workspace/arm/lm3s811/TI_Stellaris/driverlib/sysctl.c **** void
1549:/home/cuil/workspace/arm/lm3s811/TI_Stellaris/driverlib/sysctl.c **** SysCtlLDOSet(unsigned long ulVoltage)
1550:/home/cuil/workspace/arm/lm3s811/TI_Stellaris/driverlib/sysctl.c **** {
 13100              		.loc 1 1550 0
 13101              		.cfi_startproc
 13102              		@ args = 0, pretend = 0, frame = 8
 13103              		@ frame_needed = 1, uses_anonymous_args = 0
 13104              		@ link register save eliminated.
 13105 0000 80B4     		push	{r7}
 13106              	.LCFI63:
 13107              		.cfi_def_cfa_offset 4
 13108 0002 83B0     		sub	sp, sp, #12
 13109              	.LCFI64:
 13110              		.cfi_def_cfa_offset 16
 13111 0004 00AF     		add	r7, sp, #0
 13112              		.cfi_offset 7, -4
 13113              	.LCFI65:
 13114              		.cfi_def_cfa_register 7
 13115 0006 7860     		str	r0, [r7, #4]
1551:/home/cuil/workspace/arm/lm3s811/TI_Stellaris/driverlib/sysctl.c ****     //
1552:/home/cuil/workspace/arm/lm3s811/TI_Stellaris/driverlib/sysctl.c ****     // Check the arguments.
1553:/home/cuil/workspace/arm/lm3s811/TI_Stellaris/driverlib/sysctl.c ****     //
1554:/home/cuil/workspace/arm/lm3s811/TI_Stellaris/driverlib/sysctl.c ****     ASSERT((ulVoltage == SYSCTL_LDO_2_25V) ||
1555:/home/cuil/workspace/arm/lm3s811/TI_Stellaris/driverlib/sysctl.c ****            (ulVoltage == SYSCTL_LDO_2_30V) ||
1556:/home/cuil/workspace/arm/lm3s811/TI_Stellaris/driverlib/sysctl.c ****            (ulVoltage == SYSCTL_LDO_2_35V) ||
1557:/home/cuil/workspace/arm/lm3s811/TI_Stellaris/driverlib/sysctl.c ****            (ulVoltage == SYSCTL_LDO_2_40V) ||
1558:/home/cuil/workspace/arm/lm3s811/TI_Stellaris/driverlib/sysctl.c ****            (ulVoltage == SYSCTL_LDO_2_45V) ||
1559:/home/cuil/workspace/arm/lm3s811/TI_Stellaris/driverlib/sysctl.c ****            (ulVoltage == SYSCTL_LDO_2_50V) ||
1560:/home/cuil/workspace/arm/lm3s811/TI_Stellaris/driverlib/sysctl.c ****            (ulVoltage == SYSCTL_LDO_2_55V) ||
1561:/home/cuil/workspace/arm/lm3s811/TI_Stellaris/driverlib/sysctl.c ****            (ulVoltage == SYSCTL_LDO_2_60V) ||
1562:/home/cuil/workspace/arm/lm3s811/TI_Stellaris/driverlib/sysctl.c ****            (ulVoltage == SYSCTL_LDO_2_65V) ||
1563:/home/cuil/workspace/arm/lm3s811/TI_Stellaris/driverlib/sysctl.c ****            (ulVoltage == SYSCTL_LDO_2_70V) ||
1564:/home/cuil/workspace/arm/lm3s811/TI_Stellaris/driverlib/sysctl.c ****            (ulVoltage == SYSCTL_LDO_2_75V));
1565:/home/cuil/workspace/arm/lm3s811/TI_Stellaris/driverlib/sysctl.c **** 
1566:/home/cuil/workspace/arm/lm3s811/TI_Stellaris/driverlib/sysctl.c ****     //
1567:/home/cuil/workspace/arm/lm3s811/TI_Stellaris/driverlib/sysctl.c ****     // Set the LDO voltage to the requested value.
1568:/home/cuil/workspace/arm/lm3s811/TI_Stellaris/driverlib/sysctl.c ****     //
1569:/home/cuil/workspace/arm/lm3s811/TI_Stellaris/driverlib/sysctl.c ****     HWREG(SYSCTL_LDOPCTL) = ulVoltage;
 13116              		.loc 1 1569 0
 13117 0008 034B     		ldr	r3, .L97
 13118 000a 7A68     		ldr	r2, [r7, #4]
 13119 000c 1A60     		str	r2, [r3, #0]
1570:/home/cuil/workspace/arm/lm3s811/TI_Stellaris/driverlib/sysctl.c **** }
 13120              		.loc 1 1570 0
 13121 000e 07F10C07 		add	r7, r7, #12
 13122 0012 BD46     		mov	sp, r7
 13123 0014 80BC     		pop	{r7}
 13124 0016 7047     		bx	lr
 13125              	.L98:
 13126              		.align	2
 13127              	.L97:
 13128 0018 34E00F40 		.word	1074782260
 13129              		.cfi_endproc
 13130              	.LFE22:
 13132              		.section	.text.SysCtlLDOGet,"ax",%progbits
 13133              		.align	2
 13134              		.global	SysCtlLDOGet
 13135              		.thumb
 13136              		.thumb_func
 13138              	SysCtlLDOGet:
 13139              	.LFB23:
1571:/home/cuil/workspace/arm/lm3s811/TI_Stellaris/driverlib/sysctl.c **** 
1572:/home/cuil/workspace/arm/lm3s811/TI_Stellaris/driverlib/sysctl.c **** //*****************************************************************************
1573:/home/cuil/workspace/arm/lm3s811/TI_Stellaris/driverlib/sysctl.c **** //
1574:/home/cuil/workspace/arm/lm3s811/TI_Stellaris/driverlib/sysctl.c **** //! Gets the output voltage of the LDO.
1575:/home/cuil/workspace/arm/lm3s811/TI_Stellaris/driverlib/sysctl.c **** //!
1576:/home/cuil/workspace/arm/lm3s811/TI_Stellaris/driverlib/sysctl.c **** //! This function determines the output voltage of the LDO, as specified by the
1577:/home/cuil/workspace/arm/lm3s811/TI_Stellaris/driverlib/sysctl.c **** //! control register.
1578:/home/cuil/workspace/arm/lm3s811/TI_Stellaris/driverlib/sysctl.c **** //!
1579:/home/cuil/workspace/arm/lm3s811/TI_Stellaris/driverlib/sysctl.c **** //! \return Returns the current voltage of the LDO; is one of
1580:/home/cuil/workspace/arm/lm3s811/TI_Stellaris/driverlib/sysctl.c **** //! \b SYSCTL_LDO_2_25V, \b SYSCTL_LDO_2_30V, \b SYSCTL_LDO_2_35V,
1581:/home/cuil/workspace/arm/lm3s811/TI_Stellaris/driverlib/sysctl.c **** //! \b SYSCTL_LDO_2_40V, \b SYSCTL_LDO_2_45V, \b SYSCTL_LDO_2_50V,
1582:/home/cuil/workspace/arm/lm3s811/TI_Stellaris/driverlib/sysctl.c **** //! \b SYSCTL_LDO_2_55V, \b SYSCTL_LDO_2_60V, \b SYSCTL_LDO_2_65V,
1583:/home/cuil/workspace/arm/lm3s811/TI_Stellaris/driverlib/sysctl.c **** //! \b SYSCTL_LDO_2_70V, or \b SYSCTL_LDO_2_75V.
1584:/home/cuil/workspace/arm/lm3s811/TI_Stellaris/driverlib/sysctl.c **** //
1585:/home/cuil/workspace/arm/lm3s811/TI_Stellaris/driverlib/sysctl.c **** //*****************************************************************************
1586:/home/cuil/workspace/arm/lm3s811/TI_Stellaris/driverlib/sysctl.c **** unsigned long
1587:/home/cuil/workspace/arm/lm3s811/TI_Stellaris/driverlib/sysctl.c **** SysCtlLDOGet(void)
1588:/home/cuil/workspace/arm/lm3s811/TI_Stellaris/driverlib/sysctl.c **** {
 13140              		.loc 1 1588 0
 13141              		.cfi_startproc
 13142              		@ args = 0, pretend = 0, frame = 0
 13143              		@ frame_needed = 1, uses_anonymous_args = 0
 13144              		@ link register save eliminated.
 13145 0000 80B4     		push	{r7}
 13146              	.LCFI66:
 13147              		.cfi_def_cfa_offset 4
 13148 0002 00AF     		add	r7, sp, #0
 13149              		.cfi_offset 7, -4
 13150              	.LCFI67:
 13151              		.cfi_def_cfa_register 7
1589:/home/cuil/workspace/arm/lm3s811/TI_Stellaris/driverlib/sysctl.c ****     //
1590:/home/cuil/workspace/arm/lm3s811/TI_Stellaris/driverlib/sysctl.c ****     // Return the LDO voltage setting.
1591:/home/cuil/workspace/arm/lm3s811/TI_Stellaris/driverlib/sysctl.c ****     //
1592:/home/cuil/workspace/arm/lm3s811/TI_Stellaris/driverlib/sysctl.c ****     return(HWREG(SYSCTL_LDOPCTL));
 13152              		.loc 1 1592 0
 13153 0004 024B     		ldr	r3, .L100
 13154 0006 1B68     		ldr	r3, [r3, #0]
1593:/home/cuil/workspace/arm/lm3s811/TI_Stellaris/driverlib/sysctl.c **** }
 13155              		.loc 1 1593 0
 13156 0008 1846     		mov	r0, r3
 13157 000a BD46     		mov	sp, r7
 13158 000c 80BC     		pop	{r7}
 13159 000e 7047     		bx	lr
 13160              	.L101:
 13161              		.align	2
 13162              	.L100:
 13163 0010 34E00F40 		.word	1074782260
 13164              		.cfi_endproc
 13165              	.LFE23:
 13167              		.section	.text.SysCtlLDOConfigSet,"ax",%progbits
 13168              		.align	2
 13169              		.global	SysCtlLDOConfigSet
 13170              		.thumb
 13171              		.thumb_func
 13173              	SysCtlLDOConfigSet:
 13174              	.LFB24:
1594:/home/cuil/workspace/arm/lm3s811/TI_Stellaris/driverlib/sysctl.c **** 
1595:/home/cuil/workspace/arm/lm3s811/TI_Stellaris/driverlib/sysctl.c **** //*****************************************************************************
1596:/home/cuil/workspace/arm/lm3s811/TI_Stellaris/driverlib/sysctl.c **** //
1597:/home/cuil/workspace/arm/lm3s811/TI_Stellaris/driverlib/sysctl.c **** //! Configures the LDO failure control.
1598:/home/cuil/workspace/arm/lm3s811/TI_Stellaris/driverlib/sysctl.c **** //!
1599:/home/cuil/workspace/arm/lm3s811/TI_Stellaris/driverlib/sysctl.c **** //! \param ulConfig is the required LDO failure control setting; can be either
1600:/home/cuil/workspace/arm/lm3s811/TI_Stellaris/driverlib/sysctl.c **** //! \b SYSCTL_LDOCFG_ARST or \b SYSCTL_LDOCFG_NORST.
1601:/home/cuil/workspace/arm/lm3s811/TI_Stellaris/driverlib/sysctl.c **** //!
1602:/home/cuil/workspace/arm/lm3s811/TI_Stellaris/driverlib/sysctl.c **** //! This function allows the LDO to be configured to cause a processor reset
1603:/home/cuil/workspace/arm/lm3s811/TI_Stellaris/driverlib/sysctl.c **** //! when the output voltage becomes unregulated.
1604:/home/cuil/workspace/arm/lm3s811/TI_Stellaris/driverlib/sysctl.c **** //!
1605:/home/cuil/workspace/arm/lm3s811/TI_Stellaris/driverlib/sysctl.c **** //! The LDO failure control is only available on Sandstorm-class devices.
1606:/home/cuil/workspace/arm/lm3s811/TI_Stellaris/driverlib/sysctl.c **** //!
1607:/home/cuil/workspace/arm/lm3s811/TI_Stellaris/driverlib/sysctl.c **** //! \return None.
1608:/home/cuil/workspace/arm/lm3s811/TI_Stellaris/driverlib/sysctl.c **** //
1609:/home/cuil/workspace/arm/lm3s811/TI_Stellaris/driverlib/sysctl.c **** //*****************************************************************************
1610:/home/cuil/workspace/arm/lm3s811/TI_Stellaris/driverlib/sysctl.c **** void
1611:/home/cuil/workspace/arm/lm3s811/TI_Stellaris/driverlib/sysctl.c **** SysCtlLDOConfigSet(unsigned long ulConfig)
1612:/home/cuil/workspace/arm/lm3s811/TI_Stellaris/driverlib/sysctl.c **** {
 13175              		.loc 1 1612 0
 13176              		.cfi_startproc
 13177              		@ args = 0, pretend = 0, frame = 8
 13178              		@ frame_needed = 1, uses_anonymous_args = 0
 13179              		@ link register save eliminated.
 13180 0000 80B4     		push	{r7}
 13181              	.LCFI68:
 13182              		.cfi_def_cfa_offset 4
 13183 0002 83B0     		sub	sp, sp, #12
 13184              	.LCFI69:
 13185              		.cfi_def_cfa_offset 16
 13186 0004 00AF     		add	r7, sp, #0
 13187              		.cfi_offset 7, -4
 13188              	.LCFI70:
 13189              		.cfi_def_cfa_register 7
 13190 0006 7860     		str	r0, [r7, #4]
1613:/home/cuil/workspace/arm/lm3s811/TI_Stellaris/driverlib/sysctl.c ****     //
1614:/home/cuil/workspace/arm/lm3s811/TI_Stellaris/driverlib/sysctl.c ****     // Check the arguments.
1615:/home/cuil/workspace/arm/lm3s811/TI_Stellaris/driverlib/sysctl.c ****     //
1616:/home/cuil/workspace/arm/lm3s811/TI_Stellaris/driverlib/sysctl.c ****     ASSERT((ulConfig == SYSCTL_LDOCFG_ARST) ||
1617:/home/cuil/workspace/arm/lm3s811/TI_Stellaris/driverlib/sysctl.c ****            (ulConfig == SYSCTL_LDOCFG_NORST));
1618:/home/cuil/workspace/arm/lm3s811/TI_Stellaris/driverlib/sysctl.c **** 
1619:/home/cuil/workspace/arm/lm3s811/TI_Stellaris/driverlib/sysctl.c ****     //
1620:/home/cuil/workspace/arm/lm3s811/TI_Stellaris/driverlib/sysctl.c ****     // Set the reset control as requested.
1621:/home/cuil/workspace/arm/lm3s811/TI_Stellaris/driverlib/sysctl.c ****     //
1622:/home/cuil/workspace/arm/lm3s811/TI_Stellaris/driverlib/sysctl.c ****     HWREG(SYSCTL_LDOARST) = ulConfig;
 13191              		.loc 1 1622 0
 13192 0008 034B     		ldr	r3, .L103
 13193 000a 7A68     		ldr	r2, [r7, #4]
 13194 000c 1A60     		str	r2, [r3, #0]
1623:/home/cuil/workspace/arm/lm3s811/TI_Stellaris/driverlib/sysctl.c **** }
 13195              		.loc 1 1623 0
 13196 000e 07F10C07 		add	r7, r7, #12
 13197 0012 BD46     		mov	sp, r7
 13198 0014 80BC     		pop	{r7}
 13199 0016 7047     		bx	lr
 13200              	.L104:
 13201              		.align	2
 13202              	.L103:
 13203 0018 60E10F40 		.word	1074782560
 13204              		.cfi_endproc
 13205              	.LFE24:
 13207              		.section	.text.SysCtlReset,"ax",%progbits
 13208              		.align	2
 13209              		.global	SysCtlReset
 13210              		.thumb
 13211              		.thumb_func
 13213              	SysCtlReset:
 13214              	.LFB25:
1624:/home/cuil/workspace/arm/lm3s811/TI_Stellaris/driverlib/sysctl.c **** 
1625:/home/cuil/workspace/arm/lm3s811/TI_Stellaris/driverlib/sysctl.c **** //*****************************************************************************
1626:/home/cuil/workspace/arm/lm3s811/TI_Stellaris/driverlib/sysctl.c **** //
1627:/home/cuil/workspace/arm/lm3s811/TI_Stellaris/driverlib/sysctl.c **** //! Resets the device.
1628:/home/cuil/workspace/arm/lm3s811/TI_Stellaris/driverlib/sysctl.c **** //!
1629:/home/cuil/workspace/arm/lm3s811/TI_Stellaris/driverlib/sysctl.c **** //! This function performs a software reset of the entire device.  The
1630:/home/cuil/workspace/arm/lm3s811/TI_Stellaris/driverlib/sysctl.c **** //! processor and all peripherals are reset and all device registers are
1631:/home/cuil/workspace/arm/lm3s811/TI_Stellaris/driverlib/sysctl.c **** //! returned to their default values (with the exception of the reset cause
1632:/home/cuil/workspace/arm/lm3s811/TI_Stellaris/driverlib/sysctl.c **** //! register, which maintains its current value but has the software reset
1633:/home/cuil/workspace/arm/lm3s811/TI_Stellaris/driverlib/sysctl.c **** //! bit set as well).
1634:/home/cuil/workspace/arm/lm3s811/TI_Stellaris/driverlib/sysctl.c **** //!
1635:/home/cuil/workspace/arm/lm3s811/TI_Stellaris/driverlib/sysctl.c **** //! \return This function does not return.
1636:/home/cuil/workspace/arm/lm3s811/TI_Stellaris/driverlib/sysctl.c **** //
1637:/home/cuil/workspace/arm/lm3s811/TI_Stellaris/driverlib/sysctl.c **** //*****************************************************************************
1638:/home/cuil/workspace/arm/lm3s811/TI_Stellaris/driverlib/sysctl.c **** void
1639:/home/cuil/workspace/arm/lm3s811/TI_Stellaris/driverlib/sysctl.c **** SysCtlReset(void)
1640:/home/cuil/workspace/arm/lm3s811/TI_Stellaris/driverlib/sysctl.c **** {
 13215              		.loc 1 1640 0
 13216              		.cfi_startproc
 13217              		@ args = 0, pretend = 0, frame = 0
 13218              		@ frame_needed = 1, uses_anonymous_args = 0
 13219              		@ link register save eliminated.
 13220 0000 80B4     		push	{r7}
 13221              	.LCFI71:
 13222              		.cfi_def_cfa_offset 4
 13223 0002 00AF     		add	r7, sp, #0
 13224              		.cfi_offset 7, -4
 13225              	.LCFI72:
 13226              		.cfi_def_cfa_register 7
1641:/home/cuil/workspace/arm/lm3s811/TI_Stellaris/driverlib/sysctl.c ****     //
1642:/home/cuil/workspace/arm/lm3s811/TI_Stellaris/driverlib/sysctl.c ****     // Perform a software reset request.  This request causes the device to 
1643:/home/cuil/workspace/arm/lm3s811/TI_Stellaris/driverlib/sysctl.c ****     // reset, no further code is executed.
1644:/home/cuil/workspace/arm/lm3s811/TI_Stellaris/driverlib/sysctl.c ****     //
1645:/home/cuil/workspace/arm/lm3s811/TI_Stellaris/driverlib/sysctl.c ****     HWREG(NVIC_APINT) = NVIC_APINT_VECTKEY | NVIC_APINT_SYSRESETREQ;
 13227              		.loc 1 1645 0
 13228 0004 014B     		ldr	r3, .L107
 13229 0006 024A     		ldr	r2, .L107+4
 13230 0008 1A60     		str	r2, [r3, #0]
 13231              	.L106:
1646:/home/cuil/workspace/arm/lm3s811/TI_Stellaris/driverlib/sysctl.c **** 
1647:/home/cuil/workspace/arm/lm3s811/TI_Stellaris/driverlib/sysctl.c ****     //
1648:/home/cuil/workspace/arm/lm3s811/TI_Stellaris/driverlib/sysctl.c ****     // The device should have reset, so this should never be reached.  Just in
1649:/home/cuil/workspace/arm/lm3s811/TI_Stellaris/driverlib/sysctl.c ****     // case, loop forever.
1650:/home/cuil/workspace/arm/lm3s811/TI_Stellaris/driverlib/sysctl.c ****     //
1651:/home/cuil/workspace/arm/lm3s811/TI_Stellaris/driverlib/sysctl.c ****     while(1)
1652:/home/cuil/workspace/arm/lm3s811/TI_Stellaris/driverlib/sysctl.c ****     {
1653:/home/cuil/workspace/arm/lm3s811/TI_Stellaris/driverlib/sysctl.c ****     }
 13232              		.loc 1 1653 0 discriminator 1
 13233 000a FEE7     		b	.L106
 13234              	.L108:
 13235              		.align	2
 13236              	.L107:
 13237 000c 0CED00E0 		.word	-536810228
 13238 0010 0400FA05 		.word	100270084
 13239              		.cfi_endproc
 13240              	.LFE25:
 13242              		.section	.text.SysCtlSleep,"ax",%progbits
 13243              		.align	2
 13244              		.global	SysCtlSleep
 13245              		.thumb
 13246              		.thumb_func
 13248              	SysCtlSleep:
 13249              	.LFB26:
1654:/home/cuil/workspace/arm/lm3s811/TI_Stellaris/driverlib/sysctl.c **** }
1655:/home/cuil/workspace/arm/lm3s811/TI_Stellaris/driverlib/sysctl.c **** 
1656:/home/cuil/workspace/arm/lm3s811/TI_Stellaris/driverlib/sysctl.c **** //*****************************************************************************
1657:/home/cuil/workspace/arm/lm3s811/TI_Stellaris/driverlib/sysctl.c **** //
1658:/home/cuil/workspace/arm/lm3s811/TI_Stellaris/driverlib/sysctl.c **** //! Puts the processor into sleep mode.
1659:/home/cuil/workspace/arm/lm3s811/TI_Stellaris/driverlib/sysctl.c **** //!
1660:/home/cuil/workspace/arm/lm3s811/TI_Stellaris/driverlib/sysctl.c **** //! This function places the processor into sleep mode; it does not return
1661:/home/cuil/workspace/arm/lm3s811/TI_Stellaris/driverlib/sysctl.c **** //! until the processor returns to run mode.  The peripherals that are enabled
1662:/home/cuil/workspace/arm/lm3s811/TI_Stellaris/driverlib/sysctl.c **** //! via SysCtlPeripheralSleepEnable() continue to operate and can wake up the
1663:/home/cuil/workspace/arm/lm3s811/TI_Stellaris/driverlib/sysctl.c **** //! processor (if automatic clock gating is enabled with
1664:/home/cuil/workspace/arm/lm3s811/TI_Stellaris/driverlib/sysctl.c **** //! SysCtlPeripheralClockGating(), otherwise all peripherals continue to
1665:/home/cuil/workspace/arm/lm3s811/TI_Stellaris/driverlib/sysctl.c **** //! operate).
1666:/home/cuil/workspace/arm/lm3s811/TI_Stellaris/driverlib/sysctl.c **** //!
1667:/home/cuil/workspace/arm/lm3s811/TI_Stellaris/driverlib/sysctl.c **** //! \return None.
1668:/home/cuil/workspace/arm/lm3s811/TI_Stellaris/driverlib/sysctl.c **** //
1669:/home/cuil/workspace/arm/lm3s811/TI_Stellaris/driverlib/sysctl.c **** //*****************************************************************************
1670:/home/cuil/workspace/arm/lm3s811/TI_Stellaris/driverlib/sysctl.c **** void
1671:/home/cuil/workspace/arm/lm3s811/TI_Stellaris/driverlib/sysctl.c **** SysCtlSleep(void)
1672:/home/cuil/workspace/arm/lm3s811/TI_Stellaris/driverlib/sysctl.c **** {
 13250              		.loc 1 1672 0
 13251              		.cfi_startproc
 13252              		@ args = 0, pretend = 0, frame = 0
 13253              		@ frame_needed = 1, uses_anonymous_args = 0
 13254 0000 80B5     		push	{r7, lr}
 13255              	.LCFI73:
 13256              		.cfi_def_cfa_offset 8
 13257 0002 00AF     		add	r7, sp, #0
 13258              		.cfi_offset 14, -4
 13259              		.cfi_offset 7, -8
 13260              	.LCFI74:
 13261              		.cfi_def_cfa_register 7
1673:/home/cuil/workspace/arm/lm3s811/TI_Stellaris/driverlib/sysctl.c ****     //
1674:/home/cuil/workspace/arm/lm3s811/TI_Stellaris/driverlib/sysctl.c ****     // Wait for an interrupt.
1675:/home/cuil/workspace/arm/lm3s811/TI_Stellaris/driverlib/sysctl.c ****     //
1676:/home/cuil/workspace/arm/lm3s811/TI_Stellaris/driverlib/sysctl.c ****     CPUwfi();
 13262              		.loc 1 1676 0
 13263 0004 FFF7FEFF 		bl	CPUwfi
1677:/home/cuil/workspace/arm/lm3s811/TI_Stellaris/driverlib/sysctl.c **** }
 13264              		.loc 1 1677 0
 13265 0008 80BD     		pop	{r7, pc}
 13266              		.cfi_endproc
 13267              	.LFE26:
 13269 000a 00BF     		.section	.text.SysCtlDeepSleep,"ax",%progbits
 13270              		.align	2
 13271              		.global	SysCtlDeepSleep
 13272              		.thumb
 13273              		.thumb_func
 13275              	SysCtlDeepSleep:
 13276              	.LFB27:
1678:/home/cuil/workspace/arm/lm3s811/TI_Stellaris/driverlib/sysctl.c **** 
1679:/home/cuil/workspace/arm/lm3s811/TI_Stellaris/driverlib/sysctl.c **** //*****************************************************************************
1680:/home/cuil/workspace/arm/lm3s811/TI_Stellaris/driverlib/sysctl.c **** //
1681:/home/cuil/workspace/arm/lm3s811/TI_Stellaris/driverlib/sysctl.c **** //! Puts the processor into deep-sleep mode.
1682:/home/cuil/workspace/arm/lm3s811/TI_Stellaris/driverlib/sysctl.c **** //!
1683:/home/cuil/workspace/arm/lm3s811/TI_Stellaris/driverlib/sysctl.c **** //! This function places the processor into deep-sleep mode; it does not return
1684:/home/cuil/workspace/arm/lm3s811/TI_Stellaris/driverlib/sysctl.c **** //! until the processor returns to run mode.  The peripherals that are enabled
1685:/home/cuil/workspace/arm/lm3s811/TI_Stellaris/driverlib/sysctl.c **** //! via SysCtlPeripheralDeepSleepEnable() continue to operate and can wake up
1686:/home/cuil/workspace/arm/lm3s811/TI_Stellaris/driverlib/sysctl.c **** //! the processor (if automatic clock gating is enabled with
1687:/home/cuil/workspace/arm/lm3s811/TI_Stellaris/driverlib/sysctl.c **** //! SysCtlPeripheralClockGating(), otherwise all peripherals continue to
1688:/home/cuil/workspace/arm/lm3s811/TI_Stellaris/driverlib/sysctl.c **** //! operate).
1689:/home/cuil/workspace/arm/lm3s811/TI_Stellaris/driverlib/sysctl.c **** //!
1690:/home/cuil/workspace/arm/lm3s811/TI_Stellaris/driverlib/sysctl.c **** //! \return None.
1691:/home/cuil/workspace/arm/lm3s811/TI_Stellaris/driverlib/sysctl.c **** //
1692:/home/cuil/workspace/arm/lm3s811/TI_Stellaris/driverlib/sysctl.c **** //*****************************************************************************
1693:/home/cuil/workspace/arm/lm3s811/TI_Stellaris/driverlib/sysctl.c **** void
1694:/home/cuil/workspace/arm/lm3s811/TI_Stellaris/driverlib/sysctl.c **** SysCtlDeepSleep(void)
1695:/home/cuil/workspace/arm/lm3s811/TI_Stellaris/driverlib/sysctl.c **** {
 13277              		.loc 1 1695 0
 13278              		.cfi_startproc
 13279              		@ args = 0, pretend = 0, frame = 0
 13280              		@ frame_needed = 1, uses_anonymous_args = 0
 13281 0000 80B5     		push	{r7, lr}
 13282              	.LCFI75:
 13283              		.cfi_def_cfa_offset 8
 13284 0002 00AF     		add	r7, sp, #0
 13285              		.cfi_offset 14, -4
 13286              		.cfi_offset 7, -8
 13287              	.LCFI76:
 13288              		.cfi_def_cfa_register 7
1696:/home/cuil/workspace/arm/lm3s811/TI_Stellaris/driverlib/sysctl.c ****     //
1697:/home/cuil/workspace/arm/lm3s811/TI_Stellaris/driverlib/sysctl.c ****     // Enable deep-sleep.
1698:/home/cuil/workspace/arm/lm3s811/TI_Stellaris/driverlib/sysctl.c ****     //
1699:/home/cuil/workspace/arm/lm3s811/TI_Stellaris/driverlib/sysctl.c ****     HWREG(NVIC_SYS_CTRL) |= NVIC_SYS_CTRL_SLEEPDEEP;
 13289              		.loc 1 1699 0
 13290 0004 074B     		ldr	r3, .L111
 13291 0006 074A     		ldr	r2, .L111
 13292 0008 1268     		ldr	r2, [r2, #0]
 13293 000a 42F00402 		orr	r2, r2, #4
 13294 000e 1A60     		str	r2, [r3, #0]
1700:/home/cuil/workspace/arm/lm3s811/TI_Stellaris/driverlib/sysctl.c **** 
1701:/home/cuil/workspace/arm/lm3s811/TI_Stellaris/driverlib/sysctl.c ****     //
1702:/home/cuil/workspace/arm/lm3s811/TI_Stellaris/driverlib/sysctl.c ****     // Wait for an interrupt.
1703:/home/cuil/workspace/arm/lm3s811/TI_Stellaris/driverlib/sysctl.c ****     //
1704:/home/cuil/workspace/arm/lm3s811/TI_Stellaris/driverlib/sysctl.c ****     CPUwfi();
 13295              		.loc 1 1704 0
 13296 0010 FFF7FEFF 		bl	CPUwfi
1705:/home/cuil/workspace/arm/lm3s811/TI_Stellaris/driverlib/sysctl.c **** 
1706:/home/cuil/workspace/arm/lm3s811/TI_Stellaris/driverlib/sysctl.c ****     //
1707:/home/cuil/workspace/arm/lm3s811/TI_Stellaris/driverlib/sysctl.c ****     // Disable deep-sleep so that a future sleep will work correctly.
1708:/home/cuil/workspace/arm/lm3s811/TI_Stellaris/driverlib/sysctl.c ****     //
1709:/home/cuil/workspace/arm/lm3s811/TI_Stellaris/driverlib/sysctl.c ****     HWREG(NVIC_SYS_CTRL) &= ~(NVIC_SYS_CTRL_SLEEPDEEP);
 13297              		.loc 1 1709 0
 13298 0014 034B     		ldr	r3, .L111
 13299 0016 034A     		ldr	r2, .L111
 13300 0018 1268     		ldr	r2, [r2, #0]
 13301 001a 22F00402 		bic	r2, r2, #4
 13302 001e 1A60     		str	r2, [r3, #0]
1710:/home/cuil/workspace/arm/lm3s811/TI_Stellaris/driverlib/sysctl.c **** }
 13303              		.loc 1 1710 0
 13304 0020 80BD     		pop	{r7, pc}
 13305              	.L112:
 13306 0022 00BF     		.align	2
 13307              	.L111:
 13308 0024 10ED00E0 		.word	-536810224
 13309              		.cfi_endproc
 13310              	.LFE27:
 13312              		.section	.text.SysCtlResetCauseGet,"ax",%progbits
 13313              		.align	2
 13314              		.global	SysCtlResetCauseGet
 13315              		.thumb
 13316              		.thumb_func
 13318              	SysCtlResetCauseGet:
 13319              	.LFB28:
1711:/home/cuil/workspace/arm/lm3s811/TI_Stellaris/driverlib/sysctl.c **** 
1712:/home/cuil/workspace/arm/lm3s811/TI_Stellaris/driverlib/sysctl.c **** //*****************************************************************************
1713:/home/cuil/workspace/arm/lm3s811/TI_Stellaris/driverlib/sysctl.c **** //
1714:/home/cuil/workspace/arm/lm3s811/TI_Stellaris/driverlib/sysctl.c **** //! Gets the reason for a reset.
1715:/home/cuil/workspace/arm/lm3s811/TI_Stellaris/driverlib/sysctl.c **** //!
1716:/home/cuil/workspace/arm/lm3s811/TI_Stellaris/driverlib/sysctl.c **** //! This function returns the reason(s) for a reset.  Because the reset
1717:/home/cuil/workspace/arm/lm3s811/TI_Stellaris/driverlib/sysctl.c **** //! reasons are sticky until either cleared by software or an external reset 
1718:/home/cuil/workspace/arm/lm3s811/TI_Stellaris/driverlib/sysctl.c **** //! (for Sandstorm-class devices) or a power-on reset (for all other classes),
1719:/home/cuil/workspace/arm/lm3s811/TI_Stellaris/driverlib/sysctl.c **** //! multiple reset reasons may be returned if multiple resets have occurred.
1720:/home/cuil/workspace/arm/lm3s811/TI_Stellaris/driverlib/sysctl.c **** //! The reset reason is a logical OR of \b SYSCTL_CAUSE_LDO,
1721:/home/cuil/workspace/arm/lm3s811/TI_Stellaris/driverlib/sysctl.c **** //! \b SYSCTL_CAUSE_SW, \b SYSCTL_CAUSE_WDOG, \b SYSCTL_CAUSE_BOR,
1722:/home/cuil/workspace/arm/lm3s811/TI_Stellaris/driverlib/sysctl.c **** //! \b SYSCTL_CAUSE_POR, and/or \b SYSCTL_CAUSE_EXT.
1723:/home/cuil/workspace/arm/lm3s811/TI_Stellaris/driverlib/sysctl.c **** //!
1724:/home/cuil/workspace/arm/lm3s811/TI_Stellaris/driverlib/sysctl.c **** //! \return Returns the reason(s) for a reset.
1725:/home/cuil/workspace/arm/lm3s811/TI_Stellaris/driverlib/sysctl.c **** //
1726:/home/cuil/workspace/arm/lm3s811/TI_Stellaris/driverlib/sysctl.c **** //*****************************************************************************
1727:/home/cuil/workspace/arm/lm3s811/TI_Stellaris/driverlib/sysctl.c **** unsigned long
1728:/home/cuil/workspace/arm/lm3s811/TI_Stellaris/driverlib/sysctl.c **** SysCtlResetCauseGet(void)
1729:/home/cuil/workspace/arm/lm3s811/TI_Stellaris/driverlib/sysctl.c **** {
 13320              		.loc 1 1729 0
 13321              		.cfi_startproc
 13322              		@ args = 0, pretend = 0, frame = 0
 13323              		@ frame_needed = 1, uses_anonymous_args = 0
 13324              		@ link register save eliminated.
 13325 0000 80B4     		push	{r7}
 13326              	.LCFI77:
 13327              		.cfi_def_cfa_offset 4
 13328 0002 00AF     		add	r7, sp, #0
 13329              		.cfi_offset 7, -4
 13330              	.LCFI78:
 13331              		.cfi_def_cfa_register 7
1730:/home/cuil/workspace/arm/lm3s811/TI_Stellaris/driverlib/sysctl.c ****     //
1731:/home/cuil/workspace/arm/lm3s811/TI_Stellaris/driverlib/sysctl.c ****     // Return the reset reasons.
1732:/home/cuil/workspace/arm/lm3s811/TI_Stellaris/driverlib/sysctl.c ****     //
1733:/home/cuil/workspace/arm/lm3s811/TI_Stellaris/driverlib/sysctl.c ****     return(HWREG(SYSCTL_RESC));
 13332              		.loc 1 1733 0
 13333 0004 024B     		ldr	r3, .L114
 13334 0006 1B68     		ldr	r3, [r3, #0]
1734:/home/cuil/workspace/arm/lm3s811/TI_Stellaris/driverlib/sysctl.c **** }
 13335              		.loc 1 1734 0
 13336 0008 1846     		mov	r0, r3
 13337 000a BD46     		mov	sp, r7
 13338 000c 80BC     		pop	{r7}
 13339 000e 7047     		bx	lr
 13340              	.L115:
 13341              		.align	2
 13342              	.L114:
 13343 0010 5CE00F40 		.word	1074782300
 13344              		.cfi_endproc
 13345              	.LFE28:
 13347              		.section	.text.SysCtlResetCauseClear,"ax",%progbits
 13348              		.align	2
 13349              		.global	SysCtlResetCauseClear
 13350              		.thumb
 13351              		.thumb_func
 13353              	SysCtlResetCauseClear:
 13354              	.LFB29:
1735:/home/cuil/workspace/arm/lm3s811/TI_Stellaris/driverlib/sysctl.c **** 
1736:/home/cuil/workspace/arm/lm3s811/TI_Stellaris/driverlib/sysctl.c **** //*****************************************************************************
1737:/home/cuil/workspace/arm/lm3s811/TI_Stellaris/driverlib/sysctl.c **** //
1738:/home/cuil/workspace/arm/lm3s811/TI_Stellaris/driverlib/sysctl.c **** //! Clears reset reasons.
1739:/home/cuil/workspace/arm/lm3s811/TI_Stellaris/driverlib/sysctl.c **** //!
1740:/home/cuil/workspace/arm/lm3s811/TI_Stellaris/driverlib/sysctl.c **** //! \param ulCauses are the reset causes to be cleared; must be a logical OR of
1741:/home/cuil/workspace/arm/lm3s811/TI_Stellaris/driverlib/sysctl.c **** //! \b SYSCTL_CAUSE_LDO, \b SYSCTL_CAUSE_SW, \b SYSCTL_CAUSE_WDOG,
1742:/home/cuil/workspace/arm/lm3s811/TI_Stellaris/driverlib/sysctl.c **** //! \b SYSCTL_CAUSE_BOR, \b SYSCTL_CAUSE_POR, and/or \b SYSCTL_CAUSE_EXT.
1743:/home/cuil/workspace/arm/lm3s811/TI_Stellaris/driverlib/sysctl.c **** //!
1744:/home/cuil/workspace/arm/lm3s811/TI_Stellaris/driverlib/sysctl.c **** //! This function clears the specified sticky reset reasons.  Once cleared,
1745:/home/cuil/workspace/arm/lm3s811/TI_Stellaris/driverlib/sysctl.c **** //! another reset for the same reason can be detected, and a reset for a
1746:/home/cuil/workspace/arm/lm3s811/TI_Stellaris/driverlib/sysctl.c **** //! different reason can be distinguished (instead of having two reset causes
1747:/home/cuil/workspace/arm/lm3s811/TI_Stellaris/driverlib/sysctl.c **** //! set).  If the reset reason is used by an application, all reset causes
1748:/home/cuil/workspace/arm/lm3s811/TI_Stellaris/driverlib/sysctl.c **** //! should be cleared after they are retrieved with SysCtlResetCauseGet().
1749:/home/cuil/workspace/arm/lm3s811/TI_Stellaris/driverlib/sysctl.c **** //!
1750:/home/cuil/workspace/arm/lm3s811/TI_Stellaris/driverlib/sysctl.c **** //! \return None.
1751:/home/cuil/workspace/arm/lm3s811/TI_Stellaris/driverlib/sysctl.c **** //
1752:/home/cuil/workspace/arm/lm3s811/TI_Stellaris/driverlib/sysctl.c **** //*****************************************************************************
1753:/home/cuil/workspace/arm/lm3s811/TI_Stellaris/driverlib/sysctl.c **** void
1754:/home/cuil/workspace/arm/lm3s811/TI_Stellaris/driverlib/sysctl.c **** SysCtlResetCauseClear(unsigned long ulCauses)
1755:/home/cuil/workspace/arm/lm3s811/TI_Stellaris/driverlib/sysctl.c **** {
 13355              		.loc 1 1755 0
 13356              		.cfi_startproc
 13357              		@ args = 0, pretend = 0, frame = 8
 13358              		@ frame_needed = 1, uses_anonymous_args = 0
 13359              		@ link register save eliminated.
 13360 0000 80B4     		push	{r7}
 13361              	.LCFI79:
 13362              		.cfi_def_cfa_offset 4
 13363 0002 83B0     		sub	sp, sp, #12
 13364              	.LCFI80:
 13365              		.cfi_def_cfa_offset 16
 13366 0004 00AF     		add	r7, sp, #0
 13367              		.cfi_offset 7, -4
 13368              	.LCFI81:
 13369              		.cfi_def_cfa_register 7
 13370 0006 7860     		str	r0, [r7, #4]
1756:/home/cuil/workspace/arm/lm3s811/TI_Stellaris/driverlib/sysctl.c ****     //
1757:/home/cuil/workspace/arm/lm3s811/TI_Stellaris/driverlib/sysctl.c ****     // Clear the given reset reasons.
1758:/home/cuil/workspace/arm/lm3s811/TI_Stellaris/driverlib/sysctl.c ****     //
1759:/home/cuil/workspace/arm/lm3s811/TI_Stellaris/driverlib/sysctl.c ****     HWREG(SYSCTL_RESC) &= ~(ulCauses);
 13371              		.loc 1 1759 0
 13372 0008 064B     		ldr	r3, .L117
 13373 000a 064A     		ldr	r2, .L117
 13374 000c 1168     		ldr	r1, [r2, #0]
 13375 000e 7A68     		ldr	r2, [r7, #4]
 13376 0010 6FEA0202 		mvn	r2, r2
 13377 0014 01EA0202 		and	r2, r1, r2
 13378 0018 1A60     		str	r2, [r3, #0]
1760:/home/cuil/workspace/arm/lm3s811/TI_Stellaris/driverlib/sysctl.c **** }
 13379              		.loc 1 1760 0
 13380 001a 07F10C07 		add	r7, r7, #12
 13381 001e BD46     		mov	sp, r7
 13382 0020 80BC     		pop	{r7}
 13383 0022 7047     		bx	lr
 13384              	.L118:
 13385              		.align	2
 13386              	.L117:
 13387 0024 5CE00F40 		.word	1074782300
 13388              		.cfi_endproc
 13389              	.LFE29:
 13391              		.section	.text.SysCtlBrownOutConfigSet,"ax",%progbits
 13392              		.align	2
 13393              		.global	SysCtlBrownOutConfigSet
 13394              		.thumb
 13395              		.thumb_func
 13397              	SysCtlBrownOutConfigSet:
 13398              	.LFB30:
1761:/home/cuil/workspace/arm/lm3s811/TI_Stellaris/driverlib/sysctl.c **** 
1762:/home/cuil/workspace/arm/lm3s811/TI_Stellaris/driverlib/sysctl.c **** //*****************************************************************************
1763:/home/cuil/workspace/arm/lm3s811/TI_Stellaris/driverlib/sysctl.c **** //
1764:/home/cuil/workspace/arm/lm3s811/TI_Stellaris/driverlib/sysctl.c **** //! Configures the brown-out control.
1765:/home/cuil/workspace/arm/lm3s811/TI_Stellaris/driverlib/sysctl.c **** //!
1766:/home/cuil/workspace/arm/lm3s811/TI_Stellaris/driverlib/sysctl.c **** //! \param ulConfig is the desired configuration of the brown-out control.
1767:/home/cuil/workspace/arm/lm3s811/TI_Stellaris/driverlib/sysctl.c **** //! Must be the logical OR of \b SYSCTL_BOR_RESET and/or
1768:/home/cuil/workspace/arm/lm3s811/TI_Stellaris/driverlib/sysctl.c **** //! \b SYSCTL_BOR_RESAMPLE.
1769:/home/cuil/workspace/arm/lm3s811/TI_Stellaris/driverlib/sysctl.c **** //! \param ulDelay is the number of internal oscillator cycles to wait before
1770:/home/cuil/workspace/arm/lm3s811/TI_Stellaris/driverlib/sysctl.c **** //! resampling an asserted brown-out signal.  This value only has meaning when
1771:/home/cuil/workspace/arm/lm3s811/TI_Stellaris/driverlib/sysctl.c **** //! \b SYSCTL_BOR_RESAMPLE is set and must be less than 8192.
1772:/home/cuil/workspace/arm/lm3s811/TI_Stellaris/driverlib/sysctl.c **** //!
1773:/home/cuil/workspace/arm/lm3s811/TI_Stellaris/driverlib/sysctl.c **** //! This function configures how the brown-out control operates.  It can detect
1774:/home/cuil/workspace/arm/lm3s811/TI_Stellaris/driverlib/sysctl.c **** //! a brown-out by looking at only the brown-out output, or it can wait for it
1775:/home/cuil/workspace/arm/lm3s811/TI_Stellaris/driverlib/sysctl.c **** //! to be active for two consecutive samples separated by a configurable time.
1776:/home/cuil/workspace/arm/lm3s811/TI_Stellaris/driverlib/sysctl.c **** //! When it detects a brown-out condition, it can either reset the device or
1777:/home/cuil/workspace/arm/lm3s811/TI_Stellaris/driverlib/sysctl.c **** //! generate a processor interrupt.
1778:/home/cuil/workspace/arm/lm3s811/TI_Stellaris/driverlib/sysctl.c **** //!
1779:/home/cuil/workspace/arm/lm3s811/TI_Stellaris/driverlib/sysctl.c **** //! \note The availability of the resample feature is only available on 
1780:/home/cuil/workspace/arm/lm3s811/TI_Stellaris/driverlib/sysctl.c **** //! Sandstorm-class devices. Please consult the datasheet for the part you
1781:/home/cuil/workspace/arm/lm3s811/TI_Stellaris/driverlib/sysctl.c **** //! are using to determine whether this feature is available.
1782:/home/cuil/workspace/arm/lm3s811/TI_Stellaris/driverlib/sysctl.c **** //!
1783:/home/cuil/workspace/arm/lm3s811/TI_Stellaris/driverlib/sysctl.c **** //! \return None.
1784:/home/cuil/workspace/arm/lm3s811/TI_Stellaris/driverlib/sysctl.c **** //
1785:/home/cuil/workspace/arm/lm3s811/TI_Stellaris/driverlib/sysctl.c **** //*****************************************************************************
1786:/home/cuil/workspace/arm/lm3s811/TI_Stellaris/driverlib/sysctl.c **** void
1787:/home/cuil/workspace/arm/lm3s811/TI_Stellaris/driverlib/sysctl.c **** SysCtlBrownOutConfigSet(unsigned long ulConfig, unsigned long ulDelay)
1788:/home/cuil/workspace/arm/lm3s811/TI_Stellaris/driverlib/sysctl.c **** {
 13399              		.loc 1 1788 0
 13400              		.cfi_startproc
 13401              		@ args = 0, pretend = 0, frame = 8
 13402              		@ frame_needed = 1, uses_anonymous_args = 0
 13403              		@ link register save eliminated.
 13404 0000 80B4     		push	{r7}
 13405              	.LCFI82:
 13406              		.cfi_def_cfa_offset 4
 13407 0002 83B0     		sub	sp, sp, #12
 13408              	.LCFI83:
 13409              		.cfi_def_cfa_offset 16
 13410 0004 00AF     		add	r7, sp, #0
 13411              		.cfi_offset 7, -4
 13412              	.LCFI84:
 13413              		.cfi_def_cfa_register 7
 13414 0006 7860     		str	r0, [r7, #4]
 13415 0008 3960     		str	r1, [r7, #0]
1789:/home/cuil/workspace/arm/lm3s811/TI_Stellaris/driverlib/sysctl.c ****     //
1790:/home/cuil/workspace/arm/lm3s811/TI_Stellaris/driverlib/sysctl.c ****     // Check the arguments.
1791:/home/cuil/workspace/arm/lm3s811/TI_Stellaris/driverlib/sysctl.c ****     //
1792:/home/cuil/workspace/arm/lm3s811/TI_Stellaris/driverlib/sysctl.c ****     ASSERT(!(ulConfig & ~(SYSCTL_BOR_RESET | SYSCTL_BOR_RESAMPLE)));
1793:/home/cuil/workspace/arm/lm3s811/TI_Stellaris/driverlib/sysctl.c ****     ASSERT(ulDelay < 8192);
1794:/home/cuil/workspace/arm/lm3s811/TI_Stellaris/driverlib/sysctl.c **** 
1795:/home/cuil/workspace/arm/lm3s811/TI_Stellaris/driverlib/sysctl.c ****     //
1796:/home/cuil/workspace/arm/lm3s811/TI_Stellaris/driverlib/sysctl.c ****     // Configure the brown-out reset control.
1797:/home/cuil/workspace/arm/lm3s811/TI_Stellaris/driverlib/sysctl.c ****     //
1798:/home/cuil/workspace/arm/lm3s811/TI_Stellaris/driverlib/sysctl.c ****     HWREG(SYSCTL_PBORCTL) = (ulDelay << SYSCTL_PBORCTL_BORTIM_S) | ulConfig;
 13416              		.loc 1 1798 0
 13417 000a 064B     		ldr	r3, .L120
 13418 000c 3A68     		ldr	r2, [r7, #0]
 13419 000e 4FEA8201 		lsl	r1, r2, #2
 13420 0012 7A68     		ldr	r2, [r7, #4]
 13421 0014 41EA0202 		orr	r2, r1, r2
 13422 0018 1A60     		str	r2, [r3, #0]
1799:/home/cuil/workspace/arm/lm3s811/TI_Stellaris/driverlib/sysctl.c **** }
 13423              		.loc 1 1799 0
 13424 001a 07F10C07 		add	r7, r7, #12
 13425 001e BD46     		mov	sp, r7
 13426 0020 80BC     		pop	{r7}
 13427 0022 7047     		bx	lr
 13428              	.L121:
 13429              		.align	2
 13430              	.L120:
 13431 0024 30E00F40 		.word	1074782256
 13432              		.cfi_endproc
 13433              	.LFE30:
 13435              		.section	.text.SysCtlDelay,"ax",%progbits
 13436              		.align	2
 13437              		.global	SysCtlDelay
 13438              		.thumb
 13439              		.thumb_func
 13441              	SysCtlDelay:
 13442              	.LFB31:
1800:/home/cuil/workspace/arm/lm3s811/TI_Stellaris/driverlib/sysctl.c **** 
1801:/home/cuil/workspace/arm/lm3s811/TI_Stellaris/driverlib/sysctl.c **** //*****************************************************************************
1802:/home/cuil/workspace/arm/lm3s811/TI_Stellaris/driverlib/sysctl.c **** //
1803:/home/cuil/workspace/arm/lm3s811/TI_Stellaris/driverlib/sysctl.c **** //! Provides a small delay.
1804:/home/cuil/workspace/arm/lm3s811/TI_Stellaris/driverlib/sysctl.c **** //!
1805:/home/cuil/workspace/arm/lm3s811/TI_Stellaris/driverlib/sysctl.c **** //! \param ulCount is the number of delay loop iterations to perform.
1806:/home/cuil/workspace/arm/lm3s811/TI_Stellaris/driverlib/sysctl.c **** //!
1807:/home/cuil/workspace/arm/lm3s811/TI_Stellaris/driverlib/sysctl.c **** //! This function provides a means of generating a constant length delay.  It
1808:/home/cuil/workspace/arm/lm3s811/TI_Stellaris/driverlib/sysctl.c **** //! is written in assembly to keep the delay consistent across tool chains,
1809:/home/cuil/workspace/arm/lm3s811/TI_Stellaris/driverlib/sysctl.c **** //! avoiding the need to tune the delay based on the tool chain in use.
1810:/home/cuil/workspace/arm/lm3s811/TI_Stellaris/driverlib/sysctl.c **** //!
1811:/home/cuil/workspace/arm/lm3s811/TI_Stellaris/driverlib/sysctl.c **** //! The loop takes 3 cycles/loop.
1812:/home/cuil/workspace/arm/lm3s811/TI_Stellaris/driverlib/sysctl.c **** //!
1813:/home/cuil/workspace/arm/lm3s811/TI_Stellaris/driverlib/sysctl.c **** //! \return None.
1814:/home/cuil/workspace/arm/lm3s811/TI_Stellaris/driverlib/sysctl.c **** //
1815:/home/cuil/workspace/arm/lm3s811/TI_Stellaris/driverlib/sysctl.c **** //*****************************************************************************
1816:/home/cuil/workspace/arm/lm3s811/TI_Stellaris/driverlib/sysctl.c **** #if defined(ewarm) || defined(DOXYGEN)
1817:/home/cuil/workspace/arm/lm3s811/TI_Stellaris/driverlib/sysctl.c **** void
1818:/home/cuil/workspace/arm/lm3s811/TI_Stellaris/driverlib/sysctl.c **** SysCtlDelay(unsigned long ulCount)
1819:/home/cuil/workspace/arm/lm3s811/TI_Stellaris/driverlib/sysctl.c **** {
1820:/home/cuil/workspace/arm/lm3s811/TI_Stellaris/driverlib/sysctl.c ****     __asm("    subs    r0, #1\n"
1821:/home/cuil/workspace/arm/lm3s811/TI_Stellaris/driverlib/sysctl.c ****           "    bne.n   SysCtlDelay\n"
1822:/home/cuil/workspace/arm/lm3s811/TI_Stellaris/driverlib/sysctl.c ****           "    bx      lr");
1823:/home/cuil/workspace/arm/lm3s811/TI_Stellaris/driverlib/sysctl.c **** }
1824:/home/cuil/workspace/arm/lm3s811/TI_Stellaris/driverlib/sysctl.c **** #endif
1825:/home/cuil/workspace/arm/lm3s811/TI_Stellaris/driverlib/sysctl.c **** #if defined(codered) || defined(gcc) || defined(sourcerygxx)
1826:/home/cuil/workspace/arm/lm3s811/TI_Stellaris/driverlib/sysctl.c **** void __attribute__((naked))
1827:/home/cuil/workspace/arm/lm3s811/TI_Stellaris/driverlib/sysctl.c **** SysCtlDelay(unsigned long ulCount)
1828:/home/cuil/workspace/arm/lm3s811/TI_Stellaris/driverlib/sysctl.c **** {
 13443              		.loc 1 1828 0
 13444              		.cfi_startproc
 13445              		@ Naked Function: prologue and epilogue provided by programmer.
 13446              		@ args = 0, pretend = 0, frame = 0
 13447              		@ frame_needed = 1, uses_anonymous_args = 0
1829:/home/cuil/workspace/arm/lm3s811/TI_Stellaris/driverlib/sysctl.c ****     __asm("    subs    r0, #1\n"
 13448              		.loc 1 1829 0
 13449              	@ 1829 "/home/cuil/workspace/arm/lm3s811/TI_Stellaris/driverlib/sysctl.c" 1
 13450 0000 0138     		    subs    r0, #1
 13451 0002 FED1     	    bne     SysCtlDelay
 13452 0004 7047     	    bx      lr
 13453              	@ 0 "" 2
1830:/home/cuil/workspace/arm/lm3s811/TI_Stellaris/driverlib/sysctl.c ****           "    bne     SysCtlDelay\n"
1831:/home/cuil/workspace/arm/lm3s811/TI_Stellaris/driverlib/sysctl.c ****           "    bx      lr");
1832:/home/cuil/workspace/arm/lm3s811/TI_Stellaris/driverlib/sysctl.c **** }
 13454              		.loc 1 1832 0
 13455              		.thumb
 13456              		.cfi_endproc
 13457              	.LFE31:
 13459              		.section	.text.SysCtlMOSCConfigSet,"ax",%progbits
 13460              		.align	2
 13461              		.global	SysCtlMOSCConfigSet
 13462              		.thumb
 13463              		.thumb_func
 13465              	SysCtlMOSCConfigSet:
 13466              	.LFB32:
1833:/home/cuil/workspace/arm/lm3s811/TI_Stellaris/driverlib/sysctl.c **** #endif
1834:/home/cuil/workspace/arm/lm3s811/TI_Stellaris/driverlib/sysctl.c **** #if defined(rvmdk) || defined(__ARMCC_VERSION)
1835:/home/cuil/workspace/arm/lm3s811/TI_Stellaris/driverlib/sysctl.c **** __asm void
1836:/home/cuil/workspace/arm/lm3s811/TI_Stellaris/driverlib/sysctl.c **** SysCtlDelay(unsigned long ulCount)
1837:/home/cuil/workspace/arm/lm3s811/TI_Stellaris/driverlib/sysctl.c **** {
1838:/home/cuil/workspace/arm/lm3s811/TI_Stellaris/driverlib/sysctl.c ****     subs    r0, #1;
1839:/home/cuil/workspace/arm/lm3s811/TI_Stellaris/driverlib/sysctl.c ****     bne     SysCtlDelay;
1840:/home/cuil/workspace/arm/lm3s811/TI_Stellaris/driverlib/sysctl.c ****     bx      lr;
1841:/home/cuil/workspace/arm/lm3s811/TI_Stellaris/driverlib/sysctl.c **** }
1842:/home/cuil/workspace/arm/lm3s811/TI_Stellaris/driverlib/sysctl.c **** #endif
1843:/home/cuil/workspace/arm/lm3s811/TI_Stellaris/driverlib/sysctl.c **** //
1844:/home/cuil/workspace/arm/lm3s811/TI_Stellaris/driverlib/sysctl.c **** // For CCS implement this function in pure assembly.  This prevents the TI
1845:/home/cuil/workspace/arm/lm3s811/TI_Stellaris/driverlib/sysctl.c **** // compiler from doing funny things with the optimizer.
1846:/home/cuil/workspace/arm/lm3s811/TI_Stellaris/driverlib/sysctl.c **** //
1847:/home/cuil/workspace/arm/lm3s811/TI_Stellaris/driverlib/sysctl.c **** #if defined(ccs)
1848:/home/cuil/workspace/arm/lm3s811/TI_Stellaris/driverlib/sysctl.c ****     __asm("    .sect \".text:SysCtlDelay\"\n"
1849:/home/cuil/workspace/arm/lm3s811/TI_Stellaris/driverlib/sysctl.c ****           "    .clink\n"
1850:/home/cuil/workspace/arm/lm3s811/TI_Stellaris/driverlib/sysctl.c ****           "    .thumbfunc SysCtlDelay\n"
1851:/home/cuil/workspace/arm/lm3s811/TI_Stellaris/driverlib/sysctl.c ****           "    .thumb\n"
1852:/home/cuil/workspace/arm/lm3s811/TI_Stellaris/driverlib/sysctl.c ****           "    .global SysCtlDelay\n"
1853:/home/cuil/workspace/arm/lm3s811/TI_Stellaris/driverlib/sysctl.c ****           "SysCtlDelay:\n"
1854:/home/cuil/workspace/arm/lm3s811/TI_Stellaris/driverlib/sysctl.c ****           "    subs r0, #1\n"
1855:/home/cuil/workspace/arm/lm3s811/TI_Stellaris/driverlib/sysctl.c ****           "    bne.n SysCtlDelay\n"
1856:/home/cuil/workspace/arm/lm3s811/TI_Stellaris/driverlib/sysctl.c ****           "    bx lr\n");
1857:/home/cuil/workspace/arm/lm3s811/TI_Stellaris/driverlib/sysctl.c **** #endif
1858:/home/cuil/workspace/arm/lm3s811/TI_Stellaris/driverlib/sysctl.c **** 
1859:/home/cuil/workspace/arm/lm3s811/TI_Stellaris/driverlib/sysctl.c **** //*****************************************************************************
1860:/home/cuil/workspace/arm/lm3s811/TI_Stellaris/driverlib/sysctl.c **** //
1861:/home/cuil/workspace/arm/lm3s811/TI_Stellaris/driverlib/sysctl.c **** //! Sets the configuration of the main oscillator (MOSC) control.
1862:/home/cuil/workspace/arm/lm3s811/TI_Stellaris/driverlib/sysctl.c **** //!
1863:/home/cuil/workspace/arm/lm3s811/TI_Stellaris/driverlib/sysctl.c **** //! \param ulConfig is the required configuration of the MOSC control.
1864:/home/cuil/workspace/arm/lm3s811/TI_Stellaris/driverlib/sysctl.c **** //!
1865:/home/cuil/workspace/arm/lm3s811/TI_Stellaris/driverlib/sysctl.c **** //! This function configures the control of the main oscillator.  The
1866:/home/cuil/workspace/arm/lm3s811/TI_Stellaris/driverlib/sysctl.c **** //! \e ulConfig is specified as follows:
1867:/home/cuil/workspace/arm/lm3s811/TI_Stellaris/driverlib/sysctl.c **** //!
1868:/home/cuil/workspace/arm/lm3s811/TI_Stellaris/driverlib/sysctl.c **** //! - \b SYSCTL_MOSC_VALIDATE enables the MOSC verification circuit that
1869:/home/cuil/workspace/arm/lm3s811/TI_Stellaris/driverlib/sysctl.c **** //!   detects a failure of the main oscillator (such as a loss of the clock).
1870:/home/cuil/workspace/arm/lm3s811/TI_Stellaris/driverlib/sysctl.c **** //! - \b SYSCTL_MOSC_INTERRUPT indicates that a MOSC failure should generate an
1871:/home/cuil/workspace/arm/lm3s811/TI_Stellaris/driverlib/sysctl.c **** //!   interrupt instead of resetting the processor.
1872:/home/cuil/workspace/arm/lm3s811/TI_Stellaris/driverlib/sysctl.c **** //! - \b SYSCTL_MOSC_NO_XTAL indicates that there is no crystal connected to
1873:/home/cuil/workspace/arm/lm3s811/TI_Stellaris/driverlib/sysctl.c **** //!   the OSC0/OSC1 pins, allowing power consumption to be reduced.
1874:/home/cuil/workspace/arm/lm3s811/TI_Stellaris/driverlib/sysctl.c **** //!
1875:/home/cuil/workspace/arm/lm3s811/TI_Stellaris/driverlib/sysctl.c **** //! \note The availability of MOSC control varies based on the Stellaris part
1876:/home/cuil/workspace/arm/lm3s811/TI_Stellaris/driverlib/sysctl.c **** //! in use.  Please consult the data sheet for the part you are using to
1877:/home/cuil/workspace/arm/lm3s811/TI_Stellaris/driverlib/sysctl.c **** //! determine whether this support is available. In addition, the capability 
1878:/home/cuil/workspace/arm/lm3s811/TI_Stellaris/driverlib/sysctl.c **** //! of MOSC control varies based on the Stellaris part in use.
1879:/home/cuil/workspace/arm/lm3s811/TI_Stellaris/driverlib/sysctl.c **** //!
1880:/home/cuil/workspace/arm/lm3s811/TI_Stellaris/driverlib/sysctl.c **** //! \return None.
1881:/home/cuil/workspace/arm/lm3s811/TI_Stellaris/driverlib/sysctl.c **** //
1882:/home/cuil/workspace/arm/lm3s811/TI_Stellaris/driverlib/sysctl.c **** //*****************************************************************************
1883:/home/cuil/workspace/arm/lm3s811/TI_Stellaris/driverlib/sysctl.c **** void
1884:/home/cuil/workspace/arm/lm3s811/TI_Stellaris/driverlib/sysctl.c **** SysCtlMOSCConfigSet(unsigned long ulConfig)
1885:/home/cuil/workspace/arm/lm3s811/TI_Stellaris/driverlib/sysctl.c **** {
 13467              		.loc 1 1885 0
 13468              		.cfi_startproc
 13469              		@ args = 0, pretend = 0, frame = 8
 13470              		@ frame_needed = 1, uses_anonymous_args = 0
 13471              		@ link register save eliminated.
 13472 0000 80B4     		push	{r7}
 13473              	.LCFI85:
 13474              		.cfi_def_cfa_offset 4
 13475 0002 83B0     		sub	sp, sp, #12
 13476              	.LCFI86:
 13477              		.cfi_def_cfa_offset 16
 13478 0004 00AF     		add	r7, sp, #0
 13479              		.cfi_offset 7, -4
 13480              	.LCFI87:
 13481              		.cfi_def_cfa_register 7
 13482 0006 7860     		str	r0, [r7, #4]
1886:/home/cuil/workspace/arm/lm3s811/TI_Stellaris/driverlib/sysctl.c ****     //
1887:/home/cuil/workspace/arm/lm3s811/TI_Stellaris/driverlib/sysctl.c ****     // Configure the MOSC control.
1888:/home/cuil/workspace/arm/lm3s811/TI_Stellaris/driverlib/sysctl.c ****     //
1889:/home/cuil/workspace/arm/lm3s811/TI_Stellaris/driverlib/sysctl.c ****     HWREG(SYSCTL_MOSCCTL) = ulConfig;
 13483              		.loc 1 1889 0
 13484 0008 034B     		ldr	r3, .L124
 13485 000a 7A68     		ldr	r2, [r7, #4]
 13486 000c 1A60     		str	r2, [r3, #0]
1890:/home/cuil/workspace/arm/lm3s811/TI_Stellaris/driverlib/sysctl.c **** }
 13487              		.loc 1 1890 0
 13488 000e 07F10C07 		add	r7, r7, #12
 13489 0012 BD46     		mov	sp, r7
 13490 0014 80BC     		pop	{r7}
 13491 0016 7047     		bx	lr
 13492              	.L125:
 13493              		.align	2
 13494              	.L124:
 13495 0018 7CE00F40 		.word	1074782332
 13496              		.cfi_endproc
 13497              	.LFE32:
 13499              		.section	.text.SysCtlPIOSCCalibrate,"ax",%progbits
 13500              		.align	2
 13501              		.global	SysCtlPIOSCCalibrate
 13502              		.thumb
 13503              		.thumb_func
 13505              	SysCtlPIOSCCalibrate:
 13506              	.LFB33:
1891:/home/cuil/workspace/arm/lm3s811/TI_Stellaris/driverlib/sysctl.c **** 
1892:/home/cuil/workspace/arm/lm3s811/TI_Stellaris/driverlib/sysctl.c **** //*****************************************************************************
1893:/home/cuil/workspace/arm/lm3s811/TI_Stellaris/driverlib/sysctl.c **** //
1894:/home/cuil/workspace/arm/lm3s811/TI_Stellaris/driverlib/sysctl.c **** //! Calibrates the precision internal oscillator.
1895:/home/cuil/workspace/arm/lm3s811/TI_Stellaris/driverlib/sysctl.c **** //!
1896:/home/cuil/workspace/arm/lm3s811/TI_Stellaris/driverlib/sysctl.c **** //! \param ulType is the type of calibration to perform.
1897:/home/cuil/workspace/arm/lm3s811/TI_Stellaris/driverlib/sysctl.c **** //!
1898:/home/cuil/workspace/arm/lm3s811/TI_Stellaris/driverlib/sysctl.c **** //! This function performs a calibration of the PIOSC.  There are three types
1899:/home/cuil/workspace/arm/lm3s811/TI_Stellaris/driverlib/sysctl.c **** //! of calibration available; the desired calibration type as specified in
1900:/home/cuil/workspace/arm/lm3s811/TI_Stellaris/driverlib/sysctl.c **** //! \e ulType is one of:
1901:/home/cuil/workspace/arm/lm3s811/TI_Stellaris/driverlib/sysctl.c **** //!
1902:/home/cuil/workspace/arm/lm3s811/TI_Stellaris/driverlib/sysctl.c **** //! - \b SYSCTL_PIOSC_CAL_AUTO to perform automatic calibration using the
1903:/home/cuil/workspace/arm/lm3s811/TI_Stellaris/driverlib/sysctl.c **** //!   32-kHz clock from the hibernate module as a reference.  This type is 
1904:/home/cuil/workspace/arm/lm3s811/TI_Stellaris/driverlib/sysctl.c **** //!   only possible on parts that have a hibernate module, and then only if 
1905:/home/cuil/workspace/arm/lm3s811/TI_Stellaris/driverlib/sysctl.c **** //!   it is enabled and the hibernate module's RTC is also enabled.
1906:/home/cuil/workspace/arm/lm3s811/TI_Stellaris/driverlib/sysctl.c **** //!
1907:/home/cuil/workspace/arm/lm3s811/TI_Stellaris/driverlib/sysctl.c **** //! - \b SYSCTL_PIOSC_CAL_FACT to reset the PIOSC calibration to the factory
1908:/home/cuil/workspace/arm/lm3s811/TI_Stellaris/driverlib/sysctl.c **** //!   provided calibration.
1909:/home/cuil/workspace/arm/lm3s811/TI_Stellaris/driverlib/sysctl.c **** //!
1910:/home/cuil/workspace/arm/lm3s811/TI_Stellaris/driverlib/sysctl.c **** //! - \b SYSCTL_PIOSC_CAL_USER to set the PIOSC calibration to a user-supplied
1911:/home/cuil/workspace/arm/lm3s811/TI_Stellaris/driverlib/sysctl.c **** //!   value.  The value to be used is ORed into the lower 7-bits of this value,
1912:/home/cuil/workspace/arm/lm3s811/TI_Stellaris/driverlib/sysctl.c **** //!   with 0x40 being the ``nominal'' value (in other words, if everything were
1913:/home/cuil/workspace/arm/lm3s811/TI_Stellaris/driverlib/sysctl.c **** //!   perfect, 0x40 provides exactly 16 MHz).  Values larger than 0x40
1914:/home/cuil/workspace/arm/lm3s811/TI_Stellaris/driverlib/sysctl.c **** //!   slow down PIOSC, and values smaller than 0x40 speed up PIOSC.
1915:/home/cuil/workspace/arm/lm3s811/TI_Stellaris/driverlib/sysctl.c **** //!
1916:/home/cuil/workspace/arm/lm3s811/TI_Stellaris/driverlib/sysctl.c **** //! \return None.
1917:/home/cuil/workspace/arm/lm3s811/TI_Stellaris/driverlib/sysctl.c **** //
1918:/home/cuil/workspace/arm/lm3s811/TI_Stellaris/driverlib/sysctl.c **** //*****************************************************************************
1919:/home/cuil/workspace/arm/lm3s811/TI_Stellaris/driverlib/sysctl.c **** unsigned long
1920:/home/cuil/workspace/arm/lm3s811/TI_Stellaris/driverlib/sysctl.c **** SysCtlPIOSCCalibrate(unsigned long ulType)
1921:/home/cuil/workspace/arm/lm3s811/TI_Stellaris/driverlib/sysctl.c **** {
 13507              		.loc 1 1921 0
 13508              		.cfi_startproc
 13509              		@ args = 0, pretend = 0, frame = 8
 13510              		@ frame_needed = 1, uses_anonymous_args = 0
 13511              		@ link register save eliminated.
 13512 0000 80B4     		push	{r7}
 13513              	.LCFI88:
 13514              		.cfi_def_cfa_offset 4
 13515 0002 83B0     		sub	sp, sp, #12
 13516              	.LCFI89:
 13517              		.cfi_def_cfa_offset 16
 13518 0004 00AF     		add	r7, sp, #0
 13519              		.cfi_offset 7, -4
 13520              	.LCFI90:
 13521              		.cfi_def_cfa_register 7
 13522 0006 7860     		str	r0, [r7, #4]
1922:/home/cuil/workspace/arm/lm3s811/TI_Stellaris/driverlib/sysctl.c ****     //
1923:/home/cuil/workspace/arm/lm3s811/TI_Stellaris/driverlib/sysctl.c ****     // Perform the requested calibration.  If performing user calibration, the
1924:/home/cuil/workspace/arm/lm3s811/TI_Stellaris/driverlib/sysctl.c ****     // UTEN bit must be set with one write, then the UT field in a second
1925:/home/cuil/workspace/arm/lm3s811/TI_Stellaris/driverlib/sysctl.c ****     // write, and the UPDATE bit in a final write.  For other calibration
1926:/home/cuil/workspace/arm/lm3s811/TI_Stellaris/driverlib/sysctl.c ****     // types, a single write to set UPDATE or CAL is all that is required.
1927:/home/cuil/workspace/arm/lm3s811/TI_Stellaris/driverlib/sysctl.c ****     //
1928:/home/cuil/workspace/arm/lm3s811/TI_Stellaris/driverlib/sysctl.c ****     if(ulType & (SYSCTL_PIOSCCAL_UTEN | SYSCTL_PIOSCCAL_UPDATE))
 13523              		.loc 1 1928 0
 13524 0008 7A68     		ldr	r2, [r7, #4]
 13525 000a 184B     		ldr	r3, .L131
 13526 000c 02EA0303 		and	r3, r2, r3
 13527 0010 002B     		cmp	r3, #0
 13528 0012 0AD0     		beq	.L127
1929:/home/cuil/workspace/arm/lm3s811/TI_Stellaris/driverlib/sysctl.c ****     {
1930:/home/cuil/workspace/arm/lm3s811/TI_Stellaris/driverlib/sysctl.c ****         HWREG(SYSCTL_PIOSCCAL) = ulType & SYSCTL_PIOSCCAL_UTEN;
 13529              		.loc 1 1930 0
 13530 0014 164B     		ldr	r3, .L131+4
 13531 0016 7A68     		ldr	r2, [r7, #4]
 13532 0018 02F00042 		and	r2, r2, #-2147483648
 13533 001c 1A60     		str	r2, [r3, #0]
1931:/home/cuil/workspace/arm/lm3s811/TI_Stellaris/driverlib/sysctl.c ****         HWREG(SYSCTL_PIOSCCAL) =
 13534              		.loc 1 1931 0
 13535 001e 144A     		ldr	r2, .L131+4
1932:/home/cuil/workspace/arm/lm3s811/TI_Stellaris/driverlib/sysctl.c ****             ulType & (SYSCTL_PIOSCCAL_UTEN | SYSCTL_PIOSCCAL_UT_M);
 13536              		.loc 1 1932 0
 13537 0020 7968     		ldr	r1, [r7, #4]
 13538 0022 144B     		ldr	r3, .L131+8
 13539 0024 01EA0303 		and	r3, r1, r3
1931:/home/cuil/workspace/arm/lm3s811/TI_Stellaris/driverlib/sysctl.c ****         HWREG(SYSCTL_PIOSCCAL) =
 13540              		.loc 1 1931 0
 13541 0028 1360     		str	r3, [r2, #0]
 13542              	.L127:
1933:/home/cuil/workspace/arm/lm3s811/TI_Stellaris/driverlib/sysctl.c ****     }
1934:/home/cuil/workspace/arm/lm3s811/TI_Stellaris/driverlib/sysctl.c ****     HWREG(SYSCTL_PIOSCCAL) = ulType;
 13543              		.loc 1 1934 0
 13544 002a 114B     		ldr	r3, .L131+4
 13545 002c 7A68     		ldr	r2, [r7, #4]
 13546 002e 1A60     		str	r2, [r3, #0]
1935:/home/cuil/workspace/arm/lm3s811/TI_Stellaris/driverlib/sysctl.c **** 
1936:/home/cuil/workspace/arm/lm3s811/TI_Stellaris/driverlib/sysctl.c ****     //
1937:/home/cuil/workspace/arm/lm3s811/TI_Stellaris/driverlib/sysctl.c ****     // See if an automatic calibration was requested.
1938:/home/cuil/workspace/arm/lm3s811/TI_Stellaris/driverlib/sysctl.c ****     //
1939:/home/cuil/workspace/arm/lm3s811/TI_Stellaris/driverlib/sysctl.c ****     if(ulType & SYSCTL_PIOSCCAL_CAL)
 13547              		.loc 1 1939 0
 13548 0030 7B68     		ldr	r3, [r7, #4]
 13549 0032 03F40073 		and	r3, r3, #512
 13550 0036 002B     		cmp	r3, #0
 13551 0038 10D0     		beq	.L128
1940:/home/cuil/workspace/arm/lm3s811/TI_Stellaris/driverlib/sysctl.c ****     {
1941:/home/cuil/workspace/arm/lm3s811/TI_Stellaris/driverlib/sysctl.c ****         //
1942:/home/cuil/workspace/arm/lm3s811/TI_Stellaris/driverlib/sysctl.c ****         // Wait for the automatic calibration to complete.
1943:/home/cuil/workspace/arm/lm3s811/TI_Stellaris/driverlib/sysctl.c ****         //
1944:/home/cuil/workspace/arm/lm3s811/TI_Stellaris/driverlib/sysctl.c ****         while((HWREG(SYSCTL_PIOSCSTAT) & SYSCTL_PIOSCSTAT_CR_M) == 0)
 13552              		.loc 1 1944 0
 13553 003a 00BF     		nop
 13554              	.L129:
 13555              		.loc 1 1944 0 is_stmt 0 discriminator 1
 13556 003c 0E4B     		ldr	r3, .L131+12
 13557 003e 1B68     		ldr	r3, [r3, #0]
 13558 0040 03F44073 		and	r3, r3, #768
 13559 0044 002B     		cmp	r3, #0
 13560 0046 F9D0     		beq	.L129
1945:/home/cuil/workspace/arm/lm3s811/TI_Stellaris/driverlib/sysctl.c ****         {
1946:/home/cuil/workspace/arm/lm3s811/TI_Stellaris/driverlib/sysctl.c ****         }
1947:/home/cuil/workspace/arm/lm3s811/TI_Stellaris/driverlib/sysctl.c **** 
1948:/home/cuil/workspace/arm/lm3s811/TI_Stellaris/driverlib/sysctl.c ****         //
1949:/home/cuil/workspace/arm/lm3s811/TI_Stellaris/driverlib/sysctl.c ****         // If the automatic calibration failed, return an error.
1950:/home/cuil/workspace/arm/lm3s811/TI_Stellaris/driverlib/sysctl.c ****         //
1951:/home/cuil/workspace/arm/lm3s811/TI_Stellaris/driverlib/sysctl.c ****         if((HWREG(SYSCTL_PIOSCSTAT) & SYSCTL_PIOSCSTAT_CR_M) !=
 13561              		.loc 1 1951 0 is_stmt 1
 13562 0048 0B4B     		ldr	r3, .L131+12
 13563 004a 1B68     		ldr	r3, [r3, #0]
 13564 004c 03F44073 		and	r3, r3, #768
 13565 0050 B3F5807F 		cmp	r3, #256
 13566 0054 02D0     		beq	.L128
1952:/home/cuil/workspace/arm/lm3s811/TI_Stellaris/driverlib/sysctl.c ****            SYSCTL_PIOSCSTAT_CRPASS)
1953:/home/cuil/workspace/arm/lm3s811/TI_Stellaris/driverlib/sysctl.c ****         {
1954:/home/cuil/workspace/arm/lm3s811/TI_Stellaris/driverlib/sysctl.c ****             return(0);
 13567              		.loc 1 1954 0
 13568 0056 4FF00003 		mov	r3, #0
 13569 005a 01E0     		b	.L130
 13570              	.L128:
1955:/home/cuil/workspace/arm/lm3s811/TI_Stellaris/driverlib/sysctl.c ****         }
1956:/home/cuil/workspace/arm/lm3s811/TI_Stellaris/driverlib/sysctl.c ****     }
1957:/home/cuil/workspace/arm/lm3s811/TI_Stellaris/driverlib/sysctl.c **** 
1958:/home/cuil/workspace/arm/lm3s811/TI_Stellaris/driverlib/sysctl.c ****     //
1959:/home/cuil/workspace/arm/lm3s811/TI_Stellaris/driverlib/sysctl.c ****     // The calibration was successful.
1960:/home/cuil/workspace/arm/lm3s811/TI_Stellaris/driverlib/sysctl.c ****     //
1961:/home/cuil/workspace/arm/lm3s811/TI_Stellaris/driverlib/sysctl.c ****     return(1);
 13571              		.loc 1 1961 0
 13572 005c 4FF00103 		mov	r3, #1
 13573              	.L130:
1962:/home/cuil/workspace/arm/lm3s811/TI_Stellaris/driverlib/sysctl.c **** }
 13574              		.loc 1 1962 0
 13575 0060 1846     		mov	r0, r3
 13576 0062 07F10C07 		add	r7, r7, #12
 13577 0066 BD46     		mov	sp, r7
 13578 0068 80BC     		pop	{r7}
 13579 006a 7047     		bx	lr
 13580              	.L132:
 13581              		.align	2
 13582              	.L131:
 13583 006c 00010080 		.word	-2147483392
 13584 0070 50E10F40 		.word	1074782544
 13585 0074 7F000080 		.word	-2147483521
 13586 0078 54E10F40 		.word	1074782548
 13587              		.cfi_endproc
 13588              	.LFE33:
 13590              		.section	.text.SysCtlClockSet,"ax",%progbits
 13591              		.align	2
 13592              		.global	SysCtlClockSet
 13593              		.thumb
 13594              		.thumb_func
 13596              	SysCtlClockSet:
 13597              	.LFB34:
1963:/home/cuil/workspace/arm/lm3s811/TI_Stellaris/driverlib/sysctl.c **** 
1964:/home/cuil/workspace/arm/lm3s811/TI_Stellaris/driverlib/sysctl.c **** //*****************************************************************************
1965:/home/cuil/workspace/arm/lm3s811/TI_Stellaris/driverlib/sysctl.c **** //
1966:/home/cuil/workspace/arm/lm3s811/TI_Stellaris/driverlib/sysctl.c **** //! Sets the clocking of the device.
1967:/home/cuil/workspace/arm/lm3s811/TI_Stellaris/driverlib/sysctl.c **** //!
1968:/home/cuil/workspace/arm/lm3s811/TI_Stellaris/driverlib/sysctl.c **** //! \param ulConfig is the required configuration of the device clocking.
1969:/home/cuil/workspace/arm/lm3s811/TI_Stellaris/driverlib/sysctl.c **** //!
1970:/home/cuil/workspace/arm/lm3s811/TI_Stellaris/driverlib/sysctl.c **** //! This function configures the clocking of the device.  The input crystal
1971:/home/cuil/workspace/arm/lm3s811/TI_Stellaris/driverlib/sysctl.c **** //! frequency, oscillator to be used, use of the PLL, and the system clock
1972:/home/cuil/workspace/arm/lm3s811/TI_Stellaris/driverlib/sysctl.c **** //! divider are all configured with this function.
1973:/home/cuil/workspace/arm/lm3s811/TI_Stellaris/driverlib/sysctl.c **** //!
1974:/home/cuil/workspace/arm/lm3s811/TI_Stellaris/driverlib/sysctl.c **** //! The \e ulConfig parameter is the logical OR of several different values,
1975:/home/cuil/workspace/arm/lm3s811/TI_Stellaris/driverlib/sysctl.c **** //! many of which are grouped into sets where only one can be chosen.
1976:/home/cuil/workspace/arm/lm3s811/TI_Stellaris/driverlib/sysctl.c **** //!
1977:/home/cuil/workspace/arm/lm3s811/TI_Stellaris/driverlib/sysctl.c **** //! The system clock divider is chosen with one of the following values:
1978:/home/cuil/workspace/arm/lm3s811/TI_Stellaris/driverlib/sysctl.c **** //! \b SYSCTL_SYSDIV_1, \b SYSCTL_SYSDIV_2, \b SYSCTL_SYSDIV_3, ...
1979:/home/cuil/workspace/arm/lm3s811/TI_Stellaris/driverlib/sysctl.c **** //! \b SYSCTL_SYSDIV_64.  Only \b SYSCTL_SYSDIV_1 through \b SYSCTL_SYSDIV_16
1980:/home/cuil/workspace/arm/lm3s811/TI_Stellaris/driverlib/sysctl.c **** //! are valid on Sandstorm-class devices. Half-dividers, such as 
1981:/home/cuil/workspace/arm/lm3s811/TI_Stellaris/driverlib/sysctl.c **** //! \b SYSCTL_SYSDIV_2_5 and \b SYSCTL_SYSDIV_3_5. are available on Tempest-,
1982:/home/cuil/workspace/arm/lm3s811/TI_Stellaris/driverlib/sysctl.c **** //! Firestorm-, and Blizzard-class devices.
1983:/home/cuil/workspace/arm/lm3s811/TI_Stellaris/driverlib/sysctl.c **** //!
1984:/home/cuil/workspace/arm/lm3s811/TI_Stellaris/driverlib/sysctl.c **** //! The use of the PLL is chosen with either \b SYSCTL_USE_PLL or
1985:/home/cuil/workspace/arm/lm3s811/TI_Stellaris/driverlib/sysctl.c **** //! \b SYSCTL_USE_OSC.
1986:/home/cuil/workspace/arm/lm3s811/TI_Stellaris/driverlib/sysctl.c **** //!
1987:/home/cuil/workspace/arm/lm3s811/TI_Stellaris/driverlib/sysctl.c **** //! The external crystal frequency is chosen with one of the following values:
1988:/home/cuil/workspace/arm/lm3s811/TI_Stellaris/driverlib/sysctl.c **** //! \b SYSCTL_XTAL_1MHZ, \b SYSCTL_XTAL_1_84MHZ, \b SYSCTL_XTAL_2MHZ,
1989:/home/cuil/workspace/arm/lm3s811/TI_Stellaris/driverlib/sysctl.c **** //! \b SYSCTL_XTAL_2_45MHZ, \b SYSCTL_XTAL_3_57MHZ, \b SYSCTL_XTAL_3_68MHZ,
1990:/home/cuil/workspace/arm/lm3s811/TI_Stellaris/driverlib/sysctl.c **** //! \b SYSCTL_XTAL_4MHZ, \b SYSCTL_XTAL_4_09MHZ, \b SYSCTL_XTAL_4_91MHZ,
1991:/home/cuil/workspace/arm/lm3s811/TI_Stellaris/driverlib/sysctl.c **** //! \b SYSCTL_XTAL_5MHZ, \b SYSCTL_XTAL_5_12MHZ, \b SYSCTL_XTAL_6MHZ,
1992:/home/cuil/workspace/arm/lm3s811/TI_Stellaris/driverlib/sysctl.c **** //! \b SYSCTL_XTAL_6_14MHZ, \b SYSCTL_XTAL_7_37MHZ, \b SYSCTL_XTAL_8MHZ,
1993:/home/cuil/workspace/arm/lm3s811/TI_Stellaris/driverlib/sysctl.c **** //! \b SYSCTL_XTAL_8_19MHZ, \b SYSCTL_XTAL_10MHZ, \b SYSCTL_XTAL_12MHZ,
1994:/home/cuil/workspace/arm/lm3s811/TI_Stellaris/driverlib/sysctl.c **** //! \b SYSCTL_XTAL_12_2MHZ, \b SYSCTL_XTAL_13_5MHZ, \b SYSCTL_XTAL_14_3MHZ,
1995:/home/cuil/workspace/arm/lm3s811/TI_Stellaris/driverlib/sysctl.c **** //! \b SYSCTL_XTAL_16MHZ, \b SYSCTL_XTAL_16_3MHZ, \b SYSCTL_XTAL_18MHZ, 
1996:/home/cuil/workspace/arm/lm3s811/TI_Stellaris/driverlib/sysctl.c **** //! \b SYSCTL_XTAL_20MHZ, \b SYSCTL_XTAL_24MHZ, or \b SYSCTL_XTAL_25MHz.  
1997:/home/cuil/workspace/arm/lm3s811/TI_Stellaris/driverlib/sysctl.c **** //! Values below \b SYSCTL_XTAL_3_57MHZ are not valid when the PLL is in 
1998:/home/cuil/workspace/arm/lm3s811/TI_Stellaris/driverlib/sysctl.c **** //! operation on Sandstorm-, Fury-, Dustdevil-, Tempest-, and Firestorm-class.  
1999:/home/cuil/workspace/arm/lm3s811/TI_Stellaris/driverlib/sysctl.c **** //! devices. Values below \b SYSCTL_XTAL_5MHZ are not valid when the PLL is in
2000:/home/cuil/workspace/arm/lm3s811/TI_Stellaris/driverlib/sysctl.c **** //! operation on Blizzard-class devices.  Values below \b SYSCTL_XTAL_4MHZ
2001:/home/cuil/workspace/arm/lm3s811/TI_Stellaris/driverlib/sysctl.c **** //! are never valid on Blizzard-class devices. On  Sandstorm- and Fury-class 
2002:/home/cuil/workspace/arm/lm3s811/TI_Stellaris/driverlib/sysctl.c **** //! devices, values above \b SYSCTL_XTAL_8_19MHZ are not valid. On Dustdevil-,
2003:/home/cuil/workspace/arm/lm3s811/TI_Stellaris/driverlib/sysctl.c **** //! Tempest-, and Firestorm-class devices, values above \b SYSCTL_XTAL_16_3MHZ
2004:/home/cuil/workspace/arm/lm3s811/TI_Stellaris/driverlib/sysctl.c **** //! are not valid.
2005:/home/cuil/workspace/arm/lm3s811/TI_Stellaris/driverlib/sysctl.c **** //!
2006:/home/cuil/workspace/arm/lm3s811/TI_Stellaris/driverlib/sysctl.c **** //! The oscillator source is chosen with one of the following values:
2007:/home/cuil/workspace/arm/lm3s811/TI_Stellaris/driverlib/sysctl.c **** //! \b SYSCTL_OSC_MAIN, \b SYSCTL_OSC_INT, \b SYSCTL_OSC_INT4,
2008:/home/cuil/workspace/arm/lm3s811/TI_Stellaris/driverlib/sysctl.c **** //! \b SYSCTL_OSC_INT30, or \b SYSCTL_OSC_EXT32.  On Sandstorm-class devices,
2009:/home/cuil/workspace/arm/lm3s811/TI_Stellaris/driverlib/sysctl.c **** //! \b SYSCTL_OSC_INT30 and \b SYSCTL_OSC_EXT32 are not valid.
2010:/home/cuil/workspace/arm/lm3s811/TI_Stellaris/driverlib/sysctl.c **** //! \b SYSCTL_OSC_EXT32 is only available on devices with the hibernate module,
2011:/home/cuil/workspace/arm/lm3s811/TI_Stellaris/driverlib/sysctl.c **** //! and then only when the hibernate module has been enabled.
2012:/home/cuil/workspace/arm/lm3s811/TI_Stellaris/driverlib/sysctl.c **** //!
2013:/home/cuil/workspace/arm/lm3s811/TI_Stellaris/driverlib/sysctl.c **** //! The internal and main oscillators are disabled with the
2014:/home/cuil/workspace/arm/lm3s811/TI_Stellaris/driverlib/sysctl.c **** //! \b SYSCTL_INT_OSC_DIS and \b SYSCTL_MAIN_OSC_DIS flags, respectively.
2015:/home/cuil/workspace/arm/lm3s811/TI_Stellaris/driverlib/sysctl.c **** //! The external oscillator must be enabled in order to use an external clock
2016:/home/cuil/workspace/arm/lm3s811/TI_Stellaris/driverlib/sysctl.c **** //! source.  Note that attempts to disable the oscillator used to clock the
2017:/home/cuil/workspace/arm/lm3s811/TI_Stellaris/driverlib/sysctl.c **** //! device is prevented by the hardware.
2018:/home/cuil/workspace/arm/lm3s811/TI_Stellaris/driverlib/sysctl.c **** //!
2019:/home/cuil/workspace/arm/lm3s811/TI_Stellaris/driverlib/sysctl.c **** //! To clock the system from an external source (such as an external crystal
2020:/home/cuil/workspace/arm/lm3s811/TI_Stellaris/driverlib/sysctl.c **** //! oscillator), use \b SYSCTL_USE_OSC \b | \b SYSCTL_OSC_MAIN.  To clock the
2021:/home/cuil/workspace/arm/lm3s811/TI_Stellaris/driverlib/sysctl.c **** //! system from the main oscillator, use \b SYSCTL_USE_OSC \b |
2022:/home/cuil/workspace/arm/lm3s811/TI_Stellaris/driverlib/sysctl.c **** //! \b SYSCTL_OSC_MAIN.  To clock the system from the PLL, use
2023:/home/cuil/workspace/arm/lm3s811/TI_Stellaris/driverlib/sysctl.c **** //! \b SYSCTL_USE_PLL \b | \b SYSCTL_OSC_MAIN, and select the appropriate
2024:/home/cuil/workspace/arm/lm3s811/TI_Stellaris/driverlib/sysctl.c **** //! crystal with one of the \b SYSCTL_XTAL_xxx values.
2025:/home/cuil/workspace/arm/lm3s811/TI_Stellaris/driverlib/sysctl.c **** //!
2026:/home/cuil/workspace/arm/lm3s811/TI_Stellaris/driverlib/sysctl.c **** //! \note If selecting the PLL as the system clock source (that is, via
2027:/home/cuil/workspace/arm/lm3s811/TI_Stellaris/driverlib/sysctl.c **** //! \b SYSCTL_USE_PLL), this function polls the PLL lock interrupt to
2028:/home/cuil/workspace/arm/lm3s811/TI_Stellaris/driverlib/sysctl.c **** //! determine when the PLL has locked.  If an interrupt handler for the
2029:/home/cuil/workspace/arm/lm3s811/TI_Stellaris/driverlib/sysctl.c **** //! system control interrupt is in place, and it responds to and clears the
2030:/home/cuil/workspace/arm/lm3s811/TI_Stellaris/driverlib/sysctl.c **** //! PLL lock interrupt, this function delays until its timeout has occurred
2031:/home/cuil/workspace/arm/lm3s811/TI_Stellaris/driverlib/sysctl.c **** //! instead of completing as soon as PLL lock is achieved.
2032:/home/cuil/workspace/arm/lm3s811/TI_Stellaris/driverlib/sysctl.c **** //!
2033:/home/cuil/workspace/arm/lm3s811/TI_Stellaris/driverlib/sysctl.c **** //! \return None.
2034:/home/cuil/workspace/arm/lm3s811/TI_Stellaris/driverlib/sysctl.c **** //
2035:/home/cuil/workspace/arm/lm3s811/TI_Stellaris/driverlib/sysctl.c **** //*****************************************************************************
2036:/home/cuil/workspace/arm/lm3s811/TI_Stellaris/driverlib/sysctl.c **** void
2037:/home/cuil/workspace/arm/lm3s811/TI_Stellaris/driverlib/sysctl.c **** SysCtlClockSet(unsigned long ulConfig)
2038:/home/cuil/workspace/arm/lm3s811/TI_Stellaris/driverlib/sysctl.c **** {
 13598              		.loc 1 2038 0
 13599              		.cfi_startproc
 13600              		@ args = 0, pretend = 0, frame = 24
 13601              		@ frame_needed = 1, uses_anonymous_args = 0
 13602 0000 80B5     		push	{r7, lr}
 13603              	.LCFI91:
 13604              		.cfi_def_cfa_offset 8
 13605 0002 86B0     		sub	sp, sp, #24
 13606              	.LCFI92:
 13607              		.cfi_def_cfa_offset 32
 13608 0004 00AF     		add	r7, sp, #0
 13609              		.cfi_offset 14, -4
 13610              		.cfi_offset 7, -8
 13611              	.LCFI93:
 13612              		.cfi_def_cfa_register 7
 13613 0006 7860     		str	r0, [r7, #4]
2039:/home/cuil/workspace/arm/lm3s811/TI_Stellaris/driverlib/sysctl.c ****     unsigned long ulDelay, ulRCC, ulRCC2;
2040:/home/cuil/workspace/arm/lm3s811/TI_Stellaris/driverlib/sysctl.c **** 
2041:/home/cuil/workspace/arm/lm3s811/TI_Stellaris/driverlib/sysctl.c ****     //
2042:/home/cuil/workspace/arm/lm3s811/TI_Stellaris/driverlib/sysctl.c ****     // See if this is a Sandstorm-class device and clocking features from newer
2043:/home/cuil/workspace/arm/lm3s811/TI_Stellaris/driverlib/sysctl.c ****     // devices were requested.
2044:/home/cuil/workspace/arm/lm3s811/TI_Stellaris/driverlib/sysctl.c ****     //
2045:/home/cuil/workspace/arm/lm3s811/TI_Stellaris/driverlib/sysctl.c ****     if(CLASS_IS_SANDSTORM && (ulConfig & SYSCTL_RCC2_USERCC2))
 13614              		.loc 1 2045 0
 13615 0008 8F4B     		ldr	r3, .L154
 13616 000a 1B68     		ldr	r3, [r3, #0]
 13617 000c 03F0E043 		and	r3, r3, #1879048192
 13618 0010 002B     		cmp	r3, #0
 13619 0012 07D0     		beq	.L134
 13620              		.loc 1 2045 0 is_stmt 0 discriminator 2
 13621 0014 8C4B     		ldr	r3, .L154
 13622 0016 1A68     		ldr	r2, [r3, #0]
 13623 0018 8C4B     		ldr	r3, .L154+4
 13624 001a 02EA0303 		and	r3, r2, r3
 13625 001e B3F1805F 		cmp	r3, #268435456
 13626 0022 03D1     		bne	.L135
 13627              	.L134:
 13628              		.loc 1 2045 0 discriminator 1
 13629 0024 7B68     		ldr	r3, [r7, #4]
 13630 0026 002B     		cmp	r3, #0
 13631 0028 C0F20981 		blt	.L152
 13632              	.L135:
2046:/home/cuil/workspace/arm/lm3s811/TI_Stellaris/driverlib/sysctl.c ****     {
2047:/home/cuil/workspace/arm/lm3s811/TI_Stellaris/driverlib/sysctl.c ****         //
2048:/home/cuil/workspace/arm/lm3s811/TI_Stellaris/driverlib/sysctl.c ****         // Return without changing the clocking because the requested
2049:/home/cuil/workspace/arm/lm3s811/TI_Stellaris/driverlib/sysctl.c ****         // configuration can not be achieved.
2050:/home/cuil/workspace/arm/lm3s811/TI_Stellaris/driverlib/sysctl.c ****         //
2051:/home/cuil/workspace/arm/lm3s811/TI_Stellaris/driverlib/sysctl.c ****         return;
2052:/home/cuil/workspace/arm/lm3s811/TI_Stellaris/driverlib/sysctl.c ****     }
2053:/home/cuil/workspace/arm/lm3s811/TI_Stellaris/driverlib/sysctl.c **** 
2054:/home/cuil/workspace/arm/lm3s811/TI_Stellaris/driverlib/sysctl.c ****     //
2055:/home/cuil/workspace/arm/lm3s811/TI_Stellaris/driverlib/sysctl.c ****     // Get the current value of the RCC and RCC2 registers.  If using a
2056:/home/cuil/workspace/arm/lm3s811/TI_Stellaris/driverlib/sysctl.c ****     // Sandstorm-class device, the RCC2 register reads back as zero and the
2057:/home/cuil/workspace/arm/lm3s811/TI_Stellaris/driverlib/sysctl.c ****     // writes to it from within this function are ignored.
2058:/home/cuil/workspace/arm/lm3s811/TI_Stellaris/driverlib/sysctl.c ****     //
2059:/home/cuil/workspace/arm/lm3s811/TI_Stellaris/driverlib/sysctl.c ****     ulRCC = HWREG(SYSCTL_RCC);
 13633              		.loc 1 2059 0 is_stmt 1
 13634 002c 884B     		ldr	r3, .L154+8
 13635 002e 1B68     		ldr	r3, [r3, #0]
 13636 0030 3B61     		str	r3, [r7, #16]
2060:/home/cuil/workspace/arm/lm3s811/TI_Stellaris/driverlib/sysctl.c ****     ulRCC2 = HWREG(SYSCTL_RCC2);
 13637              		.loc 1 2060 0
 13638 0032 884B     		ldr	r3, .L154+12
 13639 0034 1B68     		ldr	r3, [r3, #0]
 13640 0036 FB60     		str	r3, [r7, #12]
2061:/home/cuil/workspace/arm/lm3s811/TI_Stellaris/driverlib/sysctl.c **** 
2062:/home/cuil/workspace/arm/lm3s811/TI_Stellaris/driverlib/sysctl.c ****     //
2063:/home/cuil/workspace/arm/lm3s811/TI_Stellaris/driverlib/sysctl.c ****     // Bypass the PLL and system clock dividers for now.
2064:/home/cuil/workspace/arm/lm3s811/TI_Stellaris/driverlib/sysctl.c ****     //
2065:/home/cuil/workspace/arm/lm3s811/TI_Stellaris/driverlib/sysctl.c ****     ulRCC |= SYSCTL_RCC_BYPASS;
 13641              		.loc 1 2065 0
 13642 0038 3B69     		ldr	r3, [r7, #16]
 13643 003a 43F40063 		orr	r3, r3, #2048
 13644 003e 3B61     		str	r3, [r7, #16]
2066:/home/cuil/workspace/arm/lm3s811/TI_Stellaris/driverlib/sysctl.c ****     ulRCC &= ~(SYSCTL_RCC_USESYSDIV);
 13645              		.loc 1 2066 0
 13646 0040 3B69     		ldr	r3, [r7, #16]
 13647 0042 23F48003 		bic	r3, r3, #4194304
 13648 0046 3B61     		str	r3, [r7, #16]
2067:/home/cuil/workspace/arm/lm3s811/TI_Stellaris/driverlib/sysctl.c ****     ulRCC2 |= SYSCTL_RCC2_BYPASS2;
 13649              		.loc 1 2067 0
 13650 0048 FB68     		ldr	r3, [r7, #12]
 13651 004a 43F40063 		orr	r3, r3, #2048
 13652 004e FB60     		str	r3, [r7, #12]
2068:/home/cuil/workspace/arm/lm3s811/TI_Stellaris/driverlib/sysctl.c **** 
2069:/home/cuil/workspace/arm/lm3s811/TI_Stellaris/driverlib/sysctl.c ****     //
2070:/home/cuil/workspace/arm/lm3s811/TI_Stellaris/driverlib/sysctl.c ****     // Write the new RCC value.
2071:/home/cuil/workspace/arm/lm3s811/TI_Stellaris/driverlib/sysctl.c ****     //
2072:/home/cuil/workspace/arm/lm3s811/TI_Stellaris/driverlib/sysctl.c ****     HWREG(SYSCTL_RCC) = ulRCC;
 13653              		.loc 1 2072 0
 13654 0050 7F4B     		ldr	r3, .L154+8
 13655 0052 3A69     		ldr	r2, [r7, #16]
 13656 0054 1A60     		str	r2, [r3, #0]
2073:/home/cuil/workspace/arm/lm3s811/TI_Stellaris/driverlib/sysctl.c ****     HWREG(SYSCTL_RCC2) = ulRCC2;
 13657              		.loc 1 2073 0
 13658 0056 7F4B     		ldr	r3, .L154+12
 13659 0058 FA68     		ldr	r2, [r7, #12]
 13660 005a 1A60     		str	r2, [r3, #0]
2074:/home/cuil/workspace/arm/lm3s811/TI_Stellaris/driverlib/sysctl.c **** 
2075:/home/cuil/workspace/arm/lm3s811/TI_Stellaris/driverlib/sysctl.c ****     //
2076:/home/cuil/workspace/arm/lm3s811/TI_Stellaris/driverlib/sysctl.c ****     // See if either oscillator needs to be enabled.
2077:/home/cuil/workspace/arm/lm3s811/TI_Stellaris/driverlib/sysctl.c ****     //
2078:/home/cuil/workspace/arm/lm3s811/TI_Stellaris/driverlib/sysctl.c ****     if(((ulRCC & SYSCTL_RCC_IOSCDIS) && !(ulConfig & SYSCTL_RCC_IOSCDIS)) ||
 13661              		.loc 1 2078 0
 13662 005c 3B69     		ldr	r3, [r7, #16]
 13663 005e 03F00203 		and	r3, r3, #2
 13664 0062 002B     		cmp	r3, #0
 13665 0064 04D0     		beq	.L137
 13666              		.loc 1 2078 0 is_stmt 0 discriminator 1
 13667 0066 7B68     		ldr	r3, [r7, #4]
 13668 0068 03F00203 		and	r3, r3, #2
 13669 006c 002B     		cmp	r3, #0
 13670 006e 0AD0     		beq	.L138
 13671              	.L137:
2079:/home/cuil/workspace/arm/lm3s811/TI_Stellaris/driverlib/sysctl.c ****        ((ulRCC & SYSCTL_RCC_MOSCDIS) && !(ulConfig & SYSCTL_RCC_MOSCDIS)))
 13672              		.loc 1 2079 0 is_stmt 1 discriminator 2
 13673 0070 3B69     		ldr	r3, [r7, #16]
 13674 0072 03F00103 		and	r3, r3, #1
 13675 0076 DBB2     		uxtb	r3, r3
2078:/home/cuil/workspace/arm/lm3s811/TI_Stellaris/driverlib/sysctl.c ****     if(((ulRCC & SYSCTL_RCC_IOSCDIS) && !(ulConfig & SYSCTL_RCC_IOSCDIS)) ||
 13676              		.loc 1 2078 0 discriminator 2
 13677 0078 002B     		cmp	r3, #0
 13678 007a 2CD0     		beq	.L139
 13679              		.loc 1 2079 0
 13680 007c 7B68     		ldr	r3, [r7, #4]
 13681 007e 03F00103 		and	r3, r3, #1
 13682 0082 002B     		cmp	r3, #0
 13683 0084 27D1     		bne	.L139
 13684              	.L138:
2080:/home/cuil/workspace/arm/lm3s811/TI_Stellaris/driverlib/sysctl.c ****     {
2081:/home/cuil/workspace/arm/lm3s811/TI_Stellaris/driverlib/sysctl.c ****         //
2082:/home/cuil/workspace/arm/lm3s811/TI_Stellaris/driverlib/sysctl.c ****         // Make sure that the required oscillators are enabled.  For now, the
2083:/home/cuil/workspace/arm/lm3s811/TI_Stellaris/driverlib/sysctl.c ****         // previously enabled oscillators must be enabled along with the newly
2084:/home/cuil/workspace/arm/lm3s811/TI_Stellaris/driverlib/sysctl.c ****         // requested oscillators.
2085:/home/cuil/workspace/arm/lm3s811/TI_Stellaris/driverlib/sysctl.c ****         //
2086:/home/cuil/workspace/arm/lm3s811/TI_Stellaris/driverlib/sysctl.c ****         ulRCC &= (~(SYSCTL_RCC_IOSCDIS | SYSCTL_RCC_MOSCDIS) |
 13685              		.loc 1 2086 0
 13686 0086 7B68     		ldr	r3, [r7, #4]
 13687 0088 63F00303 		orn	r3, r3, #3
 13688 008c 3A69     		ldr	r2, [r7, #16]
 13689 008e 02EA0303 		and	r3, r2, r3
 13690 0092 3B61     		str	r3, [r7, #16]
2087:/home/cuil/workspace/arm/lm3s811/TI_Stellaris/driverlib/sysctl.c ****                   (ulConfig & (SYSCTL_RCC_IOSCDIS | SYSCTL_RCC_MOSCDIS)));
2088:/home/cuil/workspace/arm/lm3s811/TI_Stellaris/driverlib/sysctl.c **** 
2089:/home/cuil/workspace/arm/lm3s811/TI_Stellaris/driverlib/sysctl.c ****         //
2090:/home/cuil/workspace/arm/lm3s811/TI_Stellaris/driverlib/sysctl.c ****         // Write the new RCC value.
2091:/home/cuil/workspace/arm/lm3s811/TI_Stellaris/driverlib/sysctl.c ****         //
2092:/home/cuil/workspace/arm/lm3s811/TI_Stellaris/driverlib/sysctl.c ****         HWREG(SYSCTL_RCC) = ulRCC;
 13691              		.loc 1 2092 0
 13692 0094 6E4B     		ldr	r3, .L154+8
 13693 0096 3A69     		ldr	r2, [r7, #16]
 13694 0098 1A60     		str	r2, [r3, #0]
2093:/home/cuil/workspace/arm/lm3s811/TI_Stellaris/driverlib/sysctl.c **** 
2094:/home/cuil/workspace/arm/lm3s811/TI_Stellaris/driverlib/sysctl.c ****         //
2095:/home/cuil/workspace/arm/lm3s811/TI_Stellaris/driverlib/sysctl.c ****         // Wait for a bit, giving the oscillator time to stabilize.  The number
2096:/home/cuil/workspace/arm/lm3s811/TI_Stellaris/driverlib/sysctl.c ****         // of iterations is adjusted based on the current clock source; a
2097:/home/cuil/workspace/arm/lm3s811/TI_Stellaris/driverlib/sysctl.c ****         // smaller number of iterations is required for slower clock rates.
2098:/home/cuil/workspace/arm/lm3s811/TI_Stellaris/driverlib/sysctl.c ****         //
2099:/home/cuil/workspace/arm/lm3s811/TI_Stellaris/driverlib/sysctl.c ****         if(((ulRCC2 & SYSCTL_RCC2_USERCC2) &&
 13695              		.loc 1 2099 0
 13696 009a FB68     		ldr	r3, [r7, #12]
 13697 009c 002B     		cmp	r3, #0
 13698 009e 09DA     		bge	.L140
2100:/home/cuil/workspace/arm/lm3s811/TI_Stellaris/driverlib/sysctl.c ****             (((ulRCC2 & SYSCTL_RCC2_OSCSRC2_M) == SYSCTL_RCC2_OSCSRC2_30) ||
 13699              		.loc 1 2100 0 discriminator 1
 13700 00a0 FB68     		ldr	r3, [r7, #12]
 13701 00a2 03F07003 		and	r3, r3, #112
2099:/home/cuil/workspace/arm/lm3s811/TI_Stellaris/driverlib/sysctl.c ****         if(((ulRCC2 & SYSCTL_RCC2_USERCC2) &&
 13702              		.loc 1 2099 0 discriminator 1
 13703 00a6 302B     		cmp	r3, #48
 13704 00a8 0CD0     		beq	.L141
2101:/home/cuil/workspace/arm/lm3s811/TI_Stellaris/driverlib/sysctl.c ****              ((ulRCC2 & SYSCTL_RCC2_OSCSRC2_M) == SYSCTL_RCC2_OSCSRC2_32))) ||
 13705              		.loc 1 2101 0
 13706 00aa FB68     		ldr	r3, [r7, #12]
 13707 00ac 03F07003 		and	r3, r3, #112
2100:/home/cuil/workspace/arm/lm3s811/TI_Stellaris/driverlib/sysctl.c ****             (((ulRCC2 & SYSCTL_RCC2_OSCSRC2_M) == SYSCTL_RCC2_OSCSRC2_30) ||
 13708              		.loc 1 2100 0
 13709 00b0 702B     		cmp	r3, #112
 13710 00b2 07D0     		beq	.L141
 13711              	.L140:
2102:/home/cuil/workspace/arm/lm3s811/TI_Stellaris/driverlib/sysctl.c ****            (!(ulRCC2 & SYSCTL_RCC2_USERCC2) &&
 13712              		.loc 1 2102 0
 13713 00b4 FB68     		ldr	r3, [r7, #12]
2101:/home/cuil/workspace/arm/lm3s811/TI_Stellaris/driverlib/sysctl.c ****              ((ulRCC2 & SYSCTL_RCC2_OSCSRC2_M) == SYSCTL_RCC2_OSCSRC2_32))) ||
 13714              		.loc 1 2101 0
 13715 00b6 002B     		cmp	r3, #0
 13716 00b8 09DB     		blt	.L142
2103:/home/cuil/workspace/arm/lm3s811/TI_Stellaris/driverlib/sysctl.c ****             ((ulRCC & SYSCTL_RCC_OSCSRC_M) == SYSCTL_RCC_OSCSRC_30)))
 13717              		.loc 1 2103 0
 13718 00ba 3B69     		ldr	r3, [r7, #16]
 13719 00bc 03F03003 		and	r3, r3, #48
2102:/home/cuil/workspace/arm/lm3s811/TI_Stellaris/driverlib/sysctl.c ****            (!(ulRCC2 & SYSCTL_RCC2_USERCC2) &&
 13720              		.loc 1 2102 0
 13721 00c0 302B     		cmp	r3, #48
 13722 00c2 04D1     		bne	.L142
 13723              	.L141:
2104:/home/cuil/workspace/arm/lm3s811/TI_Stellaris/driverlib/sysctl.c ****         {
2105:/home/cuil/workspace/arm/lm3s811/TI_Stellaris/driverlib/sysctl.c ****             //
2106:/home/cuil/workspace/arm/lm3s811/TI_Stellaris/driverlib/sysctl.c ****             // Delay for 4096 iterations.
2107:/home/cuil/workspace/arm/lm3s811/TI_Stellaris/driverlib/sysctl.c ****             //
2108:/home/cuil/workspace/arm/lm3s811/TI_Stellaris/driverlib/sysctl.c ****             SysCtlDelay(4096);
 13724              		.loc 1 2108 0
 13725 00c4 4FF48050 		mov	r0, #4096
 13726 00c8 FFF7FEFF 		bl	SysCtlDelay
 13727 00cc 03E0     		b	.L139
 13728              	.L142:
2109:/home/cuil/workspace/arm/lm3s811/TI_Stellaris/driverlib/sysctl.c ****         }
2110:/home/cuil/workspace/arm/lm3s811/TI_Stellaris/driverlib/sysctl.c ****         else
2111:/home/cuil/workspace/arm/lm3s811/TI_Stellaris/driverlib/sysctl.c ****         {
2112:/home/cuil/workspace/arm/lm3s811/TI_Stellaris/driverlib/sysctl.c ****             //
2113:/home/cuil/workspace/arm/lm3s811/TI_Stellaris/driverlib/sysctl.c ****             // Delay for 524,288 iterations.
2114:/home/cuil/workspace/arm/lm3s811/TI_Stellaris/driverlib/sysctl.c ****             //
2115:/home/cuil/workspace/arm/lm3s811/TI_Stellaris/driverlib/sysctl.c ****             SysCtlDelay(524288);
 13729              		.loc 1 2115 0
 13730 00ce 4FF40020 		mov	r0, #524288
 13731 00d2 FFF7FEFF 		bl	SysCtlDelay
 13732              	.L139:
2116:/home/cuil/workspace/arm/lm3s811/TI_Stellaris/driverlib/sysctl.c ****         }
2117:/home/cuil/workspace/arm/lm3s811/TI_Stellaris/driverlib/sysctl.c ****     }
2118:/home/cuil/workspace/arm/lm3s811/TI_Stellaris/driverlib/sysctl.c **** 
2119:/home/cuil/workspace/arm/lm3s811/TI_Stellaris/driverlib/sysctl.c ****     //
2120:/home/cuil/workspace/arm/lm3s811/TI_Stellaris/driverlib/sysctl.c ****     // Set the new crystal value and oscillator source.  Because the OSCSRC2
2121:/home/cuil/workspace/arm/lm3s811/TI_Stellaris/driverlib/sysctl.c ****     // field in RCC2 overlaps the XTAL field in RCC, the OSCSRC field has a
2122:/home/cuil/workspace/arm/lm3s811/TI_Stellaris/driverlib/sysctl.c ****     // special encoding within ulConfig to avoid the overlap.
2123:/home/cuil/workspace/arm/lm3s811/TI_Stellaris/driverlib/sysctl.c ****     //
2124:/home/cuil/workspace/arm/lm3s811/TI_Stellaris/driverlib/sysctl.c ****     ulRCC &= ~(SYSCTL_RCC_XTAL_M | SYSCTL_RCC_OSCSRC_M);
 13733              		.loc 1 2124 0
 13734 00d6 3B69     		ldr	r3, [r7, #16]
 13735 00d8 23F4FE63 		bic	r3, r3, #2032
 13736 00dc 3B61     		str	r3, [r7, #16]
2125:/home/cuil/workspace/arm/lm3s811/TI_Stellaris/driverlib/sysctl.c ****     ulRCC |= ulConfig & (SYSCTL_RCC_XTAL_M | SYSCTL_RCC_OSCSRC_M);
 13737              		.loc 1 2125 0
 13738 00de 7B68     		ldr	r3, [r7, #4]
 13739 00e0 03F4FE63 		and	r3, r3, #2032
 13740 00e4 3A69     		ldr	r2, [r7, #16]
 13741 00e6 42EA0303 		orr	r3, r2, r3
 13742 00ea 3B61     		str	r3, [r7, #16]
2126:/home/cuil/workspace/arm/lm3s811/TI_Stellaris/driverlib/sysctl.c ****     ulRCC2 &= ~(SYSCTL_RCC2_USERCC2 | SYSCTL_RCC2_OSCSRC2_M);
 13743              		.loc 1 2126 0
 13744 00ec FB68     		ldr	r3, [r7, #12]
 13745 00ee 23F00043 		bic	r3, r3, #-2147483648
 13746 00f2 23F07003 		bic	r3, r3, #112
 13747 00f6 FB60     		str	r3, [r7, #12]
2127:/home/cuil/workspace/arm/lm3s811/TI_Stellaris/driverlib/sysctl.c ****     ulRCC2 |= ulConfig & (SYSCTL_RCC2_USERCC2 | SYSCTL_RCC_OSCSRC_M);
 13748              		.loc 1 2127 0
 13749 00f8 7A68     		ldr	r2, [r7, #4]
 13750 00fa 574B     		ldr	r3, .L154+16
 13751 00fc 02EA0303 		and	r3, r2, r3
 13752 0100 FA68     		ldr	r2, [r7, #12]
 13753 0102 42EA0303 		orr	r3, r2, r3
 13754 0106 FB60     		str	r3, [r7, #12]
2128:/home/cuil/workspace/arm/lm3s811/TI_Stellaris/driverlib/sysctl.c ****     ulRCC2 |= (ulConfig & 0x00000008) << 3;
 13755              		.loc 1 2128 0
 13756 0108 7B68     		ldr	r3, [r7, #4]
 13757 010a 03F00803 		and	r3, r3, #8
 13758 010e 4FEAC303 		lsl	r3, r3, #3
 13759 0112 FA68     		ldr	r2, [r7, #12]
 13760 0114 42EA0303 		orr	r3, r2, r3
 13761 0118 FB60     		str	r3, [r7, #12]
2129:/home/cuil/workspace/arm/lm3s811/TI_Stellaris/driverlib/sysctl.c **** 
2130:/home/cuil/workspace/arm/lm3s811/TI_Stellaris/driverlib/sysctl.c ****     //
2131:/home/cuil/workspace/arm/lm3s811/TI_Stellaris/driverlib/sysctl.c ****     // Write the new RCC value.
2132:/home/cuil/workspace/arm/lm3s811/TI_Stellaris/driverlib/sysctl.c ****     //
2133:/home/cuil/workspace/arm/lm3s811/TI_Stellaris/driverlib/sysctl.c ****     HWREG(SYSCTL_RCC) = ulRCC;
 13762              		.loc 1 2133 0
 13763 011a 4D4B     		ldr	r3, .L154+8
 13764 011c 3A69     		ldr	r2, [r7, #16]
 13765 011e 1A60     		str	r2, [r3, #0]
2134:/home/cuil/workspace/arm/lm3s811/TI_Stellaris/driverlib/sysctl.c ****     HWREG(SYSCTL_RCC2) = ulRCC2;
 13766              		.loc 1 2134 0
 13767 0120 4C4B     		ldr	r3, .L154+12
 13768 0122 FA68     		ldr	r2, [r7, #12]
 13769 0124 1A60     		str	r2, [r3, #0]
2135:/home/cuil/workspace/arm/lm3s811/TI_Stellaris/driverlib/sysctl.c **** 
2136:/home/cuil/workspace/arm/lm3s811/TI_Stellaris/driverlib/sysctl.c ****     //
2137:/home/cuil/workspace/arm/lm3s811/TI_Stellaris/driverlib/sysctl.c ****     // Wait for a bit so that new crystal value and oscillator source can take
2138:/home/cuil/workspace/arm/lm3s811/TI_Stellaris/driverlib/sysctl.c ****     // effect.
2139:/home/cuil/workspace/arm/lm3s811/TI_Stellaris/driverlib/sysctl.c ****     //
2140:/home/cuil/workspace/arm/lm3s811/TI_Stellaris/driverlib/sysctl.c ****     SysCtlDelay(16);
 13770              		.loc 1 2140 0
 13771 0126 4FF01000 		mov	r0, #16
 13772 012a FFF7FEFF 		bl	SysCtlDelay
2141:/home/cuil/workspace/arm/lm3s811/TI_Stellaris/driverlib/sysctl.c **** 
2142:/home/cuil/workspace/arm/lm3s811/TI_Stellaris/driverlib/sysctl.c ****     //
2143:/home/cuil/workspace/arm/lm3s811/TI_Stellaris/driverlib/sysctl.c ****     // Set the PLL configuration.
2144:/home/cuil/workspace/arm/lm3s811/TI_Stellaris/driverlib/sysctl.c ****     //
2145:/home/cuil/workspace/arm/lm3s811/TI_Stellaris/driverlib/sysctl.c ****     ulRCC &= ~(SYSCTL_RCC_PWRDN | SYSCTL_RCC_OEN);
 13773              		.loc 1 2145 0
 13774 012e 3B69     		ldr	r3, [r7, #16]
 13775 0130 23F44053 		bic	r3, r3, #12288
 13776 0134 3B61     		str	r3, [r7, #16]
2146:/home/cuil/workspace/arm/lm3s811/TI_Stellaris/driverlib/sysctl.c ****     ulRCC |= ulConfig & (SYSCTL_RCC_PWRDN | SYSCTL_RCC_OEN);
 13777              		.loc 1 2146 0
 13778 0136 7B68     		ldr	r3, [r7, #4]
 13779 0138 03F44053 		and	r3, r3, #12288
 13780 013c 3A69     		ldr	r2, [r7, #16]
 13781 013e 42EA0303 		orr	r3, r2, r3
 13782 0142 3B61     		str	r3, [r7, #16]
2147:/home/cuil/workspace/arm/lm3s811/TI_Stellaris/driverlib/sysctl.c ****     ulRCC2 &= ~(SYSCTL_RCC2_PWRDN2);
 13783              		.loc 1 2147 0
 13784 0144 FB68     		ldr	r3, [r7, #12]
 13785 0146 23F40053 		bic	r3, r3, #8192
 13786 014a FB60     		str	r3, [r7, #12]
2148:/home/cuil/workspace/arm/lm3s811/TI_Stellaris/driverlib/sysctl.c ****     ulRCC2 |= ulConfig & SYSCTL_RCC2_PWRDN2;
 13787              		.loc 1 2148 0
 13788 014c 7B68     		ldr	r3, [r7, #4]
 13789 014e 03F40053 		and	r3, r3, #8192
 13790 0152 FA68     		ldr	r2, [r7, #12]
 13791 0154 42EA0303 		orr	r3, r2, r3
 13792 0158 FB60     		str	r3, [r7, #12]
2149:/home/cuil/workspace/arm/lm3s811/TI_Stellaris/driverlib/sysctl.c **** 
2150:/home/cuil/workspace/arm/lm3s811/TI_Stellaris/driverlib/sysctl.c ****     //
2151:/home/cuil/workspace/arm/lm3s811/TI_Stellaris/driverlib/sysctl.c ****     // Clear the PLL lock interrupt.
2152:/home/cuil/workspace/arm/lm3s811/TI_Stellaris/driverlib/sysctl.c ****     //
2153:/home/cuil/workspace/arm/lm3s811/TI_Stellaris/driverlib/sysctl.c ****     HWREG(SYSCTL_MISC) = SYSCTL_INT_PLL_LOCK;
 13793              		.loc 1 2153 0
 13794 015a 404B     		ldr	r3, .L154+20
 13795 015c 4FF04002 		mov	r2, #64
 13796 0160 1A60     		str	r2, [r3, #0]
2154:/home/cuil/workspace/arm/lm3s811/TI_Stellaris/driverlib/sysctl.c **** 
2155:/home/cuil/workspace/arm/lm3s811/TI_Stellaris/driverlib/sysctl.c ****     //
2156:/home/cuil/workspace/arm/lm3s811/TI_Stellaris/driverlib/sysctl.c ****     // Write the new RCC value.
2157:/home/cuil/workspace/arm/lm3s811/TI_Stellaris/driverlib/sysctl.c ****     //
2158:/home/cuil/workspace/arm/lm3s811/TI_Stellaris/driverlib/sysctl.c ****     if(ulRCC2 & SYSCTL_RCC2_USERCC2)
 13797              		.loc 1 2158 0
 13798 0162 FB68     		ldr	r3, [r7, #12]
 13799 0164 002B     		cmp	r3, #0
 13800 0166 06DA     		bge	.L143
2159:/home/cuil/workspace/arm/lm3s811/TI_Stellaris/driverlib/sysctl.c ****     {
2160:/home/cuil/workspace/arm/lm3s811/TI_Stellaris/driverlib/sysctl.c ****         HWREG(SYSCTL_RCC2) = ulRCC2;
 13801              		.loc 1 2160 0
 13802 0168 3A4B     		ldr	r3, .L154+12
 13803 016a FA68     		ldr	r2, [r7, #12]
 13804 016c 1A60     		str	r2, [r3, #0]
2161:/home/cuil/workspace/arm/lm3s811/TI_Stellaris/driverlib/sysctl.c ****         HWREG(SYSCTL_RCC) = ulRCC;
 13805              		.loc 1 2161 0
 13806 016e 384B     		ldr	r3, .L154+8
 13807 0170 3A69     		ldr	r2, [r7, #16]
 13808 0172 1A60     		str	r2, [r3, #0]
 13809 0174 05E0     		b	.L144
 13810              	.L143:
2162:/home/cuil/workspace/arm/lm3s811/TI_Stellaris/driverlib/sysctl.c ****     }
2163:/home/cuil/workspace/arm/lm3s811/TI_Stellaris/driverlib/sysctl.c ****     else
2164:/home/cuil/workspace/arm/lm3s811/TI_Stellaris/driverlib/sysctl.c ****     {
2165:/home/cuil/workspace/arm/lm3s811/TI_Stellaris/driverlib/sysctl.c ****         HWREG(SYSCTL_RCC) = ulRCC;
 13811              		.loc 1 2165 0
 13812 0176 364B     		ldr	r3, .L154+8
 13813 0178 3A69     		ldr	r2, [r7, #16]
 13814 017a 1A60     		str	r2, [r3, #0]
2166:/home/cuil/workspace/arm/lm3s811/TI_Stellaris/driverlib/sysctl.c ****         HWREG(SYSCTL_RCC2) = ulRCC2;
 13815              		.loc 1 2166 0
 13816 017c 354B     		ldr	r3, .L154+12
 13817 017e FA68     		ldr	r2, [r7, #12]
 13818 0180 1A60     		str	r2, [r3, #0]
 13819              	.L144:
2167:/home/cuil/workspace/arm/lm3s811/TI_Stellaris/driverlib/sysctl.c ****     }
2168:/home/cuil/workspace/arm/lm3s811/TI_Stellaris/driverlib/sysctl.c **** 
2169:/home/cuil/workspace/arm/lm3s811/TI_Stellaris/driverlib/sysctl.c ****     //
2170:/home/cuil/workspace/arm/lm3s811/TI_Stellaris/driverlib/sysctl.c ****     // Set the requested system divider and disable the appropriate
2171:/home/cuil/workspace/arm/lm3s811/TI_Stellaris/driverlib/sysctl.c ****     // oscillators.  This value is not written immediately.
2172:/home/cuil/workspace/arm/lm3s811/TI_Stellaris/driverlib/sysctl.c ****     //
2173:/home/cuil/workspace/arm/lm3s811/TI_Stellaris/driverlib/sysctl.c ****     ulRCC &= ~(SYSCTL_RCC_SYSDIV_M | SYSCTL_RCC_USESYSDIV |
 13820              		.loc 1 2173 0
 13821 0182 3B69     		ldr	r3, [r7, #16]
 13822 0184 23F0F863 		bic	r3, r3, #130023424
 13823 0188 23F00303 		bic	r3, r3, #3
 13824 018c 3B61     		str	r3, [r7, #16]
2174:/home/cuil/workspace/arm/lm3s811/TI_Stellaris/driverlib/sysctl.c ****                SYSCTL_RCC_IOSCDIS | SYSCTL_RCC_MOSCDIS);
2175:/home/cuil/workspace/arm/lm3s811/TI_Stellaris/driverlib/sysctl.c ****     ulRCC |= ulConfig & (SYSCTL_RCC_SYSDIV_M | SYSCTL_RCC_USESYSDIV |
 13825              		.loc 1 2175 0
 13826 018e 7A68     		ldr	r2, [r7, #4]
 13827 0190 334B     		ldr	r3, .L154+24
 13828 0192 02EA0303 		and	r3, r2, r3
 13829 0196 3A69     		ldr	r2, [r7, #16]
 13830 0198 42EA0303 		orr	r3, r2, r3
 13831 019c 3B61     		str	r3, [r7, #16]
2176:/home/cuil/workspace/arm/lm3s811/TI_Stellaris/driverlib/sysctl.c ****                          SYSCTL_RCC_IOSCDIS | SYSCTL_RCC_MOSCDIS);
2177:/home/cuil/workspace/arm/lm3s811/TI_Stellaris/driverlib/sysctl.c ****     ulRCC2 &= ~(SYSCTL_RCC2_SYSDIV2_M);
 13832              		.loc 1 2177 0
 13833 019e FB68     		ldr	r3, [r7, #12]
 13834 01a0 23F0FC53 		bic	r3, r3, #528482304
 13835 01a4 FB60     		str	r3, [r7, #12]
2178:/home/cuil/workspace/arm/lm3s811/TI_Stellaris/driverlib/sysctl.c ****     ulRCC2 |= ulConfig & SYSCTL_RCC2_SYSDIV2_M;
 13836              		.loc 1 2178 0
 13837 01a6 7B68     		ldr	r3, [r7, #4]
 13838 01a8 03F0FC53 		and	r3, r3, #528482304
 13839 01ac FA68     		ldr	r2, [r7, #12]
 13840 01ae 42EA0303 		orr	r3, r2, r3
 13841 01b2 FB60     		str	r3, [r7, #12]
2179:/home/cuil/workspace/arm/lm3s811/TI_Stellaris/driverlib/sysctl.c ****     if(ulConfig & SYSCTL_RCC2_DIV400)
 13842              		.loc 1 2179 0
 13843 01b4 7B68     		ldr	r3, [r7, #4]
 13844 01b6 03F08043 		and	r3, r3, #1073741824
 13845 01ba 002B     		cmp	r3, #0
 13846 01bc 10D0     		beq	.L145
2180:/home/cuil/workspace/arm/lm3s811/TI_Stellaris/driverlib/sysctl.c ****     {
2181:/home/cuil/workspace/arm/lm3s811/TI_Stellaris/driverlib/sysctl.c ****         ulRCC |= SYSCTL_RCC_USESYSDIV;
 13847              		.loc 1 2181 0
 13848 01be 3B69     		ldr	r3, [r7, #16]
 13849 01c0 43F48003 		orr	r3, r3, #4194304
 13850 01c4 3B61     		str	r3, [r7, #16]
2182:/home/cuil/workspace/arm/lm3s811/TI_Stellaris/driverlib/sysctl.c ****         ulRCC2 &= ~(SYSCTL_RCC_USESYSDIV);
 13851              		.loc 1 2182 0
 13852 01c6 FB68     		ldr	r3, [r7, #12]
 13853 01c8 23F48003 		bic	r3, r3, #4194304
 13854 01cc FB60     		str	r3, [r7, #12]
2183:/home/cuil/workspace/arm/lm3s811/TI_Stellaris/driverlib/sysctl.c ****         ulRCC2 |= ulConfig & (SYSCTL_RCC2_DIV400 | SYSCTL_RCC2_SYSDIV2LSB);
 13855              		.loc 1 2183 0
 13856 01ce 7A68     		ldr	r2, [r7, #4]
 13857 01d0 244B     		ldr	r3, .L154+28
 13858 01d2 02EA0303 		and	r3, r2, r3
 13859 01d6 FA68     		ldr	r2, [r7, #12]
 13860 01d8 42EA0303 		orr	r3, r2, r3
 13861 01dc FB60     		str	r3, [r7, #12]
 13862 01de 03E0     		b	.L146
 13863              	.L145:
2184:/home/cuil/workspace/arm/lm3s811/TI_Stellaris/driverlib/sysctl.c ****     }
2185:/home/cuil/workspace/arm/lm3s811/TI_Stellaris/driverlib/sysctl.c ****     else
2186:/home/cuil/workspace/arm/lm3s811/TI_Stellaris/driverlib/sysctl.c ****     {
2187:/home/cuil/workspace/arm/lm3s811/TI_Stellaris/driverlib/sysctl.c ****         ulRCC2 &= ~(SYSCTL_RCC2_DIV400);
 13864              		.loc 1 2187 0
 13865 01e0 FB68     		ldr	r3, [r7, #12]
 13866 01e2 23F08043 		bic	r3, r3, #1073741824
 13867 01e6 FB60     		str	r3, [r7, #12]
 13868              	.L146:
2188:/home/cuil/workspace/arm/lm3s811/TI_Stellaris/driverlib/sysctl.c ****     }
2189:/home/cuil/workspace/arm/lm3s811/TI_Stellaris/driverlib/sysctl.c **** 
2190:/home/cuil/workspace/arm/lm3s811/TI_Stellaris/driverlib/sysctl.c ****     //
2191:/home/cuil/workspace/arm/lm3s811/TI_Stellaris/driverlib/sysctl.c ****     // See if the PLL output is being used to clock the system.
2192:/home/cuil/workspace/arm/lm3s811/TI_Stellaris/driverlib/sysctl.c ****     //
2193:/home/cuil/workspace/arm/lm3s811/TI_Stellaris/driverlib/sysctl.c ****     if(!(ulConfig & SYSCTL_RCC_BYPASS))
 13869              		.loc 1 2193 0
 13870 01e8 7B68     		ldr	r3, [r7, #4]
 13871 01ea 03F40063 		and	r3, r3, #2048
 13872 01ee 002B     		cmp	r3, #0
 13873 01f0 1AD1     		bne	.L147
2194:/home/cuil/workspace/arm/lm3s811/TI_Stellaris/driverlib/sysctl.c ****     {
2195:/home/cuil/workspace/arm/lm3s811/TI_Stellaris/driverlib/sysctl.c ****         //
2196:/home/cuil/workspace/arm/lm3s811/TI_Stellaris/driverlib/sysctl.c ****         // Wait until the PLL has locked.
2197:/home/cuil/workspace/arm/lm3s811/TI_Stellaris/driverlib/sysctl.c ****         //
2198:/home/cuil/workspace/arm/lm3s811/TI_Stellaris/driverlib/sysctl.c ****         for(ulDelay = 32768; ulDelay > 0; ulDelay--)
 13874              		.loc 1 2198 0
 13875 01f2 4FF40043 		mov	r3, #32768
 13876 01f6 7B61     		str	r3, [r7, #20]
 13877 01f8 09E0     		b	.L148
 13878              	.L151:
2199:/home/cuil/workspace/arm/lm3s811/TI_Stellaris/driverlib/sysctl.c ****         {
2200:/home/cuil/workspace/arm/lm3s811/TI_Stellaris/driverlib/sysctl.c ****             if(HWREG(SYSCTL_RIS) & SYSCTL_INT_PLL_LOCK)
 13879              		.loc 1 2200 0
 13880 01fa 1B4B     		ldr	r3, .L154+32
 13881 01fc 1B68     		ldr	r3, [r3, #0]
 13882 01fe 03F04003 		and	r3, r3, #64
 13883 0202 002B     		cmp	r3, #0
 13884 0204 07D1     		bne	.L153
 13885              	.L149:
2198:/home/cuil/workspace/arm/lm3s811/TI_Stellaris/driverlib/sysctl.c ****         for(ulDelay = 32768; ulDelay > 0; ulDelay--)
 13886              		.loc 1 2198 0
 13887 0206 7B69     		ldr	r3, [r7, #20]
 13888 0208 03F1FF33 		add	r3, r3, #-1
 13889 020c 7B61     		str	r3, [r7, #20]
 13890              	.L148:
2198:/home/cuil/workspace/arm/lm3s811/TI_Stellaris/driverlib/sysctl.c ****         for(ulDelay = 32768; ulDelay > 0; ulDelay--)
 13891              		.loc 1 2198 0 is_stmt 0 discriminator 1
 13892 020e 7B69     		ldr	r3, [r7, #20]
 13893 0210 002B     		cmp	r3, #0
 13894 0212 F2D1     		bne	.L151
 13895 0214 00E0     		b	.L150
 13896              	.L153:
2201:/home/cuil/workspace/arm/lm3s811/TI_Stellaris/driverlib/sysctl.c ****             {
2202:/home/cuil/workspace/arm/lm3s811/TI_Stellaris/driverlib/sysctl.c ****                 break;
 13897              		.loc 1 2202 0 is_stmt 1
 13898 0216 00BF     		nop
 13899              	.L150:
2203:/home/cuil/workspace/arm/lm3s811/TI_Stellaris/driverlib/sysctl.c ****             }
2204:/home/cuil/workspace/arm/lm3s811/TI_Stellaris/driverlib/sysctl.c ****         }
2205:/home/cuil/workspace/arm/lm3s811/TI_Stellaris/driverlib/sysctl.c **** 
2206:/home/cuil/workspace/arm/lm3s811/TI_Stellaris/driverlib/sysctl.c ****         //
2207:/home/cuil/workspace/arm/lm3s811/TI_Stellaris/driverlib/sysctl.c ****         // Enable use of the PLL.
2208:/home/cuil/workspace/arm/lm3s811/TI_Stellaris/driverlib/sysctl.c ****         //
2209:/home/cuil/workspace/arm/lm3s811/TI_Stellaris/driverlib/sysctl.c ****         ulRCC &= ~(SYSCTL_RCC_BYPASS);
 13900              		.loc 1 2209 0
 13901 0218 3B69     		ldr	r3, [r7, #16]
 13902 021a 23F40063 		bic	r3, r3, #2048
 13903 021e 3B61     		str	r3, [r7, #16]
2210:/home/cuil/workspace/arm/lm3s811/TI_Stellaris/driverlib/sysctl.c ****         ulRCC2 &= ~(SYSCTL_RCC2_BYPASS2);
 13904              		.loc 1 2210 0
 13905 0220 FB68     		ldr	r3, [r7, #12]
 13906 0222 23F40063 		bic	r3, r3, #2048
 13907 0226 FB60     		str	r3, [r7, #12]
 13908              	.L147:
2211:/home/cuil/workspace/arm/lm3s811/TI_Stellaris/driverlib/sysctl.c ****     }
2212:/home/cuil/workspace/arm/lm3s811/TI_Stellaris/driverlib/sysctl.c **** 
2213:/home/cuil/workspace/arm/lm3s811/TI_Stellaris/driverlib/sysctl.c ****     //
2214:/home/cuil/workspace/arm/lm3s811/TI_Stellaris/driverlib/sysctl.c ****     // Write the final RCC value.
2215:/home/cuil/workspace/arm/lm3s811/TI_Stellaris/driverlib/sysctl.c ****     //
2216:/home/cuil/workspace/arm/lm3s811/TI_Stellaris/driverlib/sysctl.c ****     HWREG(SYSCTL_RCC) = ulRCC;
 13909              		.loc 1 2216 0
 13910 0228 094B     		ldr	r3, .L154+8
 13911 022a 3A69     		ldr	r2, [r7, #16]
 13912 022c 1A60     		str	r2, [r3, #0]
2217:/home/cuil/workspace/arm/lm3s811/TI_Stellaris/driverlib/sysctl.c ****     HWREG(SYSCTL_RCC2) = ulRCC2;
 13913              		.loc 1 2217 0
 13914 022e 094B     		ldr	r3, .L154+12
 13915 0230 FA68     		ldr	r2, [r7, #12]
 13916 0232 1A60     		str	r2, [r3, #0]
2218:/home/cuil/workspace/arm/lm3s811/TI_Stellaris/driverlib/sysctl.c **** 
2219:/home/cuil/workspace/arm/lm3s811/TI_Stellaris/driverlib/sysctl.c ****     //
2220:/home/cuil/workspace/arm/lm3s811/TI_Stellaris/driverlib/sysctl.c ****     // Delay for a little bit so that the system divider takes effect.
2221:/home/cuil/workspace/arm/lm3s811/TI_Stellaris/driverlib/sysctl.c ****     //
2222:/home/cuil/workspace/arm/lm3s811/TI_Stellaris/driverlib/sysctl.c ****     SysCtlDelay(16);
 13917              		.loc 1 2222 0
 13918 0234 4FF01000 		mov	r0, #16
 13919 0238 FFF7FEFF 		bl	SysCtlDelay
 13920 023c 00E0     		b	.L133
 13921              	.L152:
2051:/home/cuil/workspace/arm/lm3s811/TI_Stellaris/driverlib/sysctl.c ****         return;
 13922              		.loc 1 2051 0
 13923 023e 00BF     		nop
 13924              	.L133:
2223:/home/cuil/workspace/arm/lm3s811/TI_Stellaris/driverlib/sysctl.c **** }
 13925              		.loc 1 2223 0
 13926 0240 07F11807 		add	r7, r7, #24
 13927 0244 BD46     		mov	sp, r7
 13928 0246 80BD     		pop	{r7, pc}
 13929              	.L155:
 13930              		.align	2
 13931              	.L154:
 13932 0248 00E00F40 		.word	1074782208
 13933 024c 0000FF70 		.word	1895759872
 13934 0250 60E00F40 		.word	1074782304
 13935 0254 70E00F40 		.word	1074782320
 13936 0258 30000080 		.word	-2147483600
 13937 025c 58E00F40 		.word	1074782296
 13938 0260 0300C007 		.word	130023427
 13939 0264 00004040 		.word	1077936128
 13940 0268 50E00F40 		.word	1074782288
 13941              		.cfi_endproc
 13942              	.LFE34:
 13944              		.section	.text.SysCtlClockGet,"ax",%progbits
 13945              		.align	2
 13946              		.global	SysCtlClockGet
 13947              		.thumb
 13948              		.thumb_func
 13950              	SysCtlClockGet:
 13951              	.LFB35:
2224:/home/cuil/workspace/arm/lm3s811/TI_Stellaris/driverlib/sysctl.c **** 
2225:/home/cuil/workspace/arm/lm3s811/TI_Stellaris/driverlib/sysctl.c **** //*****************************************************************************
2226:/home/cuil/workspace/arm/lm3s811/TI_Stellaris/driverlib/sysctl.c **** //
2227:/home/cuil/workspace/arm/lm3s811/TI_Stellaris/driverlib/sysctl.c **** //! Gets the processor clock rate.
2228:/home/cuil/workspace/arm/lm3s811/TI_Stellaris/driverlib/sysctl.c **** //!
2229:/home/cuil/workspace/arm/lm3s811/TI_Stellaris/driverlib/sysctl.c **** //! This function determines the clock rate of the processor clock, which is
2230:/home/cuil/workspace/arm/lm3s811/TI_Stellaris/driverlib/sysctl.c **** //! also the clock rate of the peripheral modules (with the exception of
2231:/home/cuil/workspace/arm/lm3s811/TI_Stellaris/driverlib/sysctl.c **** //! PWM, which has its own clock divider; other peripherals may have different
2232:/home/cuil/workspace/arm/lm3s811/TI_Stellaris/driverlib/sysctl.c **** //! clocking, see the device data sheet for details).
2233:/home/cuil/workspace/arm/lm3s811/TI_Stellaris/driverlib/sysctl.c **** //!
2234:/home/cuil/workspace/arm/lm3s811/TI_Stellaris/driverlib/sysctl.c **** //! \note This cannot return accurate results if SysCtlClockSet() has not
2235:/home/cuil/workspace/arm/lm3s811/TI_Stellaris/driverlib/sysctl.c **** //! been called to configure the clocking of the device, or if the device is
2236:/home/cuil/workspace/arm/lm3s811/TI_Stellaris/driverlib/sysctl.c **** //! directly clocked from a crystal (or a clock source) that is not one of the
2237:/home/cuil/workspace/arm/lm3s811/TI_Stellaris/driverlib/sysctl.c **** //! supported crystal frequencies.  In the latter case, this function should be
2238:/home/cuil/workspace/arm/lm3s811/TI_Stellaris/driverlib/sysctl.c **** //! modified to directly return the correct system clock rate.
2239:/home/cuil/workspace/arm/lm3s811/TI_Stellaris/driverlib/sysctl.c **** //!
2240:/home/cuil/workspace/arm/lm3s811/TI_Stellaris/driverlib/sysctl.c **** //! \return The processor clock rate.
2241:/home/cuil/workspace/arm/lm3s811/TI_Stellaris/driverlib/sysctl.c **** //
2242:/home/cuil/workspace/arm/lm3s811/TI_Stellaris/driverlib/sysctl.c **** //*****************************************************************************
2243:/home/cuil/workspace/arm/lm3s811/TI_Stellaris/driverlib/sysctl.c **** unsigned long
2244:/home/cuil/workspace/arm/lm3s811/TI_Stellaris/driverlib/sysctl.c **** SysCtlClockGet(void)
2245:/home/cuil/workspace/arm/lm3s811/TI_Stellaris/driverlib/sysctl.c **** {
 13952              		.loc 1 2245 0
 13953              		.cfi_startproc
 13954              		@ args = 0, pretend = 0, frame = 24
 13955              		@ frame_needed = 1, uses_anonymous_args = 0
 13956              		@ link register save eliminated.
 13957 0000 80B4     		push	{r7}
 13958              	.LCFI94:
 13959              		.cfi_def_cfa_offset 4
 13960 0002 87B0     		sub	sp, sp, #28
 13961              	.LCFI95:
 13962              		.cfi_def_cfa_offset 32
 13963 0004 00AF     		add	r7, sp, #0
 13964              		.cfi_offset 7, -4
 13965              	.LCFI96:
 13966              		.cfi_def_cfa_register 7
2246:/home/cuil/workspace/arm/lm3s811/TI_Stellaris/driverlib/sysctl.c ****     unsigned long ulRCC, ulRCC2, ulPLL, ulClk;
2247:/home/cuil/workspace/arm/lm3s811/TI_Stellaris/driverlib/sysctl.c ****     unsigned long ulPLL1;
2248:/home/cuil/workspace/arm/lm3s811/TI_Stellaris/driverlib/sysctl.c **** 
2249:/home/cuil/workspace/arm/lm3s811/TI_Stellaris/driverlib/sysctl.c ****     //
2250:/home/cuil/workspace/arm/lm3s811/TI_Stellaris/driverlib/sysctl.c ****     // Read RCC and RCC2.  For Sandstorm-class devices (which do not have
2251:/home/cuil/workspace/arm/lm3s811/TI_Stellaris/driverlib/sysctl.c ****     // RCC2), the RCC2 read returns 0, indicating that RCC2 is
2252:/home/cuil/workspace/arm/lm3s811/TI_Stellaris/driverlib/sysctl.c ****     // disabled (because the SYSCTL_RCC2_USERCC2 bit is clear).
2253:/home/cuil/workspace/arm/lm3s811/TI_Stellaris/driverlib/sysctl.c ****     //
2254:/home/cuil/workspace/arm/lm3s811/TI_Stellaris/driverlib/sysctl.c ****     ulRCC = HWREG(SYSCTL_RCC);
 13967              		.loc 1 2254 0
 13968 0006 8D4B     		ldr	r3, .L196
 13969 0008 1B68     		ldr	r3, [r3, #0]
 13970 000a 7B61     		str	r3, [r7, #20]
2255:/home/cuil/workspace/arm/lm3s811/TI_Stellaris/driverlib/sysctl.c ****     ulRCC2 = HWREG(SYSCTL_RCC2);
 13971              		.loc 1 2255 0
 13972 000c 8C4B     		ldr	r3, .L196+4
 13973 000e 1B68     		ldr	r3, [r3, #0]
 13974 0010 FB60     		str	r3, [r7, #12]
2256:/home/cuil/workspace/arm/lm3s811/TI_Stellaris/driverlib/sysctl.c **** 
2257:/home/cuil/workspace/arm/lm3s811/TI_Stellaris/driverlib/sysctl.c ****     //
2258:/home/cuil/workspace/arm/lm3s811/TI_Stellaris/driverlib/sysctl.c ****     // Get the base clock rate.
2259:/home/cuil/workspace/arm/lm3s811/TI_Stellaris/driverlib/sysctl.c ****     //
2260:/home/cuil/workspace/arm/lm3s811/TI_Stellaris/driverlib/sysctl.c ****     switch((ulRCC2 & SYSCTL_RCC2_USERCC2) ?
 13975              		.loc 1 2260 0
 13976 0012 FB68     		ldr	r3, [r7, #12]
2261:/home/cuil/workspace/arm/lm3s811/TI_Stellaris/driverlib/sysctl.c ****            (ulRCC2 & SYSCTL_RCC2_OSCSRC2_M) :
 13977              		.loc 1 2261 0
 13978 0014 002B     		cmp	r3, #0
 13979 0016 03DA     		bge	.L157
 13980              		.loc 1 2261 0 is_stmt 0 discriminator 1
 13981 0018 FB68     		ldr	r3, [r7, #12]
 13982 001a 03F07003 		and	r3, r3, #112
 13983 001e 02E0     		b	.L158
 13984              	.L157:
 13985              		.loc 1 2261 0 discriminator 2
 13986 0020 7B69     		ldr	r3, [r7, #20]
 13987 0022 03F03003 		and	r3, r3, #48
 13988              	.L158:
2260:/home/cuil/workspace/arm/lm3s811/TI_Stellaris/driverlib/sysctl.c ****     switch((ulRCC2 & SYSCTL_RCC2_USERCC2) ?
 13989              		.loc 1 2260 0 is_stmt 1
 13990 0026 202B     		cmp	r3, #32
 13991 0028 51D0     		beq	.L162
 13992 002a 202B     		cmp	r3, #32
 13993 002c 04D8     		bhi	.L166
 13994 002e 002B     		cmp	r3, #0
 13995 0030 0BD0     		beq	.L160
 13996 0032 102B     		cmp	r3, #16
 13997 0034 13D0     		beq	.L161
 13998 0036 8EE0     		b	.L159
 13999              	.L166:
 14000 0038 602B     		cmp	r3, #96
 14001 003a 00F08480 		beq	.L164
 14002 003e 702B     		cmp	r3, #112
 14003 0040 00F08580 		beq	.L165
 14004 0044 302B     		cmp	r3, #48
 14005 0046 7AD0     		beq	.L163
 14006 0048 85E0     		b	.L159
 14007              	.L160:
2262:/home/cuil/workspace/arm/lm3s811/TI_Stellaris/driverlib/sysctl.c ****            (ulRCC & SYSCTL_RCC_OSCSRC_M))
2263:/home/cuil/workspace/arm/lm3s811/TI_Stellaris/driverlib/sysctl.c ****     {
2264:/home/cuil/workspace/arm/lm3s811/TI_Stellaris/driverlib/sysctl.c ****         //
2265:/home/cuil/workspace/arm/lm3s811/TI_Stellaris/driverlib/sysctl.c ****         // The main oscillator is the clock source.  Determine its rate from
2266:/home/cuil/workspace/arm/lm3s811/TI_Stellaris/driverlib/sysctl.c ****         // the crystal setting field.
2267:/home/cuil/workspace/arm/lm3s811/TI_Stellaris/driverlib/sysctl.c ****         //
2268:/home/cuil/workspace/arm/lm3s811/TI_Stellaris/driverlib/sysctl.c ****         case SYSCTL_RCC_OSCSRC_MAIN:
2269:/home/cuil/workspace/arm/lm3s811/TI_Stellaris/driverlib/sysctl.c ****         {
2270:/home/cuil/workspace/arm/lm3s811/TI_Stellaris/driverlib/sysctl.c ****             ulClk = g_pulXtals[(ulRCC & SYSCTL_RCC_XTAL_M) >>
 14008              		.loc 1 2270 0
 14009 004a 7B69     		ldr	r3, [r7, #20]
 14010 004c 03F4F863 		and	r3, r3, #1984
 14011 0050 4FEA9312 		lsr	r2, r3, #6
 14012 0054 7B4B     		ldr	r3, .L196+8
 14013 0056 53F82230 		ldr	r3, [r3, r2, lsl #2]
 14014 005a 3B61     		str	r3, [r7, #16]
2271:/home/cuil/workspace/arm/lm3s811/TI_Stellaris/driverlib/sysctl.c ****                                SYSCTL_RCC_XTAL_S];
2272:/home/cuil/workspace/arm/lm3s811/TI_Stellaris/driverlib/sysctl.c ****             break;
 14015              		.loc 1 2272 0
 14016 005c 7EE0     		b	.L167
 14017              	.L161:
2273:/home/cuil/workspace/arm/lm3s811/TI_Stellaris/driverlib/sysctl.c ****         }
2274:/home/cuil/workspace/arm/lm3s811/TI_Stellaris/driverlib/sysctl.c **** 
2275:/home/cuil/workspace/arm/lm3s811/TI_Stellaris/driverlib/sysctl.c ****         //
2276:/home/cuil/workspace/arm/lm3s811/TI_Stellaris/driverlib/sysctl.c ****         // The internal oscillator is the source clock.
2277:/home/cuil/workspace/arm/lm3s811/TI_Stellaris/driverlib/sysctl.c ****         //
2278:/home/cuil/workspace/arm/lm3s811/TI_Stellaris/driverlib/sysctl.c ****         case SYSCTL_RCC_OSCSRC_INT:
2279:/home/cuil/workspace/arm/lm3s811/TI_Stellaris/driverlib/sysctl.c ****         {
2280:/home/cuil/workspace/arm/lm3s811/TI_Stellaris/driverlib/sysctl.c ****             //
2281:/home/cuil/workspace/arm/lm3s811/TI_Stellaris/driverlib/sysctl.c ****             // See if this is a Sandstorm-class or Fury-class device.
2282:/home/cuil/workspace/arm/lm3s811/TI_Stellaris/driverlib/sysctl.c ****             //
2283:/home/cuil/workspace/arm/lm3s811/TI_Stellaris/driverlib/sysctl.c ****             if(CLASS_IS_SANDSTORM)
 14018              		.loc 1 2283 0
 14019 005e 7A4B     		ldr	r3, .L196+12
 14020 0060 1B68     		ldr	r3, [r3, #0]
 14021 0062 03F0E043 		and	r3, r3, #1879048192
 14022 0066 002B     		cmp	r3, #0
 14023 0068 07D0     		beq	.L168
 14024              		.loc 1 2283 0 is_stmt 0 discriminator 1
 14025 006a 774B     		ldr	r3, .L196+12
 14026 006c 1A68     		ldr	r2, [r3, #0]
 14027 006e 774B     		ldr	r3, .L196+16
 14028 0070 02EA0303 		and	r3, r2, r3
 14029 0074 B3F1805F 		cmp	r3, #268435456
 14030 0078 02D1     		bne	.L169
 14031              	.L168:
2284:/home/cuil/workspace/arm/lm3s811/TI_Stellaris/driverlib/sysctl.c ****             {
2285:/home/cuil/workspace/arm/lm3s811/TI_Stellaris/driverlib/sysctl.c ****                 //
2286:/home/cuil/workspace/arm/lm3s811/TI_Stellaris/driverlib/sysctl.c ****                 // The internal oscillator on a Sandstorm-class device is
2287:/home/cuil/workspace/arm/lm3s811/TI_Stellaris/driverlib/sysctl.c ****                 // 15 MHz +/- 50%.
2288:/home/cuil/workspace/arm/lm3s811/TI_Stellaris/driverlib/sysctl.c ****                 //
2289:/home/cuil/workspace/arm/lm3s811/TI_Stellaris/driverlib/sysctl.c ****                 ulClk = 15000000;
 14032              		.loc 1 2289 0 is_stmt 1
 14033 007a 754B     		ldr	r3, .L196+20
 14034 007c 3B61     		str	r3, [r7, #16]
 14035 007e 25E0     		b	.L170
 14036              	.L169:
2290:/home/cuil/workspace/arm/lm3s811/TI_Stellaris/driverlib/sysctl.c ****             }
2291:/home/cuil/workspace/arm/lm3s811/TI_Stellaris/driverlib/sysctl.c ****             else if((CLASS_IS_FURY && REVISION_IS_A2) ||
 14037              		.loc 1 2291 0
 14038 0080 714B     		ldr	r3, .L196+12
 14039 0082 1A68     		ldr	r2, [r3, #0]
 14040 0084 714B     		ldr	r3, .L196+16
 14041 0086 02EA0303 		and	r3, r2, r3
 14042 008a 724A     		ldr	r2, .L196+24
 14043 008c 9342     		cmp	r3, r2
 14044 008e 07D1     		bne	.L171
 14045              		.loc 1 2291 0 is_stmt 0 discriminator 1
 14046 0090 6D4B     		ldr	r3, .L196+12
 14047 0092 1B68     		ldr	r3, [r3, #0]
 14048 0094 4FEA0343 		lsl	r3, r3, #16
 14049 0098 4FEA1343 		lsr	r3, r3, #16
 14050 009c 022B     		cmp	r3, #2
 14051 009e 0FD0     		beq	.L172
 14052              	.L171:
2292:/home/cuil/workspace/arm/lm3s811/TI_Stellaris/driverlib/sysctl.c ****                     (CLASS_IS_DUSTDEVIL && REVISION_IS_A0))
 14053              		.loc 1 2292 0 is_stmt 1 discriminator 2
 14054 00a0 694B     		ldr	r3, .L196+12
 14055 00a2 1A68     		ldr	r2, [r3, #0]
 14056 00a4 694B     		ldr	r3, .L196+16
 14057 00a6 02EA0303 		and	r3, r2, r3
2291:/home/cuil/workspace/arm/lm3s811/TI_Stellaris/driverlib/sysctl.c ****             else if((CLASS_IS_FURY && REVISION_IS_A2) ||
 14058              		.loc 1 2291 0 discriminator 2
 14059 00aa 6B4A     		ldr	r2, .L196+28
 14060 00ac 9342     		cmp	r3, r2
 14061 00ae 0AD1     		bne	.L173
 14062              		.loc 1 2292 0
 14063 00b0 654B     		ldr	r3, .L196+12
 14064 00b2 1B68     		ldr	r3, [r3, #0]
 14065 00b4 4FEA0343 		lsl	r3, r3, #16
 14066 00b8 4FEA1343 		lsr	r3, r3, #16
 14067 00bc 002B     		cmp	r3, #0
 14068 00be 02D1     		bne	.L173
 14069              	.L172:
2293:/home/cuil/workspace/arm/lm3s811/TI_Stellaris/driverlib/sysctl.c ****             {
2294:/home/cuil/workspace/arm/lm3s811/TI_Stellaris/driverlib/sysctl.c ****                 //
2295:/home/cuil/workspace/arm/lm3s811/TI_Stellaris/driverlib/sysctl.c ****                 // The internal oscillator on a rev A2 Fury-class device and a
2296:/home/cuil/workspace/arm/lm3s811/TI_Stellaris/driverlib/sysctl.c ****                 // Dustdevil-class device is 12 MHz +/- 30%.
2297:/home/cuil/workspace/arm/lm3s811/TI_Stellaris/driverlib/sysctl.c ****                 //
2298:/home/cuil/workspace/arm/lm3s811/TI_Stellaris/driverlib/sysctl.c ****                 ulClk = 12000000;
 14070              		.loc 1 2298 0
 14071 00c0 664B     		ldr	r3, .L196+32
 14072 00c2 3B61     		str	r3, [r7, #16]
 14073 00c4 02E0     		b	.L170
 14074              	.L173:
2299:/home/cuil/workspace/arm/lm3s811/TI_Stellaris/driverlib/sysctl.c ****             }
2300:/home/cuil/workspace/arm/lm3s811/TI_Stellaris/driverlib/sysctl.c ****             else
2301:/home/cuil/workspace/arm/lm3s811/TI_Stellaris/driverlib/sysctl.c ****             {
2302:/home/cuil/workspace/arm/lm3s811/TI_Stellaris/driverlib/sysctl.c ****                 //
2303:/home/cuil/workspace/arm/lm3s811/TI_Stellaris/driverlib/sysctl.c ****                 // The internal oscillator on all other devices is 16 MHz.
2304:/home/cuil/workspace/arm/lm3s811/TI_Stellaris/driverlib/sysctl.c ****                 //
2305:/home/cuil/workspace/arm/lm3s811/TI_Stellaris/driverlib/sysctl.c ****                 ulClk = 16000000;
 14075              		.loc 1 2305 0
 14076 00c6 664B     		ldr	r3, .L196+36
 14077 00c8 3B61     		str	r3, [r7, #16]
2306:/home/cuil/workspace/arm/lm3s811/TI_Stellaris/driverlib/sysctl.c ****             }
2307:/home/cuil/workspace/arm/lm3s811/TI_Stellaris/driverlib/sysctl.c ****             break;
 14078              		.loc 1 2307 0
 14079 00ca 47E0     		b	.L167
 14080              	.L170:
 14081 00cc 46E0     		b	.L167
 14082              	.L162:
2308:/home/cuil/workspace/arm/lm3s811/TI_Stellaris/driverlib/sysctl.c ****         }
2309:/home/cuil/workspace/arm/lm3s811/TI_Stellaris/driverlib/sysctl.c **** 
2310:/home/cuil/workspace/arm/lm3s811/TI_Stellaris/driverlib/sysctl.c ****         //
2311:/home/cuil/workspace/arm/lm3s811/TI_Stellaris/driverlib/sysctl.c ****         // The internal oscillator divided by four is the source clock.
2312:/home/cuil/workspace/arm/lm3s811/TI_Stellaris/driverlib/sysctl.c ****         //
2313:/home/cuil/workspace/arm/lm3s811/TI_Stellaris/driverlib/sysctl.c ****         case SYSCTL_RCC_OSCSRC_INT4:
2314:/home/cuil/workspace/arm/lm3s811/TI_Stellaris/driverlib/sysctl.c ****         {
2315:/home/cuil/workspace/arm/lm3s811/TI_Stellaris/driverlib/sysctl.c ****             //
2316:/home/cuil/workspace/arm/lm3s811/TI_Stellaris/driverlib/sysctl.c ****             // See if this is a Sandstorm-class or Fury-class device.
2317:/home/cuil/workspace/arm/lm3s811/TI_Stellaris/driverlib/sysctl.c ****             //
2318:/home/cuil/workspace/arm/lm3s811/TI_Stellaris/driverlib/sysctl.c ****             if(CLASS_IS_SANDSTORM)
 14083              		.loc 1 2318 0
 14084 00ce 5E4B     		ldr	r3, .L196+12
 14085 00d0 1B68     		ldr	r3, [r3, #0]
 14086 00d2 03F0E043 		and	r3, r3, #1879048192
 14087 00d6 002B     		cmp	r3, #0
 14088 00d8 07D0     		beq	.L174
 14089              		.loc 1 2318 0 is_stmt 0 discriminator 1
 14090 00da 5B4B     		ldr	r3, .L196+12
 14091 00dc 1A68     		ldr	r2, [r3, #0]
 14092 00de 5B4B     		ldr	r3, .L196+16
 14093 00e0 02EA0303 		and	r3, r2, r3
 14094 00e4 B3F1805F 		cmp	r3, #268435456
 14095 00e8 02D1     		bne	.L175
 14096              	.L174:
2319:/home/cuil/workspace/arm/lm3s811/TI_Stellaris/driverlib/sysctl.c ****             {
2320:/home/cuil/workspace/arm/lm3s811/TI_Stellaris/driverlib/sysctl.c ****                 //
2321:/home/cuil/workspace/arm/lm3s811/TI_Stellaris/driverlib/sysctl.c ****                 // The internal oscillator on a Sandstorm-class device is
2322:/home/cuil/workspace/arm/lm3s811/TI_Stellaris/driverlib/sysctl.c ****                 // 15 MHz +/- 50%.
2323:/home/cuil/workspace/arm/lm3s811/TI_Stellaris/driverlib/sysctl.c ****                 //
2324:/home/cuil/workspace/arm/lm3s811/TI_Stellaris/driverlib/sysctl.c ****                 ulClk = 15000000 / 4;
 14097              		.loc 1 2324 0 is_stmt 1
 14098 00ea 5E4B     		ldr	r3, .L196+40
 14099 00ec 3B61     		str	r3, [r7, #16]
 14100 00ee 25E0     		b	.L176
 14101              	.L175:
2325:/home/cuil/workspace/arm/lm3s811/TI_Stellaris/driverlib/sysctl.c ****             }
2326:/home/cuil/workspace/arm/lm3s811/TI_Stellaris/driverlib/sysctl.c ****             else if((CLASS_IS_FURY && REVISION_IS_A2) ||
 14102              		.loc 1 2326 0
 14103 00f0 554B     		ldr	r3, .L196+12
 14104 00f2 1A68     		ldr	r2, [r3, #0]
 14105 00f4 554B     		ldr	r3, .L196+16
 14106 00f6 02EA0303 		and	r3, r2, r3
 14107 00fa 564A     		ldr	r2, .L196+24
 14108 00fc 9342     		cmp	r3, r2
 14109 00fe 07D1     		bne	.L177
 14110              		.loc 1 2326 0 is_stmt 0 discriminator 1
 14111 0100 514B     		ldr	r3, .L196+12
 14112 0102 1B68     		ldr	r3, [r3, #0]
 14113 0104 4FEA0343 		lsl	r3, r3, #16
 14114 0108 4FEA1343 		lsr	r3, r3, #16
 14115 010c 022B     		cmp	r3, #2
 14116 010e 0FD0     		beq	.L178
 14117              	.L177:
2327:/home/cuil/workspace/arm/lm3s811/TI_Stellaris/driverlib/sysctl.c ****                     (CLASS_IS_DUSTDEVIL && REVISION_IS_A0))
 14118              		.loc 1 2327 0 is_stmt 1 discriminator 2
 14119 0110 4D4B     		ldr	r3, .L196+12
 14120 0112 1A68     		ldr	r2, [r3, #0]
 14121 0114 4D4B     		ldr	r3, .L196+16
 14122 0116 02EA0303 		and	r3, r2, r3
2326:/home/cuil/workspace/arm/lm3s811/TI_Stellaris/driverlib/sysctl.c ****             else if((CLASS_IS_FURY && REVISION_IS_A2) ||
 14123              		.loc 1 2326 0 discriminator 2
 14124 011a 4F4A     		ldr	r2, .L196+28
 14125 011c 9342     		cmp	r3, r2
 14126 011e 0AD1     		bne	.L179
 14127              		.loc 1 2327 0
 14128 0120 494B     		ldr	r3, .L196+12
 14129 0122 1B68     		ldr	r3, [r3, #0]
 14130 0124 4FEA0343 		lsl	r3, r3, #16
 14131 0128 4FEA1343 		lsr	r3, r3, #16
 14132 012c 002B     		cmp	r3, #0
 14133 012e 02D1     		bne	.L179
 14134              	.L178:
2328:/home/cuil/workspace/arm/lm3s811/TI_Stellaris/driverlib/sysctl.c ****             {
2329:/home/cuil/workspace/arm/lm3s811/TI_Stellaris/driverlib/sysctl.c ****                 //
2330:/home/cuil/workspace/arm/lm3s811/TI_Stellaris/driverlib/sysctl.c ****                 // The internal oscillator on a rev A2 Fury-class device and a
2331:/home/cuil/workspace/arm/lm3s811/TI_Stellaris/driverlib/sysctl.c ****                 // Dustdevil-class device is 12 MHz +/- 30%.
2332:/home/cuil/workspace/arm/lm3s811/TI_Stellaris/driverlib/sysctl.c ****                 //
2333:/home/cuil/workspace/arm/lm3s811/TI_Stellaris/driverlib/sysctl.c ****                 ulClk = 12000000 / 4;
 14135              		.loc 1 2333 0
 14136 0130 4D4B     		ldr	r3, .L196+44
 14137 0132 3B61     		str	r3, [r7, #16]
 14138 0134 02E0     		b	.L176
 14139              	.L179:
2334:/home/cuil/workspace/arm/lm3s811/TI_Stellaris/driverlib/sysctl.c ****             }
2335:/home/cuil/workspace/arm/lm3s811/TI_Stellaris/driverlib/sysctl.c ****             else
2336:/home/cuil/workspace/arm/lm3s811/TI_Stellaris/driverlib/sysctl.c ****             {
2337:/home/cuil/workspace/arm/lm3s811/TI_Stellaris/driverlib/sysctl.c ****                 //
2338:/home/cuil/workspace/arm/lm3s811/TI_Stellaris/driverlib/sysctl.c ****                 // The internal oscillator on a Tempest-class device is 16 MHz.
2339:/home/cuil/workspace/arm/lm3s811/TI_Stellaris/driverlib/sysctl.c ****                 //
2340:/home/cuil/workspace/arm/lm3s811/TI_Stellaris/driverlib/sysctl.c ****                 ulClk = 16000000 / 4;
 14140              		.loc 1 2340 0
 14141 0136 4D4B     		ldr	r3, .L196+48
 14142 0138 3B61     		str	r3, [r7, #16]
2341:/home/cuil/workspace/arm/lm3s811/TI_Stellaris/driverlib/sysctl.c ****             }
2342:/home/cuil/workspace/arm/lm3s811/TI_Stellaris/driverlib/sysctl.c ****             break;
 14143              		.loc 1 2342 0
 14144 013a 0FE0     		b	.L167
 14145              	.L176:
 14146 013c 0EE0     		b	.L167
 14147              	.L163:
2343:/home/cuil/workspace/arm/lm3s811/TI_Stellaris/driverlib/sysctl.c ****         }
2344:/home/cuil/workspace/arm/lm3s811/TI_Stellaris/driverlib/sysctl.c **** 
2345:/home/cuil/workspace/arm/lm3s811/TI_Stellaris/driverlib/sysctl.c ****         //
2346:/home/cuil/workspace/arm/lm3s811/TI_Stellaris/driverlib/sysctl.c ****         // The internal 30-KHz oscillator is the source clock.
2347:/home/cuil/workspace/arm/lm3s811/TI_Stellaris/driverlib/sysctl.c ****         //
2348:/home/cuil/workspace/arm/lm3s811/TI_Stellaris/driverlib/sysctl.c ****         case SYSCTL_RCC_OSCSRC_30:
2349:/home/cuil/workspace/arm/lm3s811/TI_Stellaris/driverlib/sysctl.c ****         {
2350:/home/cuil/workspace/arm/lm3s811/TI_Stellaris/driverlib/sysctl.c ****             //
2351:/home/cuil/workspace/arm/lm3s811/TI_Stellaris/driverlib/sysctl.c ****             // The internal 30-KHz oscillator has an accuracy of +/- 30%.
2352:/home/cuil/workspace/arm/lm3s811/TI_Stellaris/driverlib/sysctl.c ****             //
2353:/home/cuil/workspace/arm/lm3s811/TI_Stellaris/driverlib/sysctl.c ****             ulClk = 30000;
 14148              		.loc 1 2353 0
 14149 013e 47F23053 		movw	r3, #30000
 14150 0142 3B61     		str	r3, [r7, #16]
2354:/home/cuil/workspace/arm/lm3s811/TI_Stellaris/driverlib/sysctl.c ****             break;
 14151              		.loc 1 2354 0
 14152 0144 0AE0     		b	.L167
 14153              	.L164:
2355:/home/cuil/workspace/arm/lm3s811/TI_Stellaris/driverlib/sysctl.c ****         }
2356:/home/cuil/workspace/arm/lm3s811/TI_Stellaris/driverlib/sysctl.c **** 
2357:/home/cuil/workspace/arm/lm3s811/TI_Stellaris/driverlib/sysctl.c ****         //
2358:/home/cuil/workspace/arm/lm3s811/TI_Stellaris/driverlib/sysctl.c ****         // The 4.194304-MHz clock from the hibernate module is the clock source.
2359:/home/cuil/workspace/arm/lm3s811/TI_Stellaris/driverlib/sysctl.c ****         //
2360:/home/cuil/workspace/arm/lm3s811/TI_Stellaris/driverlib/sysctl.c ****         case SYSCTL_RCC2_OSCSRC2_419:
2361:/home/cuil/workspace/arm/lm3s811/TI_Stellaris/driverlib/sysctl.c ****         {
2362:/home/cuil/workspace/arm/lm3s811/TI_Stellaris/driverlib/sysctl.c ****             ulClk = 4194304;
 14154              		.loc 1 2362 0
 14155 0146 4FF48003 		mov	r3, #4194304
 14156 014a 3B61     		str	r3, [r7, #16]
2363:/home/cuil/workspace/arm/lm3s811/TI_Stellaris/driverlib/sysctl.c ****             break;
 14157              		.loc 1 2363 0
 14158 014c 06E0     		b	.L167
 14159              	.L165:
2364:/home/cuil/workspace/arm/lm3s811/TI_Stellaris/driverlib/sysctl.c ****         }
2365:/home/cuil/workspace/arm/lm3s811/TI_Stellaris/driverlib/sysctl.c **** 
2366:/home/cuil/workspace/arm/lm3s811/TI_Stellaris/driverlib/sysctl.c ****         //
2367:/home/cuil/workspace/arm/lm3s811/TI_Stellaris/driverlib/sysctl.c ****         // The 32.768-KHz clock from the hibernate module is the source clock.
2368:/home/cuil/workspace/arm/lm3s811/TI_Stellaris/driverlib/sysctl.c ****         //
2369:/home/cuil/workspace/arm/lm3s811/TI_Stellaris/driverlib/sysctl.c ****         case SYSCTL_RCC2_OSCSRC2_32:
2370:/home/cuil/workspace/arm/lm3s811/TI_Stellaris/driverlib/sysctl.c ****         {
2371:/home/cuil/workspace/arm/lm3s811/TI_Stellaris/driverlib/sysctl.c ****             ulClk = 32768;
 14160              		.loc 1 2371 0
 14161 014e 4FF40043 		mov	r3, #32768
 14162 0152 3B61     		str	r3, [r7, #16]
2372:/home/cuil/workspace/arm/lm3s811/TI_Stellaris/driverlib/sysctl.c ****             break;
 14163              		.loc 1 2372 0
 14164 0154 02E0     		b	.L167
 14165              	.L159:
2373:/home/cuil/workspace/arm/lm3s811/TI_Stellaris/driverlib/sysctl.c ****         }
2374:/home/cuil/workspace/arm/lm3s811/TI_Stellaris/driverlib/sysctl.c **** 
2375:/home/cuil/workspace/arm/lm3s811/TI_Stellaris/driverlib/sysctl.c ****         //
2376:/home/cuil/workspace/arm/lm3s811/TI_Stellaris/driverlib/sysctl.c ****         // An unknown setting, so return a zero clock (that is, an unknown
2377:/home/cuil/workspace/arm/lm3s811/TI_Stellaris/driverlib/sysctl.c ****         // clock rate).
2378:/home/cuil/workspace/arm/lm3s811/TI_Stellaris/driverlib/sysctl.c ****         //
2379:/home/cuil/workspace/arm/lm3s811/TI_Stellaris/driverlib/sysctl.c ****         default:
2380:/home/cuil/workspace/arm/lm3s811/TI_Stellaris/driverlib/sysctl.c ****         {
2381:/home/cuil/workspace/arm/lm3s811/TI_Stellaris/driverlib/sysctl.c ****             return(0);
 14166              		.loc 1 2381 0
 14167 0156 4FF00003 		mov	r3, #0
 14168 015a 00E1     		b	.L180
 14169              	.L167:
2382:/home/cuil/workspace/arm/lm3s811/TI_Stellaris/driverlib/sysctl.c ****         }
2383:/home/cuil/workspace/arm/lm3s811/TI_Stellaris/driverlib/sysctl.c ****     }
2384:/home/cuil/workspace/arm/lm3s811/TI_Stellaris/driverlib/sysctl.c **** 
2385:/home/cuil/workspace/arm/lm3s811/TI_Stellaris/driverlib/sysctl.c ****     //
2386:/home/cuil/workspace/arm/lm3s811/TI_Stellaris/driverlib/sysctl.c ****     // See if the PLL is being used.
2387:/home/cuil/workspace/arm/lm3s811/TI_Stellaris/driverlib/sysctl.c ****     //
2388:/home/cuil/workspace/arm/lm3s811/TI_Stellaris/driverlib/sysctl.c ****     if(((ulRCC2 & SYSCTL_RCC2_USERCC2) && !(ulRCC2 & SYSCTL_RCC2_BYPASS2)) ||
 14170              		.loc 1 2388 0
 14171 015c FB68     		ldr	r3, [r7, #12]
 14172 015e 002B     		cmp	r3, #0
 14173 0160 04DA     		bge	.L181
 14174              		.loc 1 2388 0 is_stmt 0 discriminator 1
 14175 0162 FB68     		ldr	r3, [r7, #12]
 14176 0164 03F40063 		and	r3, r3, #2048
 14177 0168 002B     		cmp	r3, #0
 14178 016a 09D0     		beq	.L182
 14179              	.L181:
2389:/home/cuil/workspace/arm/lm3s811/TI_Stellaris/driverlib/sysctl.c ****        (!(ulRCC2 & SYSCTL_RCC2_USERCC2) && !(ulRCC & SYSCTL_RCC_BYPASS)))
 14180              		.loc 1 2389 0 is_stmt 1 discriminator 2
 14181 016c FB68     		ldr	r3, [r7, #12]
2388:/home/cuil/workspace/arm/lm3s811/TI_Stellaris/driverlib/sysctl.c ****     if(((ulRCC2 & SYSCTL_RCC2_USERCC2) && !(ulRCC2 & SYSCTL_RCC2_BYPASS2)) ||
 14182              		.loc 1 2388 0 discriminator 2
 14183 016e 002B     		cmp	r3, #0
 14184 0170 C0F2B280 		blt	.L183
 14185              		.loc 1 2389 0
 14186 0174 7B69     		ldr	r3, [r7, #20]
 14187 0176 03F40063 		and	r3, r3, #2048
 14188 017a 002B     		cmp	r3, #0
 14189 017c 40F0AC80 		bne	.L183
 14190              	.L182:
2390:/home/cuil/workspace/arm/lm3s811/TI_Stellaris/driverlib/sysctl.c ****     {
2391:/home/cuil/workspace/arm/lm3s811/TI_Stellaris/driverlib/sysctl.c ****         //
2392:/home/cuil/workspace/arm/lm3s811/TI_Stellaris/driverlib/sysctl.c ****         // See if this is a Blizzard-class device.
2393:/home/cuil/workspace/arm/lm3s811/TI_Stellaris/driverlib/sysctl.c ****         //
2394:/home/cuil/workspace/arm/lm3s811/TI_Stellaris/driverlib/sysctl.c ****         if(CLASS_IS_BLIZZARD)
 14191              		.loc 1 2394 0
 14192 0180 314B     		ldr	r3, .L196+12
 14193 0182 1A68     		ldr	r2, [r3, #0]
 14194 0184 314B     		ldr	r3, .L196+16
 14195 0186 02EA0303 		and	r3, r2, r3
 14196 018a 394A     		ldr	r2, .L196+52
 14197 018c 9342     		cmp	r3, r2
 14198 018e 2FD1     		bne	.L184
2395:/home/cuil/workspace/arm/lm3s811/TI_Stellaris/driverlib/sysctl.c ****         {
2396:/home/cuil/workspace/arm/lm3s811/TI_Stellaris/driverlib/sysctl.c ****             //
2397:/home/cuil/workspace/arm/lm3s811/TI_Stellaris/driverlib/sysctl.c ****             // Read the two PLL frequency registers.  The formula for a
2398:/home/cuil/workspace/arm/lm3s811/TI_Stellaris/driverlib/sysctl.c ****             // Blizzard-class device is "(xtal * m) / ((q + 1) * (n + 1))".
2399:/home/cuil/workspace/arm/lm3s811/TI_Stellaris/driverlib/sysctl.c ****             //
2400:/home/cuil/workspace/arm/lm3s811/TI_Stellaris/driverlib/sysctl.c ****             ulPLL = HWREG(SYSCTL_PLLFREQ0);
 14199              		.loc 1 2400 0
 14200 0190 384B     		ldr	r3, .L196+56
 14201 0192 1B68     		ldr	r3, [r3, #0]
 14202 0194 BB60     		str	r3, [r7, #8]
2401:/home/cuil/workspace/arm/lm3s811/TI_Stellaris/driverlib/sysctl.c ****             ulPLL1 = HWREG(SYSCTL_PLLFREQ1);
 14203              		.loc 1 2401 0
 14204 0196 384B     		ldr	r3, .L196+60
 14205 0198 1B68     		ldr	r3, [r3, #0]
 14206 019a 7B60     		str	r3, [r7, #4]
2402:/home/cuil/workspace/arm/lm3s811/TI_Stellaris/driverlib/sysctl.c **** 
2403:/home/cuil/workspace/arm/lm3s811/TI_Stellaris/driverlib/sysctl.c ****             //
2404:/home/cuil/workspace/arm/lm3s811/TI_Stellaris/driverlib/sysctl.c ****             // Divide the input clock by the dividers.
2405:/home/cuil/workspace/arm/lm3s811/TI_Stellaris/driverlib/sysctl.c ****             //
2406:/home/cuil/workspace/arm/lm3s811/TI_Stellaris/driverlib/sysctl.c ****             ulClk /= ((((ulPLL1 & SYSCTL_PLLFREQ1_Q_M) >>
 14207              		.loc 1 2406 0
 14208 019c 7B68     		ldr	r3, [r7, #4]
 14209 019e 03F4F853 		and	r3, r3, #7936
 14210 01a2 4FEA1323 		lsr	r3, r3, #8
2407:/home/cuil/workspace/arm/lm3s811/TI_Stellaris/driverlib/sysctl.c ****                         SYSCTL_PLLFREQ1_Q_S) + 1) *
2408:/home/cuil/workspace/arm/lm3s811/TI_Stellaris/driverlib/sysctl.c ****                       (((ulPLL1 & SYSCTL_PLLFREQ1_N_M) >>
2409:/home/cuil/workspace/arm/lm3s811/TI_Stellaris/driverlib/sysctl.c ****                         SYSCTL_PLLFREQ1_N_S) + 1) * 2);
 14211              		.loc 1 2409 0
 14212 01a6 03F10103 		add	r3, r3, #1
2408:/home/cuil/workspace/arm/lm3s811/TI_Stellaris/driverlib/sysctl.c ****                       (((ulPLL1 & SYSCTL_PLLFREQ1_N_M) >>
 14213              		.loc 1 2408 0
 14214 01aa 7A68     		ldr	r2, [r7, #4]
 14215 01ac 02F01F02 		and	r2, r2, #31
 14216              		.loc 1 2409 0
 14217 01b0 02F10102 		add	r2, r2, #1
 14218 01b4 02FB03F3 		mul	r3, r2, r3
 14219 01b8 4FEA4303 		lsl	r3, r3, #1
2406:/home/cuil/workspace/arm/lm3s811/TI_Stellaris/driverlib/sysctl.c ****             ulClk /= ((((ulPLL1 & SYSCTL_PLLFREQ1_Q_M) >>
 14220              		.loc 1 2406 0
 14221 01bc 3A69     		ldr	r2, [r7, #16]
 14222 01be B2FBF3F3 		udiv	r3, r2, r3
 14223 01c2 3B61     		str	r3, [r7, #16]
2410:/home/cuil/workspace/arm/lm3s811/TI_Stellaris/driverlib/sysctl.c **** 
2411:/home/cuil/workspace/arm/lm3s811/TI_Stellaris/driverlib/sysctl.c ****             //
2412:/home/cuil/workspace/arm/lm3s811/TI_Stellaris/driverlib/sysctl.c ****             // Multiply the clock by the multiplier, which is split into an
2413:/home/cuil/workspace/arm/lm3s811/TI_Stellaris/driverlib/sysctl.c ****             // integer part and a fractional part.
2414:/home/cuil/workspace/arm/lm3s811/TI_Stellaris/driverlib/sysctl.c ****             //
2415:/home/cuil/workspace/arm/lm3s811/TI_Stellaris/driverlib/sysctl.c ****             ulClk = ((ulClk * ((ulPLL & SYSCTL_PLLFREQ0_MINT_M) >>
 14224              		.loc 1 2415 0
 14225 01c4 BB68     		ldr	r3, [r7, #8]
 14226 01c6 4FEA8353 		lsl	r3, r3, #22
 14227 01ca 4FEA9353 		lsr	r3, r3, #22
 14228 01ce 3A69     		ldr	r2, [r7, #16]
 14229 01d0 02FB03F2 		mul	r2, r2, r3
2416:/home/cuil/workspace/arm/lm3s811/TI_Stellaris/driverlib/sysctl.c ****                                SYSCTL_PLLFREQ0_MINT_S)) +
2417:/home/cuil/workspace/arm/lm3s811/TI_Stellaris/driverlib/sysctl.c ****                      ((ulClk * ((ulPLL & SYSCTL_PLLFREQ0_MFRAC_M) >>
 14230              		.loc 1 2417 0
 14231 01d4 B968     		ldr	r1, [r7, #8]
 14232 01d6 294B     		ldr	r3, .L196+64
 14233 01d8 01EA0303 		and	r3, r1, r3
 14234 01dc 4FEA9323 		lsr	r3, r3, #10
 14235 01e0 3969     		ldr	r1, [r7, #16]
 14236 01e2 01FB03F3 		mul	r3, r1, r3
2418:/home/cuil/workspace/arm/lm3s811/TI_Stellaris/driverlib/sysctl.c ****                                 SYSCTL_PLLFREQ0_MFRAC_S)) >> 10));
 14237              		.loc 1 2418 0
 14238 01e6 4FEA9323 		lsr	r3, r3, #10
2415:/home/cuil/workspace/arm/lm3s811/TI_Stellaris/driverlib/sysctl.c ****             ulClk = ((ulClk * ((ulPLL & SYSCTL_PLLFREQ0_MINT_M) >>
 14239              		.loc 1 2415 0
 14240 01ea D318     		adds	r3, r2, r3
 14241 01ec 3B61     		str	r3, [r7, #16]
 14242 01ee 6FE0     		b	.L185
 14243              	.L184:
2419:/home/cuil/workspace/arm/lm3s811/TI_Stellaris/driverlib/sysctl.c ****         }
2420:/home/cuil/workspace/arm/lm3s811/TI_Stellaris/driverlib/sysctl.c **** 
2421:/home/cuil/workspace/arm/lm3s811/TI_Stellaris/driverlib/sysctl.c ****         //
2422:/home/cuil/workspace/arm/lm3s811/TI_Stellaris/driverlib/sysctl.c ****         // Older device classes used a different PLL.
2423:/home/cuil/workspace/arm/lm3s811/TI_Stellaris/driverlib/sysctl.c ****         //
2424:/home/cuil/workspace/arm/lm3s811/TI_Stellaris/driverlib/sysctl.c ****         else
2425:/home/cuil/workspace/arm/lm3s811/TI_Stellaris/driverlib/sysctl.c ****         {
2426:/home/cuil/workspace/arm/lm3s811/TI_Stellaris/driverlib/sysctl.c ****             //
2427:/home/cuil/workspace/arm/lm3s811/TI_Stellaris/driverlib/sysctl.c ****             // Get the PLL configuration.
2428:/home/cuil/workspace/arm/lm3s811/TI_Stellaris/driverlib/sysctl.c ****             //
2429:/home/cuil/workspace/arm/lm3s811/TI_Stellaris/driverlib/sysctl.c ****             ulPLL = HWREG(SYSCTL_PLLCFG);
 14244              		.loc 1 2429 0
 14245 01f0 234B     		ldr	r3, .L196+68
 14246 01f2 1B68     		ldr	r3, [r3, #0]
 14247 01f4 BB60     		str	r3, [r7, #8]
2430:/home/cuil/workspace/arm/lm3s811/TI_Stellaris/driverlib/sysctl.c **** 
2431:/home/cuil/workspace/arm/lm3s811/TI_Stellaris/driverlib/sysctl.c ****             //
2432:/home/cuil/workspace/arm/lm3s811/TI_Stellaris/driverlib/sysctl.c ****             // See if this is a Sandstorm-class or Fury-class device.
2433:/home/cuil/workspace/arm/lm3s811/TI_Stellaris/driverlib/sysctl.c ****             //
2434:/home/cuil/workspace/arm/lm3s811/TI_Stellaris/driverlib/sysctl.c ****             if(CLASS_IS_SANDSTORM)
 14248              		.loc 1 2434 0
 14249 01f6 144B     		ldr	r3, .L196+12
 14250 01f8 1B68     		ldr	r3, [r3, #0]
 14251 01fa 03F0E043 		and	r3, r3, #1879048192
 14252 01fe 002B     		cmp	r3, #0
 14253 0200 07D0     		beq	.L186
 14254              		.loc 1 2434 0 is_stmt 0 discriminator 1
 14255 0202 114B     		ldr	r3, .L196+12
 14256 0204 1A68     		ldr	r2, [r3, #0]
 14257 0206 114B     		ldr	r3, .L196+16
 14258 0208 02EA0303 		and	r3, r2, r3
 14259 020c B3F1805F 		cmp	r3, #268435456
 14260 0210 38D1     		bne	.L187
 14261              	.L186:
2435:/home/cuil/workspace/arm/lm3s811/TI_Stellaris/driverlib/sysctl.c ****             {
2436:/home/cuil/workspace/arm/lm3s811/TI_Stellaris/driverlib/sysctl.c ****                 //
2437:/home/cuil/workspace/arm/lm3s811/TI_Stellaris/driverlib/sysctl.c ****                 // Compute the PLL output frequency based on its input
2438:/home/cuil/workspace/arm/lm3s811/TI_Stellaris/driverlib/sysctl.c ****                 // frequency.  The formula for a Sandstorm-class devices is
2439:/home/cuil/workspace/arm/lm3s811/TI_Stellaris/driverlib/sysctl.c ****                 // "(xtal * (f + 2)) / (r + 2)".
2440:/home/cuil/workspace/arm/lm3s811/TI_Stellaris/driverlib/sysctl.c ****                 //
2441:/home/cuil/workspace/arm/lm3s811/TI_Stellaris/driverlib/sysctl.c ****                 ulClk = ((ulClk * (((ulPLL & SYSCTL_PLLCFG_F_M) >>
 14262              		.loc 1 2441 0 is_stmt 1
 14263 0212 BA68     		ldr	r2, [r7, #8]
 14264 0214 43F6E073 		movw	r3, #16352
 14265 0218 02EA0303 		and	r3, r2, r3
 14266 021c 4FEA5313 		lsr	r3, r3, #5
2442:/home/cuil/workspace/arm/lm3s811/TI_Stellaris/driverlib/sysctl.c ****                                     SYSCTL_PLLCFG_F_S) + 2)) /
 14267              		.loc 1 2442 0
 14268 0220 03F10203 		add	r3, r3, #2
2441:/home/cuil/workspace/arm/lm3s811/TI_Stellaris/driverlib/sysctl.c ****                 ulClk = ((ulClk * (((ulPLL & SYSCTL_PLLCFG_F_M) >>
 14269              		.loc 1 2441 0
 14270 0224 3A69     		ldr	r2, [r7, #16]
 14271 0226 02FB03F2 		mul	r2, r2, r3
2443:/home/cuil/workspace/arm/lm3s811/TI_Stellaris/driverlib/sysctl.c ****                          (((ulPLL & SYSCTL_PLLCFG_R_M) >>
 14272              		.loc 1 2443 0
 14273 022a BB68     		ldr	r3, [r7, #8]
 14274 022c 03F01F03 		and	r3, r3, #31
2444:/home/cuil/workspace/arm/lm3s811/TI_Stellaris/driverlib/sysctl.c ****                            SYSCTL_PLLCFG_R_S) + 2));
 14275              		.loc 1 2444 0
 14276 0230 03F10203 		add	r3, r3, #2
2441:/home/cuil/workspace/arm/lm3s811/TI_Stellaris/driverlib/sysctl.c ****                 ulClk = ((ulClk * (((ulPLL & SYSCTL_PLLCFG_F_M) >>
 14277              		.loc 1 2441 0
 14278 0234 B2FBF3F3 		udiv	r3, r2, r3
 14279 0238 3B61     		str	r3, [r7, #16]
 14280 023a 37E0     		b	.L188
 14281              	.L197:
 14282              		.align	2
 14283              	.L196:
 14284 023c 60E00F40 		.word	1074782304
 14285 0240 70E00F40 		.word	1074782320
 14286 0244 40000000 		.word	g_pulXtals
 14287 0248 00E00F40 		.word	1074782208
 14288 024c 0000FF70 		.word	1895759872
 14289 0250 C0E1E400 		.word	15000000
 14290 0254 00000110 		.word	268500992
 14291 0258 00000310 		.word	268632064
 14292 025c 001BB700 		.word	12000000
 14293 0260 0024F400 		.word	16000000
 14294 0264 70383900 		.word	3750000
 14295 0268 C0C62D00 		.word	3000000
 14296 026c 00093D00 		.word	4000000
 14297 0270 00000510 		.word	268763136
 14298 0274 60E10F40 		.word	1074782560
 14299 0278 64E10F40 		.word	1074782564
 14300 027c 00FC0F00 		.word	1047552
 14301 0280 64E00F40 		.word	1074782308
 14302              	.L187:
2445:/home/cuil/workspace/arm/lm3s811/TI_Stellaris/driverlib/sysctl.c ****             }
2446:/home/cuil/workspace/arm/lm3s811/TI_Stellaris/driverlib/sysctl.c ****             else
2447:/home/cuil/workspace/arm/lm3s811/TI_Stellaris/driverlib/sysctl.c ****             {
2448:/home/cuil/workspace/arm/lm3s811/TI_Stellaris/driverlib/sysctl.c ****                 //
2449:/home/cuil/workspace/arm/lm3s811/TI_Stellaris/driverlib/sysctl.c ****                 // Compute the PLL output frequency based on its input
2450:/home/cuil/workspace/arm/lm3s811/TI_Stellaris/driverlib/sysctl.c ****                 // frequency.  The formula for a Fury-class device is
2451:/home/cuil/workspace/arm/lm3s811/TI_Stellaris/driverlib/sysctl.c ****                 // "(xtal * f) / ((r + 1) * 2)".
2452:/home/cuil/workspace/arm/lm3s811/TI_Stellaris/driverlib/sysctl.c ****                 //
2453:/home/cuil/workspace/arm/lm3s811/TI_Stellaris/driverlib/sysctl.c ****                 ulClk = ((ulClk * ((ulPLL & SYSCTL_PLLCFG_F_M) >>
 14303              		.loc 1 2453 0
 14304 0284 BA68     		ldr	r2, [r7, #8]
 14305 0286 43F6E073 		movw	r3, #16352
 14306 028a 02EA0303 		and	r3, r2, r3
 14307 028e 4FEA5313 		lsr	r3, r3, #5
 14308 0292 3A69     		ldr	r2, [r7, #16]
 14309 0294 02FB03F2 		mul	r2, r2, r3
2454:/home/cuil/workspace/arm/lm3s811/TI_Stellaris/driverlib/sysctl.c ****                                    SYSCTL_PLLCFG_F_S)) /
2455:/home/cuil/workspace/arm/lm3s811/TI_Stellaris/driverlib/sysctl.c ****                          ((((ulPLL & SYSCTL_PLLCFG_R_M) >>
 14310              		.loc 1 2455 0
 14311 0298 BB68     		ldr	r3, [r7, #8]
 14312 029a 03F01F03 		and	r3, r3, #31
2456:/home/cuil/workspace/arm/lm3s811/TI_Stellaris/driverlib/sysctl.c ****                             SYSCTL_PLLCFG_R_S) + 1) * 2));
 14313              		.loc 1 2456 0
 14314 029e 03F10103 		add	r3, r3, #1
 14315 02a2 4FEA4303 		lsl	r3, r3, #1
2453:/home/cuil/workspace/arm/lm3s811/TI_Stellaris/driverlib/sysctl.c ****                 ulClk = ((ulClk * ((ulPLL & SYSCTL_PLLCFG_F_M) >>
 14316              		.loc 1 2453 0
 14317 02a6 B2FBF3F3 		udiv	r3, r2, r3
 14318 02aa 3B61     		str	r3, [r7, #16]
 14319              	.L188:
2457:/home/cuil/workspace/arm/lm3s811/TI_Stellaris/driverlib/sysctl.c ****             }
2458:/home/cuil/workspace/arm/lm3s811/TI_Stellaris/driverlib/sysctl.c **** 
2459:/home/cuil/workspace/arm/lm3s811/TI_Stellaris/driverlib/sysctl.c ****             //
2460:/home/cuil/workspace/arm/lm3s811/TI_Stellaris/driverlib/sysctl.c ****             // See if the optional output divide by 2 is being used.
2461:/home/cuil/workspace/arm/lm3s811/TI_Stellaris/driverlib/sysctl.c ****             //
2462:/home/cuil/workspace/arm/lm3s811/TI_Stellaris/driverlib/sysctl.c ****             if(ulPLL & SYSCTL_PLLCFG_OD_2)
 14320              		.loc 1 2462 0
 14321 02ac BB68     		ldr	r3, [r7, #8]
 14322 02ae 03F48043 		and	r3, r3, #16384
 14323 02b2 002B     		cmp	r3, #0
 14324 02b4 03D0     		beq	.L189
2463:/home/cuil/workspace/arm/lm3s811/TI_Stellaris/driverlib/sysctl.c ****             {
2464:/home/cuil/workspace/arm/lm3s811/TI_Stellaris/driverlib/sysctl.c ****                 ulClk /= 2;
 14325              		.loc 1 2464 0
 14326 02b6 3B69     		ldr	r3, [r7, #16]
 14327 02b8 4FEA5303 		lsr	r3, r3, #1
 14328 02bc 3B61     		str	r3, [r7, #16]
 14329              	.L189:
2465:/home/cuil/workspace/arm/lm3s811/TI_Stellaris/driverlib/sysctl.c ****             }
2466:/home/cuil/workspace/arm/lm3s811/TI_Stellaris/driverlib/sysctl.c **** 
2467:/home/cuil/workspace/arm/lm3s811/TI_Stellaris/driverlib/sysctl.c ****             //
2468:/home/cuil/workspace/arm/lm3s811/TI_Stellaris/driverlib/sysctl.c ****             // See if the optional output divide by 4 is being used.
2469:/home/cuil/workspace/arm/lm3s811/TI_Stellaris/driverlib/sysctl.c ****             //
2470:/home/cuil/workspace/arm/lm3s811/TI_Stellaris/driverlib/sysctl.c ****             if(ulPLL & SYSCTL_PLLCFG_OD_4)
 14330              		.loc 1 2470 0
 14331 02be BB68     		ldr	r3, [r7, #8]
 14332 02c0 03F40043 		and	r3, r3, #32768
 14333 02c4 002B     		cmp	r3, #0
 14334 02c6 03D0     		beq	.L185
2471:/home/cuil/workspace/arm/lm3s811/TI_Stellaris/driverlib/sysctl.c ****             {
2472:/home/cuil/workspace/arm/lm3s811/TI_Stellaris/driverlib/sysctl.c ****                 ulClk /= 4;
 14335              		.loc 1 2472 0
 14336 02c8 3B69     		ldr	r3, [r7, #16]
 14337 02ca 4FEA9303 		lsr	r3, r3, #2
 14338 02ce 3B61     		str	r3, [r7, #16]
 14339              	.L185:
2473:/home/cuil/workspace/arm/lm3s811/TI_Stellaris/driverlib/sysctl.c ****             }
2474:/home/cuil/workspace/arm/lm3s811/TI_Stellaris/driverlib/sysctl.c ****         }
2475:/home/cuil/workspace/arm/lm3s811/TI_Stellaris/driverlib/sysctl.c **** 
2476:/home/cuil/workspace/arm/lm3s811/TI_Stellaris/driverlib/sysctl.c ****         //
2477:/home/cuil/workspace/arm/lm3s811/TI_Stellaris/driverlib/sysctl.c ****         // Force the system divider to be enabled.  It is always used when
2478:/home/cuil/workspace/arm/lm3s811/TI_Stellaris/driverlib/sysctl.c ****         // using the PLL, but in some cases it does not read as being enabled.
2479:/home/cuil/workspace/arm/lm3s811/TI_Stellaris/driverlib/sysctl.c ****         //
2480:/home/cuil/workspace/arm/lm3s811/TI_Stellaris/driverlib/sysctl.c ****         ulRCC |= SYSCTL_RCC_USESYSDIV;
 14340              		.loc 1 2480 0
 14341 02d0 7B69     		ldr	r3, [r7, #20]
 14342 02d2 43F48003 		orr	r3, r3, #4194304
 14343 02d6 7B61     		str	r3, [r7, #20]
 14344              	.L183:
2481:/home/cuil/workspace/arm/lm3s811/TI_Stellaris/driverlib/sysctl.c ****     }
2482:/home/cuil/workspace/arm/lm3s811/TI_Stellaris/driverlib/sysctl.c **** 
2483:/home/cuil/workspace/arm/lm3s811/TI_Stellaris/driverlib/sysctl.c ****     //
2484:/home/cuil/workspace/arm/lm3s811/TI_Stellaris/driverlib/sysctl.c ****     // See if the system divider is being used.
2485:/home/cuil/workspace/arm/lm3s811/TI_Stellaris/driverlib/sysctl.c ****     //
2486:/home/cuil/workspace/arm/lm3s811/TI_Stellaris/driverlib/sysctl.c ****     if(ulRCC & SYSCTL_RCC_USESYSDIV)
 14345              		.loc 1 2486 0
 14346 02d8 7B69     		ldr	r3, [r7, #20]
 14347 02da 03F48003 		and	r3, r3, #4194304
 14348 02de 002B     		cmp	r3, #0
 14349 02e0 3CD0     		beq	.L190
2487:/home/cuil/workspace/arm/lm3s811/TI_Stellaris/driverlib/sysctl.c ****     {
2488:/home/cuil/workspace/arm/lm3s811/TI_Stellaris/driverlib/sysctl.c ****         //
2489:/home/cuil/workspace/arm/lm3s811/TI_Stellaris/driverlib/sysctl.c ****         // Adjust the clock rate by the system clock divider.
2490:/home/cuil/workspace/arm/lm3s811/TI_Stellaris/driverlib/sysctl.c ****         //
2491:/home/cuil/workspace/arm/lm3s811/TI_Stellaris/driverlib/sysctl.c ****         if(ulRCC2 & SYSCTL_RCC2_USERCC2)
 14350              		.loc 1 2491 0
 14351 02e2 FB68     		ldr	r3, [r7, #12]
 14352 02e4 002B     		cmp	r3, #0
 14353 02e6 2EDA     		bge	.L191
2492:/home/cuil/workspace/arm/lm3s811/TI_Stellaris/driverlib/sysctl.c ****         {
2493:/home/cuil/workspace/arm/lm3s811/TI_Stellaris/driverlib/sysctl.c ****             if((ulRCC2 & SYSCTL_RCC2_DIV400) &&
 14354              		.loc 1 2493 0
 14355 02e8 FB68     		ldr	r3, [r7, #12]
 14356 02ea 03F08043 		and	r3, r3, #1073741824
 14357 02ee 002B     		cmp	r3, #0
 14358 02f0 1DD0     		beq	.L192
2494:/home/cuil/workspace/arm/lm3s811/TI_Stellaris/driverlib/sysctl.c ****                (((ulRCC2 & SYSCTL_RCC2_USERCC2) &&
 14359              		.loc 1 2494 0 discriminator 1
 14360 02f2 FB68     		ldr	r3, [r7, #12]
2493:/home/cuil/workspace/arm/lm3s811/TI_Stellaris/driverlib/sysctl.c ****             if((ulRCC2 & SYSCTL_RCC2_DIV400) &&
 14361              		.loc 1 2493 0 discriminator 1
 14362 02f4 002B     		cmp	r3, #0
 14363 02f6 04DA     		bge	.L193
2495:/home/cuil/workspace/arm/lm3s811/TI_Stellaris/driverlib/sysctl.c ****                  !(ulRCC2 & SYSCTL_RCC2_BYPASS2)) ||
 14364              		.loc 1 2495 0
 14365 02f8 FB68     		ldr	r3, [r7, #12]
 14366 02fa 03F40063 		and	r3, r3, #2048
2494:/home/cuil/workspace/arm/lm3s811/TI_Stellaris/driverlib/sysctl.c ****                (((ulRCC2 & SYSCTL_RCC2_USERCC2) &&
 14367              		.loc 1 2494 0
 14368 02fe 002B     		cmp	r3, #0
 14369 0300 07D0     		beq	.L194
 14370              	.L193:
2496:/home/cuil/workspace/arm/lm3s811/TI_Stellaris/driverlib/sysctl.c ****                 (!(ulRCC2 & SYSCTL_RCC2_USERCC2) &&
 14371              		.loc 1 2496 0
 14372 0302 FB68     		ldr	r3, [r7, #12]
2495:/home/cuil/workspace/arm/lm3s811/TI_Stellaris/driverlib/sysctl.c ****                  !(ulRCC2 & SYSCTL_RCC2_BYPASS2)) ||
 14373              		.loc 1 2495 0
 14374 0304 002B     		cmp	r3, #0
 14375 0306 12DB     		blt	.L192
2497:/home/cuil/workspace/arm/lm3s811/TI_Stellaris/driverlib/sysctl.c ****                  !(ulRCC & SYSCTL_RCC_BYPASS))))
 14376              		.loc 1 2497 0
 14377 0308 7B69     		ldr	r3, [r7, #20]
 14378 030a 03F40063 		and	r3, r3, #2048
2496:/home/cuil/workspace/arm/lm3s811/TI_Stellaris/driverlib/sysctl.c ****                 (!(ulRCC2 & SYSCTL_RCC2_USERCC2) &&
 14379              		.loc 1 2496 0
 14380 030e 002B     		cmp	r3, #0
 14381 0310 0DD1     		bne	.L192
 14382              	.L194:
2498:/home/cuil/workspace/arm/lm3s811/TI_Stellaris/driverlib/sysctl.c **** 
2499:/home/cuil/workspace/arm/lm3s811/TI_Stellaris/driverlib/sysctl.c ****             {
2500:/home/cuil/workspace/arm/lm3s811/TI_Stellaris/driverlib/sysctl.c ****                 ulClk = ((ulClk * 2) / (((ulRCC2 & (SYSCTL_RCC2_SYSDIV2_M |
 14383              		.loc 1 2500 0
 14384 0312 3B69     		ldr	r3, [r7, #16]
 14385 0314 4FEA4302 		lsl	r2, r3, #1
 14386 0318 FB68     		ldr	r3, [r7, #12]
 14387 031a 03F0FE53 		and	r3, r3, #532676608
2501:/home/cuil/workspace/arm/lm3s811/TI_Stellaris/driverlib/sysctl.c ****                                                     SYSCTL_RCC2_SYSDIV2LSB)) >>
 14388              		.loc 1 2501 0
 14389 031e 4FEA9353 		lsr	r3, r3, #22
2502:/home/cuil/workspace/arm/lm3s811/TI_Stellaris/driverlib/sysctl.c ****                                          (SYSCTL_RCC2_SYSDIV2_S - 1)) + 1));
 14390              		.loc 1 2502 0
 14391 0322 03F10103 		add	r3, r3, #1
2500:/home/cuil/workspace/arm/lm3s811/TI_Stellaris/driverlib/sysctl.c ****                 ulClk = ((ulClk * 2) / (((ulRCC2 & (SYSCTL_RCC2_SYSDIV2_M |
 14392              		.loc 1 2500 0
 14393 0326 B2FBF3F3 		udiv	r3, r2, r3
 14394 032a 3B61     		str	r3, [r7, #16]
 14395 032c 16E0     		b	.L190
 14396              	.L192:
2503:/home/cuil/workspace/arm/lm3s811/TI_Stellaris/driverlib/sysctl.c ****             }
2504:/home/cuil/workspace/arm/lm3s811/TI_Stellaris/driverlib/sysctl.c ****             else
2505:/home/cuil/workspace/arm/lm3s811/TI_Stellaris/driverlib/sysctl.c ****             {
2506:/home/cuil/workspace/arm/lm3s811/TI_Stellaris/driverlib/sysctl.c ****                 ulClk /= (((ulRCC2 & SYSCTL_RCC2_SYSDIV2_M) >>
 14397              		.loc 1 2506 0
 14398 032e FB68     		ldr	r3, [r7, #12]
 14399 0330 03F0FC53 		and	r3, r3, #528482304
 14400 0334 4FEAD353 		lsr	r3, r3, #23
2507:/home/cuil/workspace/arm/lm3s811/TI_Stellaris/driverlib/sysctl.c ****                            SYSCTL_RCC2_SYSDIV2_S) + 1);
 14401              		.loc 1 2507 0
 14402 0338 03F10103 		add	r3, r3, #1
2506:/home/cuil/workspace/arm/lm3s811/TI_Stellaris/driverlib/sysctl.c ****                 ulClk /= (((ulRCC2 & SYSCTL_RCC2_SYSDIV2_M) >>
 14403              		.loc 1 2506 0
 14404 033c 3A69     		ldr	r2, [r7, #16]
 14405 033e B2FBF3F3 		udiv	r3, r2, r3
 14406 0342 3B61     		str	r3, [r7, #16]
 14407 0344 0AE0     		b	.L190
 14408              	.L191:
2508:/home/cuil/workspace/arm/lm3s811/TI_Stellaris/driverlib/sysctl.c ****             }
2509:/home/cuil/workspace/arm/lm3s811/TI_Stellaris/driverlib/sysctl.c ****         }
2510:/home/cuil/workspace/arm/lm3s811/TI_Stellaris/driverlib/sysctl.c ****         else
2511:/home/cuil/workspace/arm/lm3s811/TI_Stellaris/driverlib/sysctl.c ****         {
2512:/home/cuil/workspace/arm/lm3s811/TI_Stellaris/driverlib/sysctl.c ****             ulClk /= (((ulRCC & SYSCTL_RCC_SYSDIV_M) >> SYSCTL_RCC_SYSDIV_S) +
 14409              		.loc 1 2512 0
 14410 0346 7B69     		ldr	r3, [r7, #20]
 14411 0348 03F0F063 		and	r3, r3, #125829120
 14412 034c 4FEAD353 		lsr	r3, r3, #23
 14413 0350 03F10103 		add	r3, r3, #1
 14414 0354 3A69     		ldr	r2, [r7, #16]
 14415 0356 B2FBF3F3 		udiv	r3, r2, r3
 14416 035a 3B61     		str	r3, [r7, #16]
 14417              	.L190:
2513:/home/cuil/workspace/arm/lm3s811/TI_Stellaris/driverlib/sysctl.c ****                       1);
2514:/home/cuil/workspace/arm/lm3s811/TI_Stellaris/driverlib/sysctl.c ****         }
2515:/home/cuil/workspace/arm/lm3s811/TI_Stellaris/driverlib/sysctl.c ****     }
2516:/home/cuil/workspace/arm/lm3s811/TI_Stellaris/driverlib/sysctl.c **** 
2517:/home/cuil/workspace/arm/lm3s811/TI_Stellaris/driverlib/sysctl.c ****     //
2518:/home/cuil/workspace/arm/lm3s811/TI_Stellaris/driverlib/sysctl.c ****     // Return the computed clock rate.
2519:/home/cuil/workspace/arm/lm3s811/TI_Stellaris/driverlib/sysctl.c ****     //
2520:/home/cuil/workspace/arm/lm3s811/TI_Stellaris/driverlib/sysctl.c ****     return(ulClk);
 14418              		.loc 1 2520 0
 14419 035c 3B69     		ldr	r3, [r7, #16]
 14420              	.L180:
2521:/home/cuil/workspace/arm/lm3s811/TI_Stellaris/driverlib/sysctl.c **** }
 14421              		.loc 1 2521 0
 14422 035e 1846     		mov	r0, r3
 14423 0360 07F11C07 		add	r7, r7, #28
 14424 0364 BD46     		mov	sp, r7
 14425 0366 80BC     		pop	{r7}
 14426 0368 7047     		bx	lr
 14427              		.cfi_endproc
 14428              	.LFE35:
 14430 036a 00BF     		.section	.text.SysCtlDeepSleepClockSet,"ax",%progbits
 14431              		.align	2
 14432              		.global	SysCtlDeepSleepClockSet
 14433              		.thumb
 14434              		.thumb_func
 14436              	SysCtlDeepSleepClockSet:
 14437              	.LFB36:
2522:/home/cuil/workspace/arm/lm3s811/TI_Stellaris/driverlib/sysctl.c **** 
2523:/home/cuil/workspace/arm/lm3s811/TI_Stellaris/driverlib/sysctl.c **** //*****************************************************************************
2524:/home/cuil/workspace/arm/lm3s811/TI_Stellaris/driverlib/sysctl.c **** //
2525:/home/cuil/workspace/arm/lm3s811/TI_Stellaris/driverlib/sysctl.c **** //! Sets the clocking of the device while in deep-sleep mode.
2526:/home/cuil/workspace/arm/lm3s811/TI_Stellaris/driverlib/sysctl.c **** //!
2527:/home/cuil/workspace/arm/lm3s811/TI_Stellaris/driverlib/sysctl.c **** //! \param ulConfig is the required configuration of the device clocking while
2528:/home/cuil/workspace/arm/lm3s811/TI_Stellaris/driverlib/sysctl.c **** //! in deep-sleep mode.
2529:/home/cuil/workspace/arm/lm3s811/TI_Stellaris/driverlib/sysctl.c **** //!
2530:/home/cuil/workspace/arm/lm3s811/TI_Stellaris/driverlib/sysctl.c **** //! This function configures the clocking of the device while in deep-sleep
2531:/home/cuil/workspace/arm/lm3s811/TI_Stellaris/driverlib/sysctl.c **** //! mode.  The oscillator to be used and the system clock divider are
2532:/home/cuil/workspace/arm/lm3s811/TI_Stellaris/driverlib/sysctl.c **** //! configured with this function.
2533:/home/cuil/workspace/arm/lm3s811/TI_Stellaris/driverlib/sysctl.c **** //!
2534:/home/cuil/workspace/arm/lm3s811/TI_Stellaris/driverlib/sysctl.c **** //! The \e ulConfig parameter is the logical OR of the following values:
2535:/home/cuil/workspace/arm/lm3s811/TI_Stellaris/driverlib/sysctl.c **** //!
2536:/home/cuil/workspace/arm/lm3s811/TI_Stellaris/driverlib/sysctl.c **** //! The system clock divider is chosen with one of the following values:
2537:/home/cuil/workspace/arm/lm3s811/TI_Stellaris/driverlib/sysctl.c **** //! \b SYSCTL_DSLP_DIV_1, \b SYSCTL_DSLP_DIV_2, \b SYSCTL_DSLP_DIV_3, ...
2538:/home/cuil/workspace/arm/lm3s811/TI_Stellaris/driverlib/sysctl.c **** //! \b SYSCTL_DSLP_DIV_64.
2539:/home/cuil/workspace/arm/lm3s811/TI_Stellaris/driverlib/sysctl.c **** //!
2540:/home/cuil/workspace/arm/lm3s811/TI_Stellaris/driverlib/sysctl.c **** //! The oscillator source is chosen with one of the following values:
2541:/home/cuil/workspace/arm/lm3s811/TI_Stellaris/driverlib/sysctl.c **** //! \b SYSCTL_DSLP_OSC_MAIN, \b SYSCTL_DSLP_OSC_INT, \b SYSCTL_DSLP_OSC_INT30,
2542:/home/cuil/workspace/arm/lm3s811/TI_Stellaris/driverlib/sysctl.c **** //! or \b SYSCTL_DSLP_OSC_EXT32.  \b SYSCTL_OSC_EXT32 is only available on
2543:/home/cuil/workspace/arm/lm3s811/TI_Stellaris/driverlib/sysctl.c **** //! devices with the hibernate module, and then only when the hibernate module
2544:/home/cuil/workspace/arm/lm3s811/TI_Stellaris/driverlib/sysctl.c **** //! has been enabled.
2545:/home/cuil/workspace/arm/lm3s811/TI_Stellaris/driverlib/sysctl.c **** //!
2546:/home/cuil/workspace/arm/lm3s811/TI_Stellaris/driverlib/sysctl.c **** //! The precision internal oscillator can be powered down in deep-sleep mode by
2547:/home/cuil/workspace/arm/lm3s811/TI_Stellaris/driverlib/sysctl.c **** //! specifying \b SYSCTL_DSLP_PIOSC_PD.  If it is required for operation while
2548:/home/cuil/workspace/arm/lm3s811/TI_Stellaris/driverlib/sysctl.c **** //! in deep-sleep (based on other configuration settings), it will not be
2549:/home/cuil/workspace/arm/lm3s811/TI_Stellaris/driverlib/sysctl.c **** //! powered down.
2550:/home/cuil/workspace/arm/lm3s811/TI_Stellaris/driverlib/sysctl.c **** //!
2551:/home/cuil/workspace/arm/lm3s811/TI_Stellaris/driverlib/sysctl.c **** //! \note The availability of deep-sleep clocking configuration varies with the
2552:/home/cuil/workspace/arm/lm3s811/TI_Stellaris/driverlib/sysctl.c **** //! Stellaris part in use.  Please consult the datasheet for the part you are
2553:/home/cuil/workspace/arm/lm3s811/TI_Stellaris/driverlib/sysctl.c **** //! using to determine whether this support is available.
2554:/home/cuil/workspace/arm/lm3s811/TI_Stellaris/driverlib/sysctl.c **** //!
2555:/home/cuil/workspace/arm/lm3s811/TI_Stellaris/driverlib/sysctl.c **** //! \return None.
2556:/home/cuil/workspace/arm/lm3s811/TI_Stellaris/driverlib/sysctl.c **** //
2557:/home/cuil/workspace/arm/lm3s811/TI_Stellaris/driverlib/sysctl.c **** //*****************************************************************************
2558:/home/cuil/workspace/arm/lm3s811/TI_Stellaris/driverlib/sysctl.c **** void
2559:/home/cuil/workspace/arm/lm3s811/TI_Stellaris/driverlib/sysctl.c **** SysCtlDeepSleepClockSet(unsigned long ulConfig)
2560:/home/cuil/workspace/arm/lm3s811/TI_Stellaris/driverlib/sysctl.c **** {
 14438              		.loc 1 2560 0
 14439              		.cfi_startproc
 14440              		@ args = 0, pretend = 0, frame = 8
 14441              		@ frame_needed = 1, uses_anonymous_args = 0
 14442              		@ link register save eliminated.
 14443 0000 80B4     		push	{r7}
 14444              	.LCFI97:
 14445              		.cfi_def_cfa_offset 4
 14446 0002 83B0     		sub	sp, sp, #12
 14447              	.LCFI98:
 14448              		.cfi_def_cfa_offset 16
 14449 0004 00AF     		add	r7, sp, #0
 14450              		.cfi_offset 7, -4
 14451              	.LCFI99:
 14452              		.cfi_def_cfa_register 7
 14453 0006 7860     		str	r0, [r7, #4]
2561:/home/cuil/workspace/arm/lm3s811/TI_Stellaris/driverlib/sysctl.c ****     //
2562:/home/cuil/workspace/arm/lm3s811/TI_Stellaris/driverlib/sysctl.c ****     // Set the deep-sleep clock configuration.
2563:/home/cuil/workspace/arm/lm3s811/TI_Stellaris/driverlib/sysctl.c ****     //
2564:/home/cuil/workspace/arm/lm3s811/TI_Stellaris/driverlib/sysctl.c ****     HWREG(SYSCTL_DSLPCLKCFG) = ulConfig;
 14454              		.loc 1 2564 0
 14455 0008 034B     		ldr	r3, .L199
 14456 000a 7A68     		ldr	r2, [r7, #4]
 14457 000c 1A60     		str	r2, [r3, #0]
2565:/home/cuil/workspace/arm/lm3s811/TI_Stellaris/driverlib/sysctl.c **** }
 14458              		.loc 1 2565 0
 14459 000e 07F10C07 		add	r7, r7, #12
 14460 0012 BD46     		mov	sp, r7
 14461 0014 80BC     		pop	{r7}
 14462 0016 7047     		bx	lr
 14463              	.L200:
 14464              		.align	2
 14465              	.L199:
 14466 0018 44E10F40 		.word	1074782532
 14467              		.cfi_endproc
 14468              	.LFE36:
 14470              		.section	.text.SysCtlPWMClockSet,"ax",%progbits
 14471              		.align	2
 14472              		.global	SysCtlPWMClockSet
 14473              		.thumb
 14474              		.thumb_func
 14476              	SysCtlPWMClockSet:
 14477              	.LFB37:
2566:/home/cuil/workspace/arm/lm3s811/TI_Stellaris/driverlib/sysctl.c **** 
2567:/home/cuil/workspace/arm/lm3s811/TI_Stellaris/driverlib/sysctl.c **** //*****************************************************************************
2568:/home/cuil/workspace/arm/lm3s811/TI_Stellaris/driverlib/sysctl.c **** //
2569:/home/cuil/workspace/arm/lm3s811/TI_Stellaris/driverlib/sysctl.c **** //! Sets the PWM clock configuration.
2570:/home/cuil/workspace/arm/lm3s811/TI_Stellaris/driverlib/sysctl.c **** //!
2571:/home/cuil/workspace/arm/lm3s811/TI_Stellaris/driverlib/sysctl.c **** //! \param ulConfig is the configuration for the PWM clock; it must be one of
2572:/home/cuil/workspace/arm/lm3s811/TI_Stellaris/driverlib/sysctl.c **** //! \b SYSCTL_PWMDIV_1, \b SYSCTL_PWMDIV_2, \b SYSCTL_PWMDIV_4,
2573:/home/cuil/workspace/arm/lm3s811/TI_Stellaris/driverlib/sysctl.c **** //! \b SYSCTL_PWMDIV_8, \b SYSCTL_PWMDIV_16, \b SYSCTL_PWMDIV_32, or
2574:/home/cuil/workspace/arm/lm3s811/TI_Stellaris/driverlib/sysctl.c **** //! \b SYSCTL_PWMDIV_64.
2575:/home/cuil/workspace/arm/lm3s811/TI_Stellaris/driverlib/sysctl.c **** //!
2576:/home/cuil/workspace/arm/lm3s811/TI_Stellaris/driverlib/sysctl.c **** //! This function configures the rate of the clock provided to the PWM module
2577:/home/cuil/workspace/arm/lm3s811/TI_Stellaris/driverlib/sysctl.c **** //! as a ratio of the processor clock.  This clock is used by the PWM module to
2578:/home/cuil/workspace/arm/lm3s811/TI_Stellaris/driverlib/sysctl.c **** //! generate PWM signals; its rate forms the basis for all PWM signals.
2579:/home/cuil/workspace/arm/lm3s811/TI_Stellaris/driverlib/sysctl.c **** //!
2580:/home/cuil/workspace/arm/lm3s811/TI_Stellaris/driverlib/sysctl.c **** //! \note The clocking of the PWM is dependent upon the system clock rate as
2581:/home/cuil/workspace/arm/lm3s811/TI_Stellaris/driverlib/sysctl.c **** //! configured by SysCtlClockSet().
2582:/home/cuil/workspace/arm/lm3s811/TI_Stellaris/driverlib/sysctl.c **** //!
2583:/home/cuil/workspace/arm/lm3s811/TI_Stellaris/driverlib/sysctl.c **** //! \return None.
2584:/home/cuil/workspace/arm/lm3s811/TI_Stellaris/driverlib/sysctl.c **** //
2585:/home/cuil/workspace/arm/lm3s811/TI_Stellaris/driverlib/sysctl.c **** //*****************************************************************************
2586:/home/cuil/workspace/arm/lm3s811/TI_Stellaris/driverlib/sysctl.c **** void
2587:/home/cuil/workspace/arm/lm3s811/TI_Stellaris/driverlib/sysctl.c **** SysCtlPWMClockSet(unsigned long ulConfig)
2588:/home/cuil/workspace/arm/lm3s811/TI_Stellaris/driverlib/sysctl.c **** {
 14478              		.loc 1 2588 0
 14479              		.cfi_startproc
 14480              		@ args = 0, pretend = 0, frame = 8
 14481              		@ frame_needed = 1, uses_anonymous_args = 0
 14482              		@ link register save eliminated.
 14483 0000 80B4     		push	{r7}
 14484              	.LCFI100:
 14485              		.cfi_def_cfa_offset 4
 14486 0002 83B0     		sub	sp, sp, #12
 14487              	.LCFI101:
 14488              		.cfi_def_cfa_offset 16
 14489 0004 00AF     		add	r7, sp, #0
 14490              		.cfi_offset 7, -4
 14491              	.LCFI102:
 14492              		.cfi_def_cfa_register 7
 14493 0006 7860     		str	r0, [r7, #4]
2589:/home/cuil/workspace/arm/lm3s811/TI_Stellaris/driverlib/sysctl.c ****     //
2590:/home/cuil/workspace/arm/lm3s811/TI_Stellaris/driverlib/sysctl.c ****     // Check the arguments.
2591:/home/cuil/workspace/arm/lm3s811/TI_Stellaris/driverlib/sysctl.c ****     //
2592:/home/cuil/workspace/arm/lm3s811/TI_Stellaris/driverlib/sysctl.c ****     ASSERT((ulConfig == SYSCTL_PWMDIV_1) ||
2593:/home/cuil/workspace/arm/lm3s811/TI_Stellaris/driverlib/sysctl.c ****            (ulConfig == SYSCTL_PWMDIV_2) ||
2594:/home/cuil/workspace/arm/lm3s811/TI_Stellaris/driverlib/sysctl.c ****            (ulConfig == SYSCTL_PWMDIV_4) ||
2595:/home/cuil/workspace/arm/lm3s811/TI_Stellaris/driverlib/sysctl.c ****            (ulConfig == SYSCTL_PWMDIV_8) ||
2596:/home/cuil/workspace/arm/lm3s811/TI_Stellaris/driverlib/sysctl.c ****            (ulConfig == SYSCTL_PWMDIV_16) ||
2597:/home/cuil/workspace/arm/lm3s811/TI_Stellaris/driverlib/sysctl.c ****            (ulConfig == SYSCTL_PWMDIV_32) ||
2598:/home/cuil/workspace/arm/lm3s811/TI_Stellaris/driverlib/sysctl.c ****            (ulConfig == SYSCTL_PWMDIV_64));
2599:/home/cuil/workspace/arm/lm3s811/TI_Stellaris/driverlib/sysctl.c **** 
2600:/home/cuil/workspace/arm/lm3s811/TI_Stellaris/driverlib/sysctl.c ****     //
2601:/home/cuil/workspace/arm/lm3s811/TI_Stellaris/driverlib/sysctl.c ****     // Check that there is a PWM block on this part.
2602:/home/cuil/workspace/arm/lm3s811/TI_Stellaris/driverlib/sysctl.c ****     //
2603:/home/cuil/workspace/arm/lm3s811/TI_Stellaris/driverlib/sysctl.c ****     ASSERT(HWREG(SYSCTL_DC1) & SYSCTL_DC1_PWM0);
2604:/home/cuil/workspace/arm/lm3s811/TI_Stellaris/driverlib/sysctl.c **** 
2605:/home/cuil/workspace/arm/lm3s811/TI_Stellaris/driverlib/sysctl.c ****     //
2606:/home/cuil/workspace/arm/lm3s811/TI_Stellaris/driverlib/sysctl.c ****     // Set the PWM clock configuration into the run-mode clock configuration
2607:/home/cuil/workspace/arm/lm3s811/TI_Stellaris/driverlib/sysctl.c ****     // register.
2608:/home/cuil/workspace/arm/lm3s811/TI_Stellaris/driverlib/sysctl.c ****     //
2609:/home/cuil/workspace/arm/lm3s811/TI_Stellaris/driverlib/sysctl.c ****     HWREG(SYSCTL_RCC) = ((HWREG(SYSCTL_RCC) &
 14494              		.loc 1 2609 0
 14495 0008 064B     		ldr	r3, .L202
 14496 000a 064A     		ldr	r2, .L202
 14497 000c 1268     		ldr	r2, [r2, #0]
 14498 000e 22F4F011 		bic	r1, r2, #1966080
2610:/home/cuil/workspace/arm/lm3s811/TI_Stellaris/driverlib/sysctl.c ****                           ~(SYSCTL_RCC_USEPWMDIV | SYSCTL_RCC_PWMDIV_M)) |
 14499              		.loc 1 2610 0
 14500 0012 7A68     		ldr	r2, [r7, #4]
 14501 0014 41EA0202 		orr	r2, r1, r2
2609:/home/cuil/workspace/arm/lm3s811/TI_Stellaris/driverlib/sysctl.c ****     HWREG(SYSCTL_RCC) = ((HWREG(SYSCTL_RCC) &
 14502              		.loc 1 2609 0
 14503 0018 1A60     		str	r2, [r3, #0]
2611:/home/cuil/workspace/arm/lm3s811/TI_Stellaris/driverlib/sysctl.c ****                          ulConfig);
2612:/home/cuil/workspace/arm/lm3s811/TI_Stellaris/driverlib/sysctl.c **** }
 14504              		.loc 1 2612 0
 14505 001a 07F10C07 		add	r7, r7, #12
 14506 001e BD46     		mov	sp, r7
 14507 0020 80BC     		pop	{r7}
 14508 0022 7047     		bx	lr
 14509              	.L203:
 14510              		.align	2
 14511              	.L202:
 14512 0024 60E00F40 		.word	1074782304
 14513              		.cfi_endproc
 14514              	.LFE37:
 14516              		.section	.text.SysCtlPWMClockGet,"ax",%progbits
 14517              		.align	2
 14518              		.global	SysCtlPWMClockGet
 14519              		.thumb
 14520              		.thumb_func
 14522              	SysCtlPWMClockGet:
 14523              	.LFB38:
2613:/home/cuil/workspace/arm/lm3s811/TI_Stellaris/driverlib/sysctl.c **** 
2614:/home/cuil/workspace/arm/lm3s811/TI_Stellaris/driverlib/sysctl.c **** //*****************************************************************************
2615:/home/cuil/workspace/arm/lm3s811/TI_Stellaris/driverlib/sysctl.c **** //
2616:/home/cuil/workspace/arm/lm3s811/TI_Stellaris/driverlib/sysctl.c **** //! Gets the current PWM clock configuration.
2617:/home/cuil/workspace/arm/lm3s811/TI_Stellaris/driverlib/sysctl.c **** //!
2618:/home/cuil/workspace/arm/lm3s811/TI_Stellaris/driverlib/sysctl.c **** //! This function returns the current PWM clock configuration.
2619:/home/cuil/workspace/arm/lm3s811/TI_Stellaris/driverlib/sysctl.c **** //!
2620:/home/cuil/workspace/arm/lm3s811/TI_Stellaris/driverlib/sysctl.c **** //! \return Returns the current PWM clock configuration; is one of
2621:/home/cuil/workspace/arm/lm3s811/TI_Stellaris/driverlib/sysctl.c **** //! \b SYSCTL_PWMDIV_1, \b SYSCTL_PWMDIV_2, \b SYSCTL_PWMDIV_4,
2622:/home/cuil/workspace/arm/lm3s811/TI_Stellaris/driverlib/sysctl.c **** //! \b SYSCTL_PWMDIV_8, \b SYSCTL_PWMDIV_16, \b SYSCTL_PWMDIV_32, or
2623:/home/cuil/workspace/arm/lm3s811/TI_Stellaris/driverlib/sysctl.c **** //! \b SYSCTL_PWMDIV_64.
2624:/home/cuil/workspace/arm/lm3s811/TI_Stellaris/driverlib/sysctl.c **** //
2625:/home/cuil/workspace/arm/lm3s811/TI_Stellaris/driverlib/sysctl.c **** //*****************************************************************************
2626:/home/cuil/workspace/arm/lm3s811/TI_Stellaris/driverlib/sysctl.c **** unsigned long
2627:/home/cuil/workspace/arm/lm3s811/TI_Stellaris/driverlib/sysctl.c **** SysCtlPWMClockGet(void)
2628:/home/cuil/workspace/arm/lm3s811/TI_Stellaris/driverlib/sysctl.c **** {
 14524              		.loc 1 2628 0
 14525              		.cfi_startproc
 14526              		@ args = 0, pretend = 0, frame = 0
 14527              		@ frame_needed = 1, uses_anonymous_args = 0
 14528              		@ link register save eliminated.
 14529 0000 80B4     		push	{r7}
 14530              	.LCFI103:
 14531              		.cfi_def_cfa_offset 4
 14532 0002 00AF     		add	r7, sp, #0
 14533              		.cfi_offset 7, -4
 14534              	.LCFI104:
 14535              		.cfi_def_cfa_register 7
2629:/home/cuil/workspace/arm/lm3s811/TI_Stellaris/driverlib/sysctl.c ****     //
2630:/home/cuil/workspace/arm/lm3s811/TI_Stellaris/driverlib/sysctl.c ****     // Check that there is a PWM block on this part.
2631:/home/cuil/workspace/arm/lm3s811/TI_Stellaris/driverlib/sysctl.c ****     //
2632:/home/cuil/workspace/arm/lm3s811/TI_Stellaris/driverlib/sysctl.c ****     ASSERT(HWREG(SYSCTL_DC1) & SYSCTL_DC1_PWM0);
2633:/home/cuil/workspace/arm/lm3s811/TI_Stellaris/driverlib/sysctl.c **** 
2634:/home/cuil/workspace/arm/lm3s811/TI_Stellaris/driverlib/sysctl.c ****     //
2635:/home/cuil/workspace/arm/lm3s811/TI_Stellaris/driverlib/sysctl.c ****     // Return the current PWM clock configuration.  Make sure that
2636:/home/cuil/workspace/arm/lm3s811/TI_Stellaris/driverlib/sysctl.c ****     // SYSCTL_PWMDIV_1 is returned in all cases where the divider is disabled.
2637:/home/cuil/workspace/arm/lm3s811/TI_Stellaris/driverlib/sysctl.c ****     //
2638:/home/cuil/workspace/arm/lm3s811/TI_Stellaris/driverlib/sysctl.c ****     if(!(HWREG(SYSCTL_RCC) & SYSCTL_RCC_USEPWMDIV))
 14536              		.loc 1 2638 0
 14537 0004 084B     		ldr	r3, .L207
 14538 0006 1B68     		ldr	r3, [r3, #0]
 14539 0008 03F48013 		and	r3, r3, #1048576
 14540 000c 002B     		cmp	r3, #0
 14541 000e 02D1     		bne	.L205
2639:/home/cuil/workspace/arm/lm3s811/TI_Stellaris/driverlib/sysctl.c ****     {
2640:/home/cuil/workspace/arm/lm3s811/TI_Stellaris/driverlib/sysctl.c ****         //
2641:/home/cuil/workspace/arm/lm3s811/TI_Stellaris/driverlib/sysctl.c ****         // The divider is not active so reflect this in the value we return.
2642:/home/cuil/workspace/arm/lm3s811/TI_Stellaris/driverlib/sysctl.c ****         //
2643:/home/cuil/workspace/arm/lm3s811/TI_Stellaris/driverlib/sysctl.c ****         return(SYSCTL_PWMDIV_1);
 14542              		.loc 1 2643 0
 14543 0010 4FF00003 		mov	r3, #0
 14544 0014 03E0     		b	.L206
 14545              	.L205:
2644:/home/cuil/workspace/arm/lm3s811/TI_Stellaris/driverlib/sysctl.c ****     }
2645:/home/cuil/workspace/arm/lm3s811/TI_Stellaris/driverlib/sysctl.c ****     else
2646:/home/cuil/workspace/arm/lm3s811/TI_Stellaris/driverlib/sysctl.c ****     {
2647:/home/cuil/workspace/arm/lm3s811/TI_Stellaris/driverlib/sysctl.c ****         //
2648:/home/cuil/workspace/arm/lm3s811/TI_Stellaris/driverlib/sysctl.c ****         // The divider is active so directly return the masked register value.
2649:/home/cuil/workspace/arm/lm3s811/TI_Stellaris/driverlib/sysctl.c ****         //
2650:/home/cuil/workspace/arm/lm3s811/TI_Stellaris/driverlib/sysctl.c ****         return(HWREG(SYSCTL_RCC) &
 14546              		.loc 1 2650 0
 14547 0016 044B     		ldr	r3, .L207
 14548 0018 1B68     		ldr	r3, [r3, #0]
 14549 001a 03F4F013 		and	r3, r3, #1966080
 14550              	.L206:
2651:/home/cuil/workspace/arm/lm3s811/TI_Stellaris/driverlib/sysctl.c ****                (SYSCTL_RCC_USEPWMDIV | SYSCTL_RCC_PWMDIV_M));
2652:/home/cuil/workspace/arm/lm3s811/TI_Stellaris/driverlib/sysctl.c ****     }
2653:/home/cuil/workspace/arm/lm3s811/TI_Stellaris/driverlib/sysctl.c **** }
 14551              		.loc 1 2653 0
 14552 001e 1846     		mov	r0, r3
 14553 0020 BD46     		mov	sp, r7
 14554 0022 80BC     		pop	{r7}
 14555 0024 7047     		bx	lr
 14556              	.L208:
 14557 0026 00BF     		.align	2
 14558              	.L207:
 14559 0028 60E00F40 		.word	1074782304
 14560              		.cfi_endproc
 14561              	.LFE38:
 14563              		.section	.text.SysCtlADCSpeedSet,"ax",%progbits
 14564              		.align	2
 14565              		.global	SysCtlADCSpeedSet
 14566              		.thumb
 14567              		.thumb_func
 14569              	SysCtlADCSpeedSet:
 14570              	.LFB39:
2654:/home/cuil/workspace/arm/lm3s811/TI_Stellaris/driverlib/sysctl.c **** 
2655:/home/cuil/workspace/arm/lm3s811/TI_Stellaris/driverlib/sysctl.c **** //*****************************************************************************
2656:/home/cuil/workspace/arm/lm3s811/TI_Stellaris/driverlib/sysctl.c **** //
2657:/home/cuil/workspace/arm/lm3s811/TI_Stellaris/driverlib/sysctl.c **** //! Sets the sample rate of the ADC.
2658:/home/cuil/workspace/arm/lm3s811/TI_Stellaris/driverlib/sysctl.c **** //!
2659:/home/cuil/workspace/arm/lm3s811/TI_Stellaris/driverlib/sysctl.c **** //! \param ulSpeed is the desired sample rate of the ADC; must be one of
2660:/home/cuil/workspace/arm/lm3s811/TI_Stellaris/driverlib/sysctl.c **** //! \b SYSCTL_ADCSPEED_1MSPS, \b SYSCTL_ADCSPEED_500KSPS,
2661:/home/cuil/workspace/arm/lm3s811/TI_Stellaris/driverlib/sysctl.c **** //! \b SYSCTL_ADCSPEED_250KSPS, or \b SYSCTL_ADCSPEED_125KSPS.
2662:/home/cuil/workspace/arm/lm3s811/TI_Stellaris/driverlib/sysctl.c **** //!
2663:/home/cuil/workspace/arm/lm3s811/TI_Stellaris/driverlib/sysctl.c **** //! This function configures the rate at which the ADC samples are captured by 
2664:/home/cuil/workspace/arm/lm3s811/TI_Stellaris/driverlib/sysctl.c **** //! the ADC block.  The sampling speed may be limited by the hardware, so the
2665:/home/cuil/workspace/arm/lm3s811/TI_Stellaris/driverlib/sysctl.c **** //! sample rate may end up being slower than requested.  SysCtlADCSpeedGet()
2666:/home/cuil/workspace/arm/lm3s811/TI_Stellaris/driverlib/sysctl.c **** //! returns the actual speed in use.
2667:/home/cuil/workspace/arm/lm3s811/TI_Stellaris/driverlib/sysctl.c **** //!
2668:/home/cuil/workspace/arm/lm3s811/TI_Stellaris/driverlib/sysctl.c **** //! \return None.
2669:/home/cuil/workspace/arm/lm3s811/TI_Stellaris/driverlib/sysctl.c **** //
2670:/home/cuil/workspace/arm/lm3s811/TI_Stellaris/driverlib/sysctl.c **** //*****************************************************************************
2671:/home/cuil/workspace/arm/lm3s811/TI_Stellaris/driverlib/sysctl.c **** void
2672:/home/cuil/workspace/arm/lm3s811/TI_Stellaris/driverlib/sysctl.c **** SysCtlADCSpeedSet(unsigned long ulSpeed)
2673:/home/cuil/workspace/arm/lm3s811/TI_Stellaris/driverlib/sysctl.c **** {
 14571              		.loc 1 2673 0
 14572              		.cfi_startproc
 14573              		@ args = 0, pretend = 0, frame = 8
 14574              		@ frame_needed = 1, uses_anonymous_args = 0
 14575              		@ link register save eliminated.
 14576 0000 80B4     		push	{r7}
 14577              	.LCFI105:
 14578              		.cfi_def_cfa_offset 4
 14579 0002 83B0     		sub	sp, sp, #12
 14580              	.LCFI106:
 14581              		.cfi_def_cfa_offset 16
 14582 0004 00AF     		add	r7, sp, #0
 14583              		.cfi_offset 7, -4
 14584              	.LCFI107:
 14585              		.cfi_def_cfa_register 7
 14586 0006 7860     		str	r0, [r7, #4]
2674:/home/cuil/workspace/arm/lm3s811/TI_Stellaris/driverlib/sysctl.c ****     //
2675:/home/cuil/workspace/arm/lm3s811/TI_Stellaris/driverlib/sysctl.c ****     // Check the arguments.
2676:/home/cuil/workspace/arm/lm3s811/TI_Stellaris/driverlib/sysctl.c ****     //
2677:/home/cuil/workspace/arm/lm3s811/TI_Stellaris/driverlib/sysctl.c ****     ASSERT((ulSpeed == SYSCTL_ADCSPEED_1MSPS) ||
2678:/home/cuil/workspace/arm/lm3s811/TI_Stellaris/driverlib/sysctl.c ****            (ulSpeed == SYSCTL_ADCSPEED_500KSPS) ||
2679:/home/cuil/workspace/arm/lm3s811/TI_Stellaris/driverlib/sysctl.c ****            (ulSpeed == SYSCTL_ADCSPEED_250KSPS) ||
2680:/home/cuil/workspace/arm/lm3s811/TI_Stellaris/driverlib/sysctl.c ****            (ulSpeed == SYSCTL_ADCSPEED_125KSPS));
2681:/home/cuil/workspace/arm/lm3s811/TI_Stellaris/driverlib/sysctl.c **** 
2682:/home/cuil/workspace/arm/lm3s811/TI_Stellaris/driverlib/sysctl.c ****     //
2683:/home/cuil/workspace/arm/lm3s811/TI_Stellaris/driverlib/sysctl.c ****     // Check that there is an ADC block on this part.
2684:/home/cuil/workspace/arm/lm3s811/TI_Stellaris/driverlib/sysctl.c ****     //
2685:/home/cuil/workspace/arm/lm3s811/TI_Stellaris/driverlib/sysctl.c ****     ASSERT(HWREG(SYSCTL_DC1) & SYSCTL_DC1_ADC0);
2686:/home/cuil/workspace/arm/lm3s811/TI_Stellaris/driverlib/sysctl.c **** 
2687:/home/cuil/workspace/arm/lm3s811/TI_Stellaris/driverlib/sysctl.c ****     //
2688:/home/cuil/workspace/arm/lm3s811/TI_Stellaris/driverlib/sysctl.c ****     // Set the ADC speed in run and sleep mode.
2689:/home/cuil/workspace/arm/lm3s811/TI_Stellaris/driverlib/sysctl.c ****     //
2690:/home/cuil/workspace/arm/lm3s811/TI_Stellaris/driverlib/sysctl.c ****     HWREG(SYSCTL_RCGC0) = ((HWREG(SYSCTL_RCGC0) & ~(SYSCTL_RCGC0_ADCSPD_M)) |
 14587              		.loc 1 2690 0
 14588 0008 0B4B     		ldr	r3, .L210
 14589 000a 0B4A     		ldr	r2, .L210
 14590 000c 1268     		ldr	r2, [r2, #0]
 14591 000e 22F47061 		bic	r1, r2, #3840
 14592 0012 7A68     		ldr	r2, [r7, #4]
 14593 0014 41EA0202 		orr	r2, r1, r2
 14594 0018 1A60     		str	r2, [r3, #0]
2691:/home/cuil/workspace/arm/lm3s811/TI_Stellaris/driverlib/sysctl.c ****                            ulSpeed);
2692:/home/cuil/workspace/arm/lm3s811/TI_Stellaris/driverlib/sysctl.c ****     HWREG(SYSCTL_SCGC0) = ((HWREG(SYSCTL_SCGC0) & ~(SYSCTL_SCGC0_ADCSPD_M)) |
 14595              		.loc 1 2692 0
 14596 001a 084B     		ldr	r3, .L210+4
 14597 001c 074A     		ldr	r2, .L210+4
 14598 001e 1268     		ldr	r2, [r2, #0]
 14599 0020 22F47061 		bic	r1, r2, #3840
 14600 0024 7A68     		ldr	r2, [r7, #4]
 14601 0026 41EA0202 		orr	r2, r1, r2
 14602 002a 1A60     		str	r2, [r3, #0]
2693:/home/cuil/workspace/arm/lm3s811/TI_Stellaris/driverlib/sysctl.c ****                            ulSpeed);
2694:/home/cuil/workspace/arm/lm3s811/TI_Stellaris/driverlib/sysctl.c **** }
 14603              		.loc 1 2694 0
 14604 002c 07F10C07 		add	r7, r7, #12
 14605 0030 BD46     		mov	sp, r7
 14606 0032 80BC     		pop	{r7}
 14607 0034 7047     		bx	lr
 14608              	.L211:
 14609 0036 00BF     		.align	2
 14610              	.L210:
 14611 0038 00E10F40 		.word	1074782464
 14612 003c 10E10F40 		.word	1074782480
 14613              		.cfi_endproc
 14614              	.LFE39:
 14616              		.section	.text.SysCtlADCSpeedGet,"ax",%progbits
 14617              		.align	2
 14618              		.global	SysCtlADCSpeedGet
 14619              		.thumb
 14620              		.thumb_func
 14622              	SysCtlADCSpeedGet:
 14623              	.LFB40:
2695:/home/cuil/workspace/arm/lm3s811/TI_Stellaris/driverlib/sysctl.c **** 
2696:/home/cuil/workspace/arm/lm3s811/TI_Stellaris/driverlib/sysctl.c **** //*****************************************************************************
2697:/home/cuil/workspace/arm/lm3s811/TI_Stellaris/driverlib/sysctl.c **** //
2698:/home/cuil/workspace/arm/lm3s811/TI_Stellaris/driverlib/sysctl.c **** //! Gets the sample rate of the ADC.
2699:/home/cuil/workspace/arm/lm3s811/TI_Stellaris/driverlib/sysctl.c **** //!
2700:/home/cuil/workspace/arm/lm3s811/TI_Stellaris/driverlib/sysctl.c **** //! This function gets the current sample rate of the ADC.
2701:/home/cuil/workspace/arm/lm3s811/TI_Stellaris/driverlib/sysctl.c **** //!
2702:/home/cuil/workspace/arm/lm3s811/TI_Stellaris/driverlib/sysctl.c **** //! \return Returns the current ADC sample rate; is one of
2703:/home/cuil/workspace/arm/lm3s811/TI_Stellaris/driverlib/sysctl.c **** //! \b SYSCTL_ADCSPEED_1MSPS, \b SYSCTL_ADCSPEED_500KSPS,
2704:/home/cuil/workspace/arm/lm3s811/TI_Stellaris/driverlib/sysctl.c **** //! \b SYSCTL_ADCSPEED_250KSPS, or \b SYSCTL_ADCSPEED_125KSPS.
2705:/home/cuil/workspace/arm/lm3s811/TI_Stellaris/driverlib/sysctl.c **** //
2706:/home/cuil/workspace/arm/lm3s811/TI_Stellaris/driverlib/sysctl.c **** //*****************************************************************************
2707:/home/cuil/workspace/arm/lm3s811/TI_Stellaris/driverlib/sysctl.c **** unsigned long
2708:/home/cuil/workspace/arm/lm3s811/TI_Stellaris/driverlib/sysctl.c **** SysCtlADCSpeedGet(void)
2709:/home/cuil/workspace/arm/lm3s811/TI_Stellaris/driverlib/sysctl.c **** {
 14624              		.loc 1 2709 0
 14625              		.cfi_startproc
 14626              		@ args = 0, pretend = 0, frame = 0
 14627              		@ frame_needed = 1, uses_anonymous_args = 0
 14628              		@ link register save eliminated.
 14629 0000 80B4     		push	{r7}
 14630              	.LCFI108:
 14631              		.cfi_def_cfa_offset 4
 14632 0002 00AF     		add	r7, sp, #0
 14633              		.cfi_offset 7, -4
 14634              	.LCFI109:
 14635              		.cfi_def_cfa_register 7
2710:/home/cuil/workspace/arm/lm3s811/TI_Stellaris/driverlib/sysctl.c ****     //
2711:/home/cuil/workspace/arm/lm3s811/TI_Stellaris/driverlib/sysctl.c ****     // Check that there is an ADC block on this part.
2712:/home/cuil/workspace/arm/lm3s811/TI_Stellaris/driverlib/sysctl.c ****     //
2713:/home/cuil/workspace/arm/lm3s811/TI_Stellaris/driverlib/sysctl.c ****     ASSERT(HWREG(SYSCTL_DC1) & SYSCTL_DC1_ADC0);
2714:/home/cuil/workspace/arm/lm3s811/TI_Stellaris/driverlib/sysctl.c **** 
2715:/home/cuil/workspace/arm/lm3s811/TI_Stellaris/driverlib/sysctl.c ****     //
2716:/home/cuil/workspace/arm/lm3s811/TI_Stellaris/driverlib/sysctl.c ****     // Return the current ADC speed.
2717:/home/cuil/workspace/arm/lm3s811/TI_Stellaris/driverlib/sysctl.c ****     //
2718:/home/cuil/workspace/arm/lm3s811/TI_Stellaris/driverlib/sysctl.c ****     return(HWREG(SYSCTL_RCGC0) & SYSCTL_RCGC0_ADCSPD_M);
 14636              		.loc 1 2718 0
 14637 0004 034B     		ldr	r3, .L213
 14638 0006 1B68     		ldr	r3, [r3, #0]
 14639 0008 03F47063 		and	r3, r3, #3840
2719:/home/cuil/workspace/arm/lm3s811/TI_Stellaris/driverlib/sysctl.c **** }
 14640              		.loc 1 2719 0
 14641 000c 1846     		mov	r0, r3
 14642 000e BD46     		mov	sp, r7
 14643 0010 80BC     		pop	{r7}
 14644 0012 7047     		bx	lr
 14645              	.L214:
 14646              		.align	2
 14647              	.L213:
 14648 0014 00E10F40 		.word	1074782464
 14649              		.cfi_endproc
 14650              	.LFE40:
 14652              		.section	.text.SysCtlIOSCVerificationSet,"ax",%progbits
 14653              		.align	2
 14654              		.global	SysCtlIOSCVerificationSet
 14655              		.thumb
 14656              		.thumb_func
 14658              	SysCtlIOSCVerificationSet:
 14659              	.LFB41:
2720:/home/cuil/workspace/arm/lm3s811/TI_Stellaris/driverlib/sysctl.c **** 
2721:/home/cuil/workspace/arm/lm3s811/TI_Stellaris/driverlib/sysctl.c **** //*****************************************************************************
2722:/home/cuil/workspace/arm/lm3s811/TI_Stellaris/driverlib/sysctl.c **** //
2723:/home/cuil/workspace/arm/lm3s811/TI_Stellaris/driverlib/sysctl.c **** //! Configures the internal oscillator verification timer.
2724:/home/cuil/workspace/arm/lm3s811/TI_Stellaris/driverlib/sysctl.c **** //!
2725:/home/cuil/workspace/arm/lm3s811/TI_Stellaris/driverlib/sysctl.c **** //! \param bEnable is a boolean that is \b true if the internal oscillator
2726:/home/cuil/workspace/arm/lm3s811/TI_Stellaris/driverlib/sysctl.c **** //! verification timer should be enabled.
2727:/home/cuil/workspace/arm/lm3s811/TI_Stellaris/driverlib/sysctl.c **** //!
2728:/home/cuil/workspace/arm/lm3s811/TI_Stellaris/driverlib/sysctl.c **** //! This function allows the internal oscillator verification timer to be
2729:/home/cuil/workspace/arm/lm3s811/TI_Stellaris/driverlib/sysctl.c **** //! enabled or disabled.  When enabled, an interrupt is generated if the
2730:/home/cuil/workspace/arm/lm3s811/TI_Stellaris/driverlib/sysctl.c **** //! internal oscillator ceases to operate.
2731:/home/cuil/workspace/arm/lm3s811/TI_Stellaris/driverlib/sysctl.c **** //!
2732:/home/cuil/workspace/arm/lm3s811/TI_Stellaris/driverlib/sysctl.c **** //! The internal oscillator verification timer is only available on
2733:/home/cuil/workspace/arm/lm3s811/TI_Stellaris/driverlib/sysctl.c **** //! Sandstorm-class devices.
2734:/home/cuil/workspace/arm/lm3s811/TI_Stellaris/driverlib/sysctl.c **** //!
2735:/home/cuil/workspace/arm/lm3s811/TI_Stellaris/driverlib/sysctl.c **** //! \note Both oscillators (main and internal) must be enabled for this
2736:/home/cuil/workspace/arm/lm3s811/TI_Stellaris/driverlib/sysctl.c **** //! verification timer to operate as the main oscillator verifies the
2737:/home/cuil/workspace/arm/lm3s811/TI_Stellaris/driverlib/sysctl.c **** //! internal oscillator.
2738:/home/cuil/workspace/arm/lm3s811/TI_Stellaris/driverlib/sysctl.c **** //!
2739:/home/cuil/workspace/arm/lm3s811/TI_Stellaris/driverlib/sysctl.c **** //! \return None.
2740:/home/cuil/workspace/arm/lm3s811/TI_Stellaris/driverlib/sysctl.c **** //
2741:/home/cuil/workspace/arm/lm3s811/TI_Stellaris/driverlib/sysctl.c **** //*****************************************************************************
2742:/home/cuil/workspace/arm/lm3s811/TI_Stellaris/driverlib/sysctl.c **** void
2743:/home/cuil/workspace/arm/lm3s811/TI_Stellaris/driverlib/sysctl.c **** SysCtlIOSCVerificationSet(tBoolean bEnable)
2744:/home/cuil/workspace/arm/lm3s811/TI_Stellaris/driverlib/sysctl.c **** {
 14660              		.loc 1 2744 0
 14661              		.cfi_startproc
 14662              		@ args = 0, pretend = 0, frame = 8
 14663              		@ frame_needed = 1, uses_anonymous_args = 0
 14664              		@ link register save eliminated.
 14665 0000 80B4     		push	{r7}
 14666              	.LCFI110:
 14667              		.cfi_def_cfa_offset 4
 14668 0002 83B0     		sub	sp, sp, #12
 14669              	.LCFI111:
 14670              		.cfi_def_cfa_offset 16
 14671 0004 00AF     		add	r7, sp, #0
 14672              		.cfi_offset 7, -4
 14673              	.LCFI112:
 14674              		.cfi_def_cfa_register 7
 14675 0006 0346     		mov	r3, r0
 14676 0008 FB71     		strb	r3, [r7, #7]
2745:/home/cuil/workspace/arm/lm3s811/TI_Stellaris/driverlib/sysctl.c ****     //
2746:/home/cuil/workspace/arm/lm3s811/TI_Stellaris/driverlib/sysctl.c ****     // Enable or disable the internal oscillator verification timer as
2747:/home/cuil/workspace/arm/lm3s811/TI_Stellaris/driverlib/sysctl.c ****     // requested.
2748:/home/cuil/workspace/arm/lm3s811/TI_Stellaris/driverlib/sysctl.c ****     //
2749:/home/cuil/workspace/arm/lm3s811/TI_Stellaris/driverlib/sysctl.c ****     if(bEnable)
 14677              		.loc 1 2749 0
 14678 000a FB79     		ldrb	r3, [r7, #7]	@ zero_extendqisi2
 14679 000c 002B     		cmp	r3, #0
 14680 000e 06D0     		beq	.L216
2750:/home/cuil/workspace/arm/lm3s811/TI_Stellaris/driverlib/sysctl.c ****     {
2751:/home/cuil/workspace/arm/lm3s811/TI_Stellaris/driverlib/sysctl.c ****         HWREG(SYSCTL_RCC) |= SYSCTL_RCC_IOSCVER;
 14681              		.loc 1 2751 0
 14682 0010 084B     		ldr	r3, .L218
 14683 0012 084A     		ldr	r2, .L218
 14684 0014 1268     		ldr	r2, [r2, #0]
 14685 0016 42F00802 		orr	r2, r2, #8
 14686 001a 1A60     		str	r2, [r3, #0]
 14687 001c 05E0     		b	.L215
 14688              	.L216:
2752:/home/cuil/workspace/arm/lm3s811/TI_Stellaris/driverlib/sysctl.c ****     }
2753:/home/cuil/workspace/arm/lm3s811/TI_Stellaris/driverlib/sysctl.c ****     else
2754:/home/cuil/workspace/arm/lm3s811/TI_Stellaris/driverlib/sysctl.c ****     {
2755:/home/cuil/workspace/arm/lm3s811/TI_Stellaris/driverlib/sysctl.c ****         HWREG(SYSCTL_RCC) &= ~(SYSCTL_RCC_IOSCVER);
 14689              		.loc 1 2755 0
 14690 001e 054B     		ldr	r3, .L218
 14691 0020 044A     		ldr	r2, .L218
 14692 0022 1268     		ldr	r2, [r2, #0]
 14693 0024 22F00802 		bic	r2, r2, #8
 14694 0028 1A60     		str	r2, [r3, #0]
 14695              	.L215:
2756:/home/cuil/workspace/arm/lm3s811/TI_Stellaris/driverlib/sysctl.c ****     }
2757:/home/cuil/workspace/arm/lm3s811/TI_Stellaris/driverlib/sysctl.c **** }
 14696              		.loc 1 2757 0
 14697 002a 07F10C07 		add	r7, r7, #12
 14698 002e BD46     		mov	sp, r7
 14699 0030 80BC     		pop	{r7}
 14700 0032 7047     		bx	lr
 14701              	.L219:
 14702              		.align	2
 14703              	.L218:
 14704 0034 60E00F40 		.word	1074782304
 14705              		.cfi_endproc
 14706              	.LFE41:
 14708              		.section	.text.SysCtlMOSCVerificationSet,"ax",%progbits
 14709              		.align	2
 14710              		.global	SysCtlMOSCVerificationSet
 14711              		.thumb
 14712              		.thumb_func
 14714              	SysCtlMOSCVerificationSet:
 14715              	.LFB42:
2758:/home/cuil/workspace/arm/lm3s811/TI_Stellaris/driverlib/sysctl.c **** 
2759:/home/cuil/workspace/arm/lm3s811/TI_Stellaris/driverlib/sysctl.c **** //*****************************************************************************
2760:/home/cuil/workspace/arm/lm3s811/TI_Stellaris/driverlib/sysctl.c **** //
2761:/home/cuil/workspace/arm/lm3s811/TI_Stellaris/driverlib/sysctl.c **** //! Configures the main oscillator verification timer.
2762:/home/cuil/workspace/arm/lm3s811/TI_Stellaris/driverlib/sysctl.c **** //!
2763:/home/cuil/workspace/arm/lm3s811/TI_Stellaris/driverlib/sysctl.c **** //! \param bEnable is a boolean that is \b true if the main oscillator
2764:/home/cuil/workspace/arm/lm3s811/TI_Stellaris/driverlib/sysctl.c **** //! verification timer should be enabled.
2765:/home/cuil/workspace/arm/lm3s811/TI_Stellaris/driverlib/sysctl.c **** //!
2766:/home/cuil/workspace/arm/lm3s811/TI_Stellaris/driverlib/sysctl.c **** //! This function allows the main oscillator verification timer to be enabled
2767:/home/cuil/workspace/arm/lm3s811/TI_Stellaris/driverlib/sysctl.c **** //! or disabled.  When enabled, an interrupt is generated if the main
2768:/home/cuil/workspace/arm/lm3s811/TI_Stellaris/driverlib/sysctl.c **** //! oscillator ceases to operate.
2769:/home/cuil/workspace/arm/lm3s811/TI_Stellaris/driverlib/sysctl.c **** //!
2770:/home/cuil/workspace/arm/lm3s811/TI_Stellaris/driverlib/sysctl.c **** //! The main oscillator verification timer is only available on
2771:/home/cuil/workspace/arm/lm3s811/TI_Stellaris/driverlib/sysctl.c **** //! Sandstorm-class devices.
2772:/home/cuil/workspace/arm/lm3s811/TI_Stellaris/driverlib/sysctl.c **** //!
2773:/home/cuil/workspace/arm/lm3s811/TI_Stellaris/driverlib/sysctl.c **** //! \note Both oscillators (main and internal) must be enabled for this
2774:/home/cuil/workspace/arm/lm3s811/TI_Stellaris/driverlib/sysctl.c **** //! verification timer to operate as the internal oscillator verifies the
2775:/home/cuil/workspace/arm/lm3s811/TI_Stellaris/driverlib/sysctl.c **** //! main oscillator.
2776:/home/cuil/workspace/arm/lm3s811/TI_Stellaris/driverlib/sysctl.c **** //!
2777:/home/cuil/workspace/arm/lm3s811/TI_Stellaris/driverlib/sysctl.c **** //! \return None.
2778:/home/cuil/workspace/arm/lm3s811/TI_Stellaris/driverlib/sysctl.c **** //
2779:/home/cuil/workspace/arm/lm3s811/TI_Stellaris/driverlib/sysctl.c **** //*****************************************************************************
2780:/home/cuil/workspace/arm/lm3s811/TI_Stellaris/driverlib/sysctl.c **** void
2781:/home/cuil/workspace/arm/lm3s811/TI_Stellaris/driverlib/sysctl.c **** SysCtlMOSCVerificationSet(tBoolean bEnable)
2782:/home/cuil/workspace/arm/lm3s811/TI_Stellaris/driverlib/sysctl.c **** {
 14716              		.loc 1 2782 0
 14717              		.cfi_startproc
 14718              		@ args = 0, pretend = 0, frame = 8
 14719              		@ frame_needed = 1, uses_anonymous_args = 0
 14720              		@ link register save eliminated.
 14721 0000 80B4     		push	{r7}
 14722              	.LCFI113:
 14723              		.cfi_def_cfa_offset 4
 14724 0002 83B0     		sub	sp, sp, #12
 14725              	.LCFI114:
 14726              		.cfi_def_cfa_offset 16
 14727 0004 00AF     		add	r7, sp, #0
 14728              		.cfi_offset 7, -4
 14729              	.LCFI115:
 14730              		.cfi_def_cfa_register 7
 14731 0006 0346     		mov	r3, r0
 14732 0008 FB71     		strb	r3, [r7, #7]
2783:/home/cuil/workspace/arm/lm3s811/TI_Stellaris/driverlib/sysctl.c ****     //
2784:/home/cuil/workspace/arm/lm3s811/TI_Stellaris/driverlib/sysctl.c ****     // Enable or disable the main oscillator verification timer as requested.
2785:/home/cuil/workspace/arm/lm3s811/TI_Stellaris/driverlib/sysctl.c ****     //
2786:/home/cuil/workspace/arm/lm3s811/TI_Stellaris/driverlib/sysctl.c ****     if(bEnable)
 14733              		.loc 1 2786 0
 14734 000a FB79     		ldrb	r3, [r7, #7]	@ zero_extendqisi2
 14735 000c 002B     		cmp	r3, #0
 14736 000e 06D0     		beq	.L221
2787:/home/cuil/workspace/arm/lm3s811/TI_Stellaris/driverlib/sysctl.c ****     {
2788:/home/cuil/workspace/arm/lm3s811/TI_Stellaris/driverlib/sysctl.c ****         HWREG(SYSCTL_RCC) |= SYSCTL_RCC_MOSCVER;
 14737              		.loc 1 2788 0
 14738 0010 084B     		ldr	r3, .L223
 14739 0012 084A     		ldr	r2, .L223
 14740 0014 1268     		ldr	r2, [r2, #0]
 14741 0016 42F00402 		orr	r2, r2, #4
 14742 001a 1A60     		str	r2, [r3, #0]
 14743 001c 05E0     		b	.L220
 14744              	.L221:
2789:/home/cuil/workspace/arm/lm3s811/TI_Stellaris/driverlib/sysctl.c ****     }
2790:/home/cuil/workspace/arm/lm3s811/TI_Stellaris/driverlib/sysctl.c ****     else
2791:/home/cuil/workspace/arm/lm3s811/TI_Stellaris/driverlib/sysctl.c ****     {
2792:/home/cuil/workspace/arm/lm3s811/TI_Stellaris/driverlib/sysctl.c ****         HWREG(SYSCTL_RCC) &= ~(SYSCTL_RCC_MOSCVER);
 14745              		.loc 1 2792 0
 14746 001e 054B     		ldr	r3, .L223
 14747 0020 044A     		ldr	r2, .L223
 14748 0022 1268     		ldr	r2, [r2, #0]
 14749 0024 22F00402 		bic	r2, r2, #4
 14750 0028 1A60     		str	r2, [r3, #0]
 14751              	.L220:
2793:/home/cuil/workspace/arm/lm3s811/TI_Stellaris/driverlib/sysctl.c ****     }
2794:/home/cuil/workspace/arm/lm3s811/TI_Stellaris/driverlib/sysctl.c **** }
 14752              		.loc 1 2794 0
 14753 002a 07F10C07 		add	r7, r7, #12
 14754 002e BD46     		mov	sp, r7
 14755 0030 80BC     		pop	{r7}
 14756 0032 7047     		bx	lr
 14757              	.L224:
 14758              		.align	2
 14759              	.L223:
 14760 0034 60E00F40 		.word	1074782304
 14761              		.cfi_endproc
 14762              	.LFE42:
 14764              		.section	.text.SysCtlPLLVerificationSet,"ax",%progbits
 14765              		.align	2
 14766              		.global	SysCtlPLLVerificationSet
 14767              		.thumb
 14768              		.thumb_func
 14770              	SysCtlPLLVerificationSet:
 14771              	.LFB43:
2795:/home/cuil/workspace/arm/lm3s811/TI_Stellaris/driverlib/sysctl.c **** 
2796:/home/cuil/workspace/arm/lm3s811/TI_Stellaris/driverlib/sysctl.c **** //*****************************************************************************
2797:/home/cuil/workspace/arm/lm3s811/TI_Stellaris/driverlib/sysctl.c **** //
2798:/home/cuil/workspace/arm/lm3s811/TI_Stellaris/driverlib/sysctl.c **** //! Configures the PLL verification timer.
2799:/home/cuil/workspace/arm/lm3s811/TI_Stellaris/driverlib/sysctl.c **** //!
2800:/home/cuil/workspace/arm/lm3s811/TI_Stellaris/driverlib/sysctl.c **** //! \param bEnable is a boolean that is \b true if the PLL verification timer
2801:/home/cuil/workspace/arm/lm3s811/TI_Stellaris/driverlib/sysctl.c **** //! should be enabled.
2802:/home/cuil/workspace/arm/lm3s811/TI_Stellaris/driverlib/sysctl.c **** //!
2803:/home/cuil/workspace/arm/lm3s811/TI_Stellaris/driverlib/sysctl.c **** //! This function allows the PLL verification timer to be enabled or disabled.
2804:/home/cuil/workspace/arm/lm3s811/TI_Stellaris/driverlib/sysctl.c **** //! When enabled, an interrupt is generated if the PLL ceases to operate.
2805:/home/cuil/workspace/arm/lm3s811/TI_Stellaris/driverlib/sysctl.c **** //!
2806:/home/cuil/workspace/arm/lm3s811/TI_Stellaris/driverlib/sysctl.c **** //! The PLL verification timer is only available on Sandstorm-class devices.
2807:/home/cuil/workspace/arm/lm3s811/TI_Stellaris/driverlib/sysctl.c **** //!
2808:/home/cuil/workspace/arm/lm3s811/TI_Stellaris/driverlib/sysctl.c **** //! \note The main oscillator must be enabled for this verification timer to
2809:/home/cuil/workspace/arm/lm3s811/TI_Stellaris/driverlib/sysctl.c **** //! operate as it is used to check the PLL.  Also, the verification timer
2810:/home/cuil/workspace/arm/lm3s811/TI_Stellaris/driverlib/sysctl.c **** //! should be disabled while the PLL is being reconfigured via
2811:/home/cuil/workspace/arm/lm3s811/TI_Stellaris/driverlib/sysctl.c **** //! SysCtlClockSet().
2812:/home/cuil/workspace/arm/lm3s811/TI_Stellaris/driverlib/sysctl.c **** //!
2813:/home/cuil/workspace/arm/lm3s811/TI_Stellaris/driverlib/sysctl.c **** //! \return None.
2814:/home/cuil/workspace/arm/lm3s811/TI_Stellaris/driverlib/sysctl.c **** //
2815:/home/cuil/workspace/arm/lm3s811/TI_Stellaris/driverlib/sysctl.c **** //*****************************************************************************
2816:/home/cuil/workspace/arm/lm3s811/TI_Stellaris/driverlib/sysctl.c **** void
2817:/home/cuil/workspace/arm/lm3s811/TI_Stellaris/driverlib/sysctl.c **** SysCtlPLLVerificationSet(tBoolean bEnable)
2818:/home/cuil/workspace/arm/lm3s811/TI_Stellaris/driverlib/sysctl.c **** {
 14772              		.loc 1 2818 0
 14773              		.cfi_startproc
 14774              		@ args = 0, pretend = 0, frame = 8
 14775              		@ frame_needed = 1, uses_anonymous_args = 0
 14776              		@ link register save eliminated.
 14777 0000 80B4     		push	{r7}
 14778              	.LCFI116:
 14779              		.cfi_def_cfa_offset 4
 14780 0002 83B0     		sub	sp, sp, #12
 14781              	.LCFI117:
 14782              		.cfi_def_cfa_offset 16
 14783 0004 00AF     		add	r7, sp, #0
 14784              		.cfi_offset 7, -4
 14785              	.LCFI118:
 14786              		.cfi_def_cfa_register 7
 14787 0006 0346     		mov	r3, r0
 14788 0008 FB71     		strb	r3, [r7, #7]
2819:/home/cuil/workspace/arm/lm3s811/TI_Stellaris/driverlib/sysctl.c ****     //
2820:/home/cuil/workspace/arm/lm3s811/TI_Stellaris/driverlib/sysctl.c ****     // Enable or disable the PLL verification timer as requested.
2821:/home/cuil/workspace/arm/lm3s811/TI_Stellaris/driverlib/sysctl.c ****     //
2822:/home/cuil/workspace/arm/lm3s811/TI_Stellaris/driverlib/sysctl.c ****     if(bEnable)
 14789              		.loc 1 2822 0
 14790 000a FB79     		ldrb	r3, [r7, #7]	@ zero_extendqisi2
 14791 000c 002B     		cmp	r3, #0
 14792 000e 06D0     		beq	.L226
2823:/home/cuil/workspace/arm/lm3s811/TI_Stellaris/driverlib/sysctl.c ****     {
2824:/home/cuil/workspace/arm/lm3s811/TI_Stellaris/driverlib/sysctl.c ****         HWREG(SYSCTL_RCC) |= SYSCTL_RCC_PLLVER;
 14793              		.loc 1 2824 0
 14794 0010 084B     		ldr	r3, .L228
 14795 0012 084A     		ldr	r2, .L228
 14796 0014 1268     		ldr	r2, [r2, #0]
 14797 0016 42F48062 		orr	r2, r2, #1024
 14798 001a 1A60     		str	r2, [r3, #0]
 14799 001c 05E0     		b	.L225
 14800              	.L226:
2825:/home/cuil/workspace/arm/lm3s811/TI_Stellaris/driverlib/sysctl.c ****     }
2826:/home/cuil/workspace/arm/lm3s811/TI_Stellaris/driverlib/sysctl.c ****     else
2827:/home/cuil/workspace/arm/lm3s811/TI_Stellaris/driverlib/sysctl.c ****     {
2828:/home/cuil/workspace/arm/lm3s811/TI_Stellaris/driverlib/sysctl.c ****         HWREG(SYSCTL_RCC) &= ~(SYSCTL_RCC_PLLVER);
 14801              		.loc 1 2828 0
 14802 001e 054B     		ldr	r3, .L228
 14803 0020 044A     		ldr	r2, .L228
 14804 0022 1268     		ldr	r2, [r2, #0]
 14805 0024 22F48062 		bic	r2, r2, #1024
 14806 0028 1A60     		str	r2, [r3, #0]
 14807              	.L225:
2829:/home/cuil/workspace/arm/lm3s811/TI_Stellaris/driverlib/sysctl.c ****     }
2830:/home/cuil/workspace/arm/lm3s811/TI_Stellaris/driverlib/sysctl.c **** }
 14808              		.loc 1 2830 0
 14809 002a 07F10C07 		add	r7, r7, #12
 14810 002e BD46     		mov	sp, r7
 14811 0030 80BC     		pop	{r7}
 14812 0032 7047     		bx	lr
 14813              	.L229:
 14814              		.align	2
 14815              	.L228:
 14816 0034 60E00F40 		.word	1074782304
 14817              		.cfi_endproc
 14818              	.LFE43:
 14820              		.section	.text.SysCtlClkVerificationClear,"ax",%progbits
 14821              		.align	2
 14822              		.global	SysCtlClkVerificationClear
 14823              		.thumb
 14824              		.thumb_func
 14826              	SysCtlClkVerificationClear:
 14827              	.LFB44:
2831:/home/cuil/workspace/arm/lm3s811/TI_Stellaris/driverlib/sysctl.c **** 
2832:/home/cuil/workspace/arm/lm3s811/TI_Stellaris/driverlib/sysctl.c **** //*****************************************************************************
2833:/home/cuil/workspace/arm/lm3s811/TI_Stellaris/driverlib/sysctl.c **** //
2834:/home/cuil/workspace/arm/lm3s811/TI_Stellaris/driverlib/sysctl.c **** //! Clears the clock verification status.
2835:/home/cuil/workspace/arm/lm3s811/TI_Stellaris/driverlib/sysctl.c **** //!
2836:/home/cuil/workspace/arm/lm3s811/TI_Stellaris/driverlib/sysctl.c **** //! This function clears the status of the clock verification timers, allowing
2837:/home/cuil/workspace/arm/lm3s811/TI_Stellaris/driverlib/sysctl.c **** //! them to assert another failure if detected.
2838:/home/cuil/workspace/arm/lm3s811/TI_Stellaris/driverlib/sysctl.c **** //!
2839:/home/cuil/workspace/arm/lm3s811/TI_Stellaris/driverlib/sysctl.c **** //! The clock verification timers are only available on Sandstorm-class
2840:/home/cuil/workspace/arm/lm3s811/TI_Stellaris/driverlib/sysctl.c **** //! devices.
2841:/home/cuil/workspace/arm/lm3s811/TI_Stellaris/driverlib/sysctl.c **** //!
2842:/home/cuil/workspace/arm/lm3s811/TI_Stellaris/driverlib/sysctl.c **** //! \return None.
2843:/home/cuil/workspace/arm/lm3s811/TI_Stellaris/driverlib/sysctl.c **** //
2844:/home/cuil/workspace/arm/lm3s811/TI_Stellaris/driverlib/sysctl.c **** //*****************************************************************************
2845:/home/cuil/workspace/arm/lm3s811/TI_Stellaris/driverlib/sysctl.c **** void
2846:/home/cuil/workspace/arm/lm3s811/TI_Stellaris/driverlib/sysctl.c **** SysCtlClkVerificationClear(void)
2847:/home/cuil/workspace/arm/lm3s811/TI_Stellaris/driverlib/sysctl.c **** {
 14828              		.loc 1 2847 0
 14829              		.cfi_startproc
 14830              		@ args = 0, pretend = 0, frame = 0
 14831              		@ frame_needed = 1, uses_anonymous_args = 0
 14832              		@ link register save eliminated.
 14833 0000 80B4     		push	{r7}
 14834              	.LCFI119:
 14835              		.cfi_def_cfa_offset 4
 14836 0002 00AF     		add	r7, sp, #0
 14837              		.cfi_offset 7, -4
 14838              	.LCFI120:
 14839              		.cfi_def_cfa_register 7
2848:/home/cuil/workspace/arm/lm3s811/TI_Stellaris/driverlib/sysctl.c ****     //
2849:/home/cuil/workspace/arm/lm3s811/TI_Stellaris/driverlib/sysctl.c ****     // Clear the clock verification.
2850:/home/cuil/workspace/arm/lm3s811/TI_Stellaris/driverlib/sysctl.c ****     //
2851:/home/cuil/workspace/arm/lm3s811/TI_Stellaris/driverlib/sysctl.c ****     HWREG(SYSCTL_CLKVCLR) = SYSCTL_CLKVCLR_VERCLR;
 14840              		.loc 1 2851 0
 14841 0004 054B     		ldr	r3, .L231
 14842 0006 4FF00102 		mov	r2, #1
 14843 000a 1A60     		str	r2, [r3, #0]
2852:/home/cuil/workspace/arm/lm3s811/TI_Stellaris/driverlib/sysctl.c **** 
2853:/home/cuil/workspace/arm/lm3s811/TI_Stellaris/driverlib/sysctl.c ****     //
2854:/home/cuil/workspace/arm/lm3s811/TI_Stellaris/driverlib/sysctl.c ****     // The bit does not self-reset, so clear it.
2855:/home/cuil/workspace/arm/lm3s811/TI_Stellaris/driverlib/sysctl.c ****     //
2856:/home/cuil/workspace/arm/lm3s811/TI_Stellaris/driverlib/sysctl.c ****     HWREG(SYSCTL_CLKVCLR) = 0;
 14844              		.loc 1 2856 0
 14845 000c 034B     		ldr	r3, .L231
 14846 000e 4FF00002 		mov	r2, #0
 14847 0012 1A60     		str	r2, [r3, #0]
2857:/home/cuil/workspace/arm/lm3s811/TI_Stellaris/driverlib/sysctl.c **** }
 14848              		.loc 1 2857 0
 14849 0014 BD46     		mov	sp, r7
 14850 0016 80BC     		pop	{r7}
 14851 0018 7047     		bx	lr
 14852              	.L232:
 14853 001a 00BF     		.align	2
 14854              	.L231:
 14855 001c 50E10F40 		.word	1074782544
 14856              		.cfi_endproc
 14857              	.LFE44:
 14859              		.section	.text.SysCtlGPIOAHBEnable,"ax",%progbits
 14860              		.align	2
 14861              		.global	SysCtlGPIOAHBEnable
 14862              		.thumb
 14863              		.thumb_func
 14865              	SysCtlGPIOAHBEnable:
 14866              	.LFB45:
2858:/home/cuil/workspace/arm/lm3s811/TI_Stellaris/driverlib/sysctl.c **** 
2859:/home/cuil/workspace/arm/lm3s811/TI_Stellaris/driverlib/sysctl.c **** //*****************************************************************************
2860:/home/cuil/workspace/arm/lm3s811/TI_Stellaris/driverlib/sysctl.c **** //
2861:/home/cuil/workspace/arm/lm3s811/TI_Stellaris/driverlib/sysctl.c **** //! Enables a GPIO peripheral for access from the AHB.
2862:/home/cuil/workspace/arm/lm3s811/TI_Stellaris/driverlib/sysctl.c **** //!
2863:/home/cuil/workspace/arm/lm3s811/TI_Stellaris/driverlib/sysctl.c **** //! \param ulGPIOPeripheral is the GPIO peripheral to enable.
2864:/home/cuil/workspace/arm/lm3s811/TI_Stellaris/driverlib/sysctl.c **** //!
2865:/home/cuil/workspace/arm/lm3s811/TI_Stellaris/driverlib/sysctl.c **** //! This function is used to enable the specified GPIO peripheral to be
2866:/home/cuil/workspace/arm/lm3s811/TI_Stellaris/driverlib/sysctl.c **** //! accessed from the Advanced Host Bus (AHB) instead of the legacy Advanced
2867:/home/cuil/workspace/arm/lm3s811/TI_Stellaris/driverlib/sysctl.c **** //! Peripheral Bus (APB).  When a GPIO peripheral is enabled for AHB access,
2868:/home/cuil/workspace/arm/lm3s811/TI_Stellaris/driverlib/sysctl.c **** //! the \b _AHB_BASE form of the base address should be used for GPIO
2869:/home/cuil/workspace/arm/lm3s811/TI_Stellaris/driverlib/sysctl.c **** //! functions.  For example, instead of using \b GPIO_PORTA_BASE as the base
2870:/home/cuil/workspace/arm/lm3s811/TI_Stellaris/driverlib/sysctl.c **** //! address for GPIO functions, use \b GPIO_PORTA_AHB_BASE instead.
2871:/home/cuil/workspace/arm/lm3s811/TI_Stellaris/driverlib/sysctl.c **** //!
2872:/home/cuil/workspace/arm/lm3s811/TI_Stellaris/driverlib/sysctl.c **** //! The \e ulGPIOPeripheral argument must be only one of the following values:
2873:/home/cuil/workspace/arm/lm3s811/TI_Stellaris/driverlib/sysctl.c **** //! \b SYSCTL_PERIPH_GPIOA, \b SYSCTL_PERIPH_GPIOB, \b SYSCTL_PERIPH_GPIOC,
2874:/home/cuil/workspace/arm/lm3s811/TI_Stellaris/driverlib/sysctl.c **** //! \b SYSCTL_PERIPH_GPIOD, \b SYSCTL_PERIPH_GPIOE, \b SYSCTL_PERIPH_GPIOF,
2875:/home/cuil/workspace/arm/lm3s811/TI_Stellaris/driverlib/sysctl.c **** //! \b SYSCTL_PERIPH_GPIOG, \b SYSCTL_PERIPH_GPIOH, or \b SYSCTL_PERIPH_GPIOJ.
2876:/home/cuil/workspace/arm/lm3s811/TI_Stellaris/driverlib/sysctl.c **** //!
2877:/home/cuil/workspace/arm/lm3s811/TI_Stellaris/driverlib/sysctl.c **** //! \return None.
2878:/home/cuil/workspace/arm/lm3s811/TI_Stellaris/driverlib/sysctl.c **** //
2879:/home/cuil/workspace/arm/lm3s811/TI_Stellaris/driverlib/sysctl.c **** //*****************************************************************************
2880:/home/cuil/workspace/arm/lm3s811/TI_Stellaris/driverlib/sysctl.c **** void
2881:/home/cuil/workspace/arm/lm3s811/TI_Stellaris/driverlib/sysctl.c **** SysCtlGPIOAHBEnable(unsigned long ulGPIOPeripheral)
2882:/home/cuil/workspace/arm/lm3s811/TI_Stellaris/driverlib/sysctl.c **** {
 14867              		.loc 1 2882 0
 14868              		.cfi_startproc
 14869              		@ args = 0, pretend = 0, frame = 8
 14870              		@ frame_needed = 1, uses_anonymous_args = 0
 14871              		@ link register save eliminated.
 14872 0000 80B4     		push	{r7}
 14873              	.LCFI121:
 14874              		.cfi_def_cfa_offset 4
 14875 0002 83B0     		sub	sp, sp, #12
 14876              	.LCFI122:
 14877              		.cfi_def_cfa_offset 16
 14878 0004 00AF     		add	r7, sp, #0
 14879              		.cfi_offset 7, -4
 14880              	.LCFI123:
 14881              		.cfi_def_cfa_register 7
 14882 0006 7860     		str	r0, [r7, #4]
2883:/home/cuil/workspace/arm/lm3s811/TI_Stellaris/driverlib/sysctl.c ****     //
2884:/home/cuil/workspace/arm/lm3s811/TI_Stellaris/driverlib/sysctl.c ****     // Check the arguments.
2885:/home/cuil/workspace/arm/lm3s811/TI_Stellaris/driverlib/sysctl.c ****     //
2886:/home/cuil/workspace/arm/lm3s811/TI_Stellaris/driverlib/sysctl.c ****     ASSERT((ulGPIOPeripheral == SYSCTL_PERIPH_GPIOA) ||
2887:/home/cuil/workspace/arm/lm3s811/TI_Stellaris/driverlib/sysctl.c ****            (ulGPIOPeripheral == SYSCTL_PERIPH_GPIOB) ||
2888:/home/cuil/workspace/arm/lm3s811/TI_Stellaris/driverlib/sysctl.c ****            (ulGPIOPeripheral == SYSCTL_PERIPH_GPIOC) ||
2889:/home/cuil/workspace/arm/lm3s811/TI_Stellaris/driverlib/sysctl.c ****            (ulGPIOPeripheral == SYSCTL_PERIPH_GPIOD) ||
2890:/home/cuil/workspace/arm/lm3s811/TI_Stellaris/driverlib/sysctl.c ****            (ulGPIOPeripheral == SYSCTL_PERIPH_GPIOE) ||
2891:/home/cuil/workspace/arm/lm3s811/TI_Stellaris/driverlib/sysctl.c ****            (ulGPIOPeripheral == SYSCTL_PERIPH_GPIOF) ||
2892:/home/cuil/workspace/arm/lm3s811/TI_Stellaris/driverlib/sysctl.c ****            (ulGPIOPeripheral == SYSCTL_PERIPH_GPIOG) ||
2893:/home/cuil/workspace/arm/lm3s811/TI_Stellaris/driverlib/sysctl.c ****            (ulGPIOPeripheral == SYSCTL_PERIPH_GPIOH) ||
2894:/home/cuil/workspace/arm/lm3s811/TI_Stellaris/driverlib/sysctl.c ****            (ulGPIOPeripheral == SYSCTL_PERIPH_GPIOJ));
2895:/home/cuil/workspace/arm/lm3s811/TI_Stellaris/driverlib/sysctl.c **** 
2896:/home/cuil/workspace/arm/lm3s811/TI_Stellaris/driverlib/sysctl.c ****     //
2897:/home/cuil/workspace/arm/lm3s811/TI_Stellaris/driverlib/sysctl.c ****     // Enable this GPIO for AHB access.
2898:/home/cuil/workspace/arm/lm3s811/TI_Stellaris/driverlib/sysctl.c ****     //
2899:/home/cuil/workspace/arm/lm3s811/TI_Stellaris/driverlib/sysctl.c ****     HWREG(SYSCTL_GPIOHBCTL) |= ulGPIOPeripheral & 0xFFFF;
 14883              		.loc 1 2899 0
 14884 0008 074A     		ldr	r2, .L234
 14885 000a 074B     		ldr	r3, .L234
 14886 000c 1968     		ldr	r1, [r3, #0]
 14887 000e 7B68     		ldr	r3, [r7, #4]
 14888 0010 4FEA0343 		lsl	r3, r3, #16
 14889 0014 4FEA1343 		lsr	r3, r3, #16
 14890 0018 41EA0303 		orr	r3, r1, r3
 14891 001c 1360     		str	r3, [r2, #0]
2900:/home/cuil/workspace/arm/lm3s811/TI_Stellaris/driverlib/sysctl.c **** }
 14892              		.loc 1 2900 0
 14893 001e 07F10C07 		add	r7, r7, #12
 14894 0022 BD46     		mov	sp, r7
 14895 0024 80BC     		pop	{r7}
 14896 0026 7047     		bx	lr
 14897              	.L235:
 14898              		.align	2
 14899              	.L234:
 14900 0028 6CE00F40 		.word	1074782316
 14901              		.cfi_endproc
 14902              	.LFE45:
 14904              		.section	.text.SysCtlGPIOAHBDisable,"ax",%progbits
 14905              		.align	2
 14906              		.global	SysCtlGPIOAHBDisable
 14907              		.thumb
 14908              		.thumb_func
 14910              	SysCtlGPIOAHBDisable:
 14911              	.LFB46:
2901:/home/cuil/workspace/arm/lm3s811/TI_Stellaris/driverlib/sysctl.c **** 
2902:/home/cuil/workspace/arm/lm3s811/TI_Stellaris/driverlib/sysctl.c **** //*****************************************************************************
2903:/home/cuil/workspace/arm/lm3s811/TI_Stellaris/driverlib/sysctl.c **** //
2904:/home/cuil/workspace/arm/lm3s811/TI_Stellaris/driverlib/sysctl.c **** //! Disables a GPIO peripheral for access from the AHB.
2905:/home/cuil/workspace/arm/lm3s811/TI_Stellaris/driverlib/sysctl.c **** //!
2906:/home/cuil/workspace/arm/lm3s811/TI_Stellaris/driverlib/sysctl.c **** //! \param ulGPIOPeripheral is the GPIO peripheral to disable.
2907:/home/cuil/workspace/arm/lm3s811/TI_Stellaris/driverlib/sysctl.c **** //!
2908:/home/cuil/workspace/arm/lm3s811/TI_Stellaris/driverlib/sysctl.c **** //! This function disables the specified GPIO peripheral for access from the
2909:/home/cuil/workspace/arm/lm3s811/TI_Stellaris/driverlib/sysctl.c **** //! Advanced Host Bus (AHB).  Once disabled, the GPIO peripheral is accessed
2910:/home/cuil/workspace/arm/lm3s811/TI_Stellaris/driverlib/sysctl.c **** //! from the legacy Advanced Peripheral Bus (APB).
2911:/home/cuil/workspace/arm/lm3s811/TI_Stellaris/driverlib/sysctl.c **** //!
2912:/home/cuil/workspace/arm/lm3s811/TI_Stellaris/driverlib/sysctl.c **** //! The \b ulGPIOPeripheral argument must be only one of the following values:
2913:/home/cuil/workspace/arm/lm3s811/TI_Stellaris/driverlib/sysctl.c **** //! \b SYSCTL_PERIPH_GPIOA, \b SYSCTL_PERIPH_GPIOB, \b SYSCTL_PERIPH_GPIOC,
2914:/home/cuil/workspace/arm/lm3s811/TI_Stellaris/driverlib/sysctl.c **** //! \b SYSCTL_PERIPH_GPIOD, \b SYSCTL_PERIPH_GPIOE, \b SYSCTL_PERIPH_GPIOF,
2915:/home/cuil/workspace/arm/lm3s811/TI_Stellaris/driverlib/sysctl.c **** //! \b SYSCTL_PERIPH_GPIOG, \b SYSCTL_PERIPH_GPIOH, or \b SYSCTL_PERIPH_GPIOJ.
2916:/home/cuil/workspace/arm/lm3s811/TI_Stellaris/driverlib/sysctl.c **** //!
2917:/home/cuil/workspace/arm/lm3s811/TI_Stellaris/driverlib/sysctl.c **** //! \return None.
2918:/home/cuil/workspace/arm/lm3s811/TI_Stellaris/driverlib/sysctl.c **** //
2919:/home/cuil/workspace/arm/lm3s811/TI_Stellaris/driverlib/sysctl.c **** //*****************************************************************************
2920:/home/cuil/workspace/arm/lm3s811/TI_Stellaris/driverlib/sysctl.c **** void
2921:/home/cuil/workspace/arm/lm3s811/TI_Stellaris/driverlib/sysctl.c **** SysCtlGPIOAHBDisable(unsigned long ulGPIOPeripheral)
2922:/home/cuil/workspace/arm/lm3s811/TI_Stellaris/driverlib/sysctl.c **** {
 14912              		.loc 1 2922 0
 14913              		.cfi_startproc
 14914              		@ args = 0, pretend = 0, frame = 8
 14915              		@ frame_needed = 1, uses_anonymous_args = 0
 14916              		@ link register save eliminated.
 14917 0000 80B4     		push	{r7}
 14918              	.LCFI124:
 14919              		.cfi_def_cfa_offset 4
 14920 0002 83B0     		sub	sp, sp, #12
 14921              	.LCFI125:
 14922              		.cfi_def_cfa_offset 16
 14923 0004 00AF     		add	r7, sp, #0
 14924              		.cfi_offset 7, -4
 14925              	.LCFI126:
 14926              		.cfi_def_cfa_register 7
 14927 0006 7860     		str	r0, [r7, #4]
2923:/home/cuil/workspace/arm/lm3s811/TI_Stellaris/driverlib/sysctl.c ****     //
2924:/home/cuil/workspace/arm/lm3s811/TI_Stellaris/driverlib/sysctl.c ****     // Check the arguments.
2925:/home/cuil/workspace/arm/lm3s811/TI_Stellaris/driverlib/sysctl.c ****     //
2926:/home/cuil/workspace/arm/lm3s811/TI_Stellaris/driverlib/sysctl.c ****     ASSERT((ulGPIOPeripheral == SYSCTL_PERIPH_GPIOA) ||
2927:/home/cuil/workspace/arm/lm3s811/TI_Stellaris/driverlib/sysctl.c ****            (ulGPIOPeripheral == SYSCTL_PERIPH_GPIOB) ||
2928:/home/cuil/workspace/arm/lm3s811/TI_Stellaris/driverlib/sysctl.c ****            (ulGPIOPeripheral == SYSCTL_PERIPH_GPIOC) ||
2929:/home/cuil/workspace/arm/lm3s811/TI_Stellaris/driverlib/sysctl.c ****            (ulGPIOPeripheral == SYSCTL_PERIPH_GPIOD) ||
2930:/home/cuil/workspace/arm/lm3s811/TI_Stellaris/driverlib/sysctl.c ****            (ulGPIOPeripheral == SYSCTL_PERIPH_GPIOE) ||
2931:/home/cuil/workspace/arm/lm3s811/TI_Stellaris/driverlib/sysctl.c ****            (ulGPIOPeripheral == SYSCTL_PERIPH_GPIOF) ||
2932:/home/cuil/workspace/arm/lm3s811/TI_Stellaris/driverlib/sysctl.c ****            (ulGPIOPeripheral == SYSCTL_PERIPH_GPIOG) ||
2933:/home/cuil/workspace/arm/lm3s811/TI_Stellaris/driverlib/sysctl.c ****            (ulGPIOPeripheral == SYSCTL_PERIPH_GPIOH) ||
2934:/home/cuil/workspace/arm/lm3s811/TI_Stellaris/driverlib/sysctl.c ****            (ulGPIOPeripheral == SYSCTL_PERIPH_GPIOJ));
2935:/home/cuil/workspace/arm/lm3s811/TI_Stellaris/driverlib/sysctl.c **** 
2936:/home/cuil/workspace/arm/lm3s811/TI_Stellaris/driverlib/sysctl.c ****     //
2937:/home/cuil/workspace/arm/lm3s811/TI_Stellaris/driverlib/sysctl.c ****     // Disable this GPIO for AHB access.
2938:/home/cuil/workspace/arm/lm3s811/TI_Stellaris/driverlib/sysctl.c ****     //
2939:/home/cuil/workspace/arm/lm3s811/TI_Stellaris/driverlib/sysctl.c ****     HWREG(SYSCTL_GPIOHBCTL) &= ~(ulGPIOPeripheral & 0xFFFF);
 14928              		.loc 1 2939 0
 14929 0008 084A     		ldr	r2, .L237
 14930 000a 084B     		ldr	r3, .L237
 14931 000c 1968     		ldr	r1, [r3, #0]
 14932 000e 7B68     		ldr	r3, [r7, #4]
 14933 0010 4FEA0343 		lsl	r3, r3, #16
 14934 0014 4FEA1343 		lsr	r3, r3, #16
 14935 0018 6FEA0303 		mvn	r3, r3
 14936 001c 01EA0303 		and	r3, r1, r3
 14937 0020 1360     		str	r3, [r2, #0]
2940:/home/cuil/workspace/arm/lm3s811/TI_Stellaris/driverlib/sysctl.c **** }
 14938              		.loc 1 2940 0
 14939 0022 07F10C07 		add	r7, r7, #12
 14940 0026 BD46     		mov	sp, r7
 14941 0028 80BC     		pop	{r7}
 14942 002a 7047     		bx	lr
 14943              	.L238:
 14944              		.align	2
 14945              	.L237:
 14946 002c 6CE00F40 		.word	1074782316
 14947              		.cfi_endproc
 14948              	.LFE46:
 14950              		.section	.text.SysCtlUSBPLLEnable,"ax",%progbits
 14951              		.align	2
 14952              		.global	SysCtlUSBPLLEnable
 14953              		.thumb
 14954              		.thumb_func
 14956              	SysCtlUSBPLLEnable:
 14957              	.LFB47:
2941:/home/cuil/workspace/arm/lm3s811/TI_Stellaris/driverlib/sysctl.c **** 
2942:/home/cuil/workspace/arm/lm3s811/TI_Stellaris/driverlib/sysctl.c **** //*****************************************************************************
2943:/home/cuil/workspace/arm/lm3s811/TI_Stellaris/driverlib/sysctl.c **** //
2944:/home/cuil/workspace/arm/lm3s811/TI_Stellaris/driverlib/sysctl.c **** //! Powers up the USB PLL.
2945:/home/cuil/workspace/arm/lm3s811/TI_Stellaris/driverlib/sysctl.c **** //!
2946:/home/cuil/workspace/arm/lm3s811/TI_Stellaris/driverlib/sysctl.c **** //! This function enables the USB controller's PLL, which is used by it's
2947:/home/cuil/workspace/arm/lm3s811/TI_Stellaris/driverlib/sysctl.c **** //! physical layer.  This call is necessary before connecting to any external
2948:/home/cuil/workspace/arm/lm3s811/TI_Stellaris/driverlib/sysctl.c **** //! devices.
2949:/home/cuil/workspace/arm/lm3s811/TI_Stellaris/driverlib/sysctl.c **** //!
2950:/home/cuil/workspace/arm/lm3s811/TI_Stellaris/driverlib/sysctl.c **** //! \return None.
2951:/home/cuil/workspace/arm/lm3s811/TI_Stellaris/driverlib/sysctl.c **** //
2952:/home/cuil/workspace/arm/lm3s811/TI_Stellaris/driverlib/sysctl.c **** //*****************************************************************************
2953:/home/cuil/workspace/arm/lm3s811/TI_Stellaris/driverlib/sysctl.c **** void
2954:/home/cuil/workspace/arm/lm3s811/TI_Stellaris/driverlib/sysctl.c **** SysCtlUSBPLLEnable(void)
2955:/home/cuil/workspace/arm/lm3s811/TI_Stellaris/driverlib/sysctl.c **** {
 14958              		.loc 1 2955 0
 14959              		.cfi_startproc
 14960              		@ args = 0, pretend = 0, frame = 0
 14961              		@ frame_needed = 1, uses_anonymous_args = 0
 14962              		@ link register save eliminated.
 14963 0000 80B4     		push	{r7}
 14964              	.LCFI127:
 14965              		.cfi_def_cfa_offset 4
 14966 0002 00AF     		add	r7, sp, #0
 14967              		.cfi_offset 7, -4
 14968              	.LCFI128:
 14969              		.cfi_def_cfa_register 7
2956:/home/cuil/workspace/arm/lm3s811/TI_Stellaris/driverlib/sysctl.c ****     //
2957:/home/cuil/workspace/arm/lm3s811/TI_Stellaris/driverlib/sysctl.c ****     // Turn on the USB PLL.
2958:/home/cuil/workspace/arm/lm3s811/TI_Stellaris/driverlib/sysctl.c ****     //
2959:/home/cuil/workspace/arm/lm3s811/TI_Stellaris/driverlib/sysctl.c ****     HWREG(SYSCTL_RCC2) &= ~SYSCTL_RCC2_USBPWRDN;
 14970              		.loc 1 2959 0
 14971 0004 044B     		ldr	r3, .L240
 14972 0006 044A     		ldr	r2, .L240
 14973 0008 1268     		ldr	r2, [r2, #0]
 14974 000a 22F48042 		bic	r2, r2, #16384
 14975 000e 1A60     		str	r2, [r3, #0]
2960:/home/cuil/workspace/arm/lm3s811/TI_Stellaris/driverlib/sysctl.c **** }
 14976              		.loc 1 2960 0
 14977 0010 BD46     		mov	sp, r7
 14978 0012 80BC     		pop	{r7}
 14979 0014 7047     		bx	lr
 14980              	.L241:
 14981 0016 00BF     		.align	2
 14982              	.L240:
 14983 0018 70E00F40 		.word	1074782320
 14984              		.cfi_endproc
 14985              	.LFE47:
 14987              		.section	.text.SysCtlUSBPLLDisable,"ax",%progbits
 14988              		.align	2
 14989              		.global	SysCtlUSBPLLDisable
 14990              		.thumb
 14991              		.thumb_func
 14993              	SysCtlUSBPLLDisable:
 14994              	.LFB48:
2961:/home/cuil/workspace/arm/lm3s811/TI_Stellaris/driverlib/sysctl.c **** 
2962:/home/cuil/workspace/arm/lm3s811/TI_Stellaris/driverlib/sysctl.c **** //*****************************************************************************
2963:/home/cuil/workspace/arm/lm3s811/TI_Stellaris/driverlib/sysctl.c **** //
2964:/home/cuil/workspace/arm/lm3s811/TI_Stellaris/driverlib/sysctl.c **** //! Powers down the USB PLL.
2965:/home/cuil/workspace/arm/lm3s811/TI_Stellaris/driverlib/sysctl.c **** //!
2966:/home/cuil/workspace/arm/lm3s811/TI_Stellaris/driverlib/sysctl.c **** //! This function disables the USB controller's PLL, which is used by it's
2967:/home/cuil/workspace/arm/lm3s811/TI_Stellaris/driverlib/sysctl.c **** //! physical layer.  The USB registers are still accessible, but the physical
2968:/home/cuil/workspace/arm/lm3s811/TI_Stellaris/driverlib/sysctl.c **** //! layer no longer functions.
2969:/home/cuil/workspace/arm/lm3s811/TI_Stellaris/driverlib/sysctl.c **** //!
2970:/home/cuil/workspace/arm/lm3s811/TI_Stellaris/driverlib/sysctl.c **** //! \return None.
2971:/home/cuil/workspace/arm/lm3s811/TI_Stellaris/driverlib/sysctl.c **** //
2972:/home/cuil/workspace/arm/lm3s811/TI_Stellaris/driverlib/sysctl.c **** //*****************************************************************************
2973:/home/cuil/workspace/arm/lm3s811/TI_Stellaris/driverlib/sysctl.c **** void
2974:/home/cuil/workspace/arm/lm3s811/TI_Stellaris/driverlib/sysctl.c **** SysCtlUSBPLLDisable(void)
2975:/home/cuil/workspace/arm/lm3s811/TI_Stellaris/driverlib/sysctl.c **** {
 14995              		.loc 1 2975 0
 14996              		.cfi_startproc
 14997              		@ args = 0, pretend = 0, frame = 0
 14998              		@ frame_needed = 1, uses_anonymous_args = 0
 14999              		@ link register save eliminated.
 15000 0000 80B4     		push	{r7}
 15001              	.LCFI129:
 15002              		.cfi_def_cfa_offset 4
 15003 0002 00AF     		add	r7, sp, #0
 15004              		.cfi_offset 7, -4
 15005              	.LCFI130:
 15006              		.cfi_def_cfa_register 7
2976:/home/cuil/workspace/arm/lm3s811/TI_Stellaris/driverlib/sysctl.c ****     //
2977:/home/cuil/workspace/arm/lm3s811/TI_Stellaris/driverlib/sysctl.c ****     // Turn off the USB PLL.
2978:/home/cuil/workspace/arm/lm3s811/TI_Stellaris/driverlib/sysctl.c ****     //
2979:/home/cuil/workspace/arm/lm3s811/TI_Stellaris/driverlib/sysctl.c ****     HWREG(SYSCTL_RCC2) |= SYSCTL_RCC2_USBPWRDN;
 15007              		.loc 1 2979 0
 15008 0004 044B     		ldr	r3, .L243
 15009 0006 044A     		ldr	r2, .L243
 15010 0008 1268     		ldr	r2, [r2, #0]
 15011 000a 42F48042 		orr	r2, r2, #16384
 15012 000e 1A60     		str	r2, [r3, #0]
2980:/home/cuil/workspace/arm/lm3s811/TI_Stellaris/driverlib/sysctl.c **** }
 15013              		.loc 1 2980 0
 15014 0010 BD46     		mov	sp, r7
 15015 0012 80BC     		pop	{r7}
 15016 0014 7047     		bx	lr
 15017              	.L244:
 15018 0016 00BF     		.align	2
 15019              	.L243:
 15020 0018 70E00F40 		.word	1074782320
 15021              		.cfi_endproc
 15022              	.LFE48:
 15024              		.section	.text.SysCtlI2SMClkSet,"ax",%progbits
 15025              		.align	2
 15026              		.global	SysCtlI2SMClkSet
 15027              		.thumb
 15028              		.thumb_func
 15030              	SysCtlI2SMClkSet:
 15031              	.LFB49:
2981:/home/cuil/workspace/arm/lm3s811/TI_Stellaris/driverlib/sysctl.c **** 
2982:/home/cuil/workspace/arm/lm3s811/TI_Stellaris/driverlib/sysctl.c **** //*****************************************************************************
2983:/home/cuil/workspace/arm/lm3s811/TI_Stellaris/driverlib/sysctl.c **** //
2984:/home/cuil/workspace/arm/lm3s811/TI_Stellaris/driverlib/sysctl.c **** //! Sets the MCLK frequency provided to the I2S module.
2985:/home/cuil/workspace/arm/lm3s811/TI_Stellaris/driverlib/sysctl.c **** //!
2986:/home/cuil/workspace/arm/lm3s811/TI_Stellaris/driverlib/sysctl.c **** //! \param ulInputClock is the input clock to the MCLK divider.  If this value 
2987:/home/cuil/workspace/arm/lm3s811/TI_Stellaris/driverlib/sysctl.c **** //! is zero, the value is computed from the current PLL configuration.
2988:/home/cuil/workspace/arm/lm3s811/TI_Stellaris/driverlib/sysctl.c **** //! \param ulMClk is the desired MCLK frequency.  If this value is zero, MCLK 
2989:/home/cuil/workspace/arm/lm3s811/TI_Stellaris/driverlib/sysctl.c **** //! output is disabled.
2990:/home/cuil/workspace/arm/lm3s811/TI_Stellaris/driverlib/sysctl.c **** //!
2991:/home/cuil/workspace/arm/lm3s811/TI_Stellaris/driverlib/sysctl.c **** //! This function confgiures the dividers to provide MCLK to the I2S module.  A 
2992:/home/cuil/workspace/arm/lm3s811/TI_Stellaris/driverlib/sysctl.c **** //! MCLK divider is chosen that produces the MCLK frequency that is the closest
2993:/home/cuil/workspace/arm/lm3s811/TI_Stellaris/driverlib/sysctl.c **** //! possible to the requested frequency, which may be above or below the
2994:/home/cuil/workspace/arm/lm3s811/TI_Stellaris/driverlib/sysctl.c **** //! requested frequency.
2995:/home/cuil/workspace/arm/lm3s811/TI_Stellaris/driverlib/sysctl.c **** //!
2996:/home/cuil/workspace/arm/lm3s811/TI_Stellaris/driverlib/sysctl.c **** //! The actual MCLK frequency is returned.  It is the responsibility of the
2997:/home/cuil/workspace/arm/lm3s811/TI_Stellaris/driverlib/sysctl.c **** //! application to determine if the selected MCLK is acceptable; in general the
2998:/home/cuil/workspace/arm/lm3s811/TI_Stellaris/driverlib/sysctl.c **** //! human ear can not discern the frequency difference if it is within 0.3% of
2999:/home/cuil/workspace/arm/lm3s811/TI_Stellaris/driverlib/sysctl.c **** //! the desired frequency (although there is a very small percentage of the
3000:/home/cuil/workspace/arm/lm3s811/TI_Stellaris/driverlib/sysctl.c **** //! population that can discern lower frequency deviations).
3001:/home/cuil/workspace/arm/lm3s811/TI_Stellaris/driverlib/sysctl.c **** //!
3002:/home/cuil/workspace/arm/lm3s811/TI_Stellaris/driverlib/sysctl.c **** //! \return Returns the actual MCLK frequency.
3003:/home/cuil/workspace/arm/lm3s811/TI_Stellaris/driverlib/sysctl.c **** //
3004:/home/cuil/workspace/arm/lm3s811/TI_Stellaris/driverlib/sysctl.c **** //*****************************************************************************
3005:/home/cuil/workspace/arm/lm3s811/TI_Stellaris/driverlib/sysctl.c **** unsigned long
3006:/home/cuil/workspace/arm/lm3s811/TI_Stellaris/driverlib/sysctl.c **** SysCtlI2SMClkSet(unsigned long ulInputClock, unsigned long ulMClk)
3007:/home/cuil/workspace/arm/lm3s811/TI_Stellaris/driverlib/sysctl.c **** {
 15032              		.loc 1 3007 0
 15033              		.cfi_startproc
 15034              		@ args = 0, pretend = 0, frame = 24
 15035              		@ frame_needed = 1, uses_anonymous_args = 0
 15036              		@ link register save eliminated.
 15037 0000 80B4     		push	{r7}
 15038              	.LCFI131:
 15039              		.cfi_def_cfa_offset 4
 15040 0002 87B0     		sub	sp, sp, #28
 15041              	.LCFI132:
 15042              		.cfi_def_cfa_offset 32
 15043 0004 00AF     		add	r7, sp, #0
 15044              		.cfi_offset 7, -4
 15045              	.LCFI133:
 15046              		.cfi_def_cfa_register 7
 15047 0006 7860     		str	r0, [r7, #4]
 15048 0008 3960     		str	r1, [r7, #0]
3008:/home/cuil/workspace/arm/lm3s811/TI_Stellaris/driverlib/sysctl.c ****     unsigned long ulDivInt, ulDivFrac, ulPLL;
3009:/home/cuil/workspace/arm/lm3s811/TI_Stellaris/driverlib/sysctl.c **** 
3010:/home/cuil/workspace/arm/lm3s811/TI_Stellaris/driverlib/sysctl.c ****     //
3011:/home/cuil/workspace/arm/lm3s811/TI_Stellaris/driverlib/sysctl.c ****     // See if the I2S MCLK should be disabled.
3012:/home/cuil/workspace/arm/lm3s811/TI_Stellaris/driverlib/sysctl.c ****     //
3013:/home/cuil/workspace/arm/lm3s811/TI_Stellaris/driverlib/sysctl.c ****     if(ulMClk == 0)
 15049              		.loc 1 3013 0
 15050 000a 3B68     		ldr	r3, [r7, #0]
 15051 000c 002B     		cmp	r3, #0
 15052 000e 06D1     		bne	.L246
3014:/home/cuil/workspace/arm/lm3s811/TI_Stellaris/driverlib/sysctl.c ****     {
3015:/home/cuil/workspace/arm/lm3s811/TI_Stellaris/driverlib/sysctl.c ****         //
3016:/home/cuil/workspace/arm/lm3s811/TI_Stellaris/driverlib/sysctl.c ****         // Disable the I2S MCLK and return.
3017:/home/cuil/workspace/arm/lm3s811/TI_Stellaris/driverlib/sysctl.c ****         //
3018:/home/cuil/workspace/arm/lm3s811/TI_Stellaris/driverlib/sysctl.c ****         HWREG(SYSCTL_I2SMCLKCFG) = 0;
 15053              		.loc 1 3018 0
 15054 0010 5C4B     		ldr	r3, .L253
 15055 0012 4FF00002 		mov	r2, #0
 15056 0016 1A60     		str	r2, [r3, #0]
3019:/home/cuil/workspace/arm/lm3s811/TI_Stellaris/driverlib/sysctl.c ****         return(0);
 15057              		.loc 1 3019 0
 15058 0018 4FF00003 		mov	r3, #0
 15059 001c ACE0     		b	.L247
 15060              	.L246:
3020:/home/cuil/workspace/arm/lm3s811/TI_Stellaris/driverlib/sysctl.c ****     }
3021:/home/cuil/workspace/arm/lm3s811/TI_Stellaris/driverlib/sysctl.c **** 
3022:/home/cuil/workspace/arm/lm3s811/TI_Stellaris/driverlib/sysctl.c ****     //
3023:/home/cuil/workspace/arm/lm3s811/TI_Stellaris/driverlib/sysctl.c ****     // See if the input clock was specified.
3024:/home/cuil/workspace/arm/lm3s811/TI_Stellaris/driverlib/sysctl.c ****     //
3025:/home/cuil/workspace/arm/lm3s811/TI_Stellaris/driverlib/sysctl.c ****     if(ulInputClock == 0)
 15061              		.loc 1 3025 0
 15062 001e 7B68     		ldr	r3, [r7, #4]
 15063 0020 002B     		cmp	r3, #0
 15064 0022 30D1     		bne	.L248
3026:/home/cuil/workspace/arm/lm3s811/TI_Stellaris/driverlib/sysctl.c ****     {
3027:/home/cuil/workspace/arm/lm3s811/TI_Stellaris/driverlib/sysctl.c ****         //
3028:/home/cuil/workspace/arm/lm3s811/TI_Stellaris/driverlib/sysctl.c ****         // The input clock was not specified, so compute the output frequency
3029:/home/cuil/workspace/arm/lm3s811/TI_Stellaris/driverlib/sysctl.c ****         // of the PLL.  Get the current PLL configuration.
3030:/home/cuil/workspace/arm/lm3s811/TI_Stellaris/driverlib/sysctl.c ****         //
3031:/home/cuil/workspace/arm/lm3s811/TI_Stellaris/driverlib/sysctl.c ****         ulPLL = HWREG(SYSCTL_PLLCFG);
 15065              		.loc 1 3031 0
 15066 0024 584B     		ldr	r3, .L253+4
 15067 0026 1B68     		ldr	r3, [r3, #0]
 15068 0028 FB60     		str	r3, [r7, #12]
3032:/home/cuil/workspace/arm/lm3s811/TI_Stellaris/driverlib/sysctl.c **** 
3033:/home/cuil/workspace/arm/lm3s811/TI_Stellaris/driverlib/sysctl.c ****         //
3034:/home/cuil/workspace/arm/lm3s811/TI_Stellaris/driverlib/sysctl.c ****         // Get the frequency of the crystal in use.
3035:/home/cuil/workspace/arm/lm3s811/TI_Stellaris/driverlib/sysctl.c ****         //
3036:/home/cuil/workspace/arm/lm3s811/TI_Stellaris/driverlib/sysctl.c ****         ulInputClock = g_pulXtals[(HWREG(SYSCTL_RCC) & SYSCTL_RCC_XTAL_M) >>
 15069              		.loc 1 3036 0
 15070 002a 584B     		ldr	r3, .L253+8
 15071 002c 1B68     		ldr	r3, [r3, #0]
 15072 002e 03F4F863 		and	r3, r3, #1984
 15073 0032 4FEA9312 		lsr	r2, r3, #6
 15074 0036 564B     		ldr	r3, .L253+12
 15075 0038 53F82230 		ldr	r3, [r3, r2, lsl #2]
 15076 003c 7B60     		str	r3, [r7, #4]
3037:/home/cuil/workspace/arm/lm3s811/TI_Stellaris/driverlib/sysctl.c ****                                   SYSCTL_RCC_XTAL_S];
3038:/home/cuil/workspace/arm/lm3s811/TI_Stellaris/driverlib/sysctl.c **** 
3039:/home/cuil/workspace/arm/lm3s811/TI_Stellaris/driverlib/sysctl.c ****         //
3040:/home/cuil/workspace/arm/lm3s811/TI_Stellaris/driverlib/sysctl.c ****         // Calculate the PLL output frequency.
3041:/home/cuil/workspace/arm/lm3s811/TI_Stellaris/driverlib/sysctl.c ****         //
3042:/home/cuil/workspace/arm/lm3s811/TI_Stellaris/driverlib/sysctl.c ****         ulInputClock = ((ulInputClock * ((ulPLL & SYSCTL_PLLCFG_F_M) >>
 15077              		.loc 1 3042 0
 15078 003e FA68     		ldr	r2, [r7, #12]
 15079 0040 43F6E073 		movw	r3, #16352
 15080 0044 02EA0303 		and	r3, r2, r3
 15081 0048 4FEA5313 		lsr	r3, r3, #5
 15082 004c 7A68     		ldr	r2, [r7, #4]
 15083 004e 02FB03F2 		mul	r2, r2, r3
3043:/home/cuil/workspace/arm/lm3s811/TI_Stellaris/driverlib/sysctl.c ****                                          SYSCTL_PLLCFG_F_S)) /
3044:/home/cuil/workspace/arm/lm3s811/TI_Stellaris/driverlib/sysctl.c ****                         ((((ulPLL & SYSCTL_PLLCFG_R_M) >>
 15084              		.loc 1 3044 0
 15085 0052 FB68     		ldr	r3, [r7, #12]
 15086 0054 03F01F03 		and	r3, r3, #31
3045:/home/cuil/workspace/arm/lm3s811/TI_Stellaris/driverlib/sysctl.c ****                            SYSCTL_PLLCFG_R_S) + 1)));
 15087              		.loc 1 3045 0
 15088 0058 03F10103 		add	r3, r3, #1
3042:/home/cuil/workspace/arm/lm3s811/TI_Stellaris/driverlib/sysctl.c ****         ulInputClock = ((ulInputClock * ((ulPLL & SYSCTL_PLLCFG_F_M) >>
 15089              		.loc 1 3042 0
 15090 005c B2FBF3F3 		udiv	r3, r2, r3
 15091 0060 7B60     		str	r3, [r7, #4]
3046:/home/cuil/workspace/arm/lm3s811/TI_Stellaris/driverlib/sysctl.c **** 
3047:/home/cuil/workspace/arm/lm3s811/TI_Stellaris/driverlib/sysctl.c ****         //
3048:/home/cuil/workspace/arm/lm3s811/TI_Stellaris/driverlib/sysctl.c ****         // See if the optional output divide by 2 is being used.
3049:/home/cuil/workspace/arm/lm3s811/TI_Stellaris/driverlib/sysctl.c ****         //
3050:/home/cuil/workspace/arm/lm3s811/TI_Stellaris/driverlib/sysctl.c ****         if(ulPLL & SYSCTL_PLLCFG_OD_2)
 15092              		.loc 1 3050 0
 15093 0062 FB68     		ldr	r3, [r7, #12]
 15094 0064 03F48043 		and	r3, r3, #16384
 15095 0068 002B     		cmp	r3, #0
 15096 006a 03D0     		beq	.L249
3051:/home/cuil/workspace/arm/lm3s811/TI_Stellaris/driverlib/sysctl.c ****         {
3052:/home/cuil/workspace/arm/lm3s811/TI_Stellaris/driverlib/sysctl.c ****             ulInputClock /= 2;
 15097              		.loc 1 3052 0
 15098 006c 7B68     		ldr	r3, [r7, #4]
 15099 006e 4FEA5303 		lsr	r3, r3, #1
 15100 0072 7B60     		str	r3, [r7, #4]
 15101              	.L249:
3053:/home/cuil/workspace/arm/lm3s811/TI_Stellaris/driverlib/sysctl.c ****         }
3054:/home/cuil/workspace/arm/lm3s811/TI_Stellaris/driverlib/sysctl.c **** 
3055:/home/cuil/workspace/arm/lm3s811/TI_Stellaris/driverlib/sysctl.c ****         //
3056:/home/cuil/workspace/arm/lm3s811/TI_Stellaris/driverlib/sysctl.c ****         // See if the optional output divide by 4 is being used.
3057:/home/cuil/workspace/arm/lm3s811/TI_Stellaris/driverlib/sysctl.c ****         //
3058:/home/cuil/workspace/arm/lm3s811/TI_Stellaris/driverlib/sysctl.c ****         if(ulPLL & SYSCTL_PLLCFG_OD_4)
 15102              		.loc 1 3058 0
 15103 0074 FB68     		ldr	r3, [r7, #12]
 15104 0076 03F40043 		and	r3, r3, #32768
 15105 007a 002B     		cmp	r3, #0
 15106 007c 03D0     		beq	.L248
3059:/home/cuil/workspace/arm/lm3s811/TI_Stellaris/driverlib/sysctl.c ****         {
3060:/home/cuil/workspace/arm/lm3s811/TI_Stellaris/driverlib/sysctl.c ****             ulInputClock /= 4;
 15107              		.loc 1 3060 0
 15108 007e 7B68     		ldr	r3, [r7, #4]
 15109 0080 4FEA9303 		lsr	r3, r3, #2
 15110 0084 7B60     		str	r3, [r7, #4]
 15111              	.L248:
3061:/home/cuil/workspace/arm/lm3s811/TI_Stellaris/driverlib/sysctl.c ****         }
3062:/home/cuil/workspace/arm/lm3s811/TI_Stellaris/driverlib/sysctl.c ****     }
3063:/home/cuil/workspace/arm/lm3s811/TI_Stellaris/driverlib/sysctl.c **** 
3064:/home/cuil/workspace/arm/lm3s811/TI_Stellaris/driverlib/sysctl.c ****     //
3065:/home/cuil/workspace/arm/lm3s811/TI_Stellaris/driverlib/sysctl.c ****     // Verify that the requested MCLK frequency is attainable.
3066:/home/cuil/workspace/arm/lm3s811/TI_Stellaris/driverlib/sysctl.c ****     //
3067:/home/cuil/workspace/arm/lm3s811/TI_Stellaris/driverlib/sysctl.c ****     ASSERT(ulMClk < ulInputClock);
3068:/home/cuil/workspace/arm/lm3s811/TI_Stellaris/driverlib/sysctl.c **** 
3069:/home/cuil/workspace/arm/lm3s811/TI_Stellaris/driverlib/sysctl.c ****     //
3070:/home/cuil/workspace/arm/lm3s811/TI_Stellaris/driverlib/sysctl.c ****     // Add a rounding factor to the input clock, so that the MCLK frequency
3071:/home/cuil/workspace/arm/lm3s811/TI_Stellaris/driverlib/sysctl.c ****     // that is closest to the desire value is selected.
3072:/home/cuil/workspace/arm/lm3s811/TI_Stellaris/driverlib/sysctl.c ****     //
3073:/home/cuil/workspace/arm/lm3s811/TI_Stellaris/driverlib/sysctl.c ****     ulInputClock += (ulMClk / 32) - 1;
 15112              		.loc 1 3073 0
 15113 0086 3B68     		ldr	r3, [r7, #0]
 15114 0088 4FEA5312 		lsr	r2, r3, #5
 15115 008c 7B68     		ldr	r3, [r7, #4]
 15116 008e D318     		adds	r3, r2, r3
 15117 0090 03F1FF33 		add	r3, r3, #-1
 15118 0094 7B60     		str	r3, [r7, #4]
3074:/home/cuil/workspace/arm/lm3s811/TI_Stellaris/driverlib/sysctl.c **** 
3075:/home/cuil/workspace/arm/lm3s811/TI_Stellaris/driverlib/sysctl.c ****     //
3076:/home/cuil/workspace/arm/lm3s811/TI_Stellaris/driverlib/sysctl.c ****     // Compute the integer portion of the MCLK divider.
3077:/home/cuil/workspace/arm/lm3s811/TI_Stellaris/driverlib/sysctl.c ****     //
3078:/home/cuil/workspace/arm/lm3s811/TI_Stellaris/driverlib/sysctl.c ****     ulDivInt = ulInputClock / ulMClk;
 15119              		.loc 1 3078 0
 15120 0096 7A68     		ldr	r2, [r7, #4]
 15121 0098 3B68     		ldr	r3, [r7, #0]
 15122 009a B2FBF3F3 		udiv	r3, r2, r3
 15123 009e 7B61     		str	r3, [r7, #20]
3079:/home/cuil/workspace/arm/lm3s811/TI_Stellaris/driverlib/sysctl.c **** 
3080:/home/cuil/workspace/arm/lm3s811/TI_Stellaris/driverlib/sysctl.c ****     //
3081:/home/cuil/workspace/arm/lm3s811/TI_Stellaris/driverlib/sysctl.c ****     // If the divisor is too large, then simply use the maximum divisor.
3082:/home/cuil/workspace/arm/lm3s811/TI_Stellaris/driverlib/sysctl.c ****     //
3083:/home/cuil/workspace/arm/lm3s811/TI_Stellaris/driverlib/sysctl.c ****     if(CLASS_IS_TEMPEST && REVISION_IS_B1 && (ulDivInt > 255))
 15124              		.loc 1 3083 0
 15125 00a0 3C4B     		ldr	r3, .L253+16
 15126 00a2 1A68     		ldr	r2, [r3, #0]
 15127 00a4 3C4B     		ldr	r3, .L253+20
 15128 00a6 02EA0303 		and	r3, r2, r3
 15129 00aa 3C4A     		ldr	r2, .L253+24
 15130 00ac 9342     		cmp	r3, r2
 15131 00ae 13D1     		bne	.L250
 15132              		.loc 1 3083 0 is_stmt 0 discriminator 1
 15133 00b0 384B     		ldr	r3, .L253+16
 15134 00b2 1B68     		ldr	r3, [r3, #0]
 15135 00b4 4FEA0343 		lsl	r3, r3, #16
 15136 00b8 4FEA1343 		lsr	r3, r3, #16
 15137 00bc 40F20112 		movw	r2, #257
 15138 00c0 9342     		cmp	r3, r2
 15139 00c2 09D1     		bne	.L250
 15140 00c4 7B69     		ldr	r3, [r7, #20]
 15141 00c6 FF2B     		cmp	r3, #255
 15142 00c8 06D9     		bls	.L250
3084:/home/cuil/workspace/arm/lm3s811/TI_Stellaris/driverlib/sysctl.c ****     {
3085:/home/cuil/workspace/arm/lm3s811/TI_Stellaris/driverlib/sysctl.c ****         ulDivInt = 255;
 15143              		.loc 1 3085 0 is_stmt 1
 15144 00ca 4FF0FF03 		mov	r3, #255
 15145 00ce 7B61     		str	r3, [r7, #20]
3086:/home/cuil/workspace/arm/lm3s811/TI_Stellaris/driverlib/sysctl.c ****         ulDivFrac = 15;
 15146              		.loc 1 3086 0
 15147 00d0 4FF00F03 		mov	r3, #15
 15148 00d4 3B61     		str	r3, [r7, #16]
 15149 00d6 17E0     		b	.L251
 15150              	.L250:
3087:/home/cuil/workspace/arm/lm3s811/TI_Stellaris/driverlib/sysctl.c ****     }
3088:/home/cuil/workspace/arm/lm3s811/TI_Stellaris/driverlib/sysctl.c ****     else if(ulDivInt > 1023)
 15151              		.loc 1 3088 0
 15152 00d8 7A69     		ldr	r2, [r7, #20]
 15153 00da 40F2FF33 		movw	r3, #1023
 15154 00de 9A42     		cmp	r2, r3
 15155 00e0 06D9     		bls	.L252
3089:/home/cuil/workspace/arm/lm3s811/TI_Stellaris/driverlib/sysctl.c ****     {
3090:/home/cuil/workspace/arm/lm3s811/TI_Stellaris/driverlib/sysctl.c ****         ulDivInt = 1023;
 15156              		.loc 1 3090 0
 15157 00e2 40F2FF33 		movw	r3, #1023
 15158 00e6 7B61     		str	r3, [r7, #20]
3091:/home/cuil/workspace/arm/lm3s811/TI_Stellaris/driverlib/sysctl.c ****         ulDivFrac = 15;
 15159              		.loc 1 3091 0
 15160 00e8 4FF00F03 		mov	r3, #15
 15161 00ec 3B61     		str	r3, [r7, #16]
 15162 00ee 0BE0     		b	.L251
 15163              	.L252:
3092:/home/cuil/workspace/arm/lm3s811/TI_Stellaris/driverlib/sysctl.c ****     }
3093:/home/cuil/workspace/arm/lm3s811/TI_Stellaris/driverlib/sysctl.c ****     else
3094:/home/cuil/workspace/arm/lm3s811/TI_Stellaris/driverlib/sysctl.c ****     {
3095:/home/cuil/workspace/arm/lm3s811/TI_Stellaris/driverlib/sysctl.c ****         //
3096:/home/cuil/workspace/arm/lm3s811/TI_Stellaris/driverlib/sysctl.c ****         // Compute the fractional portion of the MCLK divider.
3097:/home/cuil/workspace/arm/lm3s811/TI_Stellaris/driverlib/sysctl.c ****         //
3098:/home/cuil/workspace/arm/lm3s811/TI_Stellaris/driverlib/sysctl.c ****         ulDivFrac = ((ulInputClock - (ulDivInt * ulMClk)) * 16) / ulMClk;
 15164              		.loc 1 3098 0
 15165 00f0 7B69     		ldr	r3, [r7, #20]
 15166 00f2 3A68     		ldr	r2, [r7, #0]
 15167 00f4 02FB03F3 		mul	r3, r2, r3
 15168 00f8 7A68     		ldr	r2, [r7, #4]
 15169 00fa D31A     		subs	r3, r2, r3
 15170 00fc 4FEA0312 		lsl	r2, r3, #4
 15171 0100 3B68     		ldr	r3, [r7, #0]
 15172 0102 B2FBF3F3 		udiv	r3, r2, r3
 15173 0106 3B61     		str	r3, [r7, #16]
 15174              	.L251:
3099:/home/cuil/workspace/arm/lm3s811/TI_Stellaris/driverlib/sysctl.c ****     }
3100:/home/cuil/workspace/arm/lm3s811/TI_Stellaris/driverlib/sysctl.c **** 
3101:/home/cuil/workspace/arm/lm3s811/TI_Stellaris/driverlib/sysctl.c ****     //
3102:/home/cuil/workspace/arm/lm3s811/TI_Stellaris/driverlib/sysctl.c ****     // Set the divisor for the Tx and Rx MCLK generators and enable the clocks.
3103:/home/cuil/workspace/arm/lm3s811/TI_Stellaris/driverlib/sysctl.c ****     //
3104:/home/cuil/workspace/arm/lm3s811/TI_Stellaris/driverlib/sysctl.c ****     HWREG(SYSCTL_I2SMCLKCFG) = (SYSCTL_I2SMCLKCFG_RXEN |
 15175              		.loc 1 3104 0
 15176 0108 1E4B     		ldr	r3, .L253
3105:/home/cuil/workspace/arm/lm3s811/TI_Stellaris/driverlib/sysctl.c ****                                 (ulDivInt << SYSCTL_I2SMCLKCFG_RXI_S) |
 15177              		.loc 1 3105 0
 15178 010a 7A69     		ldr	r2, [r7, #20]
 15179 010c 4FEA0251 		lsl	r1, r2, #20
3106:/home/cuil/workspace/arm/lm3s811/TI_Stellaris/driverlib/sysctl.c ****                                 (ulDivFrac << SYSCTL_I2SMCLKCFG_RXF_S) |
 15180              		.loc 1 3106 0
 15181 0110 3A69     		ldr	r2, [r7, #16]
 15182 0112 4FEA0242 		lsl	r2, r2, #16
3105:/home/cuil/workspace/arm/lm3s811/TI_Stellaris/driverlib/sysctl.c ****                                 (ulDivInt << SYSCTL_I2SMCLKCFG_RXI_S) |
 15183              		.loc 1 3105 0
 15184 0116 1143     		orrs	r1, r1, r2
3107:/home/cuil/workspace/arm/lm3s811/TI_Stellaris/driverlib/sysctl.c ****                                 SYSCTL_I2SMCLKCFG_TXEN |
3108:/home/cuil/workspace/arm/lm3s811/TI_Stellaris/driverlib/sysctl.c ****                                 (ulDivInt << SYSCTL_I2SMCLKCFG_TXI_S) |
 15185              		.loc 1 3108 0
 15186 0118 7A69     		ldr	r2, [r7, #20]
 15187 011a 4FEA0212 		lsl	r2, r2, #4
3107:/home/cuil/workspace/arm/lm3s811/TI_Stellaris/driverlib/sysctl.c ****                                 SYSCTL_I2SMCLKCFG_TXEN |
 15188              		.loc 1 3107 0
 15189 011e 1143     		orrs	r1, r1, r2
 15190              		.loc 1 3108 0
 15191 0120 3A69     		ldr	r2, [r7, #16]
 15192 0122 41EA0202 		orr	r2, r1, r2
 15193 0126 42F08022 		orr	r2, r2, #-2147450880
3104:/home/cuil/workspace/arm/lm3s811/TI_Stellaris/driverlib/sysctl.c ****     HWREG(SYSCTL_I2SMCLKCFG) = (SYSCTL_I2SMCLKCFG_RXEN |
 15194              		.loc 1 3104 0
 15195 012a 1A60     		str	r2, [r3, #0]
3109:/home/cuil/workspace/arm/lm3s811/TI_Stellaris/driverlib/sysctl.c ****                                 (ulDivFrac << SYSCTL_I2SMCLKCFG_TXF_S));
3110:/home/cuil/workspace/arm/lm3s811/TI_Stellaris/driverlib/sysctl.c **** 
3111:/home/cuil/workspace/arm/lm3s811/TI_Stellaris/driverlib/sysctl.c ****     //
3112:/home/cuil/workspace/arm/lm3s811/TI_Stellaris/driverlib/sysctl.c ****     // Return the actual MCLK frequency.
3113:/home/cuil/workspace/arm/lm3s811/TI_Stellaris/driverlib/sysctl.c ****     //
3114:/home/cuil/workspace/arm/lm3s811/TI_Stellaris/driverlib/sysctl.c ****     ulInputClock -= (ulMClk / 32) - 1;
 15196              		.loc 1 3114 0
 15197 012c 3B68     		ldr	r3, [r7, #0]
 15198 012e 4FEA5313 		lsr	r3, r3, #5
 15199 0132 7A68     		ldr	r2, [r7, #4]
 15200 0134 D31A     		subs	r3, r2, r3
 15201 0136 03F10103 		add	r3, r3, #1
 15202 013a 7B60     		str	r3, [r7, #4]
3115:/home/cuil/workspace/arm/lm3s811/TI_Stellaris/driverlib/sysctl.c ****     ulDivInt = (ulDivInt * 16) + ulDivFrac;
 15203              		.loc 1 3115 0
 15204 013c 7B69     		ldr	r3, [r7, #20]
 15205 013e 4FEA0312 		lsl	r2, r3, #4
 15206 0142 3B69     		ldr	r3, [r7, #16]
 15207 0144 D318     		adds	r3, r2, r3
 15208 0146 7B61     		str	r3, [r7, #20]
3116:/home/cuil/workspace/arm/lm3s811/TI_Stellaris/driverlib/sysctl.c ****     ulMClk = (ulInputClock / ulDivInt) * 16;
 15209              		.loc 1 3116 0
 15210 0148 7A68     		ldr	r2, [r7, #4]
 15211 014a 7B69     		ldr	r3, [r7, #20]
 15212 014c B2FBF3F3 		udiv	r3, r2, r3
 15213 0150 4FEA0313 		lsl	r3, r3, #4
 15214 0154 3B60     		str	r3, [r7, #0]
3117:/home/cuil/workspace/arm/lm3s811/TI_Stellaris/driverlib/sysctl.c ****     ulMClk += ((ulInputClock - ((ulMClk / 16) * ulDivInt)) * 16) / ulDivInt;
 15215              		.loc 1 3117 0
 15216 0156 3B68     		ldr	r3, [r7, #0]
 15217 0158 4FEA1313 		lsr	r3, r3, #4
 15218 015c 7A69     		ldr	r2, [r7, #20]
 15219 015e 02FB03F3 		mul	r3, r2, r3
 15220 0162 7A68     		ldr	r2, [r7, #4]
 15221 0164 D31A     		subs	r3, r2, r3
 15222 0166 4FEA0312 		lsl	r2, r3, #4
 15223 016a 7B69     		ldr	r3, [r7, #20]
 15224 016c B2FBF3F3 		udiv	r3, r2, r3
 15225 0170 3A68     		ldr	r2, [r7, #0]
 15226 0172 D318     		adds	r3, r2, r3
 15227 0174 3B60     		str	r3, [r7, #0]
3118:/home/cuil/workspace/arm/lm3s811/TI_Stellaris/driverlib/sysctl.c ****     return(ulMClk);
 15228              		.loc 1 3118 0
 15229 0176 3B68     		ldr	r3, [r7, #0]
 15230              	.L247:
3119:/home/cuil/workspace/arm/lm3s811/TI_Stellaris/driverlib/sysctl.c **** }
 15231              		.loc 1 3119 0
 15232 0178 1846     		mov	r0, r3
 15233 017a 07F11C07 		add	r7, r7, #28
 15234 017e BD46     		mov	sp, r7
 15235 0180 80BC     		pop	{r7}
 15236 0182 7047     		bx	lr
 15237              	.L254:
 15238              		.align	2
 15239              	.L253:
 15240 0184 70E10F40 		.word	1074782576
 15241 0188 64E00F40 		.word	1074782308
 15242 018c 60E00F40 		.word	1074782304
 15243 0190 40000000 		.word	g_pulXtals
 15244 0194 00E00F40 		.word	1074782208
 15245 0198 0000FF70 		.word	1895759872
 15246 019c 00000410 		.word	268697600
 15247              		.cfi_endproc
 15248              	.LFE49:
 15250              		.text
 15251              	.Letext0:
DEFINED SYMBOLS
                            *ABS*:00000000 sysctl.c
     /tmp/ccc8LBB3.s:11432  .rodata:00000000 $d
     /tmp/ccc8LBB3.s:11435  .rodata:00000000 g_pulDCRegs
     /tmp/ccc8LBB3.s:11443  .rodata:00000010 g_pulSRCRRegs
     /tmp/ccc8LBB3.s:11450  .rodata:0000001c g_pulRCGCRegs
     /tmp/ccc8LBB3.s:11457  .rodata:00000028 g_pulSCGCRegs
     /tmp/ccc8LBB3.s:11464  .rodata:00000034 g_pulDCGCRegs
     /tmp/ccc8LBB3.s:11471  .rodata:00000040 g_pulXtals
     /tmp/ccc8LBB3.s:11502  .rodata:000000ac g_ppulPeripheralMap
     /tmp/ccc8LBB3.s:11574  .text.SysCtlPeripheralMapToNew:00000000 $t
     /tmp/ccc8LBB3.s:11578  .text.SysCtlPeripheralMapToNew:00000000 SysCtlPeripheralMapToNew
     /tmp/ccc8LBB3.s:11637  .text.SysCtlPeripheralMapToNew:00000048 $d
     /tmp/ccc8LBB3.s:11642  .text.SysCtlSRAMSizeGet:00000000 $t
     /tmp/ccc8LBB3.s:11647  .text.SysCtlSRAMSizeGet:00000000 SysCtlSRAMSizeGet
     /tmp/ccc8LBB3.s:11676  .text.SysCtlSRAMSizeGet:00000020 $d
     /tmp/ccc8LBB3.s:11681  .text.SysCtlFlashSizeGet:00000000 $t
     /tmp/ccc8LBB3.s:11686  .text.SysCtlFlashSizeGet:00000000 SysCtlFlashSizeGet
     /tmp/ccc8LBB3.s:11715  .text.SysCtlFlashSizeGet:00000020 $d
     /tmp/ccc8LBB3.s:11720  .text.SysCtlPinPresent:00000000 $t
     /tmp/ccc8LBB3.s:11725  .text.SysCtlPinPresent:00000000 SysCtlPinPresent
     /tmp/ccc8LBB3.s:11766  .text.SysCtlPinPresent:0000002c $d
     /tmp/ccc8LBB3.s:11771  .text.SysCtlPeripheralPresent:00000000 $t
     /tmp/ccc8LBB3.s:11776  .text.SysCtlPeripheralPresent:00000000 SysCtlPeripheralPresent
     /tmp/ccc8LBB3.s:11877  .text.SysCtlPeripheralPresent:000000c0 $d
     /tmp/ccc8LBB3.s:11885  .text.SysCtlPeripheralReady:00000000 $t
     /tmp/ccc8LBB3.s:11890  .text.SysCtlPeripheralReady:00000000 SysCtlPeripheralReady
     /tmp/ccc8LBB3.s:11943  .text.SysCtlPeripheralReady:00000060 $d
     /tmp/ccc8LBB3.s:11948  .text.SysCtlPeripheralPowerOn:00000000 $t
     /tmp/ccc8LBB3.s:11953  .text.SysCtlPeripheralPowerOn:00000000 SysCtlPeripheralPowerOn
     /tmp/ccc8LBB3.s:12006  .text.SysCtlPeripheralPowerOn:00000060 $d
     /tmp/ccc8LBB3.s:12011  .text.SysCtlPeripheralPowerOff:00000000 $t
     /tmp/ccc8LBB3.s:12016  .text.SysCtlPeripheralPowerOff:00000000 SysCtlPeripheralPowerOff
     /tmp/ccc8LBB3.s:12069  .text.SysCtlPeripheralPowerOff:00000060 $d
     /tmp/ccc8LBB3.s:12074  .text.SysCtlPeripheralReset:00000000 $t
     /tmp/ccc8LBB3.s:12079  .text.SysCtlPeripheralReset:00000000 SysCtlPeripheralReset
     /tmp/ccc8LBB3.s:12234  .text.SysCtlPeripheralReset:00000150 $d
     /tmp/ccc8LBB3.s:12240  .text.SysCtlPeripheralEnable:00000000 $t
     /tmp/ccc8LBB3.s:12245  .text.SysCtlPeripheralEnable:00000000 SysCtlPeripheralEnable
     /tmp/ccc8LBB3.s:12325  .text.SysCtlPeripheralEnable:000000a0 $d
     /tmp/ccc8LBB3.s:12331  .text.SysCtlPeripheralDisable:00000000 $t
     /tmp/ccc8LBB3.s:12336  .text.SysCtlPeripheralDisable:00000000 SysCtlPeripheralDisable
     /tmp/ccc8LBB3.s:12417  .text.SysCtlPeripheralDisable:000000a4 $d
     /tmp/ccc8LBB3.s:12423  .text.SysCtlPeripheralSleepEnable:00000000 $t
     /tmp/ccc8LBB3.s:12428  .text.SysCtlPeripheralSleepEnable:00000000 SysCtlPeripheralSleepEnable
     /tmp/ccc8LBB3.s:12508  .text.SysCtlPeripheralSleepEnable:000000a0 $d
     /tmp/ccc8LBB3.s:12514  .text.SysCtlPeripheralSleepDisable:00000000 $t
     /tmp/ccc8LBB3.s:12519  .text.SysCtlPeripheralSleepDisable:00000000 SysCtlPeripheralSleepDisable
     /tmp/ccc8LBB3.s:12600  .text.SysCtlPeripheralSleepDisable:000000a4 $d
     /tmp/ccc8LBB3.s:12606  .text.SysCtlPeripheralDeepSleepEnable:00000000 $t
     /tmp/ccc8LBB3.s:12611  .text.SysCtlPeripheralDeepSleepEnable:00000000 SysCtlPeripheralDeepSleepEnable
     /tmp/ccc8LBB3.s:12691  .text.SysCtlPeripheralDeepSleepEnable:000000a0 $d
     /tmp/ccc8LBB3.s:12697  .text.SysCtlPeripheralDeepSleepDisable:00000000 $t
     /tmp/ccc8LBB3.s:12702  .text.SysCtlPeripheralDeepSleepDisable:00000000 SysCtlPeripheralDeepSleepDisable
     /tmp/ccc8LBB3.s:12783  .text.SysCtlPeripheralDeepSleepDisable:000000a4 $d
     /tmp/ccc8LBB3.s:12789  .text.SysCtlPeripheralClockGating:00000000 $t
     /tmp/ccc8LBB3.s:12794  .text.SysCtlPeripheralClockGating:00000000 SysCtlPeripheralClockGating
     /tmp/ccc8LBB3.s:12840  .text.SysCtlPeripheralClockGating:00000034 $d
     /tmp/ccc8LBB3.s:12845  .text.SysCtlIntRegister:00000000 $t
     /tmp/ccc8LBB3.s:12850  .text.SysCtlIntRegister:00000000 SysCtlIntRegister
     /tmp/ccc8LBB3.s:12883  .text.SysCtlIntUnregister:00000000 $t
     /tmp/ccc8LBB3.s:12888  .text.SysCtlIntUnregister:00000000 SysCtlIntUnregister
     /tmp/ccc8LBB3.s:12914  .text.SysCtlIntEnable:00000000 $t
     /tmp/ccc8LBB3.s:12919  .text.SysCtlIntEnable:00000000 SysCtlIntEnable
     /tmp/ccc8LBB3.s:12952  .text.SysCtlIntEnable:00000020 $d
     /tmp/ccc8LBB3.s:12957  .text.SysCtlIntDisable:00000000 $t
     /tmp/ccc8LBB3.s:12962  .text.SysCtlIntDisable:00000000 SysCtlIntDisable
     /tmp/ccc8LBB3.s:12996  .text.SysCtlIntDisable:00000024 $d
     /tmp/ccc8LBB3.s:13001  .text.SysCtlIntClear:00000000 $t
     /tmp/ccc8LBB3.s:13006  .text.SysCtlIntClear:00000000 SysCtlIntClear
     /tmp/ccc8LBB3.s:13036  .text.SysCtlIntClear:00000018 $d
     /tmp/ccc8LBB3.s:13041  .text.SysCtlIntStatus:00000000 $t
     /tmp/ccc8LBB3.s:13046  .text.SysCtlIntStatus:00000000 SysCtlIntStatus
     /tmp/ccc8LBB3.s:13087  .text.SysCtlIntStatus:00000028 $d
     /tmp/ccc8LBB3.s:13093  .text.SysCtlLDOSet:00000000 $t
     /tmp/ccc8LBB3.s:13098  .text.SysCtlLDOSet:00000000 SysCtlLDOSet
     /tmp/ccc8LBB3.s:13128  .text.SysCtlLDOSet:00000018 $d
     /tmp/ccc8LBB3.s:13133  .text.SysCtlLDOGet:00000000 $t
     /tmp/ccc8LBB3.s:13138  .text.SysCtlLDOGet:00000000 SysCtlLDOGet
     /tmp/ccc8LBB3.s:13163  .text.SysCtlLDOGet:00000010 $d
     /tmp/ccc8LBB3.s:13168  .text.SysCtlLDOConfigSet:00000000 $t
     /tmp/ccc8LBB3.s:13173  .text.SysCtlLDOConfigSet:00000000 SysCtlLDOConfigSet
     /tmp/ccc8LBB3.s:13203  .text.SysCtlLDOConfigSet:00000018 $d
     /tmp/ccc8LBB3.s:13208  .text.SysCtlReset:00000000 $t
     /tmp/ccc8LBB3.s:13213  .text.SysCtlReset:00000000 SysCtlReset
     /tmp/ccc8LBB3.s:13237  .text.SysCtlReset:0000000c $d
     /tmp/ccc8LBB3.s:13243  .text.SysCtlSleep:00000000 $t
     /tmp/ccc8LBB3.s:13248  .text.SysCtlSleep:00000000 SysCtlSleep
     /tmp/ccc8LBB3.s:13270  .text.SysCtlDeepSleep:00000000 $t
     /tmp/ccc8LBB3.s:13275  .text.SysCtlDeepSleep:00000000 SysCtlDeepSleep
     /tmp/ccc8LBB3.s:13308  .text.SysCtlDeepSleep:00000024 $d
     /tmp/ccc8LBB3.s:13313  .text.SysCtlResetCauseGet:00000000 $t
     /tmp/ccc8LBB3.s:13318  .text.SysCtlResetCauseGet:00000000 SysCtlResetCauseGet
     /tmp/ccc8LBB3.s:13343  .text.SysCtlResetCauseGet:00000010 $d
     /tmp/ccc8LBB3.s:13348  .text.SysCtlResetCauseClear:00000000 $t
     /tmp/ccc8LBB3.s:13353  .text.SysCtlResetCauseClear:00000000 SysCtlResetCauseClear
     /tmp/ccc8LBB3.s:13387  .text.SysCtlResetCauseClear:00000024 $d
     /tmp/ccc8LBB3.s:13392  .text.SysCtlBrownOutConfigSet:00000000 $t
     /tmp/ccc8LBB3.s:13397  .text.SysCtlBrownOutConfigSet:00000000 SysCtlBrownOutConfigSet
     /tmp/ccc8LBB3.s:13431  .text.SysCtlBrownOutConfigSet:00000024 $d
     /tmp/ccc8LBB3.s:13436  .text.SysCtlDelay:00000000 $t
     /tmp/ccc8LBB3.s:13441  .text.SysCtlDelay:00000000 SysCtlDelay
     /tmp/ccc8LBB3.s:13460  .text.SysCtlMOSCConfigSet:00000000 $t
     /tmp/ccc8LBB3.s:13465  .text.SysCtlMOSCConfigSet:00000000 SysCtlMOSCConfigSet
     /tmp/ccc8LBB3.s:13495  .text.SysCtlMOSCConfigSet:00000018 $d
     /tmp/ccc8LBB3.s:13500  .text.SysCtlPIOSCCalibrate:00000000 $t
     /tmp/ccc8LBB3.s:13505  .text.SysCtlPIOSCCalibrate:00000000 SysCtlPIOSCCalibrate
     /tmp/ccc8LBB3.s:13583  .text.SysCtlPIOSCCalibrate:0000006c $d
     /tmp/ccc8LBB3.s:13591  .text.SysCtlClockSet:00000000 $t
     /tmp/ccc8LBB3.s:13596  .text.SysCtlClockSet:00000000 SysCtlClockSet
     /tmp/ccc8LBB3.s:13932  .text.SysCtlClockSet:00000248 $d
     /tmp/ccc8LBB3.s:13945  .text.SysCtlClockGet:00000000 $t
     /tmp/ccc8LBB3.s:13950  .text.SysCtlClockGet:00000000 SysCtlClockGet
     /tmp/ccc8LBB3.s:14284  .text.SysCtlClockGet:0000023c $d
     /tmp/ccc8LBB3.s:14304  .text.SysCtlClockGet:00000284 $t
     /tmp/ccc8LBB3.s:14431  .text.SysCtlDeepSleepClockSet:00000000 $t
     /tmp/ccc8LBB3.s:14436  .text.SysCtlDeepSleepClockSet:00000000 SysCtlDeepSleepClockSet
     /tmp/ccc8LBB3.s:14466  .text.SysCtlDeepSleepClockSet:00000018 $d
     /tmp/ccc8LBB3.s:14471  .text.SysCtlPWMClockSet:00000000 $t
     /tmp/ccc8LBB3.s:14476  .text.SysCtlPWMClockSet:00000000 SysCtlPWMClockSet
     /tmp/ccc8LBB3.s:14512  .text.SysCtlPWMClockSet:00000024 $d
     /tmp/ccc8LBB3.s:14517  .text.SysCtlPWMClockGet:00000000 $t
     /tmp/ccc8LBB3.s:14522  .text.SysCtlPWMClockGet:00000000 SysCtlPWMClockGet
     /tmp/ccc8LBB3.s:14559  .text.SysCtlPWMClockGet:00000028 $d
     /tmp/ccc8LBB3.s:14564  .text.SysCtlADCSpeedSet:00000000 $t
     /tmp/ccc8LBB3.s:14569  .text.SysCtlADCSpeedSet:00000000 SysCtlADCSpeedSet
     /tmp/ccc8LBB3.s:14611  .text.SysCtlADCSpeedSet:00000038 $d
     /tmp/ccc8LBB3.s:14617  .text.SysCtlADCSpeedGet:00000000 $t
     /tmp/ccc8LBB3.s:14622  .text.SysCtlADCSpeedGet:00000000 SysCtlADCSpeedGet
     /tmp/ccc8LBB3.s:14648  .text.SysCtlADCSpeedGet:00000014 $d
     /tmp/ccc8LBB3.s:14653  .text.SysCtlIOSCVerificationSet:00000000 $t
     /tmp/ccc8LBB3.s:14658  .text.SysCtlIOSCVerificationSet:00000000 SysCtlIOSCVerificationSet
     /tmp/ccc8LBB3.s:14704  .text.SysCtlIOSCVerificationSet:00000034 $d
     /tmp/ccc8LBB3.s:14709  .text.SysCtlMOSCVerificationSet:00000000 $t
     /tmp/ccc8LBB3.s:14714  .text.SysCtlMOSCVerificationSet:00000000 SysCtlMOSCVerificationSet
     /tmp/ccc8LBB3.s:14760  .text.SysCtlMOSCVerificationSet:00000034 $d
     /tmp/ccc8LBB3.s:14765  .text.SysCtlPLLVerificationSet:00000000 $t
     /tmp/ccc8LBB3.s:14770  .text.SysCtlPLLVerificationSet:00000000 SysCtlPLLVerificationSet
     /tmp/ccc8LBB3.s:14816  .text.SysCtlPLLVerificationSet:00000034 $d
     /tmp/ccc8LBB3.s:14821  .text.SysCtlClkVerificationClear:00000000 $t
     /tmp/ccc8LBB3.s:14826  .text.SysCtlClkVerificationClear:00000000 SysCtlClkVerificationClear
     /tmp/ccc8LBB3.s:14855  .text.SysCtlClkVerificationClear:0000001c $d
     /tmp/ccc8LBB3.s:14860  .text.SysCtlGPIOAHBEnable:00000000 $t
     /tmp/ccc8LBB3.s:14865  .text.SysCtlGPIOAHBEnable:00000000 SysCtlGPIOAHBEnable
     /tmp/ccc8LBB3.s:14900  .text.SysCtlGPIOAHBEnable:00000028 $d
     /tmp/ccc8LBB3.s:14905  .text.SysCtlGPIOAHBDisable:00000000 $t
     /tmp/ccc8LBB3.s:14910  .text.SysCtlGPIOAHBDisable:00000000 SysCtlGPIOAHBDisable
     /tmp/ccc8LBB3.s:14946  .text.SysCtlGPIOAHBDisable:0000002c $d
     /tmp/ccc8LBB3.s:14951  .text.SysCtlUSBPLLEnable:00000000 $t
     /tmp/ccc8LBB3.s:14956  .text.SysCtlUSBPLLEnable:00000000 SysCtlUSBPLLEnable
     /tmp/ccc8LBB3.s:14983  .text.SysCtlUSBPLLEnable:00000018 $d
     /tmp/ccc8LBB3.s:14988  .text.SysCtlUSBPLLDisable:00000000 $t
     /tmp/ccc8LBB3.s:14993  .text.SysCtlUSBPLLDisable:00000000 SysCtlUSBPLLDisable
     /tmp/ccc8LBB3.s:15020  .text.SysCtlUSBPLLDisable:00000018 $d
     /tmp/ccc8LBB3.s:15025  .text.SysCtlI2SMClkSet:00000000 $t
     /tmp/ccc8LBB3.s:15030  .text.SysCtlI2SMClkSet:00000000 SysCtlI2SMClkSet
     /tmp/ccc8LBB3.s:15240  .text.SysCtlI2SMClkSet:00000184 $d
                     .debug_frame:00000010 $d

UNDEFINED SYMBOLS
IntRegister
IntEnable
IntDisable
IntUnregister
CPUwfi
