   1              		.syntax unified
   2              		.cpu cortex-m3
   3              		.fpu softvfp
   4              		.eabi_attribute 20, 1
   5              		.eabi_attribute 21, 1
   6              		.eabi_attribute 23, 3
   7              		.eabi_attribute 24, 1
   8              		.eabi_attribute 25, 1
   9              		.eabi_attribute 26, 1
  10              		.eabi_attribute 30, 6
  11              		.eabi_attribute 18, 4
  12              		.thumb
  13              		.file	"timer.c"
  23              	.Ltext0:
  24              		.file 1 "/home/cuil/workspace/arm/lm3s811/TI_Stellaris/driverlib/timer.c"
 2963              		.align	2
 2966              	g_ppulTimerIntMap:
 2967 0000 00000340 		.word	1073938432
 2968 0004 23000000 		.word	35
 2969 0008 00100340 		.word	1073942528
 2970 000c 25000000 		.word	37
 2971 0010 00200340 		.word	1073946624
 2972 0014 27000000 		.word	39
 2973 0018 00300340 		.word	1073950720
 2974 001c 33000000 		.word	51
 2975 0020 00400340 		.word	1073954816
 2976 0024 56000000 		.word	86
 2977 0028 00500340 		.word	1073958912
 2978 002c 6C000000 		.word	108
 2979 0030 00600340 		.word	1073963008
 2980 0034 6E000000 		.word	110
 2981 0038 00700340 		.word	1073967104
 2982 003c 70000000 		.word	112
 2983 0040 00C00440 		.word	1074053120
 2984 0044 72000000 		.word	114
 2985 0048 00D00440 		.word	1074057216
 2986 004c 74000000 		.word	116
 2987 0050 00E00440 		.word	1074061312
 2988 0054 76000000 		.word	118
 2989 0058 00F00440 		.word	1074065408
 2990 005c 78000000 		.word	120
 2991              		.section	.text.TimerIntNumberGet,"ax",%progbits
 2992              		.align	2
 2993              		.thumb
 2994              		.thumb_func
 2996              	TimerIntNumberGet:
 2997              	.LFB0:
   1:/home/cuil/workspace/arm/lm3s811/TI_Stellaris/driverlib/timer.c **** //*****************************************************************************
   2:/home/cuil/workspace/arm/lm3s811/TI_Stellaris/driverlib/timer.c **** //
   3:/home/cuil/workspace/arm/lm3s811/TI_Stellaris/driverlib/timer.c **** // timer.c - Driver for the timer module.
   4:/home/cuil/workspace/arm/lm3s811/TI_Stellaris/driverlib/timer.c **** //
   5:/home/cuil/workspace/arm/lm3s811/TI_Stellaris/driverlib/timer.c **** // Copyright (c) 2005-2011 Texas Instruments Incorporated.  All rights reserved.
   6:/home/cuil/workspace/arm/lm3s811/TI_Stellaris/driverlib/timer.c **** // Software License Agreement
   7:/home/cuil/workspace/arm/lm3s811/TI_Stellaris/driverlib/timer.c **** // 
   8:/home/cuil/workspace/arm/lm3s811/TI_Stellaris/driverlib/timer.c **** // Texas Instruments (TI) is supplying this software for use solely and
   9:/home/cuil/workspace/arm/lm3s811/TI_Stellaris/driverlib/timer.c **** // exclusively on TI's microcontroller products. The software is owned by
  10:/home/cuil/workspace/arm/lm3s811/TI_Stellaris/driverlib/timer.c **** // TI and/or its suppliers, and is protected under applicable copyright
  11:/home/cuil/workspace/arm/lm3s811/TI_Stellaris/driverlib/timer.c **** // laws. You may not combine this software with "viral" open-source
  12:/home/cuil/workspace/arm/lm3s811/TI_Stellaris/driverlib/timer.c **** // software in order to form a larger program.
  13:/home/cuil/workspace/arm/lm3s811/TI_Stellaris/driverlib/timer.c **** // 
  14:/home/cuil/workspace/arm/lm3s811/TI_Stellaris/driverlib/timer.c **** // THIS SOFTWARE IS PROVIDED "AS IS" AND WITH ALL FAULTS.
  15:/home/cuil/workspace/arm/lm3s811/TI_Stellaris/driverlib/timer.c **** // NO WARRANTIES, WHETHER EXPRESS, IMPLIED OR STATUTORY, INCLUDING, BUT
  16:/home/cuil/workspace/arm/lm3s811/TI_Stellaris/driverlib/timer.c **** // NOT LIMITED TO, IMPLIED WARRANTIES OF MERCHANTABILITY AND FITNESS FOR
  17:/home/cuil/workspace/arm/lm3s811/TI_Stellaris/driverlib/timer.c **** // A PARTICULAR PURPOSE APPLY TO THIS SOFTWARE. TI SHALL NOT, UNDER ANY
  18:/home/cuil/workspace/arm/lm3s811/TI_Stellaris/driverlib/timer.c **** // CIRCUMSTANCES, BE LIABLE FOR SPECIAL, INCIDENTAL, OR CONSEQUENTIAL
  19:/home/cuil/workspace/arm/lm3s811/TI_Stellaris/driverlib/timer.c **** // DAMAGES, FOR ANY REASON WHATSOEVER.
  20:/home/cuil/workspace/arm/lm3s811/TI_Stellaris/driverlib/timer.c **** // 
  21:/home/cuil/workspace/arm/lm3s811/TI_Stellaris/driverlib/timer.c **** // This is part of revision 8264 of the Stellaris Peripheral Driver Library.
  22:/home/cuil/workspace/arm/lm3s811/TI_Stellaris/driverlib/timer.c **** //
  23:/home/cuil/workspace/arm/lm3s811/TI_Stellaris/driverlib/timer.c **** //*****************************************************************************
  24:/home/cuil/workspace/arm/lm3s811/TI_Stellaris/driverlib/timer.c **** 
  25:/home/cuil/workspace/arm/lm3s811/TI_Stellaris/driverlib/timer.c **** //*****************************************************************************
  26:/home/cuil/workspace/arm/lm3s811/TI_Stellaris/driverlib/timer.c **** //
  27:/home/cuil/workspace/arm/lm3s811/TI_Stellaris/driverlib/timer.c **** //! \addtogroup timer_api
  28:/home/cuil/workspace/arm/lm3s811/TI_Stellaris/driverlib/timer.c **** //! @{
  29:/home/cuil/workspace/arm/lm3s811/TI_Stellaris/driverlib/timer.c **** //
  30:/home/cuil/workspace/arm/lm3s811/TI_Stellaris/driverlib/timer.c **** //*****************************************************************************
  31:/home/cuil/workspace/arm/lm3s811/TI_Stellaris/driverlib/timer.c **** 
  32:/home/cuil/workspace/arm/lm3s811/TI_Stellaris/driverlib/timer.c **** #include "inc/hw_ints.h"
  33:/home/cuil/workspace/arm/lm3s811/TI_Stellaris/driverlib/timer.c **** #include "inc/hw_memmap.h"
  34:/home/cuil/workspace/arm/lm3s811/TI_Stellaris/driverlib/timer.c **** #include "inc/hw_timer.h"
  35:/home/cuil/workspace/arm/lm3s811/TI_Stellaris/driverlib/timer.c **** #include "inc/hw_types.h"
  36:/home/cuil/workspace/arm/lm3s811/TI_Stellaris/driverlib/timer.c **** #include "driverlib/debug.h"
  37:/home/cuil/workspace/arm/lm3s811/TI_Stellaris/driverlib/timer.c **** #include "driverlib/interrupt.h"
  38:/home/cuil/workspace/arm/lm3s811/TI_Stellaris/driverlib/timer.c **** #include "driverlib/timer.h"
  39:/home/cuil/workspace/arm/lm3s811/TI_Stellaris/driverlib/timer.c **** 
  40:/home/cuil/workspace/arm/lm3s811/TI_Stellaris/driverlib/timer.c **** //*****************************************************************************
  41:/home/cuil/workspace/arm/lm3s811/TI_Stellaris/driverlib/timer.c **** //
  42:/home/cuil/workspace/arm/lm3s811/TI_Stellaris/driverlib/timer.c **** // A mapping of timer base address to interupt number.
  43:/home/cuil/workspace/arm/lm3s811/TI_Stellaris/driverlib/timer.c **** //
  44:/home/cuil/workspace/arm/lm3s811/TI_Stellaris/driverlib/timer.c **** //*****************************************************************************
  45:/home/cuil/workspace/arm/lm3s811/TI_Stellaris/driverlib/timer.c **** static const unsigned long g_ppulTimerIntMap[][2] =
  46:/home/cuil/workspace/arm/lm3s811/TI_Stellaris/driverlib/timer.c **** {
  47:/home/cuil/workspace/arm/lm3s811/TI_Stellaris/driverlib/timer.c ****     { TIMER0_BASE, INT_TIMER0A },
  48:/home/cuil/workspace/arm/lm3s811/TI_Stellaris/driverlib/timer.c ****     { TIMER1_BASE, INT_TIMER1A },
  49:/home/cuil/workspace/arm/lm3s811/TI_Stellaris/driverlib/timer.c ****     { TIMER2_BASE, INT_TIMER2A },
  50:/home/cuil/workspace/arm/lm3s811/TI_Stellaris/driverlib/timer.c ****     { TIMER3_BASE, INT_TIMER3A },
  51:/home/cuil/workspace/arm/lm3s811/TI_Stellaris/driverlib/timer.c ****     { TIMER4_BASE, INT_TIMER4A },
  52:/home/cuil/workspace/arm/lm3s811/TI_Stellaris/driverlib/timer.c ****     { TIMER5_BASE, INT_TIMER5A },
  53:/home/cuil/workspace/arm/lm3s811/TI_Stellaris/driverlib/timer.c ****     { WTIMER0_BASE, INT_WTIMER0A },
  54:/home/cuil/workspace/arm/lm3s811/TI_Stellaris/driverlib/timer.c ****     { WTIMER1_BASE, INT_WTIMER1A },
  55:/home/cuil/workspace/arm/lm3s811/TI_Stellaris/driverlib/timer.c ****     { WTIMER2_BASE, INT_WTIMER2A },
  56:/home/cuil/workspace/arm/lm3s811/TI_Stellaris/driverlib/timer.c ****     { WTIMER3_BASE, INT_WTIMER3A },
  57:/home/cuil/workspace/arm/lm3s811/TI_Stellaris/driverlib/timer.c ****     { WTIMER4_BASE, INT_WTIMER4A },
  58:/home/cuil/workspace/arm/lm3s811/TI_Stellaris/driverlib/timer.c ****     { WTIMER5_BASE, INT_WTIMER5A },
  59:/home/cuil/workspace/arm/lm3s811/TI_Stellaris/driverlib/timer.c **** };
  60:/home/cuil/workspace/arm/lm3s811/TI_Stellaris/driverlib/timer.c **** 
  61:/home/cuil/workspace/arm/lm3s811/TI_Stellaris/driverlib/timer.c **** //*****************************************************************************
  62:/home/cuil/workspace/arm/lm3s811/TI_Stellaris/driverlib/timer.c **** //
  63:/home/cuil/workspace/arm/lm3s811/TI_Stellaris/driverlib/timer.c **** //! \internal
  64:/home/cuil/workspace/arm/lm3s811/TI_Stellaris/driverlib/timer.c **** //! Checks a timer base address.
  65:/home/cuil/workspace/arm/lm3s811/TI_Stellaris/driverlib/timer.c **** //!
  66:/home/cuil/workspace/arm/lm3s811/TI_Stellaris/driverlib/timer.c **** //! \param ulBase is the base address of the timer module.
  67:/home/cuil/workspace/arm/lm3s811/TI_Stellaris/driverlib/timer.c **** //!
  68:/home/cuil/workspace/arm/lm3s811/TI_Stellaris/driverlib/timer.c **** //! This function determines if a timer module base address is valid.
  69:/home/cuil/workspace/arm/lm3s811/TI_Stellaris/driverlib/timer.c **** //!
  70:/home/cuil/workspace/arm/lm3s811/TI_Stellaris/driverlib/timer.c **** //! \return Returns \b true if the base address is valid and \b false
  71:/home/cuil/workspace/arm/lm3s811/TI_Stellaris/driverlib/timer.c **** //! otherwise.
  72:/home/cuil/workspace/arm/lm3s811/TI_Stellaris/driverlib/timer.c **** //
  73:/home/cuil/workspace/arm/lm3s811/TI_Stellaris/driverlib/timer.c **** //*****************************************************************************
  74:/home/cuil/workspace/arm/lm3s811/TI_Stellaris/driverlib/timer.c **** #ifdef DEBUG
  75:/home/cuil/workspace/arm/lm3s811/TI_Stellaris/driverlib/timer.c **** static tBoolean
  76:/home/cuil/workspace/arm/lm3s811/TI_Stellaris/driverlib/timer.c **** TimerBaseValid(unsigned long ulBase)
  77:/home/cuil/workspace/arm/lm3s811/TI_Stellaris/driverlib/timer.c **** {
  78:/home/cuil/workspace/arm/lm3s811/TI_Stellaris/driverlib/timer.c ****     return((ulBase == TIMER0_BASE) || (ulBase == TIMER1_BASE) ||
  79:/home/cuil/workspace/arm/lm3s811/TI_Stellaris/driverlib/timer.c ****            (ulBase == TIMER2_BASE) || (ulBase == TIMER3_BASE) ||
  80:/home/cuil/workspace/arm/lm3s811/TI_Stellaris/driverlib/timer.c ****            (ulBase == TIMER4_BASE) || (ulBase == TIMER5_BASE) ||
  81:/home/cuil/workspace/arm/lm3s811/TI_Stellaris/driverlib/timer.c ****            (ulBase == WTIMER0_BASE) || (ulBase == WTIMER1_BASE) ||
  82:/home/cuil/workspace/arm/lm3s811/TI_Stellaris/driverlib/timer.c ****            (ulBase == WTIMER2_BASE) || (ulBase == WTIMER3_BASE) ||
  83:/home/cuil/workspace/arm/lm3s811/TI_Stellaris/driverlib/timer.c ****            (ulBase == WTIMER4_BASE) || (ulBase == WTIMER5_BASE));
  84:/home/cuil/workspace/arm/lm3s811/TI_Stellaris/driverlib/timer.c **** }
  85:/home/cuil/workspace/arm/lm3s811/TI_Stellaris/driverlib/timer.c **** #endif
  86:/home/cuil/workspace/arm/lm3s811/TI_Stellaris/driverlib/timer.c **** 
  87:/home/cuil/workspace/arm/lm3s811/TI_Stellaris/driverlib/timer.c **** //*****************************************************************************
  88:/home/cuil/workspace/arm/lm3s811/TI_Stellaris/driverlib/timer.c **** //
  89:/home/cuil/workspace/arm/lm3s811/TI_Stellaris/driverlib/timer.c **** //! \internal
  90:/home/cuil/workspace/arm/lm3s811/TI_Stellaris/driverlib/timer.c **** //! Gets the timer interrupt number.
  91:/home/cuil/workspace/arm/lm3s811/TI_Stellaris/driverlib/timer.c **** //!
  92:/home/cuil/workspace/arm/lm3s811/TI_Stellaris/driverlib/timer.c **** //! \param ulBase is the base address of the timer module.
  93:/home/cuil/workspace/arm/lm3s811/TI_Stellaris/driverlib/timer.c **** //!
  94:/home/cuil/workspace/arm/lm3s811/TI_Stellaris/driverlib/timer.c **** //! Given a timer base address, this function returns the corresponding 
  95:/home/cuil/workspace/arm/lm3s811/TI_Stellaris/driverlib/timer.c **** //! interrupt number.
  96:/home/cuil/workspace/arm/lm3s811/TI_Stellaris/driverlib/timer.c **** //!
  97:/home/cuil/workspace/arm/lm3s811/TI_Stellaris/driverlib/timer.c **** //! \return Returns a timer interrupt number, or -1 if \e ulBase is invalid.
  98:/home/cuil/workspace/arm/lm3s811/TI_Stellaris/driverlib/timer.c **** //
  99:/home/cuil/workspace/arm/lm3s811/TI_Stellaris/driverlib/timer.c **** //*****************************************************************************
 100:/home/cuil/workspace/arm/lm3s811/TI_Stellaris/driverlib/timer.c **** static long
 101:/home/cuil/workspace/arm/lm3s811/TI_Stellaris/driverlib/timer.c **** TimerIntNumberGet(unsigned long ulBase)
 102:/home/cuil/workspace/arm/lm3s811/TI_Stellaris/driverlib/timer.c **** {
 2998              		.loc 1 102 0
 2999              		.cfi_startproc
 3000              		@ args = 0, pretend = 0, frame = 16
 3001              		@ frame_needed = 1, uses_anonymous_args = 0
 3002              		@ link register save eliminated.
 3003 0000 80B4     		push	{r7}
 3004              	.LCFI0:
 3005              		.cfi_def_cfa_offset 4
 3006 0002 85B0     		sub	sp, sp, #20
 3007              	.LCFI1:
 3008              		.cfi_def_cfa_offset 24
 3009 0004 00AF     		add	r7, sp, #0
 3010              		.cfi_offset 7, -4
 3011              	.LCFI2:
 3012              		.cfi_def_cfa_register 7
 3013 0006 7860     		str	r0, [r7, #4]
 103:/home/cuil/workspace/arm/lm3s811/TI_Stellaris/driverlib/timer.c ****     unsigned long ulIdx;
 104:/home/cuil/workspace/arm/lm3s811/TI_Stellaris/driverlib/timer.c **** 
 105:/home/cuil/workspace/arm/lm3s811/TI_Stellaris/driverlib/timer.c ****     //
 106:/home/cuil/workspace/arm/lm3s811/TI_Stellaris/driverlib/timer.c ****     // Loop through the table that maps timer base addresses to interrupt
 107:/home/cuil/workspace/arm/lm3s811/TI_Stellaris/driverlib/timer.c ****     // numbers.
 108:/home/cuil/workspace/arm/lm3s811/TI_Stellaris/driverlib/timer.c ****     //
 109:/home/cuil/workspace/arm/lm3s811/TI_Stellaris/driverlib/timer.c ****     for(ulIdx = 0; ulIdx < (sizeof(g_ppulTimerIntMap) /
 3014              		.loc 1 109 0
 3015 0008 4FF00003 		mov	r3, #0
 3016 000c FB60     		str	r3, [r7, #12]
 3017 000e 11E0     		b	.L2
 3018              	.L5:
 110:/home/cuil/workspace/arm/lm3s811/TI_Stellaris/driverlib/timer.c ****                             sizeof(g_ppulTimerIntMap[0])); ulIdx++)
 111:/home/cuil/workspace/arm/lm3s811/TI_Stellaris/driverlib/timer.c ****     {
 112:/home/cuil/workspace/arm/lm3s811/TI_Stellaris/driverlib/timer.c ****         //
 113:/home/cuil/workspace/arm/lm3s811/TI_Stellaris/driverlib/timer.c ****         // See if this base address matches.
 114:/home/cuil/workspace/arm/lm3s811/TI_Stellaris/driverlib/timer.c ****         //
 115:/home/cuil/workspace/arm/lm3s811/TI_Stellaris/driverlib/timer.c ****         if(g_ppulTimerIntMap[ulIdx][0] == ulBase)
 3019              		.loc 1 115 0
 3020 0010 0E4B     		ldr	r3, .L6
 3021 0012 FA68     		ldr	r2, [r7, #12]
 3022 0014 53F83220 		ldr	r2, [r3, r2, lsl #3]
 3023 0018 7B68     		ldr	r3, [r7, #4]
 3024 001a 9A42     		cmp	r2, r3
 3025 001c 06D1     		bne	.L3
 116:/home/cuil/workspace/arm/lm3s811/TI_Stellaris/driverlib/timer.c ****         {
 117:/home/cuil/workspace/arm/lm3s811/TI_Stellaris/driverlib/timer.c ****             //
 118:/home/cuil/workspace/arm/lm3s811/TI_Stellaris/driverlib/timer.c ****             // Return the corresponding interrupt number.
 119:/home/cuil/workspace/arm/lm3s811/TI_Stellaris/driverlib/timer.c ****             //
 120:/home/cuil/workspace/arm/lm3s811/TI_Stellaris/driverlib/timer.c ****             return(g_ppulTimerIntMap[ulIdx][1]);
 3026              		.loc 1 120 0
 3027 001e 0B4A     		ldr	r2, .L6
 3028 0020 FB68     		ldr	r3, [r7, #12]
 3029 0022 4FEAC303 		lsl	r3, r3, #3
 3030 0026 D318     		adds	r3, r2, r3
 3031 0028 5B68     		ldr	r3, [r3, #4]
 3032 002a 08E0     		b	.L4
 3033              	.L3:
 110:/home/cuil/workspace/arm/lm3s811/TI_Stellaris/driverlib/timer.c ****                             sizeof(g_ppulTimerIntMap[0])); ulIdx++)
 3034              		.loc 1 110 0
 3035 002c FB68     		ldr	r3, [r7, #12]
 3036 002e 03F10103 		add	r3, r3, #1
 3037 0032 FB60     		str	r3, [r7, #12]
 3038              	.L2:
 109:/home/cuil/workspace/arm/lm3s811/TI_Stellaris/driverlib/timer.c ****     for(ulIdx = 0; ulIdx < (sizeof(g_ppulTimerIntMap) /
 3039              		.loc 1 109 0 discriminator 1
 3040 0034 FB68     		ldr	r3, [r7, #12]
 3041 0036 0B2B     		cmp	r3, #11
 3042 0038 EAD9     		bls	.L5
 121:/home/cuil/workspace/arm/lm3s811/TI_Stellaris/driverlib/timer.c ****         }
 122:/home/cuil/workspace/arm/lm3s811/TI_Stellaris/driverlib/timer.c ****     }
 123:/home/cuil/workspace/arm/lm3s811/TI_Stellaris/driverlib/timer.c **** 
 124:/home/cuil/workspace/arm/lm3s811/TI_Stellaris/driverlib/timer.c ****     //
 125:/home/cuil/workspace/arm/lm3s811/TI_Stellaris/driverlib/timer.c ****     // The base address could not be found, so return an error.
 126:/home/cuil/workspace/arm/lm3s811/TI_Stellaris/driverlib/timer.c ****     //
 127:/home/cuil/workspace/arm/lm3s811/TI_Stellaris/driverlib/timer.c ****     return(-1);
 3043              		.loc 1 127 0
 3044 003a 4FF0FF33 		mov	r3, #-1
 3045              	.L4:
 128:/home/cuil/workspace/arm/lm3s811/TI_Stellaris/driverlib/timer.c **** }
 3046              		.loc 1 128 0
 3047 003e 1846     		mov	r0, r3
 3048 0040 07F11407 		add	r7, r7, #20
 3049 0044 BD46     		mov	sp, r7
 3050 0046 80BC     		pop	{r7}
 3051 0048 7047     		bx	lr
 3052              	.L7:
 3053 004a 00BF     		.align	2
 3054              	.L6:
 3055 004c 00000000 		.word	g_ppulTimerIntMap
 3056              		.cfi_endproc
 3057              	.LFE0:
 3059              		.section	.text.TimerEnable,"ax",%progbits
 3060              		.align	2
 3061              		.global	TimerEnable
 3062              		.thumb
 3063              		.thumb_func
 3065              	TimerEnable:
 3066              	.LFB1:
 129:/home/cuil/workspace/arm/lm3s811/TI_Stellaris/driverlib/timer.c **** 
 130:/home/cuil/workspace/arm/lm3s811/TI_Stellaris/driverlib/timer.c **** //*****************************************************************************
 131:/home/cuil/workspace/arm/lm3s811/TI_Stellaris/driverlib/timer.c **** //
 132:/home/cuil/workspace/arm/lm3s811/TI_Stellaris/driverlib/timer.c **** //! Enables the timer(s).
 133:/home/cuil/workspace/arm/lm3s811/TI_Stellaris/driverlib/timer.c **** //!
 134:/home/cuil/workspace/arm/lm3s811/TI_Stellaris/driverlib/timer.c **** //! \param ulBase is the base address of the timer module.
 135:/home/cuil/workspace/arm/lm3s811/TI_Stellaris/driverlib/timer.c **** //! \param ulTimer specifies the timer(s) to enable; must be one of \b TIMER_A,
 136:/home/cuil/workspace/arm/lm3s811/TI_Stellaris/driverlib/timer.c **** //! \b TIMER_B, or \b TIMER_BOTH.
 137:/home/cuil/workspace/arm/lm3s811/TI_Stellaris/driverlib/timer.c **** //!
 138:/home/cuil/workspace/arm/lm3s811/TI_Stellaris/driverlib/timer.c **** //! This function enables operation of the timer module.  The timer must be
 139:/home/cuil/workspace/arm/lm3s811/TI_Stellaris/driverlib/timer.c **** //! configured before it is enabled.
 140:/home/cuil/workspace/arm/lm3s811/TI_Stellaris/driverlib/timer.c **** //!
 141:/home/cuil/workspace/arm/lm3s811/TI_Stellaris/driverlib/timer.c **** //! \return None.
 142:/home/cuil/workspace/arm/lm3s811/TI_Stellaris/driverlib/timer.c **** //
 143:/home/cuil/workspace/arm/lm3s811/TI_Stellaris/driverlib/timer.c **** //*****************************************************************************
 144:/home/cuil/workspace/arm/lm3s811/TI_Stellaris/driverlib/timer.c **** void
 145:/home/cuil/workspace/arm/lm3s811/TI_Stellaris/driverlib/timer.c **** TimerEnable(unsigned long ulBase, unsigned long ulTimer)
 146:/home/cuil/workspace/arm/lm3s811/TI_Stellaris/driverlib/timer.c **** {
 3067              		.loc 1 146 0
 3068              		.cfi_startproc
 3069              		@ args = 0, pretend = 0, frame = 8
 3070              		@ frame_needed = 1, uses_anonymous_args = 0
 3071              		@ link register save eliminated.
 3072 0000 80B4     		push	{r7}
 3073              	.LCFI3:
 3074              		.cfi_def_cfa_offset 4
 3075 0002 83B0     		sub	sp, sp, #12
 3076              	.LCFI4:
 3077              		.cfi_def_cfa_offset 16
 3078 0004 00AF     		add	r7, sp, #0
 3079              		.cfi_offset 7, -4
 3080              	.LCFI5:
 3081              		.cfi_def_cfa_register 7
 3082 0006 7860     		str	r0, [r7, #4]
 3083 0008 3960     		str	r1, [r7, #0]
 147:/home/cuil/workspace/arm/lm3s811/TI_Stellaris/driverlib/timer.c ****     //
 148:/home/cuil/workspace/arm/lm3s811/TI_Stellaris/driverlib/timer.c ****     // Check the arguments.
 149:/home/cuil/workspace/arm/lm3s811/TI_Stellaris/driverlib/timer.c ****     //
 150:/home/cuil/workspace/arm/lm3s811/TI_Stellaris/driverlib/timer.c ****     ASSERT(TimerBaseValid(ulBase));
 151:/home/cuil/workspace/arm/lm3s811/TI_Stellaris/driverlib/timer.c ****     ASSERT((ulTimer == TIMER_A) || (ulTimer == TIMER_B) ||
 152:/home/cuil/workspace/arm/lm3s811/TI_Stellaris/driverlib/timer.c ****            (ulTimer == TIMER_BOTH));
 153:/home/cuil/workspace/arm/lm3s811/TI_Stellaris/driverlib/timer.c **** 
 154:/home/cuil/workspace/arm/lm3s811/TI_Stellaris/driverlib/timer.c ****     //
 155:/home/cuil/workspace/arm/lm3s811/TI_Stellaris/driverlib/timer.c ****     // Enable the timer(s) module.
 156:/home/cuil/workspace/arm/lm3s811/TI_Stellaris/driverlib/timer.c ****     //
 157:/home/cuil/workspace/arm/lm3s811/TI_Stellaris/driverlib/timer.c ****     HWREG(ulBase + TIMER_O_CTL) |= ulTimer & (TIMER_CTL_TAEN | TIMER_CTL_TBEN);
 3084              		.loc 1 157 0
 3085 000a 7B68     		ldr	r3, [r7, #4]
 3086 000c 03F10C03 		add	r3, r3, #12
 3087 0010 1A46     		mov	r2, r3
 3088 0012 7B68     		ldr	r3, [r7, #4]
 3089 0014 03F10C03 		add	r3, r3, #12
 3090 0018 1968     		ldr	r1, [r3, #0]
 3091 001a 3868     		ldr	r0, [r7, #0]
 3092 001c 40F20113 		movw	r3, #257
 3093 0020 00EA0303 		and	r3, r0, r3
 3094 0024 41EA0303 		orr	r3, r1, r3
 3095 0028 1360     		str	r3, [r2, #0]
 158:/home/cuil/workspace/arm/lm3s811/TI_Stellaris/driverlib/timer.c **** }
 3096              		.loc 1 158 0
 3097 002a 07F10C07 		add	r7, r7, #12
 3098 002e BD46     		mov	sp, r7
 3099 0030 80BC     		pop	{r7}
 3100 0032 7047     		bx	lr
 3101              		.cfi_endproc
 3102              	.LFE1:
 3104              		.section	.text.TimerDisable,"ax",%progbits
 3105              		.align	2
 3106              		.global	TimerDisable
 3107              		.thumb
 3108              		.thumb_func
 3110              	TimerDisable:
 3111              	.LFB2:
 159:/home/cuil/workspace/arm/lm3s811/TI_Stellaris/driverlib/timer.c **** 
 160:/home/cuil/workspace/arm/lm3s811/TI_Stellaris/driverlib/timer.c **** //*****************************************************************************
 161:/home/cuil/workspace/arm/lm3s811/TI_Stellaris/driverlib/timer.c **** //
 162:/home/cuil/workspace/arm/lm3s811/TI_Stellaris/driverlib/timer.c **** //! Disables the timer(s).
 163:/home/cuil/workspace/arm/lm3s811/TI_Stellaris/driverlib/timer.c **** //!
 164:/home/cuil/workspace/arm/lm3s811/TI_Stellaris/driverlib/timer.c **** //! \param ulBase is the base address of the timer module.
 165:/home/cuil/workspace/arm/lm3s811/TI_Stellaris/driverlib/timer.c **** //! \param ulTimer specifies the timer(s) to disable; must be one of
 166:/home/cuil/workspace/arm/lm3s811/TI_Stellaris/driverlib/timer.c **** //! \b TIMER_A, \b TIMER_B, or \b TIMER_BOTH.
 167:/home/cuil/workspace/arm/lm3s811/TI_Stellaris/driverlib/timer.c **** //!
 168:/home/cuil/workspace/arm/lm3s811/TI_Stellaris/driverlib/timer.c **** //! This function disables operation of the timer module.
 169:/home/cuil/workspace/arm/lm3s811/TI_Stellaris/driverlib/timer.c **** //!
 170:/home/cuil/workspace/arm/lm3s811/TI_Stellaris/driverlib/timer.c **** //! \return None.
 171:/home/cuil/workspace/arm/lm3s811/TI_Stellaris/driverlib/timer.c **** //
 172:/home/cuil/workspace/arm/lm3s811/TI_Stellaris/driverlib/timer.c **** //*****************************************************************************
 173:/home/cuil/workspace/arm/lm3s811/TI_Stellaris/driverlib/timer.c **** void
 174:/home/cuil/workspace/arm/lm3s811/TI_Stellaris/driverlib/timer.c **** TimerDisable(unsigned long ulBase, unsigned long ulTimer)
 175:/home/cuil/workspace/arm/lm3s811/TI_Stellaris/driverlib/timer.c **** {
 3112              		.loc 1 175 0
 3113              		.cfi_startproc
 3114              		@ args = 0, pretend = 0, frame = 8
 3115              		@ frame_needed = 1, uses_anonymous_args = 0
 3116              		@ link register save eliminated.
 3117 0000 80B4     		push	{r7}
 3118              	.LCFI6:
 3119              		.cfi_def_cfa_offset 4
 3120 0002 83B0     		sub	sp, sp, #12
 3121              	.LCFI7:
 3122              		.cfi_def_cfa_offset 16
 3123 0004 00AF     		add	r7, sp, #0
 3124              		.cfi_offset 7, -4
 3125              	.LCFI8:
 3126              		.cfi_def_cfa_register 7
 3127 0006 7860     		str	r0, [r7, #4]
 3128 0008 3960     		str	r1, [r7, #0]
 176:/home/cuil/workspace/arm/lm3s811/TI_Stellaris/driverlib/timer.c ****     //
 177:/home/cuil/workspace/arm/lm3s811/TI_Stellaris/driverlib/timer.c ****     // Check the arguments.
 178:/home/cuil/workspace/arm/lm3s811/TI_Stellaris/driverlib/timer.c ****     //
 179:/home/cuil/workspace/arm/lm3s811/TI_Stellaris/driverlib/timer.c ****     ASSERT(TimerBaseValid(ulBase));
 180:/home/cuil/workspace/arm/lm3s811/TI_Stellaris/driverlib/timer.c ****     ASSERT((ulTimer == TIMER_A) || (ulTimer == TIMER_B) ||
 181:/home/cuil/workspace/arm/lm3s811/TI_Stellaris/driverlib/timer.c ****            (ulTimer == TIMER_BOTH));
 182:/home/cuil/workspace/arm/lm3s811/TI_Stellaris/driverlib/timer.c **** 
 183:/home/cuil/workspace/arm/lm3s811/TI_Stellaris/driverlib/timer.c ****     //
 184:/home/cuil/workspace/arm/lm3s811/TI_Stellaris/driverlib/timer.c ****     // Disable the timer module.
 185:/home/cuil/workspace/arm/lm3s811/TI_Stellaris/driverlib/timer.c ****     //
 186:/home/cuil/workspace/arm/lm3s811/TI_Stellaris/driverlib/timer.c ****     HWREG(ulBase + TIMER_O_CTL) &= ~(ulTimer &
 3129              		.loc 1 186 0
 3130 000a 7B68     		ldr	r3, [r7, #4]
 3131 000c 03F10C03 		add	r3, r3, #12
 3132 0010 1A46     		mov	r2, r3
 3133 0012 7B68     		ldr	r3, [r7, #4]
 3134 0014 03F10C03 		add	r3, r3, #12
 3135 0018 1968     		ldr	r1, [r3, #0]
 3136 001a 3868     		ldr	r0, [r7, #0]
 3137 001c 40F20113 		movw	r3, #257
 3138 0020 00EA0303 		and	r3, r0, r3
 3139 0024 6FEA0303 		mvn	r3, r3
 3140 0028 01EA0303 		and	r3, r1, r3
 3141 002c 1360     		str	r3, [r2, #0]
 187:/home/cuil/workspace/arm/lm3s811/TI_Stellaris/driverlib/timer.c ****                                      (TIMER_CTL_TAEN | TIMER_CTL_TBEN));
 188:/home/cuil/workspace/arm/lm3s811/TI_Stellaris/driverlib/timer.c **** }
 3142              		.loc 1 188 0
 3143 002e 07F10C07 		add	r7, r7, #12
 3144 0032 BD46     		mov	sp, r7
 3145 0034 80BC     		pop	{r7}
 3146 0036 7047     		bx	lr
 3147              		.cfi_endproc
 3148              	.LFE2:
 3150              		.section	.text.TimerConfigure,"ax",%progbits
 3151              		.align	2
 3152              		.global	TimerConfigure
 3153              		.thumb
 3154              		.thumb_func
 3156              	TimerConfigure:
 3157              	.LFB3:
 189:/home/cuil/workspace/arm/lm3s811/TI_Stellaris/driverlib/timer.c **** 
 190:/home/cuil/workspace/arm/lm3s811/TI_Stellaris/driverlib/timer.c **** //*****************************************************************************
 191:/home/cuil/workspace/arm/lm3s811/TI_Stellaris/driverlib/timer.c **** //
 192:/home/cuil/workspace/arm/lm3s811/TI_Stellaris/driverlib/timer.c **** //! Configures the timer(s).
 193:/home/cuil/workspace/arm/lm3s811/TI_Stellaris/driverlib/timer.c **** //!
 194:/home/cuil/workspace/arm/lm3s811/TI_Stellaris/driverlib/timer.c **** //! \param ulBase is the base address of the timer module.
 195:/home/cuil/workspace/arm/lm3s811/TI_Stellaris/driverlib/timer.c **** //! \param ulConfig is the configuration for the timer.
 196:/home/cuil/workspace/arm/lm3s811/TI_Stellaris/driverlib/timer.c **** //!
 197:/home/cuil/workspace/arm/lm3s811/TI_Stellaris/driverlib/timer.c **** //! This function configures the operating mode of the timer(s).  The timer
 198:/home/cuil/workspace/arm/lm3s811/TI_Stellaris/driverlib/timer.c **** //! module is disabled before being configured and is left in the disabled
 199:/home/cuil/workspace/arm/lm3s811/TI_Stellaris/driverlib/timer.c **** //! state.  There are two types of timers; a 16/32-bit variety and a 32/64-bit
 200:/home/cuil/workspace/arm/lm3s811/TI_Stellaris/driverlib/timer.c **** //! variety.  The 16/32-bit variety is comprised of two 16-bit timers that can
 201:/home/cuil/workspace/arm/lm3s811/TI_Stellaris/driverlib/timer.c **** //! operate independently or be concatenated to form a 32-bit timer.
 202:/home/cuil/workspace/arm/lm3s811/TI_Stellaris/driverlib/timer.c **** //! Similarly, the 32/64-bit variety is comprised of two 32-bit timers that can
 203:/home/cuil/workspace/arm/lm3s811/TI_Stellaris/driverlib/timer.c **** //! operate independently or be concatenated to form a 64-bit timer.
 204:/home/cuil/workspace/arm/lm3s811/TI_Stellaris/driverlib/timer.c **** //!
 205:/home/cuil/workspace/arm/lm3s811/TI_Stellaris/driverlib/timer.c **** //! The configuration is specified in \e ulConfig as one of the following
 206:/home/cuil/workspace/arm/lm3s811/TI_Stellaris/driverlib/timer.c **** //! values:
 207:/home/cuil/workspace/arm/lm3s811/TI_Stellaris/driverlib/timer.c **** //!
 208:/home/cuil/workspace/arm/lm3s811/TI_Stellaris/driverlib/timer.c **** //! - \b TIMER_CFG_ONE_SHOT - Full-width one-shot timer
 209:/home/cuil/workspace/arm/lm3s811/TI_Stellaris/driverlib/timer.c **** //! - \b TIMER_CFG_ONE_SHOT_UP - Full-width one-shot timer that counts up
 210:/home/cuil/workspace/arm/lm3s811/TI_Stellaris/driverlib/timer.c **** //!   instead of down (not available on all parts)
 211:/home/cuil/workspace/arm/lm3s811/TI_Stellaris/driverlib/timer.c **** //! - \b TIMER_CFG_PERIODIC - Full-width periodic timer
 212:/home/cuil/workspace/arm/lm3s811/TI_Stellaris/driverlib/timer.c **** //! - \b TIMER_CFG_PERIODIC_UP - Full-width periodic timer that counts up
 213:/home/cuil/workspace/arm/lm3s811/TI_Stellaris/driverlib/timer.c **** //!   instead of down (not available on all parts)
 214:/home/cuil/workspace/arm/lm3s811/TI_Stellaris/driverlib/timer.c **** //! - \b TIMER_CFG_RTC - Full-width real time clock timer
 215:/home/cuil/workspace/arm/lm3s811/TI_Stellaris/driverlib/timer.c **** //! - \b TIMER_CFG_SPLIT_PAIR - Two half-width timers
 216:/home/cuil/workspace/arm/lm3s811/TI_Stellaris/driverlib/timer.c **** //!
 217:/home/cuil/workspace/arm/lm3s811/TI_Stellaris/driverlib/timer.c **** //! When configured for a pair of half-width timers, each timer is separately
 218:/home/cuil/workspace/arm/lm3s811/TI_Stellaris/driverlib/timer.c **** //! configured.  The first timer is configured by setting \e ulConfig to
 219:/home/cuil/workspace/arm/lm3s811/TI_Stellaris/driverlib/timer.c **** //! the result of a logical OR operation between one of the following values
 220:/home/cuil/workspace/arm/lm3s811/TI_Stellaris/driverlib/timer.c **** //! and \e ulConfig:
 221:/home/cuil/workspace/arm/lm3s811/TI_Stellaris/driverlib/timer.c **** //!
 222:/home/cuil/workspace/arm/lm3s811/TI_Stellaris/driverlib/timer.c **** //! - \b TIMER_CFG_A_ONE_SHOT - Half-width one-shot timer
 223:/home/cuil/workspace/arm/lm3s811/TI_Stellaris/driverlib/timer.c **** //! - \b TIMER_CFG_A_ONE_SHOT_UP - Half-width one-shot timer that counts up
 224:/home/cuil/workspace/arm/lm3s811/TI_Stellaris/driverlib/timer.c **** //!   instead of down (not available on all parts)
 225:/home/cuil/workspace/arm/lm3s811/TI_Stellaris/driverlib/timer.c **** //! - \b TIMER_CFG_A_PERIODIC - Half-width periodic timer
 226:/home/cuil/workspace/arm/lm3s811/TI_Stellaris/driverlib/timer.c **** //! - \b TIMER_CFG_A_PERIODIC_UP - Half-width periodic timer that counts up
 227:/home/cuil/workspace/arm/lm3s811/TI_Stellaris/driverlib/timer.c **** //!   instead of down (not available on all parts)
 228:/home/cuil/workspace/arm/lm3s811/TI_Stellaris/driverlib/timer.c **** //! - \b TIMER_CFG_A_CAP_COUNT - Half-width edge count capture
 229:/home/cuil/workspace/arm/lm3s811/TI_Stellaris/driverlib/timer.c **** //! - \b TIMER_CFG_A_CAP_COUNT_UP - Half-width edge count capture that counts
 230:/home/cuil/workspace/arm/lm3s811/TI_Stellaris/driverlib/timer.c **** //!   up instead of down (not available on all parts)
 231:/home/cuil/workspace/arm/lm3s811/TI_Stellaris/driverlib/timer.c **** //! - \b TIMER_CFG_A_CAP_TIME - Half-width edge time capture
 232:/home/cuil/workspace/arm/lm3s811/TI_Stellaris/driverlib/timer.c **** //! - \b TIMER_CFG_A_CAP_TIME_UP - Half-width edge time capture that counts up
 233:/home/cuil/workspace/arm/lm3s811/TI_Stellaris/driverlib/timer.c **** //!   instead of down (not available on all parts)
 234:/home/cuil/workspace/arm/lm3s811/TI_Stellaris/driverlib/timer.c **** //! - \b TIMER_CFG_A_PWM- Half-width PWM output
 235:/home/cuil/workspace/arm/lm3s811/TI_Stellaris/driverlib/timer.c **** //!
 236:/home/cuil/workspace/arm/lm3s811/TI_Stellaris/driverlib/timer.c **** //! Similarly, the second timer is configured by setting \e ulConfig to
 237:/home/cuil/workspace/arm/lm3s811/TI_Stellaris/driverlib/timer.c **** //! the result of a logical OR operation between one of the corresponding
 238:/home/cuil/workspace/arm/lm3s811/TI_Stellaris/driverlib/timer.c **** //! \b TIMER_CFG_B_* values and \e ulConfig.
 239:/home/cuil/workspace/arm/lm3s811/TI_Stellaris/driverlib/timer.c **** //!
 240:/home/cuil/workspace/arm/lm3s811/TI_Stellaris/driverlib/timer.c **** //! \return None.
 241:/home/cuil/workspace/arm/lm3s811/TI_Stellaris/driverlib/timer.c **** //
 242:/home/cuil/workspace/arm/lm3s811/TI_Stellaris/driverlib/timer.c **** //*****************************************************************************
 243:/home/cuil/workspace/arm/lm3s811/TI_Stellaris/driverlib/timer.c **** void
 244:/home/cuil/workspace/arm/lm3s811/TI_Stellaris/driverlib/timer.c **** TimerConfigure(unsigned long ulBase, unsigned long ulConfig)
 245:/home/cuil/workspace/arm/lm3s811/TI_Stellaris/driverlib/timer.c **** {
 3158              		.loc 1 245 0
 3159              		.cfi_startproc
 3160              		@ args = 0, pretend = 0, frame = 8
 3161              		@ frame_needed = 1, uses_anonymous_args = 0
 3162              		@ link register save eliminated.
 3163 0000 80B4     		push	{r7}
 3164              	.LCFI9:
 3165              		.cfi_def_cfa_offset 4
 3166 0002 83B0     		sub	sp, sp, #12
 3167              	.LCFI10:
 3168              		.cfi_def_cfa_offset 16
 3169 0004 00AF     		add	r7, sp, #0
 3170              		.cfi_offset 7, -4
 3171              	.LCFI11:
 3172              		.cfi_def_cfa_register 7
 3173 0006 7860     		str	r0, [r7, #4]
 3174 0008 3960     		str	r1, [r7, #0]
 246:/home/cuil/workspace/arm/lm3s811/TI_Stellaris/driverlib/timer.c ****     //
 247:/home/cuil/workspace/arm/lm3s811/TI_Stellaris/driverlib/timer.c ****     // Check the arguments.
 248:/home/cuil/workspace/arm/lm3s811/TI_Stellaris/driverlib/timer.c ****     //
 249:/home/cuil/workspace/arm/lm3s811/TI_Stellaris/driverlib/timer.c ****     ASSERT(TimerBaseValid(ulBase));
 250:/home/cuil/workspace/arm/lm3s811/TI_Stellaris/driverlib/timer.c ****     ASSERT((ulConfig == TIMER_CFG_ONE_SHOT) ||
 251:/home/cuil/workspace/arm/lm3s811/TI_Stellaris/driverlib/timer.c ****            (ulConfig == TIMER_CFG_ONE_SHOT_UP) ||
 252:/home/cuil/workspace/arm/lm3s811/TI_Stellaris/driverlib/timer.c ****            (ulConfig == TIMER_CFG_PERIODIC) ||
 253:/home/cuil/workspace/arm/lm3s811/TI_Stellaris/driverlib/timer.c ****            (ulConfig == TIMER_CFG_PERIODIC_UP) ||
 254:/home/cuil/workspace/arm/lm3s811/TI_Stellaris/driverlib/timer.c ****            (ulConfig == TIMER_CFG_RTC) ||
 255:/home/cuil/workspace/arm/lm3s811/TI_Stellaris/driverlib/timer.c ****            ((ulConfig & 0xff000000) == TIMER_CFG_SPLIT_PAIR));
 256:/home/cuil/workspace/arm/lm3s811/TI_Stellaris/driverlib/timer.c ****     ASSERT(((ulConfig & 0xff000000) != TIMER_CFG_SPLIT_PAIR) ||
 257:/home/cuil/workspace/arm/lm3s811/TI_Stellaris/driverlib/timer.c ****            ((((ulConfig & 0x000000ff) == TIMER_CFG_A_ONE_SHOT) ||
 258:/home/cuil/workspace/arm/lm3s811/TI_Stellaris/driverlib/timer.c ****              ((ulConfig & 0x000000ff) == TIMER_CFG_A_ONE_SHOT_UP) ||
 259:/home/cuil/workspace/arm/lm3s811/TI_Stellaris/driverlib/timer.c ****              ((ulConfig & 0x000000ff) == TIMER_CFG_A_PERIODIC) ||
 260:/home/cuil/workspace/arm/lm3s811/TI_Stellaris/driverlib/timer.c ****              ((ulConfig & 0x000000ff) == TIMER_CFG_A_PERIODIC_UP) ||
 261:/home/cuil/workspace/arm/lm3s811/TI_Stellaris/driverlib/timer.c ****              ((ulConfig & 0x000000ff) == TIMER_CFG_A_CAP_COUNT) ||
 262:/home/cuil/workspace/arm/lm3s811/TI_Stellaris/driverlib/timer.c ****              ((ulConfig & 0x000000ff) == TIMER_CFG_A_CAP_TIME) ||
 263:/home/cuil/workspace/arm/lm3s811/TI_Stellaris/driverlib/timer.c ****              ((ulConfig & 0x000000ff) == TIMER_CFG_A_PWM)) &&
 264:/home/cuil/workspace/arm/lm3s811/TI_Stellaris/driverlib/timer.c ****             (((ulConfig & 0x0000ff00) == TIMER_CFG_B_ONE_SHOT) ||
 265:/home/cuil/workspace/arm/lm3s811/TI_Stellaris/driverlib/timer.c ****              ((ulConfig & 0x0000ff00) == TIMER_CFG_B_ONE_SHOT_UP) ||
 266:/home/cuil/workspace/arm/lm3s811/TI_Stellaris/driverlib/timer.c ****              ((ulConfig & 0x0000ff00) == TIMER_CFG_B_PERIODIC) ||
 267:/home/cuil/workspace/arm/lm3s811/TI_Stellaris/driverlib/timer.c ****              ((ulConfig & 0x0000ff00) == TIMER_CFG_B_PERIODIC_UP) ||
 268:/home/cuil/workspace/arm/lm3s811/TI_Stellaris/driverlib/timer.c ****              ((ulConfig & 0x0000ff00) == TIMER_CFG_B_CAP_COUNT) ||
 269:/home/cuil/workspace/arm/lm3s811/TI_Stellaris/driverlib/timer.c ****              ((ulConfig & 0x0000ff00) == TIMER_CFG_B_CAP_COUNT_UP) ||
 270:/home/cuil/workspace/arm/lm3s811/TI_Stellaris/driverlib/timer.c ****              ((ulConfig & 0x0000ff00) == TIMER_CFG_B_CAP_TIME) ||
 271:/home/cuil/workspace/arm/lm3s811/TI_Stellaris/driverlib/timer.c ****              ((ulConfig & 0x0000ff00) == TIMER_CFG_B_CAP_TIME_UP) ||
 272:/home/cuil/workspace/arm/lm3s811/TI_Stellaris/driverlib/timer.c ****              ((ulConfig & 0x0000ff00) == TIMER_CFG_B_PWM))));
 273:/home/cuil/workspace/arm/lm3s811/TI_Stellaris/driverlib/timer.c **** 
 274:/home/cuil/workspace/arm/lm3s811/TI_Stellaris/driverlib/timer.c ****     //
 275:/home/cuil/workspace/arm/lm3s811/TI_Stellaris/driverlib/timer.c ****     // Disable the timers.
 276:/home/cuil/workspace/arm/lm3s811/TI_Stellaris/driverlib/timer.c ****     //
 277:/home/cuil/workspace/arm/lm3s811/TI_Stellaris/driverlib/timer.c ****     HWREG(ulBase + TIMER_O_CTL) &= ~(TIMER_CTL_TAEN | TIMER_CTL_TBEN);
 3175              		.loc 1 277 0
 3176 000a 7B68     		ldr	r3, [r7, #4]
 3177 000c 03F10C03 		add	r3, r3, #12
 3178 0010 1A46     		mov	r2, r3
 3179 0012 7B68     		ldr	r3, [r7, #4]
 3180 0014 03F10C03 		add	r3, r3, #12
 3181 0018 1B68     		ldr	r3, [r3, #0]
 3182 001a 23F48073 		bic	r3, r3, #256
 3183 001e 23F00103 		bic	r3, r3, #1
 3184 0022 1360     		str	r3, [r2, #0]
 278:/home/cuil/workspace/arm/lm3s811/TI_Stellaris/driverlib/timer.c **** 
 279:/home/cuil/workspace/arm/lm3s811/TI_Stellaris/driverlib/timer.c ****     //
 280:/home/cuil/workspace/arm/lm3s811/TI_Stellaris/driverlib/timer.c ****     // Set the global timer configuration.
 281:/home/cuil/workspace/arm/lm3s811/TI_Stellaris/driverlib/timer.c ****     //
 282:/home/cuil/workspace/arm/lm3s811/TI_Stellaris/driverlib/timer.c ****     HWREG(ulBase + TIMER_O_CFG) = ulConfig >> 24;
 3185              		.loc 1 282 0
 3186 0024 7B68     		ldr	r3, [r7, #4]
 3187 0026 3A68     		ldr	r2, [r7, #0]
 3188 0028 4FEA1262 		lsr	r2, r2, #24
 3189 002c 1A60     		str	r2, [r3, #0]
 283:/home/cuil/workspace/arm/lm3s811/TI_Stellaris/driverlib/timer.c **** 
 284:/home/cuil/workspace/arm/lm3s811/TI_Stellaris/driverlib/timer.c ****     //
 285:/home/cuil/workspace/arm/lm3s811/TI_Stellaris/driverlib/timer.c ****     // Set the configuration of the A and B timers.  Note that the B timer
 286:/home/cuil/workspace/arm/lm3s811/TI_Stellaris/driverlib/timer.c ****     // configuration is ignored by the hardware in 32-bit modes.
 287:/home/cuil/workspace/arm/lm3s811/TI_Stellaris/driverlib/timer.c ****     //
 288:/home/cuil/workspace/arm/lm3s811/TI_Stellaris/driverlib/timer.c ****     HWREG(ulBase + TIMER_O_TAMR) = (ulConfig & 255) | TIMER_TAMR_TAPWMIE;
 3190              		.loc 1 288 0
 3191 002e 7B68     		ldr	r3, [r7, #4]
 3192 0030 03F10403 		add	r3, r3, #4
 3193 0034 3A68     		ldr	r2, [r7, #0]
 3194 0036 02F0FF02 		and	r2, r2, #255
 3195 003a 42F40072 		orr	r2, r2, #512
 3196 003e 1A60     		str	r2, [r3, #0]
 289:/home/cuil/workspace/arm/lm3s811/TI_Stellaris/driverlib/timer.c ****     HWREG(ulBase + TIMER_O_TBMR) =
 3197              		.loc 1 289 0
 3198 0040 7B68     		ldr	r3, [r7, #4]
 3199 0042 03F10803 		add	r3, r3, #8
 290:/home/cuil/workspace/arm/lm3s811/TI_Stellaris/driverlib/timer.c ****         ((ulConfig >> 8) & 255) | TIMER_TBMR_TBPWMIE;
 3200              		.loc 1 290 0
 3201 0046 3A68     		ldr	r2, [r7, #0]
 3202 0048 4FEA1222 		lsr	r2, r2, #8
 3203 004c 02F0FF02 		and	r2, r2, #255
 3204 0050 42F40072 		orr	r2, r2, #512
 289:/home/cuil/workspace/arm/lm3s811/TI_Stellaris/driverlib/timer.c ****     HWREG(ulBase + TIMER_O_TBMR) =
 3205              		.loc 1 289 0
 3206 0054 1A60     		str	r2, [r3, #0]
 291:/home/cuil/workspace/arm/lm3s811/TI_Stellaris/driverlib/timer.c **** }
 3207              		.loc 1 291 0
 3208 0056 07F10C07 		add	r7, r7, #12
 3209 005a BD46     		mov	sp, r7
 3210 005c 80BC     		pop	{r7}
 3211 005e 7047     		bx	lr
 3212              		.cfi_endproc
 3213              	.LFE3:
 3215              		.section	.text.TimerControlLevel,"ax",%progbits
 3216              		.align	2
 3217              		.global	TimerControlLevel
 3218              		.thumb
 3219              		.thumb_func
 3221              	TimerControlLevel:
 3222              	.LFB4:
 292:/home/cuil/workspace/arm/lm3s811/TI_Stellaris/driverlib/timer.c **** 
 293:/home/cuil/workspace/arm/lm3s811/TI_Stellaris/driverlib/timer.c **** //*****************************************************************************
 294:/home/cuil/workspace/arm/lm3s811/TI_Stellaris/driverlib/timer.c **** //
 295:/home/cuil/workspace/arm/lm3s811/TI_Stellaris/driverlib/timer.c **** //! Controls the output level.
 296:/home/cuil/workspace/arm/lm3s811/TI_Stellaris/driverlib/timer.c **** //!
 297:/home/cuil/workspace/arm/lm3s811/TI_Stellaris/driverlib/timer.c **** //! \param ulBase is the base address of the timer module.
 298:/home/cuil/workspace/arm/lm3s811/TI_Stellaris/driverlib/timer.c **** //! \param ulTimer specifies the timer(s) to adjust; must be one of \b TIMER_A,
 299:/home/cuil/workspace/arm/lm3s811/TI_Stellaris/driverlib/timer.c **** //! \b TIMER_B, or \b TIMER_BOTH.
 300:/home/cuil/workspace/arm/lm3s811/TI_Stellaris/driverlib/timer.c **** //! \param bInvert specifies the output level.
 301:/home/cuil/workspace/arm/lm3s811/TI_Stellaris/driverlib/timer.c **** //!
 302:/home/cuil/workspace/arm/lm3s811/TI_Stellaris/driverlib/timer.c **** //! This function configures the PWM output level for the specified timer.  If 
 303:/home/cuil/workspace/arm/lm3s811/TI_Stellaris/driverlib/timer.c **** //! the \e bInvert parameter is \b true, then the timer's output is made active
 304:/home/cuil/workspace/arm/lm3s811/TI_Stellaris/driverlib/timer.c **** //! low; otherwise, it is made active high.
 305:/home/cuil/workspace/arm/lm3s811/TI_Stellaris/driverlib/timer.c **** //!
 306:/home/cuil/workspace/arm/lm3s811/TI_Stellaris/driverlib/timer.c **** //! \return None.
 307:/home/cuil/workspace/arm/lm3s811/TI_Stellaris/driverlib/timer.c **** //
 308:/home/cuil/workspace/arm/lm3s811/TI_Stellaris/driverlib/timer.c **** //*****************************************************************************
 309:/home/cuil/workspace/arm/lm3s811/TI_Stellaris/driverlib/timer.c **** void
 310:/home/cuil/workspace/arm/lm3s811/TI_Stellaris/driverlib/timer.c **** TimerControlLevel(unsigned long ulBase, unsigned long ulTimer,
 311:/home/cuil/workspace/arm/lm3s811/TI_Stellaris/driverlib/timer.c ****                   tBoolean bInvert)
 312:/home/cuil/workspace/arm/lm3s811/TI_Stellaris/driverlib/timer.c **** {
 3223              		.loc 1 312 0
 3224              		.cfi_startproc
 3225              		@ args = 0, pretend = 0, frame = 16
 3226              		@ frame_needed = 1, uses_anonymous_args = 0
 3227              		@ link register save eliminated.
 3228 0000 80B4     		push	{r7}
 3229              	.LCFI12:
 3230              		.cfi_def_cfa_offset 4
 3231 0002 85B0     		sub	sp, sp, #20
 3232              	.LCFI13:
 3233              		.cfi_def_cfa_offset 24
 3234 0004 00AF     		add	r7, sp, #0
 3235              		.cfi_offset 7, -4
 3236              	.LCFI14:
 3237              		.cfi_def_cfa_register 7
 3238 0006 F860     		str	r0, [r7, #12]
 3239 0008 B960     		str	r1, [r7, #8]
 3240 000a 1346     		mov	r3, r2
 3241 000c FB71     		strb	r3, [r7, #7]
 313:/home/cuil/workspace/arm/lm3s811/TI_Stellaris/driverlib/timer.c ****     //
 314:/home/cuil/workspace/arm/lm3s811/TI_Stellaris/driverlib/timer.c ****     // Check the arguments.
 315:/home/cuil/workspace/arm/lm3s811/TI_Stellaris/driverlib/timer.c ****     //
 316:/home/cuil/workspace/arm/lm3s811/TI_Stellaris/driverlib/timer.c ****     ASSERT(TimerBaseValid(ulBase));
 317:/home/cuil/workspace/arm/lm3s811/TI_Stellaris/driverlib/timer.c ****     ASSERT((ulTimer == TIMER_A) || (ulTimer == TIMER_B) ||
 318:/home/cuil/workspace/arm/lm3s811/TI_Stellaris/driverlib/timer.c ****            (ulTimer == TIMER_BOTH));
 319:/home/cuil/workspace/arm/lm3s811/TI_Stellaris/driverlib/timer.c **** 
 320:/home/cuil/workspace/arm/lm3s811/TI_Stellaris/driverlib/timer.c ****     //
 321:/home/cuil/workspace/arm/lm3s811/TI_Stellaris/driverlib/timer.c ****     // Set the output levels as requested.
 322:/home/cuil/workspace/arm/lm3s811/TI_Stellaris/driverlib/timer.c ****     //
 323:/home/cuil/workspace/arm/lm3s811/TI_Stellaris/driverlib/timer.c ****     ulTimer &= TIMER_CTL_TAPWML | TIMER_CTL_TBPWML;
 3242              		.loc 1 323 0
 3243 000e BA68     		ldr	r2, [r7, #8]
 3244 0010 44F24003 		movw	r3, #16448
 3245 0014 02EA0303 		and	r3, r2, r3
 3246 0018 BB60     		str	r3, [r7, #8]
 324:/home/cuil/workspace/arm/lm3s811/TI_Stellaris/driverlib/timer.c ****     HWREG(ulBase + TIMER_O_CTL) = (bInvert ?
 3247              		.loc 1 324 0
 3248 001a FB68     		ldr	r3, [r7, #12]
 3249 001c 03F10C03 		add	r3, r3, #12
 3250 0020 1A46     		mov	r2, r3
 325:/home/cuil/workspace/arm/lm3s811/TI_Stellaris/driverlib/timer.c ****                                    (HWREG(ulBase + TIMER_O_CTL) | ulTimer) :
 3251              		.loc 1 325 0
 3252 0022 FB79     		ldrb	r3, [r7, #7]	@ zero_extendqisi2
 3253 0024 002B     		cmp	r3, #0
 3254 0026 07D0     		beq	.L12
 3255              		.loc 1 325 0 is_stmt 0 discriminator 1
 3256 0028 FB68     		ldr	r3, [r7, #12]
 3257 002a 03F10C03 		add	r3, r3, #12
 3258 002e 1968     		ldr	r1, [r3, #0]
 3259 0030 BB68     		ldr	r3, [r7, #8]
 3260 0032 41EA0303 		orr	r3, r1, r3
 3261 0036 08E0     		b	.L13
 3262              	.L12:
 326:/home/cuil/workspace/arm/lm3s811/TI_Stellaris/driverlib/timer.c ****                                    (HWREG(ulBase + TIMER_O_CTL) & ~(ulTimer)));
 3263              		.loc 1 326 0 is_stmt 1 discriminator 2
 3264 0038 FB68     		ldr	r3, [r7, #12]
 3265 003a 03F10C03 		add	r3, r3, #12
 3266 003e 1968     		ldr	r1, [r3, #0]
 3267 0040 BB68     		ldr	r3, [r7, #8]
 3268 0042 6FEA0303 		mvn	r3, r3
 325:/home/cuil/workspace/arm/lm3s811/TI_Stellaris/driverlib/timer.c ****                                    (HWREG(ulBase + TIMER_O_CTL) | ulTimer) :
 3269              		.loc 1 325 0 discriminator 2
 3270 0046 01EA0303 		and	r3, r1, r3
 3271              	.L13:
 324:/home/cuil/workspace/arm/lm3s811/TI_Stellaris/driverlib/timer.c ****     HWREG(ulBase + TIMER_O_CTL) = (bInvert ?
 3272              		.loc 1 324 0
 3273 004a 1360     		str	r3, [r2, #0]
 327:/home/cuil/workspace/arm/lm3s811/TI_Stellaris/driverlib/timer.c **** }
 3274              		.loc 1 327 0
 3275 004c 07F11407 		add	r7, r7, #20
 3276 0050 BD46     		mov	sp, r7
 3277 0052 80BC     		pop	{r7}
 3278 0054 7047     		bx	lr
 3279              		.cfi_endproc
 3280              	.LFE4:
 3282 0056 00BF     		.section	.text.TimerControlTrigger,"ax",%progbits
 3283              		.align	2
 3284              		.global	TimerControlTrigger
 3285              		.thumb
 3286              		.thumb_func
 3288              	TimerControlTrigger:
 3289              	.LFB5:
 328:/home/cuil/workspace/arm/lm3s811/TI_Stellaris/driverlib/timer.c **** 
 329:/home/cuil/workspace/arm/lm3s811/TI_Stellaris/driverlib/timer.c **** //*****************************************************************************
 330:/home/cuil/workspace/arm/lm3s811/TI_Stellaris/driverlib/timer.c **** //
 331:/home/cuil/workspace/arm/lm3s811/TI_Stellaris/driverlib/timer.c **** //! Enables or disables the ADC trigger output.
 332:/home/cuil/workspace/arm/lm3s811/TI_Stellaris/driverlib/timer.c **** //!
 333:/home/cuil/workspace/arm/lm3s811/TI_Stellaris/driverlib/timer.c **** //! \param ulBase is the base address of the timer module.
 334:/home/cuil/workspace/arm/lm3s811/TI_Stellaris/driverlib/timer.c **** //! \param ulTimer specifies the timer to adjust; must be one of \b TIMER_A,
 335:/home/cuil/workspace/arm/lm3s811/TI_Stellaris/driverlib/timer.c **** //! \b TIMER_B, or \b TIMER_BOTH.
 336:/home/cuil/workspace/arm/lm3s811/TI_Stellaris/driverlib/timer.c **** //! \param bEnable specifies the desired ADC trigger state.
 337:/home/cuil/workspace/arm/lm3s811/TI_Stellaris/driverlib/timer.c **** //!
 338:/home/cuil/workspace/arm/lm3s811/TI_Stellaris/driverlib/timer.c **** //! This function controls the ADC trigger output for the specified timer.  If 
 339:/home/cuil/workspace/arm/lm3s811/TI_Stellaris/driverlib/timer.c **** //! the \e bEnable parameter is \b true, then the timer's ADC output trigger is
 340:/home/cuil/workspace/arm/lm3s811/TI_Stellaris/driverlib/timer.c **** //! enabled; otherwise it is disabled.
 341:/home/cuil/workspace/arm/lm3s811/TI_Stellaris/driverlib/timer.c **** //!
 342:/home/cuil/workspace/arm/lm3s811/TI_Stellaris/driverlib/timer.c **** //! \return None.
 343:/home/cuil/workspace/arm/lm3s811/TI_Stellaris/driverlib/timer.c **** //
 344:/home/cuil/workspace/arm/lm3s811/TI_Stellaris/driverlib/timer.c **** //*****************************************************************************
 345:/home/cuil/workspace/arm/lm3s811/TI_Stellaris/driverlib/timer.c **** void
 346:/home/cuil/workspace/arm/lm3s811/TI_Stellaris/driverlib/timer.c **** TimerControlTrigger(unsigned long ulBase, unsigned long ulTimer,
 347:/home/cuil/workspace/arm/lm3s811/TI_Stellaris/driverlib/timer.c ****                     tBoolean bEnable)
 348:/home/cuil/workspace/arm/lm3s811/TI_Stellaris/driverlib/timer.c **** {
 3290              		.loc 1 348 0
 3291              		.cfi_startproc
 3292              		@ args = 0, pretend = 0, frame = 16
 3293              		@ frame_needed = 1, uses_anonymous_args = 0
 3294              		@ link register save eliminated.
 3295 0000 80B4     		push	{r7}
 3296              	.LCFI15:
 3297              		.cfi_def_cfa_offset 4
 3298 0002 85B0     		sub	sp, sp, #20
 3299              	.LCFI16:
 3300              		.cfi_def_cfa_offset 24
 3301 0004 00AF     		add	r7, sp, #0
 3302              		.cfi_offset 7, -4
 3303              	.LCFI17:
 3304              		.cfi_def_cfa_register 7
 3305 0006 F860     		str	r0, [r7, #12]
 3306 0008 B960     		str	r1, [r7, #8]
 3307 000a 1346     		mov	r3, r2
 3308 000c FB71     		strb	r3, [r7, #7]
 349:/home/cuil/workspace/arm/lm3s811/TI_Stellaris/driverlib/timer.c ****     //
 350:/home/cuil/workspace/arm/lm3s811/TI_Stellaris/driverlib/timer.c ****     // Check the arguments.
 351:/home/cuil/workspace/arm/lm3s811/TI_Stellaris/driverlib/timer.c ****     //
 352:/home/cuil/workspace/arm/lm3s811/TI_Stellaris/driverlib/timer.c ****     ASSERT(TimerBaseValid(ulBase));
 353:/home/cuil/workspace/arm/lm3s811/TI_Stellaris/driverlib/timer.c ****     ASSERT((ulTimer == TIMER_A) || (ulTimer == TIMER_B) ||
 354:/home/cuil/workspace/arm/lm3s811/TI_Stellaris/driverlib/timer.c ****            (ulTimer == TIMER_BOTH));
 355:/home/cuil/workspace/arm/lm3s811/TI_Stellaris/driverlib/timer.c **** 
 356:/home/cuil/workspace/arm/lm3s811/TI_Stellaris/driverlib/timer.c ****     //
 357:/home/cuil/workspace/arm/lm3s811/TI_Stellaris/driverlib/timer.c ****     // Set the trigger output as requested.
 358:/home/cuil/workspace/arm/lm3s811/TI_Stellaris/driverlib/timer.c ****     // Set the ADC trigger output as requested.
 359:/home/cuil/workspace/arm/lm3s811/TI_Stellaris/driverlib/timer.c ****     //
 360:/home/cuil/workspace/arm/lm3s811/TI_Stellaris/driverlib/timer.c ****     ulTimer &= TIMER_CTL_TAOTE | TIMER_CTL_TBOTE;
 3309              		.loc 1 360 0
 3310 000e BA68     		ldr	r2, [r7, #8]
 3311 0010 42F22003 		movw	r3, #8224
 3312 0014 02EA0303 		and	r3, r2, r3
 3313 0018 BB60     		str	r3, [r7, #8]
 361:/home/cuil/workspace/arm/lm3s811/TI_Stellaris/driverlib/timer.c ****     HWREG(ulBase + TIMER_O_CTL) = (bEnable ?
 3314              		.loc 1 361 0
 3315 001a FB68     		ldr	r3, [r7, #12]
 3316 001c 03F10C03 		add	r3, r3, #12
 3317 0020 1A46     		mov	r2, r3
 362:/home/cuil/workspace/arm/lm3s811/TI_Stellaris/driverlib/timer.c ****                                    (HWREG(ulBase + TIMER_O_CTL) | ulTimer) :
 3318              		.loc 1 362 0
 3319 0022 FB79     		ldrb	r3, [r7, #7]	@ zero_extendqisi2
 3320 0024 002B     		cmp	r3, #0
 3321 0026 07D0     		beq	.L15
 3322              		.loc 1 362 0 is_stmt 0 discriminator 1
 3323 0028 FB68     		ldr	r3, [r7, #12]
 3324 002a 03F10C03 		add	r3, r3, #12
 3325 002e 1968     		ldr	r1, [r3, #0]
 3326 0030 BB68     		ldr	r3, [r7, #8]
 3327 0032 41EA0303 		orr	r3, r1, r3
 3328 0036 08E0     		b	.L16
 3329              	.L15:
 363:/home/cuil/workspace/arm/lm3s811/TI_Stellaris/driverlib/timer.c ****                                    (HWREG(ulBase + TIMER_O_CTL) & ~(ulTimer)));
 3330              		.loc 1 363 0 is_stmt 1 discriminator 2
 3331 0038 FB68     		ldr	r3, [r7, #12]
 3332 003a 03F10C03 		add	r3, r3, #12
 3333 003e 1968     		ldr	r1, [r3, #0]
 3334 0040 BB68     		ldr	r3, [r7, #8]
 3335 0042 6FEA0303 		mvn	r3, r3
 362:/home/cuil/workspace/arm/lm3s811/TI_Stellaris/driverlib/timer.c ****                                    (HWREG(ulBase + TIMER_O_CTL) | ulTimer) :
 3336              		.loc 1 362 0 discriminator 2
 3337 0046 01EA0303 		and	r3, r1, r3
 3338              	.L16:
 361:/home/cuil/workspace/arm/lm3s811/TI_Stellaris/driverlib/timer.c ****     HWREG(ulBase + TIMER_O_CTL) = (bEnable ?
 3339              		.loc 1 361 0
 3340 004a 1360     		str	r3, [r2, #0]
 364:/home/cuil/workspace/arm/lm3s811/TI_Stellaris/driverlib/timer.c **** }
 3341              		.loc 1 364 0
 3342 004c 07F11407 		add	r7, r7, #20
 3343 0050 BD46     		mov	sp, r7
 3344 0052 80BC     		pop	{r7}
 3345 0054 7047     		bx	lr
 3346              		.cfi_endproc
 3347              	.LFE5:
 3349 0056 00BF     		.section	.text.TimerControlEvent,"ax",%progbits
 3350              		.align	2
 3351              		.global	TimerControlEvent
 3352              		.thumb
 3353              		.thumb_func
 3355              	TimerControlEvent:
 3356              	.LFB6:
 365:/home/cuil/workspace/arm/lm3s811/TI_Stellaris/driverlib/timer.c **** 
 366:/home/cuil/workspace/arm/lm3s811/TI_Stellaris/driverlib/timer.c **** //*****************************************************************************
 367:/home/cuil/workspace/arm/lm3s811/TI_Stellaris/driverlib/timer.c **** //
 368:/home/cuil/workspace/arm/lm3s811/TI_Stellaris/driverlib/timer.c **** //! Controls the event type.
 369:/home/cuil/workspace/arm/lm3s811/TI_Stellaris/driverlib/timer.c **** //!
 370:/home/cuil/workspace/arm/lm3s811/TI_Stellaris/driverlib/timer.c **** //! \param ulBase is the base address of the timer module.
 371:/home/cuil/workspace/arm/lm3s811/TI_Stellaris/driverlib/timer.c **** //! \param ulTimer specifies the timer(s) to be adjusted; must be one of
 372:/home/cuil/workspace/arm/lm3s811/TI_Stellaris/driverlib/timer.c **** //! \b TIMER_A, \b TIMER_B, or \b TIMER_BOTH.
 373:/home/cuil/workspace/arm/lm3s811/TI_Stellaris/driverlib/timer.c **** //! \param ulEvent specifies the type of event; must be one of
 374:/home/cuil/workspace/arm/lm3s811/TI_Stellaris/driverlib/timer.c **** //! \b TIMER_EVENT_POS_EDGE, \b TIMER_EVENT_NEG_EDGE, or
 375:/home/cuil/workspace/arm/lm3s811/TI_Stellaris/driverlib/timer.c **** //! \b TIMER_EVENT_BOTH_EDGES.
 376:/home/cuil/workspace/arm/lm3s811/TI_Stellaris/driverlib/timer.c **** //!
 377:/home/cuil/workspace/arm/lm3s811/TI_Stellaris/driverlib/timer.c **** //! This function configures the signal edge(s) that triggers the timer when 
 378:/home/cuil/workspace/arm/lm3s811/TI_Stellaris/driverlib/timer.c **** //! in capture mode.
 379:/home/cuil/workspace/arm/lm3s811/TI_Stellaris/driverlib/timer.c **** //!
 380:/home/cuil/workspace/arm/lm3s811/TI_Stellaris/driverlib/timer.c **** //! \return None.
 381:/home/cuil/workspace/arm/lm3s811/TI_Stellaris/driverlib/timer.c **** //
 382:/home/cuil/workspace/arm/lm3s811/TI_Stellaris/driverlib/timer.c **** //*****************************************************************************
 383:/home/cuil/workspace/arm/lm3s811/TI_Stellaris/driverlib/timer.c **** void
 384:/home/cuil/workspace/arm/lm3s811/TI_Stellaris/driverlib/timer.c **** TimerControlEvent(unsigned long ulBase, unsigned long ulTimer,
 385:/home/cuil/workspace/arm/lm3s811/TI_Stellaris/driverlib/timer.c ****                   unsigned long ulEvent)
 386:/home/cuil/workspace/arm/lm3s811/TI_Stellaris/driverlib/timer.c **** {
 3357              		.loc 1 386 0
 3358              		.cfi_startproc
 3359              		@ args = 0, pretend = 0, frame = 16
 3360              		@ frame_needed = 1, uses_anonymous_args = 0
 3361              		@ link register save eliminated.
 3362 0000 80B4     		push	{r7}
 3363              	.LCFI18:
 3364              		.cfi_def_cfa_offset 4
 3365 0002 85B0     		sub	sp, sp, #20
 3366              	.LCFI19:
 3367              		.cfi_def_cfa_offset 24
 3368 0004 00AF     		add	r7, sp, #0
 3369              		.cfi_offset 7, -4
 3370              	.LCFI20:
 3371              		.cfi_def_cfa_register 7
 3372 0006 F860     		str	r0, [r7, #12]
 3373 0008 B960     		str	r1, [r7, #8]
 3374 000a 7A60     		str	r2, [r7, #4]
 387:/home/cuil/workspace/arm/lm3s811/TI_Stellaris/driverlib/timer.c ****     //
 388:/home/cuil/workspace/arm/lm3s811/TI_Stellaris/driverlib/timer.c ****     // Check the arguments.
 389:/home/cuil/workspace/arm/lm3s811/TI_Stellaris/driverlib/timer.c ****     //
 390:/home/cuil/workspace/arm/lm3s811/TI_Stellaris/driverlib/timer.c ****     ASSERT(TimerBaseValid(ulBase));
 391:/home/cuil/workspace/arm/lm3s811/TI_Stellaris/driverlib/timer.c ****     ASSERT((ulTimer == TIMER_A) || (ulTimer == TIMER_B) ||
 392:/home/cuil/workspace/arm/lm3s811/TI_Stellaris/driverlib/timer.c ****            (ulTimer == TIMER_BOTH));
 393:/home/cuil/workspace/arm/lm3s811/TI_Stellaris/driverlib/timer.c **** 
 394:/home/cuil/workspace/arm/lm3s811/TI_Stellaris/driverlib/timer.c ****     //
 395:/home/cuil/workspace/arm/lm3s811/TI_Stellaris/driverlib/timer.c ****     // Set the event type.
 396:/home/cuil/workspace/arm/lm3s811/TI_Stellaris/driverlib/timer.c ****     //
 397:/home/cuil/workspace/arm/lm3s811/TI_Stellaris/driverlib/timer.c ****     ulTimer &= TIMER_CTL_TAEVENT_M | TIMER_CTL_TBEVENT_M;
 3375              		.loc 1 397 0
 3376 000c BA68     		ldr	r2, [r7, #8]
 3377 000e 40F60C43 		movw	r3, #3084
 3378 0012 02EA0303 		and	r3, r2, r3
 3379 0016 BB60     		str	r3, [r7, #8]
 398:/home/cuil/workspace/arm/lm3s811/TI_Stellaris/driverlib/timer.c ****     HWREG(ulBase + TIMER_O_CTL) = ((HWREG(ulBase + TIMER_O_CTL) & ~ulTimer) |
 3380              		.loc 1 398 0
 3381 0018 FB68     		ldr	r3, [r7, #12]
 3382 001a 03F10C03 		add	r3, r3, #12
 3383 001e FA68     		ldr	r2, [r7, #12]
 3384 0020 02F10C02 		add	r2, r2, #12
 3385 0024 1168     		ldr	r1, [r2, #0]
 3386 0026 BA68     		ldr	r2, [r7, #8]
 3387 0028 6FEA0202 		mvn	r2, r2
 3388 002c 1140     		ands	r1, r1, r2
 399:/home/cuil/workspace/arm/lm3s811/TI_Stellaris/driverlib/timer.c ****                                    (ulEvent & ulTimer));
 3389              		.loc 1 399 0
 3390 002e 7868     		ldr	r0, [r7, #4]
 3391 0030 BA68     		ldr	r2, [r7, #8]
 3392 0032 00EA0202 		and	r2, r0, r2
 398:/home/cuil/workspace/arm/lm3s811/TI_Stellaris/driverlib/timer.c ****     HWREG(ulBase + TIMER_O_CTL) = ((HWREG(ulBase + TIMER_O_CTL) & ~ulTimer) |
 3393              		.loc 1 398 0
 3394 0036 41EA0202 		orr	r2, r1, r2
 3395 003a 1A60     		str	r2, [r3, #0]
 400:/home/cuil/workspace/arm/lm3s811/TI_Stellaris/driverlib/timer.c **** }
 3396              		.loc 1 400 0
 3397 003c 07F11407 		add	r7, r7, #20
 3398 0040 BD46     		mov	sp, r7
 3399 0042 80BC     		pop	{r7}
 3400 0044 7047     		bx	lr
 3401              		.cfi_endproc
 3402              	.LFE6:
 3404 0046 00BF     		.section	.text.TimerControlStall,"ax",%progbits
 3405              		.align	2
 3406              		.global	TimerControlStall
 3407              		.thumb
 3408              		.thumb_func
 3410              	TimerControlStall:
 3411              	.LFB7:
 401:/home/cuil/workspace/arm/lm3s811/TI_Stellaris/driverlib/timer.c **** 
 402:/home/cuil/workspace/arm/lm3s811/TI_Stellaris/driverlib/timer.c **** //*****************************************************************************
 403:/home/cuil/workspace/arm/lm3s811/TI_Stellaris/driverlib/timer.c **** //
 404:/home/cuil/workspace/arm/lm3s811/TI_Stellaris/driverlib/timer.c **** //! Controls the stall handling.
 405:/home/cuil/workspace/arm/lm3s811/TI_Stellaris/driverlib/timer.c **** //!
 406:/home/cuil/workspace/arm/lm3s811/TI_Stellaris/driverlib/timer.c **** //! \param ulBase is the base address of the timer module.
 407:/home/cuil/workspace/arm/lm3s811/TI_Stellaris/driverlib/timer.c **** //! \param ulTimer specifies the timer(s) to be adjusted; must be one of
 408:/home/cuil/workspace/arm/lm3s811/TI_Stellaris/driverlib/timer.c **** //! \b TIMER_A, \b TIMER_B, or \b TIMER_BOTH.
 409:/home/cuil/workspace/arm/lm3s811/TI_Stellaris/driverlib/timer.c **** //! \param bStall specifies the response to a stall signal.
 410:/home/cuil/workspace/arm/lm3s811/TI_Stellaris/driverlib/timer.c **** //!
 411:/home/cuil/workspace/arm/lm3s811/TI_Stellaris/driverlib/timer.c **** //! This function controls the stall response for the specified timer.  If the
 412:/home/cuil/workspace/arm/lm3s811/TI_Stellaris/driverlib/timer.c **** //! \e bStall parameter is \b true, then the timer stops counting if the
 413:/home/cuil/workspace/arm/lm3s811/TI_Stellaris/driverlib/timer.c **** //! processor enters debug mode; otherwise the timer keeps running while in
 414:/home/cuil/workspace/arm/lm3s811/TI_Stellaris/driverlib/timer.c **** //! debug mode.
 415:/home/cuil/workspace/arm/lm3s811/TI_Stellaris/driverlib/timer.c **** //!
 416:/home/cuil/workspace/arm/lm3s811/TI_Stellaris/driverlib/timer.c **** //! \return None.
 417:/home/cuil/workspace/arm/lm3s811/TI_Stellaris/driverlib/timer.c **** //
 418:/home/cuil/workspace/arm/lm3s811/TI_Stellaris/driverlib/timer.c **** //*****************************************************************************
 419:/home/cuil/workspace/arm/lm3s811/TI_Stellaris/driverlib/timer.c **** void
 420:/home/cuil/workspace/arm/lm3s811/TI_Stellaris/driverlib/timer.c **** TimerControlStall(unsigned long ulBase, unsigned long ulTimer,
 421:/home/cuil/workspace/arm/lm3s811/TI_Stellaris/driverlib/timer.c ****                   tBoolean bStall)
 422:/home/cuil/workspace/arm/lm3s811/TI_Stellaris/driverlib/timer.c **** {
 3412              		.loc 1 422 0
 3413              		.cfi_startproc
 3414              		@ args = 0, pretend = 0, frame = 16
 3415              		@ frame_needed = 1, uses_anonymous_args = 0
 3416              		@ link register save eliminated.
 3417 0000 80B4     		push	{r7}
 3418              	.LCFI21:
 3419              		.cfi_def_cfa_offset 4
 3420 0002 85B0     		sub	sp, sp, #20
 3421              	.LCFI22:
 3422              		.cfi_def_cfa_offset 24
 3423 0004 00AF     		add	r7, sp, #0
 3424              		.cfi_offset 7, -4
 3425              	.LCFI23:
 3426              		.cfi_def_cfa_register 7
 3427 0006 F860     		str	r0, [r7, #12]
 3428 0008 B960     		str	r1, [r7, #8]
 3429 000a 1346     		mov	r3, r2
 3430 000c FB71     		strb	r3, [r7, #7]
 423:/home/cuil/workspace/arm/lm3s811/TI_Stellaris/driverlib/timer.c ****     //
 424:/home/cuil/workspace/arm/lm3s811/TI_Stellaris/driverlib/timer.c ****     // Check the arguments.
 425:/home/cuil/workspace/arm/lm3s811/TI_Stellaris/driverlib/timer.c ****     //
 426:/home/cuil/workspace/arm/lm3s811/TI_Stellaris/driverlib/timer.c ****     ASSERT(TimerBaseValid(ulBase));
 427:/home/cuil/workspace/arm/lm3s811/TI_Stellaris/driverlib/timer.c ****     ASSERT((ulTimer == TIMER_A) || (ulTimer == TIMER_B) ||
 428:/home/cuil/workspace/arm/lm3s811/TI_Stellaris/driverlib/timer.c ****            (ulTimer == TIMER_BOTH));
 429:/home/cuil/workspace/arm/lm3s811/TI_Stellaris/driverlib/timer.c **** 
 430:/home/cuil/workspace/arm/lm3s811/TI_Stellaris/driverlib/timer.c ****     //
 431:/home/cuil/workspace/arm/lm3s811/TI_Stellaris/driverlib/timer.c ****     // Set the stall mode.
 432:/home/cuil/workspace/arm/lm3s811/TI_Stellaris/driverlib/timer.c ****     //
 433:/home/cuil/workspace/arm/lm3s811/TI_Stellaris/driverlib/timer.c ****     ulTimer &= TIMER_CTL_TASTALL | TIMER_CTL_TBSTALL;
 3431              		.loc 1 433 0
 3432 000e BA68     		ldr	r2, [r7, #8]
 3433 0010 40F20223 		movw	r3, #514
 3434 0014 02EA0303 		and	r3, r2, r3
 3435 0018 BB60     		str	r3, [r7, #8]
 434:/home/cuil/workspace/arm/lm3s811/TI_Stellaris/driverlib/timer.c ****     HWREG(ulBase + TIMER_O_CTL) = (bStall ?
 3436              		.loc 1 434 0
 3437 001a FB68     		ldr	r3, [r7, #12]
 3438 001c 03F10C03 		add	r3, r3, #12
 3439 0020 1A46     		mov	r2, r3
 435:/home/cuil/workspace/arm/lm3s811/TI_Stellaris/driverlib/timer.c ****                                    (HWREG(ulBase + TIMER_O_CTL) | ulTimer) :
 3440              		.loc 1 435 0
 3441 0022 FB79     		ldrb	r3, [r7, #7]	@ zero_extendqisi2
 3442 0024 002B     		cmp	r3, #0
 3443 0026 07D0     		beq	.L19
 3444              		.loc 1 435 0 is_stmt 0 discriminator 1
 3445 0028 FB68     		ldr	r3, [r7, #12]
 3446 002a 03F10C03 		add	r3, r3, #12
 3447 002e 1968     		ldr	r1, [r3, #0]
 3448 0030 BB68     		ldr	r3, [r7, #8]
 3449 0032 41EA0303 		orr	r3, r1, r3
 3450 0036 08E0     		b	.L20
 3451              	.L19:
 436:/home/cuil/workspace/arm/lm3s811/TI_Stellaris/driverlib/timer.c ****                                    (HWREG(ulBase + TIMER_O_CTL) & ~(ulTimer)));
 3452              		.loc 1 436 0 is_stmt 1 discriminator 2
 3453 0038 FB68     		ldr	r3, [r7, #12]
 3454 003a 03F10C03 		add	r3, r3, #12
 3455 003e 1968     		ldr	r1, [r3, #0]
 3456 0040 BB68     		ldr	r3, [r7, #8]
 3457 0042 6FEA0303 		mvn	r3, r3
 435:/home/cuil/workspace/arm/lm3s811/TI_Stellaris/driverlib/timer.c ****                                    (HWREG(ulBase + TIMER_O_CTL) | ulTimer) :
 3458              		.loc 1 435 0 discriminator 2
 3459 0046 01EA0303 		and	r3, r1, r3
 3460              	.L20:
 434:/home/cuil/workspace/arm/lm3s811/TI_Stellaris/driverlib/timer.c ****     HWREG(ulBase + TIMER_O_CTL) = (bStall ?
 3461              		.loc 1 434 0
 3462 004a 1360     		str	r3, [r2, #0]
 437:/home/cuil/workspace/arm/lm3s811/TI_Stellaris/driverlib/timer.c **** }
 3463              		.loc 1 437 0
 3464 004c 07F11407 		add	r7, r7, #20
 3465 0050 BD46     		mov	sp, r7
 3466 0052 80BC     		pop	{r7}
 3467 0054 7047     		bx	lr
 3468              		.cfi_endproc
 3469              	.LFE7:
 3471 0056 00BF     		.section	.text.TimerControlWaitOnTrigger,"ax",%progbits
 3472              		.align	2
 3473              		.global	TimerControlWaitOnTrigger
 3474              		.thumb
 3475              		.thumb_func
 3477              	TimerControlWaitOnTrigger:
 3478              	.LFB8:
 438:/home/cuil/workspace/arm/lm3s811/TI_Stellaris/driverlib/timer.c **** 
 439:/home/cuil/workspace/arm/lm3s811/TI_Stellaris/driverlib/timer.c **** //*****************************************************************************
 440:/home/cuil/workspace/arm/lm3s811/TI_Stellaris/driverlib/timer.c **** //
 441:/home/cuil/workspace/arm/lm3s811/TI_Stellaris/driverlib/timer.c **** //! Controls the wait on trigger handling.
 442:/home/cuil/workspace/arm/lm3s811/TI_Stellaris/driverlib/timer.c **** //!
 443:/home/cuil/workspace/arm/lm3s811/TI_Stellaris/driverlib/timer.c **** //! \param ulBase is the base address of the timer module.
 444:/home/cuil/workspace/arm/lm3s811/TI_Stellaris/driverlib/timer.c **** //! \param ulTimer specifies the timer(s) to be adjusted; must be one of
 445:/home/cuil/workspace/arm/lm3s811/TI_Stellaris/driverlib/timer.c **** //! \b TIMER_A, \b TIMER_B, or \b TIMER_BOTH.
 446:/home/cuil/workspace/arm/lm3s811/TI_Stellaris/driverlib/timer.c **** //! \param bWait specifies if the timer should wait for a trigger input.
 447:/home/cuil/workspace/arm/lm3s811/TI_Stellaris/driverlib/timer.c **** //!
 448:/home/cuil/workspace/arm/lm3s811/TI_Stellaris/driverlib/timer.c **** //! This function controls whether or not a timer waits for a trigger input to
 449:/home/cuil/workspace/arm/lm3s811/TI_Stellaris/driverlib/timer.c **** //! start counting.  When enabled, the previous timer in the trigger chain must
 450:/home/cuil/workspace/arm/lm3s811/TI_Stellaris/driverlib/timer.c **** //! count to its timeout in order for this timer to start counting.  Refer to
 451:/home/cuil/workspace/arm/lm3s811/TI_Stellaris/driverlib/timer.c **** //! the part's data sheet for a description of the trigger chain.
 452:/home/cuil/workspace/arm/lm3s811/TI_Stellaris/driverlib/timer.c **** //!
 453:/home/cuil/workspace/arm/lm3s811/TI_Stellaris/driverlib/timer.c **** //! \note This functionality is not available on all parts. This function 
 454:/home/cuil/workspace/arm/lm3s811/TI_Stellaris/driverlib/timer.c **** //! should not be used for Timer 0A or Wide Timer 0A.
 455:/home/cuil/workspace/arm/lm3s811/TI_Stellaris/driverlib/timer.c **** //!
 456:/home/cuil/workspace/arm/lm3s811/TI_Stellaris/driverlib/timer.c **** //! \return None.
 457:/home/cuil/workspace/arm/lm3s811/TI_Stellaris/driverlib/timer.c **** //
 458:/home/cuil/workspace/arm/lm3s811/TI_Stellaris/driverlib/timer.c **** //*****************************************************************************
 459:/home/cuil/workspace/arm/lm3s811/TI_Stellaris/driverlib/timer.c **** void
 460:/home/cuil/workspace/arm/lm3s811/TI_Stellaris/driverlib/timer.c **** TimerControlWaitOnTrigger(unsigned long ulBase, unsigned long ulTimer,
 461:/home/cuil/workspace/arm/lm3s811/TI_Stellaris/driverlib/timer.c ****                           tBoolean bWait)
 462:/home/cuil/workspace/arm/lm3s811/TI_Stellaris/driverlib/timer.c **** {
 3479              		.loc 1 462 0
 3480              		.cfi_startproc
 3481              		@ args = 0, pretend = 0, frame = 16
 3482              		@ frame_needed = 1, uses_anonymous_args = 0
 3483              		@ link register save eliminated.
 3484 0000 80B4     		push	{r7}
 3485              	.LCFI24:
 3486              		.cfi_def_cfa_offset 4
 3487 0002 85B0     		sub	sp, sp, #20
 3488              	.LCFI25:
 3489              		.cfi_def_cfa_offset 24
 3490 0004 00AF     		add	r7, sp, #0
 3491              		.cfi_offset 7, -4
 3492              	.LCFI26:
 3493              		.cfi_def_cfa_register 7
 3494 0006 F860     		str	r0, [r7, #12]
 3495 0008 B960     		str	r1, [r7, #8]
 3496 000a 1346     		mov	r3, r2
 3497 000c FB71     		strb	r3, [r7, #7]
 463:/home/cuil/workspace/arm/lm3s811/TI_Stellaris/driverlib/timer.c ****     //
 464:/home/cuil/workspace/arm/lm3s811/TI_Stellaris/driverlib/timer.c ****     // Check the arguments.
 465:/home/cuil/workspace/arm/lm3s811/TI_Stellaris/driverlib/timer.c ****     //
 466:/home/cuil/workspace/arm/lm3s811/TI_Stellaris/driverlib/timer.c ****     ASSERT(TimerBaseValid(ulBase));
 467:/home/cuil/workspace/arm/lm3s811/TI_Stellaris/driverlib/timer.c ****     ASSERT((ulTimer == TIMER_A) || (ulTimer == TIMER_B) ||
 468:/home/cuil/workspace/arm/lm3s811/TI_Stellaris/driverlib/timer.c ****            (ulTimer == TIMER_BOTH));
 469:/home/cuil/workspace/arm/lm3s811/TI_Stellaris/driverlib/timer.c **** 
 470:/home/cuil/workspace/arm/lm3s811/TI_Stellaris/driverlib/timer.c ****     //
 471:/home/cuil/workspace/arm/lm3s811/TI_Stellaris/driverlib/timer.c ****     // Set the wait on trigger mode for timer A.
 472:/home/cuil/workspace/arm/lm3s811/TI_Stellaris/driverlib/timer.c ****     //
 473:/home/cuil/workspace/arm/lm3s811/TI_Stellaris/driverlib/timer.c ****     if((ulTimer & TIMER_A) != 0)
 3498              		.loc 1 473 0
 3499 000e BB68     		ldr	r3, [r7, #8]
 3500 0010 03F0FF03 		and	r3, r3, #255
 3501 0014 002B     		cmp	r3, #0
 3502 0016 17D0     		beq	.L22
 474:/home/cuil/workspace/arm/lm3s811/TI_Stellaris/driverlib/timer.c ****     {
 475:/home/cuil/workspace/arm/lm3s811/TI_Stellaris/driverlib/timer.c ****         if(bWait)
 3503              		.loc 1 475 0
 3504 0018 FB79     		ldrb	r3, [r7, #7]	@ zero_extendqisi2
 3505 001a 002B     		cmp	r3, #0
 3506 001c 0AD0     		beq	.L23
 476:/home/cuil/workspace/arm/lm3s811/TI_Stellaris/driverlib/timer.c ****         {
 477:/home/cuil/workspace/arm/lm3s811/TI_Stellaris/driverlib/timer.c ****             HWREG(ulBase + TIMER_O_TAMR) |= TIMER_TAMR_TAWOT;
 3507              		.loc 1 477 0
 3508 001e FB68     		ldr	r3, [r7, #12]
 3509 0020 03F10403 		add	r3, r3, #4
 3510 0024 FA68     		ldr	r2, [r7, #12]
 3511 0026 02F10402 		add	r2, r2, #4
 3512 002a 1268     		ldr	r2, [r2, #0]
 3513 002c 42F04002 		orr	r2, r2, #64
 3514 0030 1A60     		str	r2, [r3, #0]
 3515 0032 09E0     		b	.L22
 3516              	.L23:
 478:/home/cuil/workspace/arm/lm3s811/TI_Stellaris/driverlib/timer.c ****         }
 479:/home/cuil/workspace/arm/lm3s811/TI_Stellaris/driverlib/timer.c ****         else
 480:/home/cuil/workspace/arm/lm3s811/TI_Stellaris/driverlib/timer.c ****         {
 481:/home/cuil/workspace/arm/lm3s811/TI_Stellaris/driverlib/timer.c ****             HWREG(ulBase + TIMER_O_TAMR) &= ~(TIMER_TAMR_TAWOT);
 3517              		.loc 1 481 0
 3518 0034 FB68     		ldr	r3, [r7, #12]
 3519 0036 03F10403 		add	r3, r3, #4
 3520 003a FA68     		ldr	r2, [r7, #12]
 3521 003c 02F10402 		add	r2, r2, #4
 3522 0040 1268     		ldr	r2, [r2, #0]
 3523 0042 22F04002 		bic	r2, r2, #64
 3524 0046 1A60     		str	r2, [r3, #0]
 3525              	.L22:
 482:/home/cuil/workspace/arm/lm3s811/TI_Stellaris/driverlib/timer.c ****         }
 483:/home/cuil/workspace/arm/lm3s811/TI_Stellaris/driverlib/timer.c ****     }
 484:/home/cuil/workspace/arm/lm3s811/TI_Stellaris/driverlib/timer.c **** 
 485:/home/cuil/workspace/arm/lm3s811/TI_Stellaris/driverlib/timer.c ****     //
 486:/home/cuil/workspace/arm/lm3s811/TI_Stellaris/driverlib/timer.c ****     // Set the wait on trigger mode for timer B.
 487:/home/cuil/workspace/arm/lm3s811/TI_Stellaris/driverlib/timer.c ****     //
 488:/home/cuil/workspace/arm/lm3s811/TI_Stellaris/driverlib/timer.c ****     if((ulTimer & TIMER_B) != 0)
 3526              		.loc 1 488 0
 3527 0048 BB68     		ldr	r3, [r7, #8]
 3528 004a 03F47F43 		and	r3, r3, #65280
 3529 004e 002B     		cmp	r3, #0
 3530 0050 17D0     		beq	.L21
 489:/home/cuil/workspace/arm/lm3s811/TI_Stellaris/driverlib/timer.c ****     {
 490:/home/cuil/workspace/arm/lm3s811/TI_Stellaris/driverlib/timer.c ****         if(bWait)
 3531              		.loc 1 490 0
 3532 0052 FB79     		ldrb	r3, [r7, #7]	@ zero_extendqisi2
 3533 0054 002B     		cmp	r3, #0
 3534 0056 0AD0     		beq	.L25
 491:/home/cuil/workspace/arm/lm3s811/TI_Stellaris/driverlib/timer.c ****         {
 492:/home/cuil/workspace/arm/lm3s811/TI_Stellaris/driverlib/timer.c ****             HWREG(ulBase + TIMER_O_TBMR) |= TIMER_TBMR_TBWOT;
 3535              		.loc 1 492 0
 3536 0058 FB68     		ldr	r3, [r7, #12]
 3537 005a 03F10803 		add	r3, r3, #8
 3538 005e FA68     		ldr	r2, [r7, #12]
 3539 0060 02F10802 		add	r2, r2, #8
 3540 0064 1268     		ldr	r2, [r2, #0]
 3541 0066 42F04002 		orr	r2, r2, #64
 3542 006a 1A60     		str	r2, [r3, #0]
 3543 006c 09E0     		b	.L21
 3544              	.L25:
 493:/home/cuil/workspace/arm/lm3s811/TI_Stellaris/driverlib/timer.c ****         }
 494:/home/cuil/workspace/arm/lm3s811/TI_Stellaris/driverlib/timer.c ****         else
 495:/home/cuil/workspace/arm/lm3s811/TI_Stellaris/driverlib/timer.c ****         {
 496:/home/cuil/workspace/arm/lm3s811/TI_Stellaris/driverlib/timer.c ****             HWREG(ulBase + TIMER_O_TBMR) &= ~(TIMER_TBMR_TBWOT);
 3545              		.loc 1 496 0
 3546 006e FB68     		ldr	r3, [r7, #12]
 3547 0070 03F10803 		add	r3, r3, #8
 3548 0074 FA68     		ldr	r2, [r7, #12]
 3549 0076 02F10802 		add	r2, r2, #8
 3550 007a 1268     		ldr	r2, [r2, #0]
 3551 007c 22F04002 		bic	r2, r2, #64
 3552 0080 1A60     		str	r2, [r3, #0]
 3553              	.L21:
 497:/home/cuil/workspace/arm/lm3s811/TI_Stellaris/driverlib/timer.c ****         }
 498:/home/cuil/workspace/arm/lm3s811/TI_Stellaris/driverlib/timer.c ****     }
 499:/home/cuil/workspace/arm/lm3s811/TI_Stellaris/driverlib/timer.c **** }
 3554              		.loc 1 499 0
 3555 0082 07F11407 		add	r7, r7, #20
 3556 0086 BD46     		mov	sp, r7
 3557 0088 80BC     		pop	{r7}
 3558 008a 7047     		bx	lr
 3559              		.cfi_endproc
 3560              	.LFE8:
 3562              		.section	.text.TimerRTCEnable,"ax",%progbits
 3563              		.align	2
 3564              		.global	TimerRTCEnable
 3565              		.thumb
 3566              		.thumb_func
 3568              	TimerRTCEnable:
 3569              	.LFB9:
 500:/home/cuil/workspace/arm/lm3s811/TI_Stellaris/driverlib/timer.c **** 
 501:/home/cuil/workspace/arm/lm3s811/TI_Stellaris/driverlib/timer.c **** //*****************************************************************************
 502:/home/cuil/workspace/arm/lm3s811/TI_Stellaris/driverlib/timer.c **** //
 503:/home/cuil/workspace/arm/lm3s811/TI_Stellaris/driverlib/timer.c **** //! Enable RTC counting.
 504:/home/cuil/workspace/arm/lm3s811/TI_Stellaris/driverlib/timer.c **** //!
 505:/home/cuil/workspace/arm/lm3s811/TI_Stellaris/driverlib/timer.c **** //! \param ulBase is the base address of the timer module.
 506:/home/cuil/workspace/arm/lm3s811/TI_Stellaris/driverlib/timer.c **** //!
 507:/home/cuil/workspace/arm/lm3s811/TI_Stellaris/driverlib/timer.c **** //! This function causes the timer to start counting when in RTC mode.  If not
 508:/home/cuil/workspace/arm/lm3s811/TI_Stellaris/driverlib/timer.c **** //! configured for RTC mode, this function does nothing.
 509:/home/cuil/workspace/arm/lm3s811/TI_Stellaris/driverlib/timer.c **** //!
 510:/home/cuil/workspace/arm/lm3s811/TI_Stellaris/driverlib/timer.c **** //! \return None.
 511:/home/cuil/workspace/arm/lm3s811/TI_Stellaris/driverlib/timer.c **** //
 512:/home/cuil/workspace/arm/lm3s811/TI_Stellaris/driverlib/timer.c **** //*****************************************************************************
 513:/home/cuil/workspace/arm/lm3s811/TI_Stellaris/driverlib/timer.c **** void
 514:/home/cuil/workspace/arm/lm3s811/TI_Stellaris/driverlib/timer.c **** TimerRTCEnable(unsigned long ulBase)
 515:/home/cuil/workspace/arm/lm3s811/TI_Stellaris/driverlib/timer.c **** {
 3570              		.loc 1 515 0
 3571              		.cfi_startproc
 3572              		@ args = 0, pretend = 0, frame = 8
 3573              		@ frame_needed = 1, uses_anonymous_args = 0
 3574              		@ link register save eliminated.
 3575 0000 80B4     		push	{r7}
 3576              	.LCFI27:
 3577              		.cfi_def_cfa_offset 4
 3578 0002 83B0     		sub	sp, sp, #12
 3579              	.LCFI28:
 3580              		.cfi_def_cfa_offset 16
 3581 0004 00AF     		add	r7, sp, #0
 3582              		.cfi_offset 7, -4
 3583              	.LCFI29:
 3584              		.cfi_def_cfa_register 7
 3585 0006 7860     		str	r0, [r7, #4]
 516:/home/cuil/workspace/arm/lm3s811/TI_Stellaris/driverlib/timer.c ****     //
 517:/home/cuil/workspace/arm/lm3s811/TI_Stellaris/driverlib/timer.c ****     // Check the arguments.
 518:/home/cuil/workspace/arm/lm3s811/TI_Stellaris/driverlib/timer.c ****     //
 519:/home/cuil/workspace/arm/lm3s811/TI_Stellaris/driverlib/timer.c ****     ASSERT(TimerBaseValid(ulBase));
 520:/home/cuil/workspace/arm/lm3s811/TI_Stellaris/driverlib/timer.c **** 
 521:/home/cuil/workspace/arm/lm3s811/TI_Stellaris/driverlib/timer.c ****     //
 522:/home/cuil/workspace/arm/lm3s811/TI_Stellaris/driverlib/timer.c ****     // Enable RTC counting.
 523:/home/cuil/workspace/arm/lm3s811/TI_Stellaris/driverlib/timer.c ****     //
 524:/home/cuil/workspace/arm/lm3s811/TI_Stellaris/driverlib/timer.c ****     HWREG(ulBase + TIMER_O_CTL) |= TIMER_CTL_RTCEN;
 3586              		.loc 1 524 0
 3587 0008 7B68     		ldr	r3, [r7, #4]
 3588 000a 03F10C03 		add	r3, r3, #12
 3589 000e 7A68     		ldr	r2, [r7, #4]
 3590 0010 02F10C02 		add	r2, r2, #12
 3591 0014 1268     		ldr	r2, [r2, #0]
 3592 0016 42F01002 		orr	r2, r2, #16
 3593 001a 1A60     		str	r2, [r3, #0]
 525:/home/cuil/workspace/arm/lm3s811/TI_Stellaris/driverlib/timer.c **** }
 3594              		.loc 1 525 0
 3595 001c 07F10C07 		add	r7, r7, #12
 3596 0020 BD46     		mov	sp, r7
 3597 0022 80BC     		pop	{r7}
 3598 0024 7047     		bx	lr
 3599              		.cfi_endproc
 3600              	.LFE9:
 3602 0026 00BF     		.section	.text.TimerRTCDisable,"ax",%progbits
 3603              		.align	2
 3604              		.global	TimerRTCDisable
 3605              		.thumb
 3606              		.thumb_func
 3608              	TimerRTCDisable:
 3609              	.LFB10:
 526:/home/cuil/workspace/arm/lm3s811/TI_Stellaris/driverlib/timer.c **** 
 527:/home/cuil/workspace/arm/lm3s811/TI_Stellaris/driverlib/timer.c **** //*****************************************************************************
 528:/home/cuil/workspace/arm/lm3s811/TI_Stellaris/driverlib/timer.c **** //
 529:/home/cuil/workspace/arm/lm3s811/TI_Stellaris/driverlib/timer.c **** //! Disable RTC counting.
 530:/home/cuil/workspace/arm/lm3s811/TI_Stellaris/driverlib/timer.c **** //!
 531:/home/cuil/workspace/arm/lm3s811/TI_Stellaris/driverlib/timer.c **** //! \param ulBase is the base address of the timer module.
 532:/home/cuil/workspace/arm/lm3s811/TI_Stellaris/driverlib/timer.c **** //!
 533:/home/cuil/workspace/arm/lm3s811/TI_Stellaris/driverlib/timer.c **** //! This function causes the timer to stop counting when in RTC mode.
 534:/home/cuil/workspace/arm/lm3s811/TI_Stellaris/driverlib/timer.c **** //!
 535:/home/cuil/workspace/arm/lm3s811/TI_Stellaris/driverlib/timer.c **** //! \return None.
 536:/home/cuil/workspace/arm/lm3s811/TI_Stellaris/driverlib/timer.c **** //
 537:/home/cuil/workspace/arm/lm3s811/TI_Stellaris/driverlib/timer.c **** //*****************************************************************************
 538:/home/cuil/workspace/arm/lm3s811/TI_Stellaris/driverlib/timer.c **** void
 539:/home/cuil/workspace/arm/lm3s811/TI_Stellaris/driverlib/timer.c **** TimerRTCDisable(unsigned long ulBase)
 540:/home/cuil/workspace/arm/lm3s811/TI_Stellaris/driverlib/timer.c **** {
 3610              		.loc 1 540 0
 3611              		.cfi_startproc
 3612              		@ args = 0, pretend = 0, frame = 8
 3613              		@ frame_needed = 1, uses_anonymous_args = 0
 3614              		@ link register save eliminated.
 3615 0000 80B4     		push	{r7}
 3616              	.LCFI30:
 3617              		.cfi_def_cfa_offset 4
 3618 0002 83B0     		sub	sp, sp, #12
 3619              	.LCFI31:
 3620              		.cfi_def_cfa_offset 16
 3621 0004 00AF     		add	r7, sp, #0
 3622              		.cfi_offset 7, -4
 3623              	.LCFI32:
 3624              		.cfi_def_cfa_register 7
 3625 0006 7860     		str	r0, [r7, #4]
 541:/home/cuil/workspace/arm/lm3s811/TI_Stellaris/driverlib/timer.c ****     //
 542:/home/cuil/workspace/arm/lm3s811/TI_Stellaris/driverlib/timer.c ****     // Check the arguments.
 543:/home/cuil/workspace/arm/lm3s811/TI_Stellaris/driverlib/timer.c ****     //
 544:/home/cuil/workspace/arm/lm3s811/TI_Stellaris/driverlib/timer.c ****     ASSERT(TimerBaseValid(ulBase));
 545:/home/cuil/workspace/arm/lm3s811/TI_Stellaris/driverlib/timer.c **** 
 546:/home/cuil/workspace/arm/lm3s811/TI_Stellaris/driverlib/timer.c ****     //
 547:/home/cuil/workspace/arm/lm3s811/TI_Stellaris/driverlib/timer.c ****     // Disable RTC counting.
 548:/home/cuil/workspace/arm/lm3s811/TI_Stellaris/driverlib/timer.c ****     //
 549:/home/cuil/workspace/arm/lm3s811/TI_Stellaris/driverlib/timer.c ****     HWREG(ulBase + TIMER_O_CTL) &= ~(TIMER_CTL_RTCEN);
 3626              		.loc 1 549 0
 3627 0008 7B68     		ldr	r3, [r7, #4]
 3628 000a 03F10C03 		add	r3, r3, #12
 3629 000e 7A68     		ldr	r2, [r7, #4]
 3630 0010 02F10C02 		add	r2, r2, #12
 3631 0014 1268     		ldr	r2, [r2, #0]
 3632 0016 22F01002 		bic	r2, r2, #16
 3633 001a 1A60     		str	r2, [r3, #0]
 550:/home/cuil/workspace/arm/lm3s811/TI_Stellaris/driverlib/timer.c **** }
 3634              		.loc 1 550 0
 3635 001c 07F10C07 		add	r7, r7, #12
 3636 0020 BD46     		mov	sp, r7
 3637 0022 80BC     		pop	{r7}
 3638 0024 7047     		bx	lr
 3639              		.cfi_endproc
 3640              	.LFE10:
 3642 0026 00BF     		.section	.text.TimerPrescaleSet,"ax",%progbits
 3643              		.align	2
 3644              		.global	TimerPrescaleSet
 3645              		.thumb
 3646              		.thumb_func
 3648              	TimerPrescaleSet:
 3649              	.LFB11:
 551:/home/cuil/workspace/arm/lm3s811/TI_Stellaris/driverlib/timer.c **** 
 552:/home/cuil/workspace/arm/lm3s811/TI_Stellaris/driverlib/timer.c **** //*****************************************************************************
 553:/home/cuil/workspace/arm/lm3s811/TI_Stellaris/driverlib/timer.c **** //
 554:/home/cuil/workspace/arm/lm3s811/TI_Stellaris/driverlib/timer.c **** //! Set the timer prescale value.
 555:/home/cuil/workspace/arm/lm3s811/TI_Stellaris/driverlib/timer.c **** //!
 556:/home/cuil/workspace/arm/lm3s811/TI_Stellaris/driverlib/timer.c **** //! \param ulBase is the base address of the timer module.
 557:/home/cuil/workspace/arm/lm3s811/TI_Stellaris/driverlib/timer.c **** //! \param ulTimer specifies the timer(s) to adjust; must be one of \b TIMER_A,
 558:/home/cuil/workspace/arm/lm3s811/TI_Stellaris/driverlib/timer.c **** //! \b TIMER_B, or \b TIMER_BOTH.
 559:/home/cuil/workspace/arm/lm3s811/TI_Stellaris/driverlib/timer.c **** //! \param ulValue is the timer prescale value which must be between 0 and 255
 560:/home/cuil/workspace/arm/lm3s811/TI_Stellaris/driverlib/timer.c **** //! (inclusive) for 16/32-bit timers and between 0 and 65535 (inclusive) for
 561:/home/cuil/workspace/arm/lm3s811/TI_Stellaris/driverlib/timer.c **** //! 32/64-bit timers.
 562:/home/cuil/workspace/arm/lm3s811/TI_Stellaris/driverlib/timer.c **** //!
 563:/home/cuil/workspace/arm/lm3s811/TI_Stellaris/driverlib/timer.c **** //! This function configures the value of the input clock prescaler.  The 
 564:/home/cuil/workspace/arm/lm3s811/TI_Stellaris/driverlib/timer.c **** //! prescaler is only operational when in half-width mode and is used to extend 
 565:/home/cuil/workspace/arm/lm3s811/TI_Stellaris/driverlib/timer.c **** //! the range of the half-width timer modes. The prescaler provides the least
 566:/home/cuil/workspace/arm/lm3s811/TI_Stellaris/driverlib/timer.c **** //! significant bits when counting down in periodic and one-shot modes; in all
 567:/home/cuil/workspace/arm/lm3s811/TI_Stellaris/driverlib/timer.c **** //! other modes, the prescaler provides the most significant bits.
 568:/home/cuil/workspace/arm/lm3s811/TI_Stellaris/driverlib/timer.c **** //!
 569:/home/cuil/workspace/arm/lm3s811/TI_Stellaris/driverlib/timer.c **** //! \note The availability of the prescaler varies with the Stellaris part and
 570:/home/cuil/workspace/arm/lm3s811/TI_Stellaris/driverlib/timer.c **** //! timer mode in use.  Please consult the datasheet for the part you are using
 571:/home/cuil/workspace/arm/lm3s811/TI_Stellaris/driverlib/timer.c **** //! to determine whether this support is available.
 572:/home/cuil/workspace/arm/lm3s811/TI_Stellaris/driverlib/timer.c **** //!
 573:/home/cuil/workspace/arm/lm3s811/TI_Stellaris/driverlib/timer.c **** //! \return None.
 574:/home/cuil/workspace/arm/lm3s811/TI_Stellaris/driverlib/timer.c **** //
 575:/home/cuil/workspace/arm/lm3s811/TI_Stellaris/driverlib/timer.c **** //*****************************************************************************
 576:/home/cuil/workspace/arm/lm3s811/TI_Stellaris/driverlib/timer.c **** void
 577:/home/cuil/workspace/arm/lm3s811/TI_Stellaris/driverlib/timer.c **** TimerPrescaleSet(unsigned long ulBase, unsigned long ulTimer,
 578:/home/cuil/workspace/arm/lm3s811/TI_Stellaris/driverlib/timer.c ****                  unsigned long ulValue)
 579:/home/cuil/workspace/arm/lm3s811/TI_Stellaris/driverlib/timer.c **** {
 3650              		.loc 1 579 0
 3651              		.cfi_startproc
 3652              		@ args = 0, pretend = 0, frame = 16
 3653              		@ frame_needed = 1, uses_anonymous_args = 0
 3654              		@ link register save eliminated.
 3655 0000 80B4     		push	{r7}
 3656              	.LCFI33:
 3657              		.cfi_def_cfa_offset 4
 3658 0002 85B0     		sub	sp, sp, #20
 3659              	.LCFI34:
 3660              		.cfi_def_cfa_offset 24
 3661 0004 00AF     		add	r7, sp, #0
 3662              		.cfi_offset 7, -4
 3663              	.LCFI35:
 3664              		.cfi_def_cfa_register 7
 3665 0006 F860     		str	r0, [r7, #12]
 3666 0008 B960     		str	r1, [r7, #8]
 3667 000a 7A60     		str	r2, [r7, #4]
 580:/home/cuil/workspace/arm/lm3s811/TI_Stellaris/driverlib/timer.c ****     //
 581:/home/cuil/workspace/arm/lm3s811/TI_Stellaris/driverlib/timer.c ****     // Check the arguments.
 582:/home/cuil/workspace/arm/lm3s811/TI_Stellaris/driverlib/timer.c ****     //
 583:/home/cuil/workspace/arm/lm3s811/TI_Stellaris/driverlib/timer.c ****     ASSERT(TimerBaseValid(ulBase));
 584:/home/cuil/workspace/arm/lm3s811/TI_Stellaris/driverlib/timer.c ****     ASSERT((ulTimer == TIMER_A) || (ulTimer == TIMER_B) ||
 585:/home/cuil/workspace/arm/lm3s811/TI_Stellaris/driverlib/timer.c ****            (ulTimer == TIMER_BOTH));
 586:/home/cuil/workspace/arm/lm3s811/TI_Stellaris/driverlib/timer.c ****     ASSERT(ulValue < 256);
 587:/home/cuil/workspace/arm/lm3s811/TI_Stellaris/driverlib/timer.c **** 
 588:/home/cuil/workspace/arm/lm3s811/TI_Stellaris/driverlib/timer.c ****     //
 589:/home/cuil/workspace/arm/lm3s811/TI_Stellaris/driverlib/timer.c ****     // Set the timer A prescaler if requested.
 590:/home/cuil/workspace/arm/lm3s811/TI_Stellaris/driverlib/timer.c ****     //
 591:/home/cuil/workspace/arm/lm3s811/TI_Stellaris/driverlib/timer.c ****     if(ulTimer & TIMER_A)
 3668              		.loc 1 591 0
 3669 000c BB68     		ldr	r3, [r7, #8]
 3670 000e 03F0FF03 		and	r3, r3, #255
 3671 0012 002B     		cmp	r3, #0
 3672 0014 04D0     		beq	.L29
 592:/home/cuil/workspace/arm/lm3s811/TI_Stellaris/driverlib/timer.c ****     {
 593:/home/cuil/workspace/arm/lm3s811/TI_Stellaris/driverlib/timer.c ****         HWREG(ulBase + TIMER_O_TAPR) = ulValue;
 3673              		.loc 1 593 0
 3674 0016 FB68     		ldr	r3, [r7, #12]
 3675 0018 03F13803 		add	r3, r3, #56
 3676 001c 7A68     		ldr	r2, [r7, #4]
 3677 001e 1A60     		str	r2, [r3, #0]
 3678              	.L29:
 594:/home/cuil/workspace/arm/lm3s811/TI_Stellaris/driverlib/timer.c ****     }
 595:/home/cuil/workspace/arm/lm3s811/TI_Stellaris/driverlib/timer.c **** 
 596:/home/cuil/workspace/arm/lm3s811/TI_Stellaris/driverlib/timer.c ****     //
 597:/home/cuil/workspace/arm/lm3s811/TI_Stellaris/driverlib/timer.c ****     // Set the timer B prescaler if requested.
 598:/home/cuil/workspace/arm/lm3s811/TI_Stellaris/driverlib/timer.c ****     //
 599:/home/cuil/workspace/arm/lm3s811/TI_Stellaris/driverlib/timer.c ****     if(ulTimer & TIMER_B)
 3679              		.loc 1 599 0
 3680 0020 BB68     		ldr	r3, [r7, #8]
 3681 0022 03F47F43 		and	r3, r3, #65280
 3682 0026 002B     		cmp	r3, #0
 3683 0028 04D0     		beq	.L28
 600:/home/cuil/workspace/arm/lm3s811/TI_Stellaris/driverlib/timer.c ****     {
 601:/home/cuil/workspace/arm/lm3s811/TI_Stellaris/driverlib/timer.c ****         HWREG(ulBase + TIMER_O_TBPR) = ulValue;
 3684              		.loc 1 601 0
 3685 002a FB68     		ldr	r3, [r7, #12]
 3686 002c 03F13C03 		add	r3, r3, #60
 3687 0030 7A68     		ldr	r2, [r7, #4]
 3688 0032 1A60     		str	r2, [r3, #0]
 3689              	.L28:
 602:/home/cuil/workspace/arm/lm3s811/TI_Stellaris/driverlib/timer.c ****     }
 603:/home/cuil/workspace/arm/lm3s811/TI_Stellaris/driverlib/timer.c **** }
 3690              		.loc 1 603 0
 3691 0034 07F11407 		add	r7, r7, #20
 3692 0038 BD46     		mov	sp, r7
 3693 003a 80BC     		pop	{r7}
 3694 003c 7047     		bx	lr
 3695              		.cfi_endproc
 3696              	.LFE11:
 3698 003e 00BF     		.section	.text.TimerPrescaleGet,"ax",%progbits
 3699              		.align	2
 3700              		.global	TimerPrescaleGet
 3701              		.thumb
 3702              		.thumb_func
 3704              	TimerPrescaleGet:
 3705              	.LFB12:
 604:/home/cuil/workspace/arm/lm3s811/TI_Stellaris/driverlib/timer.c **** 
 605:/home/cuil/workspace/arm/lm3s811/TI_Stellaris/driverlib/timer.c **** //*****************************************************************************
 606:/home/cuil/workspace/arm/lm3s811/TI_Stellaris/driverlib/timer.c **** //
 607:/home/cuil/workspace/arm/lm3s811/TI_Stellaris/driverlib/timer.c **** //! Get the timer prescale value.
 608:/home/cuil/workspace/arm/lm3s811/TI_Stellaris/driverlib/timer.c **** //!
 609:/home/cuil/workspace/arm/lm3s811/TI_Stellaris/driverlib/timer.c **** //! \param ulBase is the base address of the timer module.
 610:/home/cuil/workspace/arm/lm3s811/TI_Stellaris/driverlib/timer.c **** //! \param ulTimer specifies the timer; must be one of \b TIMER_A or
 611:/home/cuil/workspace/arm/lm3s811/TI_Stellaris/driverlib/timer.c **** //! \b TIMER_B.
 612:/home/cuil/workspace/arm/lm3s811/TI_Stellaris/driverlib/timer.c **** //!
 613:/home/cuil/workspace/arm/lm3s811/TI_Stellaris/driverlib/timer.c **** //! This function gets the value of the input clock prescaler.  The prescaler
 614:/home/cuil/workspace/arm/lm3s811/TI_Stellaris/driverlib/timer.c **** //! is only operational when in half-width mode and is used to extend the range
 615:/home/cuil/workspace/arm/lm3s811/TI_Stellaris/driverlib/timer.c **** //! of the half-width timer modes. The prescaler provides the least significant
 616:/home/cuil/workspace/arm/lm3s811/TI_Stellaris/driverlib/timer.c **** //! bits when counting down in periodic and one-shot modes; in all other modes,
 617:/home/cuil/workspace/arm/lm3s811/TI_Stellaris/driverlib/timer.c **** //! the prescaler provides the most significant bits.
 618:/home/cuil/workspace/arm/lm3s811/TI_Stellaris/driverlib/timer.c **** //!
 619:/home/cuil/workspace/arm/lm3s811/TI_Stellaris/driverlib/timer.c **** //! \note The availability of the prescaler varies with the Stellaris part and
 620:/home/cuil/workspace/arm/lm3s811/TI_Stellaris/driverlib/timer.c **** //! timer mode in use.  Please consult the datasheet for the part you are using
 621:/home/cuil/workspace/arm/lm3s811/TI_Stellaris/driverlib/timer.c **** //! to determine whether this support is available.
 622:/home/cuil/workspace/arm/lm3s811/TI_Stellaris/driverlib/timer.c **** //!
 623:/home/cuil/workspace/arm/lm3s811/TI_Stellaris/driverlib/timer.c **** //! \return The value of the timer prescaler.
 624:/home/cuil/workspace/arm/lm3s811/TI_Stellaris/driverlib/timer.c **** //
 625:/home/cuil/workspace/arm/lm3s811/TI_Stellaris/driverlib/timer.c **** //*****************************************************************************
 626:/home/cuil/workspace/arm/lm3s811/TI_Stellaris/driverlib/timer.c **** unsigned long
 627:/home/cuil/workspace/arm/lm3s811/TI_Stellaris/driverlib/timer.c **** TimerPrescaleGet(unsigned long ulBase, unsigned long ulTimer)
 628:/home/cuil/workspace/arm/lm3s811/TI_Stellaris/driverlib/timer.c **** {
 3706              		.loc 1 628 0
 3707              		.cfi_startproc
 3708              		@ args = 0, pretend = 0, frame = 8
 3709              		@ frame_needed = 1, uses_anonymous_args = 0
 3710              		@ link register save eliminated.
 3711 0000 80B4     		push	{r7}
 3712              	.LCFI36:
 3713              		.cfi_def_cfa_offset 4
 3714 0002 83B0     		sub	sp, sp, #12
 3715              	.LCFI37:
 3716              		.cfi_def_cfa_offset 16
 3717 0004 00AF     		add	r7, sp, #0
 3718              		.cfi_offset 7, -4
 3719              	.LCFI38:
 3720              		.cfi_def_cfa_register 7
 3721 0006 7860     		str	r0, [r7, #4]
 3722 0008 3960     		str	r1, [r7, #0]
 629:/home/cuil/workspace/arm/lm3s811/TI_Stellaris/driverlib/timer.c ****     //
 630:/home/cuil/workspace/arm/lm3s811/TI_Stellaris/driverlib/timer.c ****     // Check the arguments.
 631:/home/cuil/workspace/arm/lm3s811/TI_Stellaris/driverlib/timer.c ****     //
 632:/home/cuil/workspace/arm/lm3s811/TI_Stellaris/driverlib/timer.c ****     ASSERT(TimerBaseValid(ulBase));
 633:/home/cuil/workspace/arm/lm3s811/TI_Stellaris/driverlib/timer.c ****     ASSERT((ulTimer == TIMER_A) || (ulTimer == TIMER_B) ||
 634:/home/cuil/workspace/arm/lm3s811/TI_Stellaris/driverlib/timer.c ****            (ulTimer == TIMER_BOTH));
 635:/home/cuil/workspace/arm/lm3s811/TI_Stellaris/driverlib/timer.c **** 
 636:/home/cuil/workspace/arm/lm3s811/TI_Stellaris/driverlib/timer.c ****     //
 637:/home/cuil/workspace/arm/lm3s811/TI_Stellaris/driverlib/timer.c ****     // Return the appropriate prescale value.
 638:/home/cuil/workspace/arm/lm3s811/TI_Stellaris/driverlib/timer.c ****     //
 639:/home/cuil/workspace/arm/lm3s811/TI_Stellaris/driverlib/timer.c ****     return((ulTimer == TIMER_A) ? HWREG(ulBase + TIMER_O_TAPR) :
 3723              		.loc 1 639 0
 3724 000a 3B68     		ldr	r3, [r7, #0]
 3725 000c FF2B     		cmp	r3, #255
 3726 000e 04D1     		bne	.L32
 3727              		.loc 1 639 0 is_stmt 0 discriminator 1
 3728 0010 7B68     		ldr	r3, [r7, #4]
 3729 0012 03F13803 		add	r3, r3, #56
 3730 0016 1B68     		ldr	r3, [r3, #0]
 3731 0018 03E0     		b	.L33
 3732              	.L32:
 640:/home/cuil/workspace/arm/lm3s811/TI_Stellaris/driverlib/timer.c ****            HWREG(ulBase + TIMER_O_TBPR));
 3733              		.loc 1 640 0 is_stmt 1 discriminator 2
 3734 001a 7B68     		ldr	r3, [r7, #4]
 3735 001c 03F13C03 		add	r3, r3, #60
 639:/home/cuil/workspace/arm/lm3s811/TI_Stellaris/driverlib/timer.c ****     return((ulTimer == TIMER_A) ? HWREG(ulBase + TIMER_O_TAPR) :
 3736              		.loc 1 639 0 discriminator 2
 3737 0020 1B68     		ldr	r3, [r3, #0]
 3738              	.L33:
 641:/home/cuil/workspace/arm/lm3s811/TI_Stellaris/driverlib/timer.c **** }
 3739              		.loc 1 641 0 discriminator 3
 3740 0022 1846     		mov	r0, r3
 3741 0024 07F10C07 		add	r7, r7, #12
 3742 0028 BD46     		mov	sp, r7
 3743 002a 80BC     		pop	{r7}
 3744 002c 7047     		bx	lr
 3745              		.cfi_endproc
 3746              	.LFE12:
 3748 002e 00BF     		.section	.text.TimerPrescaleMatchSet,"ax",%progbits
 3749              		.align	2
 3750              		.global	TimerPrescaleMatchSet
 3751              		.thumb
 3752              		.thumb_func
 3754              	TimerPrescaleMatchSet:
 3755              	.LFB13:
 642:/home/cuil/workspace/arm/lm3s811/TI_Stellaris/driverlib/timer.c **** 
 643:/home/cuil/workspace/arm/lm3s811/TI_Stellaris/driverlib/timer.c **** //*****************************************************************************
 644:/home/cuil/workspace/arm/lm3s811/TI_Stellaris/driverlib/timer.c **** //
 645:/home/cuil/workspace/arm/lm3s811/TI_Stellaris/driverlib/timer.c **** //! Set the timer prescale match value.
 646:/home/cuil/workspace/arm/lm3s811/TI_Stellaris/driverlib/timer.c **** //!
 647:/home/cuil/workspace/arm/lm3s811/TI_Stellaris/driverlib/timer.c **** //! \param ulBase is the base address of the timer module.
 648:/home/cuil/workspace/arm/lm3s811/TI_Stellaris/driverlib/timer.c **** //! \param ulTimer specifies the timer(s) to adjust; must be one of \b TIMER_A,
 649:/home/cuil/workspace/arm/lm3s811/TI_Stellaris/driverlib/timer.c **** //! \b TIMER_B, or \b TIMER_BOTH.
 650:/home/cuil/workspace/arm/lm3s811/TI_Stellaris/driverlib/timer.c **** //! \param ulValue is the timer prescale match value which must be between 0
 651:/home/cuil/workspace/arm/lm3s811/TI_Stellaris/driverlib/timer.c **** //! and 255 (inclusive) for 16/32-bit timers and between 0 and 65535
 652:/home/cuil/workspace/arm/lm3s811/TI_Stellaris/driverlib/timer.c **** //! (inclusive) for 32/64-bit timers.
 653:/home/cuil/workspace/arm/lm3s811/TI_Stellaris/driverlib/timer.c **** //!
 654:/home/cuil/workspace/arm/lm3s811/TI_Stellaris/driverlib/timer.c **** //! This function configures the value of the input clock prescaler match
 655:/home/cuil/workspace/arm/lm3s811/TI_Stellaris/driverlib/timer.c **** //! value. When in a half-width mode that uses the counter match and the
 656:/home/cuil/workspace/arm/lm3s811/TI_Stellaris/driverlib/timer.c **** //! prescaler, the prescale match effectively extends the range of the match.
 657:/home/cuil/workspace/arm/lm3s811/TI_Stellaris/driverlib/timer.c **** //! The prescaler provides the least significant bits when counting down in
 658:/home/cuil/workspace/arm/lm3s811/TI_Stellaris/driverlib/timer.c **** //! periodic and one-shot modes; in all other modes, the prescaler provides the  
 659:/home/cuil/workspace/arm/lm3s811/TI_Stellaris/driverlib/timer.c **** //! most significant bits.
 660:/home/cuil/workspace/arm/lm3s811/TI_Stellaris/driverlib/timer.c **** //!
 661:/home/cuil/workspace/arm/lm3s811/TI_Stellaris/driverlib/timer.c **** //! \note The availability of the prescaler match varies with the Stellaris
 662:/home/cuil/workspace/arm/lm3s811/TI_Stellaris/driverlib/timer.c **** //! part and timer mode in use.  Please consult the datasheet for the part you
 663:/home/cuil/workspace/arm/lm3s811/TI_Stellaris/driverlib/timer.c **** //! are using to determine whether this support is available.
 664:/home/cuil/workspace/arm/lm3s811/TI_Stellaris/driverlib/timer.c **** //!
 665:/home/cuil/workspace/arm/lm3s811/TI_Stellaris/driverlib/timer.c **** //! \return None.
 666:/home/cuil/workspace/arm/lm3s811/TI_Stellaris/driverlib/timer.c **** //
 667:/home/cuil/workspace/arm/lm3s811/TI_Stellaris/driverlib/timer.c **** //*****************************************************************************
 668:/home/cuil/workspace/arm/lm3s811/TI_Stellaris/driverlib/timer.c **** void
 669:/home/cuil/workspace/arm/lm3s811/TI_Stellaris/driverlib/timer.c **** TimerPrescaleMatchSet(unsigned long ulBase, unsigned long ulTimer,
 670:/home/cuil/workspace/arm/lm3s811/TI_Stellaris/driverlib/timer.c ****                       unsigned long ulValue)
 671:/home/cuil/workspace/arm/lm3s811/TI_Stellaris/driverlib/timer.c **** {
 3756              		.loc 1 671 0
 3757              		.cfi_startproc
 3758              		@ args = 0, pretend = 0, frame = 16
 3759              		@ frame_needed = 1, uses_anonymous_args = 0
 3760              		@ link register save eliminated.
 3761 0000 80B4     		push	{r7}
 3762              	.LCFI39:
 3763              		.cfi_def_cfa_offset 4
 3764 0002 85B0     		sub	sp, sp, #20
 3765              	.LCFI40:
 3766              		.cfi_def_cfa_offset 24
 3767 0004 00AF     		add	r7, sp, #0
 3768              		.cfi_offset 7, -4
 3769              	.LCFI41:
 3770              		.cfi_def_cfa_register 7
 3771 0006 F860     		str	r0, [r7, #12]
 3772 0008 B960     		str	r1, [r7, #8]
 3773 000a 7A60     		str	r2, [r7, #4]
 672:/home/cuil/workspace/arm/lm3s811/TI_Stellaris/driverlib/timer.c ****     //
 673:/home/cuil/workspace/arm/lm3s811/TI_Stellaris/driverlib/timer.c ****     // Check the arguments.
 674:/home/cuil/workspace/arm/lm3s811/TI_Stellaris/driverlib/timer.c ****     //
 675:/home/cuil/workspace/arm/lm3s811/TI_Stellaris/driverlib/timer.c ****     ASSERT(TimerBaseValid(ulBase));
 676:/home/cuil/workspace/arm/lm3s811/TI_Stellaris/driverlib/timer.c ****     ASSERT((ulTimer == TIMER_A) || (ulTimer == TIMER_B) ||
 677:/home/cuil/workspace/arm/lm3s811/TI_Stellaris/driverlib/timer.c ****            (ulTimer == TIMER_BOTH));
 678:/home/cuil/workspace/arm/lm3s811/TI_Stellaris/driverlib/timer.c ****     ASSERT(ulValue < 256);
 679:/home/cuil/workspace/arm/lm3s811/TI_Stellaris/driverlib/timer.c **** 
 680:/home/cuil/workspace/arm/lm3s811/TI_Stellaris/driverlib/timer.c ****     //
 681:/home/cuil/workspace/arm/lm3s811/TI_Stellaris/driverlib/timer.c ****     // Set the timer A prescale match if requested.
 682:/home/cuil/workspace/arm/lm3s811/TI_Stellaris/driverlib/timer.c ****     //
 683:/home/cuil/workspace/arm/lm3s811/TI_Stellaris/driverlib/timer.c ****     if(ulTimer & TIMER_A)
 3774              		.loc 1 683 0
 3775 000c BB68     		ldr	r3, [r7, #8]
 3776 000e 03F0FF03 		and	r3, r3, #255
 3777 0012 002B     		cmp	r3, #0
 3778 0014 04D0     		beq	.L35
 684:/home/cuil/workspace/arm/lm3s811/TI_Stellaris/driverlib/timer.c ****     {
 685:/home/cuil/workspace/arm/lm3s811/TI_Stellaris/driverlib/timer.c ****         HWREG(ulBase + TIMER_O_TAPMR) = ulValue;
 3779              		.loc 1 685 0
 3780 0016 FB68     		ldr	r3, [r7, #12]
 3781 0018 03F14003 		add	r3, r3, #64
 3782 001c 7A68     		ldr	r2, [r7, #4]
 3783 001e 1A60     		str	r2, [r3, #0]
 3784              	.L35:
 686:/home/cuil/workspace/arm/lm3s811/TI_Stellaris/driverlib/timer.c ****     }
 687:/home/cuil/workspace/arm/lm3s811/TI_Stellaris/driverlib/timer.c **** 
 688:/home/cuil/workspace/arm/lm3s811/TI_Stellaris/driverlib/timer.c ****     //
 689:/home/cuil/workspace/arm/lm3s811/TI_Stellaris/driverlib/timer.c ****     // Set the timer B prescale match if requested.
 690:/home/cuil/workspace/arm/lm3s811/TI_Stellaris/driverlib/timer.c ****     //
 691:/home/cuil/workspace/arm/lm3s811/TI_Stellaris/driverlib/timer.c ****     if(ulTimer & TIMER_B)
 3785              		.loc 1 691 0
 3786 0020 BB68     		ldr	r3, [r7, #8]
 3787 0022 03F47F43 		and	r3, r3, #65280
 3788 0026 002B     		cmp	r3, #0
 3789 0028 04D0     		beq	.L34
 692:/home/cuil/workspace/arm/lm3s811/TI_Stellaris/driverlib/timer.c ****     {
 693:/home/cuil/workspace/arm/lm3s811/TI_Stellaris/driverlib/timer.c ****         HWREG(ulBase + TIMER_O_TBPMR) = ulValue;
 3790              		.loc 1 693 0
 3791 002a FB68     		ldr	r3, [r7, #12]
 3792 002c 03F14403 		add	r3, r3, #68
 3793 0030 7A68     		ldr	r2, [r7, #4]
 3794 0032 1A60     		str	r2, [r3, #0]
 3795              	.L34:
 694:/home/cuil/workspace/arm/lm3s811/TI_Stellaris/driverlib/timer.c ****     }
 695:/home/cuil/workspace/arm/lm3s811/TI_Stellaris/driverlib/timer.c **** }
 3796              		.loc 1 695 0
 3797 0034 07F11407 		add	r7, r7, #20
 3798 0038 BD46     		mov	sp, r7
 3799 003a 80BC     		pop	{r7}
 3800 003c 7047     		bx	lr
 3801              		.cfi_endproc
 3802              	.LFE13:
 3804 003e 00BF     		.section	.text.TimerPrescaleMatchGet,"ax",%progbits
 3805              		.align	2
 3806              		.global	TimerPrescaleMatchGet
 3807              		.thumb
 3808              		.thumb_func
 3810              	TimerPrescaleMatchGet:
 3811              	.LFB14:
 696:/home/cuil/workspace/arm/lm3s811/TI_Stellaris/driverlib/timer.c **** 
 697:/home/cuil/workspace/arm/lm3s811/TI_Stellaris/driverlib/timer.c **** //*****************************************************************************
 698:/home/cuil/workspace/arm/lm3s811/TI_Stellaris/driverlib/timer.c **** //
 699:/home/cuil/workspace/arm/lm3s811/TI_Stellaris/driverlib/timer.c **** //! Get the timer prescale match value.
 700:/home/cuil/workspace/arm/lm3s811/TI_Stellaris/driverlib/timer.c **** //!
 701:/home/cuil/workspace/arm/lm3s811/TI_Stellaris/driverlib/timer.c **** //! \param ulBase is the base address of the timer module.
 702:/home/cuil/workspace/arm/lm3s811/TI_Stellaris/driverlib/timer.c **** //! \param ulTimer specifies the timer; must be one of \b TIMER_A or
 703:/home/cuil/workspace/arm/lm3s811/TI_Stellaris/driverlib/timer.c **** //! \b TIMER_B.
 704:/home/cuil/workspace/arm/lm3s811/TI_Stellaris/driverlib/timer.c **** //!
 705:/home/cuil/workspace/arm/lm3s811/TI_Stellaris/driverlib/timer.c **** //! This function gets the value of the input clock prescaler match value.
 706:/home/cuil/workspace/arm/lm3s811/TI_Stellaris/driverlib/timer.c **** //! When in a half-width mode that uses the counter match and prescaler, the
 707:/home/cuil/workspace/arm/lm3s811/TI_Stellaris/driverlib/timer.c **** //! prescale match effectively extends the range of the match. The prescaler 
 708:/home/cuil/workspace/arm/lm3s811/TI_Stellaris/driverlib/timer.c **** //! provides the least significant bits when counting down in periodic and 
 709:/home/cuil/workspace/arm/lm3s811/TI_Stellaris/driverlib/timer.c **** //! one-shot modes; in all other modes, the prescaler provides the most 
 710:/home/cuil/workspace/arm/lm3s811/TI_Stellaris/driverlib/timer.c **** //! significant bits.
 711:/home/cuil/workspace/arm/lm3s811/TI_Stellaris/driverlib/timer.c **** //!
 712:/home/cuil/workspace/arm/lm3s811/TI_Stellaris/driverlib/timer.c **** //! \note The availability of the prescaler match varies with the Stellaris
 713:/home/cuil/workspace/arm/lm3s811/TI_Stellaris/driverlib/timer.c **** //! part and timer mode in use.  Please consult the datasheet for the part you
 714:/home/cuil/workspace/arm/lm3s811/TI_Stellaris/driverlib/timer.c **** //! are using to determine whether this support is available.
 715:/home/cuil/workspace/arm/lm3s811/TI_Stellaris/driverlib/timer.c **** //!
 716:/home/cuil/workspace/arm/lm3s811/TI_Stellaris/driverlib/timer.c **** //! \return The value of the timer prescale match.
 717:/home/cuil/workspace/arm/lm3s811/TI_Stellaris/driverlib/timer.c **** //
 718:/home/cuil/workspace/arm/lm3s811/TI_Stellaris/driverlib/timer.c **** //*****************************************************************************
 719:/home/cuil/workspace/arm/lm3s811/TI_Stellaris/driverlib/timer.c **** unsigned long
 720:/home/cuil/workspace/arm/lm3s811/TI_Stellaris/driverlib/timer.c **** TimerPrescaleMatchGet(unsigned long ulBase, unsigned long ulTimer)
 721:/home/cuil/workspace/arm/lm3s811/TI_Stellaris/driverlib/timer.c **** {
 3812              		.loc 1 721 0
 3813              		.cfi_startproc
 3814              		@ args = 0, pretend = 0, frame = 8
 3815              		@ frame_needed = 1, uses_anonymous_args = 0
 3816              		@ link register save eliminated.
 3817 0000 80B4     		push	{r7}
 3818              	.LCFI42:
 3819              		.cfi_def_cfa_offset 4
 3820 0002 83B0     		sub	sp, sp, #12
 3821              	.LCFI43:
 3822              		.cfi_def_cfa_offset 16
 3823 0004 00AF     		add	r7, sp, #0
 3824              		.cfi_offset 7, -4
 3825              	.LCFI44:
 3826              		.cfi_def_cfa_register 7
 3827 0006 7860     		str	r0, [r7, #4]
 3828 0008 3960     		str	r1, [r7, #0]
 722:/home/cuil/workspace/arm/lm3s811/TI_Stellaris/driverlib/timer.c ****     //
 723:/home/cuil/workspace/arm/lm3s811/TI_Stellaris/driverlib/timer.c ****     // Check the arguments.
 724:/home/cuil/workspace/arm/lm3s811/TI_Stellaris/driverlib/timer.c ****     //
 725:/home/cuil/workspace/arm/lm3s811/TI_Stellaris/driverlib/timer.c ****     ASSERT(TimerBaseValid(ulBase));
 726:/home/cuil/workspace/arm/lm3s811/TI_Stellaris/driverlib/timer.c ****     ASSERT((ulTimer == TIMER_A) || (ulTimer == TIMER_B) ||
 727:/home/cuil/workspace/arm/lm3s811/TI_Stellaris/driverlib/timer.c ****            (ulTimer == TIMER_BOTH));
 728:/home/cuil/workspace/arm/lm3s811/TI_Stellaris/driverlib/timer.c **** 
 729:/home/cuil/workspace/arm/lm3s811/TI_Stellaris/driverlib/timer.c ****     //
 730:/home/cuil/workspace/arm/lm3s811/TI_Stellaris/driverlib/timer.c ****     // Return the appropriate prescale match value.
 731:/home/cuil/workspace/arm/lm3s811/TI_Stellaris/driverlib/timer.c ****     //
 732:/home/cuil/workspace/arm/lm3s811/TI_Stellaris/driverlib/timer.c ****     return((ulTimer == TIMER_A) ? HWREG(ulBase + TIMER_O_TAPMR) :
 3829              		.loc 1 732 0
 3830 000a 3B68     		ldr	r3, [r7, #0]
 3831 000c FF2B     		cmp	r3, #255
 3832 000e 04D1     		bne	.L38
 3833              		.loc 1 732 0 is_stmt 0 discriminator 1
 3834 0010 7B68     		ldr	r3, [r7, #4]
 3835 0012 03F14003 		add	r3, r3, #64
 3836 0016 1B68     		ldr	r3, [r3, #0]
 3837 0018 03E0     		b	.L39
 3838              	.L38:
 733:/home/cuil/workspace/arm/lm3s811/TI_Stellaris/driverlib/timer.c ****            HWREG(ulBase + TIMER_O_TBPMR));
 3839              		.loc 1 733 0 is_stmt 1 discriminator 2
 3840 001a 7B68     		ldr	r3, [r7, #4]
 3841 001c 03F14403 		add	r3, r3, #68
 732:/home/cuil/workspace/arm/lm3s811/TI_Stellaris/driverlib/timer.c ****     return((ulTimer == TIMER_A) ? HWREG(ulBase + TIMER_O_TAPMR) :
 3842              		.loc 1 732 0 discriminator 2
 3843 0020 1B68     		ldr	r3, [r3, #0]
 3844              	.L39:
 734:/home/cuil/workspace/arm/lm3s811/TI_Stellaris/driverlib/timer.c **** }
 3845              		.loc 1 734 0 discriminator 3
 3846 0022 1846     		mov	r0, r3
 3847 0024 07F10C07 		add	r7, r7, #12
 3848 0028 BD46     		mov	sp, r7
 3849 002a 80BC     		pop	{r7}
 3850 002c 7047     		bx	lr
 3851              		.cfi_endproc
 3852              	.LFE14:
 3854 002e 00BF     		.section	.text.TimerLoadSet,"ax",%progbits
 3855              		.align	2
 3856              		.global	TimerLoadSet
 3857              		.thumb
 3858              		.thumb_func
 3860              	TimerLoadSet:
 3861              	.LFB15:
 735:/home/cuil/workspace/arm/lm3s811/TI_Stellaris/driverlib/timer.c **** 
 736:/home/cuil/workspace/arm/lm3s811/TI_Stellaris/driverlib/timer.c **** //*****************************************************************************
 737:/home/cuil/workspace/arm/lm3s811/TI_Stellaris/driverlib/timer.c **** //
 738:/home/cuil/workspace/arm/lm3s811/TI_Stellaris/driverlib/timer.c **** //! Sets the timer load value.
 739:/home/cuil/workspace/arm/lm3s811/TI_Stellaris/driverlib/timer.c **** //!
 740:/home/cuil/workspace/arm/lm3s811/TI_Stellaris/driverlib/timer.c **** //! \param ulBase is the base address of the timer module.
 741:/home/cuil/workspace/arm/lm3s811/TI_Stellaris/driverlib/timer.c **** //! \param ulTimer specifies the timer(s) to adjust; must be one of \b TIMER_A,
 742:/home/cuil/workspace/arm/lm3s811/TI_Stellaris/driverlib/timer.c **** //! \b TIMER_B, or \b TIMER_BOTH.  Only \b TIMER_A should be used when the
 743:/home/cuil/workspace/arm/lm3s811/TI_Stellaris/driverlib/timer.c **** //! timer is configured for full-width operation.
 744:/home/cuil/workspace/arm/lm3s811/TI_Stellaris/driverlib/timer.c **** //! \param ulValue is the load value.
 745:/home/cuil/workspace/arm/lm3s811/TI_Stellaris/driverlib/timer.c **** //!
 746:/home/cuil/workspace/arm/lm3s811/TI_Stellaris/driverlib/timer.c **** //! This function configures the timer load value; if the timer is running then 
 747:/home/cuil/workspace/arm/lm3s811/TI_Stellaris/driverlib/timer.c **** //! the value is immediately loaded into the timer.
 748:/home/cuil/workspace/arm/lm3s811/TI_Stellaris/driverlib/timer.c **** //!
 749:/home/cuil/workspace/arm/lm3s811/TI_Stellaris/driverlib/timer.c **** //! \note This function can be used for both full- and half-width modes of
 750:/home/cuil/workspace/arm/lm3s811/TI_Stellaris/driverlib/timer.c **** //! 16/32-bit timers and for half-width modes of 32/64-bit timers.  Use
 751:/home/cuil/workspace/arm/lm3s811/TI_Stellaris/driverlib/timer.c **** //! TimerLoadSet64() for full-width modes of 32/64-bit timers.
 752:/home/cuil/workspace/arm/lm3s811/TI_Stellaris/driverlib/timer.c **** //!
 753:/home/cuil/workspace/arm/lm3s811/TI_Stellaris/driverlib/timer.c **** //! \return None.
 754:/home/cuil/workspace/arm/lm3s811/TI_Stellaris/driverlib/timer.c **** //
 755:/home/cuil/workspace/arm/lm3s811/TI_Stellaris/driverlib/timer.c **** //*****************************************************************************
 756:/home/cuil/workspace/arm/lm3s811/TI_Stellaris/driverlib/timer.c **** void
 757:/home/cuil/workspace/arm/lm3s811/TI_Stellaris/driverlib/timer.c **** TimerLoadSet(unsigned long ulBase, unsigned long ulTimer,
 758:/home/cuil/workspace/arm/lm3s811/TI_Stellaris/driverlib/timer.c ****              unsigned long ulValue)
 759:/home/cuil/workspace/arm/lm3s811/TI_Stellaris/driverlib/timer.c **** {
 3862              		.loc 1 759 0
 3863              		.cfi_startproc
 3864              		@ args = 0, pretend = 0, frame = 16
 3865              		@ frame_needed = 1, uses_anonymous_args = 0
 3866              		@ link register save eliminated.
 3867 0000 80B4     		push	{r7}
 3868              	.LCFI45:
 3869              		.cfi_def_cfa_offset 4
 3870 0002 85B0     		sub	sp, sp, #20
 3871              	.LCFI46:
 3872              		.cfi_def_cfa_offset 24
 3873 0004 00AF     		add	r7, sp, #0
 3874              		.cfi_offset 7, -4
 3875              	.LCFI47:
 3876              		.cfi_def_cfa_register 7
 3877 0006 F860     		str	r0, [r7, #12]
 3878 0008 B960     		str	r1, [r7, #8]
 3879 000a 7A60     		str	r2, [r7, #4]
 760:/home/cuil/workspace/arm/lm3s811/TI_Stellaris/driverlib/timer.c ****     //
 761:/home/cuil/workspace/arm/lm3s811/TI_Stellaris/driverlib/timer.c ****     // Check the arguments.
 762:/home/cuil/workspace/arm/lm3s811/TI_Stellaris/driverlib/timer.c ****     //
 763:/home/cuil/workspace/arm/lm3s811/TI_Stellaris/driverlib/timer.c ****     ASSERT(TimerBaseValid(ulBase));
 764:/home/cuil/workspace/arm/lm3s811/TI_Stellaris/driverlib/timer.c ****     ASSERT((ulTimer == TIMER_A) || (ulTimer == TIMER_B) ||
 765:/home/cuil/workspace/arm/lm3s811/TI_Stellaris/driverlib/timer.c ****            (ulTimer == TIMER_BOTH));
 766:/home/cuil/workspace/arm/lm3s811/TI_Stellaris/driverlib/timer.c **** 
 767:/home/cuil/workspace/arm/lm3s811/TI_Stellaris/driverlib/timer.c ****     //
 768:/home/cuil/workspace/arm/lm3s811/TI_Stellaris/driverlib/timer.c ****     // Set the timer A load value if requested.
 769:/home/cuil/workspace/arm/lm3s811/TI_Stellaris/driverlib/timer.c ****     //
 770:/home/cuil/workspace/arm/lm3s811/TI_Stellaris/driverlib/timer.c ****     if(ulTimer & TIMER_A)
 3880              		.loc 1 770 0
 3881 000c BB68     		ldr	r3, [r7, #8]
 3882 000e 03F0FF03 		and	r3, r3, #255
 3883 0012 002B     		cmp	r3, #0
 3884 0014 04D0     		beq	.L41
 771:/home/cuil/workspace/arm/lm3s811/TI_Stellaris/driverlib/timer.c ****     {
 772:/home/cuil/workspace/arm/lm3s811/TI_Stellaris/driverlib/timer.c ****         HWREG(ulBase + TIMER_O_TAILR) = ulValue;
 3885              		.loc 1 772 0
 3886 0016 FB68     		ldr	r3, [r7, #12]
 3887 0018 03F12803 		add	r3, r3, #40
 3888 001c 7A68     		ldr	r2, [r7, #4]
 3889 001e 1A60     		str	r2, [r3, #0]
 3890              	.L41:
 773:/home/cuil/workspace/arm/lm3s811/TI_Stellaris/driverlib/timer.c ****     }
 774:/home/cuil/workspace/arm/lm3s811/TI_Stellaris/driverlib/timer.c **** 
 775:/home/cuil/workspace/arm/lm3s811/TI_Stellaris/driverlib/timer.c ****     //
 776:/home/cuil/workspace/arm/lm3s811/TI_Stellaris/driverlib/timer.c ****     // Set the timer B load value if requested.
 777:/home/cuil/workspace/arm/lm3s811/TI_Stellaris/driverlib/timer.c ****     //
 778:/home/cuil/workspace/arm/lm3s811/TI_Stellaris/driverlib/timer.c ****     if(ulTimer & TIMER_B)
 3891              		.loc 1 778 0
 3892 0020 BB68     		ldr	r3, [r7, #8]
 3893 0022 03F47F43 		and	r3, r3, #65280
 3894 0026 002B     		cmp	r3, #0
 3895 0028 04D0     		beq	.L40
 779:/home/cuil/workspace/arm/lm3s811/TI_Stellaris/driverlib/timer.c ****     {
 780:/home/cuil/workspace/arm/lm3s811/TI_Stellaris/driverlib/timer.c ****         HWREG(ulBase + TIMER_O_TBILR) = ulValue;
 3896              		.loc 1 780 0
 3897 002a FB68     		ldr	r3, [r7, #12]
 3898 002c 03F12C03 		add	r3, r3, #44
 3899 0030 7A68     		ldr	r2, [r7, #4]
 3900 0032 1A60     		str	r2, [r3, #0]
 3901              	.L40:
 781:/home/cuil/workspace/arm/lm3s811/TI_Stellaris/driverlib/timer.c ****     }
 782:/home/cuil/workspace/arm/lm3s811/TI_Stellaris/driverlib/timer.c **** }
 3902              		.loc 1 782 0
 3903 0034 07F11407 		add	r7, r7, #20
 3904 0038 BD46     		mov	sp, r7
 3905 003a 80BC     		pop	{r7}
 3906 003c 7047     		bx	lr
 3907              		.cfi_endproc
 3908              	.LFE15:
 3910 003e 00BF     		.section	.text.TimerLoadGet,"ax",%progbits
 3911              		.align	2
 3912              		.global	TimerLoadGet
 3913              		.thumb
 3914              		.thumb_func
 3916              	TimerLoadGet:
 3917              	.LFB16:
 783:/home/cuil/workspace/arm/lm3s811/TI_Stellaris/driverlib/timer.c **** 
 784:/home/cuil/workspace/arm/lm3s811/TI_Stellaris/driverlib/timer.c **** //*****************************************************************************
 785:/home/cuil/workspace/arm/lm3s811/TI_Stellaris/driverlib/timer.c **** //
 786:/home/cuil/workspace/arm/lm3s811/TI_Stellaris/driverlib/timer.c **** //! Gets the timer load value.
 787:/home/cuil/workspace/arm/lm3s811/TI_Stellaris/driverlib/timer.c **** //!
 788:/home/cuil/workspace/arm/lm3s811/TI_Stellaris/driverlib/timer.c **** //! \param ulBase is the base address of the timer module.
 789:/home/cuil/workspace/arm/lm3s811/TI_Stellaris/driverlib/timer.c **** //! \param ulTimer specifies the timer; must be one of \b TIMER_A or
 790:/home/cuil/workspace/arm/lm3s811/TI_Stellaris/driverlib/timer.c **** //! \b TIMER_B.  Only \b TIMER_A should be used when the timer is configured
 791:/home/cuil/workspace/arm/lm3s811/TI_Stellaris/driverlib/timer.c **** //! for full-width operation.
 792:/home/cuil/workspace/arm/lm3s811/TI_Stellaris/driverlib/timer.c **** //!
 793:/home/cuil/workspace/arm/lm3s811/TI_Stellaris/driverlib/timer.c **** //! This function gets the currently programmed interval load value for the
 794:/home/cuil/workspace/arm/lm3s811/TI_Stellaris/driverlib/timer.c **** //! specified timer.
 795:/home/cuil/workspace/arm/lm3s811/TI_Stellaris/driverlib/timer.c **** //!
 796:/home/cuil/workspace/arm/lm3s811/TI_Stellaris/driverlib/timer.c **** //! \note This function can be used for both full- and half-width modes of
 797:/home/cuil/workspace/arm/lm3s811/TI_Stellaris/driverlib/timer.c **** //! 16/32-bit timers and for half-width modes of 32/64-bit timers.  Use
 798:/home/cuil/workspace/arm/lm3s811/TI_Stellaris/driverlib/timer.c **** //! TimerLoadGet64() for full-width modes of 32/64-bit timers.
 799:/home/cuil/workspace/arm/lm3s811/TI_Stellaris/driverlib/timer.c **** //!
 800:/home/cuil/workspace/arm/lm3s811/TI_Stellaris/driverlib/timer.c **** //! \return Returns the load value for the timer.
 801:/home/cuil/workspace/arm/lm3s811/TI_Stellaris/driverlib/timer.c **** //
 802:/home/cuil/workspace/arm/lm3s811/TI_Stellaris/driverlib/timer.c **** //*****************************************************************************
 803:/home/cuil/workspace/arm/lm3s811/TI_Stellaris/driverlib/timer.c **** unsigned long
 804:/home/cuil/workspace/arm/lm3s811/TI_Stellaris/driverlib/timer.c **** TimerLoadGet(unsigned long ulBase, unsigned long ulTimer)
 805:/home/cuil/workspace/arm/lm3s811/TI_Stellaris/driverlib/timer.c **** {
 3918              		.loc 1 805 0
 3919              		.cfi_startproc
 3920              		@ args = 0, pretend = 0, frame = 8
 3921              		@ frame_needed = 1, uses_anonymous_args = 0
 3922              		@ link register save eliminated.
 3923 0000 80B4     		push	{r7}
 3924              	.LCFI48:
 3925              		.cfi_def_cfa_offset 4
 3926 0002 83B0     		sub	sp, sp, #12
 3927              	.LCFI49:
 3928              		.cfi_def_cfa_offset 16
 3929 0004 00AF     		add	r7, sp, #0
 3930              		.cfi_offset 7, -4
 3931              	.LCFI50:
 3932              		.cfi_def_cfa_register 7
 3933 0006 7860     		str	r0, [r7, #4]
 3934 0008 3960     		str	r1, [r7, #0]
 806:/home/cuil/workspace/arm/lm3s811/TI_Stellaris/driverlib/timer.c ****     //
 807:/home/cuil/workspace/arm/lm3s811/TI_Stellaris/driverlib/timer.c ****     // Check the arguments.
 808:/home/cuil/workspace/arm/lm3s811/TI_Stellaris/driverlib/timer.c ****     //
 809:/home/cuil/workspace/arm/lm3s811/TI_Stellaris/driverlib/timer.c ****     ASSERT(TimerBaseValid(ulBase));
 810:/home/cuil/workspace/arm/lm3s811/TI_Stellaris/driverlib/timer.c ****     ASSERT((ulTimer == TIMER_A) || (ulTimer == TIMER_B));
 811:/home/cuil/workspace/arm/lm3s811/TI_Stellaris/driverlib/timer.c **** 
 812:/home/cuil/workspace/arm/lm3s811/TI_Stellaris/driverlib/timer.c ****     //
 813:/home/cuil/workspace/arm/lm3s811/TI_Stellaris/driverlib/timer.c ****     // Return the appropriate load value.
 814:/home/cuil/workspace/arm/lm3s811/TI_Stellaris/driverlib/timer.c ****     //
 815:/home/cuil/workspace/arm/lm3s811/TI_Stellaris/driverlib/timer.c ****     return((ulTimer == TIMER_A) ? HWREG(ulBase + TIMER_O_TAILR) :
 3935              		.loc 1 815 0
 3936 000a 3B68     		ldr	r3, [r7, #0]
 3937 000c FF2B     		cmp	r3, #255
 3938 000e 04D1     		bne	.L44
 3939              		.loc 1 815 0 is_stmt 0 discriminator 1
 3940 0010 7B68     		ldr	r3, [r7, #4]
 3941 0012 03F12803 		add	r3, r3, #40
 3942 0016 1B68     		ldr	r3, [r3, #0]
 3943 0018 03E0     		b	.L45
 3944              	.L44:
 816:/home/cuil/workspace/arm/lm3s811/TI_Stellaris/driverlib/timer.c ****            HWREG(ulBase + TIMER_O_TBILR));
 3945              		.loc 1 816 0 is_stmt 1 discriminator 2
 3946 001a 7B68     		ldr	r3, [r7, #4]
 3947 001c 03F12C03 		add	r3, r3, #44
 815:/home/cuil/workspace/arm/lm3s811/TI_Stellaris/driverlib/timer.c ****     return((ulTimer == TIMER_A) ? HWREG(ulBase + TIMER_O_TAILR) :
 3948              		.loc 1 815 0 discriminator 2
 3949 0020 1B68     		ldr	r3, [r3, #0]
 3950              	.L45:
 817:/home/cuil/workspace/arm/lm3s811/TI_Stellaris/driverlib/timer.c **** }
 3951              		.loc 1 817 0 discriminator 3
 3952 0022 1846     		mov	r0, r3
 3953 0024 07F10C07 		add	r7, r7, #12
 3954 0028 BD46     		mov	sp, r7
 3955 002a 80BC     		pop	{r7}
 3956 002c 7047     		bx	lr
 3957              		.cfi_endproc
 3958              	.LFE16:
 3960 002e 00BF     		.section	.text.TimerLoadSet64,"ax",%progbits
 3961              		.align	2
 3962              		.global	TimerLoadSet64
 3963              		.thumb
 3964              		.thumb_func
 3966              	TimerLoadSet64:
 3967              	.LFB17:
 818:/home/cuil/workspace/arm/lm3s811/TI_Stellaris/driverlib/timer.c **** 
 819:/home/cuil/workspace/arm/lm3s811/TI_Stellaris/driverlib/timer.c **** //*****************************************************************************
 820:/home/cuil/workspace/arm/lm3s811/TI_Stellaris/driverlib/timer.c **** //
 821:/home/cuil/workspace/arm/lm3s811/TI_Stellaris/driverlib/timer.c **** //! Sets the timer load value for a 64-bit timer.
 822:/home/cuil/workspace/arm/lm3s811/TI_Stellaris/driverlib/timer.c **** //!
 823:/home/cuil/workspace/arm/lm3s811/TI_Stellaris/driverlib/timer.c **** //! \param ulBase is the base address of the timer module.
 824:/home/cuil/workspace/arm/lm3s811/TI_Stellaris/driverlib/timer.c **** //! \param ullValue is the load value.
 825:/home/cuil/workspace/arm/lm3s811/TI_Stellaris/driverlib/timer.c **** //!
 826:/home/cuil/workspace/arm/lm3s811/TI_Stellaris/driverlib/timer.c **** //! This function configures the timer load value for a 64-bit timer; if the 
 827:/home/cuil/workspace/arm/lm3s811/TI_Stellaris/driverlib/timer.c **** //! timer is running, then the value is immediately loaded into the timer.
 828:/home/cuil/workspace/arm/lm3s811/TI_Stellaris/driverlib/timer.c **** //!
 829:/home/cuil/workspace/arm/lm3s811/TI_Stellaris/driverlib/timer.c **** //! \return None.
 830:/home/cuil/workspace/arm/lm3s811/TI_Stellaris/driverlib/timer.c **** //
 831:/home/cuil/workspace/arm/lm3s811/TI_Stellaris/driverlib/timer.c **** //*****************************************************************************
 832:/home/cuil/workspace/arm/lm3s811/TI_Stellaris/driverlib/timer.c **** void
 833:/home/cuil/workspace/arm/lm3s811/TI_Stellaris/driverlib/timer.c **** TimerLoadSet64(unsigned long ulBase, unsigned long long ullValue)
 834:/home/cuil/workspace/arm/lm3s811/TI_Stellaris/driverlib/timer.c **** {
 3968              		.loc 1 834 0
 3969              		.cfi_startproc
 3970              		@ args = 0, pretend = 0, frame = 16
 3971              		@ frame_needed = 1, uses_anonymous_args = 0
 3972              		@ link register save eliminated.
 3973 0000 B0B4     		push	{r4, r5, r7}
 3974              	.LCFI51:
 3975              		.cfi_def_cfa_offset 12
 3976 0002 85B0     		sub	sp, sp, #20
 3977              	.LCFI52:
 3978              		.cfi_def_cfa_offset 32
 3979 0004 00AF     		add	r7, sp, #0
 3980              		.cfi_offset 7, -4
 3981              		.cfi_offset 5, -8
 3982              		.cfi_offset 4, -12
 3983              	.LCFI53:
 3984              		.cfi_def_cfa_register 7
 3985 0006 F860     		str	r0, [r7, #12]
 3986 0008 C7E90023 		strd	r2, [r7]
 835:/home/cuil/workspace/arm/lm3s811/TI_Stellaris/driverlib/timer.c ****     //
 836:/home/cuil/workspace/arm/lm3s811/TI_Stellaris/driverlib/timer.c ****     // Check the arguments.
 837:/home/cuil/workspace/arm/lm3s811/TI_Stellaris/driverlib/timer.c ****     //
 838:/home/cuil/workspace/arm/lm3s811/TI_Stellaris/driverlib/timer.c ****     ASSERT(TimerBaseValid(ulBase));
 839:/home/cuil/workspace/arm/lm3s811/TI_Stellaris/driverlib/timer.c **** 
 840:/home/cuil/workspace/arm/lm3s811/TI_Stellaris/driverlib/timer.c ****     //
 841:/home/cuil/workspace/arm/lm3s811/TI_Stellaris/driverlib/timer.c ****     // Set the timer load value.  The upper 32-bits must be written before the
 842:/home/cuil/workspace/arm/lm3s811/TI_Stellaris/driverlib/timer.c ****     // lower 32-bits in order to adhere to the hardware interlocks on the
 843:/home/cuil/workspace/arm/lm3s811/TI_Stellaris/driverlib/timer.c ****     // 64-bit value.
 844:/home/cuil/workspace/arm/lm3s811/TI_Stellaris/driverlib/timer.c ****     //
 845:/home/cuil/workspace/arm/lm3s811/TI_Stellaris/driverlib/timer.c ****     HWREG(ulBase + TIMER_O_TBILR) = ullValue >> 32;
 3987              		.loc 1 845 0
 3988 000c FB68     		ldr	r3, [r7, #12]
 3989 000e 03F12C03 		add	r3, r3, #44
 3990 0012 7A68     		ldr	r2, [r7, #4]
 3991 0014 1446     		mov	r4, r2
 3992 0016 4FF00005 		mov	r5, #0
 3993 001a 2246     		mov	r2, r4
 3994 001c 1A60     		str	r2, [r3, #0]
 846:/home/cuil/workspace/arm/lm3s811/TI_Stellaris/driverlib/timer.c ****     HWREG(ulBase + TIMER_O_TAILR) = ullValue & 0xffffffff;
 3995              		.loc 1 846 0
 3996 001e FB68     		ldr	r3, [r7, #12]
 3997 0020 03F12803 		add	r3, r3, #40
 3998 0024 3A68     		ldr	r2, [r7, #0]
 3999 0026 1A60     		str	r2, [r3, #0]
 847:/home/cuil/workspace/arm/lm3s811/TI_Stellaris/driverlib/timer.c **** }
 4000              		.loc 1 847 0
 4001 0028 07F11407 		add	r7, r7, #20
 4002 002c BD46     		mov	sp, r7
 4003 002e B0BC     		pop	{r4, r5, r7}
 4004 0030 7047     		bx	lr
 4005              		.cfi_endproc
 4006              	.LFE17:
 4008 0032 00BF     		.section	.text.TimerLoadGet64,"ax",%progbits
 4009              		.align	2
 4010              		.global	TimerLoadGet64
 4011              		.thumb
 4012              		.thumb_func
 4014              	TimerLoadGet64:
 4015              	.LFB18:
 848:/home/cuil/workspace/arm/lm3s811/TI_Stellaris/driverlib/timer.c **** 
 849:/home/cuil/workspace/arm/lm3s811/TI_Stellaris/driverlib/timer.c **** //*****************************************************************************
 850:/home/cuil/workspace/arm/lm3s811/TI_Stellaris/driverlib/timer.c **** //
 851:/home/cuil/workspace/arm/lm3s811/TI_Stellaris/driverlib/timer.c **** //! Gets the timer load value for a 64-bit timer.
 852:/home/cuil/workspace/arm/lm3s811/TI_Stellaris/driverlib/timer.c **** //!
 853:/home/cuil/workspace/arm/lm3s811/TI_Stellaris/driverlib/timer.c **** //! \param ulBase is the base address of the timer module.
 854:/home/cuil/workspace/arm/lm3s811/TI_Stellaris/driverlib/timer.c **** //!
 855:/home/cuil/workspace/arm/lm3s811/TI_Stellaris/driverlib/timer.c **** //! This function gets the currently programmed interval load value for the
 856:/home/cuil/workspace/arm/lm3s811/TI_Stellaris/driverlib/timer.c **** //! specified 64-bit timer.
 857:/home/cuil/workspace/arm/lm3s811/TI_Stellaris/driverlib/timer.c **** //!
 858:/home/cuil/workspace/arm/lm3s811/TI_Stellaris/driverlib/timer.c **** //! \return Returns the load value for the timer.
 859:/home/cuil/workspace/arm/lm3s811/TI_Stellaris/driverlib/timer.c **** //
 860:/home/cuil/workspace/arm/lm3s811/TI_Stellaris/driverlib/timer.c **** //*****************************************************************************
 861:/home/cuil/workspace/arm/lm3s811/TI_Stellaris/driverlib/timer.c **** unsigned long long
 862:/home/cuil/workspace/arm/lm3s811/TI_Stellaris/driverlib/timer.c **** TimerLoadGet64(unsigned long ulBase)
 863:/home/cuil/workspace/arm/lm3s811/TI_Stellaris/driverlib/timer.c **** {
 4016              		.loc 1 863 0
 4017              		.cfi_startproc
 4018              		@ args = 0, pretend = 0, frame = 24
 4019              		@ frame_needed = 1, uses_anonymous_args = 0
 4020              		@ link register save eliminated.
 4021 0000 80B4     		push	{r7}
 4022              	.LCFI54:
 4023              		.cfi_def_cfa_offset 4
 4024 0002 87B0     		sub	sp, sp, #28
 4025              	.LCFI55:
 4026              		.cfi_def_cfa_offset 32
 4027 0004 00AF     		add	r7, sp, #0
 4028              		.cfi_offset 7, -4
 4029              	.LCFI56:
 4030              		.cfi_def_cfa_register 7
 4031 0006 7860     		str	r0, [r7, #4]
 4032              	.L48:
 864:/home/cuil/workspace/arm/lm3s811/TI_Stellaris/driverlib/timer.c ****     unsigned long ulHigh1, ulHigh2, ulLow;
 865:/home/cuil/workspace/arm/lm3s811/TI_Stellaris/driverlib/timer.c **** 
 866:/home/cuil/workspace/arm/lm3s811/TI_Stellaris/driverlib/timer.c ****     //
 867:/home/cuil/workspace/arm/lm3s811/TI_Stellaris/driverlib/timer.c ****     // Check the arguments.
 868:/home/cuil/workspace/arm/lm3s811/TI_Stellaris/driverlib/timer.c ****     //
 869:/home/cuil/workspace/arm/lm3s811/TI_Stellaris/driverlib/timer.c ****     ASSERT(TimerBaseValid(ulBase));
 870:/home/cuil/workspace/arm/lm3s811/TI_Stellaris/driverlib/timer.c **** 
 871:/home/cuil/workspace/arm/lm3s811/TI_Stellaris/driverlib/timer.c ****     //
 872:/home/cuil/workspace/arm/lm3s811/TI_Stellaris/driverlib/timer.c ****     // Read the 64-bit load value.  A read of the low 32-bits is performed
 873:/home/cuil/workspace/arm/lm3s811/TI_Stellaris/driverlib/timer.c ****     // between two reads of the upper 32-bits; if the upper 32-bit values match
 874:/home/cuil/workspace/arm/lm3s811/TI_Stellaris/driverlib/timer.c ****     // then the 64-bit value is consistent.  If they do not match, then the
 875:/home/cuil/workspace/arm/lm3s811/TI_Stellaris/driverlib/timer.c ****     // read is performed again until they do match (it should never execute the
 876:/home/cuil/workspace/arm/lm3s811/TI_Stellaris/driverlib/timer.c ****     // loop body more than twice).
 877:/home/cuil/workspace/arm/lm3s811/TI_Stellaris/driverlib/timer.c ****     //
 878:/home/cuil/workspace/arm/lm3s811/TI_Stellaris/driverlib/timer.c ****     do
 879:/home/cuil/workspace/arm/lm3s811/TI_Stellaris/driverlib/timer.c ****     {
 880:/home/cuil/workspace/arm/lm3s811/TI_Stellaris/driverlib/timer.c ****         ulHigh1 = HWREG(ulBase + TIMER_O_TBILR);
 4033              		.loc 1 880 0 discriminator 1
 4034 0008 7968     		ldr	r1, [r7, #4]
 4035 000a 01F12C01 		add	r1, r1, #44
 4036 000e 0968     		ldr	r1, [r1, #0]
 4037 0010 7961     		str	r1, [r7, #20]
 881:/home/cuil/workspace/arm/lm3s811/TI_Stellaris/driverlib/timer.c ****         ulLow = HWREG(ulBase + TIMER_O_TAILR);
 4038              		.loc 1 881 0 discriminator 1
 4039 0012 7968     		ldr	r1, [r7, #4]
 4040 0014 01F12801 		add	r1, r1, #40
 4041 0018 0968     		ldr	r1, [r1, #0]
 4042 001a 3961     		str	r1, [r7, #16]
 882:/home/cuil/workspace/arm/lm3s811/TI_Stellaris/driverlib/timer.c ****         ulHigh2 = HWREG(ulBase + TIMER_O_TBILR);
 4043              		.loc 1 882 0 discriminator 1
 4044 001c 7968     		ldr	r1, [r7, #4]
 4045 001e 01F12C01 		add	r1, r1, #44
 4046 0022 0968     		ldr	r1, [r1, #0]
 4047 0024 F960     		str	r1, [r7, #12]
 883:/home/cuil/workspace/arm/lm3s811/TI_Stellaris/driverlib/timer.c ****     }
 884:/home/cuil/workspace/arm/lm3s811/TI_Stellaris/driverlib/timer.c ****     while(ulHigh1 != ulHigh2);
 4048              		.loc 1 884 0 discriminator 1
 4049 0026 7869     		ldr	r0, [r7, #20]
 4050 0028 F968     		ldr	r1, [r7, #12]
 4051 002a 8842     		cmp	r0, r1
 4052 002c ECD1     		bne	.L48
 885:/home/cuil/workspace/arm/lm3s811/TI_Stellaris/driverlib/timer.c **** 
 886:/home/cuil/workspace/arm/lm3s811/TI_Stellaris/driverlib/timer.c ****     //
 887:/home/cuil/workspace/arm/lm3s811/TI_Stellaris/driverlib/timer.c ****     // Return the load value.
 888:/home/cuil/workspace/arm/lm3s811/TI_Stellaris/driverlib/timer.c ****     //
 889:/home/cuil/workspace/arm/lm3s811/TI_Stellaris/driverlib/timer.c ****     return(((unsigned long long)ulHigh1 << 32) | (unsigned long long)ulLow);
 4053              		.loc 1 889 0
 4054 002e 7969     		ldr	r1, [r7, #20]
 4055 0030 0846     		mov	r0, r1
 4056 0032 4FF00001 		mov	r1, #0
 4057 0036 0346     		mov	r3, r0
 4058 0038 4FF00002 		mov	r2, #0
 4059 003c 3969     		ldr	r1, [r7, #16]
 4060 003e 0846     		mov	r0, r1
 4061 0040 4FF00001 		mov	r1, #0
 4062 0044 42EA0002 		orr	r2, r2, r0
 4063 0048 43EA0103 		orr	r3, r3, r1
 890:/home/cuil/workspace/arm/lm3s811/TI_Stellaris/driverlib/timer.c **** }
 4064              		.loc 1 890 0
 4065 004c 1046     		mov	r0, r2
 4066 004e 1946     		mov	r1, r3
 4067 0050 07F11C07 		add	r7, r7, #28
 4068 0054 BD46     		mov	sp, r7
 4069 0056 80BC     		pop	{r7}
 4070 0058 7047     		bx	lr
 4071              		.cfi_endproc
 4072              	.LFE18:
 4074 005a 00BF     		.section	.text.TimerValueGet,"ax",%progbits
 4075              		.align	2
 4076              		.global	TimerValueGet
 4077              		.thumb
 4078              		.thumb_func
 4080              	TimerValueGet:
 4081              	.LFB19:
 891:/home/cuil/workspace/arm/lm3s811/TI_Stellaris/driverlib/timer.c **** 
 892:/home/cuil/workspace/arm/lm3s811/TI_Stellaris/driverlib/timer.c **** //*****************************************************************************
 893:/home/cuil/workspace/arm/lm3s811/TI_Stellaris/driverlib/timer.c **** //
 894:/home/cuil/workspace/arm/lm3s811/TI_Stellaris/driverlib/timer.c **** //! Gets the current timer value.
 895:/home/cuil/workspace/arm/lm3s811/TI_Stellaris/driverlib/timer.c **** //!
 896:/home/cuil/workspace/arm/lm3s811/TI_Stellaris/driverlib/timer.c **** //! \param ulBase is the base address of the timer module.
 897:/home/cuil/workspace/arm/lm3s811/TI_Stellaris/driverlib/timer.c **** //! \param ulTimer specifies the timer; must be one of \b TIMER_A or
 898:/home/cuil/workspace/arm/lm3s811/TI_Stellaris/driverlib/timer.c **** //! \b TIMER_B.  Only \b TIMER_A should be used when the timer is configured
 899:/home/cuil/workspace/arm/lm3s811/TI_Stellaris/driverlib/timer.c **** //! for full-width operation.
 900:/home/cuil/workspace/arm/lm3s811/TI_Stellaris/driverlib/timer.c **** //!
 901:/home/cuil/workspace/arm/lm3s811/TI_Stellaris/driverlib/timer.c **** //! This function reads the current value of the specified timer.
 902:/home/cuil/workspace/arm/lm3s811/TI_Stellaris/driverlib/timer.c **** //!
 903:/home/cuil/workspace/arm/lm3s811/TI_Stellaris/driverlib/timer.c **** //! \note This function can be used for both full- and half-width modes of
 904:/home/cuil/workspace/arm/lm3s811/TI_Stellaris/driverlib/timer.c **** //! 16/32-bit timers and for half-width modes of 32/64-bit timers.  Use
 905:/home/cuil/workspace/arm/lm3s811/TI_Stellaris/driverlib/timer.c **** //! TimerValueGet64() for full-width modes of 32/64-bit timers.
 906:/home/cuil/workspace/arm/lm3s811/TI_Stellaris/driverlib/timer.c **** //!
 907:/home/cuil/workspace/arm/lm3s811/TI_Stellaris/driverlib/timer.c **** //! \return Returns the current value of the timer.
 908:/home/cuil/workspace/arm/lm3s811/TI_Stellaris/driverlib/timer.c **** //
 909:/home/cuil/workspace/arm/lm3s811/TI_Stellaris/driverlib/timer.c **** //*****************************************************************************
 910:/home/cuil/workspace/arm/lm3s811/TI_Stellaris/driverlib/timer.c **** unsigned long
 911:/home/cuil/workspace/arm/lm3s811/TI_Stellaris/driverlib/timer.c **** TimerValueGet(unsigned long ulBase, unsigned long ulTimer)
 912:/home/cuil/workspace/arm/lm3s811/TI_Stellaris/driverlib/timer.c **** {
 4082              		.loc 1 912 0
 4083              		.cfi_startproc
 4084              		@ args = 0, pretend = 0, frame = 8
 4085              		@ frame_needed = 1, uses_anonymous_args = 0
 4086              		@ link register save eliminated.
 4087 0000 80B4     		push	{r7}
 4088              	.LCFI57:
 4089              		.cfi_def_cfa_offset 4
 4090 0002 83B0     		sub	sp, sp, #12
 4091              	.LCFI58:
 4092              		.cfi_def_cfa_offset 16
 4093 0004 00AF     		add	r7, sp, #0
 4094              		.cfi_offset 7, -4
 4095              	.LCFI59:
 4096              		.cfi_def_cfa_register 7
 4097 0006 7860     		str	r0, [r7, #4]
 4098 0008 3960     		str	r1, [r7, #0]
 913:/home/cuil/workspace/arm/lm3s811/TI_Stellaris/driverlib/timer.c ****     //
 914:/home/cuil/workspace/arm/lm3s811/TI_Stellaris/driverlib/timer.c ****     // Check the arguments.
 915:/home/cuil/workspace/arm/lm3s811/TI_Stellaris/driverlib/timer.c ****     //
 916:/home/cuil/workspace/arm/lm3s811/TI_Stellaris/driverlib/timer.c ****     ASSERT(TimerBaseValid(ulBase));
 917:/home/cuil/workspace/arm/lm3s811/TI_Stellaris/driverlib/timer.c ****     ASSERT((ulTimer == TIMER_A) || (ulTimer == TIMER_B));
 918:/home/cuil/workspace/arm/lm3s811/TI_Stellaris/driverlib/timer.c **** 
 919:/home/cuil/workspace/arm/lm3s811/TI_Stellaris/driverlib/timer.c ****     //
 920:/home/cuil/workspace/arm/lm3s811/TI_Stellaris/driverlib/timer.c ****     // Return the appropriate timer value.
 921:/home/cuil/workspace/arm/lm3s811/TI_Stellaris/driverlib/timer.c ****     //
 922:/home/cuil/workspace/arm/lm3s811/TI_Stellaris/driverlib/timer.c ****     return((ulTimer == TIMER_A) ? HWREG(ulBase + TIMER_O_TAR) :
 4099              		.loc 1 922 0
 4100 000a 3B68     		ldr	r3, [r7, #0]
 4101 000c FF2B     		cmp	r3, #255
 4102 000e 04D1     		bne	.L50
 4103              		.loc 1 922 0 is_stmt 0 discriminator 1
 4104 0010 7B68     		ldr	r3, [r7, #4]
 4105 0012 03F14803 		add	r3, r3, #72
 4106 0016 1B68     		ldr	r3, [r3, #0]
 4107 0018 03E0     		b	.L51
 4108              	.L50:
 923:/home/cuil/workspace/arm/lm3s811/TI_Stellaris/driverlib/timer.c ****            HWREG(ulBase + TIMER_O_TBR));
 4109              		.loc 1 923 0 is_stmt 1 discriminator 2
 4110 001a 7B68     		ldr	r3, [r7, #4]
 4111 001c 03F14C03 		add	r3, r3, #76
 922:/home/cuil/workspace/arm/lm3s811/TI_Stellaris/driverlib/timer.c ****     return((ulTimer == TIMER_A) ? HWREG(ulBase + TIMER_O_TAR) :
 4112              		.loc 1 922 0 discriminator 2
 4113 0020 1B68     		ldr	r3, [r3, #0]
 4114              	.L51:
 924:/home/cuil/workspace/arm/lm3s811/TI_Stellaris/driverlib/timer.c **** }
 4115              		.loc 1 924 0 discriminator 3
 4116 0022 1846     		mov	r0, r3
 4117 0024 07F10C07 		add	r7, r7, #12
 4118 0028 BD46     		mov	sp, r7
 4119 002a 80BC     		pop	{r7}
 4120 002c 7047     		bx	lr
 4121              		.cfi_endproc
 4122              	.LFE19:
 4124 002e 00BF     		.section	.text.TimerValueGet64,"ax",%progbits
 4125              		.align	2
 4126              		.global	TimerValueGet64
 4127              		.thumb
 4128              		.thumb_func
 4130              	TimerValueGet64:
 4131              	.LFB20:
 925:/home/cuil/workspace/arm/lm3s811/TI_Stellaris/driverlib/timer.c **** 
 926:/home/cuil/workspace/arm/lm3s811/TI_Stellaris/driverlib/timer.c **** //*****************************************************************************
 927:/home/cuil/workspace/arm/lm3s811/TI_Stellaris/driverlib/timer.c **** //
 928:/home/cuil/workspace/arm/lm3s811/TI_Stellaris/driverlib/timer.c **** //! Gets the current 64-bit timer value.
 929:/home/cuil/workspace/arm/lm3s811/TI_Stellaris/driverlib/timer.c **** //!
 930:/home/cuil/workspace/arm/lm3s811/TI_Stellaris/driverlib/timer.c **** //! \param ulBase is the base address of the timer module.
 931:/home/cuil/workspace/arm/lm3s811/TI_Stellaris/driverlib/timer.c **** //!
 932:/home/cuil/workspace/arm/lm3s811/TI_Stellaris/driverlib/timer.c **** //! This function reads the current value of the specified timer.
 933:/home/cuil/workspace/arm/lm3s811/TI_Stellaris/driverlib/timer.c **** //!
 934:/home/cuil/workspace/arm/lm3s811/TI_Stellaris/driverlib/timer.c **** //! \return Returns the current value of the timer.
 935:/home/cuil/workspace/arm/lm3s811/TI_Stellaris/driverlib/timer.c **** //
 936:/home/cuil/workspace/arm/lm3s811/TI_Stellaris/driverlib/timer.c **** //*****************************************************************************
 937:/home/cuil/workspace/arm/lm3s811/TI_Stellaris/driverlib/timer.c **** unsigned long long
 938:/home/cuil/workspace/arm/lm3s811/TI_Stellaris/driverlib/timer.c **** TimerValueGet64(unsigned long ulBase)
 939:/home/cuil/workspace/arm/lm3s811/TI_Stellaris/driverlib/timer.c **** {
 4132              		.loc 1 939 0
 4133              		.cfi_startproc
 4134              		@ args = 0, pretend = 0, frame = 24
 4135              		@ frame_needed = 1, uses_anonymous_args = 0
 4136              		@ link register save eliminated.
 4137 0000 80B4     		push	{r7}
 4138              	.LCFI60:
 4139              		.cfi_def_cfa_offset 4
 4140 0002 87B0     		sub	sp, sp, #28
 4141              	.LCFI61:
 4142              		.cfi_def_cfa_offset 32
 4143 0004 00AF     		add	r7, sp, #0
 4144              		.cfi_offset 7, -4
 4145              	.LCFI62:
 4146              		.cfi_def_cfa_register 7
 4147 0006 7860     		str	r0, [r7, #4]
 4148              	.L53:
 940:/home/cuil/workspace/arm/lm3s811/TI_Stellaris/driverlib/timer.c ****     unsigned long ulHigh1, ulHigh2, ulLow;
 941:/home/cuil/workspace/arm/lm3s811/TI_Stellaris/driverlib/timer.c **** 
 942:/home/cuil/workspace/arm/lm3s811/TI_Stellaris/driverlib/timer.c ****     //
 943:/home/cuil/workspace/arm/lm3s811/TI_Stellaris/driverlib/timer.c ****     // Check the arguments.
 944:/home/cuil/workspace/arm/lm3s811/TI_Stellaris/driverlib/timer.c ****     //
 945:/home/cuil/workspace/arm/lm3s811/TI_Stellaris/driverlib/timer.c ****     ASSERT(TimerBaseValid(ulBase));
 946:/home/cuil/workspace/arm/lm3s811/TI_Stellaris/driverlib/timer.c **** 
 947:/home/cuil/workspace/arm/lm3s811/TI_Stellaris/driverlib/timer.c ****     //
 948:/home/cuil/workspace/arm/lm3s811/TI_Stellaris/driverlib/timer.c ****     // Read the 64-bit timer value.  A read of the low 32-bits is performed
 949:/home/cuil/workspace/arm/lm3s811/TI_Stellaris/driverlib/timer.c ****     // between two reads of the upper 32-bits; if the upper 32-bit values match
 950:/home/cuil/workspace/arm/lm3s811/TI_Stellaris/driverlib/timer.c ****     // then the 64-bit value is consistent.  If they do not match, then the
 951:/home/cuil/workspace/arm/lm3s811/TI_Stellaris/driverlib/timer.c ****     // read is performed again until they do match (it should never execute the
 952:/home/cuil/workspace/arm/lm3s811/TI_Stellaris/driverlib/timer.c ****     // loop body more than twice).
 953:/home/cuil/workspace/arm/lm3s811/TI_Stellaris/driverlib/timer.c ****     //
 954:/home/cuil/workspace/arm/lm3s811/TI_Stellaris/driverlib/timer.c ****     do
 955:/home/cuil/workspace/arm/lm3s811/TI_Stellaris/driverlib/timer.c ****     {
 956:/home/cuil/workspace/arm/lm3s811/TI_Stellaris/driverlib/timer.c ****         ulHigh1 = HWREG(ulBase + TIMER_O_TBR);
 4149              		.loc 1 956 0 discriminator 1
 4150 0008 7968     		ldr	r1, [r7, #4]
 4151 000a 01F14C01 		add	r1, r1, #76
 4152 000e 0968     		ldr	r1, [r1, #0]
 4153 0010 7961     		str	r1, [r7, #20]
 957:/home/cuil/workspace/arm/lm3s811/TI_Stellaris/driverlib/timer.c ****         ulLow = HWREG(ulBase + TIMER_O_TAR);
 4154              		.loc 1 957 0 discriminator 1
 4155 0012 7968     		ldr	r1, [r7, #4]
 4156 0014 01F14801 		add	r1, r1, #72
 4157 0018 0968     		ldr	r1, [r1, #0]
 4158 001a 3961     		str	r1, [r7, #16]
 958:/home/cuil/workspace/arm/lm3s811/TI_Stellaris/driverlib/timer.c ****         ulHigh2 = HWREG(ulBase + TIMER_O_TBR);
 4159              		.loc 1 958 0 discriminator 1
 4160 001c 7968     		ldr	r1, [r7, #4]
 4161 001e 01F14C01 		add	r1, r1, #76
 4162 0022 0968     		ldr	r1, [r1, #0]
 4163 0024 F960     		str	r1, [r7, #12]
 959:/home/cuil/workspace/arm/lm3s811/TI_Stellaris/driverlib/timer.c ****     }
 960:/home/cuil/workspace/arm/lm3s811/TI_Stellaris/driverlib/timer.c ****     while(ulHigh1 != ulHigh2);
 4164              		.loc 1 960 0 discriminator 1
 4165 0026 7869     		ldr	r0, [r7, #20]
 4166 0028 F968     		ldr	r1, [r7, #12]
 4167 002a 8842     		cmp	r0, r1
 4168 002c ECD1     		bne	.L53
 961:/home/cuil/workspace/arm/lm3s811/TI_Stellaris/driverlib/timer.c **** 
 962:/home/cuil/workspace/arm/lm3s811/TI_Stellaris/driverlib/timer.c ****     //
 963:/home/cuil/workspace/arm/lm3s811/TI_Stellaris/driverlib/timer.c ****     // Return the timer value.
 964:/home/cuil/workspace/arm/lm3s811/TI_Stellaris/driverlib/timer.c ****     //
 965:/home/cuil/workspace/arm/lm3s811/TI_Stellaris/driverlib/timer.c ****     return(((unsigned long long)ulHigh1 << 32) | (unsigned long long)ulLow);
 4169              		.loc 1 965 0
 4170 002e 7969     		ldr	r1, [r7, #20]
 4171 0030 0846     		mov	r0, r1
 4172 0032 4FF00001 		mov	r1, #0
 4173 0036 0346     		mov	r3, r0
 4174 0038 4FF00002 		mov	r2, #0
 4175 003c 3969     		ldr	r1, [r7, #16]
 4176 003e 0846     		mov	r0, r1
 4177 0040 4FF00001 		mov	r1, #0
 4178 0044 42EA0002 		orr	r2, r2, r0
 4179 0048 43EA0103 		orr	r3, r3, r1
 966:/home/cuil/workspace/arm/lm3s811/TI_Stellaris/driverlib/timer.c **** }
 4180              		.loc 1 966 0
 4181 004c 1046     		mov	r0, r2
 4182 004e 1946     		mov	r1, r3
 4183 0050 07F11C07 		add	r7, r7, #28
 4184 0054 BD46     		mov	sp, r7
 4185 0056 80BC     		pop	{r7}
 4186 0058 7047     		bx	lr
 4187              		.cfi_endproc
 4188              	.LFE20:
 4190 005a 00BF     		.section	.text.TimerMatchSet,"ax",%progbits
 4191              		.align	2
 4192              		.global	TimerMatchSet
 4193              		.thumb
 4194              		.thumb_func
 4196              	TimerMatchSet:
 4197              	.LFB21:
 967:/home/cuil/workspace/arm/lm3s811/TI_Stellaris/driverlib/timer.c **** 
 968:/home/cuil/workspace/arm/lm3s811/TI_Stellaris/driverlib/timer.c **** //*****************************************************************************
 969:/home/cuil/workspace/arm/lm3s811/TI_Stellaris/driverlib/timer.c **** //
 970:/home/cuil/workspace/arm/lm3s811/TI_Stellaris/driverlib/timer.c **** //! Sets the timer match value.
 971:/home/cuil/workspace/arm/lm3s811/TI_Stellaris/driverlib/timer.c **** //!
 972:/home/cuil/workspace/arm/lm3s811/TI_Stellaris/driverlib/timer.c **** //! \param ulBase is the base address of the timer module.
 973:/home/cuil/workspace/arm/lm3s811/TI_Stellaris/driverlib/timer.c **** //! \param ulTimer specifies the timer(s) to adjust; must be one of \b TIMER_A,
 974:/home/cuil/workspace/arm/lm3s811/TI_Stellaris/driverlib/timer.c **** //! \b TIMER_B, or \b TIMER_BOTH.  Only \b TIMER_A should be used when the
 975:/home/cuil/workspace/arm/lm3s811/TI_Stellaris/driverlib/timer.c **** //! timer is configured for full-width operation.
 976:/home/cuil/workspace/arm/lm3s811/TI_Stellaris/driverlib/timer.c **** //! \param ulValue is the match value.
 977:/home/cuil/workspace/arm/lm3s811/TI_Stellaris/driverlib/timer.c **** //!
 978:/home/cuil/workspace/arm/lm3s811/TI_Stellaris/driverlib/timer.c **** //! This function configures the match value for a timer.  This value is used 
 979:/home/cuil/workspace/arm/lm3s811/TI_Stellaris/driverlib/timer.c **** //! in capture count mode to determine when to interrupt the processor and in 
 980:/home/cuil/workspace/arm/lm3s811/TI_Stellaris/driverlib/timer.c **** //! PWM mode to determine the duty cycle of the output signal. On some 
 981:/home/cuil/workspace/arm/lm3s811/TI_Stellaris/driverlib/timer.c **** //! Stellaris devices, match interrupts can also be generated in periodic and 
 982:/home/cuil/workspace/arm/lm3s811/TI_Stellaris/driverlib/timer.c **** //! one-shot modes.
 983:/home/cuil/workspace/arm/lm3s811/TI_Stellaris/driverlib/timer.c **** //!
 984:/home/cuil/workspace/arm/lm3s811/TI_Stellaris/driverlib/timer.c **** //! \note This function can be used for both full- and half-width modes of
 985:/home/cuil/workspace/arm/lm3s811/TI_Stellaris/driverlib/timer.c **** //! 16/32-bit timers and for half-width modes of 32/64-bit timers.  Use
 986:/home/cuil/workspace/arm/lm3s811/TI_Stellaris/driverlib/timer.c **** //! TimerMatchSet64() for full-width modes of 32/64-bit timers.
 987:/home/cuil/workspace/arm/lm3s811/TI_Stellaris/driverlib/timer.c **** //!
 988:/home/cuil/workspace/arm/lm3s811/TI_Stellaris/driverlib/timer.c **** //! \return None.
 989:/home/cuil/workspace/arm/lm3s811/TI_Stellaris/driverlib/timer.c **** //
 990:/home/cuil/workspace/arm/lm3s811/TI_Stellaris/driverlib/timer.c **** //*****************************************************************************
 991:/home/cuil/workspace/arm/lm3s811/TI_Stellaris/driverlib/timer.c **** void
 992:/home/cuil/workspace/arm/lm3s811/TI_Stellaris/driverlib/timer.c **** TimerMatchSet(unsigned long ulBase, unsigned long ulTimer,
 993:/home/cuil/workspace/arm/lm3s811/TI_Stellaris/driverlib/timer.c ****               unsigned long ulValue)
 994:/home/cuil/workspace/arm/lm3s811/TI_Stellaris/driverlib/timer.c **** {
 4198              		.loc 1 994 0
 4199              		.cfi_startproc
 4200              		@ args = 0, pretend = 0, frame = 16
 4201              		@ frame_needed = 1, uses_anonymous_args = 0
 4202              		@ link register save eliminated.
 4203 0000 80B4     		push	{r7}
 4204              	.LCFI63:
 4205              		.cfi_def_cfa_offset 4
 4206 0002 85B0     		sub	sp, sp, #20
 4207              	.LCFI64:
 4208              		.cfi_def_cfa_offset 24
 4209 0004 00AF     		add	r7, sp, #0
 4210              		.cfi_offset 7, -4
 4211              	.LCFI65:
 4212              		.cfi_def_cfa_register 7
 4213 0006 F860     		str	r0, [r7, #12]
 4214 0008 B960     		str	r1, [r7, #8]
 4215 000a 7A60     		str	r2, [r7, #4]
 995:/home/cuil/workspace/arm/lm3s811/TI_Stellaris/driverlib/timer.c ****     //
 996:/home/cuil/workspace/arm/lm3s811/TI_Stellaris/driverlib/timer.c ****     // Check the arguments.
 997:/home/cuil/workspace/arm/lm3s811/TI_Stellaris/driverlib/timer.c ****     //
 998:/home/cuil/workspace/arm/lm3s811/TI_Stellaris/driverlib/timer.c ****     ASSERT(TimerBaseValid(ulBase));
 999:/home/cuil/workspace/arm/lm3s811/TI_Stellaris/driverlib/timer.c ****     ASSERT((ulTimer == TIMER_A) || (ulTimer == TIMER_B) ||
1000:/home/cuil/workspace/arm/lm3s811/TI_Stellaris/driverlib/timer.c ****            (ulTimer == TIMER_BOTH));
1001:/home/cuil/workspace/arm/lm3s811/TI_Stellaris/driverlib/timer.c **** 
1002:/home/cuil/workspace/arm/lm3s811/TI_Stellaris/driverlib/timer.c ****     //
1003:/home/cuil/workspace/arm/lm3s811/TI_Stellaris/driverlib/timer.c ****     // Set the timer A match value if requested.
1004:/home/cuil/workspace/arm/lm3s811/TI_Stellaris/driverlib/timer.c ****     //
1005:/home/cuil/workspace/arm/lm3s811/TI_Stellaris/driverlib/timer.c ****     if(ulTimer & TIMER_A)
 4216              		.loc 1 1005 0
 4217 000c BB68     		ldr	r3, [r7, #8]
 4218 000e 03F0FF03 		and	r3, r3, #255
 4219 0012 002B     		cmp	r3, #0
 4220 0014 04D0     		beq	.L55
1006:/home/cuil/workspace/arm/lm3s811/TI_Stellaris/driverlib/timer.c ****     {
1007:/home/cuil/workspace/arm/lm3s811/TI_Stellaris/driverlib/timer.c ****         HWREG(ulBase + TIMER_O_TAMATCHR) = ulValue;
 4221              		.loc 1 1007 0
 4222 0016 FB68     		ldr	r3, [r7, #12]
 4223 0018 03F13003 		add	r3, r3, #48
 4224 001c 7A68     		ldr	r2, [r7, #4]
 4225 001e 1A60     		str	r2, [r3, #0]
 4226              	.L55:
1008:/home/cuil/workspace/arm/lm3s811/TI_Stellaris/driverlib/timer.c ****     }
1009:/home/cuil/workspace/arm/lm3s811/TI_Stellaris/driverlib/timer.c **** 
1010:/home/cuil/workspace/arm/lm3s811/TI_Stellaris/driverlib/timer.c ****     //
1011:/home/cuil/workspace/arm/lm3s811/TI_Stellaris/driverlib/timer.c ****     // Set the timer B match value if requested.
1012:/home/cuil/workspace/arm/lm3s811/TI_Stellaris/driverlib/timer.c ****     //
1013:/home/cuil/workspace/arm/lm3s811/TI_Stellaris/driverlib/timer.c ****     if(ulTimer & TIMER_B)
 4227              		.loc 1 1013 0
 4228 0020 BB68     		ldr	r3, [r7, #8]
 4229 0022 03F47F43 		and	r3, r3, #65280
 4230 0026 002B     		cmp	r3, #0
 4231 0028 04D0     		beq	.L54
1014:/home/cuil/workspace/arm/lm3s811/TI_Stellaris/driverlib/timer.c ****     {
1015:/home/cuil/workspace/arm/lm3s811/TI_Stellaris/driverlib/timer.c ****         HWREG(ulBase + TIMER_O_TBMATCHR) = ulValue;
 4232              		.loc 1 1015 0
 4233 002a FB68     		ldr	r3, [r7, #12]
 4234 002c 03F13403 		add	r3, r3, #52
 4235 0030 7A68     		ldr	r2, [r7, #4]
 4236 0032 1A60     		str	r2, [r3, #0]
 4237              	.L54:
1016:/home/cuil/workspace/arm/lm3s811/TI_Stellaris/driverlib/timer.c ****     }
1017:/home/cuil/workspace/arm/lm3s811/TI_Stellaris/driverlib/timer.c **** }
 4238              		.loc 1 1017 0
 4239 0034 07F11407 		add	r7, r7, #20
 4240 0038 BD46     		mov	sp, r7
 4241 003a 80BC     		pop	{r7}
 4242 003c 7047     		bx	lr
 4243              		.cfi_endproc
 4244              	.LFE21:
 4246 003e 00BF     		.section	.text.TimerMatchGet,"ax",%progbits
 4247              		.align	2
 4248              		.global	TimerMatchGet
 4249              		.thumb
 4250              		.thumb_func
 4252              	TimerMatchGet:
 4253              	.LFB22:
1018:/home/cuil/workspace/arm/lm3s811/TI_Stellaris/driverlib/timer.c **** 
1019:/home/cuil/workspace/arm/lm3s811/TI_Stellaris/driverlib/timer.c **** //*****************************************************************************
1020:/home/cuil/workspace/arm/lm3s811/TI_Stellaris/driverlib/timer.c **** //
1021:/home/cuil/workspace/arm/lm3s811/TI_Stellaris/driverlib/timer.c **** //! Gets the timer match value.
1022:/home/cuil/workspace/arm/lm3s811/TI_Stellaris/driverlib/timer.c **** //!
1023:/home/cuil/workspace/arm/lm3s811/TI_Stellaris/driverlib/timer.c **** //! \param ulBase is the base address of the timer module.
1024:/home/cuil/workspace/arm/lm3s811/TI_Stellaris/driverlib/timer.c **** //! \param ulTimer specifies the timer; must be one of \b TIMER_A or
1025:/home/cuil/workspace/arm/lm3s811/TI_Stellaris/driverlib/timer.c **** //! \b TIMER_B.  Only \b TIMER_A should be used when the timer is configured
1026:/home/cuil/workspace/arm/lm3s811/TI_Stellaris/driverlib/timer.c **** //! for full-width operation.
1027:/home/cuil/workspace/arm/lm3s811/TI_Stellaris/driverlib/timer.c **** //!
1028:/home/cuil/workspace/arm/lm3s811/TI_Stellaris/driverlib/timer.c **** //! This function gets the match value for the specified timer.
1029:/home/cuil/workspace/arm/lm3s811/TI_Stellaris/driverlib/timer.c **** //!
1030:/home/cuil/workspace/arm/lm3s811/TI_Stellaris/driverlib/timer.c **** //! \note This function can be used for both full- and half-width modes of
1031:/home/cuil/workspace/arm/lm3s811/TI_Stellaris/driverlib/timer.c **** //! 16/32-bit timers and for half-width modes of 32/64-bit timers.  Use
1032:/home/cuil/workspace/arm/lm3s811/TI_Stellaris/driverlib/timer.c **** //! TimerMatchGet64() for full-width modes of 32/64-bit timers.
1033:/home/cuil/workspace/arm/lm3s811/TI_Stellaris/driverlib/timer.c **** //!
1034:/home/cuil/workspace/arm/lm3s811/TI_Stellaris/driverlib/timer.c **** //! \return Returns the match value for the timer.
1035:/home/cuil/workspace/arm/lm3s811/TI_Stellaris/driverlib/timer.c **** //
1036:/home/cuil/workspace/arm/lm3s811/TI_Stellaris/driverlib/timer.c **** //*****************************************************************************
1037:/home/cuil/workspace/arm/lm3s811/TI_Stellaris/driverlib/timer.c **** unsigned long
1038:/home/cuil/workspace/arm/lm3s811/TI_Stellaris/driverlib/timer.c **** TimerMatchGet(unsigned long ulBase, unsigned long ulTimer)
1039:/home/cuil/workspace/arm/lm3s811/TI_Stellaris/driverlib/timer.c **** {
 4254              		.loc 1 1039 0
 4255              		.cfi_startproc
 4256              		@ args = 0, pretend = 0, frame = 8
 4257              		@ frame_needed = 1, uses_anonymous_args = 0
 4258              		@ link register save eliminated.
 4259 0000 80B4     		push	{r7}
 4260              	.LCFI66:
 4261              		.cfi_def_cfa_offset 4
 4262 0002 83B0     		sub	sp, sp, #12
 4263              	.LCFI67:
 4264              		.cfi_def_cfa_offset 16
 4265 0004 00AF     		add	r7, sp, #0
 4266              		.cfi_offset 7, -4
 4267              	.LCFI68:
 4268              		.cfi_def_cfa_register 7
 4269 0006 7860     		str	r0, [r7, #4]
 4270 0008 3960     		str	r1, [r7, #0]
1040:/home/cuil/workspace/arm/lm3s811/TI_Stellaris/driverlib/timer.c ****     //
1041:/home/cuil/workspace/arm/lm3s811/TI_Stellaris/driverlib/timer.c ****     // Check the arguments.
1042:/home/cuil/workspace/arm/lm3s811/TI_Stellaris/driverlib/timer.c ****     //
1043:/home/cuil/workspace/arm/lm3s811/TI_Stellaris/driverlib/timer.c ****     ASSERT(TimerBaseValid(ulBase));
1044:/home/cuil/workspace/arm/lm3s811/TI_Stellaris/driverlib/timer.c ****     ASSERT((ulTimer == TIMER_A) || (ulTimer == TIMER_B));
1045:/home/cuil/workspace/arm/lm3s811/TI_Stellaris/driverlib/timer.c **** 
1046:/home/cuil/workspace/arm/lm3s811/TI_Stellaris/driverlib/timer.c ****     //
1047:/home/cuil/workspace/arm/lm3s811/TI_Stellaris/driverlib/timer.c ****     // Return the appropriate match value.
1048:/home/cuil/workspace/arm/lm3s811/TI_Stellaris/driverlib/timer.c ****     //
1049:/home/cuil/workspace/arm/lm3s811/TI_Stellaris/driverlib/timer.c ****     return((ulTimer == TIMER_A) ? HWREG(ulBase + TIMER_O_TAMATCHR) :
 4271              		.loc 1 1049 0
 4272 000a 3B68     		ldr	r3, [r7, #0]
 4273 000c FF2B     		cmp	r3, #255
 4274 000e 04D1     		bne	.L58
 4275              		.loc 1 1049 0 is_stmt 0 discriminator 1
 4276 0010 7B68     		ldr	r3, [r7, #4]
 4277 0012 03F13003 		add	r3, r3, #48
 4278 0016 1B68     		ldr	r3, [r3, #0]
 4279 0018 03E0     		b	.L59
 4280              	.L58:
1050:/home/cuil/workspace/arm/lm3s811/TI_Stellaris/driverlib/timer.c ****            HWREG(ulBase + TIMER_O_TBMATCHR));
 4281              		.loc 1 1050 0 is_stmt 1 discriminator 2
 4282 001a 7B68     		ldr	r3, [r7, #4]
 4283 001c 03F13403 		add	r3, r3, #52
1049:/home/cuil/workspace/arm/lm3s811/TI_Stellaris/driverlib/timer.c ****     return((ulTimer == TIMER_A) ? HWREG(ulBase + TIMER_O_TAMATCHR) :
 4284              		.loc 1 1049 0 discriminator 2
 4285 0020 1B68     		ldr	r3, [r3, #0]
 4286              	.L59:
1051:/home/cuil/workspace/arm/lm3s811/TI_Stellaris/driverlib/timer.c **** }
 4287              		.loc 1 1051 0 discriminator 3
 4288 0022 1846     		mov	r0, r3
 4289 0024 07F10C07 		add	r7, r7, #12
 4290 0028 BD46     		mov	sp, r7
 4291 002a 80BC     		pop	{r7}
 4292 002c 7047     		bx	lr
 4293              		.cfi_endproc
 4294              	.LFE22:
 4296 002e 00BF     		.section	.text.TimerMatchSet64,"ax",%progbits
 4297              		.align	2
 4298              		.global	TimerMatchSet64
 4299              		.thumb
 4300              		.thumb_func
 4302              	TimerMatchSet64:
 4303              	.LFB23:
1052:/home/cuil/workspace/arm/lm3s811/TI_Stellaris/driverlib/timer.c **** 
1053:/home/cuil/workspace/arm/lm3s811/TI_Stellaris/driverlib/timer.c **** //*****************************************************************************
1054:/home/cuil/workspace/arm/lm3s811/TI_Stellaris/driverlib/timer.c **** //
1055:/home/cuil/workspace/arm/lm3s811/TI_Stellaris/driverlib/timer.c **** //! Sets the timer match value for a 64-bit timer.
1056:/home/cuil/workspace/arm/lm3s811/TI_Stellaris/driverlib/timer.c **** //!
1057:/home/cuil/workspace/arm/lm3s811/TI_Stellaris/driverlib/timer.c **** //! \param ulBase is the base address of the timer module.
1058:/home/cuil/workspace/arm/lm3s811/TI_Stellaris/driverlib/timer.c **** //! \param ullValue is the match value.
1059:/home/cuil/workspace/arm/lm3s811/TI_Stellaris/driverlib/timer.c **** //!
1060:/home/cuil/workspace/arm/lm3s811/TI_Stellaris/driverlib/timer.c **** //! This function configures the match value for a timer.  This value is used 
1061:/home/cuil/workspace/arm/lm3s811/TI_Stellaris/driverlib/timer.c **** //! in capture count mode to determine when to interrupt the processor and in 
1062:/home/cuil/workspace/arm/lm3s811/TI_Stellaris/driverlib/timer.c **** //! PWM mode to determine the duty cycle of the output signal.
1063:/home/cuil/workspace/arm/lm3s811/TI_Stellaris/driverlib/timer.c **** //!
1064:/home/cuil/workspace/arm/lm3s811/TI_Stellaris/driverlib/timer.c **** //! \return None.
1065:/home/cuil/workspace/arm/lm3s811/TI_Stellaris/driverlib/timer.c **** //
1066:/home/cuil/workspace/arm/lm3s811/TI_Stellaris/driverlib/timer.c **** //*****************************************************************************
1067:/home/cuil/workspace/arm/lm3s811/TI_Stellaris/driverlib/timer.c **** void
1068:/home/cuil/workspace/arm/lm3s811/TI_Stellaris/driverlib/timer.c **** TimerMatchSet64(unsigned long ulBase, unsigned long long ullValue)
1069:/home/cuil/workspace/arm/lm3s811/TI_Stellaris/driverlib/timer.c **** {
 4304              		.loc 1 1069 0
 4305              		.cfi_startproc
 4306              		@ args = 0, pretend = 0, frame = 16
 4307              		@ frame_needed = 1, uses_anonymous_args = 0
 4308              		@ link register save eliminated.
 4309 0000 B0B4     		push	{r4, r5, r7}
 4310              	.LCFI69:
 4311              		.cfi_def_cfa_offset 12
 4312 0002 85B0     		sub	sp, sp, #20
 4313              	.LCFI70:
 4314              		.cfi_def_cfa_offset 32
 4315 0004 00AF     		add	r7, sp, #0
 4316              		.cfi_offset 7, -4
 4317              		.cfi_offset 5, -8
 4318              		.cfi_offset 4, -12
 4319              	.LCFI71:
 4320              		.cfi_def_cfa_register 7
 4321 0006 F860     		str	r0, [r7, #12]
 4322 0008 C7E90023 		strd	r2, [r7]
1070:/home/cuil/workspace/arm/lm3s811/TI_Stellaris/driverlib/timer.c ****     //
1071:/home/cuil/workspace/arm/lm3s811/TI_Stellaris/driverlib/timer.c ****     // Check the arguments.
1072:/home/cuil/workspace/arm/lm3s811/TI_Stellaris/driverlib/timer.c ****     //
1073:/home/cuil/workspace/arm/lm3s811/TI_Stellaris/driverlib/timer.c ****     ASSERT(TimerBaseValid(ulBase));
1074:/home/cuil/workspace/arm/lm3s811/TI_Stellaris/driverlib/timer.c **** 
1075:/home/cuil/workspace/arm/lm3s811/TI_Stellaris/driverlib/timer.c ****     //
1076:/home/cuil/workspace/arm/lm3s811/TI_Stellaris/driverlib/timer.c ****     // Set the timer match value.  The upper 32-bits must be written before the
1077:/home/cuil/workspace/arm/lm3s811/TI_Stellaris/driverlib/timer.c ****     // lower 32-bits in order to adhere to the hardware interlocks on the
1078:/home/cuil/workspace/arm/lm3s811/TI_Stellaris/driverlib/timer.c ****     // 64-bit value.
1079:/home/cuil/workspace/arm/lm3s811/TI_Stellaris/driverlib/timer.c ****     //
1080:/home/cuil/workspace/arm/lm3s811/TI_Stellaris/driverlib/timer.c ****     HWREG(ulBase + TIMER_O_TBMATCHR) = ullValue >> 32;
 4323              		.loc 1 1080 0
 4324 000c FB68     		ldr	r3, [r7, #12]
 4325 000e 03F13403 		add	r3, r3, #52
 4326 0012 7A68     		ldr	r2, [r7, #4]
 4327 0014 1446     		mov	r4, r2
 4328 0016 4FF00005 		mov	r5, #0
 4329 001a 2246     		mov	r2, r4
 4330 001c 1A60     		str	r2, [r3, #0]
1081:/home/cuil/workspace/arm/lm3s811/TI_Stellaris/driverlib/timer.c ****     HWREG(ulBase + TIMER_O_TAMATCHR) = ullValue & 0xffffffff;
 4331              		.loc 1 1081 0
 4332 001e FB68     		ldr	r3, [r7, #12]
 4333 0020 03F13003 		add	r3, r3, #48
 4334 0024 3A68     		ldr	r2, [r7, #0]
 4335 0026 1A60     		str	r2, [r3, #0]
1082:/home/cuil/workspace/arm/lm3s811/TI_Stellaris/driverlib/timer.c **** }
 4336              		.loc 1 1082 0
 4337 0028 07F11407 		add	r7, r7, #20
 4338 002c BD46     		mov	sp, r7
 4339 002e B0BC     		pop	{r4, r5, r7}
 4340 0030 7047     		bx	lr
 4341              		.cfi_endproc
 4342              	.LFE23:
 4344 0032 00BF     		.section	.text.TimerMatchGet64,"ax",%progbits
 4345              		.align	2
 4346              		.global	TimerMatchGet64
 4347              		.thumb
 4348              		.thumb_func
 4350              	TimerMatchGet64:
 4351              	.LFB24:
1083:/home/cuil/workspace/arm/lm3s811/TI_Stellaris/driverlib/timer.c **** 
1084:/home/cuil/workspace/arm/lm3s811/TI_Stellaris/driverlib/timer.c **** //*****************************************************************************
1085:/home/cuil/workspace/arm/lm3s811/TI_Stellaris/driverlib/timer.c **** //
1086:/home/cuil/workspace/arm/lm3s811/TI_Stellaris/driverlib/timer.c **** //! Gets the timer match value for a 64-bit timer.
1087:/home/cuil/workspace/arm/lm3s811/TI_Stellaris/driverlib/timer.c **** //!
1088:/home/cuil/workspace/arm/lm3s811/TI_Stellaris/driverlib/timer.c **** //! \param ulBase is the base address of the timer module.
1089:/home/cuil/workspace/arm/lm3s811/TI_Stellaris/driverlib/timer.c **** //!
1090:/home/cuil/workspace/arm/lm3s811/TI_Stellaris/driverlib/timer.c **** //! This function gets the match value for the specified timer.
1091:/home/cuil/workspace/arm/lm3s811/TI_Stellaris/driverlib/timer.c **** //!
1092:/home/cuil/workspace/arm/lm3s811/TI_Stellaris/driverlib/timer.c **** //! \return Returns the match value for the timer.
1093:/home/cuil/workspace/arm/lm3s811/TI_Stellaris/driverlib/timer.c **** //
1094:/home/cuil/workspace/arm/lm3s811/TI_Stellaris/driverlib/timer.c **** //*****************************************************************************
1095:/home/cuil/workspace/arm/lm3s811/TI_Stellaris/driverlib/timer.c **** unsigned long long
1096:/home/cuil/workspace/arm/lm3s811/TI_Stellaris/driverlib/timer.c **** TimerMatchGet64(unsigned long ulBase)
1097:/home/cuil/workspace/arm/lm3s811/TI_Stellaris/driverlib/timer.c **** {
 4352              		.loc 1 1097 0
 4353              		.cfi_startproc
 4354              		@ args = 0, pretend = 0, frame = 24
 4355              		@ frame_needed = 1, uses_anonymous_args = 0
 4356              		@ link register save eliminated.
 4357 0000 80B4     		push	{r7}
 4358              	.LCFI72:
 4359              		.cfi_def_cfa_offset 4
 4360 0002 87B0     		sub	sp, sp, #28
 4361              	.LCFI73:
 4362              		.cfi_def_cfa_offset 32
 4363 0004 00AF     		add	r7, sp, #0
 4364              		.cfi_offset 7, -4
 4365              	.LCFI74:
 4366              		.cfi_def_cfa_register 7
 4367 0006 7860     		str	r0, [r7, #4]
 4368              	.L62:
1098:/home/cuil/workspace/arm/lm3s811/TI_Stellaris/driverlib/timer.c ****     unsigned long ulHigh1, ulHigh2, ulLow;
1099:/home/cuil/workspace/arm/lm3s811/TI_Stellaris/driverlib/timer.c **** 
1100:/home/cuil/workspace/arm/lm3s811/TI_Stellaris/driverlib/timer.c ****     //
1101:/home/cuil/workspace/arm/lm3s811/TI_Stellaris/driverlib/timer.c ****     // Check the arguments.
1102:/home/cuil/workspace/arm/lm3s811/TI_Stellaris/driverlib/timer.c ****     //
1103:/home/cuil/workspace/arm/lm3s811/TI_Stellaris/driverlib/timer.c ****     ASSERT(TimerBaseValid(ulBase));
1104:/home/cuil/workspace/arm/lm3s811/TI_Stellaris/driverlib/timer.c **** 
1105:/home/cuil/workspace/arm/lm3s811/TI_Stellaris/driverlib/timer.c ****     //
1106:/home/cuil/workspace/arm/lm3s811/TI_Stellaris/driverlib/timer.c ****     // Read the 64-bit match value.  A read of the low 32-bits is performed
1107:/home/cuil/workspace/arm/lm3s811/TI_Stellaris/driverlib/timer.c ****     // between two reads of the upper 32-bits; if the upper 32-bit values match
1108:/home/cuil/workspace/arm/lm3s811/TI_Stellaris/driverlib/timer.c ****     // then the 64-bit value is consistent.  If they do not match, then the
1109:/home/cuil/workspace/arm/lm3s811/TI_Stellaris/driverlib/timer.c ****     // read is performed again until they do match (it should never execute the
1110:/home/cuil/workspace/arm/lm3s811/TI_Stellaris/driverlib/timer.c ****     // loop body more than twice).
1111:/home/cuil/workspace/arm/lm3s811/TI_Stellaris/driverlib/timer.c ****     //
1112:/home/cuil/workspace/arm/lm3s811/TI_Stellaris/driverlib/timer.c ****     do
1113:/home/cuil/workspace/arm/lm3s811/TI_Stellaris/driverlib/timer.c ****     {
1114:/home/cuil/workspace/arm/lm3s811/TI_Stellaris/driverlib/timer.c ****         ulHigh1 = HWREG(ulBase + TIMER_O_TBMATCHR);
 4369              		.loc 1 1114 0 discriminator 1
 4370 0008 7968     		ldr	r1, [r7, #4]
 4371 000a 01F13401 		add	r1, r1, #52
 4372 000e 0968     		ldr	r1, [r1, #0]
 4373 0010 7961     		str	r1, [r7, #20]
1115:/home/cuil/workspace/arm/lm3s811/TI_Stellaris/driverlib/timer.c ****         ulLow = HWREG(ulBase + TIMER_O_TAMATCHR);
 4374              		.loc 1 1115 0 discriminator 1
 4375 0012 7968     		ldr	r1, [r7, #4]
 4376 0014 01F13001 		add	r1, r1, #48
 4377 0018 0968     		ldr	r1, [r1, #0]
 4378 001a 3961     		str	r1, [r7, #16]
1116:/home/cuil/workspace/arm/lm3s811/TI_Stellaris/driverlib/timer.c ****         ulHigh2 = HWREG(ulBase + TIMER_O_TBMATCHR);
 4379              		.loc 1 1116 0 discriminator 1
 4380 001c 7968     		ldr	r1, [r7, #4]
 4381 001e 01F13401 		add	r1, r1, #52
 4382 0022 0968     		ldr	r1, [r1, #0]
 4383 0024 F960     		str	r1, [r7, #12]
1117:/home/cuil/workspace/arm/lm3s811/TI_Stellaris/driverlib/timer.c ****     }
1118:/home/cuil/workspace/arm/lm3s811/TI_Stellaris/driverlib/timer.c ****     while(ulHigh1 != ulHigh2);
 4384              		.loc 1 1118 0 discriminator 1
 4385 0026 7869     		ldr	r0, [r7, #20]
 4386 0028 F968     		ldr	r1, [r7, #12]
 4387 002a 8842     		cmp	r0, r1
 4388 002c ECD1     		bne	.L62
1119:/home/cuil/workspace/arm/lm3s811/TI_Stellaris/driverlib/timer.c **** 
1120:/home/cuil/workspace/arm/lm3s811/TI_Stellaris/driverlib/timer.c ****     //
1121:/home/cuil/workspace/arm/lm3s811/TI_Stellaris/driverlib/timer.c ****     // Return the match value.
1122:/home/cuil/workspace/arm/lm3s811/TI_Stellaris/driverlib/timer.c ****     //
1123:/home/cuil/workspace/arm/lm3s811/TI_Stellaris/driverlib/timer.c ****     return(((unsigned long long)ulHigh1 << 32) | (unsigned long long)ulLow);
 4389              		.loc 1 1123 0
 4390 002e 7969     		ldr	r1, [r7, #20]
 4391 0030 0846     		mov	r0, r1
 4392 0032 4FF00001 		mov	r1, #0
 4393 0036 0346     		mov	r3, r0
 4394 0038 4FF00002 		mov	r2, #0
 4395 003c 3969     		ldr	r1, [r7, #16]
 4396 003e 0846     		mov	r0, r1
 4397 0040 4FF00001 		mov	r1, #0
 4398 0044 42EA0002 		orr	r2, r2, r0
 4399 0048 43EA0103 		orr	r3, r3, r1
1124:/home/cuil/workspace/arm/lm3s811/TI_Stellaris/driverlib/timer.c **** }
 4400              		.loc 1 1124 0
 4401 004c 1046     		mov	r0, r2
 4402 004e 1946     		mov	r1, r3
 4403 0050 07F11C07 		add	r7, r7, #28
 4404 0054 BD46     		mov	sp, r7
 4405 0056 80BC     		pop	{r7}
 4406 0058 7047     		bx	lr
 4407              		.cfi_endproc
 4408              	.LFE24:
 4410 005a 00BF     		.section	.text.TimerIntRegister,"ax",%progbits
 4411              		.align	2
 4412              		.global	TimerIntRegister
 4413              		.thumb
 4414              		.thumb_func
 4416              	TimerIntRegister:
 4417              	.LFB25:
1125:/home/cuil/workspace/arm/lm3s811/TI_Stellaris/driverlib/timer.c **** 
1126:/home/cuil/workspace/arm/lm3s811/TI_Stellaris/driverlib/timer.c **** //*****************************************************************************
1127:/home/cuil/workspace/arm/lm3s811/TI_Stellaris/driverlib/timer.c **** //
1128:/home/cuil/workspace/arm/lm3s811/TI_Stellaris/driverlib/timer.c **** //! Registers an interrupt handler for the timer interrupt.
1129:/home/cuil/workspace/arm/lm3s811/TI_Stellaris/driverlib/timer.c **** //!
1130:/home/cuil/workspace/arm/lm3s811/TI_Stellaris/driverlib/timer.c **** //! \param ulBase is the base address of the timer module.
1131:/home/cuil/workspace/arm/lm3s811/TI_Stellaris/driverlib/timer.c **** //! \param ulTimer specifies the timer(s); must be one of \b TIMER_A,
1132:/home/cuil/workspace/arm/lm3s811/TI_Stellaris/driverlib/timer.c **** //! \b TIMER_B, or \b TIMER_BOTH.
1133:/home/cuil/workspace/arm/lm3s811/TI_Stellaris/driverlib/timer.c **** //! \param pfnHandler is a pointer to the function to be called when the timer
1134:/home/cuil/workspace/arm/lm3s811/TI_Stellaris/driverlib/timer.c **** //! interrupt occurs.
1135:/home/cuil/workspace/arm/lm3s811/TI_Stellaris/driverlib/timer.c **** //!
1136:/home/cuil/workspace/arm/lm3s811/TI_Stellaris/driverlib/timer.c **** //! This function registers the handler to be called when a timer interrupt 
1137:/home/cuil/workspace/arm/lm3s811/TI_Stellaris/driverlib/timer.c **** //! occurs. In addition, this function enables the global interrupt in the 
1138:/home/cuil/workspace/arm/lm3s811/TI_Stellaris/driverlib/timer.c **** //! interrupt controller; specific timer interrupts must be enabled via 
1139:/home/cuil/workspace/arm/lm3s811/TI_Stellaris/driverlib/timer.c **** //! TimerIntEnable(). It is the interrupt handler's responsibility to clear the 
1140:/home/cuil/workspace/arm/lm3s811/TI_Stellaris/driverlib/timer.c **** //! interrupt source via TimerIntClear().
1141:/home/cuil/workspace/arm/lm3s811/TI_Stellaris/driverlib/timer.c **** //!
1142:/home/cuil/workspace/arm/lm3s811/TI_Stellaris/driverlib/timer.c **** //! \sa IntRegister() for important information about registering interrupt
1143:/home/cuil/workspace/arm/lm3s811/TI_Stellaris/driverlib/timer.c **** //! handlers.
1144:/home/cuil/workspace/arm/lm3s811/TI_Stellaris/driverlib/timer.c **** //!
1145:/home/cuil/workspace/arm/lm3s811/TI_Stellaris/driverlib/timer.c **** //! \return None.
1146:/home/cuil/workspace/arm/lm3s811/TI_Stellaris/driverlib/timer.c **** //
1147:/home/cuil/workspace/arm/lm3s811/TI_Stellaris/driverlib/timer.c **** //*****************************************************************************
1148:/home/cuil/workspace/arm/lm3s811/TI_Stellaris/driverlib/timer.c **** void
1149:/home/cuil/workspace/arm/lm3s811/TI_Stellaris/driverlib/timer.c **** TimerIntRegister(unsigned long ulBase, unsigned long ulTimer,
1150:/home/cuil/workspace/arm/lm3s811/TI_Stellaris/driverlib/timer.c ****                  void (*pfnHandler)(void))
1151:/home/cuil/workspace/arm/lm3s811/TI_Stellaris/driverlib/timer.c **** {
 4418              		.loc 1 1151 0
 4419              		.cfi_startproc
 4420              		@ args = 0, pretend = 0, frame = 16
 4421              		@ frame_needed = 1, uses_anonymous_args = 0
 4422 0000 80B5     		push	{r7, lr}
 4423              	.LCFI75:
 4424              		.cfi_def_cfa_offset 8
 4425 0002 84B0     		sub	sp, sp, #16
 4426              	.LCFI76:
 4427              		.cfi_def_cfa_offset 24
 4428 0004 00AF     		add	r7, sp, #0
 4429              		.cfi_offset 14, -4
 4430              		.cfi_offset 7, -8
 4431              	.LCFI77:
 4432              		.cfi_def_cfa_register 7
 4433 0006 F860     		str	r0, [r7, #12]
 4434 0008 B960     		str	r1, [r7, #8]
 4435 000a 7A60     		str	r2, [r7, #4]
1152:/home/cuil/workspace/arm/lm3s811/TI_Stellaris/driverlib/timer.c ****     //
1153:/home/cuil/workspace/arm/lm3s811/TI_Stellaris/driverlib/timer.c ****     // Check the arguments.
1154:/home/cuil/workspace/arm/lm3s811/TI_Stellaris/driverlib/timer.c ****     //
1155:/home/cuil/workspace/arm/lm3s811/TI_Stellaris/driverlib/timer.c ****     ASSERT(TimerBaseValid(ulBase));
1156:/home/cuil/workspace/arm/lm3s811/TI_Stellaris/driverlib/timer.c ****     ASSERT((ulTimer == TIMER_A) || (ulTimer == TIMER_B) ||
1157:/home/cuil/workspace/arm/lm3s811/TI_Stellaris/driverlib/timer.c ****            (ulTimer == TIMER_BOTH));
1158:/home/cuil/workspace/arm/lm3s811/TI_Stellaris/driverlib/timer.c **** 
1159:/home/cuil/workspace/arm/lm3s811/TI_Stellaris/driverlib/timer.c ****     //
1160:/home/cuil/workspace/arm/lm3s811/TI_Stellaris/driverlib/timer.c ****     // Get the interrupt number for this timer module.
1161:/home/cuil/workspace/arm/lm3s811/TI_Stellaris/driverlib/timer.c ****     //
1162:/home/cuil/workspace/arm/lm3s811/TI_Stellaris/driverlib/timer.c ****     ulBase = TimerIntNumberGet(ulBase);
 4436              		.loc 1 1162 0
 4437 000c F868     		ldr	r0, [r7, #12]
 4438 000e FFF7FEFF 		bl	TimerIntNumberGet
 4439 0012 0346     		mov	r3, r0
 4440 0014 FB60     		str	r3, [r7, #12]
1163:/home/cuil/workspace/arm/lm3s811/TI_Stellaris/driverlib/timer.c **** 
1164:/home/cuil/workspace/arm/lm3s811/TI_Stellaris/driverlib/timer.c ****     //
1165:/home/cuil/workspace/arm/lm3s811/TI_Stellaris/driverlib/timer.c ****     // Register an interrupt handler for timer A if requested.
1166:/home/cuil/workspace/arm/lm3s811/TI_Stellaris/driverlib/timer.c ****     //
1167:/home/cuil/workspace/arm/lm3s811/TI_Stellaris/driverlib/timer.c ****     if(ulTimer & TIMER_A)
 4441              		.loc 1 1167 0
 4442 0016 BB68     		ldr	r3, [r7, #8]
 4443 0018 03F0FF03 		and	r3, r3, #255
 4444 001c 002B     		cmp	r3, #0
 4445 001e 06D0     		beq	.L64
1168:/home/cuil/workspace/arm/lm3s811/TI_Stellaris/driverlib/timer.c ****     {
1169:/home/cuil/workspace/arm/lm3s811/TI_Stellaris/driverlib/timer.c ****         //
1170:/home/cuil/workspace/arm/lm3s811/TI_Stellaris/driverlib/timer.c ****         // Register the interrupt handler.
1171:/home/cuil/workspace/arm/lm3s811/TI_Stellaris/driverlib/timer.c ****         //
1172:/home/cuil/workspace/arm/lm3s811/TI_Stellaris/driverlib/timer.c ****         IntRegister(ulBase, pfnHandler);
 4446              		.loc 1 1172 0
 4447 0020 F868     		ldr	r0, [r7, #12]
 4448 0022 7968     		ldr	r1, [r7, #4]
 4449 0024 FFF7FEFF 		bl	IntRegister
1173:/home/cuil/workspace/arm/lm3s811/TI_Stellaris/driverlib/timer.c **** 
1174:/home/cuil/workspace/arm/lm3s811/TI_Stellaris/driverlib/timer.c ****         //
1175:/home/cuil/workspace/arm/lm3s811/TI_Stellaris/driverlib/timer.c ****         // Enable the interrupt.
1176:/home/cuil/workspace/arm/lm3s811/TI_Stellaris/driverlib/timer.c ****         //
1177:/home/cuil/workspace/arm/lm3s811/TI_Stellaris/driverlib/timer.c ****         IntEnable(ulBase);
 4450              		.loc 1 1177 0
 4451 0028 F868     		ldr	r0, [r7, #12]
 4452 002a FFF7FEFF 		bl	IntEnable
 4453              	.L64:
1178:/home/cuil/workspace/arm/lm3s811/TI_Stellaris/driverlib/timer.c ****     }
1179:/home/cuil/workspace/arm/lm3s811/TI_Stellaris/driverlib/timer.c **** 
1180:/home/cuil/workspace/arm/lm3s811/TI_Stellaris/driverlib/timer.c ****     //
1181:/home/cuil/workspace/arm/lm3s811/TI_Stellaris/driverlib/timer.c ****     // Register an interrupt handler for timer B if requested.
1182:/home/cuil/workspace/arm/lm3s811/TI_Stellaris/driverlib/timer.c ****     //
1183:/home/cuil/workspace/arm/lm3s811/TI_Stellaris/driverlib/timer.c ****     if(ulTimer & TIMER_B)
 4454              		.loc 1 1183 0
 4455 002e BB68     		ldr	r3, [r7, #8]
 4456 0030 03F47F43 		and	r3, r3, #65280
 4457 0034 002B     		cmp	r3, #0
 4458 0036 0CD0     		beq	.L63
1184:/home/cuil/workspace/arm/lm3s811/TI_Stellaris/driverlib/timer.c ****     {
1185:/home/cuil/workspace/arm/lm3s811/TI_Stellaris/driverlib/timer.c ****         //
1186:/home/cuil/workspace/arm/lm3s811/TI_Stellaris/driverlib/timer.c ****         // Register the interrupt handler.
1187:/home/cuil/workspace/arm/lm3s811/TI_Stellaris/driverlib/timer.c ****         //
1188:/home/cuil/workspace/arm/lm3s811/TI_Stellaris/driverlib/timer.c ****         IntRegister(ulBase + 1, pfnHandler);
 4459              		.loc 1 1188 0
 4460 0038 FB68     		ldr	r3, [r7, #12]
 4461 003a 03F10103 		add	r3, r3, #1
 4462 003e 1846     		mov	r0, r3
 4463 0040 7968     		ldr	r1, [r7, #4]
 4464 0042 FFF7FEFF 		bl	IntRegister
1189:/home/cuil/workspace/arm/lm3s811/TI_Stellaris/driverlib/timer.c **** 
1190:/home/cuil/workspace/arm/lm3s811/TI_Stellaris/driverlib/timer.c ****         //
1191:/home/cuil/workspace/arm/lm3s811/TI_Stellaris/driverlib/timer.c ****         // Enable the interrupt.
1192:/home/cuil/workspace/arm/lm3s811/TI_Stellaris/driverlib/timer.c ****         //
1193:/home/cuil/workspace/arm/lm3s811/TI_Stellaris/driverlib/timer.c ****         IntEnable(ulBase + 1);
 4465              		.loc 1 1193 0
 4466 0046 FB68     		ldr	r3, [r7, #12]
 4467 0048 03F10103 		add	r3, r3, #1
 4468 004c 1846     		mov	r0, r3
 4469 004e FFF7FEFF 		bl	IntEnable
 4470              	.L63:
1194:/home/cuil/workspace/arm/lm3s811/TI_Stellaris/driverlib/timer.c ****     }
1195:/home/cuil/workspace/arm/lm3s811/TI_Stellaris/driverlib/timer.c **** }
 4471              		.loc 1 1195 0
 4472 0052 07F11007 		add	r7, r7, #16
 4473 0056 BD46     		mov	sp, r7
 4474 0058 80BD     		pop	{r7, pc}
 4475              		.cfi_endproc
 4476              	.LFE25:
 4478 005a 00BF     		.section	.text.TimerIntUnregister,"ax",%progbits
 4479              		.align	2
 4480              		.global	TimerIntUnregister
 4481              		.thumb
 4482              		.thumb_func
 4484              	TimerIntUnregister:
 4485              	.LFB26:
1196:/home/cuil/workspace/arm/lm3s811/TI_Stellaris/driverlib/timer.c **** 
1197:/home/cuil/workspace/arm/lm3s811/TI_Stellaris/driverlib/timer.c **** //*****************************************************************************
1198:/home/cuil/workspace/arm/lm3s811/TI_Stellaris/driverlib/timer.c **** //
1199:/home/cuil/workspace/arm/lm3s811/TI_Stellaris/driverlib/timer.c **** //! Unregisters an interrupt handler for the timer interrupt.
1200:/home/cuil/workspace/arm/lm3s811/TI_Stellaris/driverlib/timer.c **** //!
1201:/home/cuil/workspace/arm/lm3s811/TI_Stellaris/driverlib/timer.c **** //! \param ulBase is the base address of the timer module.
1202:/home/cuil/workspace/arm/lm3s811/TI_Stellaris/driverlib/timer.c **** //! \param ulTimer specifies the timer(s); must be one of \b TIMER_A,
1203:/home/cuil/workspace/arm/lm3s811/TI_Stellaris/driverlib/timer.c **** //! \b TIMER_B, or \b TIMER_BOTH.
1204:/home/cuil/workspace/arm/lm3s811/TI_Stellaris/driverlib/timer.c **** //!
1205:/home/cuil/workspace/arm/lm3s811/TI_Stellaris/driverlib/timer.c **** //! This function unregisters the handler to be called when a timer interrupt
1206:/home/cuil/workspace/arm/lm3s811/TI_Stellaris/driverlib/timer.c **** //! occurs.  This function also masks off the interrupt in the interrupt
1207:/home/cuil/workspace/arm/lm3s811/TI_Stellaris/driverlib/timer.c **** //! controller so that the interrupt handler is no longer called.
1208:/home/cuil/workspace/arm/lm3s811/TI_Stellaris/driverlib/timer.c **** //!
1209:/home/cuil/workspace/arm/lm3s811/TI_Stellaris/driverlib/timer.c **** //! \sa IntRegister() for important information about registering interrupt
1210:/home/cuil/workspace/arm/lm3s811/TI_Stellaris/driverlib/timer.c **** //! handlers.
1211:/home/cuil/workspace/arm/lm3s811/TI_Stellaris/driverlib/timer.c **** //!
1212:/home/cuil/workspace/arm/lm3s811/TI_Stellaris/driverlib/timer.c **** //! \return None.
1213:/home/cuil/workspace/arm/lm3s811/TI_Stellaris/driverlib/timer.c **** //
1214:/home/cuil/workspace/arm/lm3s811/TI_Stellaris/driverlib/timer.c **** //*****************************************************************************
1215:/home/cuil/workspace/arm/lm3s811/TI_Stellaris/driverlib/timer.c **** void
1216:/home/cuil/workspace/arm/lm3s811/TI_Stellaris/driverlib/timer.c **** TimerIntUnregister(unsigned long ulBase, unsigned long ulTimer)
1217:/home/cuil/workspace/arm/lm3s811/TI_Stellaris/driverlib/timer.c **** {
 4486              		.loc 1 1217 0
 4487              		.cfi_startproc
 4488              		@ args = 0, pretend = 0, frame = 8
 4489              		@ frame_needed = 1, uses_anonymous_args = 0
 4490 0000 80B5     		push	{r7, lr}
 4491              	.LCFI78:
 4492              		.cfi_def_cfa_offset 8
 4493 0002 82B0     		sub	sp, sp, #8
 4494              	.LCFI79:
 4495              		.cfi_def_cfa_offset 16
 4496 0004 00AF     		add	r7, sp, #0
 4497              		.cfi_offset 14, -4
 4498              		.cfi_offset 7, -8
 4499              	.LCFI80:
 4500              		.cfi_def_cfa_register 7
 4501 0006 7860     		str	r0, [r7, #4]
 4502 0008 3960     		str	r1, [r7, #0]
1218:/home/cuil/workspace/arm/lm3s811/TI_Stellaris/driverlib/timer.c ****     //
1219:/home/cuil/workspace/arm/lm3s811/TI_Stellaris/driverlib/timer.c ****     // Check the arguments.
1220:/home/cuil/workspace/arm/lm3s811/TI_Stellaris/driverlib/timer.c ****     //
1221:/home/cuil/workspace/arm/lm3s811/TI_Stellaris/driverlib/timer.c ****     ASSERT(TimerBaseValid(ulBase));
1222:/home/cuil/workspace/arm/lm3s811/TI_Stellaris/driverlib/timer.c ****     ASSERT((ulTimer == TIMER_A) || (ulTimer == TIMER_B) ||
1223:/home/cuil/workspace/arm/lm3s811/TI_Stellaris/driverlib/timer.c ****            (ulTimer == TIMER_BOTH));
1224:/home/cuil/workspace/arm/lm3s811/TI_Stellaris/driverlib/timer.c **** 
1225:/home/cuil/workspace/arm/lm3s811/TI_Stellaris/driverlib/timer.c ****     //
1226:/home/cuil/workspace/arm/lm3s811/TI_Stellaris/driverlib/timer.c ****     // Get the interrupt number for this timer module.
1227:/home/cuil/workspace/arm/lm3s811/TI_Stellaris/driverlib/timer.c ****     //
1228:/home/cuil/workspace/arm/lm3s811/TI_Stellaris/driverlib/timer.c ****     ulBase = TimerIntNumberGet(ulBase);
 4503              		.loc 1 1228 0
 4504 000a 7868     		ldr	r0, [r7, #4]
 4505 000c FFF7FEFF 		bl	TimerIntNumberGet
 4506 0010 0346     		mov	r3, r0
 4507 0012 7B60     		str	r3, [r7, #4]
1229:/home/cuil/workspace/arm/lm3s811/TI_Stellaris/driverlib/timer.c **** 
1230:/home/cuil/workspace/arm/lm3s811/TI_Stellaris/driverlib/timer.c ****     //
1231:/home/cuil/workspace/arm/lm3s811/TI_Stellaris/driverlib/timer.c ****     // Unregister the interrupt handler for timer A if requested.
1232:/home/cuil/workspace/arm/lm3s811/TI_Stellaris/driverlib/timer.c ****     //
1233:/home/cuil/workspace/arm/lm3s811/TI_Stellaris/driverlib/timer.c ****     if(ulTimer & TIMER_A)
 4508              		.loc 1 1233 0
 4509 0014 3B68     		ldr	r3, [r7, #0]
 4510 0016 03F0FF03 		and	r3, r3, #255
 4511 001a 002B     		cmp	r3, #0
 4512 001c 05D0     		beq	.L67
1234:/home/cuil/workspace/arm/lm3s811/TI_Stellaris/driverlib/timer.c ****     {
1235:/home/cuil/workspace/arm/lm3s811/TI_Stellaris/driverlib/timer.c ****         //
1236:/home/cuil/workspace/arm/lm3s811/TI_Stellaris/driverlib/timer.c ****         // Disable the interrupt.
1237:/home/cuil/workspace/arm/lm3s811/TI_Stellaris/driverlib/timer.c ****         //
1238:/home/cuil/workspace/arm/lm3s811/TI_Stellaris/driverlib/timer.c ****         IntDisable(ulBase);
 4513              		.loc 1 1238 0
 4514 001e 7868     		ldr	r0, [r7, #4]
 4515 0020 FFF7FEFF 		bl	IntDisable
1239:/home/cuil/workspace/arm/lm3s811/TI_Stellaris/driverlib/timer.c **** 
1240:/home/cuil/workspace/arm/lm3s811/TI_Stellaris/driverlib/timer.c ****         //
1241:/home/cuil/workspace/arm/lm3s811/TI_Stellaris/driverlib/timer.c ****         // Unregister the interrupt handler.
1242:/home/cuil/workspace/arm/lm3s811/TI_Stellaris/driverlib/timer.c ****         //
1243:/home/cuil/workspace/arm/lm3s811/TI_Stellaris/driverlib/timer.c ****         IntUnregister(ulBase);
 4516              		.loc 1 1243 0
 4517 0024 7868     		ldr	r0, [r7, #4]
 4518 0026 FFF7FEFF 		bl	IntUnregister
 4519              	.L67:
1244:/home/cuil/workspace/arm/lm3s811/TI_Stellaris/driverlib/timer.c ****     }
1245:/home/cuil/workspace/arm/lm3s811/TI_Stellaris/driverlib/timer.c **** 
1246:/home/cuil/workspace/arm/lm3s811/TI_Stellaris/driverlib/timer.c ****     //
1247:/home/cuil/workspace/arm/lm3s811/TI_Stellaris/driverlib/timer.c ****     // Unregister the interrupt handler for timer B if requested.
1248:/home/cuil/workspace/arm/lm3s811/TI_Stellaris/driverlib/timer.c ****     //
1249:/home/cuil/workspace/arm/lm3s811/TI_Stellaris/driverlib/timer.c ****     if(ulTimer & TIMER_B)
 4520              		.loc 1 1249 0
 4521 002a 3B68     		ldr	r3, [r7, #0]
 4522 002c 03F47F43 		and	r3, r3, #65280
 4523 0030 002B     		cmp	r3, #0
 4524 0032 0BD0     		beq	.L66
1250:/home/cuil/workspace/arm/lm3s811/TI_Stellaris/driverlib/timer.c ****     {
1251:/home/cuil/workspace/arm/lm3s811/TI_Stellaris/driverlib/timer.c ****         //
1252:/home/cuil/workspace/arm/lm3s811/TI_Stellaris/driverlib/timer.c ****         // Disable the interrupt.
1253:/home/cuil/workspace/arm/lm3s811/TI_Stellaris/driverlib/timer.c ****         //
1254:/home/cuil/workspace/arm/lm3s811/TI_Stellaris/driverlib/timer.c ****         IntDisable(ulBase + 1);
 4525              		.loc 1 1254 0
 4526 0034 7B68     		ldr	r3, [r7, #4]
 4527 0036 03F10103 		add	r3, r3, #1
 4528 003a 1846     		mov	r0, r3
 4529 003c FFF7FEFF 		bl	IntDisable
1255:/home/cuil/workspace/arm/lm3s811/TI_Stellaris/driverlib/timer.c **** 
1256:/home/cuil/workspace/arm/lm3s811/TI_Stellaris/driverlib/timer.c ****         //
1257:/home/cuil/workspace/arm/lm3s811/TI_Stellaris/driverlib/timer.c ****         // Unregister the interrupt handler.
1258:/home/cuil/workspace/arm/lm3s811/TI_Stellaris/driverlib/timer.c ****         //
1259:/home/cuil/workspace/arm/lm3s811/TI_Stellaris/driverlib/timer.c ****         IntUnregister(ulBase + 1);
 4530              		.loc 1 1259 0
 4531 0040 7B68     		ldr	r3, [r7, #4]
 4532 0042 03F10103 		add	r3, r3, #1
 4533 0046 1846     		mov	r0, r3
 4534 0048 FFF7FEFF 		bl	IntUnregister
 4535              	.L66:
1260:/home/cuil/workspace/arm/lm3s811/TI_Stellaris/driverlib/timer.c ****     }
1261:/home/cuil/workspace/arm/lm3s811/TI_Stellaris/driverlib/timer.c **** }
 4536              		.loc 1 1261 0
 4537 004c 07F10807 		add	r7, r7, #8
 4538 0050 BD46     		mov	sp, r7
 4539 0052 80BD     		pop	{r7, pc}
 4540              		.cfi_endproc
 4541              	.LFE26:
 4543              		.section	.text.TimerIntEnable,"ax",%progbits
 4544              		.align	2
 4545              		.global	TimerIntEnable
 4546              		.thumb
 4547              		.thumb_func
 4549              	TimerIntEnable:
 4550              	.LFB27:
1262:/home/cuil/workspace/arm/lm3s811/TI_Stellaris/driverlib/timer.c **** 
1263:/home/cuil/workspace/arm/lm3s811/TI_Stellaris/driverlib/timer.c **** //*****************************************************************************
1264:/home/cuil/workspace/arm/lm3s811/TI_Stellaris/driverlib/timer.c **** //
1265:/home/cuil/workspace/arm/lm3s811/TI_Stellaris/driverlib/timer.c **** //! Enables individual timer interrupt sources.
1266:/home/cuil/workspace/arm/lm3s811/TI_Stellaris/driverlib/timer.c **** //!
1267:/home/cuil/workspace/arm/lm3s811/TI_Stellaris/driverlib/timer.c **** //! \param ulBase is the base address of the timer module.
1268:/home/cuil/workspace/arm/lm3s811/TI_Stellaris/driverlib/timer.c **** //! \param ulIntFlags is the bit mask of the interrupt sources to be enabled.
1269:/home/cuil/workspace/arm/lm3s811/TI_Stellaris/driverlib/timer.c **** //!
1270:/home/cuil/workspace/arm/lm3s811/TI_Stellaris/driverlib/timer.c **** //! This function enables the indicated timer interrupt sources.  Only the 
1271:/home/cuil/workspace/arm/lm3s811/TI_Stellaris/driverlib/timer.c **** //! sources that are enabled can be reflected to the processor interrupt; 
1272:/home/cuil/workspace/arm/lm3s811/TI_Stellaris/driverlib/timer.c **** //! disabled sources have no effect on the processor.
1273:/home/cuil/workspace/arm/lm3s811/TI_Stellaris/driverlib/timer.c **** //!
1274:/home/cuil/workspace/arm/lm3s811/TI_Stellaris/driverlib/timer.c **** //! The \e ulIntFlags parameter must be the logical OR of any combination of
1275:/home/cuil/workspace/arm/lm3s811/TI_Stellaris/driverlib/timer.c **** //! the following:
1276:/home/cuil/workspace/arm/lm3s811/TI_Stellaris/driverlib/timer.c **** //!
1277:/home/cuil/workspace/arm/lm3s811/TI_Stellaris/driverlib/timer.c **** //! - \b TIMER_CAPB_EVENT  - Capture B event interrupt
1278:/home/cuil/workspace/arm/lm3s811/TI_Stellaris/driverlib/timer.c **** //! - \b TIMER_CAPB_MATCH  - Capture B match interrupt
1279:/home/cuil/workspace/arm/lm3s811/TI_Stellaris/driverlib/timer.c **** //! - \b TIMER_TIMB_TIMEOUT  - Timer B timeout interrupt
1280:/home/cuil/workspace/arm/lm3s811/TI_Stellaris/driverlib/timer.c **** //! - \b TIMER_RTC_MATCH  - RTC interrupt mask
1281:/home/cuil/workspace/arm/lm3s811/TI_Stellaris/driverlib/timer.c **** //! - \b TIMER_CAPA_EVENT  - Capture A event interrupt
1282:/home/cuil/workspace/arm/lm3s811/TI_Stellaris/driverlib/timer.c **** //! - \b TIMER_CAPA_MATCH  - Capture A match interrupt
1283:/home/cuil/workspace/arm/lm3s811/TI_Stellaris/driverlib/timer.c **** //! - \b TIMER_TIMA_TIMEOUT  - Timer A timeout interrupt
1284:/home/cuil/workspace/arm/lm3s811/TI_Stellaris/driverlib/timer.c **** //!
1285:/home/cuil/workspace/arm/lm3s811/TI_Stellaris/driverlib/timer.c **** //! \return None.
1286:/home/cuil/workspace/arm/lm3s811/TI_Stellaris/driverlib/timer.c **** //
1287:/home/cuil/workspace/arm/lm3s811/TI_Stellaris/driverlib/timer.c **** //*****************************************************************************
1288:/home/cuil/workspace/arm/lm3s811/TI_Stellaris/driverlib/timer.c **** void
1289:/home/cuil/workspace/arm/lm3s811/TI_Stellaris/driverlib/timer.c **** TimerIntEnable(unsigned long ulBase, unsigned long ulIntFlags)
1290:/home/cuil/workspace/arm/lm3s811/TI_Stellaris/driverlib/timer.c **** {
 4551              		.loc 1 1290 0
 4552              		.cfi_startproc
 4553              		@ args = 0, pretend = 0, frame = 8
 4554              		@ frame_needed = 1, uses_anonymous_args = 0
 4555              		@ link register save eliminated.
 4556 0000 80B4     		push	{r7}
 4557              	.LCFI81:
 4558              		.cfi_def_cfa_offset 4
 4559 0002 83B0     		sub	sp, sp, #12
 4560              	.LCFI82:
 4561              		.cfi_def_cfa_offset 16
 4562 0004 00AF     		add	r7, sp, #0
 4563              		.cfi_offset 7, -4
 4564              	.LCFI83:
 4565              		.cfi_def_cfa_register 7
 4566 0006 7860     		str	r0, [r7, #4]
 4567 0008 3960     		str	r1, [r7, #0]
1291:/home/cuil/workspace/arm/lm3s811/TI_Stellaris/driverlib/timer.c ****     //
1292:/home/cuil/workspace/arm/lm3s811/TI_Stellaris/driverlib/timer.c ****     // Check the arguments.
1293:/home/cuil/workspace/arm/lm3s811/TI_Stellaris/driverlib/timer.c ****     //
1294:/home/cuil/workspace/arm/lm3s811/TI_Stellaris/driverlib/timer.c ****     ASSERT(TimerBaseValid(ulBase));
1295:/home/cuil/workspace/arm/lm3s811/TI_Stellaris/driverlib/timer.c **** 
1296:/home/cuil/workspace/arm/lm3s811/TI_Stellaris/driverlib/timer.c ****     //
1297:/home/cuil/workspace/arm/lm3s811/TI_Stellaris/driverlib/timer.c ****     // Enable the specified interrupts.
1298:/home/cuil/workspace/arm/lm3s811/TI_Stellaris/driverlib/timer.c ****     //
1299:/home/cuil/workspace/arm/lm3s811/TI_Stellaris/driverlib/timer.c ****     HWREG(ulBase + TIMER_O_IMR) |= ulIntFlags;
 4568              		.loc 1 1299 0
 4569 000a 7B68     		ldr	r3, [r7, #4]
 4570 000c 03F11803 		add	r3, r3, #24
 4571 0010 7A68     		ldr	r2, [r7, #4]
 4572 0012 02F11802 		add	r2, r2, #24
 4573 0016 1168     		ldr	r1, [r2, #0]
 4574 0018 3A68     		ldr	r2, [r7, #0]
 4575 001a 41EA0202 		orr	r2, r1, r2
 4576 001e 1A60     		str	r2, [r3, #0]
1300:/home/cuil/workspace/arm/lm3s811/TI_Stellaris/driverlib/timer.c **** }
 4577              		.loc 1 1300 0
 4578 0020 07F10C07 		add	r7, r7, #12
 4579 0024 BD46     		mov	sp, r7
 4580 0026 80BC     		pop	{r7}
 4581 0028 7047     		bx	lr
 4582              		.cfi_endproc
 4583              	.LFE27:
 4585 002a 00BF     		.section	.text.TimerIntDisable,"ax",%progbits
 4586              		.align	2
 4587              		.global	TimerIntDisable
 4588              		.thumb
 4589              		.thumb_func
 4591              	TimerIntDisable:
 4592              	.LFB28:
1301:/home/cuil/workspace/arm/lm3s811/TI_Stellaris/driverlib/timer.c **** 
1302:/home/cuil/workspace/arm/lm3s811/TI_Stellaris/driverlib/timer.c **** //*****************************************************************************
1303:/home/cuil/workspace/arm/lm3s811/TI_Stellaris/driverlib/timer.c **** //
1304:/home/cuil/workspace/arm/lm3s811/TI_Stellaris/driverlib/timer.c **** //! Disables individual timer interrupt sources.
1305:/home/cuil/workspace/arm/lm3s811/TI_Stellaris/driverlib/timer.c **** //!
1306:/home/cuil/workspace/arm/lm3s811/TI_Stellaris/driverlib/timer.c **** //! \param ulBase is the base address of the timer module.
1307:/home/cuil/workspace/arm/lm3s811/TI_Stellaris/driverlib/timer.c **** //! \param ulIntFlags is the bit mask of the interrupt sources to be disabled.
1308:/home/cuil/workspace/arm/lm3s811/TI_Stellaris/driverlib/timer.c **** //!
1309:/home/cuil/workspace/arm/lm3s811/TI_Stellaris/driverlib/timer.c **** //! This function disables the indicated timer interrupt sources.  Only the 
1310:/home/cuil/workspace/arm/lm3s811/TI_Stellaris/driverlib/timer.c **** //! sources that are enabled can be reflected to the processor interrupt; 
1311:/home/cuil/workspace/arm/lm3s811/TI_Stellaris/driverlib/timer.c **** //! disabled sources have no effect on the processor.
1312:/home/cuil/workspace/arm/lm3s811/TI_Stellaris/driverlib/timer.c **** //!
1313:/home/cuil/workspace/arm/lm3s811/TI_Stellaris/driverlib/timer.c **** //! The \e ulIntFlags parameter has the same definition as the \e ulIntFlags
1314:/home/cuil/workspace/arm/lm3s811/TI_Stellaris/driverlib/timer.c **** //! parameter to TimerIntEnable().
1315:/home/cuil/workspace/arm/lm3s811/TI_Stellaris/driverlib/timer.c **** //!
1316:/home/cuil/workspace/arm/lm3s811/TI_Stellaris/driverlib/timer.c **** //! \return None.
1317:/home/cuil/workspace/arm/lm3s811/TI_Stellaris/driverlib/timer.c **** //
1318:/home/cuil/workspace/arm/lm3s811/TI_Stellaris/driverlib/timer.c **** //*****************************************************************************
1319:/home/cuil/workspace/arm/lm3s811/TI_Stellaris/driverlib/timer.c **** void
1320:/home/cuil/workspace/arm/lm3s811/TI_Stellaris/driverlib/timer.c **** TimerIntDisable(unsigned long ulBase, unsigned long ulIntFlags)
1321:/home/cuil/workspace/arm/lm3s811/TI_Stellaris/driverlib/timer.c **** {
 4593              		.loc 1 1321 0
 4594              		.cfi_startproc
 4595              		@ args = 0, pretend = 0, frame = 8
 4596              		@ frame_needed = 1, uses_anonymous_args = 0
 4597              		@ link register save eliminated.
 4598 0000 80B4     		push	{r7}
 4599              	.LCFI84:
 4600              		.cfi_def_cfa_offset 4
 4601 0002 83B0     		sub	sp, sp, #12
 4602              	.LCFI85:
 4603              		.cfi_def_cfa_offset 16
 4604 0004 00AF     		add	r7, sp, #0
 4605              		.cfi_offset 7, -4
 4606              	.LCFI86:
 4607              		.cfi_def_cfa_register 7
 4608 0006 7860     		str	r0, [r7, #4]
 4609 0008 3960     		str	r1, [r7, #0]
1322:/home/cuil/workspace/arm/lm3s811/TI_Stellaris/driverlib/timer.c ****     //
1323:/home/cuil/workspace/arm/lm3s811/TI_Stellaris/driverlib/timer.c ****     // Check the arguments.
1324:/home/cuil/workspace/arm/lm3s811/TI_Stellaris/driverlib/timer.c ****     //
1325:/home/cuil/workspace/arm/lm3s811/TI_Stellaris/driverlib/timer.c ****     ASSERT(TimerBaseValid(ulBase));
1326:/home/cuil/workspace/arm/lm3s811/TI_Stellaris/driverlib/timer.c **** 
1327:/home/cuil/workspace/arm/lm3s811/TI_Stellaris/driverlib/timer.c ****     //
1328:/home/cuil/workspace/arm/lm3s811/TI_Stellaris/driverlib/timer.c ****     // Disable the specified interrupts.
1329:/home/cuil/workspace/arm/lm3s811/TI_Stellaris/driverlib/timer.c ****     //
1330:/home/cuil/workspace/arm/lm3s811/TI_Stellaris/driverlib/timer.c ****     HWREG(ulBase + TIMER_O_IMR) &= ~(ulIntFlags);
 4610              		.loc 1 1330 0
 4611 000a 7B68     		ldr	r3, [r7, #4]
 4612 000c 03F11803 		add	r3, r3, #24
 4613 0010 7A68     		ldr	r2, [r7, #4]
 4614 0012 02F11802 		add	r2, r2, #24
 4615 0016 1168     		ldr	r1, [r2, #0]
 4616 0018 3A68     		ldr	r2, [r7, #0]
 4617 001a 6FEA0202 		mvn	r2, r2
 4618 001e 01EA0202 		and	r2, r1, r2
 4619 0022 1A60     		str	r2, [r3, #0]
1331:/home/cuil/workspace/arm/lm3s811/TI_Stellaris/driverlib/timer.c **** }
 4620              		.loc 1 1331 0
 4621 0024 07F10C07 		add	r7, r7, #12
 4622 0028 BD46     		mov	sp, r7
 4623 002a 80BC     		pop	{r7}
 4624 002c 7047     		bx	lr
 4625              		.cfi_endproc
 4626              	.LFE28:
 4628 002e 00BF     		.section	.text.TimerIntStatus,"ax",%progbits
 4629              		.align	2
 4630              		.global	TimerIntStatus
 4631              		.thumb
 4632              		.thumb_func
 4634              	TimerIntStatus:
 4635              	.LFB29:
1332:/home/cuil/workspace/arm/lm3s811/TI_Stellaris/driverlib/timer.c **** 
1333:/home/cuil/workspace/arm/lm3s811/TI_Stellaris/driverlib/timer.c **** //*****************************************************************************
1334:/home/cuil/workspace/arm/lm3s811/TI_Stellaris/driverlib/timer.c **** //
1335:/home/cuil/workspace/arm/lm3s811/TI_Stellaris/driverlib/timer.c **** //! Gets the current interrupt status.
1336:/home/cuil/workspace/arm/lm3s811/TI_Stellaris/driverlib/timer.c **** //!
1337:/home/cuil/workspace/arm/lm3s811/TI_Stellaris/driverlib/timer.c **** //! \param ulBase is the base address of the timer module.
1338:/home/cuil/workspace/arm/lm3s811/TI_Stellaris/driverlib/timer.c **** //! \param bMasked is false if the raw interrupt status is required and true if
1339:/home/cuil/workspace/arm/lm3s811/TI_Stellaris/driverlib/timer.c **** //! the masked interrupt status is required.
1340:/home/cuil/workspace/arm/lm3s811/TI_Stellaris/driverlib/timer.c **** //!
1341:/home/cuil/workspace/arm/lm3s811/TI_Stellaris/driverlib/timer.c **** //! This function returns the interrupt status for the timer module.  Either
1342:/home/cuil/workspace/arm/lm3s811/TI_Stellaris/driverlib/timer.c **** //! the raw interrupt status or the status of interrupts that are allowed to
1343:/home/cuil/workspace/arm/lm3s811/TI_Stellaris/driverlib/timer.c **** //! reflect to the processor can be returned.
1344:/home/cuil/workspace/arm/lm3s811/TI_Stellaris/driverlib/timer.c **** //!
1345:/home/cuil/workspace/arm/lm3s811/TI_Stellaris/driverlib/timer.c **** //! \return The current interrupt status, enumerated as a bit field of
1346:/home/cuil/workspace/arm/lm3s811/TI_Stellaris/driverlib/timer.c **** //! values described in TimerIntEnable().
1347:/home/cuil/workspace/arm/lm3s811/TI_Stellaris/driverlib/timer.c **** //
1348:/home/cuil/workspace/arm/lm3s811/TI_Stellaris/driverlib/timer.c **** //*****************************************************************************
1349:/home/cuil/workspace/arm/lm3s811/TI_Stellaris/driverlib/timer.c **** unsigned long
1350:/home/cuil/workspace/arm/lm3s811/TI_Stellaris/driverlib/timer.c **** TimerIntStatus(unsigned long ulBase, tBoolean bMasked)
1351:/home/cuil/workspace/arm/lm3s811/TI_Stellaris/driverlib/timer.c **** {
 4636              		.loc 1 1351 0
 4637              		.cfi_startproc
 4638              		@ args = 0, pretend = 0, frame = 8
 4639              		@ frame_needed = 1, uses_anonymous_args = 0
 4640              		@ link register save eliminated.
 4641 0000 80B4     		push	{r7}
 4642              	.LCFI87:
 4643              		.cfi_def_cfa_offset 4
 4644 0002 83B0     		sub	sp, sp, #12
 4645              	.LCFI88:
 4646              		.cfi_def_cfa_offset 16
 4647 0004 00AF     		add	r7, sp, #0
 4648              		.cfi_offset 7, -4
 4649              	.LCFI89:
 4650              		.cfi_def_cfa_register 7
 4651 0006 7860     		str	r0, [r7, #4]
 4652 0008 0B46     		mov	r3, r1
 4653 000a FB70     		strb	r3, [r7, #3]
1352:/home/cuil/workspace/arm/lm3s811/TI_Stellaris/driverlib/timer.c ****     //
1353:/home/cuil/workspace/arm/lm3s811/TI_Stellaris/driverlib/timer.c ****     // Check the arguments.
1354:/home/cuil/workspace/arm/lm3s811/TI_Stellaris/driverlib/timer.c ****     //
1355:/home/cuil/workspace/arm/lm3s811/TI_Stellaris/driverlib/timer.c ****     ASSERT(TimerBaseValid(ulBase));
1356:/home/cuil/workspace/arm/lm3s811/TI_Stellaris/driverlib/timer.c **** 
1357:/home/cuil/workspace/arm/lm3s811/TI_Stellaris/driverlib/timer.c ****     //
1358:/home/cuil/workspace/arm/lm3s811/TI_Stellaris/driverlib/timer.c ****     // Return either the interrupt status or the raw interrupt status as
1359:/home/cuil/workspace/arm/lm3s811/TI_Stellaris/driverlib/timer.c ****     // requested.
1360:/home/cuil/workspace/arm/lm3s811/TI_Stellaris/driverlib/timer.c ****     //
1361:/home/cuil/workspace/arm/lm3s811/TI_Stellaris/driverlib/timer.c ****     return(bMasked ? HWREG(ulBase + TIMER_O_MIS) :
 4654              		.loc 1 1361 0
 4655 000c FB78     		ldrb	r3, [r7, #3]	@ zero_extendqisi2
 4656 000e 002B     		cmp	r3, #0
 4657 0010 04D0     		beq	.L72
 4658              		.loc 1 1361 0 is_stmt 0 discriminator 1
 4659 0012 7B68     		ldr	r3, [r7, #4]
 4660 0014 03F12003 		add	r3, r3, #32
 4661 0018 1B68     		ldr	r3, [r3, #0]
 4662 001a 03E0     		b	.L73
 4663              	.L72:
1362:/home/cuil/workspace/arm/lm3s811/TI_Stellaris/driverlib/timer.c ****            HWREG(ulBase + TIMER_O_RIS));
 4664              		.loc 1 1362 0 is_stmt 1 discriminator 2
 4665 001c 7B68     		ldr	r3, [r7, #4]
 4666 001e 03F11C03 		add	r3, r3, #28
1361:/home/cuil/workspace/arm/lm3s811/TI_Stellaris/driverlib/timer.c ****     return(bMasked ? HWREG(ulBase + TIMER_O_MIS) :
 4667              		.loc 1 1361 0 discriminator 2
 4668 0022 1B68     		ldr	r3, [r3, #0]
 4669              	.L73:
1363:/home/cuil/workspace/arm/lm3s811/TI_Stellaris/driverlib/timer.c **** }
 4670              		.loc 1 1363 0 discriminator 3
 4671 0024 1846     		mov	r0, r3
 4672 0026 07F10C07 		add	r7, r7, #12
 4673 002a BD46     		mov	sp, r7
 4674 002c 80BC     		pop	{r7}
 4675 002e 7047     		bx	lr
 4676              		.cfi_endproc
 4677              	.LFE29:
 4679              		.section	.text.TimerIntClear,"ax",%progbits
 4680              		.align	2
 4681              		.global	TimerIntClear
 4682              		.thumb
 4683              		.thumb_func
 4685              	TimerIntClear:
 4686              	.LFB30:
1364:/home/cuil/workspace/arm/lm3s811/TI_Stellaris/driverlib/timer.c **** 
1365:/home/cuil/workspace/arm/lm3s811/TI_Stellaris/driverlib/timer.c **** //*****************************************************************************
1366:/home/cuil/workspace/arm/lm3s811/TI_Stellaris/driverlib/timer.c **** //
1367:/home/cuil/workspace/arm/lm3s811/TI_Stellaris/driverlib/timer.c **** //! Clears timer interrupt sources.
1368:/home/cuil/workspace/arm/lm3s811/TI_Stellaris/driverlib/timer.c **** //!
1369:/home/cuil/workspace/arm/lm3s811/TI_Stellaris/driverlib/timer.c **** //! \param ulBase is the base address of the timer module.
1370:/home/cuil/workspace/arm/lm3s811/TI_Stellaris/driverlib/timer.c **** //! \param ulIntFlags is a bit mask of the interrupt sources to be cleared.
1371:/home/cuil/workspace/arm/lm3s811/TI_Stellaris/driverlib/timer.c **** //!
1372:/home/cuil/workspace/arm/lm3s811/TI_Stellaris/driverlib/timer.c **** //! The specified timer interrupt sources are cleared, so that they no longer
1373:/home/cuil/workspace/arm/lm3s811/TI_Stellaris/driverlib/timer.c **** //! assert.  This function must be called in the interrupt handler to keep the
1374:/home/cuil/workspace/arm/lm3s811/TI_Stellaris/driverlib/timer.c **** //! interrupt from being triggered again immediately upon exit.
1375:/home/cuil/workspace/arm/lm3s811/TI_Stellaris/driverlib/timer.c **** //!
1376:/home/cuil/workspace/arm/lm3s811/TI_Stellaris/driverlib/timer.c **** //! The \e ulIntFlags parameter has the same definition as the \e ulIntFlags
1377:/home/cuil/workspace/arm/lm3s811/TI_Stellaris/driverlib/timer.c **** //! parameter to TimerIntEnable().
1378:/home/cuil/workspace/arm/lm3s811/TI_Stellaris/driverlib/timer.c **** //!
1379:/home/cuil/workspace/arm/lm3s811/TI_Stellaris/driverlib/timer.c **** //! \note Because there is a write buffer in the Cortex-M processor, it may
1380:/home/cuil/workspace/arm/lm3s811/TI_Stellaris/driverlib/timer.c **** //! take several clock cycles before the interrupt source is actually cleared.
1381:/home/cuil/workspace/arm/lm3s811/TI_Stellaris/driverlib/timer.c **** //! Therefore, it is recommended that the interrupt source be cleared early in
1382:/home/cuil/workspace/arm/lm3s811/TI_Stellaris/driverlib/timer.c **** //! the interrupt handler (as opposed to the very last action) to avoid
1383:/home/cuil/workspace/arm/lm3s811/TI_Stellaris/driverlib/timer.c **** //! returning from the interrupt handler before the interrupt source is
1384:/home/cuil/workspace/arm/lm3s811/TI_Stellaris/driverlib/timer.c **** //! actually cleared.  Failure to do so may result in the interrupt handler
1385:/home/cuil/workspace/arm/lm3s811/TI_Stellaris/driverlib/timer.c **** //! being immediately reentered (because the interrupt controller still sees
1386:/home/cuil/workspace/arm/lm3s811/TI_Stellaris/driverlib/timer.c **** //! the interrupt source asserted).
1387:/home/cuil/workspace/arm/lm3s811/TI_Stellaris/driverlib/timer.c **** //!
1388:/home/cuil/workspace/arm/lm3s811/TI_Stellaris/driverlib/timer.c **** //! \return None.
1389:/home/cuil/workspace/arm/lm3s811/TI_Stellaris/driverlib/timer.c **** //
1390:/home/cuil/workspace/arm/lm3s811/TI_Stellaris/driverlib/timer.c **** //*****************************************************************************
1391:/home/cuil/workspace/arm/lm3s811/TI_Stellaris/driverlib/timer.c **** void
1392:/home/cuil/workspace/arm/lm3s811/TI_Stellaris/driverlib/timer.c **** TimerIntClear(unsigned long ulBase, unsigned long ulIntFlags)
1393:/home/cuil/workspace/arm/lm3s811/TI_Stellaris/driverlib/timer.c **** {
 4687              		.loc 1 1393 0
 4688              		.cfi_startproc
 4689              		@ args = 0, pretend = 0, frame = 8
 4690              		@ frame_needed = 1, uses_anonymous_args = 0
 4691              		@ link register save eliminated.
 4692 0000 80B4     		push	{r7}
 4693              	.LCFI90:
 4694              		.cfi_def_cfa_offset 4
 4695 0002 83B0     		sub	sp, sp, #12
 4696              	.LCFI91:
 4697              		.cfi_def_cfa_offset 16
 4698 0004 00AF     		add	r7, sp, #0
 4699              		.cfi_offset 7, -4
 4700              	.LCFI92:
 4701              		.cfi_def_cfa_register 7
 4702 0006 7860     		str	r0, [r7, #4]
 4703 0008 3960     		str	r1, [r7, #0]
1394:/home/cuil/workspace/arm/lm3s811/TI_Stellaris/driverlib/timer.c ****     //
1395:/home/cuil/workspace/arm/lm3s811/TI_Stellaris/driverlib/timer.c ****     // Check the arguments.
1396:/home/cuil/workspace/arm/lm3s811/TI_Stellaris/driverlib/timer.c ****     //
1397:/home/cuil/workspace/arm/lm3s811/TI_Stellaris/driverlib/timer.c ****     ASSERT(TimerBaseValid(ulBase));
1398:/home/cuil/workspace/arm/lm3s811/TI_Stellaris/driverlib/timer.c **** 
1399:/home/cuil/workspace/arm/lm3s811/TI_Stellaris/driverlib/timer.c ****     //
1400:/home/cuil/workspace/arm/lm3s811/TI_Stellaris/driverlib/timer.c ****     // Clear the requested interrupt sources.
1401:/home/cuil/workspace/arm/lm3s811/TI_Stellaris/driverlib/timer.c ****     //
1402:/home/cuil/workspace/arm/lm3s811/TI_Stellaris/driverlib/timer.c ****     HWREG(ulBase + TIMER_O_ICR) = ulIntFlags;
 4704              		.loc 1 1402 0
 4705 000a 7B68     		ldr	r3, [r7, #4]
 4706 000c 03F12403 		add	r3, r3, #36
 4707 0010 3A68     		ldr	r2, [r7, #0]
 4708 0012 1A60     		str	r2, [r3, #0]
1403:/home/cuil/workspace/arm/lm3s811/TI_Stellaris/driverlib/timer.c **** }
 4709              		.loc 1 1403 0
 4710 0014 07F10C07 		add	r7, r7, #12
 4711 0018 BD46     		mov	sp, r7
 4712 001a 80BC     		pop	{r7}
 4713 001c 7047     		bx	lr
 4714              		.cfi_endproc
 4715              	.LFE30:
 4717 001e 00BF     		.section	.text.TimerSynchronize,"ax",%progbits
 4718              		.align	2
 4719              		.global	TimerSynchronize
 4720              		.thumb
 4721              		.thumb_func
 4723              	TimerSynchronize:
 4724              	.LFB31:
1404:/home/cuil/workspace/arm/lm3s811/TI_Stellaris/driverlib/timer.c **** 
1405:/home/cuil/workspace/arm/lm3s811/TI_Stellaris/driverlib/timer.c **** //*****************************************************************************
1406:/home/cuil/workspace/arm/lm3s811/TI_Stellaris/driverlib/timer.c **** //
1407:/home/cuil/workspace/arm/lm3s811/TI_Stellaris/driverlib/timer.c **** //! Synchronizes the counters in a set of timers.
1408:/home/cuil/workspace/arm/lm3s811/TI_Stellaris/driverlib/timer.c **** //!
1409:/home/cuil/workspace/arm/lm3s811/TI_Stellaris/driverlib/timer.c **** //! \param ulBase is the base address of the timer module.  This parameter must 
1410:/home/cuil/workspace/arm/lm3s811/TI_Stellaris/driverlib/timer.c **** //! be the base address of Timer0 (in other words, \b TIMER0_BASE).
1411:/home/cuil/workspace/arm/lm3s811/TI_Stellaris/driverlib/timer.c **** //! \param ulTimers is the set of timers to synchronize.
1412:/home/cuil/workspace/arm/lm3s811/TI_Stellaris/driverlib/timer.c **** //!
1413:/home/cuil/workspace/arm/lm3s811/TI_Stellaris/driverlib/timer.c **** //! This function synchronizes the counters in a specified set of timers.
1414:/home/cuil/workspace/arm/lm3s811/TI_Stellaris/driverlib/timer.c **** //! When a timer is running in half-width mode, each half can be included or
1415:/home/cuil/workspace/arm/lm3s811/TI_Stellaris/driverlib/timer.c **** //! excluded in the synchronization event.  When a timer is running in
1416:/home/cuil/workspace/arm/lm3s811/TI_Stellaris/driverlib/timer.c **** //! full-width mode, only the A timer can be synchronized (specifying the B
1417:/home/cuil/workspace/arm/lm3s811/TI_Stellaris/driverlib/timer.c **** //! timer has no effect).
1418:/home/cuil/workspace/arm/lm3s811/TI_Stellaris/driverlib/timer.c **** //!
1419:/home/cuil/workspace/arm/lm3s811/TI_Stellaris/driverlib/timer.c **** //! The \e ulTimers parameter is the logical OR of any of the following
1420:/home/cuil/workspace/arm/lm3s811/TI_Stellaris/driverlib/timer.c **** //! defines:
1421:/home/cuil/workspace/arm/lm3s811/TI_Stellaris/driverlib/timer.c **** //!
1422:/home/cuil/workspace/arm/lm3s811/TI_Stellaris/driverlib/timer.c **** //! - \b TIMER_0A_SYNC
1423:/home/cuil/workspace/arm/lm3s811/TI_Stellaris/driverlib/timer.c **** //! - \b TIMER_0B_SYNC
1424:/home/cuil/workspace/arm/lm3s811/TI_Stellaris/driverlib/timer.c **** //! - \b TIMER_1A_SYNC
1425:/home/cuil/workspace/arm/lm3s811/TI_Stellaris/driverlib/timer.c **** //! - \b TIMER_1B_SYNC
1426:/home/cuil/workspace/arm/lm3s811/TI_Stellaris/driverlib/timer.c **** //! - \b TIMER_2A_SYNC
1427:/home/cuil/workspace/arm/lm3s811/TI_Stellaris/driverlib/timer.c **** //! - \b TIMER_2B_SYNC
1428:/home/cuil/workspace/arm/lm3s811/TI_Stellaris/driverlib/timer.c **** //! - \b TIMER_3A_SYNC
1429:/home/cuil/workspace/arm/lm3s811/TI_Stellaris/driverlib/timer.c **** //! - \b TIMER_3B_SYNC
1430:/home/cuil/workspace/arm/lm3s811/TI_Stellaris/driverlib/timer.c **** //! - \b TIMER_4A_SYNC
1431:/home/cuil/workspace/arm/lm3s811/TI_Stellaris/driverlib/timer.c **** //! - \b TIMER_4B_SYNC
1432:/home/cuil/workspace/arm/lm3s811/TI_Stellaris/driverlib/timer.c **** //! - \b TIMER_5A_SYNC
1433:/home/cuil/workspace/arm/lm3s811/TI_Stellaris/driverlib/timer.c **** //! - \b TIMER_5B_SYNC
1434:/home/cuil/workspace/arm/lm3s811/TI_Stellaris/driverlib/timer.c **** //! - \b WTIMER_0A_SYNC
1435:/home/cuil/workspace/arm/lm3s811/TI_Stellaris/driverlib/timer.c **** //! - \b WTIMER_0B_SYNC
1436:/home/cuil/workspace/arm/lm3s811/TI_Stellaris/driverlib/timer.c **** //! - \b WTIMER_1A_SYNC
1437:/home/cuil/workspace/arm/lm3s811/TI_Stellaris/driverlib/timer.c **** //! - \b WTIMER_1B_SYNC
1438:/home/cuil/workspace/arm/lm3s811/TI_Stellaris/driverlib/timer.c **** //! - \b WTIMER_2A_SYNC
1439:/home/cuil/workspace/arm/lm3s811/TI_Stellaris/driverlib/timer.c **** //! - \b WTIMER_2B_SYNC
1440:/home/cuil/workspace/arm/lm3s811/TI_Stellaris/driverlib/timer.c **** //! - \b WTIMER_3A_SYNC
1441:/home/cuil/workspace/arm/lm3s811/TI_Stellaris/driverlib/timer.c **** //! - \b WTIMER_3B_SYNC
1442:/home/cuil/workspace/arm/lm3s811/TI_Stellaris/driverlib/timer.c **** //! - \b WTIMER_4A_SYNC
1443:/home/cuil/workspace/arm/lm3s811/TI_Stellaris/driverlib/timer.c **** //! - \b WTIMER_4B_SYNC
1444:/home/cuil/workspace/arm/lm3s811/TI_Stellaris/driverlib/timer.c **** //! - \b WTIMER_5A_SYNC
1445:/home/cuil/workspace/arm/lm3s811/TI_Stellaris/driverlib/timer.c **** //! - \b WTIMER_5B_SYNC
1446:/home/cuil/workspace/arm/lm3s811/TI_Stellaris/driverlib/timer.c **** //!
1447:/home/cuil/workspace/arm/lm3s811/TI_Stellaris/driverlib/timer.c **** //! \note This functionality is not available on all parts.
1448:/home/cuil/workspace/arm/lm3s811/TI_Stellaris/driverlib/timer.c **** //!
1449:/home/cuil/workspace/arm/lm3s811/TI_Stellaris/driverlib/timer.c **** //! \return None.
1450:/home/cuil/workspace/arm/lm3s811/TI_Stellaris/driverlib/timer.c **** //
1451:/home/cuil/workspace/arm/lm3s811/TI_Stellaris/driverlib/timer.c **** //*****************************************************************************
1452:/home/cuil/workspace/arm/lm3s811/TI_Stellaris/driverlib/timer.c **** void
1453:/home/cuil/workspace/arm/lm3s811/TI_Stellaris/driverlib/timer.c **** TimerSynchronize(unsigned long ulBase, unsigned long ulTimers)
1454:/home/cuil/workspace/arm/lm3s811/TI_Stellaris/driverlib/timer.c **** {
 4725              		.loc 1 1454 0
 4726              		.cfi_startproc
 4727              		@ args = 0, pretend = 0, frame = 8
 4728              		@ frame_needed = 1, uses_anonymous_args = 0
 4729              		@ link register save eliminated.
 4730 0000 80B4     		push	{r7}
 4731              	.LCFI93:
 4732              		.cfi_def_cfa_offset 4
 4733 0002 83B0     		sub	sp, sp, #12
 4734              	.LCFI94:
 4735              		.cfi_def_cfa_offset 16
 4736 0004 00AF     		add	r7, sp, #0
 4737              		.cfi_offset 7, -4
 4738              	.LCFI95:
 4739              		.cfi_def_cfa_register 7
 4740 0006 7860     		str	r0, [r7, #4]
 4741 0008 3960     		str	r1, [r7, #0]
1455:/home/cuil/workspace/arm/lm3s811/TI_Stellaris/driverlib/timer.c ****     //
1456:/home/cuil/workspace/arm/lm3s811/TI_Stellaris/driverlib/timer.c ****     // Check the arguments.
1457:/home/cuil/workspace/arm/lm3s811/TI_Stellaris/driverlib/timer.c ****     //
1458:/home/cuil/workspace/arm/lm3s811/TI_Stellaris/driverlib/timer.c ****     ASSERT(ulBase == TIMER0_BASE);
1459:/home/cuil/workspace/arm/lm3s811/TI_Stellaris/driverlib/timer.c **** 
1460:/home/cuil/workspace/arm/lm3s811/TI_Stellaris/driverlib/timer.c ****     //
1461:/home/cuil/workspace/arm/lm3s811/TI_Stellaris/driverlib/timer.c ****     // Synchronize the specified timers.
1462:/home/cuil/workspace/arm/lm3s811/TI_Stellaris/driverlib/timer.c ****     //
1463:/home/cuil/workspace/arm/lm3s811/TI_Stellaris/driverlib/timer.c ****     HWREG(ulBase + TIMER_O_SYNC) = ulTimers;
 4742              		.loc 1 1463 0
 4743 000a 7B68     		ldr	r3, [r7, #4]
 4744 000c 03F11003 		add	r3, r3, #16
 4745 0010 3A68     		ldr	r2, [r7, #0]
 4746 0012 1A60     		str	r2, [r3, #0]
1464:/home/cuil/workspace/arm/lm3s811/TI_Stellaris/driverlib/timer.c **** }
 4747              		.loc 1 1464 0
 4748 0014 07F10C07 		add	r7, r7, #12
 4749 0018 BD46     		mov	sp, r7
 4750 001a 80BC     		pop	{r7}
 4751 001c 7047     		bx	lr
 4752              		.cfi_endproc
 4753              	.LFE31:
 4755 001e 00BF     		.section	.text.TimerQuiesce,"ax",%progbits
 4756              		.align	2
 4757              		.global	TimerQuiesce
 4758              		.thumb
 4759              		.thumb_func
 4761              	TimerQuiesce:
 4762              	.LFB32:
1465:/home/cuil/workspace/arm/lm3s811/TI_Stellaris/driverlib/timer.c **** 
1466:/home/cuil/workspace/arm/lm3s811/TI_Stellaris/driverlib/timer.c **** //*****************************************************************************
1467:/home/cuil/workspace/arm/lm3s811/TI_Stellaris/driverlib/timer.c **** //
1468:/home/cuil/workspace/arm/lm3s811/TI_Stellaris/driverlib/timer.c **** // Puts the timer into its reset state.
1469:/home/cuil/workspace/arm/lm3s811/TI_Stellaris/driverlib/timer.c **** //
1470:/home/cuil/workspace/arm/lm3s811/TI_Stellaris/driverlib/timer.c **** // \param ulBase is the base address of the timer module.
1471:/home/cuil/workspace/arm/lm3s811/TI_Stellaris/driverlib/timer.c **** //
1472:/home/cuil/workspace/arm/lm3s811/TI_Stellaris/driverlib/timer.c **** // This function disables the specified timer, and all its interrupts are 
1473:/home/cuil/workspace/arm/lm3s811/TI_Stellaris/driverlib/timer.c **** // disabled, cleared, and unregistered.  Then the timer registers are set to
1474:/home/cuil/workspace/arm/lm3s811/TI_Stellaris/driverlib/timer.c **** // their reset value.
1475:/home/cuil/workspace/arm/lm3s811/TI_Stellaris/driverlib/timer.c **** //
1476:/home/cuil/workspace/arm/lm3s811/TI_Stellaris/driverlib/timer.c **** // \return None.
1477:/home/cuil/workspace/arm/lm3s811/TI_Stellaris/driverlib/timer.c **** //
1478:/home/cuil/workspace/arm/lm3s811/TI_Stellaris/driverlib/timer.c **** //*****************************************************************************
1479:/home/cuil/workspace/arm/lm3s811/TI_Stellaris/driverlib/timer.c **** #ifndef DEPRECATED
1480:/home/cuil/workspace/arm/lm3s811/TI_Stellaris/driverlib/timer.c **** void
1481:/home/cuil/workspace/arm/lm3s811/TI_Stellaris/driverlib/timer.c **** TimerQuiesce(unsigned long ulBase)
1482:/home/cuil/workspace/arm/lm3s811/TI_Stellaris/driverlib/timer.c **** {
 4763              		.loc 1 1482 0
 4764              		.cfi_startproc
 4765              		@ args = 0, pretend = 0, frame = 8
 4766              		@ frame_needed = 1, uses_anonymous_args = 0
 4767 0000 80B5     		push	{r7, lr}
 4768              	.LCFI96:
 4769              		.cfi_def_cfa_offset 8
 4770 0002 82B0     		sub	sp, sp, #8
 4771              	.LCFI97:
 4772              		.cfi_def_cfa_offset 16
 4773 0004 00AF     		add	r7, sp, #0
 4774              		.cfi_offset 14, -4
 4775              		.cfi_offset 7, -8
 4776              	.LCFI98:
 4777              		.cfi_def_cfa_register 7
 4778 0006 7860     		str	r0, [r7, #4]
1483:/home/cuil/workspace/arm/lm3s811/TI_Stellaris/driverlib/timer.c ****     //
1484:/home/cuil/workspace/arm/lm3s811/TI_Stellaris/driverlib/timer.c ****     // Check the arguments.
1485:/home/cuil/workspace/arm/lm3s811/TI_Stellaris/driverlib/timer.c ****     //
1486:/home/cuil/workspace/arm/lm3s811/TI_Stellaris/driverlib/timer.c ****     ASSERT(TimerBaseValid(ulBase));
1487:/home/cuil/workspace/arm/lm3s811/TI_Stellaris/driverlib/timer.c **** 
1488:/home/cuil/workspace/arm/lm3s811/TI_Stellaris/driverlib/timer.c ****     //
1489:/home/cuil/workspace/arm/lm3s811/TI_Stellaris/driverlib/timer.c ****     // Disable the timer.
1490:/home/cuil/workspace/arm/lm3s811/TI_Stellaris/driverlib/timer.c ****     //
1491:/home/cuil/workspace/arm/lm3s811/TI_Stellaris/driverlib/timer.c ****     HWREG(ulBase + TIMER_O_CTL) = TIMER_RV_CTL;
 4779              		.loc 1 1491 0
 4780 0008 7B68     		ldr	r3, [r7, #4]
 4781 000a 03F10C03 		add	r3, r3, #12
 4782 000e 4FF00002 		mov	r2, #0
 4783 0012 1A60     		str	r2, [r3, #0]
1492:/home/cuil/workspace/arm/lm3s811/TI_Stellaris/driverlib/timer.c **** 
1493:/home/cuil/workspace/arm/lm3s811/TI_Stellaris/driverlib/timer.c ****     //
1494:/home/cuil/workspace/arm/lm3s811/TI_Stellaris/driverlib/timer.c ****     // Disable all the timer interrupts.
1495:/home/cuil/workspace/arm/lm3s811/TI_Stellaris/driverlib/timer.c ****     //
1496:/home/cuil/workspace/arm/lm3s811/TI_Stellaris/driverlib/timer.c ****     HWREG(ulBase + TIMER_O_IMR) = TIMER_RV_IMR;
 4784              		.loc 1 1496 0
 4785 0014 7B68     		ldr	r3, [r7, #4]
 4786 0016 03F11803 		add	r3, r3, #24
 4787 001a 4FF00002 		mov	r2, #0
 4788 001e 1A60     		str	r2, [r3, #0]
1497:/home/cuil/workspace/arm/lm3s811/TI_Stellaris/driverlib/timer.c **** 
1498:/home/cuil/workspace/arm/lm3s811/TI_Stellaris/driverlib/timer.c ****     //
1499:/home/cuil/workspace/arm/lm3s811/TI_Stellaris/driverlib/timer.c ****     // Clear all the timer interrupts.
1500:/home/cuil/workspace/arm/lm3s811/TI_Stellaris/driverlib/timer.c ****     //
1501:/home/cuil/workspace/arm/lm3s811/TI_Stellaris/driverlib/timer.c ****     HWREG(ulBase + TIMER_O_ICR) = 0xFFFFFFFF;
 4789              		.loc 1 1501 0
 4790 0020 7B68     		ldr	r3, [r7, #4]
 4791 0022 03F12403 		add	r3, r3, #36
 4792 0026 4FF0FF32 		mov	r2, #-1
 4793 002a 1A60     		str	r2, [r3, #0]
1502:/home/cuil/workspace/arm/lm3s811/TI_Stellaris/driverlib/timer.c **** 
1503:/home/cuil/workspace/arm/lm3s811/TI_Stellaris/driverlib/timer.c ****     //
1504:/home/cuil/workspace/arm/lm3s811/TI_Stellaris/driverlib/timer.c ****     // Unregister the interrupt handler, which also disables interrupts to the
1505:/home/cuil/workspace/arm/lm3s811/TI_Stellaris/driverlib/timer.c ****     // core.
1506:/home/cuil/workspace/arm/lm3s811/TI_Stellaris/driverlib/timer.c ****     //
1507:/home/cuil/workspace/arm/lm3s811/TI_Stellaris/driverlib/timer.c ****     TimerIntUnregister(ulBase, TIMER_BOTH);
 4794              		.loc 1 1507 0
 4795 002c 7868     		ldr	r0, [r7, #4]
 4796 002e 4FF6FF71 		movw	r1, #65535
 4797 0032 FFF7FEFF 		bl	TimerIntUnregister
1508:/home/cuil/workspace/arm/lm3s811/TI_Stellaris/driverlib/timer.c **** 
1509:/home/cuil/workspace/arm/lm3s811/TI_Stellaris/driverlib/timer.c ****     //
1510:/home/cuil/workspace/arm/lm3s811/TI_Stellaris/driverlib/timer.c ****     // Set all the registers to their reset value.
1511:/home/cuil/workspace/arm/lm3s811/TI_Stellaris/driverlib/timer.c ****     //
1512:/home/cuil/workspace/arm/lm3s811/TI_Stellaris/driverlib/timer.c ****     HWREG(ulBase + TIMER_O_CFG) = TIMER_RV_CFG;
 4798              		.loc 1 1512 0
 4799 0036 7B68     		ldr	r3, [r7, #4]
 4800 0038 4FF00002 		mov	r2, #0
 4801 003c 1A60     		str	r2, [r3, #0]
1513:/home/cuil/workspace/arm/lm3s811/TI_Stellaris/driverlib/timer.c ****     HWREG(ulBase + TIMER_O_TAMR) = TIMER_RV_TAMR;
 4802              		.loc 1 1513 0
 4803 003e 7B68     		ldr	r3, [r7, #4]
 4804 0040 03F10403 		add	r3, r3, #4
 4805 0044 4FF00002 		mov	r2, #0
 4806 0048 1A60     		str	r2, [r3, #0]
1514:/home/cuil/workspace/arm/lm3s811/TI_Stellaris/driverlib/timer.c ****     HWREG(ulBase + TIMER_O_TBMR) = TIMER_RV_TBMR;
 4807              		.loc 1 1514 0
 4808 004a 7B68     		ldr	r3, [r7, #4]
 4809 004c 03F10803 		add	r3, r3, #8
 4810 0050 4FF00002 		mov	r2, #0
 4811 0054 1A60     		str	r2, [r3, #0]
1515:/home/cuil/workspace/arm/lm3s811/TI_Stellaris/driverlib/timer.c ****     HWREG(ulBase + TIMER_O_RIS) = TIMER_RV_RIS;
 4812              		.loc 1 1515 0
 4813 0056 7B68     		ldr	r3, [r7, #4]
 4814 0058 03F11C03 		add	r3, r3, #28
 4815 005c 4FF00002 		mov	r2, #0
 4816 0060 1A60     		str	r2, [r3, #0]
1516:/home/cuil/workspace/arm/lm3s811/TI_Stellaris/driverlib/timer.c ****     HWREG(ulBase + TIMER_O_MIS) = TIMER_RV_MIS;
 4817              		.loc 1 1516 0
 4818 0062 7B68     		ldr	r3, [r7, #4]
 4819 0064 03F12003 		add	r3, r3, #32
 4820 0068 4FF00002 		mov	r2, #0
 4821 006c 1A60     		str	r2, [r3, #0]
1517:/home/cuil/workspace/arm/lm3s811/TI_Stellaris/driverlib/timer.c ****     HWREG(ulBase + TIMER_O_TAILR) = TIMER_RV_TAILR;
 4822              		.loc 1 1517 0
 4823 006e 7B68     		ldr	r3, [r7, #4]
 4824 0070 03F12803 		add	r3, r3, #40
 4825 0074 4FF0FF32 		mov	r2, #-1
 4826 0078 1A60     		str	r2, [r3, #0]
1518:/home/cuil/workspace/arm/lm3s811/TI_Stellaris/driverlib/timer.c ****     HWREG(ulBase + TIMER_O_TBILR) = TIMER_RV_TBILR;
 4827              		.loc 1 1518 0
 4828 007a 7B68     		ldr	r3, [r7, #4]
 4829 007c 03F12C03 		add	r3, r3, #44
 4830 0080 4FF6FF72 		movw	r2, #65535
 4831 0084 1A60     		str	r2, [r3, #0]
1519:/home/cuil/workspace/arm/lm3s811/TI_Stellaris/driverlib/timer.c ****     HWREG(ulBase + TIMER_O_TAMATCHR) = TIMER_RV_TAMATCHR;
 4832              		.loc 1 1519 0
 4833 0086 7B68     		ldr	r3, [r7, #4]
 4834 0088 03F13003 		add	r3, r3, #48
 4835 008c 4FF0FF32 		mov	r2, #-1
 4836 0090 1A60     		str	r2, [r3, #0]
1520:/home/cuil/workspace/arm/lm3s811/TI_Stellaris/driverlib/timer.c ****     HWREG(ulBase + TIMER_O_TBMATCHR) = TIMER_RV_TBMATCHR;
 4837              		.loc 1 1520 0
 4838 0092 7B68     		ldr	r3, [r7, #4]
 4839 0094 03F13403 		add	r3, r3, #52
 4840 0098 4FF6FF72 		movw	r2, #65535
 4841 009c 1A60     		str	r2, [r3, #0]
1521:/home/cuil/workspace/arm/lm3s811/TI_Stellaris/driverlib/timer.c ****     HWREG(ulBase + TIMER_O_TAPR) = TIMER_RV_TAPR;
 4842              		.loc 1 1521 0
 4843 009e 7B68     		ldr	r3, [r7, #4]
 4844 00a0 03F13803 		add	r3, r3, #56
 4845 00a4 4FF00002 		mov	r2, #0
 4846 00a8 1A60     		str	r2, [r3, #0]
1522:/home/cuil/workspace/arm/lm3s811/TI_Stellaris/driverlib/timer.c ****     HWREG(ulBase + TIMER_O_TBPR) = TIMER_RV_TBPR;
 4847              		.loc 1 1522 0
 4848 00aa 7B68     		ldr	r3, [r7, #4]
 4849 00ac 03F13C03 		add	r3, r3, #60
 4850 00b0 4FF00002 		mov	r2, #0
 4851 00b4 1A60     		str	r2, [r3, #0]
1523:/home/cuil/workspace/arm/lm3s811/TI_Stellaris/driverlib/timer.c ****     HWREG(ulBase + TIMER_O_TAPMR) = TIMER_RV_TAPMR;
 4852              		.loc 1 1523 0
 4853 00b6 7B68     		ldr	r3, [r7, #4]
 4854 00b8 03F14003 		add	r3, r3, #64
 4855 00bc 4FF00002 		mov	r2, #0
 4856 00c0 1A60     		str	r2, [r3, #0]
1524:/home/cuil/workspace/arm/lm3s811/TI_Stellaris/driverlib/timer.c ****     HWREG(ulBase + TIMER_O_TBPMR) = TIMER_RV_TBPMR;
 4857              		.loc 1 1524 0
 4858 00c2 7B68     		ldr	r3, [r7, #4]
 4859 00c4 03F14403 		add	r3, r3, #68
 4860 00c8 4FF00002 		mov	r2, #0
 4861 00cc 1A60     		str	r2, [r3, #0]
1525:/home/cuil/workspace/arm/lm3s811/TI_Stellaris/driverlib/timer.c ****     HWREG(ulBase + TIMER_O_TAR) = TIMER_RV_TAR;
 4862              		.loc 1 1525 0
 4863 00ce 7B68     		ldr	r3, [r7, #4]
 4864 00d0 03F14803 		add	r3, r3, #72
 4865 00d4 4FF0FF32 		mov	r2, #-1
 4866 00d8 1A60     		str	r2, [r3, #0]
1526:/home/cuil/workspace/arm/lm3s811/TI_Stellaris/driverlib/timer.c ****     HWREG(ulBase + TIMER_O_TBR) = TIMER_RV_TBR;
 4867              		.loc 1 1526 0
 4868 00da 7B68     		ldr	r3, [r7, #4]
 4869 00dc 03F14C03 		add	r3, r3, #76
 4870 00e0 4FF6FF72 		movw	r2, #65535
 4871 00e4 1A60     		str	r2, [r3, #0]
1527:/home/cuil/workspace/arm/lm3s811/TI_Stellaris/driverlib/timer.c **** }
 4872              		.loc 1 1527 0
 4873 00e6 07F10807 		add	r7, r7, #8
 4874 00ea BD46     		mov	sp, r7
 4875 00ec 80BD     		pop	{r7, pc}
 4876              		.cfi_endproc
 4877              	.LFE32:
 4879 00ee 00BF     		.text
 4880              	.Letext0: