   1              		.syntax unified
   2              		.cpu cortex-m3
   3              		.fpu softvfp
   4              		.eabi_attribute 20, 1
   5              		.eabi_attribute 21, 1
   6              		.eabi_attribute 23, 3
   7              		.eabi_attribute 24, 1
   8              		.eabi_attribute 25, 1
   9              		.eabi_attribute 26, 1
  10              		.eabi_attribute 30, 6
  11              		.eabi_attribute 18, 4
  12              		.thumb
  13              		.file	"uart.c"
  23              	.Ltext0:
  24              		.file 1 "/home/cuil/workspace/arm/lm3s811/TI_Stellaris/driverlib/uart.c"
 9628              		.align	2
 9631              	g_ppulUARTIntMap:
 9632 0000 00C00040 		.word	1073790976
 9633 0004 15000000 		.word	21
 9634 0008 00D00040 		.word	1073795072
 9635 000c 16000000 		.word	22
 9636 0010 00E00040 		.word	1073799168
 9637 0014 31000000 		.word	49
 9638 0018 00F00040 		.word	1073803264
 9639 001c 4B000000 		.word	75
 9640 0020 00000140 		.word	1073807360
 9641 0024 4C000000 		.word	76
 9642 0028 00100140 		.word	1073811456
 9643 002c 4D000000 		.word	77
 9644 0030 00200140 		.word	1073815552
 9645 0034 4E000000 		.word	78
 9646 0038 00300140 		.word	1073819648
 9647 003c 4F000000 		.word	79
 9648              		.section	.text.UARTIntNumberGet,"ax",%progbits
 9649              		.align	2
 9650              		.thumb
 9651              		.thumb_func
 9653              	UARTIntNumberGet:
 9654              	.LFB0:
   1:/home/cuil/workspace/arm/lm3s811/TI_Stellaris/driverlib/uart.c **** //*****************************************************************************
   2:/home/cuil/workspace/arm/lm3s811/TI_Stellaris/driverlib/uart.c **** //
   3:/home/cuil/workspace/arm/lm3s811/TI_Stellaris/driverlib/uart.c **** // uart.c - Driver for the UART.
   4:/home/cuil/workspace/arm/lm3s811/TI_Stellaris/driverlib/uart.c **** //
   5:/home/cuil/workspace/arm/lm3s811/TI_Stellaris/driverlib/uart.c **** // Copyright (c) 2005-2011 Texas Instruments Incorporated.  All rights reserved.
   6:/home/cuil/workspace/arm/lm3s811/TI_Stellaris/driverlib/uart.c **** // Software License Agreement
   7:/home/cuil/workspace/arm/lm3s811/TI_Stellaris/driverlib/uart.c **** // 
   8:/home/cuil/workspace/arm/lm3s811/TI_Stellaris/driverlib/uart.c **** // Texas Instruments (TI) is supplying this software for use solely and
   9:/home/cuil/workspace/arm/lm3s811/TI_Stellaris/driverlib/uart.c **** // exclusively on TI's microcontroller products. The software is owned by
  10:/home/cuil/workspace/arm/lm3s811/TI_Stellaris/driverlib/uart.c **** // TI and/or its suppliers, and is protected under applicable copyright
  11:/home/cuil/workspace/arm/lm3s811/TI_Stellaris/driverlib/uart.c **** // laws. You may not combine this software with "viral" open-source
  12:/home/cuil/workspace/arm/lm3s811/TI_Stellaris/driverlib/uart.c **** // software in order to form a larger program.
  13:/home/cuil/workspace/arm/lm3s811/TI_Stellaris/driverlib/uart.c **** // 
  14:/home/cuil/workspace/arm/lm3s811/TI_Stellaris/driverlib/uart.c **** // THIS SOFTWARE IS PROVIDED "AS IS" AND WITH ALL FAULTS.
  15:/home/cuil/workspace/arm/lm3s811/TI_Stellaris/driverlib/uart.c **** // NO WARRANTIES, WHETHER EXPRESS, IMPLIED OR STATUTORY, INCLUDING, BUT
  16:/home/cuil/workspace/arm/lm3s811/TI_Stellaris/driverlib/uart.c **** // NOT LIMITED TO, IMPLIED WARRANTIES OF MERCHANTABILITY AND FITNESS FOR
  17:/home/cuil/workspace/arm/lm3s811/TI_Stellaris/driverlib/uart.c **** // A PARTICULAR PURPOSE APPLY TO THIS SOFTWARE. TI SHALL NOT, UNDER ANY
  18:/home/cuil/workspace/arm/lm3s811/TI_Stellaris/driverlib/uart.c **** // CIRCUMSTANCES, BE LIABLE FOR SPECIAL, INCIDENTAL, OR CONSEQUENTIAL
  19:/home/cuil/workspace/arm/lm3s811/TI_Stellaris/driverlib/uart.c **** // DAMAGES, FOR ANY REASON WHATSOEVER.
  20:/home/cuil/workspace/arm/lm3s811/TI_Stellaris/driverlib/uart.c **** // 
  21:/home/cuil/workspace/arm/lm3s811/TI_Stellaris/driverlib/uart.c **** // This is part of revision 8264 of the Stellaris Peripheral Driver Library.
  22:/home/cuil/workspace/arm/lm3s811/TI_Stellaris/driverlib/uart.c **** //
  23:/home/cuil/workspace/arm/lm3s811/TI_Stellaris/driverlib/uart.c **** //*****************************************************************************
  24:/home/cuil/workspace/arm/lm3s811/TI_Stellaris/driverlib/uart.c **** 
  25:/home/cuil/workspace/arm/lm3s811/TI_Stellaris/driverlib/uart.c **** //*****************************************************************************
  26:/home/cuil/workspace/arm/lm3s811/TI_Stellaris/driverlib/uart.c **** //
  27:/home/cuil/workspace/arm/lm3s811/TI_Stellaris/driverlib/uart.c **** //! \addtogroup uart_api
  28:/home/cuil/workspace/arm/lm3s811/TI_Stellaris/driverlib/uart.c **** //! @{
  29:/home/cuil/workspace/arm/lm3s811/TI_Stellaris/driverlib/uart.c **** //
  30:/home/cuil/workspace/arm/lm3s811/TI_Stellaris/driverlib/uart.c **** //*****************************************************************************
  31:/home/cuil/workspace/arm/lm3s811/TI_Stellaris/driverlib/uart.c **** 
  32:/home/cuil/workspace/arm/lm3s811/TI_Stellaris/driverlib/uart.c **** #include "inc/hw_ints.h"
  33:/home/cuil/workspace/arm/lm3s811/TI_Stellaris/driverlib/uart.c **** #include "inc/hw_memmap.h"
  34:/home/cuil/workspace/arm/lm3s811/TI_Stellaris/driverlib/uart.c **** #include "inc/hw_sysctl.h"
  35:/home/cuil/workspace/arm/lm3s811/TI_Stellaris/driverlib/uart.c **** #include "inc/hw_types.h"
  36:/home/cuil/workspace/arm/lm3s811/TI_Stellaris/driverlib/uart.c **** #include "inc/hw_uart.h"
  37:/home/cuil/workspace/arm/lm3s811/TI_Stellaris/driverlib/uart.c **** #include "driverlib/debug.h"
  38:/home/cuil/workspace/arm/lm3s811/TI_Stellaris/driverlib/uart.c **** #include "driverlib/interrupt.h"
  39:/home/cuil/workspace/arm/lm3s811/TI_Stellaris/driverlib/uart.c **** #include "driverlib/uart.h"
  40:/home/cuil/workspace/arm/lm3s811/TI_Stellaris/driverlib/uart.c **** 
  41:/home/cuil/workspace/arm/lm3s811/TI_Stellaris/driverlib/uart.c **** //*****************************************************************************
  42:/home/cuil/workspace/arm/lm3s811/TI_Stellaris/driverlib/uart.c **** //
  43:/home/cuil/workspace/arm/lm3s811/TI_Stellaris/driverlib/uart.c **** // The system clock divider defining the maximum baud rate supported by the
  44:/home/cuil/workspace/arm/lm3s811/TI_Stellaris/driverlib/uart.c **** // UART.
  45:/home/cuil/workspace/arm/lm3s811/TI_Stellaris/driverlib/uart.c **** //
  46:/home/cuil/workspace/arm/lm3s811/TI_Stellaris/driverlib/uart.c **** //*****************************************************************************
  47:/home/cuil/workspace/arm/lm3s811/TI_Stellaris/driverlib/uart.c **** #define UART_CLK_DIVIDER        ((CLASS_IS_SANDSTORM ||                       \
  48:/home/cuil/workspace/arm/lm3s811/TI_Stellaris/driverlib/uart.c ****                                   (CLASS_IS_FURY && REVISION_IS_A2) ||        \
  49:/home/cuil/workspace/arm/lm3s811/TI_Stellaris/driverlib/uart.c ****                                   (CLASS_IS_DUSTDEVIL && REVISION_IS_A0)) ?   \
  50:/home/cuil/workspace/arm/lm3s811/TI_Stellaris/driverlib/uart.c ****                                  16 : 8)
  51:/home/cuil/workspace/arm/lm3s811/TI_Stellaris/driverlib/uart.c **** 
  52:/home/cuil/workspace/arm/lm3s811/TI_Stellaris/driverlib/uart.c **** //*****************************************************************************
  53:/home/cuil/workspace/arm/lm3s811/TI_Stellaris/driverlib/uart.c **** //
  54:/home/cuil/workspace/arm/lm3s811/TI_Stellaris/driverlib/uart.c **** // A mapping of UART base address to interupt number.
  55:/home/cuil/workspace/arm/lm3s811/TI_Stellaris/driverlib/uart.c **** //
  56:/home/cuil/workspace/arm/lm3s811/TI_Stellaris/driverlib/uart.c **** //*****************************************************************************
  57:/home/cuil/workspace/arm/lm3s811/TI_Stellaris/driverlib/uart.c **** static const unsigned long g_ppulUARTIntMap[][2] =
  58:/home/cuil/workspace/arm/lm3s811/TI_Stellaris/driverlib/uart.c **** {
  59:/home/cuil/workspace/arm/lm3s811/TI_Stellaris/driverlib/uart.c ****     { UART0_BASE, INT_UART0 },
  60:/home/cuil/workspace/arm/lm3s811/TI_Stellaris/driverlib/uart.c ****     { UART1_BASE, INT_UART1 },
  61:/home/cuil/workspace/arm/lm3s811/TI_Stellaris/driverlib/uart.c ****     { UART2_BASE, INT_UART2 },
  62:/home/cuil/workspace/arm/lm3s811/TI_Stellaris/driverlib/uart.c ****     { UART3_BASE, INT_UART3 },
  63:/home/cuil/workspace/arm/lm3s811/TI_Stellaris/driverlib/uart.c ****     { UART4_BASE, INT_UART4 },
  64:/home/cuil/workspace/arm/lm3s811/TI_Stellaris/driverlib/uart.c ****     { UART5_BASE, INT_UART5 },
  65:/home/cuil/workspace/arm/lm3s811/TI_Stellaris/driverlib/uart.c ****     { UART6_BASE, INT_UART6 },
  66:/home/cuil/workspace/arm/lm3s811/TI_Stellaris/driverlib/uart.c ****     { UART7_BASE, INT_UART7 },
  67:/home/cuil/workspace/arm/lm3s811/TI_Stellaris/driverlib/uart.c **** };
  68:/home/cuil/workspace/arm/lm3s811/TI_Stellaris/driverlib/uart.c **** 
  69:/home/cuil/workspace/arm/lm3s811/TI_Stellaris/driverlib/uart.c **** //*****************************************************************************
  70:/home/cuil/workspace/arm/lm3s811/TI_Stellaris/driverlib/uart.c **** //
  71:/home/cuil/workspace/arm/lm3s811/TI_Stellaris/driverlib/uart.c **** //! \internal
  72:/home/cuil/workspace/arm/lm3s811/TI_Stellaris/driverlib/uart.c **** //! Checks a UART base address.
  73:/home/cuil/workspace/arm/lm3s811/TI_Stellaris/driverlib/uart.c **** //!
  74:/home/cuil/workspace/arm/lm3s811/TI_Stellaris/driverlib/uart.c **** //! \param ulBase is the base address of the UART port.
  75:/home/cuil/workspace/arm/lm3s811/TI_Stellaris/driverlib/uart.c **** //!
  76:/home/cuil/workspace/arm/lm3s811/TI_Stellaris/driverlib/uart.c **** //! This function determines if a UART port base address is valid.
  77:/home/cuil/workspace/arm/lm3s811/TI_Stellaris/driverlib/uart.c **** //!
  78:/home/cuil/workspace/arm/lm3s811/TI_Stellaris/driverlib/uart.c **** //! \return Returns \b true if the base address is valid and \b false
  79:/home/cuil/workspace/arm/lm3s811/TI_Stellaris/driverlib/uart.c **** //! otherwise.
  80:/home/cuil/workspace/arm/lm3s811/TI_Stellaris/driverlib/uart.c **** //
  81:/home/cuil/workspace/arm/lm3s811/TI_Stellaris/driverlib/uart.c **** //*****************************************************************************
  82:/home/cuil/workspace/arm/lm3s811/TI_Stellaris/driverlib/uart.c **** #ifdef DEBUG
  83:/home/cuil/workspace/arm/lm3s811/TI_Stellaris/driverlib/uart.c **** static tBoolean
  84:/home/cuil/workspace/arm/lm3s811/TI_Stellaris/driverlib/uart.c **** UARTBaseValid(unsigned long ulBase)
  85:/home/cuil/workspace/arm/lm3s811/TI_Stellaris/driverlib/uart.c **** {
  86:/home/cuil/workspace/arm/lm3s811/TI_Stellaris/driverlib/uart.c ****     return((ulBase == UART0_BASE) || (ulBase == UART1_BASE) ||
  87:/home/cuil/workspace/arm/lm3s811/TI_Stellaris/driverlib/uart.c ****            (ulBase == UART2_BASE) || (ulBase == UART3_BASE) ||
  88:/home/cuil/workspace/arm/lm3s811/TI_Stellaris/driverlib/uart.c ****            (ulBase == UART4_BASE) || (ulBase == UART5_BASE) ||
  89:/home/cuil/workspace/arm/lm3s811/TI_Stellaris/driverlib/uart.c ****            (ulBase == UART6_BASE) || (ulBase == UART7_BASE));
  90:/home/cuil/workspace/arm/lm3s811/TI_Stellaris/driverlib/uart.c **** }
  91:/home/cuil/workspace/arm/lm3s811/TI_Stellaris/driverlib/uart.c **** #endif
  92:/home/cuil/workspace/arm/lm3s811/TI_Stellaris/driverlib/uart.c **** 
  93:/home/cuil/workspace/arm/lm3s811/TI_Stellaris/driverlib/uart.c **** //*****************************************************************************
  94:/home/cuil/workspace/arm/lm3s811/TI_Stellaris/driverlib/uart.c **** //
  95:/home/cuil/workspace/arm/lm3s811/TI_Stellaris/driverlib/uart.c **** //! \internal
  96:/home/cuil/workspace/arm/lm3s811/TI_Stellaris/driverlib/uart.c **** //! Gets the UART interrupt number.
  97:/home/cuil/workspace/arm/lm3s811/TI_Stellaris/driverlib/uart.c **** //!
  98:/home/cuil/workspace/arm/lm3s811/TI_Stellaris/driverlib/uart.c **** //! \param ulBase is the base address of the UART port.
  99:/home/cuil/workspace/arm/lm3s811/TI_Stellaris/driverlib/uart.c **** //!
 100:/home/cuil/workspace/arm/lm3s811/TI_Stellaris/driverlib/uart.c **** //! Given a UART base address, this function returns the corresponding 
 101:/home/cuil/workspace/arm/lm3s811/TI_Stellaris/driverlib/uart.c **** //! interrupt number.
 102:/home/cuil/workspace/arm/lm3s811/TI_Stellaris/driverlib/uart.c **** //!
 103:/home/cuil/workspace/arm/lm3s811/TI_Stellaris/driverlib/uart.c **** //! \return Returns a UART interrupt number, or -1 if \e ulBase is invalid.
 104:/home/cuil/workspace/arm/lm3s811/TI_Stellaris/driverlib/uart.c **** //
 105:/home/cuil/workspace/arm/lm3s811/TI_Stellaris/driverlib/uart.c **** //*****************************************************************************
 106:/home/cuil/workspace/arm/lm3s811/TI_Stellaris/driverlib/uart.c **** static long
 107:/home/cuil/workspace/arm/lm3s811/TI_Stellaris/driverlib/uart.c **** UARTIntNumberGet(unsigned long ulBase)
 108:/home/cuil/workspace/arm/lm3s811/TI_Stellaris/driverlib/uart.c **** {
 9655              		.loc 1 108 0
 9656              		.cfi_startproc
 9657              		@ args = 0, pretend = 0, frame = 16
 9658              		@ frame_needed = 1, uses_anonymous_args = 0
 9659              		@ link register save eliminated.
 9660 0000 80B4     		push	{r7}
 9661              	.LCFI0:
 9662              		.cfi_def_cfa_offset 4
 9663 0002 85B0     		sub	sp, sp, #20
 9664              	.LCFI1:
 9665              		.cfi_def_cfa_offset 24
 9666 0004 00AF     		add	r7, sp, #0
 9667              		.cfi_offset 7, -4
 9668              	.LCFI2:
 9669              		.cfi_def_cfa_register 7
 9670 0006 7860     		str	r0, [r7, #4]
 109:/home/cuil/workspace/arm/lm3s811/TI_Stellaris/driverlib/uart.c ****     unsigned long ulIdx;
 110:/home/cuil/workspace/arm/lm3s811/TI_Stellaris/driverlib/uart.c **** 
 111:/home/cuil/workspace/arm/lm3s811/TI_Stellaris/driverlib/uart.c ****     //
 112:/home/cuil/workspace/arm/lm3s811/TI_Stellaris/driverlib/uart.c ****     // Loop through the table that maps UART base addresses to interrupt
 113:/home/cuil/workspace/arm/lm3s811/TI_Stellaris/driverlib/uart.c ****     // numbers.
 114:/home/cuil/workspace/arm/lm3s811/TI_Stellaris/driverlib/uart.c ****     //
 115:/home/cuil/workspace/arm/lm3s811/TI_Stellaris/driverlib/uart.c ****     for(ulIdx = 0; ulIdx < (sizeof(g_ppulUARTIntMap) /
 9671              		.loc 1 115 0
 9672 0008 4FF00003 		mov	r3, #0
 9673 000c FB60     		str	r3, [r7, #12]
 9674 000e 11E0     		b	.L2
 9675              	.L5:
 116:/home/cuil/workspace/arm/lm3s811/TI_Stellaris/driverlib/uart.c ****                             sizeof(g_ppulUARTIntMap[0])); ulIdx++)
 117:/home/cuil/workspace/arm/lm3s811/TI_Stellaris/driverlib/uart.c ****     {
 118:/home/cuil/workspace/arm/lm3s811/TI_Stellaris/driverlib/uart.c ****         //
 119:/home/cuil/workspace/arm/lm3s811/TI_Stellaris/driverlib/uart.c ****         // See if this base address matches.
 120:/home/cuil/workspace/arm/lm3s811/TI_Stellaris/driverlib/uart.c ****         //
 121:/home/cuil/workspace/arm/lm3s811/TI_Stellaris/driverlib/uart.c ****         if(g_ppulUARTIntMap[ulIdx][0] == ulBase)
 9676              		.loc 1 121 0
 9677 0010 0E4B     		ldr	r3, .L6
 9678 0012 FA68     		ldr	r2, [r7, #12]
 9679 0014 53F83220 		ldr	r2, [r3, r2, lsl #3]
 9680 0018 7B68     		ldr	r3, [r7, #4]
 9681 001a 9A42     		cmp	r2, r3
 9682 001c 06D1     		bne	.L3
 122:/home/cuil/workspace/arm/lm3s811/TI_Stellaris/driverlib/uart.c ****         {
 123:/home/cuil/workspace/arm/lm3s811/TI_Stellaris/driverlib/uart.c ****             //
 124:/home/cuil/workspace/arm/lm3s811/TI_Stellaris/driverlib/uart.c ****             // Return the corresponding interrupt number.
 125:/home/cuil/workspace/arm/lm3s811/TI_Stellaris/driverlib/uart.c ****             //
 126:/home/cuil/workspace/arm/lm3s811/TI_Stellaris/driverlib/uart.c ****             return(g_ppulUARTIntMap[ulIdx][1]);
 9683              		.loc 1 126 0
 9684 001e 0B4A     		ldr	r2, .L6
 9685 0020 FB68     		ldr	r3, [r7, #12]
 9686 0022 4FEAC303 		lsl	r3, r3, #3
 9687 0026 D318     		adds	r3, r2, r3
 9688 0028 5B68     		ldr	r3, [r3, #4]
 9689 002a 08E0     		b	.L4
 9690              	.L3:
 116:/home/cuil/workspace/arm/lm3s811/TI_Stellaris/driverlib/uart.c ****                             sizeof(g_ppulUARTIntMap[0])); ulIdx++)
 9691              		.loc 1 116 0
 9692 002c FB68     		ldr	r3, [r7, #12]
 9693 002e 03F10103 		add	r3, r3, #1
 9694 0032 FB60     		str	r3, [r7, #12]
 9695              	.L2:
 115:/home/cuil/workspace/arm/lm3s811/TI_Stellaris/driverlib/uart.c ****     for(ulIdx = 0; ulIdx < (sizeof(g_ppulUARTIntMap) /
 9696              		.loc 1 115 0 discriminator 1
 9697 0034 FB68     		ldr	r3, [r7, #12]
 9698 0036 072B     		cmp	r3, #7
 9699 0038 EAD9     		bls	.L5
 127:/home/cuil/workspace/arm/lm3s811/TI_Stellaris/driverlib/uart.c ****         }
 128:/home/cuil/workspace/arm/lm3s811/TI_Stellaris/driverlib/uart.c ****     }
 129:/home/cuil/workspace/arm/lm3s811/TI_Stellaris/driverlib/uart.c **** 
 130:/home/cuil/workspace/arm/lm3s811/TI_Stellaris/driverlib/uart.c ****     //
 131:/home/cuil/workspace/arm/lm3s811/TI_Stellaris/driverlib/uart.c ****     // The base address could not be found, so return an error.
 132:/home/cuil/workspace/arm/lm3s811/TI_Stellaris/driverlib/uart.c ****     //
 133:/home/cuil/workspace/arm/lm3s811/TI_Stellaris/driverlib/uart.c ****     return(-1);
 9700              		.loc 1 133 0
 9701 003a 4FF0FF33 		mov	r3, #-1
 9702              	.L4:
 134:/home/cuil/workspace/arm/lm3s811/TI_Stellaris/driverlib/uart.c **** }
 9703              		.loc 1 134 0
 9704 003e 1846     		mov	r0, r3
 9705 0040 07F11407 		add	r7, r7, #20
 9706 0044 BD46     		mov	sp, r7
 9707 0046 80BC     		pop	{r7}
 9708 0048 7047     		bx	lr
 9709              	.L7:
 9710 004a 00BF     		.align	2
 9711              	.L6:
 9712 004c 00000000 		.word	g_ppulUARTIntMap
 9713              		.cfi_endproc
 9714              	.LFE0:
 9716              		.section	.text.UARTParityModeSet,"ax",%progbits
 9717              		.align	2
 9718              		.global	UARTParityModeSet
 9719              		.thumb
 9720              		.thumb_func
 9722              	UARTParityModeSet:
 9723              	.LFB1:
 135:/home/cuil/workspace/arm/lm3s811/TI_Stellaris/driverlib/uart.c **** 
 136:/home/cuil/workspace/arm/lm3s811/TI_Stellaris/driverlib/uart.c **** //*****************************************************************************
 137:/home/cuil/workspace/arm/lm3s811/TI_Stellaris/driverlib/uart.c **** //
 138:/home/cuil/workspace/arm/lm3s811/TI_Stellaris/driverlib/uart.c **** //! Sets the type of parity.
 139:/home/cuil/workspace/arm/lm3s811/TI_Stellaris/driverlib/uart.c **** //!
 140:/home/cuil/workspace/arm/lm3s811/TI_Stellaris/driverlib/uart.c **** //! \param ulBase is the base address of the UART port.
 141:/home/cuil/workspace/arm/lm3s811/TI_Stellaris/driverlib/uart.c **** //! \param ulParity specifies the type of parity to use.
 142:/home/cuil/workspace/arm/lm3s811/TI_Stellaris/driverlib/uart.c **** //!
 143:/home/cuil/workspace/arm/lm3s811/TI_Stellaris/driverlib/uart.c **** //! This function configures the type of parity to use for transmitting and 
 144:/home/cuil/workspace/arm/lm3s811/TI_Stellaris/driverlib/uart.c **** //! expect when receiving.  The \e ulParity parameter must be one of
 145:/home/cuil/workspace/arm/lm3s811/TI_Stellaris/driverlib/uart.c **** //! \b UART_CONFIG_PAR_NONE, \b UART_CONFIG_PAR_EVEN, \b UART_CONFIG_PAR_ODD,
 146:/home/cuil/workspace/arm/lm3s811/TI_Stellaris/driverlib/uart.c **** //! \b UART_CONFIG_PAR_ONE, or \b UART_CONFIG_PAR_ZERO.  The last two 
 147:/home/cuil/workspace/arm/lm3s811/TI_Stellaris/driverlib/uart.c **** //! parameters allow direct control of the parity bit; it is always either one 
 148:/home/cuil/workspace/arm/lm3s811/TI_Stellaris/driverlib/uart.c **** //! or zero based on the mode.
 149:/home/cuil/workspace/arm/lm3s811/TI_Stellaris/driverlib/uart.c **** //!
 150:/home/cuil/workspace/arm/lm3s811/TI_Stellaris/driverlib/uart.c **** //! \return None.
 151:/home/cuil/workspace/arm/lm3s811/TI_Stellaris/driverlib/uart.c **** //
 152:/home/cuil/workspace/arm/lm3s811/TI_Stellaris/driverlib/uart.c **** //*****************************************************************************
 153:/home/cuil/workspace/arm/lm3s811/TI_Stellaris/driverlib/uart.c **** void
 154:/home/cuil/workspace/arm/lm3s811/TI_Stellaris/driverlib/uart.c **** UARTParityModeSet(unsigned long ulBase, unsigned long ulParity)
 155:/home/cuil/workspace/arm/lm3s811/TI_Stellaris/driverlib/uart.c **** {
 9724              		.loc 1 155 0
 9725              		.cfi_startproc
 9726              		@ args = 0, pretend = 0, frame = 8
 9727              		@ frame_needed = 1, uses_anonymous_args = 0
 9728              		@ link register save eliminated.
 9729 0000 80B4     		push	{r7}
 9730              	.LCFI3:
 9731              		.cfi_def_cfa_offset 4
 9732 0002 83B0     		sub	sp, sp, #12
 9733              	.LCFI4:
 9734              		.cfi_def_cfa_offset 16
 9735 0004 00AF     		add	r7, sp, #0
 9736              		.cfi_offset 7, -4
 9737              	.LCFI5:
 9738              		.cfi_def_cfa_register 7
 9739 0006 7860     		str	r0, [r7, #4]
 9740 0008 3960     		str	r1, [r7, #0]
 156:/home/cuil/workspace/arm/lm3s811/TI_Stellaris/driverlib/uart.c ****     //
 157:/home/cuil/workspace/arm/lm3s811/TI_Stellaris/driverlib/uart.c ****     // Check the arguments.
 158:/home/cuil/workspace/arm/lm3s811/TI_Stellaris/driverlib/uart.c ****     //
 159:/home/cuil/workspace/arm/lm3s811/TI_Stellaris/driverlib/uart.c ****     ASSERT(UARTBaseValid(ulBase));
 160:/home/cuil/workspace/arm/lm3s811/TI_Stellaris/driverlib/uart.c ****     ASSERT((ulParity == UART_CONFIG_PAR_NONE) ||
 161:/home/cuil/workspace/arm/lm3s811/TI_Stellaris/driverlib/uart.c ****            (ulParity == UART_CONFIG_PAR_EVEN) ||
 162:/home/cuil/workspace/arm/lm3s811/TI_Stellaris/driverlib/uart.c ****            (ulParity == UART_CONFIG_PAR_ODD) ||
 163:/home/cuil/workspace/arm/lm3s811/TI_Stellaris/driverlib/uart.c ****            (ulParity == UART_CONFIG_PAR_ONE) ||
 164:/home/cuil/workspace/arm/lm3s811/TI_Stellaris/driverlib/uart.c ****            (ulParity == UART_CONFIG_PAR_ZERO));
 165:/home/cuil/workspace/arm/lm3s811/TI_Stellaris/driverlib/uart.c **** 
 166:/home/cuil/workspace/arm/lm3s811/TI_Stellaris/driverlib/uart.c ****     //
 167:/home/cuil/workspace/arm/lm3s811/TI_Stellaris/driverlib/uart.c ****     // Set the parity mode.
 168:/home/cuil/workspace/arm/lm3s811/TI_Stellaris/driverlib/uart.c ****     //
 169:/home/cuil/workspace/arm/lm3s811/TI_Stellaris/driverlib/uart.c ****     HWREG(ulBase + UART_O_LCRH) = ((HWREG(ulBase + UART_O_LCRH) &
 9741              		.loc 1 169 0
 9742 000a 7B68     		ldr	r3, [r7, #4]
 9743 000c 03F12C03 		add	r3, r3, #44
 9744 0010 7A68     		ldr	r2, [r7, #4]
 9745 0012 02F12C02 		add	r2, r2, #44
 9746 0016 1268     		ldr	r2, [r2, #0]
 9747 0018 22F08601 		bic	r1, r2, #134
 170:/home/cuil/workspace/arm/lm3s811/TI_Stellaris/driverlib/uart.c ****                                     ~(UART_LCRH_SPS | UART_LCRH_EPS |
 171:/home/cuil/workspace/arm/lm3s811/TI_Stellaris/driverlib/uart.c ****                                       UART_LCRH_PEN)) | ulParity);
 9748              		.loc 1 171 0
 9749 001c 3A68     		ldr	r2, [r7, #0]
 9750 001e 41EA0202 		orr	r2, r1, r2
 169:/home/cuil/workspace/arm/lm3s811/TI_Stellaris/driverlib/uart.c ****     HWREG(ulBase + UART_O_LCRH) = ((HWREG(ulBase + UART_O_LCRH) &
 9751              		.loc 1 169 0
 9752 0022 1A60     		str	r2, [r3, #0]
 172:/home/cuil/workspace/arm/lm3s811/TI_Stellaris/driverlib/uart.c **** }
 9753              		.loc 1 172 0
 9754 0024 07F10C07 		add	r7, r7, #12
 9755 0028 BD46     		mov	sp, r7
 9756 002a 80BC     		pop	{r7}
 9757 002c 7047     		bx	lr
 9758              		.cfi_endproc
 9759              	.LFE1:
 9761 002e 00BF     		.section	.text.UARTParityModeGet,"ax",%progbits
 9762              		.align	2
 9763              		.global	UARTParityModeGet
 9764              		.thumb
 9765              		.thumb_func
 9767              	UARTParityModeGet:
 9768              	.LFB2:
 173:/home/cuil/workspace/arm/lm3s811/TI_Stellaris/driverlib/uart.c **** 
 174:/home/cuil/workspace/arm/lm3s811/TI_Stellaris/driverlib/uart.c **** //*****************************************************************************
 175:/home/cuil/workspace/arm/lm3s811/TI_Stellaris/driverlib/uart.c **** //
 176:/home/cuil/workspace/arm/lm3s811/TI_Stellaris/driverlib/uart.c **** //! Gets the type of parity currently being used.
 177:/home/cuil/workspace/arm/lm3s811/TI_Stellaris/driverlib/uart.c **** //!
 178:/home/cuil/workspace/arm/lm3s811/TI_Stellaris/driverlib/uart.c **** //! \param ulBase is the base address of the UART port.
 179:/home/cuil/workspace/arm/lm3s811/TI_Stellaris/driverlib/uart.c **** //!
 180:/home/cuil/workspace/arm/lm3s811/TI_Stellaris/driverlib/uart.c **** //! This function gets the type of parity used for transmitting data and
 181:/home/cuil/workspace/arm/lm3s811/TI_Stellaris/driverlib/uart.c **** //! expected when receiving data.
 182:/home/cuil/workspace/arm/lm3s811/TI_Stellaris/driverlib/uart.c **** //!
 183:/home/cuil/workspace/arm/lm3s811/TI_Stellaris/driverlib/uart.c **** //! \return Returns the current parity settings, specified as one of
 184:/home/cuil/workspace/arm/lm3s811/TI_Stellaris/driverlib/uart.c **** //! \b UART_CONFIG_PAR_NONE, \b UART_CONFIG_PAR_EVEN, \b UART_CONFIG_PAR_ODD,
 185:/home/cuil/workspace/arm/lm3s811/TI_Stellaris/driverlib/uart.c **** //! \b UART_CONFIG_PAR_ONE, or \b UART_CONFIG_PAR_ZERO.
 186:/home/cuil/workspace/arm/lm3s811/TI_Stellaris/driverlib/uart.c **** //
 187:/home/cuil/workspace/arm/lm3s811/TI_Stellaris/driverlib/uart.c **** //*****************************************************************************
 188:/home/cuil/workspace/arm/lm3s811/TI_Stellaris/driverlib/uart.c **** unsigned long
 189:/home/cuil/workspace/arm/lm3s811/TI_Stellaris/driverlib/uart.c **** UARTParityModeGet(unsigned long ulBase)
 190:/home/cuil/workspace/arm/lm3s811/TI_Stellaris/driverlib/uart.c **** {
 9769              		.loc 1 190 0
 9770              		.cfi_startproc
 9771              		@ args = 0, pretend = 0, frame = 8
 9772              		@ frame_needed = 1, uses_anonymous_args = 0
 9773              		@ link register save eliminated.
 9774 0000 80B4     		push	{r7}
 9775              	.LCFI6:
 9776              		.cfi_def_cfa_offset 4
 9777 0002 83B0     		sub	sp, sp, #12
 9778              	.LCFI7:
 9779              		.cfi_def_cfa_offset 16
 9780 0004 00AF     		add	r7, sp, #0
 9781              		.cfi_offset 7, -4
 9782              	.LCFI8:
 9783              		.cfi_def_cfa_register 7
 9784 0006 7860     		str	r0, [r7, #4]
 191:/home/cuil/workspace/arm/lm3s811/TI_Stellaris/driverlib/uart.c ****     //
 192:/home/cuil/workspace/arm/lm3s811/TI_Stellaris/driverlib/uart.c ****     // Check the arguments.
 193:/home/cuil/workspace/arm/lm3s811/TI_Stellaris/driverlib/uart.c ****     //
 194:/home/cuil/workspace/arm/lm3s811/TI_Stellaris/driverlib/uart.c ****     ASSERT(UARTBaseValid(ulBase));
 195:/home/cuil/workspace/arm/lm3s811/TI_Stellaris/driverlib/uart.c **** 
 196:/home/cuil/workspace/arm/lm3s811/TI_Stellaris/driverlib/uart.c ****     //
 197:/home/cuil/workspace/arm/lm3s811/TI_Stellaris/driverlib/uart.c ****     // Return the current parity setting.
 198:/home/cuil/workspace/arm/lm3s811/TI_Stellaris/driverlib/uart.c ****     //
 199:/home/cuil/workspace/arm/lm3s811/TI_Stellaris/driverlib/uart.c ****     return(HWREG(ulBase + UART_O_LCRH) &
 9785              		.loc 1 199 0
 9786 0008 7B68     		ldr	r3, [r7, #4]
 9787 000a 03F12C03 		add	r3, r3, #44
 9788 000e 1B68     		ldr	r3, [r3, #0]
 9789 0010 03F08603 		and	r3, r3, #134
 200:/home/cuil/workspace/arm/lm3s811/TI_Stellaris/driverlib/uart.c ****            (UART_LCRH_SPS | UART_LCRH_EPS | UART_LCRH_PEN));
 201:/home/cuil/workspace/arm/lm3s811/TI_Stellaris/driverlib/uart.c **** }
 9790              		.loc 1 201 0
 9791 0014 1846     		mov	r0, r3
 9792 0016 07F10C07 		add	r7, r7, #12
 9793 001a BD46     		mov	sp, r7
 9794 001c 80BC     		pop	{r7}
 9795 001e 7047     		bx	lr
 9796              		.cfi_endproc
 9797              	.LFE2:
 9799              		.section	.text.UARTFIFOLevelSet,"ax",%progbits
 9800              		.align	2
 9801              		.global	UARTFIFOLevelSet
 9802              		.thumb
 9803              		.thumb_func
 9805              	UARTFIFOLevelSet:
 9806              	.LFB3:
 202:/home/cuil/workspace/arm/lm3s811/TI_Stellaris/driverlib/uart.c **** 
 203:/home/cuil/workspace/arm/lm3s811/TI_Stellaris/driverlib/uart.c **** //*****************************************************************************
 204:/home/cuil/workspace/arm/lm3s811/TI_Stellaris/driverlib/uart.c **** //
 205:/home/cuil/workspace/arm/lm3s811/TI_Stellaris/driverlib/uart.c **** //! Sets the FIFO level at which interrupts are generated.
 206:/home/cuil/workspace/arm/lm3s811/TI_Stellaris/driverlib/uart.c **** //!
 207:/home/cuil/workspace/arm/lm3s811/TI_Stellaris/driverlib/uart.c **** //! \param ulBase is the base address of the UART port.
 208:/home/cuil/workspace/arm/lm3s811/TI_Stellaris/driverlib/uart.c **** //! \param ulTxLevel is the transmit FIFO interrupt level, specified as one of
 209:/home/cuil/workspace/arm/lm3s811/TI_Stellaris/driverlib/uart.c **** //! \b UART_FIFO_TX1_8, \b UART_FIFO_TX2_8, \b UART_FIFO_TX4_8,
 210:/home/cuil/workspace/arm/lm3s811/TI_Stellaris/driverlib/uart.c **** //! \b UART_FIFO_TX6_8, or \b UART_FIFO_TX7_8.
 211:/home/cuil/workspace/arm/lm3s811/TI_Stellaris/driverlib/uart.c **** //! \param ulRxLevel is the receive FIFO interrupt level, specified as one of
 212:/home/cuil/workspace/arm/lm3s811/TI_Stellaris/driverlib/uart.c **** //! \b UART_FIFO_RX1_8, \b UART_FIFO_RX2_8, \b UART_FIFO_RX4_8,
 213:/home/cuil/workspace/arm/lm3s811/TI_Stellaris/driverlib/uart.c **** //! \b UART_FIFO_RX6_8, or \b UART_FIFO_RX7_8.
 214:/home/cuil/workspace/arm/lm3s811/TI_Stellaris/driverlib/uart.c **** //!
 215:/home/cuil/workspace/arm/lm3s811/TI_Stellaris/driverlib/uart.c **** //! This function configures the FIFO level at which transmit and receive
 216:/home/cuil/workspace/arm/lm3s811/TI_Stellaris/driverlib/uart.c **** //! interrupts are generated.
 217:/home/cuil/workspace/arm/lm3s811/TI_Stellaris/driverlib/uart.c **** //!
 218:/home/cuil/workspace/arm/lm3s811/TI_Stellaris/driverlib/uart.c **** //! \return None.
 219:/home/cuil/workspace/arm/lm3s811/TI_Stellaris/driverlib/uart.c **** //
 220:/home/cuil/workspace/arm/lm3s811/TI_Stellaris/driverlib/uart.c **** //*****************************************************************************
 221:/home/cuil/workspace/arm/lm3s811/TI_Stellaris/driverlib/uart.c **** void
 222:/home/cuil/workspace/arm/lm3s811/TI_Stellaris/driverlib/uart.c **** UARTFIFOLevelSet(unsigned long ulBase, unsigned long ulTxLevel,
 223:/home/cuil/workspace/arm/lm3s811/TI_Stellaris/driverlib/uart.c ****                  unsigned long ulRxLevel)
 224:/home/cuil/workspace/arm/lm3s811/TI_Stellaris/driverlib/uart.c **** {
 9807              		.loc 1 224 0
 9808              		.cfi_startproc
 9809              		@ args = 0, pretend = 0, frame = 16
 9810              		@ frame_needed = 1, uses_anonymous_args = 0
 9811              		@ link register save eliminated.
 9812 0000 80B4     		push	{r7}
 9813              	.LCFI9:
 9814              		.cfi_def_cfa_offset 4
 9815 0002 85B0     		sub	sp, sp, #20
 9816              	.LCFI10:
 9817              		.cfi_def_cfa_offset 24
 9818 0004 00AF     		add	r7, sp, #0
 9819              		.cfi_offset 7, -4
 9820              	.LCFI11:
 9821              		.cfi_def_cfa_register 7
 9822 0006 F860     		str	r0, [r7, #12]
 9823 0008 B960     		str	r1, [r7, #8]
 9824 000a 7A60     		str	r2, [r7, #4]
 225:/home/cuil/workspace/arm/lm3s811/TI_Stellaris/driverlib/uart.c ****     //
 226:/home/cuil/workspace/arm/lm3s811/TI_Stellaris/driverlib/uart.c ****     // Check the arguments.
 227:/home/cuil/workspace/arm/lm3s811/TI_Stellaris/driverlib/uart.c ****     //
 228:/home/cuil/workspace/arm/lm3s811/TI_Stellaris/driverlib/uart.c ****     ASSERT(UARTBaseValid(ulBase));
 229:/home/cuil/workspace/arm/lm3s811/TI_Stellaris/driverlib/uart.c ****     ASSERT((ulTxLevel == UART_FIFO_TX1_8) ||
 230:/home/cuil/workspace/arm/lm3s811/TI_Stellaris/driverlib/uart.c ****            (ulTxLevel == UART_FIFO_TX2_8) ||
 231:/home/cuil/workspace/arm/lm3s811/TI_Stellaris/driverlib/uart.c ****            (ulTxLevel == UART_FIFO_TX4_8) ||
 232:/home/cuil/workspace/arm/lm3s811/TI_Stellaris/driverlib/uart.c ****            (ulTxLevel == UART_FIFO_TX6_8) ||
 233:/home/cuil/workspace/arm/lm3s811/TI_Stellaris/driverlib/uart.c ****            (ulTxLevel == UART_FIFO_TX7_8));
 234:/home/cuil/workspace/arm/lm3s811/TI_Stellaris/driverlib/uart.c ****     ASSERT((ulRxLevel == UART_FIFO_RX1_8) ||
 235:/home/cuil/workspace/arm/lm3s811/TI_Stellaris/driverlib/uart.c ****            (ulRxLevel == UART_FIFO_RX2_8) ||
 236:/home/cuil/workspace/arm/lm3s811/TI_Stellaris/driverlib/uart.c ****            (ulRxLevel == UART_FIFO_RX4_8) ||
 237:/home/cuil/workspace/arm/lm3s811/TI_Stellaris/driverlib/uart.c ****            (ulRxLevel == UART_FIFO_RX6_8) ||
 238:/home/cuil/workspace/arm/lm3s811/TI_Stellaris/driverlib/uart.c ****            (ulRxLevel == UART_FIFO_RX7_8));
 239:/home/cuil/workspace/arm/lm3s811/TI_Stellaris/driverlib/uart.c **** 
 240:/home/cuil/workspace/arm/lm3s811/TI_Stellaris/driverlib/uart.c ****     //
 241:/home/cuil/workspace/arm/lm3s811/TI_Stellaris/driverlib/uart.c ****     // Set the FIFO interrupt levels.
 242:/home/cuil/workspace/arm/lm3s811/TI_Stellaris/driverlib/uart.c ****     //
 243:/home/cuil/workspace/arm/lm3s811/TI_Stellaris/driverlib/uart.c ****     HWREG(ulBase + UART_O_IFLS) = ulTxLevel | ulRxLevel;
 9825              		.loc 1 243 0
 9826 000c FB68     		ldr	r3, [r7, #12]
 9827 000e 03F13403 		add	r3, r3, #52
 9828 0012 B968     		ldr	r1, [r7, #8]
 9829 0014 7A68     		ldr	r2, [r7, #4]
 9830 0016 41EA0202 		orr	r2, r1, r2
 9831 001a 1A60     		str	r2, [r3, #0]
 244:/home/cuil/workspace/arm/lm3s811/TI_Stellaris/driverlib/uart.c **** }
 9832              		.loc 1 244 0
 9833 001c 07F11407 		add	r7, r7, #20
 9834 0020 BD46     		mov	sp, r7
 9835 0022 80BC     		pop	{r7}
 9836 0024 7047     		bx	lr
 9837              		.cfi_endproc
 9838              	.LFE3:
 9840 0026 00BF     		.section	.text.UARTFIFOLevelGet,"ax",%progbits
 9841              		.align	2
 9842              		.global	UARTFIFOLevelGet
 9843              		.thumb
 9844              		.thumb_func
 9846              	UARTFIFOLevelGet:
 9847              	.LFB4:
 245:/home/cuil/workspace/arm/lm3s811/TI_Stellaris/driverlib/uart.c **** 
 246:/home/cuil/workspace/arm/lm3s811/TI_Stellaris/driverlib/uart.c **** //*****************************************************************************
 247:/home/cuil/workspace/arm/lm3s811/TI_Stellaris/driverlib/uart.c **** //
 248:/home/cuil/workspace/arm/lm3s811/TI_Stellaris/driverlib/uart.c **** //! Gets the FIFO level at which interrupts are generated.
 249:/home/cuil/workspace/arm/lm3s811/TI_Stellaris/driverlib/uart.c **** //!
 250:/home/cuil/workspace/arm/lm3s811/TI_Stellaris/driverlib/uart.c **** //! \param ulBase is the base address of the UART port.
 251:/home/cuil/workspace/arm/lm3s811/TI_Stellaris/driverlib/uart.c **** //! \param pulTxLevel is a pointer to storage for the transmit FIFO level,
 252:/home/cuil/workspace/arm/lm3s811/TI_Stellaris/driverlib/uart.c **** //! returned as one of \b UART_FIFO_TX1_8, \b UART_FIFO_TX2_8,
 253:/home/cuil/workspace/arm/lm3s811/TI_Stellaris/driverlib/uart.c **** //! \b UART_FIFO_TX4_8, \b UART_FIFO_TX6_8, or \b UART_FIFO_TX7_8.
 254:/home/cuil/workspace/arm/lm3s811/TI_Stellaris/driverlib/uart.c **** //! \param pulRxLevel is a pointer to storage for the receive FIFO level,
 255:/home/cuil/workspace/arm/lm3s811/TI_Stellaris/driverlib/uart.c **** //! returned as one of \b UART_FIFO_RX1_8, \b UART_FIFO_RX2_8,
 256:/home/cuil/workspace/arm/lm3s811/TI_Stellaris/driverlib/uart.c **** //! \b UART_FIFO_RX4_8, \b UART_FIFO_RX6_8, or \b UART_FIFO_RX7_8.
 257:/home/cuil/workspace/arm/lm3s811/TI_Stellaris/driverlib/uart.c **** //!
 258:/home/cuil/workspace/arm/lm3s811/TI_Stellaris/driverlib/uart.c **** //! This function gets the FIFO level at which transmit and receive interrupts
 259:/home/cuil/workspace/arm/lm3s811/TI_Stellaris/driverlib/uart.c **** //! are generated.
 260:/home/cuil/workspace/arm/lm3s811/TI_Stellaris/driverlib/uart.c **** //!
 261:/home/cuil/workspace/arm/lm3s811/TI_Stellaris/driverlib/uart.c **** //! \return None.
 262:/home/cuil/workspace/arm/lm3s811/TI_Stellaris/driverlib/uart.c **** //
 263:/home/cuil/workspace/arm/lm3s811/TI_Stellaris/driverlib/uart.c **** //*****************************************************************************
 264:/home/cuil/workspace/arm/lm3s811/TI_Stellaris/driverlib/uart.c **** void
 265:/home/cuil/workspace/arm/lm3s811/TI_Stellaris/driverlib/uart.c **** UARTFIFOLevelGet(unsigned long ulBase, unsigned long *pulTxLevel,
 266:/home/cuil/workspace/arm/lm3s811/TI_Stellaris/driverlib/uart.c ****                  unsigned long *pulRxLevel)
 267:/home/cuil/workspace/arm/lm3s811/TI_Stellaris/driverlib/uart.c **** {
 9848              		.loc 1 267 0
 9849              		.cfi_startproc
 9850              		@ args = 0, pretend = 0, frame = 24
 9851              		@ frame_needed = 1, uses_anonymous_args = 0
 9852              		@ link register save eliminated.
 9853 0000 80B4     		push	{r7}
 9854              	.LCFI12:
 9855              		.cfi_def_cfa_offset 4
 9856 0002 87B0     		sub	sp, sp, #28
 9857              	.LCFI13:
 9858              		.cfi_def_cfa_offset 32
 9859 0004 00AF     		add	r7, sp, #0
 9860              		.cfi_offset 7, -4
 9861              	.LCFI14:
 9862              		.cfi_def_cfa_register 7
 9863 0006 F860     		str	r0, [r7, #12]
 9864 0008 B960     		str	r1, [r7, #8]
 9865 000a 7A60     		str	r2, [r7, #4]
 268:/home/cuil/workspace/arm/lm3s811/TI_Stellaris/driverlib/uart.c ****     unsigned long ulTemp;
 269:/home/cuil/workspace/arm/lm3s811/TI_Stellaris/driverlib/uart.c **** 
 270:/home/cuil/workspace/arm/lm3s811/TI_Stellaris/driverlib/uart.c ****     //
 271:/home/cuil/workspace/arm/lm3s811/TI_Stellaris/driverlib/uart.c ****     // Check the arguments.
 272:/home/cuil/workspace/arm/lm3s811/TI_Stellaris/driverlib/uart.c ****     //
 273:/home/cuil/workspace/arm/lm3s811/TI_Stellaris/driverlib/uart.c ****     ASSERT(UARTBaseValid(ulBase));
 274:/home/cuil/workspace/arm/lm3s811/TI_Stellaris/driverlib/uart.c **** 
 275:/home/cuil/workspace/arm/lm3s811/TI_Stellaris/driverlib/uart.c ****     //
 276:/home/cuil/workspace/arm/lm3s811/TI_Stellaris/driverlib/uart.c ****     // Read the FIFO level register.
 277:/home/cuil/workspace/arm/lm3s811/TI_Stellaris/driverlib/uart.c ****     //
 278:/home/cuil/workspace/arm/lm3s811/TI_Stellaris/driverlib/uart.c ****     ulTemp = HWREG(ulBase + UART_O_IFLS);
 9866              		.loc 1 278 0
 9867 000c FB68     		ldr	r3, [r7, #12]
 9868 000e 03F13403 		add	r3, r3, #52
 9869 0012 1B68     		ldr	r3, [r3, #0]
 9870 0014 7B61     		str	r3, [r7, #20]
 279:/home/cuil/workspace/arm/lm3s811/TI_Stellaris/driverlib/uart.c **** 
 280:/home/cuil/workspace/arm/lm3s811/TI_Stellaris/driverlib/uart.c ****     //
 281:/home/cuil/workspace/arm/lm3s811/TI_Stellaris/driverlib/uart.c ****     // Extract the transmit and receive FIFO levels.
 282:/home/cuil/workspace/arm/lm3s811/TI_Stellaris/driverlib/uart.c ****     //
 283:/home/cuil/workspace/arm/lm3s811/TI_Stellaris/driverlib/uart.c ****     *pulTxLevel = ulTemp & UART_IFLS_TX_M;
 9871              		.loc 1 283 0
 9872 0016 7B69     		ldr	r3, [r7, #20]
 9873 0018 03F00702 		and	r2, r3, #7
 9874 001c BB68     		ldr	r3, [r7, #8]
 9875 001e 1A60     		str	r2, [r3, #0]
 284:/home/cuil/workspace/arm/lm3s811/TI_Stellaris/driverlib/uart.c ****     *pulRxLevel = ulTemp & UART_IFLS_RX_M;
 9876              		.loc 1 284 0
 9877 0020 7B69     		ldr	r3, [r7, #20]
 9878 0022 03F03802 		and	r2, r3, #56
 9879 0026 7B68     		ldr	r3, [r7, #4]
 9880 0028 1A60     		str	r2, [r3, #0]
 285:/home/cuil/workspace/arm/lm3s811/TI_Stellaris/driverlib/uart.c **** }
 9881              		.loc 1 285 0
 9882 002a 07F11C07 		add	r7, r7, #28
 9883 002e BD46     		mov	sp, r7
 9884 0030 80BC     		pop	{r7}
 9885 0032 7047     		bx	lr
 9886              		.cfi_endproc
 9887              	.LFE4:
 9889              		.section	.text.UARTConfigSetExpClk,"ax",%progbits
 9890              		.align	2
 9891              		.global	UARTConfigSetExpClk
 9892              		.thumb
 9893              		.thumb_func
 9895              	UARTConfigSetExpClk:
 9896              	.LFB5:
 286:/home/cuil/workspace/arm/lm3s811/TI_Stellaris/driverlib/uart.c **** 
 287:/home/cuil/workspace/arm/lm3s811/TI_Stellaris/driverlib/uart.c **** //*****************************************************************************
 288:/home/cuil/workspace/arm/lm3s811/TI_Stellaris/driverlib/uart.c **** //
 289:/home/cuil/workspace/arm/lm3s811/TI_Stellaris/driverlib/uart.c **** //! Sets the configuration of a UART.
 290:/home/cuil/workspace/arm/lm3s811/TI_Stellaris/driverlib/uart.c **** //!
 291:/home/cuil/workspace/arm/lm3s811/TI_Stellaris/driverlib/uart.c **** //! \param ulBase is the base address of the UART port.
 292:/home/cuil/workspace/arm/lm3s811/TI_Stellaris/driverlib/uart.c **** //! \param ulUARTClk is the rate of the clock supplied to the UART module.
 293:/home/cuil/workspace/arm/lm3s811/TI_Stellaris/driverlib/uart.c **** //! \param ulBaud is the desired baud rate.
 294:/home/cuil/workspace/arm/lm3s811/TI_Stellaris/driverlib/uart.c **** //! \param ulConfig is the data format for the port (number of data bits,
 295:/home/cuil/workspace/arm/lm3s811/TI_Stellaris/driverlib/uart.c **** //! number of stop bits, and parity).
 296:/home/cuil/workspace/arm/lm3s811/TI_Stellaris/driverlib/uart.c **** //!
 297:/home/cuil/workspace/arm/lm3s811/TI_Stellaris/driverlib/uart.c **** //! This function configures the UART for operation in the specified data
 298:/home/cuil/workspace/arm/lm3s811/TI_Stellaris/driverlib/uart.c **** //! format.  The baud rate is provided in the \e ulBaud parameter and the data
 299:/home/cuil/workspace/arm/lm3s811/TI_Stellaris/driverlib/uart.c **** //! format in the \e ulConfig parameter.
 300:/home/cuil/workspace/arm/lm3s811/TI_Stellaris/driverlib/uart.c **** //!
 301:/home/cuil/workspace/arm/lm3s811/TI_Stellaris/driverlib/uart.c **** //! The \e ulConfig parameter is the logical OR of three values: the number of
 302:/home/cuil/workspace/arm/lm3s811/TI_Stellaris/driverlib/uart.c **** //! data bits, the number of stop bits, and the parity.  \b UART_CONFIG_WLEN_8,
 303:/home/cuil/workspace/arm/lm3s811/TI_Stellaris/driverlib/uart.c **** //! \b UART_CONFIG_WLEN_7, \b UART_CONFIG_WLEN_6, and \b UART_CONFIG_WLEN_5
 304:/home/cuil/workspace/arm/lm3s811/TI_Stellaris/driverlib/uart.c **** //! select from eight to five data bits per byte (respectively).
 305:/home/cuil/workspace/arm/lm3s811/TI_Stellaris/driverlib/uart.c **** //! \b UART_CONFIG_STOP_ONE and \b UART_CONFIG_STOP_TWO select one or two stop
 306:/home/cuil/workspace/arm/lm3s811/TI_Stellaris/driverlib/uart.c **** //! bits (respectively).  \b UART_CONFIG_PAR_NONE, \b UART_CONFIG_PAR_EVEN,
 307:/home/cuil/workspace/arm/lm3s811/TI_Stellaris/driverlib/uart.c **** //! \b UART_CONFIG_PAR_ODD, \b UART_CONFIG_PAR_ONE, and \b UART_CONFIG_PAR_ZERO
 308:/home/cuil/workspace/arm/lm3s811/TI_Stellaris/driverlib/uart.c **** //! select the parity mode (no parity bit, even parity bit, odd parity bit,
 309:/home/cuil/workspace/arm/lm3s811/TI_Stellaris/driverlib/uart.c **** //! parity bit always one, and parity bit always zero, respectively).
 310:/home/cuil/workspace/arm/lm3s811/TI_Stellaris/driverlib/uart.c **** //!
 311:/home/cuil/workspace/arm/lm3s811/TI_Stellaris/driverlib/uart.c **** //! The peripheral clock is the same as the processor clock.  The frequency of
 312:/home/cuil/workspace/arm/lm3s811/TI_Stellaris/driverlib/uart.c **** //! the system clock is the value returned by SysCtlClockGet(), or it can be
 313:/home/cuil/workspace/arm/lm3s811/TI_Stellaris/driverlib/uart.c **** //! explicitly hard coded if it is constant and known (to save the
 314:/home/cuil/workspace/arm/lm3s811/TI_Stellaris/driverlib/uart.c **** //! code/execution overhead of a call to SysCtlClockGet()).
 315:/home/cuil/workspace/arm/lm3s811/TI_Stellaris/driverlib/uart.c **** //!
 316:/home/cuil/workspace/arm/lm3s811/TI_Stellaris/driverlib/uart.c **** //! For Stellaris parts that have the ability to specify the UART baud clock
 317:/home/cuil/workspace/arm/lm3s811/TI_Stellaris/driverlib/uart.c **** //! source (via UARTClockSourceSet()), the peripheral clock can be changed to
 318:/home/cuil/workspace/arm/lm3s811/TI_Stellaris/driverlib/uart.c **** //! PIOSC.  In this case, the peripheral clock should be specified as
 319:/home/cuil/workspace/arm/lm3s811/TI_Stellaris/driverlib/uart.c **** //! 16,000,000 (the nominal rate of PIOSC).
 320:/home/cuil/workspace/arm/lm3s811/TI_Stellaris/driverlib/uart.c **** //!
 321:/home/cuil/workspace/arm/lm3s811/TI_Stellaris/driverlib/uart.c **** //! This function replaces the original UARTConfigSet() API and performs the
 322:/home/cuil/workspace/arm/lm3s811/TI_Stellaris/driverlib/uart.c **** //! same actions.  A macro is provided in <tt>uart.h</tt> to map the original
 323:/home/cuil/workspace/arm/lm3s811/TI_Stellaris/driverlib/uart.c **** //! API to this API.
 324:/home/cuil/workspace/arm/lm3s811/TI_Stellaris/driverlib/uart.c **** //!
 325:/home/cuil/workspace/arm/lm3s811/TI_Stellaris/driverlib/uart.c **** //! \return None.
 326:/home/cuil/workspace/arm/lm3s811/TI_Stellaris/driverlib/uart.c **** //
 327:/home/cuil/workspace/arm/lm3s811/TI_Stellaris/driverlib/uart.c **** //*****************************************************************************
 328:/home/cuil/workspace/arm/lm3s811/TI_Stellaris/driverlib/uart.c **** void
 329:/home/cuil/workspace/arm/lm3s811/TI_Stellaris/driverlib/uart.c **** UARTConfigSetExpClk(unsigned long ulBase, unsigned long ulUARTClk,
 330:/home/cuil/workspace/arm/lm3s811/TI_Stellaris/driverlib/uart.c ****                     unsigned long ulBaud, unsigned long ulConfig)
 331:/home/cuil/workspace/arm/lm3s811/TI_Stellaris/driverlib/uart.c **** {
 9897              		.loc 1 331 0
 9898              		.cfi_startproc
 9899              		@ args = 0, pretend = 0, frame = 24
 9900              		@ frame_needed = 1, uses_anonymous_args = 0
 9901 0000 80B5     		push	{r7, lr}
 9902              	.LCFI15:
 9903              		.cfi_def_cfa_offset 8
 9904 0002 86B0     		sub	sp, sp, #24
 9905              	.LCFI16:
 9906              		.cfi_def_cfa_offset 32
 9907 0004 00AF     		add	r7, sp, #0
 9908              		.cfi_offset 14, -4
 9909              		.cfi_offset 7, -8
 9910              	.LCFI17:
 9911              		.cfi_def_cfa_register 7
 9912 0006 F860     		str	r0, [r7, #12]
 9913 0008 B960     		str	r1, [r7, #8]
 9914 000a 7A60     		str	r2, [r7, #4]
 9915 000c 3B60     		str	r3, [r7, #0]
 332:/home/cuil/workspace/arm/lm3s811/TI_Stellaris/driverlib/uart.c ****     unsigned long ulDiv;
 333:/home/cuil/workspace/arm/lm3s811/TI_Stellaris/driverlib/uart.c **** 
 334:/home/cuil/workspace/arm/lm3s811/TI_Stellaris/driverlib/uart.c ****     //
 335:/home/cuil/workspace/arm/lm3s811/TI_Stellaris/driverlib/uart.c ****     // Check the arguments.
 336:/home/cuil/workspace/arm/lm3s811/TI_Stellaris/driverlib/uart.c ****     //
 337:/home/cuil/workspace/arm/lm3s811/TI_Stellaris/driverlib/uart.c ****     ASSERT(UARTBaseValid(ulBase));
 338:/home/cuil/workspace/arm/lm3s811/TI_Stellaris/driverlib/uart.c ****     ASSERT(ulBaud != 0);
 339:/home/cuil/workspace/arm/lm3s811/TI_Stellaris/driverlib/uart.c ****     ASSERT(ulUARTClk >= (ulBaud * UART_CLK_DIVIDER));
 340:/home/cuil/workspace/arm/lm3s811/TI_Stellaris/driverlib/uart.c **** 
 341:/home/cuil/workspace/arm/lm3s811/TI_Stellaris/driverlib/uart.c ****     //
 342:/home/cuil/workspace/arm/lm3s811/TI_Stellaris/driverlib/uart.c ****     // Stop the UART.
 343:/home/cuil/workspace/arm/lm3s811/TI_Stellaris/driverlib/uart.c ****     //
 344:/home/cuil/workspace/arm/lm3s811/TI_Stellaris/driverlib/uart.c ****     UARTDisable(ulBase);
 9916              		.loc 1 344 0
 9917 000e F868     		ldr	r0, [r7, #12]
 9918 0010 FFF7FEFF 		bl	UARTDisable
 345:/home/cuil/workspace/arm/lm3s811/TI_Stellaris/driverlib/uart.c **** 
 346:/home/cuil/workspace/arm/lm3s811/TI_Stellaris/driverlib/uart.c ****     //
 347:/home/cuil/workspace/arm/lm3s811/TI_Stellaris/driverlib/uart.c ****     // Is the required baud rate greater than the maximum rate supported
 348:/home/cuil/workspace/arm/lm3s811/TI_Stellaris/driverlib/uart.c ****     // without the use of high speed mode?
 349:/home/cuil/workspace/arm/lm3s811/TI_Stellaris/driverlib/uart.c ****     //
 350:/home/cuil/workspace/arm/lm3s811/TI_Stellaris/driverlib/uart.c ****     if((ulBaud * 16) > ulUARTClk)
 9919              		.loc 1 350 0
 9920 0014 7B68     		ldr	r3, [r7, #4]
 9921 0016 4FEA0312 		lsl	r2, r3, #4
 9922 001a BB68     		ldr	r3, [r7, #8]
 9923 001c 9A42     		cmp	r2, r3
 9924 001e 0ED9     		bls	.L13
 351:/home/cuil/workspace/arm/lm3s811/TI_Stellaris/driverlib/uart.c ****     {
 352:/home/cuil/workspace/arm/lm3s811/TI_Stellaris/driverlib/uart.c ****         //
 353:/home/cuil/workspace/arm/lm3s811/TI_Stellaris/driverlib/uart.c ****         // Enable high speed mode.
 354:/home/cuil/workspace/arm/lm3s811/TI_Stellaris/driverlib/uart.c ****         //
 355:/home/cuil/workspace/arm/lm3s811/TI_Stellaris/driverlib/uart.c ****         HWREG(ulBase + UART_O_CTL) |= UART_CTL_HSE;
 9925              		.loc 1 355 0
 9926 0020 FB68     		ldr	r3, [r7, #12]
 9927 0022 03F13003 		add	r3, r3, #48
 9928 0026 FA68     		ldr	r2, [r7, #12]
 9929 0028 02F13002 		add	r2, r2, #48
 9930 002c 1268     		ldr	r2, [r2, #0]
 9931 002e 42F02002 		orr	r2, r2, #32
 9932 0032 1A60     		str	r2, [r3, #0]
 356:/home/cuil/workspace/arm/lm3s811/TI_Stellaris/driverlib/uart.c **** 
 357:/home/cuil/workspace/arm/lm3s811/TI_Stellaris/driverlib/uart.c ****         //
 358:/home/cuil/workspace/arm/lm3s811/TI_Stellaris/driverlib/uart.c ****         // Half the supplied baud rate to compensate for enabling high speed
 359:/home/cuil/workspace/arm/lm3s811/TI_Stellaris/driverlib/uart.c ****         // mode.  This allows the following code to be common to both cases.
 360:/home/cuil/workspace/arm/lm3s811/TI_Stellaris/driverlib/uart.c ****         //
 361:/home/cuil/workspace/arm/lm3s811/TI_Stellaris/driverlib/uart.c ****         ulBaud /= 2;
 9933              		.loc 1 361 0
 9934 0034 7B68     		ldr	r3, [r7, #4]
 9935 0036 4FEA5303 		lsr	r3, r3, #1
 9936 003a 7B60     		str	r3, [r7, #4]
 9937 003c 09E0     		b	.L14
 9938              	.L13:
 362:/home/cuil/workspace/arm/lm3s811/TI_Stellaris/driverlib/uart.c ****     }
 363:/home/cuil/workspace/arm/lm3s811/TI_Stellaris/driverlib/uart.c ****     else
 364:/home/cuil/workspace/arm/lm3s811/TI_Stellaris/driverlib/uart.c ****     {
 365:/home/cuil/workspace/arm/lm3s811/TI_Stellaris/driverlib/uart.c ****         //
 366:/home/cuil/workspace/arm/lm3s811/TI_Stellaris/driverlib/uart.c ****         // Disable high speed mode.
 367:/home/cuil/workspace/arm/lm3s811/TI_Stellaris/driverlib/uart.c ****         //
 368:/home/cuil/workspace/arm/lm3s811/TI_Stellaris/driverlib/uart.c ****         HWREG(ulBase + UART_O_CTL) &= ~(UART_CTL_HSE);
 9939              		.loc 1 368 0
 9940 003e FB68     		ldr	r3, [r7, #12]
 9941 0040 03F13003 		add	r3, r3, #48
 9942 0044 FA68     		ldr	r2, [r7, #12]
 9943 0046 02F13002 		add	r2, r2, #48
 9944 004a 1268     		ldr	r2, [r2, #0]
 9945 004c 22F02002 		bic	r2, r2, #32
 9946 0050 1A60     		str	r2, [r3, #0]
 9947              	.L14:
 369:/home/cuil/workspace/arm/lm3s811/TI_Stellaris/driverlib/uart.c ****     }
 370:/home/cuil/workspace/arm/lm3s811/TI_Stellaris/driverlib/uart.c **** 
 371:/home/cuil/workspace/arm/lm3s811/TI_Stellaris/driverlib/uart.c ****     //
 372:/home/cuil/workspace/arm/lm3s811/TI_Stellaris/driverlib/uart.c ****     // Compute the fractional baud rate divider.
 373:/home/cuil/workspace/arm/lm3s811/TI_Stellaris/driverlib/uart.c ****     //
 374:/home/cuil/workspace/arm/lm3s811/TI_Stellaris/driverlib/uart.c ****     ulDiv = (((ulUARTClk * 8) / ulBaud) + 1) / 2;
 9948              		.loc 1 374 0
 9949 0052 BB68     		ldr	r3, [r7, #8]
 9950 0054 4FEAC302 		lsl	r2, r3, #3
 9951 0058 7B68     		ldr	r3, [r7, #4]
 9952 005a B2FBF3F3 		udiv	r3, r2, r3
 9953 005e 03F10103 		add	r3, r3, #1
 9954 0062 4FEA5303 		lsr	r3, r3, #1
 9955 0066 7B61     		str	r3, [r7, #20]
 375:/home/cuil/workspace/arm/lm3s811/TI_Stellaris/driverlib/uart.c **** 
 376:/home/cuil/workspace/arm/lm3s811/TI_Stellaris/driverlib/uart.c ****     //
 377:/home/cuil/workspace/arm/lm3s811/TI_Stellaris/driverlib/uart.c ****     // Set the baud rate.
 378:/home/cuil/workspace/arm/lm3s811/TI_Stellaris/driverlib/uart.c ****     //
 379:/home/cuil/workspace/arm/lm3s811/TI_Stellaris/driverlib/uart.c ****     HWREG(ulBase + UART_O_IBRD) = ulDiv / 64;
 9956              		.loc 1 379 0
 9957 0068 FB68     		ldr	r3, [r7, #12]
 9958 006a 03F12403 		add	r3, r3, #36
 9959 006e 7A69     		ldr	r2, [r7, #20]
 9960 0070 4FEA9212 		lsr	r2, r2, #6
 9961 0074 1A60     		str	r2, [r3, #0]
 380:/home/cuil/workspace/arm/lm3s811/TI_Stellaris/driverlib/uart.c ****     HWREG(ulBase + UART_O_FBRD) = ulDiv % 64;
 9962              		.loc 1 380 0
 9963 0076 FB68     		ldr	r3, [r7, #12]
 9964 0078 03F12803 		add	r3, r3, #40
 9965 007c 7A69     		ldr	r2, [r7, #20]
 9966 007e 02F03F02 		and	r2, r2, #63
 9967 0082 1A60     		str	r2, [r3, #0]
 381:/home/cuil/workspace/arm/lm3s811/TI_Stellaris/driverlib/uart.c **** 
 382:/home/cuil/workspace/arm/lm3s811/TI_Stellaris/driverlib/uart.c ****     //
 383:/home/cuil/workspace/arm/lm3s811/TI_Stellaris/driverlib/uart.c ****     // Set parity, data length, and number of stop bits.
 384:/home/cuil/workspace/arm/lm3s811/TI_Stellaris/driverlib/uart.c ****     //
 385:/home/cuil/workspace/arm/lm3s811/TI_Stellaris/driverlib/uart.c ****     HWREG(ulBase + UART_O_LCRH) = ulConfig;
 9968              		.loc 1 385 0
 9969 0084 FB68     		ldr	r3, [r7, #12]
 9970 0086 03F12C03 		add	r3, r3, #44
 9971 008a 3A68     		ldr	r2, [r7, #0]
 9972 008c 1A60     		str	r2, [r3, #0]
 386:/home/cuil/workspace/arm/lm3s811/TI_Stellaris/driverlib/uart.c **** 
 387:/home/cuil/workspace/arm/lm3s811/TI_Stellaris/driverlib/uart.c ****     //
 388:/home/cuil/workspace/arm/lm3s811/TI_Stellaris/driverlib/uart.c ****     // Clear the flags register.
 389:/home/cuil/workspace/arm/lm3s811/TI_Stellaris/driverlib/uart.c ****     //
 390:/home/cuil/workspace/arm/lm3s811/TI_Stellaris/driverlib/uart.c ****     HWREG(ulBase + UART_O_FR) = 0;
 9973              		.loc 1 390 0
 9974 008e FB68     		ldr	r3, [r7, #12]
 9975 0090 03F11803 		add	r3, r3, #24
 9976 0094 4FF00002 		mov	r2, #0
 9977 0098 1A60     		str	r2, [r3, #0]
 391:/home/cuil/workspace/arm/lm3s811/TI_Stellaris/driverlib/uart.c **** 
 392:/home/cuil/workspace/arm/lm3s811/TI_Stellaris/driverlib/uart.c ****     //
 393:/home/cuil/workspace/arm/lm3s811/TI_Stellaris/driverlib/uart.c ****     // Start the UART.
 394:/home/cuil/workspace/arm/lm3s811/TI_Stellaris/driverlib/uart.c ****     //
 395:/home/cuil/workspace/arm/lm3s811/TI_Stellaris/driverlib/uart.c ****     UARTEnable(ulBase);
 9978              		.loc 1 395 0
 9979 009a F868     		ldr	r0, [r7, #12]
 9980 009c FFF7FEFF 		bl	UARTEnable
 396:/home/cuil/workspace/arm/lm3s811/TI_Stellaris/driverlib/uart.c **** }
 9981              		.loc 1 396 0
 9982 00a0 07F11807 		add	r7, r7, #24
 9983 00a4 BD46     		mov	sp, r7
 9984 00a6 80BD     		pop	{r7, pc}
 9985              		.cfi_endproc
 9986              	.LFE5:
 9988              		.section	.text.UARTConfigGetExpClk,"ax",%progbits
 9989              		.align	2
 9990              		.global	UARTConfigGetExpClk
 9991              		.thumb
 9992              		.thumb_func
 9994              	UARTConfigGetExpClk:
 9995              	.LFB6:
 397:/home/cuil/workspace/arm/lm3s811/TI_Stellaris/driverlib/uart.c **** 
 398:/home/cuil/workspace/arm/lm3s811/TI_Stellaris/driverlib/uart.c **** //*****************************************************************************
 399:/home/cuil/workspace/arm/lm3s811/TI_Stellaris/driverlib/uart.c **** //
 400:/home/cuil/workspace/arm/lm3s811/TI_Stellaris/driverlib/uart.c **** //! Gets the current configuration of a UART.
 401:/home/cuil/workspace/arm/lm3s811/TI_Stellaris/driverlib/uart.c **** //!
 402:/home/cuil/workspace/arm/lm3s811/TI_Stellaris/driverlib/uart.c **** //! \param ulBase is the base address of the UART port.
 403:/home/cuil/workspace/arm/lm3s811/TI_Stellaris/driverlib/uart.c **** //! \param ulUARTClk is the rate of the clock supplied to the UART module.
 404:/home/cuil/workspace/arm/lm3s811/TI_Stellaris/driverlib/uart.c **** //! \param pulBaud is a pointer to storage for the baud rate.
 405:/home/cuil/workspace/arm/lm3s811/TI_Stellaris/driverlib/uart.c **** //! \param pulConfig is a pointer to storage for the data format.
 406:/home/cuil/workspace/arm/lm3s811/TI_Stellaris/driverlib/uart.c **** //!
 407:/home/cuil/workspace/arm/lm3s811/TI_Stellaris/driverlib/uart.c **** //! This function determines the baud rate and data format for the UART, given 
 408:/home/cuil/workspace/arm/lm3s811/TI_Stellaris/driverlib/uart.c **** //! an explicitly provided peripheral clock (hence the ExpClk suffix).  The
 409:/home/cuil/workspace/arm/lm3s811/TI_Stellaris/driverlib/uart.c **** //! returned baud rate is the actual baud rate; it may not be the exact baud
 410:/home/cuil/workspace/arm/lm3s811/TI_Stellaris/driverlib/uart.c **** //! rate requested or an ``official'' baud rate.  The data format returned in
 411:/home/cuil/workspace/arm/lm3s811/TI_Stellaris/driverlib/uart.c **** //! \e pulConfig is enumerated the same as the \e ulConfig parameter of
 412:/home/cuil/workspace/arm/lm3s811/TI_Stellaris/driverlib/uart.c **** //! UARTConfigSetExpClk().
 413:/home/cuil/workspace/arm/lm3s811/TI_Stellaris/driverlib/uart.c **** //!
 414:/home/cuil/workspace/arm/lm3s811/TI_Stellaris/driverlib/uart.c **** //! The peripheral clock is the same as the processor clock.  The frequency of
 415:/home/cuil/workspace/arm/lm3s811/TI_Stellaris/driverlib/uart.c **** //! the system clock is the value returned by SysCtlClockGet(), or it can be
 416:/home/cuil/workspace/arm/lm3s811/TI_Stellaris/driverlib/uart.c **** //! explicitly hard coded if it is constant and known (to save the
 417:/home/cuil/workspace/arm/lm3s811/TI_Stellaris/driverlib/uart.c **** //! code/execution overhead of a call to SysCtlClockGet()).
 418:/home/cuil/workspace/arm/lm3s811/TI_Stellaris/driverlib/uart.c **** //!
 419:/home/cuil/workspace/arm/lm3s811/TI_Stellaris/driverlib/uart.c **** //! For Stellaris parts that have the ability to specify the UART baud clock
 420:/home/cuil/workspace/arm/lm3s811/TI_Stellaris/driverlib/uart.c **** //! source (via UARTClockSourceSet()), the peripheral clock can be changed to
 421:/home/cuil/workspace/arm/lm3s811/TI_Stellaris/driverlib/uart.c **** //! PIOSC.  In this case, the peripheral clock should be specified as
 422:/home/cuil/workspace/arm/lm3s811/TI_Stellaris/driverlib/uart.c **** //! 16,000,000 (the nominal rate of PIOSC).
 423:/home/cuil/workspace/arm/lm3s811/TI_Stellaris/driverlib/uart.c **** //!
 424:/home/cuil/workspace/arm/lm3s811/TI_Stellaris/driverlib/uart.c **** //! This function replaces the original UARTConfigGet() API and performs the
 425:/home/cuil/workspace/arm/lm3s811/TI_Stellaris/driverlib/uart.c **** //! same actions.  A macro is provided in <tt>uart.h</tt> to map the original
 426:/home/cuil/workspace/arm/lm3s811/TI_Stellaris/driverlib/uart.c **** //! API to this API.
 427:/home/cuil/workspace/arm/lm3s811/TI_Stellaris/driverlib/uart.c **** //!
 428:/home/cuil/workspace/arm/lm3s811/TI_Stellaris/driverlib/uart.c **** //! \return None.
 429:/home/cuil/workspace/arm/lm3s811/TI_Stellaris/driverlib/uart.c **** //
 430:/home/cuil/workspace/arm/lm3s811/TI_Stellaris/driverlib/uart.c **** //*****************************************************************************
 431:/home/cuil/workspace/arm/lm3s811/TI_Stellaris/driverlib/uart.c **** void
 432:/home/cuil/workspace/arm/lm3s811/TI_Stellaris/driverlib/uart.c **** UARTConfigGetExpClk(unsigned long ulBase, unsigned long ulUARTClk,
 433:/home/cuil/workspace/arm/lm3s811/TI_Stellaris/driverlib/uart.c ****                     unsigned long *pulBaud, unsigned long *pulConfig)
 434:/home/cuil/workspace/arm/lm3s811/TI_Stellaris/driverlib/uart.c **** {
 9996              		.loc 1 434 0
 9997              		.cfi_startproc
 9998              		@ args = 0, pretend = 0, frame = 24
 9999              		@ frame_needed = 1, uses_anonymous_args = 0
 10000              		@ link register save eliminated.
 10001 0000 80B4     		push	{r7}
 10002              	.LCFI18:
 10003              		.cfi_def_cfa_offset 4
 10004 0002 87B0     		sub	sp, sp, #28
 10005              	.LCFI19:
 10006              		.cfi_def_cfa_offset 32
 10007 0004 00AF     		add	r7, sp, #0
 10008              		.cfi_offset 7, -4
 10009              	.LCFI20:
 10010              		.cfi_def_cfa_register 7
 10011 0006 F860     		str	r0, [r7, #12]
 10012 0008 B960     		str	r1, [r7, #8]
 10013 000a 7A60     		str	r2, [r7, #4]
 10014 000c 3B60     		str	r3, [r7, #0]
 435:/home/cuil/workspace/arm/lm3s811/TI_Stellaris/driverlib/uart.c ****     unsigned long ulInt, ulFrac;
 436:/home/cuil/workspace/arm/lm3s811/TI_Stellaris/driverlib/uart.c **** 
 437:/home/cuil/workspace/arm/lm3s811/TI_Stellaris/driverlib/uart.c ****     //
 438:/home/cuil/workspace/arm/lm3s811/TI_Stellaris/driverlib/uart.c ****     // Check the arguments.
 439:/home/cuil/workspace/arm/lm3s811/TI_Stellaris/driverlib/uart.c ****     //
 440:/home/cuil/workspace/arm/lm3s811/TI_Stellaris/driverlib/uart.c ****     ASSERT(UARTBaseValid(ulBase));
 441:/home/cuil/workspace/arm/lm3s811/TI_Stellaris/driverlib/uart.c **** 
 442:/home/cuil/workspace/arm/lm3s811/TI_Stellaris/driverlib/uart.c ****     //
 443:/home/cuil/workspace/arm/lm3s811/TI_Stellaris/driverlib/uart.c ****     // Compute the baud rate.
 444:/home/cuil/workspace/arm/lm3s811/TI_Stellaris/driverlib/uart.c ****     //
 445:/home/cuil/workspace/arm/lm3s811/TI_Stellaris/driverlib/uart.c ****     ulInt = HWREG(ulBase + UART_O_IBRD);
 10015              		.loc 1 445 0
 10016 000e FB68     		ldr	r3, [r7, #12]
 10017 0010 03F12403 		add	r3, r3, #36
 10018 0014 1B68     		ldr	r3, [r3, #0]
 10019 0016 7B61     		str	r3, [r7, #20]
 446:/home/cuil/workspace/arm/lm3s811/TI_Stellaris/driverlib/uart.c ****     ulFrac = HWREG(ulBase + UART_O_FBRD);
 10020              		.loc 1 446 0
 10021 0018 FB68     		ldr	r3, [r7, #12]
 10022 001a 03F12803 		add	r3, r3, #40
 10023 001e 1B68     		ldr	r3, [r3, #0]
 10024 0020 3B61     		str	r3, [r7, #16]
 447:/home/cuil/workspace/arm/lm3s811/TI_Stellaris/driverlib/uart.c ****     *pulBaud = (ulUARTClk * 4) / ((64 * ulInt) + ulFrac);
 10025              		.loc 1 447 0
 10026 0022 BB68     		ldr	r3, [r7, #8]
 10027 0024 4FEA8302 		lsl	r2, r3, #2
 10028 0028 7B69     		ldr	r3, [r7, #20]
 10029 002a 4FEA8311 		lsl	r1, r3, #6
 10030 002e 3B69     		ldr	r3, [r7, #16]
 10031 0030 CB18     		adds	r3, r1, r3
 10032 0032 B2FBF3F2 		udiv	r2, r2, r3
 10033 0036 7B68     		ldr	r3, [r7, #4]
 10034 0038 1A60     		str	r2, [r3, #0]
 448:/home/cuil/workspace/arm/lm3s811/TI_Stellaris/driverlib/uart.c **** 
 449:/home/cuil/workspace/arm/lm3s811/TI_Stellaris/driverlib/uart.c ****     //
 450:/home/cuil/workspace/arm/lm3s811/TI_Stellaris/driverlib/uart.c ****     // See if high speed mode enabled.
 451:/home/cuil/workspace/arm/lm3s811/TI_Stellaris/driverlib/uart.c ****     //
 452:/home/cuil/workspace/arm/lm3s811/TI_Stellaris/driverlib/uart.c ****     if(HWREG(ulBase + UART_O_CTL) & UART_CTL_HSE)
 10035              		.loc 1 452 0
 10036 003a FB68     		ldr	r3, [r7, #12]
 10037 003c 03F13003 		add	r3, r3, #48
 10038 0040 1B68     		ldr	r3, [r3, #0]
 10039 0042 03F02003 		and	r3, r3, #32
 10040 0046 002B     		cmp	r3, #0
 10041 0048 05D0     		beq	.L16
 453:/home/cuil/workspace/arm/lm3s811/TI_Stellaris/driverlib/uart.c ****     {
 454:/home/cuil/workspace/arm/lm3s811/TI_Stellaris/driverlib/uart.c ****         //
 455:/home/cuil/workspace/arm/lm3s811/TI_Stellaris/driverlib/uart.c ****         // High speed mode is enabled so the actual baud rate is actually
 456:/home/cuil/workspace/arm/lm3s811/TI_Stellaris/driverlib/uart.c ****         // double what was just calculated.
 457:/home/cuil/workspace/arm/lm3s811/TI_Stellaris/driverlib/uart.c ****         //
 458:/home/cuil/workspace/arm/lm3s811/TI_Stellaris/driverlib/uart.c ****         *pulBaud *= 2;
 10042              		.loc 1 458 0
 10043 004a 7B68     		ldr	r3, [r7, #4]
 10044 004c 1B68     		ldr	r3, [r3, #0]
 10045 004e 4FEA4302 		lsl	r2, r3, #1
 10046 0052 7B68     		ldr	r3, [r7, #4]
 10047 0054 1A60     		str	r2, [r3, #0]
 10048              	.L16:
 459:/home/cuil/workspace/arm/lm3s811/TI_Stellaris/driverlib/uart.c ****     }
 460:/home/cuil/workspace/arm/lm3s811/TI_Stellaris/driverlib/uart.c **** 
 461:/home/cuil/workspace/arm/lm3s811/TI_Stellaris/driverlib/uart.c ****     //
 462:/home/cuil/workspace/arm/lm3s811/TI_Stellaris/driverlib/uart.c ****     // Get the parity, data length, and number of stop bits.
 463:/home/cuil/workspace/arm/lm3s811/TI_Stellaris/driverlib/uart.c ****     //
 464:/home/cuil/workspace/arm/lm3s811/TI_Stellaris/driverlib/uart.c ****     *pulConfig = (HWREG(ulBase + UART_O_LCRH) &
 10049              		.loc 1 464 0
 10050 0056 FB68     		ldr	r3, [r7, #12]
 10051 0058 03F12C03 		add	r3, r3, #44
 10052 005c 1B68     		ldr	r3, [r3, #0]
 10053 005e 03F0EE02 		and	r2, r3, #238
 10054 0062 3B68     		ldr	r3, [r7, #0]
 10055 0064 1A60     		str	r2, [r3, #0]
 465:/home/cuil/workspace/arm/lm3s811/TI_Stellaris/driverlib/uart.c ****                   (UART_LCRH_SPS | UART_LCRH_WLEN_M | UART_LCRH_STP2 |
 466:/home/cuil/workspace/arm/lm3s811/TI_Stellaris/driverlib/uart.c ****                    UART_LCRH_EPS | UART_LCRH_PEN));
 467:/home/cuil/workspace/arm/lm3s811/TI_Stellaris/driverlib/uart.c **** }
 10056              		.loc 1 467 0
 10057 0066 07F11C07 		add	r7, r7, #28
 10058 006a BD46     		mov	sp, r7
 10059 006c 80BC     		pop	{r7}
 10060 006e 7047     		bx	lr
 10061              		.cfi_endproc
 10062              	.LFE6:
 10064              		.section	.text.UARTEnable,"ax",%progbits
 10065              		.align	2
 10066              		.global	UARTEnable
 10067              		.thumb
 10068              		.thumb_func
 10070              	UARTEnable:
 10071              	.LFB7:
 468:/home/cuil/workspace/arm/lm3s811/TI_Stellaris/driverlib/uart.c **** 
 469:/home/cuil/workspace/arm/lm3s811/TI_Stellaris/driverlib/uart.c **** //*****************************************************************************
 470:/home/cuil/workspace/arm/lm3s811/TI_Stellaris/driverlib/uart.c **** //
 471:/home/cuil/workspace/arm/lm3s811/TI_Stellaris/driverlib/uart.c **** //! Enables transmitting and receiving.
 472:/home/cuil/workspace/arm/lm3s811/TI_Stellaris/driverlib/uart.c **** //!
 473:/home/cuil/workspace/arm/lm3s811/TI_Stellaris/driverlib/uart.c **** //! \param ulBase is the base address of the UART port.
 474:/home/cuil/workspace/arm/lm3s811/TI_Stellaris/driverlib/uart.c **** //!
 475:/home/cuil/workspace/arm/lm3s811/TI_Stellaris/driverlib/uart.c **** //! This function sets the UARTEN, TXE, and RXE bits and enables the transmit
 476:/home/cuil/workspace/arm/lm3s811/TI_Stellaris/driverlib/uart.c **** //! and receive FIFOs.
 477:/home/cuil/workspace/arm/lm3s811/TI_Stellaris/driverlib/uart.c **** //!
 478:/home/cuil/workspace/arm/lm3s811/TI_Stellaris/driverlib/uart.c **** //! \return None.
 479:/home/cuil/workspace/arm/lm3s811/TI_Stellaris/driverlib/uart.c **** //
 480:/home/cuil/workspace/arm/lm3s811/TI_Stellaris/driverlib/uart.c **** //*****************************************************************************
 481:/home/cuil/workspace/arm/lm3s811/TI_Stellaris/driverlib/uart.c **** void
 482:/home/cuil/workspace/arm/lm3s811/TI_Stellaris/driverlib/uart.c **** UARTEnable(unsigned long ulBase)
 483:/home/cuil/workspace/arm/lm3s811/TI_Stellaris/driverlib/uart.c **** {
 10072              		.loc 1 483 0
 10073              		.cfi_startproc
 10074              		@ args = 0, pretend = 0, frame = 8
 10075              		@ frame_needed = 1, uses_anonymous_args = 0
 10076              		@ link register save eliminated.
 10077 0000 80B4     		push	{r7}
 10078              	.LCFI21:
 10079              		.cfi_def_cfa_offset 4
 10080 0002 83B0     		sub	sp, sp, #12
 10081              	.LCFI22:
 10082              		.cfi_def_cfa_offset 16
 10083 0004 00AF     		add	r7, sp, #0
 10084              		.cfi_offset 7, -4
 10085              	.LCFI23:
 10086              		.cfi_def_cfa_register 7
 10087 0006 7860     		str	r0, [r7, #4]
 484:/home/cuil/workspace/arm/lm3s811/TI_Stellaris/driverlib/uart.c ****     //
 485:/home/cuil/workspace/arm/lm3s811/TI_Stellaris/driverlib/uart.c ****     // Check the arguments.
 486:/home/cuil/workspace/arm/lm3s811/TI_Stellaris/driverlib/uart.c ****     //
 487:/home/cuil/workspace/arm/lm3s811/TI_Stellaris/driverlib/uart.c ****     ASSERT(UARTBaseValid(ulBase));
 488:/home/cuil/workspace/arm/lm3s811/TI_Stellaris/driverlib/uart.c **** 
 489:/home/cuil/workspace/arm/lm3s811/TI_Stellaris/driverlib/uart.c ****     //
 490:/home/cuil/workspace/arm/lm3s811/TI_Stellaris/driverlib/uart.c ****     // Enable the FIFO.
 491:/home/cuil/workspace/arm/lm3s811/TI_Stellaris/driverlib/uart.c ****     //
 492:/home/cuil/workspace/arm/lm3s811/TI_Stellaris/driverlib/uart.c ****     HWREG(ulBase + UART_O_LCRH) |= UART_LCRH_FEN;
 10088              		.loc 1 492 0
 10089 0008 7B68     		ldr	r3, [r7, #4]
 10090 000a 03F12C03 		add	r3, r3, #44
 10091 000e 7A68     		ldr	r2, [r7, #4]
 10092 0010 02F12C02 		add	r2, r2, #44
 10093 0014 1268     		ldr	r2, [r2, #0]
 10094 0016 42F01002 		orr	r2, r2, #16
 10095 001a 1A60     		str	r2, [r3, #0]
 493:/home/cuil/workspace/arm/lm3s811/TI_Stellaris/driverlib/uart.c **** 
 494:/home/cuil/workspace/arm/lm3s811/TI_Stellaris/driverlib/uart.c ****     //
 495:/home/cuil/workspace/arm/lm3s811/TI_Stellaris/driverlib/uart.c ****     // Enable RX, TX, and the UART.
 496:/home/cuil/workspace/arm/lm3s811/TI_Stellaris/driverlib/uart.c ****     //
 497:/home/cuil/workspace/arm/lm3s811/TI_Stellaris/driverlib/uart.c ****     HWREG(ulBase + UART_O_CTL) |= (UART_CTL_UARTEN | UART_CTL_TXE |
 10096              		.loc 1 497 0
 10097 001c 7B68     		ldr	r3, [r7, #4]
 10098 001e 03F13003 		add	r3, r3, #48
 10099 0022 1A46     		mov	r2, r3
 10100 0024 7B68     		ldr	r3, [r7, #4]
 10101 0026 03F13003 		add	r3, r3, #48
 10102 002a 1B68     		ldr	r3, [r3, #0]
 10103 002c 43F44073 		orr	r3, r3, #768
 10104 0030 43F00103 		orr	r3, r3, #1
 10105 0034 1360     		str	r3, [r2, #0]
 498:/home/cuil/workspace/arm/lm3s811/TI_Stellaris/driverlib/uart.c ****                                    UART_CTL_RXE);
 499:/home/cuil/workspace/arm/lm3s811/TI_Stellaris/driverlib/uart.c **** }
 10106              		.loc 1 499 0
 10107 0036 07F10C07 		add	r7, r7, #12
 10108 003a BD46     		mov	sp, r7
 10109 003c 80BC     		pop	{r7}
 10110 003e 7047     		bx	lr
 10111              		.cfi_endproc
 10112              	.LFE7:
 10114              		.section	.text.UARTDisable,"ax",%progbits
 10115              		.align	2
 10116              		.global	UARTDisable
 10117              		.thumb
 10118              		.thumb_func
 10120              	UARTDisable:
 10121              	.LFB8:
 500:/home/cuil/workspace/arm/lm3s811/TI_Stellaris/driverlib/uart.c **** 
 501:/home/cuil/workspace/arm/lm3s811/TI_Stellaris/driverlib/uart.c **** //*****************************************************************************
 502:/home/cuil/workspace/arm/lm3s811/TI_Stellaris/driverlib/uart.c **** //
 503:/home/cuil/workspace/arm/lm3s811/TI_Stellaris/driverlib/uart.c **** //! Disables transmitting and receiving.
 504:/home/cuil/workspace/arm/lm3s811/TI_Stellaris/driverlib/uart.c **** //!
 505:/home/cuil/workspace/arm/lm3s811/TI_Stellaris/driverlib/uart.c **** //! \param ulBase is the base address of the UART port.
 506:/home/cuil/workspace/arm/lm3s811/TI_Stellaris/driverlib/uart.c **** //!
 507:/home/cuil/workspace/arm/lm3s811/TI_Stellaris/driverlib/uart.c **** //! This function clears the UARTEN, TXE, and RXE bits, waits for the end of
 508:/home/cuil/workspace/arm/lm3s811/TI_Stellaris/driverlib/uart.c **** //! transmission of the current character, and flushes the transmit FIFO.
 509:/home/cuil/workspace/arm/lm3s811/TI_Stellaris/driverlib/uart.c **** //!
 510:/home/cuil/workspace/arm/lm3s811/TI_Stellaris/driverlib/uart.c **** //! \return None.
 511:/home/cuil/workspace/arm/lm3s811/TI_Stellaris/driverlib/uart.c **** //
 512:/home/cuil/workspace/arm/lm3s811/TI_Stellaris/driverlib/uart.c **** //*****************************************************************************
 513:/home/cuil/workspace/arm/lm3s811/TI_Stellaris/driverlib/uart.c **** void
 514:/home/cuil/workspace/arm/lm3s811/TI_Stellaris/driverlib/uart.c **** UARTDisable(unsigned long ulBase)
 515:/home/cuil/workspace/arm/lm3s811/TI_Stellaris/driverlib/uart.c **** {
 10122              		.loc 1 515 0
 10123              		.cfi_startproc
 10124              		@ args = 0, pretend = 0, frame = 8
 10125              		@ frame_needed = 1, uses_anonymous_args = 0
 10126              		@ link register save eliminated.
 10127 0000 80B4     		push	{r7}
 10128              	.LCFI24:
 10129              		.cfi_def_cfa_offset 4
 10130 0002 83B0     		sub	sp, sp, #12
 10131              	.LCFI25:
 10132              		.cfi_def_cfa_offset 16
 10133 0004 00AF     		add	r7, sp, #0
 10134              		.cfi_offset 7, -4
 10135              	.LCFI26:
 10136              		.cfi_def_cfa_register 7
 10137 0006 7860     		str	r0, [r7, #4]
 516:/home/cuil/workspace/arm/lm3s811/TI_Stellaris/driverlib/uart.c ****     //
 517:/home/cuil/workspace/arm/lm3s811/TI_Stellaris/driverlib/uart.c ****     // Check the arguments.
 518:/home/cuil/workspace/arm/lm3s811/TI_Stellaris/driverlib/uart.c ****     //
 519:/home/cuil/workspace/arm/lm3s811/TI_Stellaris/driverlib/uart.c ****     ASSERT(UARTBaseValid(ulBase));
 520:/home/cuil/workspace/arm/lm3s811/TI_Stellaris/driverlib/uart.c **** 
 521:/home/cuil/workspace/arm/lm3s811/TI_Stellaris/driverlib/uart.c ****     //
 522:/home/cuil/workspace/arm/lm3s811/TI_Stellaris/driverlib/uart.c ****     // Wait for end of TX.
 523:/home/cuil/workspace/arm/lm3s811/TI_Stellaris/driverlib/uart.c ****     //
 524:/home/cuil/workspace/arm/lm3s811/TI_Stellaris/driverlib/uart.c ****     while(HWREG(ulBase + UART_O_FR) & UART_FR_BUSY)
 10138              		.loc 1 524 0
 10139 0008 00BF     		nop
 10140              	.L19:
 10141              		.loc 1 524 0 is_stmt 0 discriminator 1
 10142 000a 7B68     		ldr	r3, [r7, #4]
 10143 000c 03F11803 		add	r3, r3, #24
 10144 0010 1B68     		ldr	r3, [r3, #0]
 10145 0012 03F00803 		and	r3, r3, #8
 10146 0016 002B     		cmp	r3, #0
 10147 0018 F7D1     		bne	.L19
 525:/home/cuil/workspace/arm/lm3s811/TI_Stellaris/driverlib/uart.c ****     {
 526:/home/cuil/workspace/arm/lm3s811/TI_Stellaris/driverlib/uart.c ****     }
 527:/home/cuil/workspace/arm/lm3s811/TI_Stellaris/driverlib/uart.c **** 
 528:/home/cuil/workspace/arm/lm3s811/TI_Stellaris/driverlib/uart.c ****     //
 529:/home/cuil/workspace/arm/lm3s811/TI_Stellaris/driverlib/uart.c ****     // Disable the FIFO.
 530:/home/cuil/workspace/arm/lm3s811/TI_Stellaris/driverlib/uart.c ****     //
 531:/home/cuil/workspace/arm/lm3s811/TI_Stellaris/driverlib/uart.c ****     HWREG(ulBase + UART_O_LCRH) &= ~(UART_LCRH_FEN);
 10148              		.loc 1 531 0 is_stmt 1
 10149 001a 7B68     		ldr	r3, [r7, #4]
 10150 001c 03F12C03 		add	r3, r3, #44
 10151 0020 7A68     		ldr	r2, [r7, #4]
 10152 0022 02F12C02 		add	r2, r2, #44
 10153 0026 1268     		ldr	r2, [r2, #0]
 10154 0028 22F01002 		bic	r2, r2, #16
 10155 002c 1A60     		str	r2, [r3, #0]
 532:/home/cuil/workspace/arm/lm3s811/TI_Stellaris/driverlib/uart.c **** 
 533:/home/cuil/workspace/arm/lm3s811/TI_Stellaris/driverlib/uart.c ****     //
 534:/home/cuil/workspace/arm/lm3s811/TI_Stellaris/driverlib/uart.c ****     // Disable the UART.
 535:/home/cuil/workspace/arm/lm3s811/TI_Stellaris/driverlib/uart.c ****     //
 536:/home/cuil/workspace/arm/lm3s811/TI_Stellaris/driverlib/uart.c ****     HWREG(ulBase + UART_O_CTL) &= ~(UART_CTL_UARTEN | UART_CTL_TXE |
 10156              		.loc 1 536 0
 10157 002e 7B68     		ldr	r3, [r7, #4]
 10158 0030 03F13003 		add	r3, r3, #48
 10159 0034 1A46     		mov	r2, r3
 10160 0036 7B68     		ldr	r3, [r7, #4]
 10161 0038 03F13003 		add	r3, r3, #48
 10162 003c 1B68     		ldr	r3, [r3, #0]
 10163 003e 23F44073 		bic	r3, r3, #768
 10164 0042 23F00103 		bic	r3, r3, #1
 10165 0046 1360     		str	r3, [r2, #0]
 537:/home/cuil/workspace/arm/lm3s811/TI_Stellaris/driverlib/uart.c ****                                     UART_CTL_RXE);
 538:/home/cuil/workspace/arm/lm3s811/TI_Stellaris/driverlib/uart.c **** }
 10166              		.loc 1 538 0
 10167 0048 07F10C07 		add	r7, r7, #12
 10168 004c BD46     		mov	sp, r7
 10169 004e 80BC     		pop	{r7}
 10170 0050 7047     		bx	lr
 10171              		.cfi_endproc
 10172              	.LFE8:
 10174 0052 00BF     		.section	.text.UARTFIFOEnable,"ax",%progbits
 10175              		.align	2
 10176              		.global	UARTFIFOEnable
 10177              		.thumb
 10178              		.thumb_func
 10180              	UARTFIFOEnable:
 10181              	.LFB9:
 539:/home/cuil/workspace/arm/lm3s811/TI_Stellaris/driverlib/uart.c **** 
 540:/home/cuil/workspace/arm/lm3s811/TI_Stellaris/driverlib/uart.c **** //*****************************************************************************
 541:/home/cuil/workspace/arm/lm3s811/TI_Stellaris/driverlib/uart.c **** //
 542:/home/cuil/workspace/arm/lm3s811/TI_Stellaris/driverlib/uart.c **** //! Enables the transmit and receive FIFOs.
 543:/home/cuil/workspace/arm/lm3s811/TI_Stellaris/driverlib/uart.c **** //!
 544:/home/cuil/workspace/arm/lm3s811/TI_Stellaris/driverlib/uart.c **** //! \param ulBase is the base address of the UART port.
 545:/home/cuil/workspace/arm/lm3s811/TI_Stellaris/driverlib/uart.c **** //!
 546:/home/cuil/workspace/arm/lm3s811/TI_Stellaris/driverlib/uart.c **** //! This functions enables the transmit and receive FIFOs in the UART.
 547:/home/cuil/workspace/arm/lm3s811/TI_Stellaris/driverlib/uart.c **** //!
 548:/home/cuil/workspace/arm/lm3s811/TI_Stellaris/driverlib/uart.c **** //! \return None.
 549:/home/cuil/workspace/arm/lm3s811/TI_Stellaris/driverlib/uart.c **** //
 550:/home/cuil/workspace/arm/lm3s811/TI_Stellaris/driverlib/uart.c **** //*****************************************************************************
 551:/home/cuil/workspace/arm/lm3s811/TI_Stellaris/driverlib/uart.c **** void
 552:/home/cuil/workspace/arm/lm3s811/TI_Stellaris/driverlib/uart.c **** UARTFIFOEnable(unsigned long ulBase)
 553:/home/cuil/workspace/arm/lm3s811/TI_Stellaris/driverlib/uart.c **** {
 10182              		.loc 1 553 0
 10183              		.cfi_startproc
 10184              		@ args = 0, pretend = 0, frame = 8
 10185              		@ frame_needed = 1, uses_anonymous_args = 0
 10186              		@ link register save eliminated.
 10187 0000 80B4     		push	{r7}
 10188              	.LCFI27:
 10189              		.cfi_def_cfa_offset 4
 10190 0002 83B0     		sub	sp, sp, #12
 10191              	.LCFI28:
 10192              		.cfi_def_cfa_offset 16
 10193 0004 00AF     		add	r7, sp, #0
 10194              		.cfi_offset 7, -4
 10195              	.LCFI29:
 10196              		.cfi_def_cfa_register 7
 10197 0006 7860     		str	r0, [r7, #4]
 554:/home/cuil/workspace/arm/lm3s811/TI_Stellaris/driverlib/uart.c ****     //
 555:/home/cuil/workspace/arm/lm3s811/TI_Stellaris/driverlib/uart.c ****     // Check the arguments.
 556:/home/cuil/workspace/arm/lm3s811/TI_Stellaris/driverlib/uart.c ****     //
 557:/home/cuil/workspace/arm/lm3s811/TI_Stellaris/driverlib/uart.c ****     ASSERT(UARTBaseValid(ulBase));
 558:/home/cuil/workspace/arm/lm3s811/TI_Stellaris/driverlib/uart.c **** 
 559:/home/cuil/workspace/arm/lm3s811/TI_Stellaris/driverlib/uart.c ****     //
 560:/home/cuil/workspace/arm/lm3s811/TI_Stellaris/driverlib/uart.c ****     // Enable the FIFO.
 561:/home/cuil/workspace/arm/lm3s811/TI_Stellaris/driverlib/uart.c ****     //
 562:/home/cuil/workspace/arm/lm3s811/TI_Stellaris/driverlib/uart.c ****     HWREG(ulBase + UART_O_LCRH) |= UART_LCRH_FEN;
 10198              		.loc 1 562 0
 10199 0008 7B68     		ldr	r3, [r7, #4]
 10200 000a 03F12C03 		add	r3, r3, #44
 10201 000e 7A68     		ldr	r2, [r7, #4]
 10202 0010 02F12C02 		add	r2, r2, #44
 10203 0014 1268     		ldr	r2, [r2, #0]
 10204 0016 42F01002 		orr	r2, r2, #16
 10205 001a 1A60     		str	r2, [r3, #0]
 563:/home/cuil/workspace/arm/lm3s811/TI_Stellaris/driverlib/uart.c **** }
 10206              		.loc 1 563 0
 10207 001c 07F10C07 		add	r7, r7, #12
 10208 0020 BD46     		mov	sp, r7
 10209 0022 80BC     		pop	{r7}
 10210 0024 7047     		bx	lr
 10211              		.cfi_endproc
 10212              	.LFE9:
 10214 0026 00BF     		.section	.text.UARTFIFODisable,"ax",%progbits
 10215              		.align	2
 10216              		.global	UARTFIFODisable
 10217              		.thumb
 10218              		.thumb_func
 10220              	UARTFIFODisable:
 10221              	.LFB10:
 564:/home/cuil/workspace/arm/lm3s811/TI_Stellaris/driverlib/uart.c **** 
 565:/home/cuil/workspace/arm/lm3s811/TI_Stellaris/driverlib/uart.c **** //*****************************************************************************
 566:/home/cuil/workspace/arm/lm3s811/TI_Stellaris/driverlib/uart.c **** //
 567:/home/cuil/workspace/arm/lm3s811/TI_Stellaris/driverlib/uart.c **** //! Disables the transmit and receive FIFOs.
 568:/home/cuil/workspace/arm/lm3s811/TI_Stellaris/driverlib/uart.c **** //!
 569:/home/cuil/workspace/arm/lm3s811/TI_Stellaris/driverlib/uart.c **** //! \param ulBase is the base address of the UART port.
 570:/home/cuil/workspace/arm/lm3s811/TI_Stellaris/driverlib/uart.c **** //!
 571:/home/cuil/workspace/arm/lm3s811/TI_Stellaris/driverlib/uart.c **** //! This function disables the transmit and receive FIFOs in the UART.
 572:/home/cuil/workspace/arm/lm3s811/TI_Stellaris/driverlib/uart.c **** //!
 573:/home/cuil/workspace/arm/lm3s811/TI_Stellaris/driverlib/uart.c **** //! \return None.
 574:/home/cuil/workspace/arm/lm3s811/TI_Stellaris/driverlib/uart.c **** //
 575:/home/cuil/workspace/arm/lm3s811/TI_Stellaris/driverlib/uart.c **** //*****************************************************************************
 576:/home/cuil/workspace/arm/lm3s811/TI_Stellaris/driverlib/uart.c **** void
 577:/home/cuil/workspace/arm/lm3s811/TI_Stellaris/driverlib/uart.c **** UARTFIFODisable(unsigned long ulBase)
 578:/home/cuil/workspace/arm/lm3s811/TI_Stellaris/driverlib/uart.c **** {
 10222              		.loc 1 578 0
 10223              		.cfi_startproc
 10224              		@ args = 0, pretend = 0, frame = 8
 10225              		@ frame_needed = 1, uses_anonymous_args = 0
 10226              		@ link register save eliminated.
 10227 0000 80B4     		push	{r7}
 10228              	.LCFI30:
 10229              		.cfi_def_cfa_offset 4
 10230 0002 83B0     		sub	sp, sp, #12
 10231              	.LCFI31:
 10232              		.cfi_def_cfa_offset 16
 10233 0004 00AF     		add	r7, sp, #0
 10234              		.cfi_offset 7, -4
 10235              	.LCFI32:
 10236              		.cfi_def_cfa_register 7
 10237 0006 7860     		str	r0, [r7, #4]
 579:/home/cuil/workspace/arm/lm3s811/TI_Stellaris/driverlib/uart.c ****     //
 580:/home/cuil/workspace/arm/lm3s811/TI_Stellaris/driverlib/uart.c ****     // Check the arguments.
 581:/home/cuil/workspace/arm/lm3s811/TI_Stellaris/driverlib/uart.c ****     //
 582:/home/cuil/workspace/arm/lm3s811/TI_Stellaris/driverlib/uart.c ****     ASSERT(UARTBaseValid(ulBase));
 583:/home/cuil/workspace/arm/lm3s811/TI_Stellaris/driverlib/uart.c **** 
 584:/home/cuil/workspace/arm/lm3s811/TI_Stellaris/driverlib/uart.c ****     //
 585:/home/cuil/workspace/arm/lm3s811/TI_Stellaris/driverlib/uart.c ****     // Disable the FIFO.
 586:/home/cuil/workspace/arm/lm3s811/TI_Stellaris/driverlib/uart.c ****     //
 587:/home/cuil/workspace/arm/lm3s811/TI_Stellaris/driverlib/uart.c ****     HWREG(ulBase + UART_O_LCRH) &= ~(UART_LCRH_FEN);
 10238              		.loc 1 587 0
 10239 0008 7B68     		ldr	r3, [r7, #4]
 10240 000a 03F12C03 		add	r3, r3, #44
 10241 000e 7A68     		ldr	r2, [r7, #4]
 10242 0010 02F12C02 		add	r2, r2, #44
 10243 0014 1268     		ldr	r2, [r2, #0]
 10244 0016 22F01002 		bic	r2, r2, #16
 10245 001a 1A60     		str	r2, [r3, #0]
 588:/home/cuil/workspace/arm/lm3s811/TI_Stellaris/driverlib/uart.c **** }
 10246              		.loc 1 588 0
 10247 001c 07F10C07 		add	r7, r7, #12
 10248 0020 BD46     		mov	sp, r7
 10249 0022 80BC     		pop	{r7}
 10250 0024 7047     		bx	lr
 10251              		.cfi_endproc
 10252              	.LFE10:
 10254 0026 00BF     		.section	.text.UARTEnableSIR,"ax",%progbits
 10255              		.align	2
 10256              		.global	UARTEnableSIR
 10257              		.thumb
 10258              		.thumb_func
 10260              	UARTEnableSIR:
 10261              	.LFB11:
 589:/home/cuil/workspace/arm/lm3s811/TI_Stellaris/driverlib/uart.c **** 
 590:/home/cuil/workspace/arm/lm3s811/TI_Stellaris/driverlib/uart.c **** //*****************************************************************************
 591:/home/cuil/workspace/arm/lm3s811/TI_Stellaris/driverlib/uart.c **** //
 592:/home/cuil/workspace/arm/lm3s811/TI_Stellaris/driverlib/uart.c **** //! Enables SIR (IrDA) mode on the specified UART.
 593:/home/cuil/workspace/arm/lm3s811/TI_Stellaris/driverlib/uart.c **** //!
 594:/home/cuil/workspace/arm/lm3s811/TI_Stellaris/driverlib/uart.c **** //! \param ulBase is the base address of the UART port.
 595:/home/cuil/workspace/arm/lm3s811/TI_Stellaris/driverlib/uart.c **** //! \param bLowPower indicates if SIR Low Power Mode is to be used.
 596:/home/cuil/workspace/arm/lm3s811/TI_Stellaris/driverlib/uart.c **** //!
 597:/home/cuil/workspace/arm/lm3s811/TI_Stellaris/driverlib/uart.c **** //! This function enables the SIREN control bit for IrDA mode on the UART.  If
 598:/home/cuil/workspace/arm/lm3s811/TI_Stellaris/driverlib/uart.c **** //! the \e bLowPower flag is set, then SIRLP bit is also set.  This
 599:/home/cuil/workspace/arm/lm3s811/TI_Stellaris/driverlib/uart.c **** //! function only has an effect if the UART has not been enabled
 600:/home/cuil/workspace/arm/lm3s811/TI_Stellaris/driverlib/uart.c **** //! by a call to UARTEnable().  The call UARTEnableSIR() must be made before
 601:/home/cuil/workspace/arm/lm3s811/TI_Stellaris/driverlib/uart.c **** //! a call to UARTConfigSetExpClk() because the UARTConfigSetExpClk() function
 602:/home/cuil/workspace/arm/lm3s811/TI_Stellaris/driverlib/uart.c **** //! calls the UARTEnable() function.  Another option is to call UARTDisable()
 603:/home/cuil/workspace/arm/lm3s811/TI_Stellaris/driverlib/uart.c **** //! followed by UARTEnableSIR() and then enable the UART by calling
 604:/home/cuil/workspace/arm/lm3s811/TI_Stellaris/driverlib/uart.c **** //! UARTEnable().
 605:/home/cuil/workspace/arm/lm3s811/TI_Stellaris/driverlib/uart.c **** //!
 606:/home/cuil/workspace/arm/lm3s811/TI_Stellaris/driverlib/uart.c **** //! \note The availability of SIR (IrDA) operation varies with the Stellaris
 607:/home/cuil/workspace/arm/lm3s811/TI_Stellaris/driverlib/uart.c **** //! part in use.  Please consult the datasheet for the part you are using to
 608:/home/cuil/workspace/arm/lm3s811/TI_Stellaris/driverlib/uart.c **** //! determine whether this support is available.
 609:/home/cuil/workspace/arm/lm3s811/TI_Stellaris/driverlib/uart.c **** //!
 610:/home/cuil/workspace/arm/lm3s811/TI_Stellaris/driverlib/uart.c **** //! \return None.
 611:/home/cuil/workspace/arm/lm3s811/TI_Stellaris/driverlib/uart.c **** //
 612:/home/cuil/workspace/arm/lm3s811/TI_Stellaris/driverlib/uart.c **** //*****************************************************************************
 613:/home/cuil/workspace/arm/lm3s811/TI_Stellaris/driverlib/uart.c **** void
 614:/home/cuil/workspace/arm/lm3s811/TI_Stellaris/driverlib/uart.c **** UARTEnableSIR(unsigned long ulBase, tBoolean bLowPower)
 615:/home/cuil/workspace/arm/lm3s811/TI_Stellaris/driverlib/uart.c **** {
 10262              		.loc 1 615 0
 10263              		.cfi_startproc
 10264              		@ args = 0, pretend = 0, frame = 8
 10265              		@ frame_needed = 1, uses_anonymous_args = 0
 10266              		@ link register save eliminated.
 10267 0000 80B4     		push	{r7}
 10268              	.LCFI33:
 10269              		.cfi_def_cfa_offset 4
 10270 0002 83B0     		sub	sp, sp, #12
 10271              	.LCFI34:
 10272              		.cfi_def_cfa_offset 16
 10273 0004 00AF     		add	r7, sp, #0
 10274              		.cfi_offset 7, -4
 10275              	.LCFI35:
 10276              		.cfi_def_cfa_register 7
 10277 0006 7860     		str	r0, [r7, #4]
 10278 0008 0B46     		mov	r3, r1
 10279 000a FB70     		strb	r3, [r7, #3]
 616:/home/cuil/workspace/arm/lm3s811/TI_Stellaris/driverlib/uart.c ****     //
 617:/home/cuil/workspace/arm/lm3s811/TI_Stellaris/driverlib/uart.c ****     // Check the arguments.
 618:/home/cuil/workspace/arm/lm3s811/TI_Stellaris/driverlib/uart.c ****     //
 619:/home/cuil/workspace/arm/lm3s811/TI_Stellaris/driverlib/uart.c ****     ASSERT(UARTBaseValid(ulBase));
 620:/home/cuil/workspace/arm/lm3s811/TI_Stellaris/driverlib/uart.c **** 
 621:/home/cuil/workspace/arm/lm3s811/TI_Stellaris/driverlib/uart.c ****     //
 622:/home/cuil/workspace/arm/lm3s811/TI_Stellaris/driverlib/uart.c ****     // Enable SIR and SIRLP (if appropriate).
 623:/home/cuil/workspace/arm/lm3s811/TI_Stellaris/driverlib/uart.c ****     //
 624:/home/cuil/workspace/arm/lm3s811/TI_Stellaris/driverlib/uart.c ****     if(bLowPower)
 10280              		.loc 1 624 0
 10281 000c FB78     		ldrb	r3, [r7, #3]	@ zero_extendqisi2
 10282 000e 002B     		cmp	r3, #0
 10283 0010 0AD0     		beq	.L23
 625:/home/cuil/workspace/arm/lm3s811/TI_Stellaris/driverlib/uart.c ****     {
 626:/home/cuil/workspace/arm/lm3s811/TI_Stellaris/driverlib/uart.c ****         HWREG(ulBase + UART_O_CTL) |= (UART_CTL_SIREN | UART_CTL_SIRLP);
 10284              		.loc 1 626 0
 10285 0012 7B68     		ldr	r3, [r7, #4]
 10286 0014 03F13003 		add	r3, r3, #48
 10287 0018 7A68     		ldr	r2, [r7, #4]
 10288 001a 02F13002 		add	r2, r2, #48
 10289 001e 1268     		ldr	r2, [r2, #0]
 10290 0020 42F00602 		orr	r2, r2, #6
 10291 0024 1A60     		str	r2, [r3, #0]
 10292 0026 09E0     		b	.L22
 10293              	.L23:
 627:/home/cuil/workspace/arm/lm3s811/TI_Stellaris/driverlib/uart.c ****     }
 628:/home/cuil/workspace/arm/lm3s811/TI_Stellaris/driverlib/uart.c ****     else
 629:/home/cuil/workspace/arm/lm3s811/TI_Stellaris/driverlib/uart.c ****     {
 630:/home/cuil/workspace/arm/lm3s811/TI_Stellaris/driverlib/uart.c ****         HWREG(ulBase + UART_O_CTL) |= (UART_CTL_SIREN);
 10294              		.loc 1 630 0
 10295 0028 7B68     		ldr	r3, [r7, #4]
 10296 002a 03F13003 		add	r3, r3, #48
 10297 002e 7A68     		ldr	r2, [r7, #4]
 10298 0030 02F13002 		add	r2, r2, #48
 10299 0034 1268     		ldr	r2, [r2, #0]
 10300 0036 42F00202 		orr	r2, r2, #2
 10301 003a 1A60     		str	r2, [r3, #0]
 10302              	.L22:
 631:/home/cuil/workspace/arm/lm3s811/TI_Stellaris/driverlib/uart.c ****     }
 632:/home/cuil/workspace/arm/lm3s811/TI_Stellaris/driverlib/uart.c **** }
 10303              		.loc 1 632 0
 10304 003c 07F10C07 		add	r7, r7, #12
 10305 0040 BD46     		mov	sp, r7
 10306 0042 80BC     		pop	{r7}
 10307 0044 7047     		bx	lr
 10308              		.cfi_endproc
 10309              	.LFE11:
 10311 0046 00BF     		.section	.text.UARTDisableSIR,"ax",%progbits
 10312              		.align	2
 10313              		.global	UARTDisableSIR
 10314              		.thumb
 10315              		.thumb_func
 10317              	UARTDisableSIR:
 10318              	.LFB12:
 633:/home/cuil/workspace/arm/lm3s811/TI_Stellaris/driverlib/uart.c **** 
 634:/home/cuil/workspace/arm/lm3s811/TI_Stellaris/driverlib/uart.c **** //*****************************************************************************
 635:/home/cuil/workspace/arm/lm3s811/TI_Stellaris/driverlib/uart.c **** //
 636:/home/cuil/workspace/arm/lm3s811/TI_Stellaris/driverlib/uart.c **** //! Disables SIR (IrDA) mode on the specified UART.
 637:/home/cuil/workspace/arm/lm3s811/TI_Stellaris/driverlib/uart.c **** //!
 638:/home/cuil/workspace/arm/lm3s811/TI_Stellaris/driverlib/uart.c **** //! \param ulBase is the base address of the UART port.
 639:/home/cuil/workspace/arm/lm3s811/TI_Stellaris/driverlib/uart.c **** //!
 640:/home/cuil/workspace/arm/lm3s811/TI_Stellaris/driverlib/uart.c **** //! This function clears the SIREN (IrDA) and SIRLP (Low Power) bits.  This
 641:/home/cuil/workspace/arm/lm3s811/TI_Stellaris/driverlib/uart.c **** //! function only has an effect if the UART has not been enabled by a
 642:/home/cuil/workspace/arm/lm3s811/TI_Stellaris/driverlib/uart.c **** //! call to UARTEnable().  The call UARTEnableSIR() must be made before
 643:/home/cuil/workspace/arm/lm3s811/TI_Stellaris/driverlib/uart.c **** //! a call to UARTConfigSetExpClk() because the UARTConfigSetExpClk() function
 644:/home/cuil/workspace/arm/lm3s811/TI_Stellaris/driverlib/uart.c **** //! calls the UARTEnable() function.  Another option is to call UARTDisable()
 645:/home/cuil/workspace/arm/lm3s811/TI_Stellaris/driverlib/uart.c **** //! followed by UARTEnableSIR() and then enable the UART by calling
 646:/home/cuil/workspace/arm/lm3s811/TI_Stellaris/driverlib/uart.c **** //! UARTEnable().
 647:/home/cuil/workspace/arm/lm3s811/TI_Stellaris/driverlib/uart.c **** //!
 648:/home/cuil/workspace/arm/lm3s811/TI_Stellaris/driverlib/uart.c **** //! \note The availability of SIR (IrDA) operation varies with the Stellaris
 649:/home/cuil/workspace/arm/lm3s811/TI_Stellaris/driverlib/uart.c **** //! part in use.  Please consult the datasheet for the part you are using to
 650:/home/cuil/workspace/arm/lm3s811/TI_Stellaris/driverlib/uart.c **** //! determine whether this support is available.
 651:/home/cuil/workspace/arm/lm3s811/TI_Stellaris/driverlib/uart.c **** //!
 652:/home/cuil/workspace/arm/lm3s811/TI_Stellaris/driverlib/uart.c **** //! \return None.
 653:/home/cuil/workspace/arm/lm3s811/TI_Stellaris/driverlib/uart.c **** //
 654:/home/cuil/workspace/arm/lm3s811/TI_Stellaris/driverlib/uart.c **** //*****************************************************************************
 655:/home/cuil/workspace/arm/lm3s811/TI_Stellaris/driverlib/uart.c **** void
 656:/home/cuil/workspace/arm/lm3s811/TI_Stellaris/driverlib/uart.c **** UARTDisableSIR(unsigned long ulBase)
 657:/home/cuil/workspace/arm/lm3s811/TI_Stellaris/driverlib/uart.c **** {
 10319              		.loc 1 657 0
 10320              		.cfi_startproc
 10321              		@ args = 0, pretend = 0, frame = 8
 10322              		@ frame_needed = 1, uses_anonymous_args = 0
 10323              		@ link register save eliminated.
 10324 0000 80B4     		push	{r7}
 10325              	.LCFI36:
 10326              		.cfi_def_cfa_offset 4
 10327 0002 83B0     		sub	sp, sp, #12
 10328              	.LCFI37:
 10329              		.cfi_def_cfa_offset 16
 10330 0004 00AF     		add	r7, sp, #0
 10331              		.cfi_offset 7, -4
 10332              	.LCFI38:
 10333              		.cfi_def_cfa_register 7
 10334 0006 7860     		str	r0, [r7, #4]
 658:/home/cuil/workspace/arm/lm3s811/TI_Stellaris/driverlib/uart.c ****     //
 659:/home/cuil/workspace/arm/lm3s811/TI_Stellaris/driverlib/uart.c ****     // Check the arguments.
 660:/home/cuil/workspace/arm/lm3s811/TI_Stellaris/driverlib/uart.c ****     //
 661:/home/cuil/workspace/arm/lm3s811/TI_Stellaris/driverlib/uart.c ****     ASSERT(UARTBaseValid(ulBase));
 662:/home/cuil/workspace/arm/lm3s811/TI_Stellaris/driverlib/uart.c **** 
 663:/home/cuil/workspace/arm/lm3s811/TI_Stellaris/driverlib/uart.c ****     //
 664:/home/cuil/workspace/arm/lm3s811/TI_Stellaris/driverlib/uart.c ****     // Disable SIR and SIRLP (if appropriate).
 665:/home/cuil/workspace/arm/lm3s811/TI_Stellaris/driverlib/uart.c ****     //
 666:/home/cuil/workspace/arm/lm3s811/TI_Stellaris/driverlib/uart.c ****     HWREG(ulBase + UART_O_CTL) &= ~(UART_CTL_SIREN | UART_CTL_SIRLP);
 10335              		.loc 1 666 0
 10336 0008 7B68     		ldr	r3, [r7, #4]
 10337 000a 03F13003 		add	r3, r3, #48
 10338 000e 7A68     		ldr	r2, [r7, #4]
 10339 0010 02F13002 		add	r2, r2, #48
 10340 0014 1268     		ldr	r2, [r2, #0]
 10341 0016 22F00602 		bic	r2, r2, #6
 10342 001a 1A60     		str	r2, [r3, #0]
 667:/home/cuil/workspace/arm/lm3s811/TI_Stellaris/driverlib/uart.c **** }
 10343              		.loc 1 667 0
 10344 001c 07F10C07 		add	r7, r7, #12
 10345 0020 BD46     		mov	sp, r7
 10346 0022 80BC     		pop	{r7}
 10347 0024 7047     		bx	lr
 10348              		.cfi_endproc
 10349              	.LFE12:
 10351 0026 00BF     		.section	.text.UARTSmartCardEnable,"ax",%progbits
 10352              		.align	2
 10353              		.global	UARTSmartCardEnable
 10354              		.thumb
 10355              		.thumb_func
 10357              	UARTSmartCardEnable:
 10358              	.LFB13:
 668:/home/cuil/workspace/arm/lm3s811/TI_Stellaris/driverlib/uart.c **** 
 669:/home/cuil/workspace/arm/lm3s811/TI_Stellaris/driverlib/uart.c **** //*****************************************************************************
 670:/home/cuil/workspace/arm/lm3s811/TI_Stellaris/driverlib/uart.c **** //
 671:/home/cuil/workspace/arm/lm3s811/TI_Stellaris/driverlib/uart.c **** //! Enables ISO7816 smart card mode on the specified UART.
 672:/home/cuil/workspace/arm/lm3s811/TI_Stellaris/driverlib/uart.c **** //!
 673:/home/cuil/workspace/arm/lm3s811/TI_Stellaris/driverlib/uart.c **** //! \param ulBase is the base address of the UART port.
 674:/home/cuil/workspace/arm/lm3s811/TI_Stellaris/driverlib/uart.c **** //!
 675:/home/cuil/workspace/arm/lm3s811/TI_Stellaris/driverlib/uart.c **** //! This function enables the SMART control bit for the ISO7816 smart card mode 
 676:/home/cuil/workspace/arm/lm3s811/TI_Stellaris/driverlib/uart.c **** //! on the UART.  This call also sets 8-bit word length and even parity as
 677:/home/cuil/workspace/arm/lm3s811/TI_Stellaris/driverlib/uart.c **** //! required by ISO7816.
 678:/home/cuil/workspace/arm/lm3s811/TI_Stellaris/driverlib/uart.c **** //!
 679:/home/cuil/workspace/arm/lm3s811/TI_Stellaris/driverlib/uart.c **** //! \note The availability of SIR (IrDA) operation varies with the Stellaris
 680:/home/cuil/workspace/arm/lm3s811/TI_Stellaris/driverlib/uart.c **** //! part in use.  Please consult the datasheet for the part you are using to
 681:/home/cuil/workspace/arm/lm3s811/TI_Stellaris/driverlib/uart.c **** //! determine whether this support is available.
 682:/home/cuil/workspace/arm/lm3s811/TI_Stellaris/driverlib/uart.c **** //!
 683:/home/cuil/workspace/arm/lm3s811/TI_Stellaris/driverlib/uart.c **** //! \return None.
 684:/home/cuil/workspace/arm/lm3s811/TI_Stellaris/driverlib/uart.c **** //
 685:/home/cuil/workspace/arm/lm3s811/TI_Stellaris/driverlib/uart.c **** //*****************************************************************************
 686:/home/cuil/workspace/arm/lm3s811/TI_Stellaris/driverlib/uart.c **** void
 687:/home/cuil/workspace/arm/lm3s811/TI_Stellaris/driverlib/uart.c **** UARTSmartCardEnable(unsigned long ulBase)
 688:/home/cuil/workspace/arm/lm3s811/TI_Stellaris/driverlib/uart.c **** {
 10359              		.loc 1 688 0
 10360              		.cfi_startproc
 10361              		@ args = 0, pretend = 0, frame = 16
 10362              		@ frame_needed = 1, uses_anonymous_args = 0
 10363              		@ link register save eliminated.
 10364 0000 80B4     		push	{r7}
 10365              	.LCFI39:
 10366              		.cfi_def_cfa_offset 4
 10367 0002 85B0     		sub	sp, sp, #20
 10368              	.LCFI40:
 10369              		.cfi_def_cfa_offset 24
 10370 0004 00AF     		add	r7, sp, #0
 10371              		.cfi_offset 7, -4
 10372              	.LCFI41:
 10373              		.cfi_def_cfa_register 7
 10374 0006 7860     		str	r0, [r7, #4]
 689:/home/cuil/workspace/arm/lm3s811/TI_Stellaris/driverlib/uart.c ****     unsigned long ulVal;
 690:/home/cuil/workspace/arm/lm3s811/TI_Stellaris/driverlib/uart.c **** 
 691:/home/cuil/workspace/arm/lm3s811/TI_Stellaris/driverlib/uart.c ****     //
 692:/home/cuil/workspace/arm/lm3s811/TI_Stellaris/driverlib/uart.c ****     // Check the arguments.
 693:/home/cuil/workspace/arm/lm3s811/TI_Stellaris/driverlib/uart.c ****     //
 694:/home/cuil/workspace/arm/lm3s811/TI_Stellaris/driverlib/uart.c ****     ASSERT(!CLASS_IS_SANDSTORM && !CLASS_IS_FURY && !CLASS_IS_DUSTDEVIL);
 695:/home/cuil/workspace/arm/lm3s811/TI_Stellaris/driverlib/uart.c ****     ASSERT(UARTBaseValid(ulBase));
 696:/home/cuil/workspace/arm/lm3s811/TI_Stellaris/driverlib/uart.c **** 
 697:/home/cuil/workspace/arm/lm3s811/TI_Stellaris/driverlib/uart.c ****     //
 698:/home/cuil/workspace/arm/lm3s811/TI_Stellaris/driverlib/uart.c ****     // Set 8-bit word length, even parity, 2 stop bits (note that although the 
 699:/home/cuil/workspace/arm/lm3s811/TI_Stellaris/driverlib/uart.c ****     // STP2 bit is ignored when in smartcard mode, this code lets the caller 
 700:/home/cuil/workspace/arm/lm3s811/TI_Stellaris/driverlib/uart.c ****     // read back the actual setting in use).
 701:/home/cuil/workspace/arm/lm3s811/TI_Stellaris/driverlib/uart.c ****     //
 702:/home/cuil/workspace/arm/lm3s811/TI_Stellaris/driverlib/uart.c ****     ulVal = HWREG(ulBase + UART_O_LCRH);
 10375              		.loc 1 702 0
 10376 0008 7B68     		ldr	r3, [r7, #4]
 10377 000a 03F12C03 		add	r3, r3, #44
 10378 000e 1B68     		ldr	r3, [r3, #0]
 10379 0010 FB60     		str	r3, [r7, #12]
 703:/home/cuil/workspace/arm/lm3s811/TI_Stellaris/driverlib/uart.c ****     ulVal &= ~(UART_LCRH_SPS | UART_LCRH_EPS | UART_LCRH_PEN |
 10380              		.loc 1 703 0
 10381 0012 FB68     		ldr	r3, [r7, #12]
 10382 0014 23F0E603 		bic	r3, r3, #230
 10383 0018 FB60     		str	r3, [r7, #12]
 704:/home/cuil/workspace/arm/lm3s811/TI_Stellaris/driverlib/uart.c ****                UART_LCRH_WLEN_M);
 705:/home/cuil/workspace/arm/lm3s811/TI_Stellaris/driverlib/uart.c ****     ulVal |= UART_LCRH_WLEN_8 | UART_LCRH_PEN | UART_LCRH_EPS | UART_LCRH_STP2;
 10384              		.loc 1 705 0
 10385 001a FB68     		ldr	r3, [r7, #12]
 10386 001c 43F06E03 		orr	r3, r3, #110
 10387 0020 FB60     		str	r3, [r7, #12]
 706:/home/cuil/workspace/arm/lm3s811/TI_Stellaris/driverlib/uart.c ****     HWREG(ulBase + UART_O_LCRH) = ulVal;
 10388              		.loc 1 706 0
 10389 0022 7B68     		ldr	r3, [r7, #4]
 10390 0024 03F12C03 		add	r3, r3, #44
 10391 0028 FA68     		ldr	r2, [r7, #12]
 10392 002a 1A60     		str	r2, [r3, #0]
 707:/home/cuil/workspace/arm/lm3s811/TI_Stellaris/driverlib/uart.c **** 
 708:/home/cuil/workspace/arm/lm3s811/TI_Stellaris/driverlib/uart.c ****     //
 709:/home/cuil/workspace/arm/lm3s811/TI_Stellaris/driverlib/uart.c ****     // Enable SMART mode.
 710:/home/cuil/workspace/arm/lm3s811/TI_Stellaris/driverlib/uart.c ****     //
 711:/home/cuil/workspace/arm/lm3s811/TI_Stellaris/driverlib/uart.c ****     HWREG(ulBase + UART_O_CTL) |= UART_CTL_SMART;
 10393              		.loc 1 711 0
 10394 002c 7B68     		ldr	r3, [r7, #4]
 10395 002e 03F13003 		add	r3, r3, #48
 10396 0032 7A68     		ldr	r2, [r7, #4]
 10397 0034 02F13002 		add	r2, r2, #48
 10398 0038 1268     		ldr	r2, [r2, #0]
 10399 003a 42F00802 		orr	r2, r2, #8
 10400 003e 1A60     		str	r2, [r3, #0]
 712:/home/cuil/workspace/arm/lm3s811/TI_Stellaris/driverlib/uart.c **** }
 10401              		.loc 1 712 0
 10402 0040 07F11407 		add	r7, r7, #20
 10403 0044 BD46     		mov	sp, r7
 10404 0046 80BC     		pop	{r7}
 10405 0048 7047     		bx	lr
 10406              		.cfi_endproc
 10407              	.LFE13:
 10409 004a 00BF     		.section	.text.UARTSmartCardDisable,"ax",%progbits
 10410              		.align	2
 10411              		.global	UARTSmartCardDisable
 10412              		.thumb
 10413              		.thumb_func
 10415              	UARTSmartCardDisable:
 10416              	.LFB14:
 713:/home/cuil/workspace/arm/lm3s811/TI_Stellaris/driverlib/uart.c **** 
 714:/home/cuil/workspace/arm/lm3s811/TI_Stellaris/driverlib/uart.c **** //*****************************************************************************
 715:/home/cuil/workspace/arm/lm3s811/TI_Stellaris/driverlib/uart.c **** //
 716:/home/cuil/workspace/arm/lm3s811/TI_Stellaris/driverlib/uart.c **** //! Disables ISO7816 smart card mode on the specified UART.
 717:/home/cuil/workspace/arm/lm3s811/TI_Stellaris/driverlib/uart.c **** //!
 718:/home/cuil/workspace/arm/lm3s811/TI_Stellaris/driverlib/uart.c **** //! \param ulBase is the base address of the UART port.
 719:/home/cuil/workspace/arm/lm3s811/TI_Stellaris/driverlib/uart.c **** //!
 720:/home/cuil/workspace/arm/lm3s811/TI_Stellaris/driverlib/uart.c **** //! This function clears the SMART (ISO7816 smart card) bit in the UART
 721:/home/cuil/workspace/arm/lm3s811/TI_Stellaris/driverlib/uart.c **** //! control register.
 722:/home/cuil/workspace/arm/lm3s811/TI_Stellaris/driverlib/uart.c **** //!
 723:/home/cuil/workspace/arm/lm3s811/TI_Stellaris/driverlib/uart.c **** //! \note The availability of ISO7816 smart card mode varies with the
 724:/home/cuil/workspace/arm/lm3s811/TI_Stellaris/driverlib/uart.c **** //! Stellaris part in use.  Please consult the datasheet for the part you are
 725:/home/cuil/workspace/arm/lm3s811/TI_Stellaris/driverlib/uart.c **** //! using to determine whether this support is available.
 726:/home/cuil/workspace/arm/lm3s811/TI_Stellaris/driverlib/uart.c **** //!
 727:/home/cuil/workspace/arm/lm3s811/TI_Stellaris/driverlib/uart.c **** //! \return None.
 728:/home/cuil/workspace/arm/lm3s811/TI_Stellaris/driverlib/uart.c **** //
 729:/home/cuil/workspace/arm/lm3s811/TI_Stellaris/driverlib/uart.c **** //*****************************************************************************
 730:/home/cuil/workspace/arm/lm3s811/TI_Stellaris/driverlib/uart.c **** void
 731:/home/cuil/workspace/arm/lm3s811/TI_Stellaris/driverlib/uart.c **** UARTSmartCardDisable(unsigned long ulBase)
 732:/home/cuil/workspace/arm/lm3s811/TI_Stellaris/driverlib/uart.c **** {
 10417              		.loc 1 732 0
 10418              		.cfi_startproc
 10419              		@ args = 0, pretend = 0, frame = 8
 10420              		@ frame_needed = 1, uses_anonymous_args = 0
 10421              		@ link register save eliminated.
 10422 0000 80B4     		push	{r7}
 10423              	.LCFI42:
 10424              		.cfi_def_cfa_offset 4
 10425 0002 83B0     		sub	sp, sp, #12
 10426              	.LCFI43:
 10427              		.cfi_def_cfa_offset 16
 10428 0004 00AF     		add	r7, sp, #0
 10429              		.cfi_offset 7, -4
 10430              	.LCFI44:
 10431              		.cfi_def_cfa_register 7
 10432 0006 7860     		str	r0, [r7, #4]
 733:/home/cuil/workspace/arm/lm3s811/TI_Stellaris/driverlib/uart.c ****     //
 734:/home/cuil/workspace/arm/lm3s811/TI_Stellaris/driverlib/uart.c ****     // Check the arguments.
 735:/home/cuil/workspace/arm/lm3s811/TI_Stellaris/driverlib/uart.c ****     //
 736:/home/cuil/workspace/arm/lm3s811/TI_Stellaris/driverlib/uart.c ****     ASSERT(!CLASS_IS_SANDSTORM && !CLASS_IS_FURY && !CLASS_IS_DUSTDEVIL);
 737:/home/cuil/workspace/arm/lm3s811/TI_Stellaris/driverlib/uart.c ****     ASSERT(UARTBaseValid(ulBase));
 738:/home/cuil/workspace/arm/lm3s811/TI_Stellaris/driverlib/uart.c **** 
 739:/home/cuil/workspace/arm/lm3s811/TI_Stellaris/driverlib/uart.c ****     //
 740:/home/cuil/workspace/arm/lm3s811/TI_Stellaris/driverlib/uart.c ****     // Disable the SMART bit.
 741:/home/cuil/workspace/arm/lm3s811/TI_Stellaris/driverlib/uart.c ****     //
 742:/home/cuil/workspace/arm/lm3s811/TI_Stellaris/driverlib/uart.c ****     HWREG(ulBase + UART_O_CTL) &= ~UART_CTL_SMART;
 10433              		.loc 1 742 0
 10434 0008 7B68     		ldr	r3, [r7, #4]
 10435 000a 03F13003 		add	r3, r3, #48
 10436 000e 7A68     		ldr	r2, [r7, #4]
 10437 0010 02F13002 		add	r2, r2, #48
 10438 0014 1268     		ldr	r2, [r2, #0]
 10439 0016 22F00802 		bic	r2, r2, #8
 10440 001a 1A60     		str	r2, [r3, #0]
 743:/home/cuil/workspace/arm/lm3s811/TI_Stellaris/driverlib/uart.c **** }
 10441              		.loc 1 743 0
 10442 001c 07F10C07 		add	r7, r7, #12
 10443 0020 BD46     		mov	sp, r7
 10444 0022 80BC     		pop	{r7}
 10445 0024 7047     		bx	lr
 10446              		.cfi_endproc
 10447              	.LFE14:
 10449 0026 00BF     		.section	.text.UARTModemControlSet,"ax",%progbits
 10450              		.align	2
 10451              		.global	UARTModemControlSet
 10452              		.thumb
 10453              		.thumb_func
 10455              	UARTModemControlSet:
 10456              	.LFB15:
 744:/home/cuil/workspace/arm/lm3s811/TI_Stellaris/driverlib/uart.c **** 
 745:/home/cuil/workspace/arm/lm3s811/TI_Stellaris/driverlib/uart.c **** //*****************************************************************************
 746:/home/cuil/workspace/arm/lm3s811/TI_Stellaris/driverlib/uart.c **** //
 747:/home/cuil/workspace/arm/lm3s811/TI_Stellaris/driverlib/uart.c **** //! Sets the states of the DTR and/or RTS modem control signals.
 748:/home/cuil/workspace/arm/lm3s811/TI_Stellaris/driverlib/uart.c **** //!
 749:/home/cuil/workspace/arm/lm3s811/TI_Stellaris/driverlib/uart.c **** //! \param ulBase is the base address of the UART port.
 750:/home/cuil/workspace/arm/lm3s811/TI_Stellaris/driverlib/uart.c **** //! \param ulControl is a bit-mapped flag indicating which modem control bits
 751:/home/cuil/workspace/arm/lm3s811/TI_Stellaris/driverlib/uart.c **** //! should be set.
 752:/home/cuil/workspace/arm/lm3s811/TI_Stellaris/driverlib/uart.c **** //!
 753:/home/cuil/workspace/arm/lm3s811/TI_Stellaris/driverlib/uart.c **** //! This function configures the states of the DTR or RTS modem handshake 
 754:/home/cuil/workspace/arm/lm3s811/TI_Stellaris/driverlib/uart.c **** //! outputs from the UART.
 755:/home/cuil/workspace/arm/lm3s811/TI_Stellaris/driverlib/uart.c **** //!
 756:/home/cuil/workspace/arm/lm3s811/TI_Stellaris/driverlib/uart.c **** //! The \e ulControl parameter is the logical OR of any of the following:
 757:/home/cuil/workspace/arm/lm3s811/TI_Stellaris/driverlib/uart.c **** //!
 758:/home/cuil/workspace/arm/lm3s811/TI_Stellaris/driverlib/uart.c **** //! - \b UART_OUTPUT_DTR - The Modem Control DTR signal
 759:/home/cuil/workspace/arm/lm3s811/TI_Stellaris/driverlib/uart.c **** //! - \b UART_OUTPUT_RTS - The Modem Control RTS signal
 760:/home/cuil/workspace/arm/lm3s811/TI_Stellaris/driverlib/uart.c **** //!
 761:/home/cuil/workspace/arm/lm3s811/TI_Stellaris/driverlib/uart.c **** //! \note The availability of ISO7816 smart card mode varies with the
 762:/home/cuil/workspace/arm/lm3s811/TI_Stellaris/driverlib/uart.c **** //! Stellaris part in use.  Please consult the datasheet for the part you are
 763:/home/cuil/workspace/arm/lm3s811/TI_Stellaris/driverlib/uart.c **** //! using to determine whether this support is available.
 764:/home/cuil/workspace/arm/lm3s811/TI_Stellaris/driverlib/uart.c **** //!
 765:/home/cuil/workspace/arm/lm3s811/TI_Stellaris/driverlib/uart.c **** //! \return None.
 766:/home/cuil/workspace/arm/lm3s811/TI_Stellaris/driverlib/uart.c **** //
 767:/home/cuil/workspace/arm/lm3s811/TI_Stellaris/driverlib/uart.c **** //*****************************************************************************
 768:/home/cuil/workspace/arm/lm3s811/TI_Stellaris/driverlib/uart.c **** void
 769:/home/cuil/workspace/arm/lm3s811/TI_Stellaris/driverlib/uart.c **** UARTModemControlSet(unsigned long ulBase, unsigned long ulControl)
 770:/home/cuil/workspace/arm/lm3s811/TI_Stellaris/driverlib/uart.c **** {
 10457              		.loc 1 770 0
 10458              		.cfi_startproc
 10459              		@ args = 0, pretend = 0, frame = 16
 10460              		@ frame_needed = 1, uses_anonymous_args = 0
 10461              		@ link register save eliminated.
 10462 0000 80B4     		push	{r7}
 10463              	.LCFI45:
 10464              		.cfi_def_cfa_offset 4
 10465 0002 85B0     		sub	sp, sp, #20
 10466              	.LCFI46:
 10467              		.cfi_def_cfa_offset 24
 10468 0004 00AF     		add	r7, sp, #0
 10469              		.cfi_offset 7, -4
 10470              	.LCFI47:
 10471              		.cfi_def_cfa_register 7
 10472 0006 7860     		str	r0, [r7, #4]
 10473 0008 3960     		str	r1, [r7, #0]
 771:/home/cuil/workspace/arm/lm3s811/TI_Stellaris/driverlib/uart.c ****     unsigned long ulTemp;
 772:/home/cuil/workspace/arm/lm3s811/TI_Stellaris/driverlib/uart.c **** 
 773:/home/cuil/workspace/arm/lm3s811/TI_Stellaris/driverlib/uart.c ****     //
 774:/home/cuil/workspace/arm/lm3s811/TI_Stellaris/driverlib/uart.c ****     // Check the arguments.
 775:/home/cuil/workspace/arm/lm3s811/TI_Stellaris/driverlib/uart.c ****     //
 776:/home/cuil/workspace/arm/lm3s811/TI_Stellaris/driverlib/uart.c ****     ASSERT(!CLASS_IS_SANDSTORM && !CLASS_IS_FURY && !CLASS_IS_DUSTDEVIL);
 777:/home/cuil/workspace/arm/lm3s811/TI_Stellaris/driverlib/uart.c ****     ASSERT(ulBase == UART1_BASE);
 778:/home/cuil/workspace/arm/lm3s811/TI_Stellaris/driverlib/uart.c ****     ASSERT((ulControl & ~(UART_OUTPUT_RTS | UART_OUTPUT_DTR)) == 0);
 779:/home/cuil/workspace/arm/lm3s811/TI_Stellaris/driverlib/uart.c **** 
 780:/home/cuil/workspace/arm/lm3s811/TI_Stellaris/driverlib/uart.c ****     //
 781:/home/cuil/workspace/arm/lm3s811/TI_Stellaris/driverlib/uart.c ****     // Set the appropriate modem control output bits.
 782:/home/cuil/workspace/arm/lm3s811/TI_Stellaris/driverlib/uart.c ****     //
 783:/home/cuil/workspace/arm/lm3s811/TI_Stellaris/driverlib/uart.c ****     ulTemp = HWREG(ulBase + UART_O_CTL);
 10474              		.loc 1 783 0
 10475 000a 7B68     		ldr	r3, [r7, #4]
 10476 000c 03F13003 		add	r3, r3, #48
 10477 0010 1B68     		ldr	r3, [r3, #0]
 10478 0012 FB60     		str	r3, [r7, #12]
 784:/home/cuil/workspace/arm/lm3s811/TI_Stellaris/driverlib/uart.c ****     ulTemp |= (ulControl & (UART_OUTPUT_RTS | UART_OUTPUT_DTR));
 10479              		.loc 1 784 0
 10480 0014 3B68     		ldr	r3, [r7, #0]
 10481 0016 03F44063 		and	r3, r3, #3072
 10482 001a FA68     		ldr	r2, [r7, #12]
 10483 001c 42EA0303 		orr	r3, r2, r3
 10484 0020 FB60     		str	r3, [r7, #12]
 785:/home/cuil/workspace/arm/lm3s811/TI_Stellaris/driverlib/uart.c ****     HWREG(ulBase + UART_O_CTL) = ulTemp;
 10485              		.loc 1 785 0
 10486 0022 7B68     		ldr	r3, [r7, #4]
 10487 0024 03F13003 		add	r3, r3, #48
 10488 0028 FA68     		ldr	r2, [r7, #12]
 10489 002a 1A60     		str	r2, [r3, #0]
 786:/home/cuil/workspace/arm/lm3s811/TI_Stellaris/driverlib/uart.c **** }
 10490              		.loc 1 786 0
 10491 002c 07F11407 		add	r7, r7, #20
 10492 0030 BD46     		mov	sp, r7
 10493 0032 80BC     		pop	{r7}
 10494 0034 7047     		bx	lr
 10495              		.cfi_endproc
 10496              	.LFE15:
 10498 0036 00BF     		.section	.text.UARTModemControlClear,"ax",%progbits
 10499              		.align	2
 10500              		.global	UARTModemControlClear
 10501              		.thumb
 10502              		.thumb_func
 10504              	UARTModemControlClear:
 10505              	.LFB16:
 787:/home/cuil/workspace/arm/lm3s811/TI_Stellaris/driverlib/uart.c **** 
 788:/home/cuil/workspace/arm/lm3s811/TI_Stellaris/driverlib/uart.c **** //*****************************************************************************
 789:/home/cuil/workspace/arm/lm3s811/TI_Stellaris/driverlib/uart.c **** //
 790:/home/cuil/workspace/arm/lm3s811/TI_Stellaris/driverlib/uart.c **** //! Clears the states of the DTR and/or RTS modem control signals.
 791:/home/cuil/workspace/arm/lm3s811/TI_Stellaris/driverlib/uart.c **** //!
 792:/home/cuil/workspace/arm/lm3s811/TI_Stellaris/driverlib/uart.c **** //! \param ulBase is the base address of the UART port.
 793:/home/cuil/workspace/arm/lm3s811/TI_Stellaris/driverlib/uart.c **** //! \param ulControl is a bit-mapped flag indicating which modem control bits
 794:/home/cuil/workspace/arm/lm3s811/TI_Stellaris/driverlib/uart.c **** //! should be set.
 795:/home/cuil/workspace/arm/lm3s811/TI_Stellaris/driverlib/uart.c **** //!
 796:/home/cuil/workspace/arm/lm3s811/TI_Stellaris/driverlib/uart.c **** //! This function clears the states of the DTR or RTS modem handshake outputs
 797:/home/cuil/workspace/arm/lm3s811/TI_Stellaris/driverlib/uart.c **** //! from the UART.
 798:/home/cuil/workspace/arm/lm3s811/TI_Stellaris/driverlib/uart.c **** //!
 799:/home/cuil/workspace/arm/lm3s811/TI_Stellaris/driverlib/uart.c **** //! The \e ulControl parameter is the logical OR of any of the following:
 800:/home/cuil/workspace/arm/lm3s811/TI_Stellaris/driverlib/uart.c **** //!
 801:/home/cuil/workspace/arm/lm3s811/TI_Stellaris/driverlib/uart.c **** //! - \b UART_OUTPUT_DTR - The Modem Control DTR signal
 802:/home/cuil/workspace/arm/lm3s811/TI_Stellaris/driverlib/uart.c **** //! - \b UART_OUTPUT_RTS - The Modem Control RTS signal
 803:/home/cuil/workspace/arm/lm3s811/TI_Stellaris/driverlib/uart.c **** //!
 804:/home/cuil/workspace/arm/lm3s811/TI_Stellaris/driverlib/uart.c **** //! \note The availability of hardware modem handshake signals varies with the
 805:/home/cuil/workspace/arm/lm3s811/TI_Stellaris/driverlib/uart.c **** //! Stellaris part and UART in use.  Please consult the datasheet for the part
 806:/home/cuil/workspace/arm/lm3s811/TI_Stellaris/driverlib/uart.c **** //! you are using to determine whether this support is available.
 807:/home/cuil/workspace/arm/lm3s811/TI_Stellaris/driverlib/uart.c **** //!
 808:/home/cuil/workspace/arm/lm3s811/TI_Stellaris/driverlib/uart.c **** //! \return None.
 809:/home/cuil/workspace/arm/lm3s811/TI_Stellaris/driverlib/uart.c **** //
 810:/home/cuil/workspace/arm/lm3s811/TI_Stellaris/driverlib/uart.c **** //*****************************************************************************
 811:/home/cuil/workspace/arm/lm3s811/TI_Stellaris/driverlib/uart.c **** void
 812:/home/cuil/workspace/arm/lm3s811/TI_Stellaris/driverlib/uart.c **** UARTModemControlClear(unsigned long ulBase, unsigned long ulControl)
 813:/home/cuil/workspace/arm/lm3s811/TI_Stellaris/driverlib/uart.c **** {
 10506              		.loc 1 813 0
 10507              		.cfi_startproc
 10508              		@ args = 0, pretend = 0, frame = 16
 10509              		@ frame_needed = 1, uses_anonymous_args = 0
 10510              		@ link register save eliminated.
 10511 0000 80B4     		push	{r7}
 10512              	.LCFI48:
 10513              		.cfi_def_cfa_offset 4
 10514 0002 85B0     		sub	sp, sp, #20
 10515              	.LCFI49:
 10516              		.cfi_def_cfa_offset 24
 10517 0004 00AF     		add	r7, sp, #0
 10518              		.cfi_offset 7, -4
 10519              	.LCFI50:
 10520              		.cfi_def_cfa_register 7
 10521 0006 7860     		str	r0, [r7, #4]
 10522 0008 3960     		str	r1, [r7, #0]
 814:/home/cuil/workspace/arm/lm3s811/TI_Stellaris/driverlib/uart.c ****     unsigned long ulTemp;
 815:/home/cuil/workspace/arm/lm3s811/TI_Stellaris/driverlib/uart.c **** 
 816:/home/cuil/workspace/arm/lm3s811/TI_Stellaris/driverlib/uart.c ****     //
 817:/home/cuil/workspace/arm/lm3s811/TI_Stellaris/driverlib/uart.c ****     // Check the arguments.
 818:/home/cuil/workspace/arm/lm3s811/TI_Stellaris/driverlib/uart.c ****     //
 819:/home/cuil/workspace/arm/lm3s811/TI_Stellaris/driverlib/uart.c ****     ASSERT(!CLASS_IS_SANDSTORM && !CLASS_IS_FURY && !CLASS_IS_DUSTDEVIL);
 820:/home/cuil/workspace/arm/lm3s811/TI_Stellaris/driverlib/uart.c ****     ASSERT(ulBase == UART1_BASE);
 821:/home/cuil/workspace/arm/lm3s811/TI_Stellaris/driverlib/uart.c ****     ASSERT((ulControl & ~(UART_OUTPUT_RTS | UART_OUTPUT_DTR)) == 0);
 822:/home/cuil/workspace/arm/lm3s811/TI_Stellaris/driverlib/uart.c **** 
 823:/home/cuil/workspace/arm/lm3s811/TI_Stellaris/driverlib/uart.c ****     //
 824:/home/cuil/workspace/arm/lm3s811/TI_Stellaris/driverlib/uart.c ****     // Set the appropriate modem control output bits.
 825:/home/cuil/workspace/arm/lm3s811/TI_Stellaris/driverlib/uart.c ****     //
 826:/home/cuil/workspace/arm/lm3s811/TI_Stellaris/driverlib/uart.c ****     ulTemp = HWREG(ulBase + UART_O_CTL);
 10523              		.loc 1 826 0
 10524 000a 7B68     		ldr	r3, [r7, #4]
 10525 000c 03F13003 		add	r3, r3, #48
 10526 0010 1B68     		ldr	r3, [r3, #0]
 10527 0012 FB60     		str	r3, [r7, #12]
 827:/home/cuil/workspace/arm/lm3s811/TI_Stellaris/driverlib/uart.c ****     ulTemp &= ~(ulControl & (UART_OUTPUT_RTS | UART_OUTPUT_DTR));
 10528              		.loc 1 827 0
 10529 0014 3B68     		ldr	r3, [r7, #0]
 10530 0016 03F44063 		and	r3, r3, #3072
 10531 001a 6FEA0303 		mvn	r3, r3
 10532 001e FA68     		ldr	r2, [r7, #12]
 10533 0020 02EA0303 		and	r3, r2, r3
 10534 0024 FB60     		str	r3, [r7, #12]
 828:/home/cuil/workspace/arm/lm3s811/TI_Stellaris/driverlib/uart.c ****     HWREG(ulBase + UART_O_CTL) = ulTemp;
 10535              		.loc 1 828 0
 10536 0026 7B68     		ldr	r3, [r7, #4]
 10537 0028 03F13003 		add	r3, r3, #48
 10538 002c FA68     		ldr	r2, [r7, #12]
 10539 002e 1A60     		str	r2, [r3, #0]
 829:/home/cuil/workspace/arm/lm3s811/TI_Stellaris/driverlib/uart.c **** }
 10540              		.loc 1 829 0
 10541 0030 07F11407 		add	r7, r7, #20
 10542 0034 BD46     		mov	sp, r7
 10543 0036 80BC     		pop	{r7}
 10544 0038 7047     		bx	lr
 10545              		.cfi_endproc
 10546              	.LFE16:
 10548 003a 00BF     		.section	.text.UARTModemControlGet,"ax",%progbits
 10549              		.align	2
 10550              		.global	UARTModemControlGet
 10551              		.thumb
 10552              		.thumb_func
 10554              	UARTModemControlGet:
 10555              	.LFB17:
 830:/home/cuil/workspace/arm/lm3s811/TI_Stellaris/driverlib/uart.c **** 
 831:/home/cuil/workspace/arm/lm3s811/TI_Stellaris/driverlib/uart.c **** //*****************************************************************************
 832:/home/cuil/workspace/arm/lm3s811/TI_Stellaris/driverlib/uart.c **** //
 833:/home/cuil/workspace/arm/lm3s811/TI_Stellaris/driverlib/uart.c **** //! Gets the states of the DTR and RTS modem control signals.
 834:/home/cuil/workspace/arm/lm3s811/TI_Stellaris/driverlib/uart.c **** //!
 835:/home/cuil/workspace/arm/lm3s811/TI_Stellaris/driverlib/uart.c **** //! \param ulBase is the base address of the UART port.
 836:/home/cuil/workspace/arm/lm3s811/TI_Stellaris/driverlib/uart.c **** //!
 837:/home/cuil/workspace/arm/lm3s811/TI_Stellaris/driverlib/uart.c **** //! This function returns the current states of each of the two UART modem
 838:/home/cuil/workspace/arm/lm3s811/TI_Stellaris/driverlib/uart.c **** //! control signals, DTR and RTS.
 839:/home/cuil/workspace/arm/lm3s811/TI_Stellaris/driverlib/uart.c **** //!
 840:/home/cuil/workspace/arm/lm3s811/TI_Stellaris/driverlib/uart.c **** //! \note The availability of hardware modem handshake signals varies with the
 841:/home/cuil/workspace/arm/lm3s811/TI_Stellaris/driverlib/uart.c **** //! Stellaris part and UART in use.  Please consult the datasheet for the part
 842:/home/cuil/workspace/arm/lm3s811/TI_Stellaris/driverlib/uart.c **** //! you are using to determine whether this support is available.
 843:/home/cuil/workspace/arm/lm3s811/TI_Stellaris/driverlib/uart.c **** //!
 844:/home/cuil/workspace/arm/lm3s811/TI_Stellaris/driverlib/uart.c **** //! \return Returns the states of the handshake output signals.  This value is 
 845:/home/cuil/workspace/arm/lm3s811/TI_Stellaris/driverlib/uart.c **** //! a logical OR combination of values \b UART_OUTPUT_RTS and
 846:/home/cuil/workspace/arm/lm3s811/TI_Stellaris/driverlib/uart.c **** //! \b UART_OUTPUT_DTR where the presence of each flag indicates that the
 847:/home/cuil/workspace/arm/lm3s811/TI_Stellaris/driverlib/uart.c **** //! associated signal is asserted.
 848:/home/cuil/workspace/arm/lm3s811/TI_Stellaris/driverlib/uart.c **** //
 849:/home/cuil/workspace/arm/lm3s811/TI_Stellaris/driverlib/uart.c **** //*****************************************************************************
 850:/home/cuil/workspace/arm/lm3s811/TI_Stellaris/driverlib/uart.c **** unsigned long
 851:/home/cuil/workspace/arm/lm3s811/TI_Stellaris/driverlib/uart.c **** UARTModemControlGet(unsigned long ulBase)
 852:/home/cuil/workspace/arm/lm3s811/TI_Stellaris/driverlib/uart.c **** {
 10556              		.loc 1 852 0
 10557              		.cfi_startproc
 10558              		@ args = 0, pretend = 0, frame = 8
 10559              		@ frame_needed = 1, uses_anonymous_args = 0
 10560              		@ link register save eliminated.
 10561 0000 80B4     		push	{r7}
 10562              	.LCFI51:
 10563              		.cfi_def_cfa_offset 4
 10564 0002 83B0     		sub	sp, sp, #12
 10565              	.LCFI52:
 10566              		.cfi_def_cfa_offset 16
 10567 0004 00AF     		add	r7, sp, #0
 10568              		.cfi_offset 7, -4
 10569              	.LCFI53:
 10570              		.cfi_def_cfa_register 7
 10571 0006 7860     		str	r0, [r7, #4]
 853:/home/cuil/workspace/arm/lm3s811/TI_Stellaris/driverlib/uart.c ****     //
 854:/home/cuil/workspace/arm/lm3s811/TI_Stellaris/driverlib/uart.c ****     // Check the arguments.
 855:/home/cuil/workspace/arm/lm3s811/TI_Stellaris/driverlib/uart.c ****     //
 856:/home/cuil/workspace/arm/lm3s811/TI_Stellaris/driverlib/uart.c ****     ASSERT(!CLASS_IS_SANDSTORM && !CLASS_IS_FURY && !CLASS_IS_DUSTDEVIL);
 857:/home/cuil/workspace/arm/lm3s811/TI_Stellaris/driverlib/uart.c ****     ASSERT(ulBase == UART1_BASE);
 858:/home/cuil/workspace/arm/lm3s811/TI_Stellaris/driverlib/uart.c **** 
 859:/home/cuil/workspace/arm/lm3s811/TI_Stellaris/driverlib/uart.c ****     return(HWREG(ulBase + UART_O_CTL) & (UART_OUTPUT_RTS | UART_OUTPUT_DTR));
 10572              		.loc 1 859 0
 10573 0008 7B68     		ldr	r3, [r7, #4]
 10574 000a 03F13003 		add	r3, r3, #48
 10575 000e 1B68     		ldr	r3, [r3, #0]
 10576 0010 03F44063 		and	r3, r3, #3072
 860:/home/cuil/workspace/arm/lm3s811/TI_Stellaris/driverlib/uart.c **** }
 10577              		.loc 1 860 0
 10578 0014 1846     		mov	r0, r3
 10579 0016 07F10C07 		add	r7, r7, #12
 10580 001a BD46     		mov	sp, r7
 10581 001c 80BC     		pop	{r7}
 10582 001e 7047     		bx	lr
 10583              		.cfi_endproc
 10584              	.LFE17:
 10586              		.section	.text.UARTModemStatusGet,"ax",%progbits
 10587              		.align	2
 10588              		.global	UARTModemStatusGet
 10589              		.thumb
 10590              		.thumb_func
 10592              	UARTModemStatusGet:
 10593              	.LFB18:
 861:/home/cuil/workspace/arm/lm3s811/TI_Stellaris/driverlib/uart.c **** 
 862:/home/cuil/workspace/arm/lm3s811/TI_Stellaris/driverlib/uart.c **** //*****************************************************************************
 863:/home/cuil/workspace/arm/lm3s811/TI_Stellaris/driverlib/uart.c **** //
 864:/home/cuil/workspace/arm/lm3s811/TI_Stellaris/driverlib/uart.c **** //! Gets the states of the RI, DCD, DSR and CTS modem status signals.
 865:/home/cuil/workspace/arm/lm3s811/TI_Stellaris/driverlib/uart.c **** //!
 866:/home/cuil/workspace/arm/lm3s811/TI_Stellaris/driverlib/uart.c **** //! \param ulBase is the base address of the UART port.
 867:/home/cuil/workspace/arm/lm3s811/TI_Stellaris/driverlib/uart.c **** //!
 868:/home/cuil/workspace/arm/lm3s811/TI_Stellaris/driverlib/uart.c **** //! This function returns the current states of each of the four UART modem
 869:/home/cuil/workspace/arm/lm3s811/TI_Stellaris/driverlib/uart.c **** //! status signals, RI, DCD, DSR and CTS.
 870:/home/cuil/workspace/arm/lm3s811/TI_Stellaris/driverlib/uart.c **** //!
 871:/home/cuil/workspace/arm/lm3s811/TI_Stellaris/driverlib/uart.c **** //! \note The availability of hardware modem handshake signals varies with the
 872:/home/cuil/workspace/arm/lm3s811/TI_Stellaris/driverlib/uart.c **** //! Stellaris part and UART in use.  Please consult the datasheet for the part
 873:/home/cuil/workspace/arm/lm3s811/TI_Stellaris/driverlib/uart.c **** //! you are using to determine whether this support is available.
 874:/home/cuil/workspace/arm/lm3s811/TI_Stellaris/driverlib/uart.c **** //!
 875:/home/cuil/workspace/arm/lm3s811/TI_Stellaris/driverlib/uart.c **** //! \return Returns the states of the handshake output signals.  This value
 876:/home/cuil/workspace/arm/lm3s811/TI_Stellaris/driverlib/uart.c **** //! is a logical OR combination of values \b UART_INPUT_RI,
 877:/home/cuil/workspace/arm/lm3s811/TI_Stellaris/driverlib/uart.c **** //! \b UART_INPUT_DCD, \b UART_INPUT_CTS and \b UART_INPUT_DSR where the
 878:/home/cuil/workspace/arm/lm3s811/TI_Stellaris/driverlib/uart.c **** //! presence of each flag indicates that the associated signal is asserted.
 879:/home/cuil/workspace/arm/lm3s811/TI_Stellaris/driverlib/uart.c **** //
 880:/home/cuil/workspace/arm/lm3s811/TI_Stellaris/driverlib/uart.c **** //*****************************************************************************
 881:/home/cuil/workspace/arm/lm3s811/TI_Stellaris/driverlib/uart.c **** unsigned long
 882:/home/cuil/workspace/arm/lm3s811/TI_Stellaris/driverlib/uart.c **** UARTModemStatusGet(unsigned long ulBase)
 883:/home/cuil/workspace/arm/lm3s811/TI_Stellaris/driverlib/uart.c **** {
 10594              		.loc 1 883 0
 10595              		.cfi_startproc
 10596              		@ args = 0, pretend = 0, frame = 8
 10597              		@ frame_needed = 1, uses_anonymous_args = 0
 10598              		@ link register save eliminated.
 10599 0000 80B4     		push	{r7}
 10600              	.LCFI54:
 10601              		.cfi_def_cfa_offset 4
 10602 0002 83B0     		sub	sp, sp, #12
 10603              	.LCFI55:
 10604              		.cfi_def_cfa_offset 16
 10605 0004 00AF     		add	r7, sp, #0
 10606              		.cfi_offset 7, -4
 10607              	.LCFI56:
 10608              		.cfi_def_cfa_register 7
 10609 0006 7860     		str	r0, [r7, #4]
 884:/home/cuil/workspace/arm/lm3s811/TI_Stellaris/driverlib/uart.c ****     //
 885:/home/cuil/workspace/arm/lm3s811/TI_Stellaris/driverlib/uart.c ****     // Check the arguments.
 886:/home/cuil/workspace/arm/lm3s811/TI_Stellaris/driverlib/uart.c ****     //
 887:/home/cuil/workspace/arm/lm3s811/TI_Stellaris/driverlib/uart.c ****     ASSERT(!CLASS_IS_SANDSTORM && !CLASS_IS_FURY && !CLASS_IS_DUSTDEVIL);
 888:/home/cuil/workspace/arm/lm3s811/TI_Stellaris/driverlib/uart.c ****     ASSERT(ulBase == UART1_BASE);
 889:/home/cuil/workspace/arm/lm3s811/TI_Stellaris/driverlib/uart.c **** 
 890:/home/cuil/workspace/arm/lm3s811/TI_Stellaris/driverlib/uart.c ****     return(HWREG(ulBase + UART_O_FR) & (UART_INPUT_RI | UART_INPUT_DCD |
 10610              		.loc 1 890 0
 10611 0008 7B68     		ldr	r3, [r7, #4]
 10612 000a 03F11803 		add	r3, r3, #24
 10613 000e 1A68     		ldr	r2, [r3, #0]
 10614 0010 40F20713 		movw	r3, #263
 10615 0014 02EA0303 		and	r3, r2, r3
 891:/home/cuil/workspace/arm/lm3s811/TI_Stellaris/driverlib/uart.c ****            UART_INPUT_CTS | UART_INPUT_DSR));
 892:/home/cuil/workspace/arm/lm3s811/TI_Stellaris/driverlib/uart.c **** }
 10616              		.loc 1 892 0
 10617 0018 1846     		mov	r0, r3
 10618 001a 07F10C07 		add	r7, r7, #12
 10619 001e BD46     		mov	sp, r7
 10620 0020 80BC     		pop	{r7}
 10621 0022 7047     		bx	lr
 10622              		.cfi_endproc
 10623              	.LFE18:
 10625              		.section	.text.UARTFlowControlSet,"ax",%progbits
 10626              		.align	2
 10627              		.global	UARTFlowControlSet
 10628              		.thumb
 10629              		.thumb_func
 10631              	UARTFlowControlSet:
 10632              	.LFB19:
 893:/home/cuil/workspace/arm/lm3s811/TI_Stellaris/driverlib/uart.c **** 
 894:/home/cuil/workspace/arm/lm3s811/TI_Stellaris/driverlib/uart.c **** //*****************************************************************************
 895:/home/cuil/workspace/arm/lm3s811/TI_Stellaris/driverlib/uart.c **** //
 896:/home/cuil/workspace/arm/lm3s811/TI_Stellaris/driverlib/uart.c **** //! Sets the UART hardware flow control mode to be used.
 897:/home/cuil/workspace/arm/lm3s811/TI_Stellaris/driverlib/uart.c **** //!
 898:/home/cuil/workspace/arm/lm3s811/TI_Stellaris/driverlib/uart.c **** //! \param ulBase is the base address of the UART port.
 899:/home/cuil/workspace/arm/lm3s811/TI_Stellaris/driverlib/uart.c **** //! \param ulMode indicates the flow control modes to be used.  This parameter
 900:/home/cuil/workspace/arm/lm3s811/TI_Stellaris/driverlib/uart.c **** //! is a logical OR combination of values \b UART_FLOWCONTROL_TX and
 901:/home/cuil/workspace/arm/lm3s811/TI_Stellaris/driverlib/uart.c **** //! \b UART_FLOWCONTROL_RX to enable hardware transmit (CTS) and receive (RTS)
 902:/home/cuil/workspace/arm/lm3s811/TI_Stellaris/driverlib/uart.c **** //! flow control or \b UART_FLOWCONTROL_NONE to disable hardware flow control.
 903:/home/cuil/workspace/arm/lm3s811/TI_Stellaris/driverlib/uart.c **** //!
 904:/home/cuil/workspace/arm/lm3s811/TI_Stellaris/driverlib/uart.c **** //! This function configures the required hardware flow control modes.  If 
 905:/home/cuil/workspace/arm/lm3s811/TI_Stellaris/driverlib/uart.c **** //! \e ulMode contains flag \b UART_FLOWCONTROL_TX, data is only transmitted
 906:/home/cuil/workspace/arm/lm3s811/TI_Stellaris/driverlib/uart.c **** //! if the incoming CTS signal is asserted. If \e ulMode contains flag
 907:/home/cuil/workspace/arm/lm3s811/TI_Stellaris/driverlib/uart.c **** //! \b UART_FLOWCONTROL_RX, the RTS output is controlled by the hardware and is
 908:/home/cuil/workspace/arm/lm3s811/TI_Stellaris/driverlib/uart.c **** //! asserted only when there is space available in the receive FIFO.  If no
 909:/home/cuil/workspace/arm/lm3s811/TI_Stellaris/driverlib/uart.c **** //! hardware flow control is required, \b UART_FLOWCONTROL_NONE should be
 910:/home/cuil/workspace/arm/lm3s811/TI_Stellaris/driverlib/uart.c **** //! passed.
 911:/home/cuil/workspace/arm/lm3s811/TI_Stellaris/driverlib/uart.c **** //!
 912:/home/cuil/workspace/arm/lm3s811/TI_Stellaris/driverlib/uart.c **** //! \note The availability of hardware flow control varies with the Stellaris
 913:/home/cuil/workspace/arm/lm3s811/TI_Stellaris/driverlib/uart.c **** //! part and UART in use.  Please consult the datasheet for the part you are
 914:/home/cuil/workspace/arm/lm3s811/TI_Stellaris/driverlib/uart.c **** //! using to determine whether this support is available.
 915:/home/cuil/workspace/arm/lm3s811/TI_Stellaris/driverlib/uart.c **** //!
 916:/home/cuil/workspace/arm/lm3s811/TI_Stellaris/driverlib/uart.c **** //! \return None.
 917:/home/cuil/workspace/arm/lm3s811/TI_Stellaris/driverlib/uart.c **** //
 918:/home/cuil/workspace/arm/lm3s811/TI_Stellaris/driverlib/uart.c **** //*****************************************************************************
 919:/home/cuil/workspace/arm/lm3s811/TI_Stellaris/driverlib/uart.c **** void
 920:/home/cuil/workspace/arm/lm3s811/TI_Stellaris/driverlib/uart.c **** UARTFlowControlSet(unsigned long ulBase, unsigned long ulMode)
 921:/home/cuil/workspace/arm/lm3s811/TI_Stellaris/driverlib/uart.c **** {
 10633              		.loc 1 921 0
 10634              		.cfi_startproc
 10635              		@ args = 0, pretend = 0, frame = 8
 10636              		@ frame_needed = 1, uses_anonymous_args = 0
 10637              		@ link register save eliminated.
 10638 0000 80B4     		push	{r7}
 10639              	.LCFI57:
 10640              		.cfi_def_cfa_offset 4
 10641 0002 83B0     		sub	sp, sp, #12
 10642              	.LCFI58:
 10643              		.cfi_def_cfa_offset 16
 10644 0004 00AF     		add	r7, sp, #0
 10645              		.cfi_offset 7, -4
 10646              	.LCFI59:
 10647              		.cfi_def_cfa_register 7
 10648 0006 7860     		str	r0, [r7, #4]
 10649 0008 3960     		str	r1, [r7, #0]
 922:/home/cuil/workspace/arm/lm3s811/TI_Stellaris/driverlib/uart.c ****     //
 923:/home/cuil/workspace/arm/lm3s811/TI_Stellaris/driverlib/uart.c ****     // Check the arguments.
 924:/home/cuil/workspace/arm/lm3s811/TI_Stellaris/driverlib/uart.c ****     //
 925:/home/cuil/workspace/arm/lm3s811/TI_Stellaris/driverlib/uart.c ****     ASSERT(!CLASS_IS_SANDSTORM && !CLASS_IS_FURY && !CLASS_IS_DUSTDEVIL);
 926:/home/cuil/workspace/arm/lm3s811/TI_Stellaris/driverlib/uart.c ****     ASSERT(UARTBaseValid(ulBase));
 927:/home/cuil/workspace/arm/lm3s811/TI_Stellaris/driverlib/uart.c ****     ASSERT((ulMode & ~(UART_FLOWCONTROL_TX | UART_FLOWCONTROL_RX)) == 0);
 928:/home/cuil/workspace/arm/lm3s811/TI_Stellaris/driverlib/uart.c **** 
 929:/home/cuil/workspace/arm/lm3s811/TI_Stellaris/driverlib/uart.c ****     //
 930:/home/cuil/workspace/arm/lm3s811/TI_Stellaris/driverlib/uart.c ****     // Set the flow control mode as requested.
 931:/home/cuil/workspace/arm/lm3s811/TI_Stellaris/driverlib/uart.c ****     //
 932:/home/cuil/workspace/arm/lm3s811/TI_Stellaris/driverlib/uart.c ****     HWREG(ulBase + UART_O_CTL) = ((HWREG(ulBase + UART_O_CTL) &
 10650              		.loc 1 932 0
 10651 000a 7B68     		ldr	r3, [r7, #4]
 10652 000c 03F13003 		add	r3, r3, #48
 10653 0010 7A68     		ldr	r2, [r7, #4]
 10654 0012 02F13002 		add	r2, r2, #48
 10655 0016 1268     		ldr	r2, [r2, #0]
 10656 0018 22F44041 		bic	r1, r2, #49152
 933:/home/cuil/workspace/arm/lm3s811/TI_Stellaris/driverlib/uart.c ****                                  ~(UART_FLOWCONTROL_TX |
 934:/home/cuil/workspace/arm/lm3s811/TI_Stellaris/driverlib/uart.c ****                                    UART_FLOWCONTROL_RX)) | ulMode);
 10657              		.loc 1 934 0
 10658 001c 3A68     		ldr	r2, [r7, #0]
 10659 001e 41EA0202 		orr	r2, r1, r2
 932:/home/cuil/workspace/arm/lm3s811/TI_Stellaris/driverlib/uart.c ****     HWREG(ulBase + UART_O_CTL) = ((HWREG(ulBase + UART_O_CTL) &
 10660              		.loc 1 932 0
 10661 0022 1A60     		str	r2, [r3, #0]
 935:/home/cuil/workspace/arm/lm3s811/TI_Stellaris/driverlib/uart.c **** }
 10662              		.loc 1 935 0
 10663 0024 07F10C07 		add	r7, r7, #12
 10664 0028 BD46     		mov	sp, r7
 10665 002a 80BC     		pop	{r7}
 10666 002c 7047     		bx	lr
 10667              		.cfi_endproc
 10668              	.LFE19:
 10670 002e 00BF     		.section	.text.UARTFlowControlGet,"ax",%progbits
 10671              		.align	2
 10672              		.global	UARTFlowControlGet
 10673              		.thumb
 10674              		.thumb_func
 10676              	UARTFlowControlGet:
 10677              	.LFB20:
 936:/home/cuil/workspace/arm/lm3s811/TI_Stellaris/driverlib/uart.c **** 
 937:/home/cuil/workspace/arm/lm3s811/TI_Stellaris/driverlib/uart.c **** //*****************************************************************************
 938:/home/cuil/workspace/arm/lm3s811/TI_Stellaris/driverlib/uart.c **** //
 939:/home/cuil/workspace/arm/lm3s811/TI_Stellaris/driverlib/uart.c **** //! Returns the UART hardware flow control mode currently in use.
 940:/home/cuil/workspace/arm/lm3s811/TI_Stellaris/driverlib/uart.c **** //!
 941:/home/cuil/workspace/arm/lm3s811/TI_Stellaris/driverlib/uart.c **** //! \param ulBase is the base address of the UART port.
 942:/home/cuil/workspace/arm/lm3s811/TI_Stellaris/driverlib/uart.c **** //!
 943:/home/cuil/workspace/arm/lm3s811/TI_Stellaris/driverlib/uart.c **** //! This function returns the current hardware flow control mode.
 944:/home/cuil/workspace/arm/lm3s811/TI_Stellaris/driverlib/uart.c **** //!
 945:/home/cuil/workspace/arm/lm3s811/TI_Stellaris/driverlib/uart.c **** //! \note The availability of hardware flow control varies with the Stellaris
 946:/home/cuil/workspace/arm/lm3s811/TI_Stellaris/driverlib/uart.c **** //! part and UART in use.  Please consult the datasheet for the part you are
 947:/home/cuil/workspace/arm/lm3s811/TI_Stellaris/driverlib/uart.c **** //! using to determine whether this support is available.
 948:/home/cuil/workspace/arm/lm3s811/TI_Stellaris/driverlib/uart.c **** //!
 949:/home/cuil/workspace/arm/lm3s811/TI_Stellaris/driverlib/uart.c **** //! \return Returns the current flow control mode in use.  This value is a
 950:/home/cuil/workspace/arm/lm3s811/TI_Stellaris/driverlib/uart.c **** //! logical OR combination of values \b UART_FLOWCONTROL_TX if transmit
 951:/home/cuil/workspace/arm/lm3s811/TI_Stellaris/driverlib/uart.c **** //! (CTS) flow control is enabled and \b UART_FLOWCONTROL_RX if receive (RTS)
 952:/home/cuil/workspace/arm/lm3s811/TI_Stellaris/driverlib/uart.c **** //! flow control is in use.  If hardware flow control is disabled,
 953:/home/cuil/workspace/arm/lm3s811/TI_Stellaris/driverlib/uart.c **** //! \b UART_FLOWCONTROL_NONE is returned.
 954:/home/cuil/workspace/arm/lm3s811/TI_Stellaris/driverlib/uart.c **** //
 955:/home/cuil/workspace/arm/lm3s811/TI_Stellaris/driverlib/uart.c **** //*****************************************************************************
 956:/home/cuil/workspace/arm/lm3s811/TI_Stellaris/driverlib/uart.c **** unsigned long
 957:/home/cuil/workspace/arm/lm3s811/TI_Stellaris/driverlib/uart.c **** UARTFlowControlGet(unsigned long ulBase)
 958:/home/cuil/workspace/arm/lm3s811/TI_Stellaris/driverlib/uart.c **** {
 10678              		.loc 1 958 0
 10679              		.cfi_startproc
 10680              		@ args = 0, pretend = 0, frame = 8
 10681              		@ frame_needed = 1, uses_anonymous_args = 0
 10682              		@ link register save eliminated.
 10683 0000 80B4     		push	{r7}
 10684              	.LCFI60:
 10685              		.cfi_def_cfa_offset 4
 10686 0002 83B0     		sub	sp, sp, #12
 10687              	.LCFI61:
 10688              		.cfi_def_cfa_offset 16
 10689 0004 00AF     		add	r7, sp, #0
 10690              		.cfi_offset 7, -4
 10691              	.LCFI62:
 10692              		.cfi_def_cfa_register 7
 10693 0006 7860     		str	r0, [r7, #4]
 959:/home/cuil/workspace/arm/lm3s811/TI_Stellaris/driverlib/uart.c ****     //
 960:/home/cuil/workspace/arm/lm3s811/TI_Stellaris/driverlib/uart.c ****     // Check the arguments.
 961:/home/cuil/workspace/arm/lm3s811/TI_Stellaris/driverlib/uart.c ****     //
 962:/home/cuil/workspace/arm/lm3s811/TI_Stellaris/driverlib/uart.c ****     ASSERT(!CLASS_IS_SANDSTORM && !CLASS_IS_FURY && !CLASS_IS_DUSTDEVIL);
 963:/home/cuil/workspace/arm/lm3s811/TI_Stellaris/driverlib/uart.c ****     ASSERT(UARTBaseValid(ulBase));
 964:/home/cuil/workspace/arm/lm3s811/TI_Stellaris/driverlib/uart.c **** 
 965:/home/cuil/workspace/arm/lm3s811/TI_Stellaris/driverlib/uart.c ****     return(HWREG(ulBase + UART_O_CTL) & (UART_FLOWCONTROL_TX |
 10694              		.loc 1 965 0
 10695 0008 7B68     		ldr	r3, [r7, #4]
 10696 000a 03F13003 		add	r3, r3, #48
 10697 000e 1B68     		ldr	r3, [r3, #0]
 10698 0010 03F44043 		and	r3, r3, #49152
 966:/home/cuil/workspace/arm/lm3s811/TI_Stellaris/driverlib/uart.c ****                                          UART_FLOWCONTROL_RX));
 967:/home/cuil/workspace/arm/lm3s811/TI_Stellaris/driverlib/uart.c **** }
 10699              		.loc 1 967 0
 10700 0014 1846     		mov	r0, r3
 10701 0016 07F10C07 		add	r7, r7, #12
 10702 001a BD46     		mov	sp, r7
 10703 001c 80BC     		pop	{r7}
 10704 001e 7047     		bx	lr
 10705              		.cfi_endproc
 10706              	.LFE20:
 10708              		.section	.text.UARTTxIntModeSet,"ax",%progbits
 10709              		.align	2
 10710              		.global	UARTTxIntModeSet
 10711              		.thumb
 10712              		.thumb_func
 10714              	UARTTxIntModeSet:
 10715              	.LFB21:
 968:/home/cuil/workspace/arm/lm3s811/TI_Stellaris/driverlib/uart.c **** 
 969:/home/cuil/workspace/arm/lm3s811/TI_Stellaris/driverlib/uart.c **** //*****************************************************************************
 970:/home/cuil/workspace/arm/lm3s811/TI_Stellaris/driverlib/uart.c **** //
 971:/home/cuil/workspace/arm/lm3s811/TI_Stellaris/driverlib/uart.c **** //! Sets the operating mode for the UART transmit interrupt.
 972:/home/cuil/workspace/arm/lm3s811/TI_Stellaris/driverlib/uart.c **** //!
 973:/home/cuil/workspace/arm/lm3s811/TI_Stellaris/driverlib/uart.c **** //! \param ulBase is the base address of the UART port.
 974:/home/cuil/workspace/arm/lm3s811/TI_Stellaris/driverlib/uart.c **** //! \param ulMode is the operating mode for the transmit interrupt.  It may be
 975:/home/cuil/workspace/arm/lm3s811/TI_Stellaris/driverlib/uart.c **** //! \b UART_TXINT_MODE_EOT to trigger interrupts when the transmitter is idle
 976:/home/cuil/workspace/arm/lm3s811/TI_Stellaris/driverlib/uart.c **** //! or \b UART_TXINT_MODE_FIFO to trigger based on the current transmit FIFO
 977:/home/cuil/workspace/arm/lm3s811/TI_Stellaris/driverlib/uart.c **** //! level.
 978:/home/cuil/workspace/arm/lm3s811/TI_Stellaris/driverlib/uart.c **** //!
 979:/home/cuil/workspace/arm/lm3s811/TI_Stellaris/driverlib/uart.c **** //! This function allows the mode of the UART transmit interrupt to be set.  By
 980:/home/cuil/workspace/arm/lm3s811/TI_Stellaris/driverlib/uart.c **** //! default, the transmit interrupt is asserted when the FIFO level falls past
 981:/home/cuil/workspace/arm/lm3s811/TI_Stellaris/driverlib/uart.c **** //! a threshold set via a call to UARTFIFOLevelSet().  Alternatively, if this
 982:/home/cuil/workspace/arm/lm3s811/TI_Stellaris/driverlib/uart.c **** //! function is called with \e ulMode set to \b UART_TXINT_MODE_EOT, the
 983:/home/cuil/workspace/arm/lm3s811/TI_Stellaris/driverlib/uart.c **** //! transmit interrupt is asserted once the transmitter is completely idle -
 984:/home/cuil/workspace/arm/lm3s811/TI_Stellaris/driverlib/uart.c **** //! the transmit FIFO is empty and all bits, including any stop bits, have
 985:/home/cuil/workspace/arm/lm3s811/TI_Stellaris/driverlib/uart.c **** //! cleared the transmitter.
 986:/home/cuil/workspace/arm/lm3s811/TI_Stellaris/driverlib/uart.c **** //!
 987:/home/cuil/workspace/arm/lm3s811/TI_Stellaris/driverlib/uart.c **** //! \note The availability of end-of-transmission mode varies with the
 988:/home/cuil/workspace/arm/lm3s811/TI_Stellaris/driverlib/uart.c **** //! Stellaris part in use.  Please consult the datasheet for the part you are
 989:/home/cuil/workspace/arm/lm3s811/TI_Stellaris/driverlib/uart.c **** //! using to determine whether this support is available.
 990:/home/cuil/workspace/arm/lm3s811/TI_Stellaris/driverlib/uart.c **** //!
 991:/home/cuil/workspace/arm/lm3s811/TI_Stellaris/driverlib/uart.c **** //! \return None.
 992:/home/cuil/workspace/arm/lm3s811/TI_Stellaris/driverlib/uart.c **** //
 993:/home/cuil/workspace/arm/lm3s811/TI_Stellaris/driverlib/uart.c **** //*****************************************************************************
 994:/home/cuil/workspace/arm/lm3s811/TI_Stellaris/driverlib/uart.c **** void
 995:/home/cuil/workspace/arm/lm3s811/TI_Stellaris/driverlib/uart.c **** UARTTxIntModeSet(unsigned long ulBase, unsigned long ulMode)
 996:/home/cuil/workspace/arm/lm3s811/TI_Stellaris/driverlib/uart.c **** {
 10716              		.loc 1 996 0
 10717              		.cfi_startproc
 10718              		@ args = 0, pretend = 0, frame = 8
 10719              		@ frame_needed = 1, uses_anonymous_args = 0
 10720              		@ link register save eliminated.
 10721 0000 80B4     		push	{r7}
 10722              	.LCFI63:
 10723              		.cfi_def_cfa_offset 4
 10724 0002 83B0     		sub	sp, sp, #12
 10725              	.LCFI64:
 10726              		.cfi_def_cfa_offset 16
 10727 0004 00AF     		add	r7, sp, #0
 10728              		.cfi_offset 7, -4
 10729              	.LCFI65:
 10730              		.cfi_def_cfa_register 7
 10731 0006 7860     		str	r0, [r7, #4]
 10732 0008 3960     		str	r1, [r7, #0]
 997:/home/cuil/workspace/arm/lm3s811/TI_Stellaris/driverlib/uart.c ****     //
 998:/home/cuil/workspace/arm/lm3s811/TI_Stellaris/driverlib/uart.c ****     // Check the arguments.
 999:/home/cuil/workspace/arm/lm3s811/TI_Stellaris/driverlib/uart.c ****     //
1000:/home/cuil/workspace/arm/lm3s811/TI_Stellaris/driverlib/uart.c ****     ASSERT(UARTBaseValid(ulBase));
1001:/home/cuil/workspace/arm/lm3s811/TI_Stellaris/driverlib/uart.c ****     ASSERT((ulMode == UART_TXINT_MODE_EOT) ||
1002:/home/cuil/workspace/arm/lm3s811/TI_Stellaris/driverlib/uart.c ****            (ulMode == UART_TXINT_MODE_FIFO));
1003:/home/cuil/workspace/arm/lm3s811/TI_Stellaris/driverlib/uart.c **** 
1004:/home/cuil/workspace/arm/lm3s811/TI_Stellaris/driverlib/uart.c ****     //
1005:/home/cuil/workspace/arm/lm3s811/TI_Stellaris/driverlib/uart.c ****     // Set or clear the EOT bit of the UART control register as appropriate.
1006:/home/cuil/workspace/arm/lm3s811/TI_Stellaris/driverlib/uart.c ****     //
1007:/home/cuil/workspace/arm/lm3s811/TI_Stellaris/driverlib/uart.c ****     HWREG(ulBase + UART_O_CTL) = ((HWREG(ulBase + UART_O_CTL) &
 10733              		.loc 1 1007 0
 10734 000a 7B68     		ldr	r3, [r7, #4]
 10735 000c 03F13003 		add	r3, r3, #48
 10736 0010 7A68     		ldr	r2, [r7, #4]
 10737 0012 02F13002 		add	r2, r2, #48
 10738 0016 1268     		ldr	r2, [r2, #0]
 10739 0018 22F01001 		bic	r1, r2, #16
1008:/home/cuil/workspace/arm/lm3s811/TI_Stellaris/driverlib/uart.c ****                                  ~(UART_TXINT_MODE_EOT |
1009:/home/cuil/workspace/arm/lm3s811/TI_Stellaris/driverlib/uart.c ****                                    UART_TXINT_MODE_FIFO)) | ulMode);
 10740              		.loc 1 1009 0
 10741 001c 3A68     		ldr	r2, [r7, #0]
 10742 001e 41EA0202 		orr	r2, r1, r2
1007:/home/cuil/workspace/arm/lm3s811/TI_Stellaris/driverlib/uart.c ****     HWREG(ulBase + UART_O_CTL) = ((HWREG(ulBase + UART_O_CTL) &
 10743              		.loc 1 1007 0
 10744 0022 1A60     		str	r2, [r3, #0]
1010:/home/cuil/workspace/arm/lm3s811/TI_Stellaris/driverlib/uart.c **** }
 10745              		.loc 1 1010 0
 10746 0024 07F10C07 		add	r7, r7, #12
 10747 0028 BD46     		mov	sp, r7
 10748 002a 80BC     		pop	{r7}
 10749 002c 7047     		bx	lr
 10750              		.cfi_endproc
 10751              	.LFE21:
 10753 002e 00BF     		.section	.text.UARTTxIntModeGet,"ax",%progbits
 10754              		.align	2
 10755              		.global	UARTTxIntModeGet
 10756              		.thumb
 10757              		.thumb_func
 10759              	UARTTxIntModeGet:
 10760              	.LFB22:
1011:/home/cuil/workspace/arm/lm3s811/TI_Stellaris/driverlib/uart.c **** 
1012:/home/cuil/workspace/arm/lm3s811/TI_Stellaris/driverlib/uart.c **** //*****************************************************************************
1013:/home/cuil/workspace/arm/lm3s811/TI_Stellaris/driverlib/uart.c **** //
1014:/home/cuil/workspace/arm/lm3s811/TI_Stellaris/driverlib/uart.c **** //! Returns the current operating mode for the UART transmit interrupt.
1015:/home/cuil/workspace/arm/lm3s811/TI_Stellaris/driverlib/uart.c **** //!
1016:/home/cuil/workspace/arm/lm3s811/TI_Stellaris/driverlib/uart.c **** //! \param ulBase is the base address of the UART port.
1017:/home/cuil/workspace/arm/lm3s811/TI_Stellaris/driverlib/uart.c **** //!
1018:/home/cuil/workspace/arm/lm3s811/TI_Stellaris/driverlib/uart.c **** //! This function returns the current operating mode for the UART transmit
1019:/home/cuil/workspace/arm/lm3s811/TI_Stellaris/driverlib/uart.c **** //! interrupt.  The return value is \b UART_TXINT_MODE_EOT if the transmit
1020:/home/cuil/workspace/arm/lm3s811/TI_Stellaris/driverlib/uart.c **** //! interrupt is currently configured to be asserted once the transmitter is
1021:/home/cuil/workspace/arm/lm3s811/TI_Stellaris/driverlib/uart.c **** //! completely idle - the transmit FIFO is empty and all bits, including any
1022:/home/cuil/workspace/arm/lm3s811/TI_Stellaris/driverlib/uart.c **** //! stop bits, have cleared the transmitter.  The return value is
1023:/home/cuil/workspace/arm/lm3s811/TI_Stellaris/driverlib/uart.c **** //! \b UART_TXINT_MODE_FIFO if the interrupt is configured to be asserted based 
1024:/home/cuil/workspace/arm/lm3s811/TI_Stellaris/driverlib/uart.c **** //! on the level of the transmit FIFO.
1025:/home/cuil/workspace/arm/lm3s811/TI_Stellaris/driverlib/uart.c **** //!
1026:/home/cuil/workspace/arm/lm3s811/TI_Stellaris/driverlib/uart.c **** //! \note The availability of end-of-transmission mode varies with the
1027:/home/cuil/workspace/arm/lm3s811/TI_Stellaris/driverlib/uart.c **** //! Stellaris part in use.  Please consult the datasheet for the part you are
1028:/home/cuil/workspace/arm/lm3s811/TI_Stellaris/driverlib/uart.c **** //! using to determine whether this support is available.
1029:/home/cuil/workspace/arm/lm3s811/TI_Stellaris/driverlib/uart.c **** //!
1030:/home/cuil/workspace/arm/lm3s811/TI_Stellaris/driverlib/uart.c **** //! \return Returns \b UART_TXINT_MODE_FIFO or \b UART_TXINT_MODE_EOT.
1031:/home/cuil/workspace/arm/lm3s811/TI_Stellaris/driverlib/uart.c **** //
1032:/home/cuil/workspace/arm/lm3s811/TI_Stellaris/driverlib/uart.c **** //*****************************************************************************
1033:/home/cuil/workspace/arm/lm3s811/TI_Stellaris/driverlib/uart.c **** unsigned long
1034:/home/cuil/workspace/arm/lm3s811/TI_Stellaris/driverlib/uart.c **** UARTTxIntModeGet(unsigned long ulBase)
1035:/home/cuil/workspace/arm/lm3s811/TI_Stellaris/driverlib/uart.c **** {
 10761              		.loc 1 1035 0
 10762              		.cfi_startproc
 10763              		@ args = 0, pretend = 0, frame = 8
 10764              		@ frame_needed = 1, uses_anonymous_args = 0
 10765              		@ link register save eliminated.
 10766 0000 80B4     		push	{r7}
 10767              	.LCFI66:
 10768              		.cfi_def_cfa_offset 4
 10769 0002 83B0     		sub	sp, sp, #12
 10770              	.LCFI67:
 10771              		.cfi_def_cfa_offset 16
 10772 0004 00AF     		add	r7, sp, #0
 10773              		.cfi_offset 7, -4
 10774              	.LCFI68:
 10775              		.cfi_def_cfa_register 7
 10776 0006 7860     		str	r0, [r7, #4]
1036:/home/cuil/workspace/arm/lm3s811/TI_Stellaris/driverlib/uart.c ****     //
1037:/home/cuil/workspace/arm/lm3s811/TI_Stellaris/driverlib/uart.c ****     // Check the arguments.
1038:/home/cuil/workspace/arm/lm3s811/TI_Stellaris/driverlib/uart.c ****     //
1039:/home/cuil/workspace/arm/lm3s811/TI_Stellaris/driverlib/uart.c ****     ASSERT(UARTBaseValid(ulBase));
1040:/home/cuil/workspace/arm/lm3s811/TI_Stellaris/driverlib/uart.c **** 
1041:/home/cuil/workspace/arm/lm3s811/TI_Stellaris/driverlib/uart.c ****     //
1042:/home/cuil/workspace/arm/lm3s811/TI_Stellaris/driverlib/uart.c ****     // Return the current transmit interrupt mode.
1043:/home/cuil/workspace/arm/lm3s811/TI_Stellaris/driverlib/uart.c ****     //
1044:/home/cuil/workspace/arm/lm3s811/TI_Stellaris/driverlib/uart.c ****     return(HWREG(ulBase + UART_O_CTL) & (UART_TXINT_MODE_EOT |
 10777              		.loc 1 1044 0
 10778 0008 7B68     		ldr	r3, [r7, #4]
 10779 000a 03F13003 		add	r3, r3, #48
 10780 000e 1B68     		ldr	r3, [r3, #0]
 10781 0010 03F01003 		and	r3, r3, #16
1045:/home/cuil/workspace/arm/lm3s811/TI_Stellaris/driverlib/uart.c ****                                          UART_TXINT_MODE_FIFO));
1046:/home/cuil/workspace/arm/lm3s811/TI_Stellaris/driverlib/uart.c **** }
 10782              		.loc 1 1046 0
 10783 0014 1846     		mov	r0, r3
 10784 0016 07F10C07 		add	r7, r7, #12
 10785 001a BD46     		mov	sp, r7
 10786 001c 80BC     		pop	{r7}
 10787 001e 7047     		bx	lr
 10788              		.cfi_endproc
 10789              	.LFE22:
 10791              		.section	.text.UARTCharsAvail,"ax",%progbits
 10792              		.align	2
 10793              		.global	UARTCharsAvail
 10794              		.thumb
 10795              		.thumb_func
 10797              	UARTCharsAvail:
 10798              	.LFB23:
1047:/home/cuil/workspace/arm/lm3s811/TI_Stellaris/driverlib/uart.c **** 
1048:/home/cuil/workspace/arm/lm3s811/TI_Stellaris/driverlib/uart.c **** //*****************************************************************************
1049:/home/cuil/workspace/arm/lm3s811/TI_Stellaris/driverlib/uart.c **** //
1050:/home/cuil/workspace/arm/lm3s811/TI_Stellaris/driverlib/uart.c **** //! Determines if there are any characters in the receive FIFO.
1051:/home/cuil/workspace/arm/lm3s811/TI_Stellaris/driverlib/uart.c **** //!
1052:/home/cuil/workspace/arm/lm3s811/TI_Stellaris/driverlib/uart.c **** //! \param ulBase is the base address of the UART port.
1053:/home/cuil/workspace/arm/lm3s811/TI_Stellaris/driverlib/uart.c **** //!
1054:/home/cuil/workspace/arm/lm3s811/TI_Stellaris/driverlib/uart.c **** //! This function returns a flag indicating whether or not there is data
1055:/home/cuil/workspace/arm/lm3s811/TI_Stellaris/driverlib/uart.c **** //! available in the receive FIFO.
1056:/home/cuil/workspace/arm/lm3s811/TI_Stellaris/driverlib/uart.c **** //!
1057:/home/cuil/workspace/arm/lm3s811/TI_Stellaris/driverlib/uart.c **** //! \return Returns \b true if there is data in the receive FIFO or \b false
1058:/home/cuil/workspace/arm/lm3s811/TI_Stellaris/driverlib/uart.c **** //! if there is no data in the receive FIFO.
1059:/home/cuil/workspace/arm/lm3s811/TI_Stellaris/driverlib/uart.c **** //
1060:/home/cuil/workspace/arm/lm3s811/TI_Stellaris/driverlib/uart.c **** //*****************************************************************************
1061:/home/cuil/workspace/arm/lm3s811/TI_Stellaris/driverlib/uart.c **** tBoolean
1062:/home/cuil/workspace/arm/lm3s811/TI_Stellaris/driverlib/uart.c **** UARTCharsAvail(unsigned long ulBase)
1063:/home/cuil/workspace/arm/lm3s811/TI_Stellaris/driverlib/uart.c **** {
 10799              		.loc 1 1063 0
 10800              		.cfi_startproc
 10801              		@ args = 0, pretend = 0, frame = 8
 10802              		@ frame_needed = 1, uses_anonymous_args = 0
 10803              		@ link register save eliminated.
 10804 0000 80B4     		push	{r7}
 10805              	.LCFI69:
 10806              		.cfi_def_cfa_offset 4
 10807 0002 83B0     		sub	sp, sp, #12
 10808              	.LCFI70:
 10809              		.cfi_def_cfa_offset 16
 10810 0004 00AF     		add	r7, sp, #0
 10811              		.cfi_offset 7, -4
 10812              	.LCFI71:
 10813              		.cfi_def_cfa_register 7
 10814 0006 7860     		str	r0, [r7, #4]
1064:/home/cuil/workspace/arm/lm3s811/TI_Stellaris/driverlib/uart.c ****     //
1065:/home/cuil/workspace/arm/lm3s811/TI_Stellaris/driverlib/uart.c ****     // Check the arguments.
1066:/home/cuil/workspace/arm/lm3s811/TI_Stellaris/driverlib/uart.c ****     //
1067:/home/cuil/workspace/arm/lm3s811/TI_Stellaris/driverlib/uart.c ****     ASSERT(UARTBaseValid(ulBase));
1068:/home/cuil/workspace/arm/lm3s811/TI_Stellaris/driverlib/uart.c **** 
1069:/home/cuil/workspace/arm/lm3s811/TI_Stellaris/driverlib/uart.c ****     //
1070:/home/cuil/workspace/arm/lm3s811/TI_Stellaris/driverlib/uart.c ****     // Return the availability of characters.
1071:/home/cuil/workspace/arm/lm3s811/TI_Stellaris/driverlib/uart.c ****     //
1072:/home/cuil/workspace/arm/lm3s811/TI_Stellaris/driverlib/uart.c ****     return((HWREG(ulBase + UART_O_FR) & UART_FR_RXFE) ? false : true);
 10815              		.loc 1 1072 0
 10816 0008 7B68     		ldr	r3, [r7, #4]
 10817 000a 03F11803 		add	r3, r3, #24
 10818 000e 1B68     		ldr	r3, [r3, #0]
 10819 0010 03F01003 		and	r3, r3, #16
 10820 0014 002B     		cmp	r3, #0
 10821 0016 14BF     		ite	ne
 10822 0018 0023     		movne	r3, #0
 10823 001a 0123     		moveq	r3, #1
 10824 001c DBB2     		uxtb	r3, r3
1073:/home/cuil/workspace/arm/lm3s811/TI_Stellaris/driverlib/uart.c **** }
 10825              		.loc 1 1073 0
 10826 001e 1846     		mov	r0, r3
 10827 0020 07F10C07 		add	r7, r7, #12
 10828 0024 BD46     		mov	sp, r7
 10829 0026 80BC     		pop	{r7}
 10830 0028 7047     		bx	lr
 10831              		.cfi_endproc
 10832              	.LFE23:
 10834 002a 00BF     		.section	.text.UARTSpaceAvail,"ax",%progbits
 10835              		.align	2
 10836              		.global	UARTSpaceAvail
 10837              		.thumb
 10838              		.thumb_func
 10840              	UARTSpaceAvail:
 10841              	.LFB24:
1074:/home/cuil/workspace/arm/lm3s811/TI_Stellaris/driverlib/uart.c **** 
1075:/home/cuil/workspace/arm/lm3s811/TI_Stellaris/driverlib/uart.c **** //*****************************************************************************
1076:/home/cuil/workspace/arm/lm3s811/TI_Stellaris/driverlib/uart.c **** //
1077:/home/cuil/workspace/arm/lm3s811/TI_Stellaris/driverlib/uart.c **** //! Determines if there is any space in the transmit FIFO.
1078:/home/cuil/workspace/arm/lm3s811/TI_Stellaris/driverlib/uart.c **** //!
1079:/home/cuil/workspace/arm/lm3s811/TI_Stellaris/driverlib/uart.c **** //! \param ulBase is the base address of the UART port.
1080:/home/cuil/workspace/arm/lm3s811/TI_Stellaris/driverlib/uart.c **** //!
1081:/home/cuil/workspace/arm/lm3s811/TI_Stellaris/driverlib/uart.c **** //! This function returns a flag indicating whether or not there is space
1082:/home/cuil/workspace/arm/lm3s811/TI_Stellaris/driverlib/uart.c **** //! available in the transmit FIFO.
1083:/home/cuil/workspace/arm/lm3s811/TI_Stellaris/driverlib/uart.c **** //!
1084:/home/cuil/workspace/arm/lm3s811/TI_Stellaris/driverlib/uart.c **** //! \return Returns \b true if there is space available in the transmit FIFO
1085:/home/cuil/workspace/arm/lm3s811/TI_Stellaris/driverlib/uart.c **** //! or \b false if there is no space available in the transmit FIFO.
1086:/home/cuil/workspace/arm/lm3s811/TI_Stellaris/driverlib/uart.c **** //
1087:/home/cuil/workspace/arm/lm3s811/TI_Stellaris/driverlib/uart.c **** //*****************************************************************************
1088:/home/cuil/workspace/arm/lm3s811/TI_Stellaris/driverlib/uart.c **** tBoolean
1089:/home/cuil/workspace/arm/lm3s811/TI_Stellaris/driverlib/uart.c **** UARTSpaceAvail(unsigned long ulBase)
1090:/home/cuil/workspace/arm/lm3s811/TI_Stellaris/driverlib/uart.c **** {
 10842              		.loc 1 1090 0
 10843              		.cfi_startproc
 10844              		@ args = 0, pretend = 0, frame = 8
 10845              		@ frame_needed = 1, uses_anonymous_args = 0
 10846              		@ link register save eliminated.
 10847 0000 80B4     		push	{r7}
 10848              	.LCFI72:
 10849              		.cfi_def_cfa_offset 4
 10850 0002 83B0     		sub	sp, sp, #12
 10851              	.LCFI73:
 10852              		.cfi_def_cfa_offset 16
 10853 0004 00AF     		add	r7, sp, #0
 10854              		.cfi_offset 7, -4
 10855              	.LCFI74:
 10856              		.cfi_def_cfa_register 7
 10857 0006 7860     		str	r0, [r7, #4]
1091:/home/cuil/workspace/arm/lm3s811/TI_Stellaris/driverlib/uart.c ****     //
1092:/home/cuil/workspace/arm/lm3s811/TI_Stellaris/driverlib/uart.c ****     // Check the arguments.
1093:/home/cuil/workspace/arm/lm3s811/TI_Stellaris/driverlib/uart.c ****     //
1094:/home/cuil/workspace/arm/lm3s811/TI_Stellaris/driverlib/uart.c ****     ASSERT(UARTBaseValid(ulBase));
1095:/home/cuil/workspace/arm/lm3s811/TI_Stellaris/driverlib/uart.c **** 
1096:/home/cuil/workspace/arm/lm3s811/TI_Stellaris/driverlib/uart.c ****     //
1097:/home/cuil/workspace/arm/lm3s811/TI_Stellaris/driverlib/uart.c ****     // Return the availability of space.
1098:/home/cuil/workspace/arm/lm3s811/TI_Stellaris/driverlib/uart.c ****     //
1099:/home/cuil/workspace/arm/lm3s811/TI_Stellaris/driverlib/uart.c ****     return((HWREG(ulBase + UART_O_FR) & UART_FR_TXFF) ? false : true);
 10858              		.loc 1 1099 0
 10859 0008 7B68     		ldr	r3, [r7, #4]
 10860 000a 03F11803 		add	r3, r3, #24
 10861 000e 1B68     		ldr	r3, [r3, #0]
 10862 0010 03F02003 		and	r3, r3, #32
 10863 0014 002B     		cmp	r3, #0
 10864 0016 14BF     		ite	ne
 10865 0018 0023     		movne	r3, #0
 10866 001a 0123     		moveq	r3, #1
 10867 001c DBB2     		uxtb	r3, r3
1100:/home/cuil/workspace/arm/lm3s811/TI_Stellaris/driverlib/uart.c **** }
 10868              		.loc 1 1100 0
 10869 001e 1846     		mov	r0, r3
 10870 0020 07F10C07 		add	r7, r7, #12
 10871 0024 BD46     		mov	sp, r7
 10872 0026 80BC     		pop	{r7}
 10873 0028 7047     		bx	lr
 10874              		.cfi_endproc
 10875              	.LFE24:
 10877 002a 00BF     		.section	.text.UARTCharGetNonBlocking,"ax",%progbits
 10878              		.align	2
 10879              		.global	UARTCharGetNonBlocking
 10880              		.thumb
 10881              		.thumb_func
 10883              	UARTCharGetNonBlocking:
 10884              	.LFB25:
1101:/home/cuil/workspace/arm/lm3s811/TI_Stellaris/driverlib/uart.c **** 
1102:/home/cuil/workspace/arm/lm3s811/TI_Stellaris/driverlib/uart.c **** //*****************************************************************************
1103:/home/cuil/workspace/arm/lm3s811/TI_Stellaris/driverlib/uart.c **** //
1104:/home/cuil/workspace/arm/lm3s811/TI_Stellaris/driverlib/uart.c **** //! Receives a character from the specified port.
1105:/home/cuil/workspace/arm/lm3s811/TI_Stellaris/driverlib/uart.c **** //!
1106:/home/cuil/workspace/arm/lm3s811/TI_Stellaris/driverlib/uart.c **** //! \param ulBase is the base address of the UART port.
1107:/home/cuil/workspace/arm/lm3s811/TI_Stellaris/driverlib/uart.c **** //!
1108:/home/cuil/workspace/arm/lm3s811/TI_Stellaris/driverlib/uart.c **** //! This function gets a character from the receive FIFO for the specified
1109:/home/cuil/workspace/arm/lm3s811/TI_Stellaris/driverlib/uart.c **** //! port.
1110:/home/cuil/workspace/arm/lm3s811/TI_Stellaris/driverlib/uart.c **** //!
1111:/home/cuil/workspace/arm/lm3s811/TI_Stellaris/driverlib/uart.c **** //! This function replaces the original UARTCharNonBlockingGet() API and
1112:/home/cuil/workspace/arm/lm3s811/TI_Stellaris/driverlib/uart.c **** //! performs the same actions.  A macro is provided in <tt>uart.h</tt> to map
1113:/home/cuil/workspace/arm/lm3s811/TI_Stellaris/driverlib/uart.c **** //! the original API to this API.
1114:/home/cuil/workspace/arm/lm3s811/TI_Stellaris/driverlib/uart.c **** //!
1115:/home/cuil/workspace/arm/lm3s811/TI_Stellaris/driverlib/uart.c **** //! \return Returns the character read from the specified port, cast as a
1116:/home/cuil/workspace/arm/lm3s811/TI_Stellaris/driverlib/uart.c **** //! \e long.  A \b -1 is returned if there are no characters present in the
1117:/home/cuil/workspace/arm/lm3s811/TI_Stellaris/driverlib/uart.c **** //! receive FIFO.  The UARTCharsAvail() function should be called before
1118:/home/cuil/workspace/arm/lm3s811/TI_Stellaris/driverlib/uart.c **** //! attempting to call this function.
1119:/home/cuil/workspace/arm/lm3s811/TI_Stellaris/driverlib/uart.c **** //
1120:/home/cuil/workspace/arm/lm3s811/TI_Stellaris/driverlib/uart.c **** //*****************************************************************************
1121:/home/cuil/workspace/arm/lm3s811/TI_Stellaris/driverlib/uart.c **** long
1122:/home/cuil/workspace/arm/lm3s811/TI_Stellaris/driverlib/uart.c **** UARTCharGetNonBlocking(unsigned long ulBase)
1123:/home/cuil/workspace/arm/lm3s811/TI_Stellaris/driverlib/uart.c **** {
 10885              		.loc 1 1123 0
 10886              		.cfi_startproc
 10887              		@ args = 0, pretend = 0, frame = 8
 10888              		@ frame_needed = 1, uses_anonymous_args = 0
 10889              		@ link register save eliminated.
 10890 0000 80B4     		push	{r7}
 10891              	.LCFI75:
 10892              		.cfi_def_cfa_offset 4
 10893 0002 83B0     		sub	sp, sp, #12
 10894              	.LCFI76:
 10895              		.cfi_def_cfa_offset 16
 10896 0004 00AF     		add	r7, sp, #0
 10897              		.cfi_offset 7, -4
 10898              	.LCFI77:
 10899              		.cfi_def_cfa_register 7
 10900 0006 7860     		str	r0, [r7, #4]
1124:/home/cuil/workspace/arm/lm3s811/TI_Stellaris/driverlib/uart.c ****     //
1125:/home/cuil/workspace/arm/lm3s811/TI_Stellaris/driverlib/uart.c ****     // Check the arguments.
1126:/home/cuil/workspace/arm/lm3s811/TI_Stellaris/driverlib/uart.c ****     //
1127:/home/cuil/workspace/arm/lm3s811/TI_Stellaris/driverlib/uart.c ****     ASSERT(UARTBaseValid(ulBase));
1128:/home/cuil/workspace/arm/lm3s811/TI_Stellaris/driverlib/uart.c **** 
1129:/home/cuil/workspace/arm/lm3s811/TI_Stellaris/driverlib/uart.c ****     //
1130:/home/cuil/workspace/arm/lm3s811/TI_Stellaris/driverlib/uart.c ****     // See if there are any characters in the receive FIFO.
1131:/home/cuil/workspace/arm/lm3s811/TI_Stellaris/driverlib/uart.c ****     //
1132:/home/cuil/workspace/arm/lm3s811/TI_Stellaris/driverlib/uart.c ****     if(!(HWREG(ulBase + UART_O_FR) & UART_FR_RXFE))
 10901              		.loc 1 1132 0
 10902 0008 7B68     		ldr	r3, [r7, #4]
 10903 000a 03F11803 		add	r3, r3, #24
 10904 000e 1B68     		ldr	r3, [r3, #0]
 10905 0010 03F01003 		and	r3, r3, #16
 10906 0014 002B     		cmp	r3, #0
 10907 0016 02D1     		bne	.L39
1133:/home/cuil/workspace/arm/lm3s811/TI_Stellaris/driverlib/uart.c ****     {
1134:/home/cuil/workspace/arm/lm3s811/TI_Stellaris/driverlib/uart.c ****         //
1135:/home/cuil/workspace/arm/lm3s811/TI_Stellaris/driverlib/uart.c ****         // Read and return the next character.
1136:/home/cuil/workspace/arm/lm3s811/TI_Stellaris/driverlib/uart.c ****         //
1137:/home/cuil/workspace/arm/lm3s811/TI_Stellaris/driverlib/uart.c ****         return(HWREG(ulBase + UART_O_DR));
 10908              		.loc 1 1137 0
 10909 0018 7B68     		ldr	r3, [r7, #4]
 10910 001a 1B68     		ldr	r3, [r3, #0]
 10911 001c 01E0     		b	.L40
 10912              	.L39:
1138:/home/cuil/workspace/arm/lm3s811/TI_Stellaris/driverlib/uart.c ****     }
1139:/home/cuil/workspace/arm/lm3s811/TI_Stellaris/driverlib/uart.c ****     else
1140:/home/cuil/workspace/arm/lm3s811/TI_Stellaris/driverlib/uart.c ****     {
1141:/home/cuil/workspace/arm/lm3s811/TI_Stellaris/driverlib/uart.c ****         //
1142:/home/cuil/workspace/arm/lm3s811/TI_Stellaris/driverlib/uart.c ****         // There are no characters, so return a failure.
1143:/home/cuil/workspace/arm/lm3s811/TI_Stellaris/driverlib/uart.c ****         //
1144:/home/cuil/workspace/arm/lm3s811/TI_Stellaris/driverlib/uart.c ****         return(-1);
 10913              		.loc 1 1144 0
 10914 001e 4FF0FF33 		mov	r3, #-1
 10915              	.L40:
1145:/home/cuil/workspace/arm/lm3s811/TI_Stellaris/driverlib/uart.c ****     }
1146:/home/cuil/workspace/arm/lm3s811/TI_Stellaris/driverlib/uart.c **** }
 10916              		.loc 1 1146 0
 10917 0022 1846     		mov	r0, r3
 10918 0024 07F10C07 		add	r7, r7, #12
 10919 0028 BD46     		mov	sp, r7
 10920 002a 80BC     		pop	{r7}
 10921 002c 7047     		bx	lr
 10922              		.cfi_endproc
 10923              	.LFE25:
 10925 002e 00BF     		.section	.text.UARTCharGet,"ax",%progbits
 10926              		.align	2
 10927              		.global	UARTCharGet
 10928              		.thumb
 10929              		.thumb_func
 10931              	UARTCharGet:
 10932              	.LFB26:
1147:/home/cuil/workspace/arm/lm3s811/TI_Stellaris/driverlib/uart.c **** 
1148:/home/cuil/workspace/arm/lm3s811/TI_Stellaris/driverlib/uart.c **** //*****************************************************************************
1149:/home/cuil/workspace/arm/lm3s811/TI_Stellaris/driverlib/uart.c **** //
1150:/home/cuil/workspace/arm/lm3s811/TI_Stellaris/driverlib/uart.c **** //! Waits for a character from the specified port.
1151:/home/cuil/workspace/arm/lm3s811/TI_Stellaris/driverlib/uart.c **** //!
1152:/home/cuil/workspace/arm/lm3s811/TI_Stellaris/driverlib/uart.c **** //! \param ulBase is the base address of the UART port.
1153:/home/cuil/workspace/arm/lm3s811/TI_Stellaris/driverlib/uart.c **** //!
1154:/home/cuil/workspace/arm/lm3s811/TI_Stellaris/driverlib/uart.c **** //! This function gets a character from the receive FIFO for the specified
1155:/home/cuil/workspace/arm/lm3s811/TI_Stellaris/driverlib/uart.c **** //! port.  If there are no characters available, this function waits until a
1156:/home/cuil/workspace/arm/lm3s811/TI_Stellaris/driverlib/uart.c **** //! character is received before returning.
1157:/home/cuil/workspace/arm/lm3s811/TI_Stellaris/driverlib/uart.c **** //!
1158:/home/cuil/workspace/arm/lm3s811/TI_Stellaris/driverlib/uart.c **** //! \return Returns the character read from the specified port, cast as a
1159:/home/cuil/workspace/arm/lm3s811/TI_Stellaris/driverlib/uart.c **** //! \e long.
1160:/home/cuil/workspace/arm/lm3s811/TI_Stellaris/driverlib/uart.c **** //
1161:/home/cuil/workspace/arm/lm3s811/TI_Stellaris/driverlib/uart.c **** //*****************************************************************************
1162:/home/cuil/workspace/arm/lm3s811/TI_Stellaris/driverlib/uart.c **** long
1163:/home/cuil/workspace/arm/lm3s811/TI_Stellaris/driverlib/uart.c **** UARTCharGet(unsigned long ulBase)
1164:/home/cuil/workspace/arm/lm3s811/TI_Stellaris/driverlib/uart.c **** {
 10933              		.loc 1 1164 0
 10934              		.cfi_startproc
 10935              		@ args = 0, pretend = 0, frame = 8
 10936              		@ frame_needed = 1, uses_anonymous_args = 0
 10937              		@ link register save eliminated.
 10938 0000 80B4     		push	{r7}
 10939              	.LCFI78:
 10940              		.cfi_def_cfa_offset 4
 10941 0002 83B0     		sub	sp, sp, #12
 10942              	.LCFI79:
 10943              		.cfi_def_cfa_offset 16
 10944 0004 00AF     		add	r7, sp, #0
 10945              		.cfi_offset 7, -4
 10946              	.LCFI80:
 10947              		.cfi_def_cfa_register 7
 10948 0006 7860     		str	r0, [r7, #4]
1165:/home/cuil/workspace/arm/lm3s811/TI_Stellaris/driverlib/uart.c ****     //
1166:/home/cuil/workspace/arm/lm3s811/TI_Stellaris/driverlib/uart.c ****     // Check the arguments.
1167:/home/cuil/workspace/arm/lm3s811/TI_Stellaris/driverlib/uart.c ****     //
1168:/home/cuil/workspace/arm/lm3s811/TI_Stellaris/driverlib/uart.c ****     ASSERT(UARTBaseValid(ulBase));
1169:/home/cuil/workspace/arm/lm3s811/TI_Stellaris/driverlib/uart.c **** 
1170:/home/cuil/workspace/arm/lm3s811/TI_Stellaris/driverlib/uart.c ****     //
1171:/home/cuil/workspace/arm/lm3s811/TI_Stellaris/driverlib/uart.c ****     // Wait until a char is available.
1172:/home/cuil/workspace/arm/lm3s811/TI_Stellaris/driverlib/uart.c ****     //
1173:/home/cuil/workspace/arm/lm3s811/TI_Stellaris/driverlib/uart.c ****     while(HWREG(ulBase + UART_O_FR) & UART_FR_RXFE)
 10949              		.loc 1 1173 0
 10950 0008 00BF     		nop
 10951              	.L42:
 10952              		.loc 1 1173 0 is_stmt 0 discriminator 1
 10953 000a 7B68     		ldr	r3, [r7, #4]
 10954 000c 03F11803 		add	r3, r3, #24
 10955 0010 1B68     		ldr	r3, [r3, #0]
 10956 0012 03F01003 		and	r3, r3, #16
 10957 0016 002B     		cmp	r3, #0
 10958 0018 F7D1     		bne	.L42
1174:/home/cuil/workspace/arm/lm3s811/TI_Stellaris/driverlib/uart.c ****     {
1175:/home/cuil/workspace/arm/lm3s811/TI_Stellaris/driverlib/uart.c ****     }
1176:/home/cuil/workspace/arm/lm3s811/TI_Stellaris/driverlib/uart.c **** 
1177:/home/cuil/workspace/arm/lm3s811/TI_Stellaris/driverlib/uart.c ****     //
1178:/home/cuil/workspace/arm/lm3s811/TI_Stellaris/driverlib/uart.c ****     // Now get the char.
1179:/home/cuil/workspace/arm/lm3s811/TI_Stellaris/driverlib/uart.c ****     //
1180:/home/cuil/workspace/arm/lm3s811/TI_Stellaris/driverlib/uart.c ****     return(HWREG(ulBase + UART_O_DR));
 10959              		.loc 1 1180 0 is_stmt 1
 10960 001a 7B68     		ldr	r3, [r7, #4]
 10961 001c 1B68     		ldr	r3, [r3, #0]
1181:/home/cuil/workspace/arm/lm3s811/TI_Stellaris/driverlib/uart.c **** }
 10962              		.loc 1 1181 0
 10963 001e 1846     		mov	r0, r3
 10964 0020 07F10C07 		add	r7, r7, #12
 10965 0024 BD46     		mov	sp, r7
 10966 0026 80BC     		pop	{r7}
 10967 0028 7047     		bx	lr
 10968              		.cfi_endproc
 10969              	.LFE26:
 10971 002a 00BF     		.section	.text.UARTCharPutNonBlocking,"ax",%progbits
 10972              		.align	2
 10973              		.global	UARTCharPutNonBlocking
 10974              		.thumb
 10975              		.thumb_func
 10977              	UARTCharPutNonBlocking:
 10978              	.LFB27:
1182:/home/cuil/workspace/arm/lm3s811/TI_Stellaris/driverlib/uart.c **** 
1183:/home/cuil/workspace/arm/lm3s811/TI_Stellaris/driverlib/uart.c **** //*****************************************************************************
1184:/home/cuil/workspace/arm/lm3s811/TI_Stellaris/driverlib/uart.c **** //
1185:/home/cuil/workspace/arm/lm3s811/TI_Stellaris/driverlib/uart.c **** //! Sends a character to the specified port.
1186:/home/cuil/workspace/arm/lm3s811/TI_Stellaris/driverlib/uart.c **** //!
1187:/home/cuil/workspace/arm/lm3s811/TI_Stellaris/driverlib/uart.c **** //! \param ulBase is the base address of the UART port.
1188:/home/cuil/workspace/arm/lm3s811/TI_Stellaris/driverlib/uart.c **** //! \param ucData is the character to be transmitted.
1189:/home/cuil/workspace/arm/lm3s811/TI_Stellaris/driverlib/uart.c **** //!
1190:/home/cuil/workspace/arm/lm3s811/TI_Stellaris/driverlib/uart.c **** //! This function writes the character \e ucData to the transmit FIFO for the
1191:/home/cuil/workspace/arm/lm3s811/TI_Stellaris/driverlib/uart.c **** //! specified port.  This function does not block, so if there is no space
1192:/home/cuil/workspace/arm/lm3s811/TI_Stellaris/driverlib/uart.c **** //! available, then a \b false is returned and the application must retry the
1193:/home/cuil/workspace/arm/lm3s811/TI_Stellaris/driverlib/uart.c **** //! function later.
1194:/home/cuil/workspace/arm/lm3s811/TI_Stellaris/driverlib/uart.c **** //!
1195:/home/cuil/workspace/arm/lm3s811/TI_Stellaris/driverlib/uart.c **** //! This function replaces the original UARTCharNonBlockingPut() API and
1196:/home/cuil/workspace/arm/lm3s811/TI_Stellaris/driverlib/uart.c **** //! performs the same actions.  A macro is provided in <tt>uart.h</tt> to map
1197:/home/cuil/workspace/arm/lm3s811/TI_Stellaris/driverlib/uart.c **** //! the original API to this API.
1198:/home/cuil/workspace/arm/lm3s811/TI_Stellaris/driverlib/uart.c **** //!
1199:/home/cuil/workspace/arm/lm3s811/TI_Stellaris/driverlib/uart.c **** //! \return Returns \b true if the character was successfully placed in the
1200:/home/cuil/workspace/arm/lm3s811/TI_Stellaris/driverlib/uart.c **** //! transmit FIFO or \b false if there was no space available in the transmit
1201:/home/cuil/workspace/arm/lm3s811/TI_Stellaris/driverlib/uart.c **** //! FIFO.
1202:/home/cuil/workspace/arm/lm3s811/TI_Stellaris/driverlib/uart.c **** //
1203:/home/cuil/workspace/arm/lm3s811/TI_Stellaris/driverlib/uart.c **** //*****************************************************************************
1204:/home/cuil/workspace/arm/lm3s811/TI_Stellaris/driverlib/uart.c **** tBoolean
1205:/home/cuil/workspace/arm/lm3s811/TI_Stellaris/driverlib/uart.c **** UARTCharPutNonBlocking(unsigned long ulBase, unsigned char ucData)
1206:/home/cuil/workspace/arm/lm3s811/TI_Stellaris/driverlib/uart.c **** {
 10979              		.loc 1 1206 0
 10980              		.cfi_startproc
 10981              		@ args = 0, pretend = 0, frame = 8
 10982              		@ frame_needed = 1, uses_anonymous_args = 0
 10983              		@ link register save eliminated.
 10984 0000 80B4     		push	{r7}
 10985              	.LCFI81:
 10986              		.cfi_def_cfa_offset 4
 10987 0002 83B0     		sub	sp, sp, #12
 10988              	.LCFI82:
 10989              		.cfi_def_cfa_offset 16
 10990 0004 00AF     		add	r7, sp, #0
 10991              		.cfi_offset 7, -4
 10992              	.LCFI83:
 10993              		.cfi_def_cfa_register 7
 10994 0006 7860     		str	r0, [r7, #4]
 10995 0008 0B46     		mov	r3, r1
 10996 000a FB70     		strb	r3, [r7, #3]
1207:/home/cuil/workspace/arm/lm3s811/TI_Stellaris/driverlib/uart.c ****     //
1208:/home/cuil/workspace/arm/lm3s811/TI_Stellaris/driverlib/uart.c ****     // Check the arguments.
1209:/home/cuil/workspace/arm/lm3s811/TI_Stellaris/driverlib/uart.c ****     //
1210:/home/cuil/workspace/arm/lm3s811/TI_Stellaris/driverlib/uart.c ****     ASSERT(UARTBaseValid(ulBase));
1211:/home/cuil/workspace/arm/lm3s811/TI_Stellaris/driverlib/uart.c **** 
1212:/home/cuil/workspace/arm/lm3s811/TI_Stellaris/driverlib/uart.c ****     //
1213:/home/cuil/workspace/arm/lm3s811/TI_Stellaris/driverlib/uart.c ****     // See if there is space in the transmit FIFO.
1214:/home/cuil/workspace/arm/lm3s811/TI_Stellaris/driverlib/uart.c ****     //
1215:/home/cuil/workspace/arm/lm3s811/TI_Stellaris/driverlib/uart.c ****     if(!(HWREG(ulBase + UART_O_FR) & UART_FR_TXFF))
 10997              		.loc 1 1215 0
 10998 000c 7B68     		ldr	r3, [r7, #4]
 10999 000e 03F11803 		add	r3, r3, #24
 11000 0012 1B68     		ldr	r3, [r3, #0]
 11001 0014 03F02003 		and	r3, r3, #32
 11002 0018 002B     		cmp	r3, #0
 11003 001a 05D1     		bne	.L44
1216:/home/cuil/workspace/arm/lm3s811/TI_Stellaris/driverlib/uart.c ****     {
1217:/home/cuil/workspace/arm/lm3s811/TI_Stellaris/driverlib/uart.c ****         //
1218:/home/cuil/workspace/arm/lm3s811/TI_Stellaris/driverlib/uart.c ****         // Write this character to the transmit FIFO.
1219:/home/cuil/workspace/arm/lm3s811/TI_Stellaris/driverlib/uart.c ****         //
1220:/home/cuil/workspace/arm/lm3s811/TI_Stellaris/driverlib/uart.c ****         HWREG(ulBase + UART_O_DR) = ucData;
 11004              		.loc 1 1220 0
 11005 001c 7B68     		ldr	r3, [r7, #4]
 11006 001e FA78     		ldrb	r2, [r7, #3]	@ zero_extendqisi2
 11007 0020 1A60     		str	r2, [r3, #0]
1221:/home/cuil/workspace/arm/lm3s811/TI_Stellaris/driverlib/uart.c **** 
1222:/home/cuil/workspace/arm/lm3s811/TI_Stellaris/driverlib/uart.c ****         //
1223:/home/cuil/workspace/arm/lm3s811/TI_Stellaris/driverlib/uart.c ****         // Success.
1224:/home/cuil/workspace/arm/lm3s811/TI_Stellaris/driverlib/uart.c ****         //
1225:/home/cuil/workspace/arm/lm3s811/TI_Stellaris/driverlib/uart.c ****         return(true);
 11008              		.loc 1 1225 0
 11009 0022 4FF00103 		mov	r3, #1
 11010 0026 01E0     		b	.L45
 11011              	.L44:
1226:/home/cuil/workspace/arm/lm3s811/TI_Stellaris/driverlib/uart.c ****     }
1227:/home/cuil/workspace/arm/lm3s811/TI_Stellaris/driverlib/uart.c ****     else
1228:/home/cuil/workspace/arm/lm3s811/TI_Stellaris/driverlib/uart.c ****     {
1229:/home/cuil/workspace/arm/lm3s811/TI_Stellaris/driverlib/uart.c ****         //
1230:/home/cuil/workspace/arm/lm3s811/TI_Stellaris/driverlib/uart.c ****         // There is no space in the transmit FIFO, so return a failure.
1231:/home/cuil/workspace/arm/lm3s811/TI_Stellaris/driverlib/uart.c ****         //
1232:/home/cuil/workspace/arm/lm3s811/TI_Stellaris/driverlib/uart.c ****         return(false);
 11012              		.loc 1 1232 0
 11013 0028 4FF00003 		mov	r3, #0
 11014              	.L45:
1233:/home/cuil/workspace/arm/lm3s811/TI_Stellaris/driverlib/uart.c ****     }
1234:/home/cuil/workspace/arm/lm3s811/TI_Stellaris/driverlib/uart.c **** }
 11015              		.loc 1 1234 0
 11016 002c 1846     		mov	r0, r3
 11017 002e 07F10C07 		add	r7, r7, #12
 11018 0032 BD46     		mov	sp, r7
 11019 0034 80BC     		pop	{r7}
 11020 0036 7047     		bx	lr
 11021              		.cfi_endproc
 11022              	.LFE27:
 11024              		.section	.text.UARTCharPut,"ax",%progbits
 11025              		.align	2
 11026              		.global	UARTCharPut
 11027              		.thumb
 11028              		.thumb_func
 11030              	UARTCharPut:
 11031              	.LFB28:
1235:/home/cuil/workspace/arm/lm3s811/TI_Stellaris/driverlib/uart.c **** 
1236:/home/cuil/workspace/arm/lm3s811/TI_Stellaris/driverlib/uart.c **** //*****************************************************************************
1237:/home/cuil/workspace/arm/lm3s811/TI_Stellaris/driverlib/uart.c **** //
1238:/home/cuil/workspace/arm/lm3s811/TI_Stellaris/driverlib/uart.c **** //! Waits to send a character from the specified port.
1239:/home/cuil/workspace/arm/lm3s811/TI_Stellaris/driverlib/uart.c **** //!
1240:/home/cuil/workspace/arm/lm3s811/TI_Stellaris/driverlib/uart.c **** //! \param ulBase is the base address of the UART port.
1241:/home/cuil/workspace/arm/lm3s811/TI_Stellaris/driverlib/uart.c **** //! \param ucData is the character to be transmitted.
1242:/home/cuil/workspace/arm/lm3s811/TI_Stellaris/driverlib/uart.c **** //!
1243:/home/cuil/workspace/arm/lm3s811/TI_Stellaris/driverlib/uart.c **** //! This function sends the character \e ucData to the transmit FIFO for the
1244:/home/cuil/workspace/arm/lm3s811/TI_Stellaris/driverlib/uart.c **** //! specified port.  If there is no space available in the transmit FIFO, this
1245:/home/cuil/workspace/arm/lm3s811/TI_Stellaris/driverlib/uart.c **** //! function waits until there is space available before returning.
1246:/home/cuil/workspace/arm/lm3s811/TI_Stellaris/driverlib/uart.c **** //!
1247:/home/cuil/workspace/arm/lm3s811/TI_Stellaris/driverlib/uart.c **** //! \return None.
1248:/home/cuil/workspace/arm/lm3s811/TI_Stellaris/driverlib/uart.c **** //
1249:/home/cuil/workspace/arm/lm3s811/TI_Stellaris/driverlib/uart.c **** //*****************************************************************************
1250:/home/cuil/workspace/arm/lm3s811/TI_Stellaris/driverlib/uart.c **** void
1251:/home/cuil/workspace/arm/lm3s811/TI_Stellaris/driverlib/uart.c **** UARTCharPut(unsigned long ulBase, unsigned char ucData)
1252:/home/cuil/workspace/arm/lm3s811/TI_Stellaris/driverlib/uart.c **** {
 11032              		.loc 1 1252 0
 11033              		.cfi_startproc
 11034              		@ args = 0, pretend = 0, frame = 8
 11035              		@ frame_needed = 1, uses_anonymous_args = 0
 11036              		@ link register save eliminated.
 11037 0000 80B4     		push	{r7}
 11038              	.LCFI84:
 11039              		.cfi_def_cfa_offset 4
 11040 0002 83B0     		sub	sp, sp, #12
 11041              	.LCFI85:
 11042              		.cfi_def_cfa_offset 16
 11043 0004 00AF     		add	r7, sp, #0
 11044              		.cfi_offset 7, -4
 11045              	.LCFI86:
 11046              		.cfi_def_cfa_register 7
 11047 0006 7860     		str	r0, [r7, #4]
 11048 0008 0B46     		mov	r3, r1
 11049 000a FB70     		strb	r3, [r7, #3]
1253:/home/cuil/workspace/arm/lm3s811/TI_Stellaris/driverlib/uart.c ****     //
1254:/home/cuil/workspace/arm/lm3s811/TI_Stellaris/driverlib/uart.c ****     // Check the arguments.
1255:/home/cuil/workspace/arm/lm3s811/TI_Stellaris/driverlib/uart.c ****     //
1256:/home/cuil/workspace/arm/lm3s811/TI_Stellaris/driverlib/uart.c ****     ASSERT(UARTBaseValid(ulBase));
1257:/home/cuil/workspace/arm/lm3s811/TI_Stellaris/driverlib/uart.c **** 
1258:/home/cuil/workspace/arm/lm3s811/TI_Stellaris/driverlib/uart.c ****     //
1259:/home/cuil/workspace/arm/lm3s811/TI_Stellaris/driverlib/uart.c ****     // Wait until space is available.
1260:/home/cuil/workspace/arm/lm3s811/TI_Stellaris/driverlib/uart.c ****     //
1261:/home/cuil/workspace/arm/lm3s811/TI_Stellaris/driverlib/uart.c ****     while(HWREG(ulBase + UART_O_FR) & UART_FR_TXFF)
 11050              		.loc 1 1261 0
 11051 000c 00BF     		nop
 11052              	.L47:
 11053              		.loc 1 1261 0 is_stmt 0 discriminator 1
 11054 000e 7B68     		ldr	r3, [r7, #4]
 11055 0010 03F11803 		add	r3, r3, #24
 11056 0014 1B68     		ldr	r3, [r3, #0]
 11057 0016 03F02003 		and	r3, r3, #32
 11058 001a 002B     		cmp	r3, #0
 11059 001c F7D1     		bne	.L47
1262:/home/cuil/workspace/arm/lm3s811/TI_Stellaris/driverlib/uart.c ****     {
1263:/home/cuil/workspace/arm/lm3s811/TI_Stellaris/driverlib/uart.c ****     }
1264:/home/cuil/workspace/arm/lm3s811/TI_Stellaris/driverlib/uart.c **** 
1265:/home/cuil/workspace/arm/lm3s811/TI_Stellaris/driverlib/uart.c ****     //
1266:/home/cuil/workspace/arm/lm3s811/TI_Stellaris/driverlib/uart.c ****     // Send the char.
1267:/home/cuil/workspace/arm/lm3s811/TI_Stellaris/driverlib/uart.c ****     //
1268:/home/cuil/workspace/arm/lm3s811/TI_Stellaris/driverlib/uart.c ****     HWREG(ulBase + UART_O_DR) = ucData;
 11060              		.loc 1 1268 0 is_stmt 1
 11061 001e 7B68     		ldr	r3, [r7, #4]
 11062 0020 FA78     		ldrb	r2, [r7, #3]	@ zero_extendqisi2
 11063 0022 1A60     		str	r2, [r3, #0]
1269:/home/cuil/workspace/arm/lm3s811/TI_Stellaris/driverlib/uart.c **** }
 11064              		.loc 1 1269 0
 11065 0024 07F10C07 		add	r7, r7, #12
 11066 0028 BD46     		mov	sp, r7
 11067 002a 80BC     		pop	{r7}
 11068 002c 7047     		bx	lr
 11069              		.cfi_endproc
 11070              	.LFE28:
 11072 002e 00BF     		.section	.text.UARTBreakCtl,"ax",%progbits
 11073              		.align	2
 11074              		.global	UARTBreakCtl
 11075              		.thumb
 11076              		.thumb_func
 11078              	UARTBreakCtl:
 11079              	.LFB29:
1270:/home/cuil/workspace/arm/lm3s811/TI_Stellaris/driverlib/uart.c **** 
1271:/home/cuil/workspace/arm/lm3s811/TI_Stellaris/driverlib/uart.c **** //*****************************************************************************
1272:/home/cuil/workspace/arm/lm3s811/TI_Stellaris/driverlib/uart.c **** //
1273:/home/cuil/workspace/arm/lm3s811/TI_Stellaris/driverlib/uart.c **** //! Causes a BREAK to be sent.
1274:/home/cuil/workspace/arm/lm3s811/TI_Stellaris/driverlib/uart.c **** //!
1275:/home/cuil/workspace/arm/lm3s811/TI_Stellaris/driverlib/uart.c **** //! \param ulBase is the base address of the UART port.
1276:/home/cuil/workspace/arm/lm3s811/TI_Stellaris/driverlib/uart.c **** //! \param bBreakState controls the output level.
1277:/home/cuil/workspace/arm/lm3s811/TI_Stellaris/driverlib/uart.c **** //!
1278:/home/cuil/workspace/arm/lm3s811/TI_Stellaris/driverlib/uart.c **** //! Calling this function with \e bBreakState set to \b true asserts a break
1279:/home/cuil/workspace/arm/lm3s811/TI_Stellaris/driverlib/uart.c **** //! condition on the UART.  Calling this function with \e bBreakState set to
1280:/home/cuil/workspace/arm/lm3s811/TI_Stellaris/driverlib/uart.c **** //! \b false removes the break condition.  For proper transmission of a break
1281:/home/cuil/workspace/arm/lm3s811/TI_Stellaris/driverlib/uart.c **** //! command, the break must be asserted for at least two complete frames.
1282:/home/cuil/workspace/arm/lm3s811/TI_Stellaris/driverlib/uart.c **** //!
1283:/home/cuil/workspace/arm/lm3s811/TI_Stellaris/driverlib/uart.c **** //! \return None.
1284:/home/cuil/workspace/arm/lm3s811/TI_Stellaris/driverlib/uart.c **** //
1285:/home/cuil/workspace/arm/lm3s811/TI_Stellaris/driverlib/uart.c **** //*****************************************************************************
1286:/home/cuil/workspace/arm/lm3s811/TI_Stellaris/driverlib/uart.c **** void
1287:/home/cuil/workspace/arm/lm3s811/TI_Stellaris/driverlib/uart.c **** UARTBreakCtl(unsigned long ulBase, tBoolean bBreakState)
1288:/home/cuil/workspace/arm/lm3s811/TI_Stellaris/driverlib/uart.c **** {
 11080              		.loc 1 1288 0
 11081              		.cfi_startproc
 11082              		@ args = 0, pretend = 0, frame = 8
 11083              		@ frame_needed = 1, uses_anonymous_args = 0
 11084              		@ link register save eliminated.
 11085 0000 80B4     		push	{r7}
 11086              	.LCFI87:
 11087              		.cfi_def_cfa_offset 4
 11088 0002 83B0     		sub	sp, sp, #12
 11089              	.LCFI88:
 11090              		.cfi_def_cfa_offset 16
 11091 0004 00AF     		add	r7, sp, #0
 11092              		.cfi_offset 7, -4
 11093              	.LCFI89:
 11094              		.cfi_def_cfa_register 7
 11095 0006 7860     		str	r0, [r7, #4]
 11096 0008 0B46     		mov	r3, r1
 11097 000a FB70     		strb	r3, [r7, #3]
1289:/home/cuil/workspace/arm/lm3s811/TI_Stellaris/driverlib/uart.c ****     //
1290:/home/cuil/workspace/arm/lm3s811/TI_Stellaris/driverlib/uart.c ****     // Check the arguments.
1291:/home/cuil/workspace/arm/lm3s811/TI_Stellaris/driverlib/uart.c ****     //
1292:/home/cuil/workspace/arm/lm3s811/TI_Stellaris/driverlib/uart.c ****     ASSERT(UARTBaseValid(ulBase));
1293:/home/cuil/workspace/arm/lm3s811/TI_Stellaris/driverlib/uart.c **** 
1294:/home/cuil/workspace/arm/lm3s811/TI_Stellaris/driverlib/uart.c ****     //
1295:/home/cuil/workspace/arm/lm3s811/TI_Stellaris/driverlib/uart.c ****     // Set the break condition as requested.
1296:/home/cuil/workspace/arm/lm3s811/TI_Stellaris/driverlib/uart.c ****     //
1297:/home/cuil/workspace/arm/lm3s811/TI_Stellaris/driverlib/uart.c ****     HWREG(ulBase + UART_O_LCRH) =
 11098              		.loc 1 1297 0
 11099 000c 7B68     		ldr	r3, [r7, #4]
 11100 000e 03F12C03 		add	r3, r3, #44
 11101 0012 1A46     		mov	r2, r3
1298:/home/cuil/workspace/arm/lm3s811/TI_Stellaris/driverlib/uart.c ****         (bBreakState ?
1299:/home/cuil/workspace/arm/lm3s811/TI_Stellaris/driverlib/uart.c ****          (HWREG(ulBase + UART_O_LCRH) | UART_LCRH_BRK) :
 11102              		.loc 1 1299 0
 11103 0014 FB78     		ldrb	r3, [r7, #3]	@ zero_extendqisi2
 11104 0016 002B     		cmp	r3, #0
 11105 0018 06D0     		beq	.L49
 11106              		.loc 1 1299 0 is_stmt 0 discriminator 1
 11107 001a 7B68     		ldr	r3, [r7, #4]
 11108 001c 03F12C03 		add	r3, r3, #44
 11109 0020 1B68     		ldr	r3, [r3, #0]
 11110 0022 43F00103 		orr	r3, r3, #1
 11111 0026 05E0     		b	.L50
 11112              	.L49:
1300:/home/cuil/workspace/arm/lm3s811/TI_Stellaris/driverlib/uart.c ****          (HWREG(ulBase + UART_O_LCRH) & ~(UART_LCRH_BRK)));
 11113              		.loc 1 1300 0 is_stmt 1 discriminator 2
 11114 0028 7B68     		ldr	r3, [r7, #4]
 11115 002a 03F12C03 		add	r3, r3, #44
 11116 002e 1B68     		ldr	r3, [r3, #0]
1299:/home/cuil/workspace/arm/lm3s811/TI_Stellaris/driverlib/uart.c ****          (HWREG(ulBase + UART_O_LCRH) | UART_LCRH_BRK) :
 11117              		.loc 1 1299 0 discriminator 2
 11118 0030 23F00103 		bic	r3, r3, #1
 11119              	.L50:
1297:/home/cuil/workspace/arm/lm3s811/TI_Stellaris/driverlib/uart.c ****     HWREG(ulBase + UART_O_LCRH) =
 11120              		.loc 1 1297 0
 11121 0034 1360     		str	r3, [r2, #0]
1301:/home/cuil/workspace/arm/lm3s811/TI_Stellaris/driverlib/uart.c **** }
 11122              		.loc 1 1301 0
 11123 0036 07F10C07 		add	r7, r7, #12
 11124 003a BD46     		mov	sp, r7
 11125 003c 80BC     		pop	{r7}
 11126 003e 7047     		bx	lr
 11127              		.cfi_endproc
 11128              	.LFE29:
 11130              		.section	.text.UARTBusy,"ax",%progbits
 11131              		.align	2
 11132              		.global	UARTBusy
 11133              		.thumb
 11134              		.thumb_func
 11136              	UARTBusy:
 11137              	.LFB30:
1302:/home/cuil/workspace/arm/lm3s811/TI_Stellaris/driverlib/uart.c **** 
1303:/home/cuil/workspace/arm/lm3s811/TI_Stellaris/driverlib/uart.c **** //*****************************************************************************
1304:/home/cuil/workspace/arm/lm3s811/TI_Stellaris/driverlib/uart.c **** //
1305:/home/cuil/workspace/arm/lm3s811/TI_Stellaris/driverlib/uart.c **** //! Determines whether the UART transmitter is busy or not.
1306:/home/cuil/workspace/arm/lm3s811/TI_Stellaris/driverlib/uart.c **** //!
1307:/home/cuil/workspace/arm/lm3s811/TI_Stellaris/driverlib/uart.c **** //! \param ulBase is the base address of the UART port.
1308:/home/cuil/workspace/arm/lm3s811/TI_Stellaris/driverlib/uart.c **** //!
1309:/home/cuil/workspace/arm/lm3s811/TI_Stellaris/driverlib/uart.c **** //! This function allows the caller to determine whether all transmitted bytes 
1310:/home/cuil/workspace/arm/lm3s811/TI_Stellaris/driverlib/uart.c **** //! have cleared the transmitter hardware.  If \b false is returned, the 
1311:/home/cuil/workspace/arm/lm3s811/TI_Stellaris/driverlib/uart.c **** //! transmit FIFO is empty and all bits of the last transmitted character, 
1312:/home/cuil/workspace/arm/lm3s811/TI_Stellaris/driverlib/uart.c **** //! including all stop bits, have left the hardware shift register.
1313:/home/cuil/workspace/arm/lm3s811/TI_Stellaris/driverlib/uart.c **** //!
1314:/home/cuil/workspace/arm/lm3s811/TI_Stellaris/driverlib/uart.c **** //! \return Returns \b true if the UART is transmitting or \b false if all
1315:/home/cuil/workspace/arm/lm3s811/TI_Stellaris/driverlib/uart.c **** //! transmissions are complete.
1316:/home/cuil/workspace/arm/lm3s811/TI_Stellaris/driverlib/uart.c **** //
1317:/home/cuil/workspace/arm/lm3s811/TI_Stellaris/driverlib/uart.c **** //*****************************************************************************
1318:/home/cuil/workspace/arm/lm3s811/TI_Stellaris/driverlib/uart.c **** tBoolean
1319:/home/cuil/workspace/arm/lm3s811/TI_Stellaris/driverlib/uart.c **** UARTBusy(unsigned long ulBase)
1320:/home/cuil/workspace/arm/lm3s811/TI_Stellaris/driverlib/uart.c **** {
 11138              		.loc 1 1320 0
 11139              		.cfi_startproc
 11140              		@ args = 0, pretend = 0, frame = 8
 11141              		@ frame_needed = 1, uses_anonymous_args = 0
 11142              		@ link register save eliminated.
 11143 0000 80B4     		push	{r7}
 11144              	.LCFI90:
 11145              		.cfi_def_cfa_offset 4
 11146 0002 83B0     		sub	sp, sp, #12
 11147              	.LCFI91:
 11148              		.cfi_def_cfa_offset 16
 11149 0004 00AF     		add	r7, sp, #0
 11150              		.cfi_offset 7, -4
 11151              	.LCFI92:
 11152              		.cfi_def_cfa_register 7
 11153 0006 7860     		str	r0, [r7, #4]
1321:/home/cuil/workspace/arm/lm3s811/TI_Stellaris/driverlib/uart.c ****     //
1322:/home/cuil/workspace/arm/lm3s811/TI_Stellaris/driverlib/uart.c ****     // Check the argument.
1323:/home/cuil/workspace/arm/lm3s811/TI_Stellaris/driverlib/uart.c ****     //
1324:/home/cuil/workspace/arm/lm3s811/TI_Stellaris/driverlib/uart.c ****     ASSERT(UARTBaseValid(ulBase));
1325:/home/cuil/workspace/arm/lm3s811/TI_Stellaris/driverlib/uart.c **** 
1326:/home/cuil/workspace/arm/lm3s811/TI_Stellaris/driverlib/uart.c ****     //
1327:/home/cuil/workspace/arm/lm3s811/TI_Stellaris/driverlib/uart.c ****     // Determine if the UART is busy.
1328:/home/cuil/workspace/arm/lm3s811/TI_Stellaris/driverlib/uart.c ****     //
1329:/home/cuil/workspace/arm/lm3s811/TI_Stellaris/driverlib/uart.c ****     return((HWREG(ulBase + UART_O_FR) & UART_FR_BUSY) ? true : false);
 11154              		.loc 1 1329 0
 11155 0008 7B68     		ldr	r3, [r7, #4]
 11156 000a 03F11803 		add	r3, r3, #24
 11157 000e 1B68     		ldr	r3, [r3, #0]
 11158 0010 03F00803 		and	r3, r3, #8
 11159 0014 002B     		cmp	r3, #0
 11160 0016 0CBF     		ite	eq
 11161 0018 0023     		moveq	r3, #0
 11162 001a 0123     		movne	r3, #1
 11163 001c DBB2     		uxtb	r3, r3
1330:/home/cuil/workspace/arm/lm3s811/TI_Stellaris/driverlib/uart.c **** }
 11164              		.loc 1 1330 0
 11165 001e 1846     		mov	r0, r3
 11166 0020 07F10C07 		add	r7, r7, #12
 11167 0024 BD46     		mov	sp, r7
 11168 0026 80BC     		pop	{r7}
 11169 0028 7047     		bx	lr
 11170              		.cfi_endproc
 11171              	.LFE30:
 11173 002a 00BF     		.section	.text.UARTIntRegister,"ax",%progbits
 11174              		.align	2
 11175              		.global	UARTIntRegister
 11176              		.thumb
 11177              		.thumb_func
 11179              	UARTIntRegister:
 11180              	.LFB31:
1331:/home/cuil/workspace/arm/lm3s811/TI_Stellaris/driverlib/uart.c **** 
1332:/home/cuil/workspace/arm/lm3s811/TI_Stellaris/driverlib/uart.c **** //*****************************************************************************
1333:/home/cuil/workspace/arm/lm3s811/TI_Stellaris/driverlib/uart.c **** //
1334:/home/cuil/workspace/arm/lm3s811/TI_Stellaris/driverlib/uart.c **** //! Registers an interrupt handler for a UART interrupt.
1335:/home/cuil/workspace/arm/lm3s811/TI_Stellaris/driverlib/uart.c **** //!
1336:/home/cuil/workspace/arm/lm3s811/TI_Stellaris/driverlib/uart.c **** //! \param ulBase is the base address of the UART port.
1337:/home/cuil/workspace/arm/lm3s811/TI_Stellaris/driverlib/uart.c **** //! \param pfnHandler is a pointer to the function to be called when the
1338:/home/cuil/workspace/arm/lm3s811/TI_Stellaris/driverlib/uart.c **** //! UART interrupt occurs.
1339:/home/cuil/workspace/arm/lm3s811/TI_Stellaris/driverlib/uart.c **** //!
1340:/home/cuil/workspace/arm/lm3s811/TI_Stellaris/driverlib/uart.c **** //! This function does the actual registering of the interrupt handler.  This
1341:/home/cuil/workspace/arm/lm3s811/TI_Stellaris/driverlib/uart.c **** //! function enables the global interrupt in the interrupt controller; specific
1342:/home/cuil/workspace/arm/lm3s811/TI_Stellaris/driverlib/uart.c **** //! UART interrupts must be enabled via UARTIntEnable().  It is the interrupt
1343:/home/cuil/workspace/arm/lm3s811/TI_Stellaris/driverlib/uart.c **** //! handler's responsibility to clear the interrupt source.
1344:/home/cuil/workspace/arm/lm3s811/TI_Stellaris/driverlib/uart.c **** //!
1345:/home/cuil/workspace/arm/lm3s811/TI_Stellaris/driverlib/uart.c **** //! \sa IntRegister() for important information about registering interrupt
1346:/home/cuil/workspace/arm/lm3s811/TI_Stellaris/driverlib/uart.c **** //! handlers.
1347:/home/cuil/workspace/arm/lm3s811/TI_Stellaris/driverlib/uart.c **** //!
1348:/home/cuil/workspace/arm/lm3s811/TI_Stellaris/driverlib/uart.c **** //! \return None.
1349:/home/cuil/workspace/arm/lm3s811/TI_Stellaris/driverlib/uart.c **** //
1350:/home/cuil/workspace/arm/lm3s811/TI_Stellaris/driverlib/uart.c **** //*****************************************************************************
1351:/home/cuil/workspace/arm/lm3s811/TI_Stellaris/driverlib/uart.c **** void
1352:/home/cuil/workspace/arm/lm3s811/TI_Stellaris/driverlib/uart.c **** UARTIntRegister(unsigned long ulBase, void (*pfnHandler)(void))
1353:/home/cuil/workspace/arm/lm3s811/TI_Stellaris/driverlib/uart.c **** {
 11181              		.loc 1 1353 0
 11182              		.cfi_startproc
 11183              		@ args = 0, pretend = 0, frame = 16
 11184              		@ frame_needed = 1, uses_anonymous_args = 0
 11185 0000 80B5     		push	{r7, lr}
 11186              	.LCFI93:
 11187              		.cfi_def_cfa_offset 8
 11188 0002 84B0     		sub	sp, sp, #16
 11189              	.LCFI94:
 11190              		.cfi_def_cfa_offset 24
 11191 0004 00AF     		add	r7, sp, #0
 11192              		.cfi_offset 14, -4
 11193              		.cfi_offset 7, -8
 11194              	.LCFI95:
 11195              		.cfi_def_cfa_register 7
 11196 0006 7860     		str	r0, [r7, #4]
 11197 0008 3960     		str	r1, [r7, #0]
1354:/home/cuil/workspace/arm/lm3s811/TI_Stellaris/driverlib/uart.c ****     unsigned long ulInt;
1355:/home/cuil/workspace/arm/lm3s811/TI_Stellaris/driverlib/uart.c **** 
1356:/home/cuil/workspace/arm/lm3s811/TI_Stellaris/driverlib/uart.c ****     //
1357:/home/cuil/workspace/arm/lm3s811/TI_Stellaris/driverlib/uart.c ****     // Check the arguments.
1358:/home/cuil/workspace/arm/lm3s811/TI_Stellaris/driverlib/uart.c ****     //
1359:/home/cuil/workspace/arm/lm3s811/TI_Stellaris/driverlib/uart.c ****     ASSERT(UARTBaseValid(ulBase));
1360:/home/cuil/workspace/arm/lm3s811/TI_Stellaris/driverlib/uart.c **** 
1361:/home/cuil/workspace/arm/lm3s811/TI_Stellaris/driverlib/uart.c ****     //
1362:/home/cuil/workspace/arm/lm3s811/TI_Stellaris/driverlib/uart.c ****     // Determine the interrupt number based on the UART port.
1363:/home/cuil/workspace/arm/lm3s811/TI_Stellaris/driverlib/uart.c ****     //
1364:/home/cuil/workspace/arm/lm3s811/TI_Stellaris/driverlib/uart.c ****     ulInt = UARTIntNumberGet(ulBase);
 11198              		.loc 1 1364 0
 11199 000a 7868     		ldr	r0, [r7, #4]
 11200 000c FFF7FEFF 		bl	UARTIntNumberGet
 11201 0010 0346     		mov	r3, r0
 11202 0012 FB60     		str	r3, [r7, #12]
1365:/home/cuil/workspace/arm/lm3s811/TI_Stellaris/driverlib/uart.c **** 
1366:/home/cuil/workspace/arm/lm3s811/TI_Stellaris/driverlib/uart.c ****     //
1367:/home/cuil/workspace/arm/lm3s811/TI_Stellaris/driverlib/uart.c ****     // Register the interrupt handler.
1368:/home/cuil/workspace/arm/lm3s811/TI_Stellaris/driverlib/uart.c ****     //
1369:/home/cuil/workspace/arm/lm3s811/TI_Stellaris/driverlib/uart.c ****     IntRegister(ulInt, pfnHandler);
 11203              		.loc 1 1369 0
 11204 0014 F868     		ldr	r0, [r7, #12]
 11205 0016 3968     		ldr	r1, [r7, #0]
 11206 0018 FFF7FEFF 		bl	IntRegister
1370:/home/cuil/workspace/arm/lm3s811/TI_Stellaris/driverlib/uart.c **** 
1371:/home/cuil/workspace/arm/lm3s811/TI_Stellaris/driverlib/uart.c ****     //
1372:/home/cuil/workspace/arm/lm3s811/TI_Stellaris/driverlib/uart.c ****     // Enable the UART interrupt.
1373:/home/cuil/workspace/arm/lm3s811/TI_Stellaris/driverlib/uart.c ****     //
1374:/home/cuil/workspace/arm/lm3s811/TI_Stellaris/driverlib/uart.c ****     IntEnable(ulInt);
 11207              		.loc 1 1374 0
 11208 001c F868     		ldr	r0, [r7, #12]
 11209 001e FFF7FEFF 		bl	IntEnable
1375:/home/cuil/workspace/arm/lm3s811/TI_Stellaris/driverlib/uart.c **** }
 11210              		.loc 1 1375 0
 11211 0022 07F11007 		add	r7, r7, #16
 11212 0026 BD46     		mov	sp, r7
 11213 0028 80BD     		pop	{r7, pc}
 11214              		.cfi_endproc
 11215              	.LFE31:
 11217 002a 00BF     		.section	.text.UARTIntUnregister,"ax",%progbits
 11218              		.align	2
 11219              		.global	UARTIntUnregister
 11220              		.thumb
 11221              		.thumb_func
 11223              	UARTIntUnregister:
 11224              	.LFB32:
1376:/home/cuil/workspace/arm/lm3s811/TI_Stellaris/driverlib/uart.c **** 
1377:/home/cuil/workspace/arm/lm3s811/TI_Stellaris/driverlib/uart.c **** //*****************************************************************************
1378:/home/cuil/workspace/arm/lm3s811/TI_Stellaris/driverlib/uart.c **** //
1379:/home/cuil/workspace/arm/lm3s811/TI_Stellaris/driverlib/uart.c **** //! Unregisters an interrupt handler for a UART interrupt.
1380:/home/cuil/workspace/arm/lm3s811/TI_Stellaris/driverlib/uart.c **** //!
1381:/home/cuil/workspace/arm/lm3s811/TI_Stellaris/driverlib/uart.c **** //! \param ulBase is the base address of the UART port.
1382:/home/cuil/workspace/arm/lm3s811/TI_Stellaris/driverlib/uart.c **** //!
1383:/home/cuil/workspace/arm/lm3s811/TI_Stellaris/driverlib/uart.c **** //! This function does the actual unregistering of the interrupt handler.  It
1384:/home/cuil/workspace/arm/lm3s811/TI_Stellaris/driverlib/uart.c **** //! clears the handler to be called when a UART interrupt occurs.  This
1385:/home/cuil/workspace/arm/lm3s811/TI_Stellaris/driverlib/uart.c **** //! function also masks off the interrupt in the interrupt controller so that
1386:/home/cuil/workspace/arm/lm3s811/TI_Stellaris/driverlib/uart.c **** //! the interrupt handler no longer is called.
1387:/home/cuil/workspace/arm/lm3s811/TI_Stellaris/driverlib/uart.c **** //!
1388:/home/cuil/workspace/arm/lm3s811/TI_Stellaris/driverlib/uart.c **** //! \sa IntRegister() for important information about registering interrupt
1389:/home/cuil/workspace/arm/lm3s811/TI_Stellaris/driverlib/uart.c **** //! handlers.
1390:/home/cuil/workspace/arm/lm3s811/TI_Stellaris/driverlib/uart.c **** //!
1391:/home/cuil/workspace/arm/lm3s811/TI_Stellaris/driverlib/uart.c **** //! \return None.
1392:/home/cuil/workspace/arm/lm3s811/TI_Stellaris/driverlib/uart.c **** //
1393:/home/cuil/workspace/arm/lm3s811/TI_Stellaris/driverlib/uart.c **** //*****************************************************************************
1394:/home/cuil/workspace/arm/lm3s811/TI_Stellaris/driverlib/uart.c **** void
1395:/home/cuil/workspace/arm/lm3s811/TI_Stellaris/driverlib/uart.c **** UARTIntUnregister(unsigned long ulBase)
1396:/home/cuil/workspace/arm/lm3s811/TI_Stellaris/driverlib/uart.c **** {
 11225              		.loc 1 1396 0
 11226              		.cfi_startproc
 11227              		@ args = 0, pretend = 0, frame = 16
 11228              		@ frame_needed = 1, uses_anonymous_args = 0
 11229 0000 80B5     		push	{r7, lr}
 11230              	.LCFI96:
 11231              		.cfi_def_cfa_offset 8
 11232 0002 84B0     		sub	sp, sp, #16
 11233              	.LCFI97:
 11234              		.cfi_def_cfa_offset 24
 11235 0004 00AF     		add	r7, sp, #0
 11236              		.cfi_offset 14, -4
 11237              		.cfi_offset 7, -8
 11238              	.LCFI98:
 11239              		.cfi_def_cfa_register 7
 11240 0006 7860     		str	r0, [r7, #4]
1397:/home/cuil/workspace/arm/lm3s811/TI_Stellaris/driverlib/uart.c ****     unsigned long ulInt;
1398:/home/cuil/workspace/arm/lm3s811/TI_Stellaris/driverlib/uart.c **** 
1399:/home/cuil/workspace/arm/lm3s811/TI_Stellaris/driverlib/uart.c ****     //
1400:/home/cuil/workspace/arm/lm3s811/TI_Stellaris/driverlib/uart.c ****     // Check the arguments.
1401:/home/cuil/workspace/arm/lm3s811/TI_Stellaris/driverlib/uart.c ****     //
1402:/home/cuil/workspace/arm/lm3s811/TI_Stellaris/driverlib/uart.c ****     ASSERT(UARTBaseValid(ulBase));
1403:/home/cuil/workspace/arm/lm3s811/TI_Stellaris/driverlib/uart.c **** 
1404:/home/cuil/workspace/arm/lm3s811/TI_Stellaris/driverlib/uart.c ****     //
1405:/home/cuil/workspace/arm/lm3s811/TI_Stellaris/driverlib/uart.c ****     // Determine the interrupt number based on the UART port.
1406:/home/cuil/workspace/arm/lm3s811/TI_Stellaris/driverlib/uart.c ****     //
1407:/home/cuil/workspace/arm/lm3s811/TI_Stellaris/driverlib/uart.c ****     ulInt = UARTIntNumberGet(ulBase);
 11241              		.loc 1 1407 0
 11242 0008 7868     		ldr	r0, [r7, #4]
 11243 000a FFF7FEFF 		bl	UARTIntNumberGet
 11244 000e 0346     		mov	r3, r0
 11245 0010 FB60     		str	r3, [r7, #12]
1408:/home/cuil/workspace/arm/lm3s811/TI_Stellaris/driverlib/uart.c **** 
1409:/home/cuil/workspace/arm/lm3s811/TI_Stellaris/driverlib/uart.c ****     //
1410:/home/cuil/workspace/arm/lm3s811/TI_Stellaris/driverlib/uart.c ****     // Disable the interrupt.
1411:/home/cuil/workspace/arm/lm3s811/TI_Stellaris/driverlib/uart.c ****     //
1412:/home/cuil/workspace/arm/lm3s811/TI_Stellaris/driverlib/uart.c ****     IntDisable(ulInt);
 11246              		.loc 1 1412 0
 11247 0012 F868     		ldr	r0, [r7, #12]
 11248 0014 FFF7FEFF 		bl	IntDisable
1413:/home/cuil/workspace/arm/lm3s811/TI_Stellaris/driverlib/uart.c **** 
1414:/home/cuil/workspace/arm/lm3s811/TI_Stellaris/driverlib/uart.c ****     //
1415:/home/cuil/workspace/arm/lm3s811/TI_Stellaris/driverlib/uart.c ****     // Unregister the interrupt handler.
1416:/home/cuil/workspace/arm/lm3s811/TI_Stellaris/driverlib/uart.c ****     //
1417:/home/cuil/workspace/arm/lm3s811/TI_Stellaris/driverlib/uart.c ****     IntUnregister(ulInt);
 11249              		.loc 1 1417 0
 11250 0018 F868     		ldr	r0, [r7, #12]
 11251 001a FFF7FEFF 		bl	IntUnregister
1418:/home/cuil/workspace/arm/lm3s811/TI_Stellaris/driverlib/uart.c **** }
 11252              		.loc 1 1418 0
 11253 001e 07F11007 		add	r7, r7, #16
 11254 0022 BD46     		mov	sp, r7
 11255 0024 80BD     		pop	{r7, pc}
 11256              		.cfi_endproc
 11257              	.LFE32:
 11259 0026 00BF     		.section	.text.UARTIntEnable,"ax",%progbits
 11260              		.align	2
 11261              		.global	UARTIntEnable
 11262              		.thumb
 11263              		.thumb_func
 11265              	UARTIntEnable:
 11266              	.LFB33:
1419:/home/cuil/workspace/arm/lm3s811/TI_Stellaris/driverlib/uart.c **** 
1420:/home/cuil/workspace/arm/lm3s811/TI_Stellaris/driverlib/uart.c **** //*****************************************************************************
1421:/home/cuil/workspace/arm/lm3s811/TI_Stellaris/driverlib/uart.c **** //
1422:/home/cuil/workspace/arm/lm3s811/TI_Stellaris/driverlib/uart.c **** //! Enables individual UART interrupt sources.
1423:/home/cuil/workspace/arm/lm3s811/TI_Stellaris/driverlib/uart.c **** //!
1424:/home/cuil/workspace/arm/lm3s811/TI_Stellaris/driverlib/uart.c **** //! \param ulBase is the base address of the UART port.
1425:/home/cuil/workspace/arm/lm3s811/TI_Stellaris/driverlib/uart.c **** //! \param ulIntFlags is the bit mask of the interrupt sources to be enabled.
1426:/home/cuil/workspace/arm/lm3s811/TI_Stellaris/driverlib/uart.c **** //!
1427:/home/cuil/workspace/arm/lm3s811/TI_Stellaris/driverlib/uart.c **** //! This function enables the indicated UART interrupt sources.  Only the
1428:/home/cuil/workspace/arm/lm3s811/TI_Stellaris/driverlib/uart.c **** //! sources that are enabled can be reflected to the processor interrupt;
1429:/home/cuil/workspace/arm/lm3s811/TI_Stellaris/driverlib/uart.c **** //! disabled sources have no effect on the processor.
1430:/home/cuil/workspace/arm/lm3s811/TI_Stellaris/driverlib/uart.c **** //!
1431:/home/cuil/workspace/arm/lm3s811/TI_Stellaris/driverlib/uart.c **** //! The \e ulIntFlags parameter is the logical OR of any of the following:
1432:/home/cuil/workspace/arm/lm3s811/TI_Stellaris/driverlib/uart.c **** //!
1433:/home/cuil/workspace/arm/lm3s811/TI_Stellaris/driverlib/uart.c **** //! - \b UART_INT_9BIT - 9-bit Address Match interrupt
1434:/home/cuil/workspace/arm/lm3s811/TI_Stellaris/driverlib/uart.c **** //! - \b UART_INT_OE - Overrun Error interrupt
1435:/home/cuil/workspace/arm/lm3s811/TI_Stellaris/driverlib/uart.c **** //! - \b UART_INT_BE - Break Error interrupt
1436:/home/cuil/workspace/arm/lm3s811/TI_Stellaris/driverlib/uart.c **** //! - \b UART_INT_PE - Parity Error interrupt
1437:/home/cuil/workspace/arm/lm3s811/TI_Stellaris/driverlib/uart.c **** //! - \b UART_INT_FE - Framing Error interrupt
1438:/home/cuil/workspace/arm/lm3s811/TI_Stellaris/driverlib/uart.c **** //! - \b UART_INT_RT - Receive Timeout interrupt
1439:/home/cuil/workspace/arm/lm3s811/TI_Stellaris/driverlib/uart.c **** //! - \b UART_INT_TX - Transmit interrupt
1440:/home/cuil/workspace/arm/lm3s811/TI_Stellaris/driverlib/uart.c **** //! - \b UART_INT_RX - Receive interrupt
1441:/home/cuil/workspace/arm/lm3s811/TI_Stellaris/driverlib/uart.c **** //! - \b UART_INT_DSR - DSR interrupt
1442:/home/cuil/workspace/arm/lm3s811/TI_Stellaris/driverlib/uart.c **** //! - \b UART_INT_DCD - DCD interrupt
1443:/home/cuil/workspace/arm/lm3s811/TI_Stellaris/driverlib/uart.c **** //! - \b UART_INT_CTS - CTS interrupt
1444:/home/cuil/workspace/arm/lm3s811/TI_Stellaris/driverlib/uart.c **** //! - \b UART_INT_RI - RI interrupt
1445:/home/cuil/workspace/arm/lm3s811/TI_Stellaris/driverlib/uart.c **** //!
1446:/home/cuil/workspace/arm/lm3s811/TI_Stellaris/driverlib/uart.c **** //! \return None.
1447:/home/cuil/workspace/arm/lm3s811/TI_Stellaris/driverlib/uart.c **** //
1448:/home/cuil/workspace/arm/lm3s811/TI_Stellaris/driverlib/uart.c **** //*****************************************************************************
1449:/home/cuil/workspace/arm/lm3s811/TI_Stellaris/driverlib/uart.c **** void
1450:/home/cuil/workspace/arm/lm3s811/TI_Stellaris/driverlib/uart.c **** UARTIntEnable(unsigned long ulBase, unsigned long ulIntFlags)
1451:/home/cuil/workspace/arm/lm3s811/TI_Stellaris/driverlib/uart.c **** {
 11267              		.loc 1 1451 0
 11268              		.cfi_startproc
 11269              		@ args = 0, pretend = 0, frame = 8
 11270              		@ frame_needed = 1, uses_anonymous_args = 0
 11271              		@ link register save eliminated.
 11272 0000 80B4     		push	{r7}
 11273              	.LCFI99:
 11274              		.cfi_def_cfa_offset 4
 11275 0002 83B0     		sub	sp, sp, #12
 11276              	.LCFI100:
 11277              		.cfi_def_cfa_offset 16
 11278 0004 00AF     		add	r7, sp, #0
 11279              		.cfi_offset 7, -4
 11280              	.LCFI101:
 11281              		.cfi_def_cfa_register 7
 11282 0006 7860     		str	r0, [r7, #4]
 11283 0008 3960     		str	r1, [r7, #0]
1452:/home/cuil/workspace/arm/lm3s811/TI_Stellaris/driverlib/uart.c ****     //
1453:/home/cuil/workspace/arm/lm3s811/TI_Stellaris/driverlib/uart.c ****     // Check the arguments.
1454:/home/cuil/workspace/arm/lm3s811/TI_Stellaris/driverlib/uart.c ****     //
1455:/home/cuil/workspace/arm/lm3s811/TI_Stellaris/driverlib/uart.c ****     ASSERT(UARTBaseValid(ulBase));
1456:/home/cuil/workspace/arm/lm3s811/TI_Stellaris/driverlib/uart.c **** 
1457:/home/cuil/workspace/arm/lm3s811/TI_Stellaris/driverlib/uart.c ****     //
1458:/home/cuil/workspace/arm/lm3s811/TI_Stellaris/driverlib/uart.c ****     // Enable the specified interrupts.
1459:/home/cuil/workspace/arm/lm3s811/TI_Stellaris/driverlib/uart.c ****     //
1460:/home/cuil/workspace/arm/lm3s811/TI_Stellaris/driverlib/uart.c ****     HWREG(ulBase + UART_O_IM) |= ulIntFlags;
 11284              		.loc 1 1460 0
 11285 000a 7B68     		ldr	r3, [r7, #4]
 11286 000c 03F13803 		add	r3, r3, #56
 11287 0010 7A68     		ldr	r2, [r7, #4]
 11288 0012 02F13802 		add	r2, r2, #56
 11289 0016 1168     		ldr	r1, [r2, #0]
 11290 0018 3A68     		ldr	r2, [r7, #0]
 11291 001a 41EA0202 		orr	r2, r1, r2
 11292 001e 1A60     		str	r2, [r3, #0]
1461:/home/cuil/workspace/arm/lm3s811/TI_Stellaris/driverlib/uart.c **** }
 11293              		.loc 1 1461 0
 11294 0020 07F10C07 		add	r7, r7, #12
 11295 0024 BD46     		mov	sp, r7
 11296 0026 80BC     		pop	{r7}
 11297 0028 7047     		bx	lr
 11298              		.cfi_endproc
 11299              	.LFE33:
 11301 002a 00BF     		.section	.text.UARTIntDisable,"ax",%progbits
 11302              		.align	2
 11303              		.global	UARTIntDisable
 11304              		.thumb
 11305              		.thumb_func
 11307              	UARTIntDisable:
 11308              	.LFB34:
1462:/home/cuil/workspace/arm/lm3s811/TI_Stellaris/driverlib/uart.c **** 
1463:/home/cuil/workspace/arm/lm3s811/TI_Stellaris/driverlib/uart.c **** //*****************************************************************************
1464:/home/cuil/workspace/arm/lm3s811/TI_Stellaris/driverlib/uart.c **** //
1465:/home/cuil/workspace/arm/lm3s811/TI_Stellaris/driverlib/uart.c **** //! Disables individual UART interrupt sources.
1466:/home/cuil/workspace/arm/lm3s811/TI_Stellaris/driverlib/uart.c **** //!
1467:/home/cuil/workspace/arm/lm3s811/TI_Stellaris/driverlib/uart.c **** //! \param ulBase is the base address of the UART port.
1468:/home/cuil/workspace/arm/lm3s811/TI_Stellaris/driverlib/uart.c **** //! \param ulIntFlags is the bit mask of the interrupt sources to be disabled.
1469:/home/cuil/workspace/arm/lm3s811/TI_Stellaris/driverlib/uart.c **** //!
1470:/home/cuil/workspace/arm/lm3s811/TI_Stellaris/driverlib/uart.c **** //! This function disables the indicated UART interrupt sources.  Only the
1471:/home/cuil/workspace/arm/lm3s811/TI_Stellaris/driverlib/uart.c **** //! sources that are enabled can be reflected to the processor interrupt;
1472:/home/cuil/workspace/arm/lm3s811/TI_Stellaris/driverlib/uart.c **** //! disabled sources have no effect on the processor.
1473:/home/cuil/workspace/arm/lm3s811/TI_Stellaris/driverlib/uart.c **** //!
1474:/home/cuil/workspace/arm/lm3s811/TI_Stellaris/driverlib/uart.c **** //! The \e ulIntFlags parameter has the same definition as the \e ulIntFlags
1475:/home/cuil/workspace/arm/lm3s811/TI_Stellaris/driverlib/uart.c **** //! parameter to UARTIntEnable().
1476:/home/cuil/workspace/arm/lm3s811/TI_Stellaris/driverlib/uart.c **** //!
1477:/home/cuil/workspace/arm/lm3s811/TI_Stellaris/driverlib/uart.c **** //! \return None.
1478:/home/cuil/workspace/arm/lm3s811/TI_Stellaris/driverlib/uart.c **** //
1479:/home/cuil/workspace/arm/lm3s811/TI_Stellaris/driverlib/uart.c **** //*****************************************************************************
1480:/home/cuil/workspace/arm/lm3s811/TI_Stellaris/driverlib/uart.c **** void
1481:/home/cuil/workspace/arm/lm3s811/TI_Stellaris/driverlib/uart.c **** UARTIntDisable(unsigned long ulBase, unsigned long ulIntFlags)
1482:/home/cuil/workspace/arm/lm3s811/TI_Stellaris/driverlib/uart.c **** {
 11309              		.loc 1 1482 0
 11310              		.cfi_startproc
 11311              		@ args = 0, pretend = 0, frame = 8
 11312              		@ frame_needed = 1, uses_anonymous_args = 0
 11313              		@ link register save eliminated.
 11314 0000 80B4     		push	{r7}
 11315              	.LCFI102:
 11316              		.cfi_def_cfa_offset 4
 11317 0002 83B0     		sub	sp, sp, #12
 11318              	.LCFI103:
 11319              		.cfi_def_cfa_offset 16
 11320 0004 00AF     		add	r7, sp, #0
 11321              		.cfi_offset 7, -4
 11322              	.LCFI104:
 11323              		.cfi_def_cfa_register 7
 11324 0006 7860     		str	r0, [r7, #4]
 11325 0008 3960     		str	r1, [r7, #0]
1483:/home/cuil/workspace/arm/lm3s811/TI_Stellaris/driverlib/uart.c ****     //
1484:/home/cuil/workspace/arm/lm3s811/TI_Stellaris/driverlib/uart.c ****     // Check the arguments.
1485:/home/cuil/workspace/arm/lm3s811/TI_Stellaris/driverlib/uart.c ****     //
1486:/home/cuil/workspace/arm/lm3s811/TI_Stellaris/driverlib/uart.c ****     ASSERT(UARTBaseValid(ulBase));
1487:/home/cuil/workspace/arm/lm3s811/TI_Stellaris/driverlib/uart.c **** 
1488:/home/cuil/workspace/arm/lm3s811/TI_Stellaris/driverlib/uart.c ****     //
1489:/home/cuil/workspace/arm/lm3s811/TI_Stellaris/driverlib/uart.c ****     // Disable the specified interrupts.
1490:/home/cuil/workspace/arm/lm3s811/TI_Stellaris/driverlib/uart.c ****     //
1491:/home/cuil/workspace/arm/lm3s811/TI_Stellaris/driverlib/uart.c ****     HWREG(ulBase + UART_O_IM) &= ~(ulIntFlags);
 11326              		.loc 1 1491 0
 11327 000a 7B68     		ldr	r3, [r7, #4]
 11328 000c 03F13803 		add	r3, r3, #56
 11329 0010 7A68     		ldr	r2, [r7, #4]
 11330 0012 02F13802 		add	r2, r2, #56
 11331 0016 1168     		ldr	r1, [r2, #0]
 11332 0018 3A68     		ldr	r2, [r7, #0]
 11333 001a 6FEA0202 		mvn	r2, r2
 11334 001e 01EA0202 		and	r2, r1, r2
 11335 0022 1A60     		str	r2, [r3, #0]
1492:/home/cuil/workspace/arm/lm3s811/TI_Stellaris/driverlib/uart.c **** }
 11336              		.loc 1 1492 0
 11337 0024 07F10C07 		add	r7, r7, #12
 11338 0028 BD46     		mov	sp, r7
 11339 002a 80BC     		pop	{r7}
 11340 002c 7047     		bx	lr
 11341              		.cfi_endproc
 11342              	.LFE34:
 11344 002e 00BF     		.section	.text.UARTIntStatus,"ax",%progbits
 11345              		.align	2
 11346              		.global	UARTIntStatus
 11347              		.thumb
 11348              		.thumb_func
 11350              	UARTIntStatus:
 11351              	.LFB35:
1493:/home/cuil/workspace/arm/lm3s811/TI_Stellaris/driverlib/uart.c **** 
1494:/home/cuil/workspace/arm/lm3s811/TI_Stellaris/driverlib/uart.c **** //*****************************************************************************
1495:/home/cuil/workspace/arm/lm3s811/TI_Stellaris/driverlib/uart.c **** //
1496:/home/cuil/workspace/arm/lm3s811/TI_Stellaris/driverlib/uart.c **** //! Gets the current interrupt status.
1497:/home/cuil/workspace/arm/lm3s811/TI_Stellaris/driverlib/uart.c **** //!
1498:/home/cuil/workspace/arm/lm3s811/TI_Stellaris/driverlib/uart.c **** //! \param ulBase is the base address of the UART port.
1499:/home/cuil/workspace/arm/lm3s811/TI_Stellaris/driverlib/uart.c **** //! \param bMasked is \b false if the raw interrupt status is required and
1500:/home/cuil/workspace/arm/lm3s811/TI_Stellaris/driverlib/uart.c **** //! \b true if the masked interrupt status is required.
1501:/home/cuil/workspace/arm/lm3s811/TI_Stellaris/driverlib/uart.c **** //!
1502:/home/cuil/workspace/arm/lm3s811/TI_Stellaris/driverlib/uart.c **** //! This function returns the interrupt status for the specified UART.  Either
1503:/home/cuil/workspace/arm/lm3s811/TI_Stellaris/driverlib/uart.c **** //! the raw interrupt status or the status of interrupts that are allowed to
1504:/home/cuil/workspace/arm/lm3s811/TI_Stellaris/driverlib/uart.c **** //! reflect to the processor can be returned.
1505:/home/cuil/workspace/arm/lm3s811/TI_Stellaris/driverlib/uart.c **** //!
1506:/home/cuil/workspace/arm/lm3s811/TI_Stellaris/driverlib/uart.c **** //! \return Returns the current interrupt status, enumerated as a bit field of
1507:/home/cuil/workspace/arm/lm3s811/TI_Stellaris/driverlib/uart.c **** //! values described in UARTIntEnable().
1508:/home/cuil/workspace/arm/lm3s811/TI_Stellaris/driverlib/uart.c **** //
1509:/home/cuil/workspace/arm/lm3s811/TI_Stellaris/driverlib/uart.c **** //*****************************************************************************
1510:/home/cuil/workspace/arm/lm3s811/TI_Stellaris/driverlib/uart.c **** unsigned long
1511:/home/cuil/workspace/arm/lm3s811/TI_Stellaris/driverlib/uart.c **** UARTIntStatus(unsigned long ulBase, tBoolean bMasked)
1512:/home/cuil/workspace/arm/lm3s811/TI_Stellaris/driverlib/uart.c **** {
 11352              		.loc 1 1512 0
 11353              		.cfi_startproc
 11354              		@ args = 0, pretend = 0, frame = 8
 11355              		@ frame_needed = 1, uses_anonymous_args = 0
 11356              		@ link register save eliminated.
 11357 0000 80B4     		push	{r7}
 11358              	.LCFI105:
 11359              		.cfi_def_cfa_offset 4
 11360 0002 83B0     		sub	sp, sp, #12
 11361              	.LCFI106:
 11362              		.cfi_def_cfa_offset 16
 11363 0004 00AF     		add	r7, sp, #0
 11364              		.cfi_offset 7, -4
 11365              	.LCFI107:
 11366              		.cfi_def_cfa_register 7
 11367 0006 7860     		str	r0, [r7, #4]
 11368 0008 0B46     		mov	r3, r1
 11369 000a FB70     		strb	r3, [r7, #3]
1513:/home/cuil/workspace/arm/lm3s811/TI_Stellaris/driverlib/uart.c ****     //
1514:/home/cuil/workspace/arm/lm3s811/TI_Stellaris/driverlib/uart.c ****     // Check the arguments.
1515:/home/cuil/workspace/arm/lm3s811/TI_Stellaris/driverlib/uart.c ****     //
1516:/home/cuil/workspace/arm/lm3s811/TI_Stellaris/driverlib/uart.c ****     ASSERT(UARTBaseValid(ulBase));
1517:/home/cuil/workspace/arm/lm3s811/TI_Stellaris/driverlib/uart.c **** 
1518:/home/cuil/workspace/arm/lm3s811/TI_Stellaris/driverlib/uart.c ****     //
1519:/home/cuil/workspace/arm/lm3s811/TI_Stellaris/driverlib/uart.c ****     // Return either the interrupt status or the raw interrupt status as
1520:/home/cuil/workspace/arm/lm3s811/TI_Stellaris/driverlib/uart.c ****     // requested.
1521:/home/cuil/workspace/arm/lm3s811/TI_Stellaris/driverlib/uart.c ****     //
1522:/home/cuil/workspace/arm/lm3s811/TI_Stellaris/driverlib/uart.c ****     if(bMasked)
 11370              		.loc 1 1522 0
 11371 000c FB78     		ldrb	r3, [r7, #3]	@ zero_extendqisi2
 11372 000e 002B     		cmp	r3, #0
 11373 0010 04D0     		beq	.L57
1523:/home/cuil/workspace/arm/lm3s811/TI_Stellaris/driverlib/uart.c ****     {
1524:/home/cuil/workspace/arm/lm3s811/TI_Stellaris/driverlib/uart.c ****         return(HWREG(ulBase + UART_O_MIS));
 11374              		.loc 1 1524 0
 11375 0012 7B68     		ldr	r3, [r7, #4]
 11376 0014 03F14003 		add	r3, r3, #64
 11377 0018 1B68     		ldr	r3, [r3, #0]
 11378 001a 03E0     		b	.L58
 11379              	.L57:
1525:/home/cuil/workspace/arm/lm3s811/TI_Stellaris/driverlib/uart.c ****     }
1526:/home/cuil/workspace/arm/lm3s811/TI_Stellaris/driverlib/uart.c ****     else
1527:/home/cuil/workspace/arm/lm3s811/TI_Stellaris/driverlib/uart.c ****     {
1528:/home/cuil/workspace/arm/lm3s811/TI_Stellaris/driverlib/uart.c ****         return(HWREG(ulBase + UART_O_RIS));
 11380              		.loc 1 1528 0
 11381 001c 7B68     		ldr	r3, [r7, #4]
 11382 001e 03F13C03 		add	r3, r3, #60
 11383 0022 1B68     		ldr	r3, [r3, #0]
 11384              	.L58:
1529:/home/cuil/workspace/arm/lm3s811/TI_Stellaris/driverlib/uart.c ****     }
1530:/home/cuil/workspace/arm/lm3s811/TI_Stellaris/driverlib/uart.c **** }
 11385              		.loc 1 1530 0
 11386 0024 1846     		mov	r0, r3
 11387 0026 07F10C07 		add	r7, r7, #12
 11388 002a BD46     		mov	sp, r7
 11389 002c 80BC     		pop	{r7}
 11390 002e 7047     		bx	lr
 11391              		.cfi_endproc
 11392              	.LFE35:
 11394              		.section	.text.UARTIntClear,"ax",%progbits
 11395              		.align	2
 11396              		.global	UARTIntClear
 11397              		.thumb
 11398              		.thumb_func
 11400              	UARTIntClear:
 11401              	.LFB36:
1531:/home/cuil/workspace/arm/lm3s811/TI_Stellaris/driverlib/uart.c **** 
1532:/home/cuil/workspace/arm/lm3s811/TI_Stellaris/driverlib/uart.c **** //*****************************************************************************
1533:/home/cuil/workspace/arm/lm3s811/TI_Stellaris/driverlib/uart.c **** //
1534:/home/cuil/workspace/arm/lm3s811/TI_Stellaris/driverlib/uart.c **** //! Clears UART interrupt sources.
1535:/home/cuil/workspace/arm/lm3s811/TI_Stellaris/driverlib/uart.c **** //!
1536:/home/cuil/workspace/arm/lm3s811/TI_Stellaris/driverlib/uart.c **** //! \param ulBase is the base address of the UART port.
1537:/home/cuil/workspace/arm/lm3s811/TI_Stellaris/driverlib/uart.c **** //! \param ulIntFlags is a bit mask of the interrupt sources to be cleared.
1538:/home/cuil/workspace/arm/lm3s811/TI_Stellaris/driverlib/uart.c **** //!
1539:/home/cuil/workspace/arm/lm3s811/TI_Stellaris/driverlib/uart.c **** //! The specified UART interrupt sources are cleared, so that they no longer
1540:/home/cuil/workspace/arm/lm3s811/TI_Stellaris/driverlib/uart.c **** //! assert.  This function must be called in the interrupt handler to keep the
1541:/home/cuil/workspace/arm/lm3s811/TI_Stellaris/driverlib/uart.c **** //! interrupt from being triggered again immediately upon exit.
1542:/home/cuil/workspace/arm/lm3s811/TI_Stellaris/driverlib/uart.c **** //!
1543:/home/cuil/workspace/arm/lm3s811/TI_Stellaris/driverlib/uart.c **** //! The \e ulIntFlags parameter has the same definition as the \e ulIntFlags
1544:/home/cuil/workspace/arm/lm3s811/TI_Stellaris/driverlib/uart.c **** //! parameter to UARTIntEnable().
1545:/home/cuil/workspace/arm/lm3s811/TI_Stellaris/driverlib/uart.c **** //!
1546:/home/cuil/workspace/arm/lm3s811/TI_Stellaris/driverlib/uart.c **** //! \note Because there is a write buffer in the Cortex-M processor, it may
1547:/home/cuil/workspace/arm/lm3s811/TI_Stellaris/driverlib/uart.c **** //! take several clock cycles before the interrupt source is actually cleared.
1548:/home/cuil/workspace/arm/lm3s811/TI_Stellaris/driverlib/uart.c **** //! Therefore, it is recommended that the interrupt source be cleared early in
1549:/home/cuil/workspace/arm/lm3s811/TI_Stellaris/driverlib/uart.c **** //! the interrupt handler (as opposed to the very last action) to avoid
1550:/home/cuil/workspace/arm/lm3s811/TI_Stellaris/driverlib/uart.c **** //! returning from the interrupt handler before the interrupt source is
1551:/home/cuil/workspace/arm/lm3s811/TI_Stellaris/driverlib/uart.c **** //! actually cleared.  Failure to do so may result in the interrupt handler
1552:/home/cuil/workspace/arm/lm3s811/TI_Stellaris/driverlib/uart.c **** //! being immediately reentered (because the interrupt controller still sees
1553:/home/cuil/workspace/arm/lm3s811/TI_Stellaris/driverlib/uart.c **** //! the interrupt source asserted).
1554:/home/cuil/workspace/arm/lm3s811/TI_Stellaris/driverlib/uart.c **** //!
1555:/home/cuil/workspace/arm/lm3s811/TI_Stellaris/driverlib/uart.c **** //! \return None.
1556:/home/cuil/workspace/arm/lm3s811/TI_Stellaris/driverlib/uart.c **** //
1557:/home/cuil/workspace/arm/lm3s811/TI_Stellaris/driverlib/uart.c **** //*****************************************************************************
1558:/home/cuil/workspace/arm/lm3s811/TI_Stellaris/driverlib/uart.c **** void
1559:/home/cuil/workspace/arm/lm3s811/TI_Stellaris/driverlib/uart.c **** UARTIntClear(unsigned long ulBase, unsigned long ulIntFlags)
1560:/home/cuil/workspace/arm/lm3s811/TI_Stellaris/driverlib/uart.c **** {
 11402              		.loc 1 1560 0
 11403              		.cfi_startproc
 11404              		@ args = 0, pretend = 0, frame = 8
 11405              		@ frame_needed = 1, uses_anonymous_args = 0
 11406              		@ link register save eliminated.
 11407 0000 80B4     		push	{r7}
 11408              	.LCFI108:
 11409              		.cfi_def_cfa_offset 4
 11410 0002 83B0     		sub	sp, sp, #12
 11411              	.LCFI109:
 11412              		.cfi_def_cfa_offset 16
 11413 0004 00AF     		add	r7, sp, #0
 11414              		.cfi_offset 7, -4
 11415              	.LCFI110:
 11416              		.cfi_def_cfa_register 7
 11417 0006 7860     		str	r0, [r7, #4]
 11418 0008 3960     		str	r1, [r7, #0]
1561:/home/cuil/workspace/arm/lm3s811/TI_Stellaris/driverlib/uart.c ****     //
1562:/home/cuil/workspace/arm/lm3s811/TI_Stellaris/driverlib/uart.c ****     // Check the arguments.
1563:/home/cuil/workspace/arm/lm3s811/TI_Stellaris/driverlib/uart.c ****     //
1564:/home/cuil/workspace/arm/lm3s811/TI_Stellaris/driverlib/uart.c ****     ASSERT(UARTBaseValid(ulBase));
1565:/home/cuil/workspace/arm/lm3s811/TI_Stellaris/driverlib/uart.c **** 
1566:/home/cuil/workspace/arm/lm3s811/TI_Stellaris/driverlib/uart.c ****     //
1567:/home/cuil/workspace/arm/lm3s811/TI_Stellaris/driverlib/uart.c ****     // Clear the requested interrupt sources.
1568:/home/cuil/workspace/arm/lm3s811/TI_Stellaris/driverlib/uart.c ****     //
1569:/home/cuil/workspace/arm/lm3s811/TI_Stellaris/driverlib/uart.c ****     HWREG(ulBase + UART_O_ICR) = ulIntFlags;
 11419              		.loc 1 1569 0
 11420 000a 7B68     		ldr	r3, [r7, #4]
 11421 000c 03F14403 		add	r3, r3, #68
 11422 0010 3A68     		ldr	r2, [r7, #0]
 11423 0012 1A60     		str	r2, [r3, #0]
1570:/home/cuil/workspace/arm/lm3s811/TI_Stellaris/driverlib/uart.c **** }
 11424              		.loc 1 1570 0
 11425 0014 07F10C07 		add	r7, r7, #12
 11426 0018 BD46     		mov	sp, r7
 11427 001a 80BC     		pop	{r7}
 11428 001c 7047     		bx	lr
 11429              		.cfi_endproc
 11430              	.LFE36:
 11432 001e 00BF     		.section	.text.UARTDMAEnable,"ax",%progbits
 11433              		.align	2
 11434              		.global	UARTDMAEnable
 11435              		.thumb
 11436              		.thumb_func
 11438              	UARTDMAEnable:
 11439              	.LFB37:
1571:/home/cuil/workspace/arm/lm3s811/TI_Stellaris/driverlib/uart.c **** 
1572:/home/cuil/workspace/arm/lm3s811/TI_Stellaris/driverlib/uart.c **** //*****************************************************************************
1573:/home/cuil/workspace/arm/lm3s811/TI_Stellaris/driverlib/uart.c **** //
1574:/home/cuil/workspace/arm/lm3s811/TI_Stellaris/driverlib/uart.c **** //! Enable UART DMA operation.
1575:/home/cuil/workspace/arm/lm3s811/TI_Stellaris/driverlib/uart.c **** //!
1576:/home/cuil/workspace/arm/lm3s811/TI_Stellaris/driverlib/uart.c **** //! \param ulBase is the base address of the UART port.
1577:/home/cuil/workspace/arm/lm3s811/TI_Stellaris/driverlib/uart.c **** //! \param ulDMAFlags is a bit mask of the DMA features to enable.
1578:/home/cuil/workspace/arm/lm3s811/TI_Stellaris/driverlib/uart.c **** //!
1579:/home/cuil/workspace/arm/lm3s811/TI_Stellaris/driverlib/uart.c **** //! The specified UART DMA features are enabled.  The UART can be
1580:/home/cuil/workspace/arm/lm3s811/TI_Stellaris/driverlib/uart.c **** //! configured to use DMA for transmit or receive and to disable
1581:/home/cuil/workspace/arm/lm3s811/TI_Stellaris/driverlib/uart.c **** //! receive if an error occurs.  The \e ulDMAFlags parameter is the
1582:/home/cuil/workspace/arm/lm3s811/TI_Stellaris/driverlib/uart.c **** //! logical OR of any of the following values:
1583:/home/cuil/workspace/arm/lm3s811/TI_Stellaris/driverlib/uart.c **** //!
1584:/home/cuil/workspace/arm/lm3s811/TI_Stellaris/driverlib/uart.c **** //! - UART_DMA_RX - enable DMA for receive
1585:/home/cuil/workspace/arm/lm3s811/TI_Stellaris/driverlib/uart.c **** //! - UART_DMA_TX - enable DMA for transmit
1586:/home/cuil/workspace/arm/lm3s811/TI_Stellaris/driverlib/uart.c **** //! - UART_DMA_ERR_RXSTOP - disable DMA receive on UART error
1587:/home/cuil/workspace/arm/lm3s811/TI_Stellaris/driverlib/uart.c **** //!
1588:/home/cuil/workspace/arm/lm3s811/TI_Stellaris/driverlib/uart.c **** //! \note The uDMA controller must also be set up before DMA can be used
1589:/home/cuil/workspace/arm/lm3s811/TI_Stellaris/driverlib/uart.c **** //! with the UART.
1590:/home/cuil/workspace/arm/lm3s811/TI_Stellaris/driverlib/uart.c **** //!
1591:/home/cuil/workspace/arm/lm3s811/TI_Stellaris/driverlib/uart.c **** //! \return None.
1592:/home/cuil/workspace/arm/lm3s811/TI_Stellaris/driverlib/uart.c **** //
1593:/home/cuil/workspace/arm/lm3s811/TI_Stellaris/driverlib/uart.c **** //*****************************************************************************
1594:/home/cuil/workspace/arm/lm3s811/TI_Stellaris/driverlib/uart.c **** void
1595:/home/cuil/workspace/arm/lm3s811/TI_Stellaris/driverlib/uart.c **** UARTDMAEnable(unsigned long ulBase, unsigned long ulDMAFlags)
1596:/home/cuil/workspace/arm/lm3s811/TI_Stellaris/driverlib/uart.c **** {
 11440              		.loc 1 1596 0
 11441              		.cfi_startproc
 11442              		@ args = 0, pretend = 0, frame = 8
 11443              		@ frame_needed = 1, uses_anonymous_args = 0
 11444              		@ link register save eliminated.
 11445 0000 80B4     		push	{r7}
 11446              	.LCFI111:
 11447              		.cfi_def_cfa_offset 4
 11448 0002 83B0     		sub	sp, sp, #12
 11449              	.LCFI112:
 11450              		.cfi_def_cfa_offset 16
 11451 0004 00AF     		add	r7, sp, #0
 11452              		.cfi_offset 7, -4
 11453              	.LCFI113:
 11454              		.cfi_def_cfa_register 7
 11455 0006 7860     		str	r0, [r7, #4]
 11456 0008 3960     		str	r1, [r7, #0]
1597:/home/cuil/workspace/arm/lm3s811/TI_Stellaris/driverlib/uart.c ****     //
1598:/home/cuil/workspace/arm/lm3s811/TI_Stellaris/driverlib/uart.c ****     // Check the arguments.
1599:/home/cuil/workspace/arm/lm3s811/TI_Stellaris/driverlib/uart.c ****     //
1600:/home/cuil/workspace/arm/lm3s811/TI_Stellaris/driverlib/uart.c ****     ASSERT(UARTBaseValid(ulBase));
1601:/home/cuil/workspace/arm/lm3s811/TI_Stellaris/driverlib/uart.c **** 
1602:/home/cuil/workspace/arm/lm3s811/TI_Stellaris/driverlib/uart.c ****     //
1603:/home/cuil/workspace/arm/lm3s811/TI_Stellaris/driverlib/uart.c ****     // Set the requested bits in the UART DMA control register.
1604:/home/cuil/workspace/arm/lm3s811/TI_Stellaris/driverlib/uart.c ****     //
1605:/home/cuil/workspace/arm/lm3s811/TI_Stellaris/driverlib/uart.c ****     HWREG(ulBase + UART_O_DMACTL) |= ulDMAFlags;
 11457              		.loc 1 1605 0
 11458 000a 7B68     		ldr	r3, [r7, #4]
 11459 000c 03F14803 		add	r3, r3, #72
 11460 0010 7A68     		ldr	r2, [r7, #4]
 11461 0012 02F14802 		add	r2, r2, #72
 11462 0016 1168     		ldr	r1, [r2, #0]
 11463 0018 3A68     		ldr	r2, [r7, #0]
 11464 001a 41EA0202 		orr	r2, r1, r2
 11465 001e 1A60     		str	r2, [r3, #0]
1606:/home/cuil/workspace/arm/lm3s811/TI_Stellaris/driverlib/uart.c **** }
 11466              		.loc 1 1606 0
 11467 0020 07F10C07 		add	r7, r7, #12
 11468 0024 BD46     		mov	sp, r7
 11469 0026 80BC     		pop	{r7}
 11470 0028 7047     		bx	lr
 11471              		.cfi_endproc
 11472              	.LFE37:
 11474 002a 00BF     		.section	.text.UARTDMADisable,"ax",%progbits
 11475              		.align	2
 11476              		.global	UARTDMADisable
 11477              		.thumb
 11478              		.thumb_func
 11480              	UARTDMADisable:
 11481              	.LFB38:
1607:/home/cuil/workspace/arm/lm3s811/TI_Stellaris/driverlib/uart.c **** 
1608:/home/cuil/workspace/arm/lm3s811/TI_Stellaris/driverlib/uart.c **** //*****************************************************************************
1609:/home/cuil/workspace/arm/lm3s811/TI_Stellaris/driverlib/uart.c **** //
1610:/home/cuil/workspace/arm/lm3s811/TI_Stellaris/driverlib/uart.c **** //! Disable UART DMA operation.
1611:/home/cuil/workspace/arm/lm3s811/TI_Stellaris/driverlib/uart.c **** //!
1612:/home/cuil/workspace/arm/lm3s811/TI_Stellaris/driverlib/uart.c **** //! \param ulBase is the base address of the UART port.
1613:/home/cuil/workspace/arm/lm3s811/TI_Stellaris/driverlib/uart.c **** //! \param ulDMAFlags is a bit mask of the DMA features to disable.
1614:/home/cuil/workspace/arm/lm3s811/TI_Stellaris/driverlib/uart.c **** //!
1615:/home/cuil/workspace/arm/lm3s811/TI_Stellaris/driverlib/uart.c **** //! This function is used to disable UART DMA features that were enabled
1616:/home/cuil/workspace/arm/lm3s811/TI_Stellaris/driverlib/uart.c **** //! by UARTDMAEnable().  The specified UART DMA features are disabled.  The
1617:/home/cuil/workspace/arm/lm3s811/TI_Stellaris/driverlib/uart.c **** //! \e ulDMAFlags parameter is the logical OR of any of the following values:
1618:/home/cuil/workspace/arm/lm3s811/TI_Stellaris/driverlib/uart.c **** //!
1619:/home/cuil/workspace/arm/lm3s811/TI_Stellaris/driverlib/uart.c **** //! - UART_DMA_RX - disable DMA for receive
1620:/home/cuil/workspace/arm/lm3s811/TI_Stellaris/driverlib/uart.c **** //! - UART_DMA_TX - disable DMA for transmit
1621:/home/cuil/workspace/arm/lm3s811/TI_Stellaris/driverlib/uart.c **** //! - UART_DMA_ERR_RXSTOP - do not disable DMA receive on UART error
1622:/home/cuil/workspace/arm/lm3s811/TI_Stellaris/driverlib/uart.c **** //!
1623:/home/cuil/workspace/arm/lm3s811/TI_Stellaris/driverlib/uart.c **** //! \return None.
1624:/home/cuil/workspace/arm/lm3s811/TI_Stellaris/driverlib/uart.c **** //
1625:/home/cuil/workspace/arm/lm3s811/TI_Stellaris/driverlib/uart.c **** //*****************************************************************************
1626:/home/cuil/workspace/arm/lm3s811/TI_Stellaris/driverlib/uart.c **** void
1627:/home/cuil/workspace/arm/lm3s811/TI_Stellaris/driverlib/uart.c **** UARTDMADisable(unsigned long ulBase, unsigned long ulDMAFlags)
1628:/home/cuil/workspace/arm/lm3s811/TI_Stellaris/driverlib/uart.c **** {
 11482              		.loc 1 1628 0
 11483              		.cfi_startproc
 11484              		@ args = 0, pretend = 0, frame = 8
 11485              		@ frame_needed = 1, uses_anonymous_args = 0
 11486              		@ link register save eliminated.
 11487 0000 80B4     		push	{r7}
 11488              	.LCFI114:
 11489              		.cfi_def_cfa_offset 4
 11490 0002 83B0     		sub	sp, sp, #12
 11491              	.LCFI115:
 11492              		.cfi_def_cfa_offset 16
 11493 0004 00AF     		add	r7, sp, #0
 11494              		.cfi_offset 7, -4
 11495              	.LCFI116:
 11496              		.cfi_def_cfa_register 7
 11497 0006 7860     		str	r0, [r7, #4]
 11498 0008 3960     		str	r1, [r7, #0]
1629:/home/cuil/workspace/arm/lm3s811/TI_Stellaris/driverlib/uart.c ****     //
1630:/home/cuil/workspace/arm/lm3s811/TI_Stellaris/driverlib/uart.c ****     // Check the arguments.
1631:/home/cuil/workspace/arm/lm3s811/TI_Stellaris/driverlib/uart.c ****     //
1632:/home/cuil/workspace/arm/lm3s811/TI_Stellaris/driverlib/uart.c ****     ASSERT(UARTBaseValid(ulBase));
1633:/home/cuil/workspace/arm/lm3s811/TI_Stellaris/driverlib/uart.c **** 
1634:/home/cuil/workspace/arm/lm3s811/TI_Stellaris/driverlib/uart.c ****     //
1635:/home/cuil/workspace/arm/lm3s811/TI_Stellaris/driverlib/uart.c ****     // Clear the requested bits in the UART DMA control register.
1636:/home/cuil/workspace/arm/lm3s811/TI_Stellaris/driverlib/uart.c ****     //
1637:/home/cuil/workspace/arm/lm3s811/TI_Stellaris/driverlib/uart.c ****     HWREG(ulBase + UART_O_DMACTL) &= ~ulDMAFlags;
 11499              		.loc 1 1637 0
 11500 000a 7B68     		ldr	r3, [r7, #4]
 11501 000c 03F14803 		add	r3, r3, #72
 11502 0010 7A68     		ldr	r2, [r7, #4]
 11503 0012 02F14802 		add	r2, r2, #72
 11504 0016 1168     		ldr	r1, [r2, #0]
 11505 0018 3A68     		ldr	r2, [r7, #0]
 11506 001a 6FEA0202 		mvn	r2, r2
 11507 001e 01EA0202 		and	r2, r1, r2
 11508 0022 1A60     		str	r2, [r3, #0]
1638:/home/cuil/workspace/arm/lm3s811/TI_Stellaris/driverlib/uart.c **** }
 11509              		.loc 1 1638 0
 11510 0024 07F10C07 		add	r7, r7, #12
 11511 0028 BD46     		mov	sp, r7
 11512 002a 80BC     		pop	{r7}
 11513 002c 7047     		bx	lr
 11514              		.cfi_endproc
 11515              	.LFE38:
 11517 002e 00BF     		.section	.text.UARTRxErrorGet,"ax",%progbits
 11518              		.align	2
 11519              		.global	UARTRxErrorGet
 11520              		.thumb
 11521              		.thumb_func
 11523              	UARTRxErrorGet:
 11524              	.LFB39:
1639:/home/cuil/workspace/arm/lm3s811/TI_Stellaris/driverlib/uart.c **** 
1640:/home/cuil/workspace/arm/lm3s811/TI_Stellaris/driverlib/uart.c **** //*****************************************************************************
1641:/home/cuil/workspace/arm/lm3s811/TI_Stellaris/driverlib/uart.c **** //
1642:/home/cuil/workspace/arm/lm3s811/TI_Stellaris/driverlib/uart.c **** //! Gets current receiver errors.
1643:/home/cuil/workspace/arm/lm3s811/TI_Stellaris/driverlib/uart.c **** //!
1644:/home/cuil/workspace/arm/lm3s811/TI_Stellaris/driverlib/uart.c **** //! \param ulBase is the base address of the UART port.
1645:/home/cuil/workspace/arm/lm3s811/TI_Stellaris/driverlib/uart.c **** //!
1646:/home/cuil/workspace/arm/lm3s811/TI_Stellaris/driverlib/uart.c **** //! This function returns the current state of each of the 4 receiver error
1647:/home/cuil/workspace/arm/lm3s811/TI_Stellaris/driverlib/uart.c **** //! sources.  The returned errors are equivalent to the four error bits
1648:/home/cuil/workspace/arm/lm3s811/TI_Stellaris/driverlib/uart.c **** //! returned via the previous call to UARTCharGet() or UARTCharGetNonBlocking()
1649:/home/cuil/workspace/arm/lm3s811/TI_Stellaris/driverlib/uart.c **** //! with the exception that the overrun error is set immediately when the 
1650:/home/cuil/workspace/arm/lm3s811/TI_Stellaris/driverlib/uart.c **** //! overrun occurs rather than when a character is next read.
1651:/home/cuil/workspace/arm/lm3s811/TI_Stellaris/driverlib/uart.c **** //!
1652:/home/cuil/workspace/arm/lm3s811/TI_Stellaris/driverlib/uart.c **** //! \return Returns a logical OR combination of the receiver error flags,
1653:/home/cuil/workspace/arm/lm3s811/TI_Stellaris/driverlib/uart.c **** //! \b UART_RXERROR_FRAMING, \b UART_RXERROR_PARITY, \b UART_RXERROR_BREAK
1654:/home/cuil/workspace/arm/lm3s811/TI_Stellaris/driverlib/uart.c **** //! and \b UART_RXERROR_OVERRUN.
1655:/home/cuil/workspace/arm/lm3s811/TI_Stellaris/driverlib/uart.c **** //
1656:/home/cuil/workspace/arm/lm3s811/TI_Stellaris/driverlib/uart.c **** //*****************************************************************************
1657:/home/cuil/workspace/arm/lm3s811/TI_Stellaris/driverlib/uart.c **** unsigned long
1658:/home/cuil/workspace/arm/lm3s811/TI_Stellaris/driverlib/uart.c **** UARTRxErrorGet(unsigned long ulBase)
1659:/home/cuil/workspace/arm/lm3s811/TI_Stellaris/driverlib/uart.c **** {
 11525              		.loc 1 1659 0
 11526              		.cfi_startproc
 11527              		@ args = 0, pretend = 0, frame = 8
 11528              		@ frame_needed = 1, uses_anonymous_args = 0
 11529              		@ link register save eliminated.
 11530 0000 80B4     		push	{r7}
 11531              	.LCFI117:
 11532              		.cfi_def_cfa_offset 4
 11533 0002 83B0     		sub	sp, sp, #12
 11534              	.LCFI118:
 11535              		.cfi_def_cfa_offset 16
 11536 0004 00AF     		add	r7, sp, #0
 11537              		.cfi_offset 7, -4
 11538              	.LCFI119:
 11539              		.cfi_def_cfa_register 7
 11540 0006 7860     		str	r0, [r7, #4]
1660:/home/cuil/workspace/arm/lm3s811/TI_Stellaris/driverlib/uart.c ****     //
1661:/home/cuil/workspace/arm/lm3s811/TI_Stellaris/driverlib/uart.c ****     // Check the arguments.
1662:/home/cuil/workspace/arm/lm3s811/TI_Stellaris/driverlib/uart.c ****     //
1663:/home/cuil/workspace/arm/lm3s811/TI_Stellaris/driverlib/uart.c ****     ASSERT(UARTBaseValid(ulBase));
1664:/home/cuil/workspace/arm/lm3s811/TI_Stellaris/driverlib/uart.c **** 
1665:/home/cuil/workspace/arm/lm3s811/TI_Stellaris/driverlib/uart.c ****     //
1666:/home/cuil/workspace/arm/lm3s811/TI_Stellaris/driverlib/uart.c ****     // Return the current value of the receive status register.
1667:/home/cuil/workspace/arm/lm3s811/TI_Stellaris/driverlib/uart.c ****     //
1668:/home/cuil/workspace/arm/lm3s811/TI_Stellaris/driverlib/uart.c ****     return(HWREG(ulBase + UART_O_RSR) & 0x0000000F);
 11541              		.loc 1 1668 0
 11542 0008 7B68     		ldr	r3, [r7, #4]
 11543 000a 03F10403 		add	r3, r3, #4
 11544 000e 1B68     		ldr	r3, [r3, #0]
 11545 0010 03F00F03 		and	r3, r3, #15
1669:/home/cuil/workspace/arm/lm3s811/TI_Stellaris/driverlib/uart.c **** }
 11546              		.loc 1 1669 0
 11547 0014 1846     		mov	r0, r3
 11548 0016 07F10C07 		add	r7, r7, #12
 11549 001a BD46     		mov	sp, r7
 11550 001c 80BC     		pop	{r7}
 11551 001e 7047     		bx	lr
 11552              		.cfi_endproc
 11553              	.LFE39:
 11555              		.section	.text.UARTRxErrorClear,"ax",%progbits
 11556              		.align	2
 11557              		.global	UARTRxErrorClear
 11558              		.thumb
 11559              		.thumb_func
 11561              	UARTRxErrorClear:
 11562              	.LFB40:
1670:/home/cuil/workspace/arm/lm3s811/TI_Stellaris/driverlib/uart.c **** 
1671:/home/cuil/workspace/arm/lm3s811/TI_Stellaris/driverlib/uart.c **** //*****************************************************************************
1672:/home/cuil/workspace/arm/lm3s811/TI_Stellaris/driverlib/uart.c **** //
1673:/home/cuil/workspace/arm/lm3s811/TI_Stellaris/driverlib/uart.c **** //! Clears all reported receiver errors.
1674:/home/cuil/workspace/arm/lm3s811/TI_Stellaris/driverlib/uart.c **** //!
1675:/home/cuil/workspace/arm/lm3s811/TI_Stellaris/driverlib/uart.c **** //! \param ulBase is the base address of the UART port.
1676:/home/cuil/workspace/arm/lm3s811/TI_Stellaris/driverlib/uart.c **** //!
