   1              		.syntax unified
   2              		.cpu cortex-m3
   3              		.fpu softvfp
   4              		.eabi_attribute 20, 1
   5              		.eabi_attribute 21, 1
   6              		.eabi_attribute 23, 3
   7              		.eabi_attribute 24, 1
   8              		.eabi_attribute 25, 1
   9              		.eabi_attribute 26, 1
  10              		.eabi_attribute 30, 6
  11              		.eabi_attribute 18, 4
  12              		.thumb
  13              		.file	"udma.c"
  23              	.Ltext0:
  24              		.file 1 "/home/cuil/workspace/arm/lm3s811/TI_Stellaris/driverlib/udma.c"
 8125              		.align	2
 8126              		.global	uDMAEnable
 8127              		.thumb
 8128              		.thumb_func
 8130              	uDMAEnable:
 8131              	.LFB0:
   1:/home/cuil/workspace/arm/lm3s811/TI_Stellaris/driverlib/udma.c **** //*****************************************************************************
   2:/home/cuil/workspace/arm/lm3s811/TI_Stellaris/driverlib/udma.c **** //
   3:/home/cuil/workspace/arm/lm3s811/TI_Stellaris/driverlib/udma.c **** // udma.c - Driver for the micro-DMA controller.
   4:/home/cuil/workspace/arm/lm3s811/TI_Stellaris/driverlib/udma.c **** //
   5:/home/cuil/workspace/arm/lm3s811/TI_Stellaris/driverlib/udma.c **** // Copyright (c) 2007-2011 Texas Instruments Incorporated.  All rights reserved.
   6:/home/cuil/workspace/arm/lm3s811/TI_Stellaris/driverlib/udma.c **** // Software License Agreement
   7:/home/cuil/workspace/arm/lm3s811/TI_Stellaris/driverlib/udma.c **** // 
   8:/home/cuil/workspace/arm/lm3s811/TI_Stellaris/driverlib/udma.c **** // Texas Instruments (TI) is supplying this software for use solely and
   9:/home/cuil/workspace/arm/lm3s811/TI_Stellaris/driverlib/udma.c **** // exclusively on TI's microcontroller products. The software is owned by
  10:/home/cuil/workspace/arm/lm3s811/TI_Stellaris/driverlib/udma.c **** // TI and/or its suppliers, and is protected under applicable copyright
  11:/home/cuil/workspace/arm/lm3s811/TI_Stellaris/driverlib/udma.c **** // laws. You may not combine this software with "viral" open-source
  12:/home/cuil/workspace/arm/lm3s811/TI_Stellaris/driverlib/udma.c **** // software in order to form a larger program.
  13:/home/cuil/workspace/arm/lm3s811/TI_Stellaris/driverlib/udma.c **** // 
  14:/home/cuil/workspace/arm/lm3s811/TI_Stellaris/driverlib/udma.c **** // THIS SOFTWARE IS PROVIDED "AS IS" AND WITH ALL FAULTS.
  15:/home/cuil/workspace/arm/lm3s811/TI_Stellaris/driverlib/udma.c **** // NO WARRANTIES, WHETHER EXPRESS, IMPLIED OR STATUTORY, INCLUDING, BUT
  16:/home/cuil/workspace/arm/lm3s811/TI_Stellaris/driverlib/udma.c **** // NOT LIMITED TO, IMPLIED WARRANTIES OF MERCHANTABILITY AND FITNESS FOR
  17:/home/cuil/workspace/arm/lm3s811/TI_Stellaris/driverlib/udma.c **** // A PARTICULAR PURPOSE APPLY TO THIS SOFTWARE. TI SHALL NOT, UNDER ANY
  18:/home/cuil/workspace/arm/lm3s811/TI_Stellaris/driverlib/udma.c **** // CIRCUMSTANCES, BE LIABLE FOR SPECIAL, INCIDENTAL, OR CONSEQUENTIAL
  19:/home/cuil/workspace/arm/lm3s811/TI_Stellaris/driverlib/udma.c **** // DAMAGES, FOR ANY REASON WHATSOEVER.
  20:/home/cuil/workspace/arm/lm3s811/TI_Stellaris/driverlib/udma.c **** // 
  21:/home/cuil/workspace/arm/lm3s811/TI_Stellaris/driverlib/udma.c **** // This is part of revision 8264 of the Stellaris Peripheral Driver Library.
  22:/home/cuil/workspace/arm/lm3s811/TI_Stellaris/driverlib/udma.c **** //
  23:/home/cuil/workspace/arm/lm3s811/TI_Stellaris/driverlib/udma.c **** //*****************************************************************************
  24:/home/cuil/workspace/arm/lm3s811/TI_Stellaris/driverlib/udma.c **** 
  25:/home/cuil/workspace/arm/lm3s811/TI_Stellaris/driverlib/udma.c **** //*****************************************************************************
  26:/home/cuil/workspace/arm/lm3s811/TI_Stellaris/driverlib/udma.c **** //
  27:/home/cuil/workspace/arm/lm3s811/TI_Stellaris/driverlib/udma.c **** //! \addtogroup udma_api
  28:/home/cuil/workspace/arm/lm3s811/TI_Stellaris/driverlib/udma.c **** //! @{
  29:/home/cuil/workspace/arm/lm3s811/TI_Stellaris/driverlib/udma.c **** //
  30:/home/cuil/workspace/arm/lm3s811/TI_Stellaris/driverlib/udma.c **** //*****************************************************************************
  31:/home/cuil/workspace/arm/lm3s811/TI_Stellaris/driverlib/udma.c **** 
  32:/home/cuil/workspace/arm/lm3s811/TI_Stellaris/driverlib/udma.c **** #include "inc/hw_sysctl.h"
  33:/home/cuil/workspace/arm/lm3s811/TI_Stellaris/driverlib/udma.c **** #include "inc/hw_types.h"
  34:/home/cuil/workspace/arm/lm3s811/TI_Stellaris/driverlib/udma.c **** #include "inc/hw_udma.h"
  35:/home/cuil/workspace/arm/lm3s811/TI_Stellaris/driverlib/udma.c **** #include "driverlib/debug.h"
  36:/home/cuil/workspace/arm/lm3s811/TI_Stellaris/driverlib/udma.c **** #include "driverlib/interrupt.h"
  37:/home/cuil/workspace/arm/lm3s811/TI_Stellaris/driverlib/udma.c **** #include "driverlib/udma.h"
  38:/home/cuil/workspace/arm/lm3s811/TI_Stellaris/driverlib/udma.c **** 
  39:/home/cuil/workspace/arm/lm3s811/TI_Stellaris/driverlib/udma.c **** //*****************************************************************************
  40:/home/cuil/workspace/arm/lm3s811/TI_Stellaris/driverlib/udma.c **** //
  41:/home/cuil/workspace/arm/lm3s811/TI_Stellaris/driverlib/udma.c **** //! Enables the uDMA controller for use.
  42:/home/cuil/workspace/arm/lm3s811/TI_Stellaris/driverlib/udma.c **** //!
  43:/home/cuil/workspace/arm/lm3s811/TI_Stellaris/driverlib/udma.c **** //! This function enables the uDMA controller.  The uDMA controller must be
  44:/home/cuil/workspace/arm/lm3s811/TI_Stellaris/driverlib/udma.c **** //! enabled before it can be configured and used.
  45:/home/cuil/workspace/arm/lm3s811/TI_Stellaris/driverlib/udma.c **** //!
  46:/home/cuil/workspace/arm/lm3s811/TI_Stellaris/driverlib/udma.c **** //! \return None.
  47:/home/cuil/workspace/arm/lm3s811/TI_Stellaris/driverlib/udma.c **** //
  48:/home/cuil/workspace/arm/lm3s811/TI_Stellaris/driverlib/udma.c **** //*****************************************************************************
  49:/home/cuil/workspace/arm/lm3s811/TI_Stellaris/driverlib/udma.c **** void
  50:/home/cuil/workspace/arm/lm3s811/TI_Stellaris/driverlib/udma.c **** uDMAEnable(void)
  51:/home/cuil/workspace/arm/lm3s811/TI_Stellaris/driverlib/udma.c **** {
 8132              		.loc 1 51 0
 8133              		.cfi_startproc
 8134              		@ args = 0, pretend = 0, frame = 0
 8135              		@ frame_needed = 1, uses_anonymous_args = 0
 8136              		@ link register save eliminated.
 8137 0000 80B4     		push	{r7}
 8138              	.LCFI0:
 8139              		.cfi_def_cfa_offset 4
 8140 0002 00AF     		add	r7, sp, #0
 8141              		.cfi_offset 7, -4
 8142              	.LCFI1:
 8143              		.cfi_def_cfa_register 7
  52:/home/cuil/workspace/arm/lm3s811/TI_Stellaris/driverlib/udma.c ****     //
  53:/home/cuil/workspace/arm/lm3s811/TI_Stellaris/driverlib/udma.c ****     // Set the master enable bit in the config register.
  54:/home/cuil/workspace/arm/lm3s811/TI_Stellaris/driverlib/udma.c ****     //
  55:/home/cuil/workspace/arm/lm3s811/TI_Stellaris/driverlib/udma.c ****     HWREG(UDMA_CFG) = UDMA_CFG_MASTEN;
 8144              		.loc 1 55 0
 8145 0004 034B     		ldr	r3, .L2
 8146 0006 4FF00102 		mov	r2, #1
 8147 000a 1A60     		str	r2, [r3, #0]
  56:/home/cuil/workspace/arm/lm3s811/TI_Stellaris/driverlib/udma.c **** }
 8148              		.loc 1 56 0
 8149 000c BD46     		mov	sp, r7
 8150 000e 80BC     		pop	{r7}
 8151 0010 7047     		bx	lr
 8152              	.L3:
 8153 0012 00BF     		.align	2
 8154              	.L2:
 8155 0014 04F00F40 		.word	1074786308
 8156              		.cfi_endproc
 8157              	.LFE0:
 8159              		.section	.text.uDMADisable,"ax",%progbits
 8160              		.align	2
 8161              		.global	uDMADisable
 8162              		.thumb
 8163              		.thumb_func
 8165              	uDMADisable:
 8166              	.LFB1:
  57:/home/cuil/workspace/arm/lm3s811/TI_Stellaris/driverlib/udma.c **** 
  58:/home/cuil/workspace/arm/lm3s811/TI_Stellaris/driverlib/udma.c **** //*****************************************************************************
  59:/home/cuil/workspace/arm/lm3s811/TI_Stellaris/driverlib/udma.c **** //
  60:/home/cuil/workspace/arm/lm3s811/TI_Stellaris/driverlib/udma.c **** //! Disables the uDMA controller for use.
  61:/home/cuil/workspace/arm/lm3s811/TI_Stellaris/driverlib/udma.c **** //!
  62:/home/cuil/workspace/arm/lm3s811/TI_Stellaris/driverlib/udma.c **** //! This function disables the uDMA controller.  Once disabled, the uDMA
  63:/home/cuil/workspace/arm/lm3s811/TI_Stellaris/driverlib/udma.c **** //! controller cannot operate until re-enabled with uDMAEnable().
  64:/home/cuil/workspace/arm/lm3s811/TI_Stellaris/driverlib/udma.c **** //!
  65:/home/cuil/workspace/arm/lm3s811/TI_Stellaris/driverlib/udma.c **** //! \return None.
  66:/home/cuil/workspace/arm/lm3s811/TI_Stellaris/driverlib/udma.c **** //
  67:/home/cuil/workspace/arm/lm3s811/TI_Stellaris/driverlib/udma.c **** //*****************************************************************************
  68:/home/cuil/workspace/arm/lm3s811/TI_Stellaris/driverlib/udma.c **** void
  69:/home/cuil/workspace/arm/lm3s811/TI_Stellaris/driverlib/udma.c **** uDMADisable(void)
  70:/home/cuil/workspace/arm/lm3s811/TI_Stellaris/driverlib/udma.c **** {
 8167              		.loc 1 70 0
 8168              		.cfi_startproc
 8169              		@ args = 0, pretend = 0, frame = 0
 8170              		@ frame_needed = 1, uses_anonymous_args = 0
 8171              		@ link register save eliminated.
 8172 0000 80B4     		push	{r7}
 8173              	.LCFI2:
 8174              		.cfi_def_cfa_offset 4
 8175 0002 00AF     		add	r7, sp, #0
 8176              		.cfi_offset 7, -4
 8177              	.LCFI3:
 8178              		.cfi_def_cfa_register 7
  71:/home/cuil/workspace/arm/lm3s811/TI_Stellaris/driverlib/udma.c ****     //
  72:/home/cuil/workspace/arm/lm3s811/TI_Stellaris/driverlib/udma.c ****     // Clear the master enable bit in the config register.
  73:/home/cuil/workspace/arm/lm3s811/TI_Stellaris/driverlib/udma.c ****     //
  74:/home/cuil/workspace/arm/lm3s811/TI_Stellaris/driverlib/udma.c ****     HWREG(UDMA_CFG) = 0;
 8179              		.loc 1 74 0
 8180 0004 034B     		ldr	r3, .L5
 8181 0006 4FF00002 		mov	r2, #0
 8182 000a 1A60     		str	r2, [r3, #0]
  75:/home/cuil/workspace/arm/lm3s811/TI_Stellaris/driverlib/udma.c **** }
 8183              		.loc 1 75 0
 8184 000c BD46     		mov	sp, r7
 8185 000e 80BC     		pop	{r7}
 8186 0010 7047     		bx	lr
 8187              	.L6:
 8188 0012 00BF     		.align	2
 8189              	.L5:
 8190 0014 04F00F40 		.word	1074786308
 8191              		.cfi_endproc
 8192              	.LFE1:
 8194              		.section	.text.uDMAErrorStatusGet,"ax",%progbits
 8195              		.align	2
 8196              		.global	uDMAErrorStatusGet
 8197              		.thumb
 8198              		.thumb_func
 8200              	uDMAErrorStatusGet:
 8201              	.LFB2:
  76:/home/cuil/workspace/arm/lm3s811/TI_Stellaris/driverlib/udma.c **** 
  77:/home/cuil/workspace/arm/lm3s811/TI_Stellaris/driverlib/udma.c **** //*****************************************************************************
  78:/home/cuil/workspace/arm/lm3s811/TI_Stellaris/driverlib/udma.c **** //
  79:/home/cuil/workspace/arm/lm3s811/TI_Stellaris/driverlib/udma.c **** //! Gets the uDMA error status.
  80:/home/cuil/workspace/arm/lm3s811/TI_Stellaris/driverlib/udma.c **** //!
  81:/home/cuil/workspace/arm/lm3s811/TI_Stellaris/driverlib/udma.c **** //! This function returns the uDMA error status.  It should be called from
  82:/home/cuil/workspace/arm/lm3s811/TI_Stellaris/driverlib/udma.c **** //! within the uDMA error interrupt handler to determine if a uDMA error
  83:/home/cuil/workspace/arm/lm3s811/TI_Stellaris/driverlib/udma.c **** //! occurred.
  84:/home/cuil/workspace/arm/lm3s811/TI_Stellaris/driverlib/udma.c **** //!
  85:/home/cuil/workspace/arm/lm3s811/TI_Stellaris/driverlib/udma.c **** //! \return Returns non-zero if a uDMA error is pending.
  86:/home/cuil/workspace/arm/lm3s811/TI_Stellaris/driverlib/udma.c **** //
  87:/home/cuil/workspace/arm/lm3s811/TI_Stellaris/driverlib/udma.c **** //*****************************************************************************
  88:/home/cuil/workspace/arm/lm3s811/TI_Stellaris/driverlib/udma.c **** unsigned long
  89:/home/cuil/workspace/arm/lm3s811/TI_Stellaris/driverlib/udma.c **** uDMAErrorStatusGet(void)
  90:/home/cuil/workspace/arm/lm3s811/TI_Stellaris/driverlib/udma.c **** {
 8202              		.loc 1 90 0
 8203              		.cfi_startproc
 8204              		@ args = 0, pretend = 0, frame = 0
 8205              		@ frame_needed = 1, uses_anonymous_args = 0
 8206              		@ link register save eliminated.
 8207 0000 80B4     		push	{r7}
 8208              	.LCFI4:
 8209              		.cfi_def_cfa_offset 4
 8210 0002 00AF     		add	r7, sp, #0
 8211              		.cfi_offset 7, -4
 8212              	.LCFI5:
 8213              		.cfi_def_cfa_register 7
  91:/home/cuil/workspace/arm/lm3s811/TI_Stellaris/driverlib/udma.c ****     //
  92:/home/cuil/workspace/arm/lm3s811/TI_Stellaris/driverlib/udma.c ****     // Return the uDMA error status.
  93:/home/cuil/workspace/arm/lm3s811/TI_Stellaris/driverlib/udma.c ****     //
  94:/home/cuil/workspace/arm/lm3s811/TI_Stellaris/driverlib/udma.c ****     return(HWREG(UDMA_ERRCLR));
 8214              		.loc 1 94 0
 8215 0004 024B     		ldr	r3, .L8
 8216 0006 1B68     		ldr	r3, [r3, #0]
  95:/home/cuil/workspace/arm/lm3s811/TI_Stellaris/driverlib/udma.c **** }
 8217              		.loc 1 95 0
 8218 0008 1846     		mov	r0, r3
 8219 000a BD46     		mov	sp, r7
 8220 000c 80BC     		pop	{r7}
 8221 000e 7047     		bx	lr
 8222              	.L9:
 8223              		.align	2
 8224              	.L8:
 8225 0010 4CF00F40 		.word	1074786380
 8226              		.cfi_endproc
 8227              	.LFE2:
 8229              		.section	.text.uDMAErrorStatusClear,"ax",%progbits
 8230              		.align	2
 8231              		.global	uDMAErrorStatusClear
 8232              		.thumb
 8233              		.thumb_func
 8235              	uDMAErrorStatusClear:
 8236              	.LFB3:
  96:/home/cuil/workspace/arm/lm3s811/TI_Stellaris/driverlib/udma.c **** 
  97:/home/cuil/workspace/arm/lm3s811/TI_Stellaris/driverlib/udma.c **** //*****************************************************************************
  98:/home/cuil/workspace/arm/lm3s811/TI_Stellaris/driverlib/udma.c **** //
  99:/home/cuil/workspace/arm/lm3s811/TI_Stellaris/driverlib/udma.c **** //! Clears the uDMA error interrupt.
 100:/home/cuil/workspace/arm/lm3s811/TI_Stellaris/driverlib/udma.c **** //!
 101:/home/cuil/workspace/arm/lm3s811/TI_Stellaris/driverlib/udma.c **** //! This function clears a pending uDMA error interrupt.  This function should 
 102:/home/cuil/workspace/arm/lm3s811/TI_Stellaris/driverlib/udma.c **** //! be called from within the uDMA error interrupt handler to clear the 
 103:/home/cuil/workspace/arm/lm3s811/TI_Stellaris/driverlib/udma.c **** //! interrupt.
 104:/home/cuil/workspace/arm/lm3s811/TI_Stellaris/driverlib/udma.c **** //!
 105:/home/cuil/workspace/arm/lm3s811/TI_Stellaris/driverlib/udma.c **** //! \return None.
 106:/home/cuil/workspace/arm/lm3s811/TI_Stellaris/driverlib/udma.c **** //
 107:/home/cuil/workspace/arm/lm3s811/TI_Stellaris/driverlib/udma.c **** //*****************************************************************************
 108:/home/cuil/workspace/arm/lm3s811/TI_Stellaris/driverlib/udma.c **** void
 109:/home/cuil/workspace/arm/lm3s811/TI_Stellaris/driverlib/udma.c **** uDMAErrorStatusClear(void)
 110:/home/cuil/workspace/arm/lm3s811/TI_Stellaris/driverlib/udma.c **** {
 8237              		.loc 1 110 0
 8238              		.cfi_startproc
 8239              		@ args = 0, pretend = 0, frame = 0
 8240              		@ frame_needed = 1, uses_anonymous_args = 0
 8241              		@ link register save eliminated.
 8242 0000 80B4     		push	{r7}
 8243              	.LCFI6:
 8244              		.cfi_def_cfa_offset 4
 8245 0002 00AF     		add	r7, sp, #0
 8246              		.cfi_offset 7, -4
 8247              	.LCFI7:
 8248              		.cfi_def_cfa_register 7
 111:/home/cuil/workspace/arm/lm3s811/TI_Stellaris/driverlib/udma.c ****     //
 112:/home/cuil/workspace/arm/lm3s811/TI_Stellaris/driverlib/udma.c ****     // Clear the uDMA error interrupt.
 113:/home/cuil/workspace/arm/lm3s811/TI_Stellaris/driverlib/udma.c ****     //
 114:/home/cuil/workspace/arm/lm3s811/TI_Stellaris/driverlib/udma.c ****     HWREG(UDMA_ERRCLR) = 1;
 8249              		.loc 1 114 0
 8250 0004 034B     		ldr	r3, .L11
 8251 0006 4FF00102 		mov	r2, #1
 8252 000a 1A60     		str	r2, [r3, #0]
 115:/home/cuil/workspace/arm/lm3s811/TI_Stellaris/driverlib/udma.c **** }
 8253              		.loc 1 115 0
 8254 000c BD46     		mov	sp, r7
 8255 000e 80BC     		pop	{r7}
 8256 0010 7047     		bx	lr
 8257              	.L12:
 8258 0012 00BF     		.align	2
 8259              	.L11:
 8260 0014 4CF00F40 		.word	1074786380
 8261              		.cfi_endproc
 8262              	.LFE3:
 8264              		.section	.text.uDMAChannelEnable,"ax",%progbits
 8265              		.align	2
 8266              		.global	uDMAChannelEnable
 8267              		.thumb
 8268              		.thumb_func
 8270              	uDMAChannelEnable:
 8271              	.LFB4:
 116:/home/cuil/workspace/arm/lm3s811/TI_Stellaris/driverlib/udma.c **** 
 117:/home/cuil/workspace/arm/lm3s811/TI_Stellaris/driverlib/udma.c **** //*****************************************************************************
 118:/home/cuil/workspace/arm/lm3s811/TI_Stellaris/driverlib/udma.c **** //
 119:/home/cuil/workspace/arm/lm3s811/TI_Stellaris/driverlib/udma.c **** //! Enables a uDMA channel for operation.
 120:/home/cuil/workspace/arm/lm3s811/TI_Stellaris/driverlib/udma.c **** //!
 121:/home/cuil/workspace/arm/lm3s811/TI_Stellaris/driverlib/udma.c **** //! \param ulChannelNum is the channel number to enable.
 122:/home/cuil/workspace/arm/lm3s811/TI_Stellaris/driverlib/udma.c **** //!
 123:/home/cuil/workspace/arm/lm3s811/TI_Stellaris/driverlib/udma.c **** //! This function enables a specific uDMA channel for use.  This function must
 124:/home/cuil/workspace/arm/lm3s811/TI_Stellaris/driverlib/udma.c **** //! be used to enable a channel before it can be used to perform a uDMA
 125:/home/cuil/workspace/arm/lm3s811/TI_Stellaris/driverlib/udma.c **** //! transfer.
 126:/home/cuil/workspace/arm/lm3s811/TI_Stellaris/driverlib/udma.c **** //!
 127:/home/cuil/workspace/arm/lm3s811/TI_Stellaris/driverlib/udma.c **** //! When a uDMA transfer is completed, the channel is automatically disabled by
 128:/home/cuil/workspace/arm/lm3s811/TI_Stellaris/driverlib/udma.c **** //! the uDMA controller.  Therefore, this function should be called prior to
 129:/home/cuil/workspace/arm/lm3s811/TI_Stellaris/driverlib/udma.c **** //! starting up any new transfer.
 130:/home/cuil/workspace/arm/lm3s811/TI_Stellaris/driverlib/udma.c **** //!
 131:/home/cuil/workspace/arm/lm3s811/TI_Stellaris/driverlib/udma.c **** //! \return None.
 132:/home/cuil/workspace/arm/lm3s811/TI_Stellaris/driverlib/udma.c **** //
 133:/home/cuil/workspace/arm/lm3s811/TI_Stellaris/driverlib/udma.c **** //*****************************************************************************
 134:/home/cuil/workspace/arm/lm3s811/TI_Stellaris/driverlib/udma.c **** void
 135:/home/cuil/workspace/arm/lm3s811/TI_Stellaris/driverlib/udma.c **** uDMAChannelEnable(unsigned long ulChannelNum)
 136:/home/cuil/workspace/arm/lm3s811/TI_Stellaris/driverlib/udma.c **** {
 8272              		.loc 1 136 0
 8273              		.cfi_startproc
 8274              		@ args = 0, pretend = 0, frame = 8
 8275              		@ frame_needed = 1, uses_anonymous_args = 0
 8276              		@ link register save eliminated.
 8277 0000 80B4     		push	{r7}
 8278              	.LCFI8:
 8279              		.cfi_def_cfa_offset 4
 8280 0002 83B0     		sub	sp, sp, #12
 8281              	.LCFI9:
 8282              		.cfi_def_cfa_offset 16
 8283 0004 00AF     		add	r7, sp, #0
 8284              		.cfi_offset 7, -4
 8285              	.LCFI10:
 8286              		.cfi_def_cfa_register 7
 8287 0006 7860     		str	r0, [r7, #4]
 137:/home/cuil/workspace/arm/lm3s811/TI_Stellaris/driverlib/udma.c ****     //
 138:/home/cuil/workspace/arm/lm3s811/TI_Stellaris/driverlib/udma.c ****     // Check the arguments.
 139:/home/cuil/workspace/arm/lm3s811/TI_Stellaris/driverlib/udma.c ****     //
 140:/home/cuil/workspace/arm/lm3s811/TI_Stellaris/driverlib/udma.c ****     ASSERT((ulChannelNum & 0xffff) < 32);
 141:/home/cuil/workspace/arm/lm3s811/TI_Stellaris/driverlib/udma.c **** 
 142:/home/cuil/workspace/arm/lm3s811/TI_Stellaris/driverlib/udma.c ****     //
 143:/home/cuil/workspace/arm/lm3s811/TI_Stellaris/driverlib/udma.c ****     // Set the bit for this channel in the enable set register.
 144:/home/cuil/workspace/arm/lm3s811/TI_Stellaris/driverlib/udma.c ****     //
 145:/home/cuil/workspace/arm/lm3s811/TI_Stellaris/driverlib/udma.c ****     HWREG(UDMA_ENASET) = 1 << (ulChannelNum & 0x1f);
 8288              		.loc 1 145 0
 8289 0008 064B     		ldr	r3, .L14
 8290 000a 7A68     		ldr	r2, [r7, #4]
 8291 000c 02F01F02 		and	r2, r2, #31
 8292 0010 4FF00101 		mov	r1, #1
 8293 0014 01FA02F2 		lsl	r2, r1, r2
 8294 0018 1A60     		str	r2, [r3, #0]
 146:/home/cuil/workspace/arm/lm3s811/TI_Stellaris/driverlib/udma.c **** }
 8295              		.loc 1 146 0
 8296 001a 07F10C07 		add	r7, r7, #12
 8297 001e BD46     		mov	sp, r7
 8298 0020 80BC     		pop	{r7}
 8299 0022 7047     		bx	lr
 8300              	.L15:
 8301              		.align	2
 8302              	.L14:
 8303 0024 28F00F40 		.word	1074786344
 8304              		.cfi_endproc
 8305              	.LFE4:
 8307              		.section	.text.uDMAChannelDisable,"ax",%progbits
 8308              		.align	2
 8309              		.global	uDMAChannelDisable
 8310              		.thumb
 8311              		.thumb_func
 8313              	uDMAChannelDisable:
 8314              	.LFB5:
 147:/home/cuil/workspace/arm/lm3s811/TI_Stellaris/driverlib/udma.c **** 
 148:/home/cuil/workspace/arm/lm3s811/TI_Stellaris/driverlib/udma.c **** //*****************************************************************************
 149:/home/cuil/workspace/arm/lm3s811/TI_Stellaris/driverlib/udma.c **** //
 150:/home/cuil/workspace/arm/lm3s811/TI_Stellaris/driverlib/udma.c **** //! Disables a uDMA channel for operation.
 151:/home/cuil/workspace/arm/lm3s811/TI_Stellaris/driverlib/udma.c **** //!
 152:/home/cuil/workspace/arm/lm3s811/TI_Stellaris/driverlib/udma.c **** //! \param ulChannelNum is the channel number to disable.
 153:/home/cuil/workspace/arm/lm3s811/TI_Stellaris/driverlib/udma.c **** //!
 154:/home/cuil/workspace/arm/lm3s811/TI_Stellaris/driverlib/udma.c **** //! This function disables a specific uDMA channel.  Once disabled, a channel
 155:/home/cuil/workspace/arm/lm3s811/TI_Stellaris/driverlib/udma.c **** //! cannot respond to uDMA transfer requests until re-enabled via
 156:/home/cuil/workspace/arm/lm3s811/TI_Stellaris/driverlib/udma.c **** //! uDMAChannelEnable().
 157:/home/cuil/workspace/arm/lm3s811/TI_Stellaris/driverlib/udma.c **** //!
 158:/home/cuil/workspace/arm/lm3s811/TI_Stellaris/driverlib/udma.c **** //! \return None.
 159:/home/cuil/workspace/arm/lm3s811/TI_Stellaris/driverlib/udma.c **** //
 160:/home/cuil/workspace/arm/lm3s811/TI_Stellaris/driverlib/udma.c **** //*****************************************************************************
 161:/home/cuil/workspace/arm/lm3s811/TI_Stellaris/driverlib/udma.c **** void
 162:/home/cuil/workspace/arm/lm3s811/TI_Stellaris/driverlib/udma.c **** uDMAChannelDisable(unsigned long ulChannelNum)
 163:/home/cuil/workspace/arm/lm3s811/TI_Stellaris/driverlib/udma.c **** {
 8315              		.loc 1 163 0
 8316              		.cfi_startproc
 8317              		@ args = 0, pretend = 0, frame = 8
 8318              		@ frame_needed = 1, uses_anonymous_args = 0
 8319              		@ link register save eliminated.
 8320 0000 80B4     		push	{r7}
 8321              	.LCFI11:
 8322              		.cfi_def_cfa_offset 4
 8323 0002 83B0     		sub	sp, sp, #12
 8324              	.LCFI12:
 8325              		.cfi_def_cfa_offset 16
 8326 0004 00AF     		add	r7, sp, #0
 8327              		.cfi_offset 7, -4
 8328              	.LCFI13:
 8329              		.cfi_def_cfa_register 7
 8330 0006 7860     		str	r0, [r7, #4]
 164:/home/cuil/workspace/arm/lm3s811/TI_Stellaris/driverlib/udma.c ****     //
 165:/home/cuil/workspace/arm/lm3s811/TI_Stellaris/driverlib/udma.c ****     // Check the arguments.
 166:/home/cuil/workspace/arm/lm3s811/TI_Stellaris/driverlib/udma.c ****     //
 167:/home/cuil/workspace/arm/lm3s811/TI_Stellaris/driverlib/udma.c ****     ASSERT((ulChannelNum & 0xffff) < 32);
 168:/home/cuil/workspace/arm/lm3s811/TI_Stellaris/driverlib/udma.c **** 
 169:/home/cuil/workspace/arm/lm3s811/TI_Stellaris/driverlib/udma.c ****     //
 170:/home/cuil/workspace/arm/lm3s811/TI_Stellaris/driverlib/udma.c ****     // Set the bit for this channel in the enable clear register.
 171:/home/cuil/workspace/arm/lm3s811/TI_Stellaris/driverlib/udma.c ****     //
 172:/home/cuil/workspace/arm/lm3s811/TI_Stellaris/driverlib/udma.c ****     HWREG(UDMA_ENACLR) = 1 << (ulChannelNum & 0x1f);
 8331              		.loc 1 172 0
 8332 0008 064B     		ldr	r3, .L17
 8333 000a 7A68     		ldr	r2, [r7, #4]
 8334 000c 02F01F02 		and	r2, r2, #31
 8335 0010 4FF00101 		mov	r1, #1
 8336 0014 01FA02F2 		lsl	r2, r1, r2
 8337 0018 1A60     		str	r2, [r3, #0]
 173:/home/cuil/workspace/arm/lm3s811/TI_Stellaris/driverlib/udma.c **** }
 8338              		.loc 1 173 0
 8339 001a 07F10C07 		add	r7, r7, #12
 8340 001e BD46     		mov	sp, r7
 8341 0020 80BC     		pop	{r7}
 8342 0022 7047     		bx	lr
 8343              	.L18:
 8344              		.align	2
 8345              	.L17:
 8346 0024 2CF00F40 		.word	1074786348
 8347              		.cfi_endproc
 8348              	.LFE5:
 8350              		.section	.text.uDMAChannelIsEnabled,"ax",%progbits
 8351              		.align	2
 8352              		.global	uDMAChannelIsEnabled
 8353              		.thumb
 8354              		.thumb_func
 8356              	uDMAChannelIsEnabled:
 8357              	.LFB6:
 174:/home/cuil/workspace/arm/lm3s811/TI_Stellaris/driverlib/udma.c **** 
 175:/home/cuil/workspace/arm/lm3s811/TI_Stellaris/driverlib/udma.c **** //*****************************************************************************
 176:/home/cuil/workspace/arm/lm3s811/TI_Stellaris/driverlib/udma.c **** //
 177:/home/cuil/workspace/arm/lm3s811/TI_Stellaris/driverlib/udma.c **** //! Checks if a uDMA channel is enabled for operation.
 178:/home/cuil/workspace/arm/lm3s811/TI_Stellaris/driverlib/udma.c **** //!
 179:/home/cuil/workspace/arm/lm3s811/TI_Stellaris/driverlib/udma.c **** //! \param ulChannelNum is the channel number to check.
 180:/home/cuil/workspace/arm/lm3s811/TI_Stellaris/driverlib/udma.c **** //!
 181:/home/cuil/workspace/arm/lm3s811/TI_Stellaris/driverlib/udma.c **** //! This function checks to see if a specific uDMA channel is enabled.  This
 182:/home/cuil/workspace/arm/lm3s811/TI_Stellaris/driverlib/udma.c **** //! function can be used to check the status of a transfer, as the channel is
 183:/home/cuil/workspace/arm/lm3s811/TI_Stellaris/driverlib/udma.c **** //! automatically disabled at the end of a transfer.
 184:/home/cuil/workspace/arm/lm3s811/TI_Stellaris/driverlib/udma.c **** //!
 185:/home/cuil/workspace/arm/lm3s811/TI_Stellaris/driverlib/udma.c **** //! \return Returns \b true if the channel is enabled, \b false if disabled.
 186:/home/cuil/workspace/arm/lm3s811/TI_Stellaris/driverlib/udma.c **** //
 187:/home/cuil/workspace/arm/lm3s811/TI_Stellaris/driverlib/udma.c **** //*****************************************************************************
 188:/home/cuil/workspace/arm/lm3s811/TI_Stellaris/driverlib/udma.c **** tBoolean
 189:/home/cuil/workspace/arm/lm3s811/TI_Stellaris/driverlib/udma.c **** uDMAChannelIsEnabled(unsigned long ulChannelNum)
 190:/home/cuil/workspace/arm/lm3s811/TI_Stellaris/driverlib/udma.c **** {
 8358              		.loc 1 190 0
 8359              		.cfi_startproc
 8360              		@ args = 0, pretend = 0, frame = 8
 8361              		@ frame_needed = 1, uses_anonymous_args = 0
 8362              		@ link register save eliminated.
 8363 0000 80B4     		push	{r7}
 8364              	.LCFI14:
 8365              		.cfi_def_cfa_offset 4
 8366 0002 83B0     		sub	sp, sp, #12
 8367              	.LCFI15:
 8368              		.cfi_def_cfa_offset 16
 8369 0004 00AF     		add	r7, sp, #0
 8370              		.cfi_offset 7, -4
 8371              	.LCFI16:
 8372              		.cfi_def_cfa_register 7
 8373 0006 7860     		str	r0, [r7, #4]
 191:/home/cuil/workspace/arm/lm3s811/TI_Stellaris/driverlib/udma.c ****     //
 192:/home/cuil/workspace/arm/lm3s811/TI_Stellaris/driverlib/udma.c ****     // Check the arguments.
 193:/home/cuil/workspace/arm/lm3s811/TI_Stellaris/driverlib/udma.c ****     //
 194:/home/cuil/workspace/arm/lm3s811/TI_Stellaris/driverlib/udma.c ****     ASSERT((ulChannelNum & 0xffff) < 32);
 195:/home/cuil/workspace/arm/lm3s811/TI_Stellaris/driverlib/udma.c **** 
 196:/home/cuil/workspace/arm/lm3s811/TI_Stellaris/driverlib/udma.c ****     //
 197:/home/cuil/workspace/arm/lm3s811/TI_Stellaris/driverlib/udma.c ****     // AND the specified channel bit with the enable register and return the
 198:/home/cuil/workspace/arm/lm3s811/TI_Stellaris/driverlib/udma.c ****     // result.
 199:/home/cuil/workspace/arm/lm3s811/TI_Stellaris/driverlib/udma.c ****     //
 200:/home/cuil/workspace/arm/lm3s811/TI_Stellaris/driverlib/udma.c ****     return((HWREG(UDMA_ENASET) & (1 << (ulChannelNum & 0x1f))) ? true : false);
 8374              		.loc 1 200 0
 8375 0008 0A4B     		ldr	r3, .L20
 8376 000a 1A68     		ldr	r2, [r3, #0]
 8377 000c 7B68     		ldr	r3, [r7, #4]
 8378 000e 03F01F03 		and	r3, r3, #31
 8379 0012 4FF00101 		mov	r1, #1
 8380 0016 01FA03F3 		lsl	r3, r1, r3
 8381 001a 02EA0303 		and	r3, r2, r3
 8382 001e 002B     		cmp	r3, #0
 8383 0020 0CBF     		ite	eq
 8384 0022 0023     		moveq	r3, #0
 8385 0024 0123     		movne	r3, #1
 8386 0026 DBB2     		uxtb	r3, r3
 201:/home/cuil/workspace/arm/lm3s811/TI_Stellaris/driverlib/udma.c **** }
 8387              		.loc 1 201 0
 8388 0028 1846     		mov	r0, r3
 8389 002a 07F10C07 		add	r7, r7, #12
 8390 002e BD46     		mov	sp, r7
 8391 0030 80BC     		pop	{r7}
 8392 0032 7047     		bx	lr
 8393              	.L21:
 8394              		.align	2
 8395              	.L20:
 8396 0034 28F00F40 		.word	1074786344
 8397              		.cfi_endproc
 8398              	.LFE6:
 8400              		.section	.text.uDMAControlBaseSet,"ax",%progbits
 8401              		.align	2
 8402              		.global	uDMAControlBaseSet
 8403              		.thumb
 8404              		.thumb_func
 8406              	uDMAControlBaseSet:
 8407              	.LFB7:
 202:/home/cuil/workspace/arm/lm3s811/TI_Stellaris/driverlib/udma.c **** 
 203:/home/cuil/workspace/arm/lm3s811/TI_Stellaris/driverlib/udma.c **** //*****************************************************************************
 204:/home/cuil/workspace/arm/lm3s811/TI_Stellaris/driverlib/udma.c **** //
 205:/home/cuil/workspace/arm/lm3s811/TI_Stellaris/driverlib/udma.c **** //! Sets the base address for the channel control table.
 206:/home/cuil/workspace/arm/lm3s811/TI_Stellaris/driverlib/udma.c **** //!
 207:/home/cuil/workspace/arm/lm3s811/TI_Stellaris/driverlib/udma.c **** //! \param pControlTable is a pointer to the 1024-byte-aligned base address
 208:/home/cuil/workspace/arm/lm3s811/TI_Stellaris/driverlib/udma.c **** //! of the uDMA channel control table.
 209:/home/cuil/workspace/arm/lm3s811/TI_Stellaris/driverlib/udma.c **** //!
 210:/home/cuil/workspace/arm/lm3s811/TI_Stellaris/driverlib/udma.c **** //! This function configures the base address of the channel control table.  
 211:/home/cuil/workspace/arm/lm3s811/TI_Stellaris/driverlib/udma.c **** //! This table resides in system memory and holds control information for each 
 212:/home/cuil/workspace/arm/lm3s811/TI_Stellaris/driverlib/udma.c **** //! uDMA channel.  The table must be aligned on a 1024-byte boundary.  The base
 213:/home/cuil/workspace/arm/lm3s811/TI_Stellaris/driverlib/udma.c **** //! address must be configured before any of the channel functions can be used.
 214:/home/cuil/workspace/arm/lm3s811/TI_Stellaris/driverlib/udma.c **** //!
 215:/home/cuil/workspace/arm/lm3s811/TI_Stellaris/driverlib/udma.c **** //! The size of the channel control table depends on the number of uDMA
 216:/home/cuil/workspace/arm/lm3s811/TI_Stellaris/driverlib/udma.c **** //! channels and the transfer modes that are used.  Refer to the introductory
 217:/home/cuil/workspace/arm/lm3s811/TI_Stellaris/driverlib/udma.c **** //! text and the microcontroller datasheet for more information about the
 218:/home/cuil/workspace/arm/lm3s811/TI_Stellaris/driverlib/udma.c **** //! channel control table.
 219:/home/cuil/workspace/arm/lm3s811/TI_Stellaris/driverlib/udma.c **** //!
 220:/home/cuil/workspace/arm/lm3s811/TI_Stellaris/driverlib/udma.c **** //! \return None.
 221:/home/cuil/workspace/arm/lm3s811/TI_Stellaris/driverlib/udma.c **** //
 222:/home/cuil/workspace/arm/lm3s811/TI_Stellaris/driverlib/udma.c **** //*****************************************************************************
 223:/home/cuil/workspace/arm/lm3s811/TI_Stellaris/driverlib/udma.c **** void
 224:/home/cuil/workspace/arm/lm3s811/TI_Stellaris/driverlib/udma.c **** uDMAControlBaseSet(void *pControlTable)
 225:/home/cuil/workspace/arm/lm3s811/TI_Stellaris/driverlib/udma.c **** {
 8408              		.loc 1 225 0
 8409              		.cfi_startproc
 8410              		@ args = 0, pretend = 0, frame = 8
 8411              		@ frame_needed = 1, uses_anonymous_args = 0
 8412              		@ link register save eliminated.
 8413 0000 80B4     		push	{r7}
 8414              	.LCFI17:
 8415              		.cfi_def_cfa_offset 4
 8416 0002 83B0     		sub	sp, sp, #12
 8417              	.LCFI18:
 8418              		.cfi_def_cfa_offset 16
 8419 0004 00AF     		add	r7, sp, #0
 8420              		.cfi_offset 7, -4
 8421              	.LCFI19:
 8422              		.cfi_def_cfa_register 7
 8423 0006 7860     		str	r0, [r7, #4]
 226:/home/cuil/workspace/arm/lm3s811/TI_Stellaris/driverlib/udma.c ****     //
 227:/home/cuil/workspace/arm/lm3s811/TI_Stellaris/driverlib/udma.c ****     // Check the arguments.
 228:/home/cuil/workspace/arm/lm3s811/TI_Stellaris/driverlib/udma.c ****     //
 229:/home/cuil/workspace/arm/lm3s811/TI_Stellaris/driverlib/udma.c ****     ASSERT(((unsigned long)pControlTable & ~0x3FF) ==
 230:/home/cuil/workspace/arm/lm3s811/TI_Stellaris/driverlib/udma.c ****             (unsigned long)pControlTable);
 231:/home/cuil/workspace/arm/lm3s811/TI_Stellaris/driverlib/udma.c ****     ASSERT((unsigned long)pControlTable >= 0x20000000);
 232:/home/cuil/workspace/arm/lm3s811/TI_Stellaris/driverlib/udma.c **** 
 233:/home/cuil/workspace/arm/lm3s811/TI_Stellaris/driverlib/udma.c ****     //
 234:/home/cuil/workspace/arm/lm3s811/TI_Stellaris/driverlib/udma.c ****     // Program the base address into the register.
 235:/home/cuil/workspace/arm/lm3s811/TI_Stellaris/driverlib/udma.c ****     //
 236:/home/cuil/workspace/arm/lm3s811/TI_Stellaris/driverlib/udma.c ****     HWREG(UDMA_CTLBASE) = (unsigned long)pControlTable;
 8424              		.loc 1 236 0
 8425 0008 034B     		ldr	r3, .L23
 8426 000a 7A68     		ldr	r2, [r7, #4]
 8427 000c 1A60     		str	r2, [r3, #0]
 237:/home/cuil/workspace/arm/lm3s811/TI_Stellaris/driverlib/udma.c **** }
 8428              		.loc 1 237 0
 8429 000e 07F10C07 		add	r7, r7, #12
 8430 0012 BD46     		mov	sp, r7
 8431 0014 80BC     		pop	{r7}
 8432 0016 7047     		bx	lr
 8433              	.L24:
 8434              		.align	2
 8435              	.L23:
 8436 0018 08F00F40 		.word	1074786312
 8437              		.cfi_endproc
 8438              	.LFE7:
 8440              		.section	.text.uDMAControlBaseGet,"ax",%progbits
 8441              		.align	2
 8442              		.global	uDMAControlBaseGet
 8443              		.thumb
 8444              		.thumb_func
 8446              	uDMAControlBaseGet:
 8447              	.LFB8:
 238:/home/cuil/workspace/arm/lm3s811/TI_Stellaris/driverlib/udma.c **** 
 239:/home/cuil/workspace/arm/lm3s811/TI_Stellaris/driverlib/udma.c **** //*****************************************************************************
 240:/home/cuil/workspace/arm/lm3s811/TI_Stellaris/driverlib/udma.c **** //
 241:/home/cuil/workspace/arm/lm3s811/TI_Stellaris/driverlib/udma.c **** //! Gets the base address for the channel control table.
 242:/home/cuil/workspace/arm/lm3s811/TI_Stellaris/driverlib/udma.c **** //!
 243:/home/cuil/workspace/arm/lm3s811/TI_Stellaris/driverlib/udma.c **** //! This function gets the base address of the channel control table.  This
 244:/home/cuil/workspace/arm/lm3s811/TI_Stellaris/driverlib/udma.c **** //! table resides in system memory and holds control information for each uDMA
 245:/home/cuil/workspace/arm/lm3s811/TI_Stellaris/driverlib/udma.c **** //! channel.
 246:/home/cuil/workspace/arm/lm3s811/TI_Stellaris/driverlib/udma.c **** //!
 247:/home/cuil/workspace/arm/lm3s811/TI_Stellaris/driverlib/udma.c **** //! \return Returns a pointer to the base address of the channel control table.
 248:/home/cuil/workspace/arm/lm3s811/TI_Stellaris/driverlib/udma.c **** //
 249:/home/cuil/workspace/arm/lm3s811/TI_Stellaris/driverlib/udma.c **** //*****************************************************************************
 250:/home/cuil/workspace/arm/lm3s811/TI_Stellaris/driverlib/udma.c **** void *
 251:/home/cuil/workspace/arm/lm3s811/TI_Stellaris/driverlib/udma.c **** uDMAControlBaseGet(void)
 252:/home/cuil/workspace/arm/lm3s811/TI_Stellaris/driverlib/udma.c **** {
 8448              		.loc 1 252 0
 8449              		.cfi_startproc
 8450              		@ args = 0, pretend = 0, frame = 0
 8451              		@ frame_needed = 1, uses_anonymous_args = 0
 8452              		@ link register save eliminated.
 8453 0000 80B4     		push	{r7}
 8454              	.LCFI20:
 8455              		.cfi_def_cfa_offset 4
 8456 0002 00AF     		add	r7, sp, #0
 8457              		.cfi_offset 7, -4
 8458              	.LCFI21:
 8459              		.cfi_def_cfa_register 7
 253:/home/cuil/workspace/arm/lm3s811/TI_Stellaris/driverlib/udma.c ****     //
 254:/home/cuil/workspace/arm/lm3s811/TI_Stellaris/driverlib/udma.c ****     // Read the current value of the control base register and return it to
 255:/home/cuil/workspace/arm/lm3s811/TI_Stellaris/driverlib/udma.c ****     // the caller.
 256:/home/cuil/workspace/arm/lm3s811/TI_Stellaris/driverlib/udma.c ****     //
 257:/home/cuil/workspace/arm/lm3s811/TI_Stellaris/driverlib/udma.c ****     return((void *)HWREG(UDMA_CTLBASE));
 8460              		.loc 1 257 0
 8461 0004 024B     		ldr	r3, .L26
 8462 0006 1B68     		ldr	r3, [r3, #0]
 258:/home/cuil/workspace/arm/lm3s811/TI_Stellaris/driverlib/udma.c **** }
 8463              		.loc 1 258 0
 8464 0008 1846     		mov	r0, r3
 8465 000a BD46     		mov	sp, r7
 8466 000c 80BC     		pop	{r7}
 8467 000e 7047     		bx	lr
 8468              	.L27:
 8469              		.align	2
 8470              	.L26:
 8471 0010 08F00F40 		.word	1074786312
 8472              		.cfi_endproc
 8473              	.LFE8:
 8475              		.section	.text.uDMAControlAlternateBaseGet,"ax",%progbits
 8476              		.align	2
 8477              		.global	uDMAControlAlternateBaseGet
 8478              		.thumb
 8479              		.thumb_func
 8481              	uDMAControlAlternateBaseGet:
 8482              	.LFB9:
 259:/home/cuil/workspace/arm/lm3s811/TI_Stellaris/driverlib/udma.c **** 
 260:/home/cuil/workspace/arm/lm3s811/TI_Stellaris/driverlib/udma.c **** //*****************************************************************************
 261:/home/cuil/workspace/arm/lm3s811/TI_Stellaris/driverlib/udma.c **** //
 262:/home/cuil/workspace/arm/lm3s811/TI_Stellaris/driverlib/udma.c **** //! Gets the base address for the channel control table alternate structures.
 263:/home/cuil/workspace/arm/lm3s811/TI_Stellaris/driverlib/udma.c **** //!
 264:/home/cuil/workspace/arm/lm3s811/TI_Stellaris/driverlib/udma.c **** //! This function gets the base address of the second half of the channel
 265:/home/cuil/workspace/arm/lm3s811/TI_Stellaris/driverlib/udma.c **** //! control table that holds the alternate control structures for each channel.
 266:/home/cuil/workspace/arm/lm3s811/TI_Stellaris/driverlib/udma.c **** //!
 267:/home/cuil/workspace/arm/lm3s811/TI_Stellaris/driverlib/udma.c **** //! \return Returns a pointer to the base address of the second half of the
 268:/home/cuil/workspace/arm/lm3s811/TI_Stellaris/driverlib/udma.c **** //! channel control table.
 269:/home/cuil/workspace/arm/lm3s811/TI_Stellaris/driverlib/udma.c **** //
 270:/home/cuil/workspace/arm/lm3s811/TI_Stellaris/driverlib/udma.c **** //*****************************************************************************
 271:/home/cuil/workspace/arm/lm3s811/TI_Stellaris/driverlib/udma.c **** void *
 272:/home/cuil/workspace/arm/lm3s811/TI_Stellaris/driverlib/udma.c **** uDMAControlAlternateBaseGet(void)
 273:/home/cuil/workspace/arm/lm3s811/TI_Stellaris/driverlib/udma.c **** {
 8483              		.loc 1 273 0
 8484              		.cfi_startproc
 8485              		@ args = 0, pretend = 0, frame = 0
 8486              		@ frame_needed = 1, uses_anonymous_args = 0
 8487              		@ link register save eliminated.
 8488 0000 80B4     		push	{r7}
 8489              	.LCFI22:
 8490              		.cfi_def_cfa_offset 4
 8491 0002 00AF     		add	r7, sp, #0
 8492              		.cfi_offset 7, -4
 8493              	.LCFI23:
 8494              		.cfi_def_cfa_register 7
 274:/home/cuil/workspace/arm/lm3s811/TI_Stellaris/driverlib/udma.c ****     //
 275:/home/cuil/workspace/arm/lm3s811/TI_Stellaris/driverlib/udma.c ****     // Read the current value of the control base register and return it to
 276:/home/cuil/workspace/arm/lm3s811/TI_Stellaris/driverlib/udma.c ****     // the caller.
 277:/home/cuil/workspace/arm/lm3s811/TI_Stellaris/driverlib/udma.c ****     //
 278:/home/cuil/workspace/arm/lm3s811/TI_Stellaris/driverlib/udma.c ****     return((void *)HWREG(UDMA_ALTBASE));
 8495              		.loc 1 278 0
 8496 0004 024B     		ldr	r3, .L29
 8497 0006 1B68     		ldr	r3, [r3, #0]
 279:/home/cuil/workspace/arm/lm3s811/TI_Stellaris/driverlib/udma.c **** }
 8498              		.loc 1 279 0
 8499 0008 1846     		mov	r0, r3
 8500 000a BD46     		mov	sp, r7
 8501 000c 80BC     		pop	{r7}
 8502 000e 7047     		bx	lr
 8503              	.L30:
 8504              		.align	2
 8505              	.L29:
 8506 0010 0CF00F40 		.word	1074786316
 8507              		.cfi_endproc
 8508              	.LFE9:
 8510              		.section	.text.uDMAChannelRequest,"ax",%progbits
 8511              		.align	2
 8512              		.global	uDMAChannelRequest
 8513              		.thumb
 8514              		.thumb_func
 8516              	uDMAChannelRequest:
 8517              	.LFB10:
 280:/home/cuil/workspace/arm/lm3s811/TI_Stellaris/driverlib/udma.c **** 
 281:/home/cuil/workspace/arm/lm3s811/TI_Stellaris/driverlib/udma.c **** //*****************************************************************************
 282:/home/cuil/workspace/arm/lm3s811/TI_Stellaris/driverlib/udma.c **** //
 283:/home/cuil/workspace/arm/lm3s811/TI_Stellaris/driverlib/udma.c **** //! Requests a uDMA channel to start a transfer.
 284:/home/cuil/workspace/arm/lm3s811/TI_Stellaris/driverlib/udma.c **** //!
 285:/home/cuil/workspace/arm/lm3s811/TI_Stellaris/driverlib/udma.c **** //! \param ulChannelNum is the channel number on which to request a uDMA
 286:/home/cuil/workspace/arm/lm3s811/TI_Stellaris/driverlib/udma.c **** //! transfer.
 287:/home/cuil/workspace/arm/lm3s811/TI_Stellaris/driverlib/udma.c **** //!
 288:/home/cuil/workspace/arm/lm3s811/TI_Stellaris/driverlib/udma.c **** //! This function allows software to request a uDMA channel to begin a
 289:/home/cuil/workspace/arm/lm3s811/TI_Stellaris/driverlib/udma.c **** //! transfer.  This function could be used for performing a memory-to-memory 
 290:/home/cuil/workspace/arm/lm3s811/TI_Stellaris/driverlib/udma.c **** //! transfer or if for some reason, a transfer needs to be initiated by software 
 291:/home/cuil/workspace/arm/lm3s811/TI_Stellaris/driverlib/udma.c **** //! instead of the peripheral associated with that channel.
 292:/home/cuil/workspace/arm/lm3s811/TI_Stellaris/driverlib/udma.c **** //!
 293:/home/cuil/workspace/arm/lm3s811/TI_Stellaris/driverlib/udma.c **** //! \note If the channel is \b UDMA_CHANNEL_SW and interrupts are used, then
 294:/home/cuil/workspace/arm/lm3s811/TI_Stellaris/driverlib/udma.c **** //! the completion is signaled on the uDMA dedicated interrupt.  If a
 295:/home/cuil/workspace/arm/lm3s811/TI_Stellaris/driverlib/udma.c **** //! peripheral channel is used, then the completion is signaled on the
 296:/home/cuil/workspace/arm/lm3s811/TI_Stellaris/driverlib/udma.c **** //! peripheral's interrupt.
 297:/home/cuil/workspace/arm/lm3s811/TI_Stellaris/driverlib/udma.c **** //!
 298:/home/cuil/workspace/arm/lm3s811/TI_Stellaris/driverlib/udma.c **** //! \return None.
 299:/home/cuil/workspace/arm/lm3s811/TI_Stellaris/driverlib/udma.c **** //
 300:/home/cuil/workspace/arm/lm3s811/TI_Stellaris/driverlib/udma.c **** //*****************************************************************************
 301:/home/cuil/workspace/arm/lm3s811/TI_Stellaris/driverlib/udma.c **** void
 302:/home/cuil/workspace/arm/lm3s811/TI_Stellaris/driverlib/udma.c **** uDMAChannelRequest(unsigned long ulChannelNum)
 303:/home/cuil/workspace/arm/lm3s811/TI_Stellaris/driverlib/udma.c **** {
 8518              		.loc 1 303 0
 8519              		.cfi_startproc
 8520              		@ args = 0, pretend = 0, frame = 8
 8521              		@ frame_needed = 1, uses_anonymous_args = 0
 8522              		@ link register save eliminated.
 8523 0000 80B4     		push	{r7}
 8524              	.LCFI24:
 8525              		.cfi_def_cfa_offset 4
 8526 0002 83B0     		sub	sp, sp, #12
 8527              	.LCFI25:
 8528              		.cfi_def_cfa_offset 16
 8529 0004 00AF     		add	r7, sp, #0
 8530              		.cfi_offset 7, -4
 8531              	.LCFI26:
 8532              		.cfi_def_cfa_register 7
 8533 0006 7860     		str	r0, [r7, #4]
 304:/home/cuil/workspace/arm/lm3s811/TI_Stellaris/driverlib/udma.c ****     //
 305:/home/cuil/workspace/arm/lm3s811/TI_Stellaris/driverlib/udma.c ****     // Check the arguments.
 306:/home/cuil/workspace/arm/lm3s811/TI_Stellaris/driverlib/udma.c ****     //
 307:/home/cuil/workspace/arm/lm3s811/TI_Stellaris/driverlib/udma.c ****     ASSERT((ulChannelNum & 0xffff) < 32);
 308:/home/cuil/workspace/arm/lm3s811/TI_Stellaris/driverlib/udma.c **** 
 309:/home/cuil/workspace/arm/lm3s811/TI_Stellaris/driverlib/udma.c ****     //
 310:/home/cuil/workspace/arm/lm3s811/TI_Stellaris/driverlib/udma.c ****     // Set the bit for this channel in the software uDMA request register.
 311:/home/cuil/workspace/arm/lm3s811/TI_Stellaris/driverlib/udma.c ****     //
 312:/home/cuil/workspace/arm/lm3s811/TI_Stellaris/driverlib/udma.c ****     HWREG(UDMA_SWREQ) = 1 << (ulChannelNum & 0x1f);
 8534              		.loc 1 312 0
 8535 0008 064B     		ldr	r3, .L32
 8536 000a 7A68     		ldr	r2, [r7, #4]
 8537 000c 02F01F02 		and	r2, r2, #31
 8538 0010 4FF00101 		mov	r1, #1
 8539 0014 01FA02F2 		lsl	r2, r1, r2
 8540 0018 1A60     		str	r2, [r3, #0]
 313:/home/cuil/workspace/arm/lm3s811/TI_Stellaris/driverlib/udma.c **** }
 8541              		.loc 1 313 0
 8542 001a 07F10C07 		add	r7, r7, #12
 8543 001e BD46     		mov	sp, r7
 8544 0020 80BC     		pop	{r7}
 8545 0022 7047     		bx	lr
 8546              	.L33:
 8547              		.align	2
 8548              	.L32:
 8549 0024 14F00F40 		.word	1074786324
 8550              		.cfi_endproc
 8551              	.LFE10:
 8553              		.section	.text.uDMAChannelAttributeEnable,"ax",%progbits
 8554              		.align	2
 8555              		.global	uDMAChannelAttributeEnable
 8556              		.thumb
 8557              		.thumb_func
 8559              	uDMAChannelAttributeEnable:
 8560              	.LFB11:
 314:/home/cuil/workspace/arm/lm3s811/TI_Stellaris/driverlib/udma.c **** 
 315:/home/cuil/workspace/arm/lm3s811/TI_Stellaris/driverlib/udma.c **** //*****************************************************************************
 316:/home/cuil/workspace/arm/lm3s811/TI_Stellaris/driverlib/udma.c **** //
 317:/home/cuil/workspace/arm/lm3s811/TI_Stellaris/driverlib/udma.c **** //! Enables attributes of a uDMA channel.
 318:/home/cuil/workspace/arm/lm3s811/TI_Stellaris/driverlib/udma.c **** //!
 319:/home/cuil/workspace/arm/lm3s811/TI_Stellaris/driverlib/udma.c **** //! \param ulChannelNum is the channel to configure.
 320:/home/cuil/workspace/arm/lm3s811/TI_Stellaris/driverlib/udma.c **** //! \param ulAttr is a combination of attributes for the channel.
 321:/home/cuil/workspace/arm/lm3s811/TI_Stellaris/driverlib/udma.c **** //!
 322:/home/cuil/workspace/arm/lm3s811/TI_Stellaris/driverlib/udma.c **** //! This function is used to enable attributes of a uDMA channel.
 323:/home/cuil/workspace/arm/lm3s811/TI_Stellaris/driverlib/udma.c **** //!
 324:/home/cuil/workspace/arm/lm3s811/TI_Stellaris/driverlib/udma.c **** //! The \e ulAttr parameter is the logical OR of any of the following:
 325:/home/cuil/workspace/arm/lm3s811/TI_Stellaris/driverlib/udma.c **** //!
 326:/home/cuil/workspace/arm/lm3s811/TI_Stellaris/driverlib/udma.c **** //! - \b UDMA_ATTR_USEBURST is used to restrict transfers to use only burst
 327:/home/cuil/workspace/arm/lm3s811/TI_Stellaris/driverlib/udma.c **** //!   mode.
 328:/home/cuil/workspace/arm/lm3s811/TI_Stellaris/driverlib/udma.c **** //! - \b UDMA_ATTR_ALTSELECT is used to select the alternate control structure
 329:/home/cuil/workspace/arm/lm3s811/TI_Stellaris/driverlib/udma.c **** //!   for this channel (it is very unlikely that this flag should be used).
 330:/home/cuil/workspace/arm/lm3s811/TI_Stellaris/driverlib/udma.c **** //! - \b UDMA_ATTR_HIGH_PRIORITY is used to set this channel to high priority.
 331:/home/cuil/workspace/arm/lm3s811/TI_Stellaris/driverlib/udma.c **** //! - \b UDMA_ATTR_REQMASK is used to mask the hardware request signal from the
 332:/home/cuil/workspace/arm/lm3s811/TI_Stellaris/driverlib/udma.c **** //!   peripheral for this channel.
 333:/home/cuil/workspace/arm/lm3s811/TI_Stellaris/driverlib/udma.c **** //!
 334:/home/cuil/workspace/arm/lm3s811/TI_Stellaris/driverlib/udma.c **** //! \return None.
 335:/home/cuil/workspace/arm/lm3s811/TI_Stellaris/driverlib/udma.c **** //
 336:/home/cuil/workspace/arm/lm3s811/TI_Stellaris/driverlib/udma.c **** //*****************************************************************************
 337:/home/cuil/workspace/arm/lm3s811/TI_Stellaris/driverlib/udma.c **** void
 338:/home/cuil/workspace/arm/lm3s811/TI_Stellaris/driverlib/udma.c **** uDMAChannelAttributeEnable(unsigned long ulChannelNum, unsigned long ulAttr)
 339:/home/cuil/workspace/arm/lm3s811/TI_Stellaris/driverlib/udma.c **** {
 8561              		.loc 1 339 0
 8562              		.cfi_startproc
 8563              		@ args = 0, pretend = 0, frame = 8
 8564              		@ frame_needed = 1, uses_anonymous_args = 0
 8565              		@ link register save eliminated.
 8566 0000 80B4     		push	{r7}
 8567              	.LCFI27:
 8568              		.cfi_def_cfa_offset 4
 8569 0002 83B0     		sub	sp, sp, #12
 8570              	.LCFI28:
 8571              		.cfi_def_cfa_offset 16
 8572 0004 00AF     		add	r7, sp, #0
 8573              		.cfi_offset 7, -4
 8574              	.LCFI29:
 8575              		.cfi_def_cfa_register 7
 8576 0006 7860     		str	r0, [r7, #4]
 8577 0008 3960     		str	r1, [r7, #0]
 340:/home/cuil/workspace/arm/lm3s811/TI_Stellaris/driverlib/udma.c ****     //
 341:/home/cuil/workspace/arm/lm3s811/TI_Stellaris/driverlib/udma.c ****     // Check the arguments.
 342:/home/cuil/workspace/arm/lm3s811/TI_Stellaris/driverlib/udma.c ****     //
 343:/home/cuil/workspace/arm/lm3s811/TI_Stellaris/driverlib/udma.c ****     ASSERT((ulChannelNum & 0xffff) < 32);
 344:/home/cuil/workspace/arm/lm3s811/TI_Stellaris/driverlib/udma.c ****     ASSERT((ulAttr & ~(UDMA_ATTR_USEBURST | UDMA_ATTR_ALTSELECT |
 345:/home/cuil/workspace/arm/lm3s811/TI_Stellaris/driverlib/udma.c ****                        UDMA_ATTR_HIGH_PRIORITY | UDMA_ATTR_REQMASK)) == 0);
 346:/home/cuil/workspace/arm/lm3s811/TI_Stellaris/driverlib/udma.c **** 
 347:/home/cuil/workspace/arm/lm3s811/TI_Stellaris/driverlib/udma.c ****     //
 348:/home/cuil/workspace/arm/lm3s811/TI_Stellaris/driverlib/udma.c ****     // In case a channel selector macro (like UDMA_CH0_USB0EP1RX) was
 349:/home/cuil/workspace/arm/lm3s811/TI_Stellaris/driverlib/udma.c ****     // passed as the ulChannelNum parameter, extract just the channel number
 350:/home/cuil/workspace/arm/lm3s811/TI_Stellaris/driverlib/udma.c ****     // from this parameter.
 351:/home/cuil/workspace/arm/lm3s811/TI_Stellaris/driverlib/udma.c ****     //
 352:/home/cuil/workspace/arm/lm3s811/TI_Stellaris/driverlib/udma.c ****     ulChannelNum &= 0x1f;
 8578              		.loc 1 352 0
 8579 000a 7B68     		ldr	r3, [r7, #4]
 8580 000c 03F01F03 		and	r3, r3, #31
 8581 0010 7B60     		str	r3, [r7, #4]
 353:/home/cuil/workspace/arm/lm3s811/TI_Stellaris/driverlib/udma.c **** 
 354:/home/cuil/workspace/arm/lm3s811/TI_Stellaris/driverlib/udma.c ****     //
 355:/home/cuil/workspace/arm/lm3s811/TI_Stellaris/driverlib/udma.c ****     // Set the useburst bit for this channel if set in ulConfig.
 356:/home/cuil/workspace/arm/lm3s811/TI_Stellaris/driverlib/udma.c ****     //
 357:/home/cuil/workspace/arm/lm3s811/TI_Stellaris/driverlib/udma.c ****     if(ulAttr & UDMA_ATTR_USEBURST)
 8582              		.loc 1 357 0
 8583 0012 3B68     		ldr	r3, [r7, #0]
 8584 0014 03F00103 		and	r3, r3, #1
 8585 0018 DBB2     		uxtb	r3, r3
 8586 001a 002B     		cmp	r3, #0
 8587 001c 06D0     		beq	.L35
 358:/home/cuil/workspace/arm/lm3s811/TI_Stellaris/driverlib/udma.c ****     {
 359:/home/cuil/workspace/arm/lm3s811/TI_Stellaris/driverlib/udma.c ****         HWREG(UDMA_USEBURSTSET) = 1 << ulChannelNum;
 8588              		.loc 1 359 0
 8589 001e 184B     		ldr	r3, .L39
 8590 0020 7A68     		ldr	r2, [r7, #4]
 8591 0022 4FF00101 		mov	r1, #1
 8592 0026 01FA02F2 		lsl	r2, r1, r2
 8593 002a 1A60     		str	r2, [r3, #0]
 8594              	.L35:
 360:/home/cuil/workspace/arm/lm3s811/TI_Stellaris/driverlib/udma.c ****     }
 361:/home/cuil/workspace/arm/lm3s811/TI_Stellaris/driverlib/udma.c **** 
 362:/home/cuil/workspace/arm/lm3s811/TI_Stellaris/driverlib/udma.c ****     //
 363:/home/cuil/workspace/arm/lm3s811/TI_Stellaris/driverlib/udma.c ****     // Set the alternate control select bit for this channel,
 364:/home/cuil/workspace/arm/lm3s811/TI_Stellaris/driverlib/udma.c ****     // if set in ulConfig.
 365:/home/cuil/workspace/arm/lm3s811/TI_Stellaris/driverlib/udma.c ****     //
 366:/home/cuil/workspace/arm/lm3s811/TI_Stellaris/driverlib/udma.c ****     if(ulAttr & UDMA_ATTR_ALTSELECT)
 8595              		.loc 1 366 0
 8596 002c 3B68     		ldr	r3, [r7, #0]
 8597 002e 03F00203 		and	r3, r3, #2
 8598 0032 002B     		cmp	r3, #0
 8599 0034 06D0     		beq	.L36
 367:/home/cuil/workspace/arm/lm3s811/TI_Stellaris/driverlib/udma.c ****     {
 368:/home/cuil/workspace/arm/lm3s811/TI_Stellaris/driverlib/udma.c ****         HWREG(UDMA_ALTSET) = 1 << ulChannelNum;
 8600              		.loc 1 368 0
 8601 0036 134B     		ldr	r3, .L39+4
 8602 0038 7A68     		ldr	r2, [r7, #4]
 8603 003a 4FF00101 		mov	r1, #1
 8604 003e 01FA02F2 		lsl	r2, r1, r2
 8605 0042 1A60     		str	r2, [r3, #0]
 8606              	.L36:
 369:/home/cuil/workspace/arm/lm3s811/TI_Stellaris/driverlib/udma.c ****     }
 370:/home/cuil/workspace/arm/lm3s811/TI_Stellaris/driverlib/udma.c **** 
 371:/home/cuil/workspace/arm/lm3s811/TI_Stellaris/driverlib/udma.c ****     //
 372:/home/cuil/workspace/arm/lm3s811/TI_Stellaris/driverlib/udma.c ****     // Set the high priority bit for this channel, if set in ulConfig.
 373:/home/cuil/workspace/arm/lm3s811/TI_Stellaris/driverlib/udma.c ****     //
 374:/home/cuil/workspace/arm/lm3s811/TI_Stellaris/driverlib/udma.c ****     if(ulAttr & UDMA_ATTR_HIGH_PRIORITY)
 8607              		.loc 1 374 0
 8608 0044 3B68     		ldr	r3, [r7, #0]
 8609 0046 03F00403 		and	r3, r3, #4
 8610 004a 002B     		cmp	r3, #0
 8611 004c 06D0     		beq	.L37
 375:/home/cuil/workspace/arm/lm3s811/TI_Stellaris/driverlib/udma.c ****     {
 376:/home/cuil/workspace/arm/lm3s811/TI_Stellaris/driverlib/udma.c ****         HWREG(UDMA_PRIOSET) = 1 << ulChannelNum;
 8612              		.loc 1 376 0
 8613 004e 0E4B     		ldr	r3, .L39+8
 8614 0050 7A68     		ldr	r2, [r7, #4]
 8615 0052 4FF00101 		mov	r1, #1
 8616 0056 01FA02F2 		lsl	r2, r1, r2
 8617 005a 1A60     		str	r2, [r3, #0]
 8618              	.L37:
 377:/home/cuil/workspace/arm/lm3s811/TI_Stellaris/driverlib/udma.c ****     }
 378:/home/cuil/workspace/arm/lm3s811/TI_Stellaris/driverlib/udma.c **** 
 379:/home/cuil/workspace/arm/lm3s811/TI_Stellaris/driverlib/udma.c ****     //
 380:/home/cuil/workspace/arm/lm3s811/TI_Stellaris/driverlib/udma.c ****     // Set the request mask bit for this channel, if set in ulConfig.
 381:/home/cuil/workspace/arm/lm3s811/TI_Stellaris/driverlib/udma.c ****     //
 382:/home/cuil/workspace/arm/lm3s811/TI_Stellaris/driverlib/udma.c ****     if(ulAttr & UDMA_ATTR_REQMASK)
 8619              		.loc 1 382 0
 8620 005c 3B68     		ldr	r3, [r7, #0]
 8621 005e 03F00803 		and	r3, r3, #8
 8622 0062 002B     		cmp	r3, #0
 8623 0064 06D0     		beq	.L34
 383:/home/cuil/workspace/arm/lm3s811/TI_Stellaris/driverlib/udma.c ****     {
 384:/home/cuil/workspace/arm/lm3s811/TI_Stellaris/driverlib/udma.c ****         HWREG(UDMA_REQMASKSET) = 1 << ulChannelNum;
 8624              		.loc 1 384 0
 8625 0066 094B     		ldr	r3, .L39+12
 8626 0068 7A68     		ldr	r2, [r7, #4]
 8627 006a 4FF00101 		mov	r1, #1
 8628 006e 01FA02F2 		lsl	r2, r1, r2
 8629 0072 1A60     		str	r2, [r3, #0]
 8630              	.L34:
 385:/home/cuil/workspace/arm/lm3s811/TI_Stellaris/driverlib/udma.c ****     }
 386:/home/cuil/workspace/arm/lm3s811/TI_Stellaris/driverlib/udma.c **** }
 8631              		.loc 1 386 0
 8632 0074 07F10C07 		add	r7, r7, #12
 8633 0078 BD46     		mov	sp, r7
 8634 007a 80BC     		pop	{r7}
 8635 007c 7047     		bx	lr
 8636              	.L40:
 8637 007e 00BF     		.align	2
 8638              	.L39:
 8639 0080 18F00F40 		.word	1074786328
 8640 0084 30F00F40 		.word	1074786352
 8641 0088 38F00F40 		.word	1074786360
 8642 008c 20F00F40 		.word	1074786336
 8643              		.cfi_endproc
 8644              	.LFE11:
 8646              		.section	.text.uDMAChannelAttributeDisable,"ax",%progbits
 8647              		.align	2
 8648              		.global	uDMAChannelAttributeDisable
 8649              		.thumb
 8650              		.thumb_func
 8652              	uDMAChannelAttributeDisable:
 8653              	.LFB12:
 387:/home/cuil/workspace/arm/lm3s811/TI_Stellaris/driverlib/udma.c **** 
 388:/home/cuil/workspace/arm/lm3s811/TI_Stellaris/driverlib/udma.c **** //*****************************************************************************
 389:/home/cuil/workspace/arm/lm3s811/TI_Stellaris/driverlib/udma.c **** //
 390:/home/cuil/workspace/arm/lm3s811/TI_Stellaris/driverlib/udma.c **** //! Disables attributes of a uDMA channel.
 391:/home/cuil/workspace/arm/lm3s811/TI_Stellaris/driverlib/udma.c **** //!
 392:/home/cuil/workspace/arm/lm3s811/TI_Stellaris/driverlib/udma.c **** //! \param ulChannelNum is the channel to configure.
 393:/home/cuil/workspace/arm/lm3s811/TI_Stellaris/driverlib/udma.c **** //! \param ulAttr is a combination of attributes for the channel.
 394:/home/cuil/workspace/arm/lm3s811/TI_Stellaris/driverlib/udma.c **** //!
 395:/home/cuil/workspace/arm/lm3s811/TI_Stellaris/driverlib/udma.c **** //! This function is used to disable attributes of a uDMA channel.
 396:/home/cuil/workspace/arm/lm3s811/TI_Stellaris/driverlib/udma.c **** //!
 397:/home/cuil/workspace/arm/lm3s811/TI_Stellaris/driverlib/udma.c **** //! The \e ulAttr parameter is the logical OR of any of the following:
 398:/home/cuil/workspace/arm/lm3s811/TI_Stellaris/driverlib/udma.c **** //!
 399:/home/cuil/workspace/arm/lm3s811/TI_Stellaris/driverlib/udma.c **** //! - \b UDMA_ATTR_USEBURST is used to restrict transfers to use only burst
 400:/home/cuil/workspace/arm/lm3s811/TI_Stellaris/driverlib/udma.c **** //!   mode.
 401:/home/cuil/workspace/arm/lm3s811/TI_Stellaris/driverlib/udma.c **** //! - \b UDMA_ATTR_ALTSELECT is used to select the alternate control structure
 402:/home/cuil/workspace/arm/lm3s811/TI_Stellaris/driverlib/udma.c **** //!   for this channel.
 403:/home/cuil/workspace/arm/lm3s811/TI_Stellaris/driverlib/udma.c **** //! - \b UDMA_ATTR_HIGH_PRIORITY is used to set this channel to high priority.
 404:/home/cuil/workspace/arm/lm3s811/TI_Stellaris/driverlib/udma.c **** //! - \b UDMA_ATTR_REQMASK is used to mask the hardware request signal from the
 405:/home/cuil/workspace/arm/lm3s811/TI_Stellaris/driverlib/udma.c **** //!   peripheral for this channel.
 406:/home/cuil/workspace/arm/lm3s811/TI_Stellaris/driverlib/udma.c **** //!
 407:/home/cuil/workspace/arm/lm3s811/TI_Stellaris/driverlib/udma.c **** //! \return None.
 408:/home/cuil/workspace/arm/lm3s811/TI_Stellaris/driverlib/udma.c **** //
 409:/home/cuil/workspace/arm/lm3s811/TI_Stellaris/driverlib/udma.c **** //*****************************************************************************
 410:/home/cuil/workspace/arm/lm3s811/TI_Stellaris/driverlib/udma.c **** void
 411:/home/cuil/workspace/arm/lm3s811/TI_Stellaris/driverlib/udma.c **** uDMAChannelAttributeDisable(unsigned long ulChannelNum, unsigned long ulAttr)
 412:/home/cuil/workspace/arm/lm3s811/TI_Stellaris/driverlib/udma.c **** {
 8654              		.loc 1 412 0
 8655              		.cfi_startproc
 8656              		@ args = 0, pretend = 0, frame = 8
 8657              		@ frame_needed = 1, uses_anonymous_args = 0
 8658              		@ link register save eliminated.
 8659 0000 80B4     		push	{r7}
 8660              	.LCFI30:
 8661              		.cfi_def_cfa_offset 4
 8662 0002 83B0     		sub	sp, sp, #12
 8663              	.LCFI31:
 8664              		.cfi_def_cfa_offset 16
 8665 0004 00AF     		add	r7, sp, #0
 8666              		.cfi_offset 7, -4
 8667              	.LCFI32:
 8668              		.cfi_def_cfa_register 7
 8669 0006 7860     		str	r0, [r7, #4]
 8670 0008 3960     		str	r1, [r7, #0]
 413:/home/cuil/workspace/arm/lm3s811/TI_Stellaris/driverlib/udma.c ****     //
 414:/home/cuil/workspace/arm/lm3s811/TI_Stellaris/driverlib/udma.c ****     // Check the arguments.
 415:/home/cuil/workspace/arm/lm3s811/TI_Stellaris/driverlib/udma.c ****     //
 416:/home/cuil/workspace/arm/lm3s811/TI_Stellaris/driverlib/udma.c ****     ASSERT((ulChannelNum & 0xffff) < 32);
 417:/home/cuil/workspace/arm/lm3s811/TI_Stellaris/driverlib/udma.c ****     ASSERT((ulAttr & ~(UDMA_ATTR_USEBURST | UDMA_ATTR_ALTSELECT |
 418:/home/cuil/workspace/arm/lm3s811/TI_Stellaris/driverlib/udma.c ****                        UDMA_ATTR_HIGH_PRIORITY | UDMA_ATTR_REQMASK)) == 0);
 419:/home/cuil/workspace/arm/lm3s811/TI_Stellaris/driverlib/udma.c **** 
 420:/home/cuil/workspace/arm/lm3s811/TI_Stellaris/driverlib/udma.c ****     //
 421:/home/cuil/workspace/arm/lm3s811/TI_Stellaris/driverlib/udma.c ****     // In case a channel selector macro (like UDMA_CH0_USB0EP1RX) was
 422:/home/cuil/workspace/arm/lm3s811/TI_Stellaris/driverlib/udma.c ****     // passed as the ulChannelNum parameter, extract just the channel number
 423:/home/cuil/workspace/arm/lm3s811/TI_Stellaris/driverlib/udma.c ****     // from this parameter.
 424:/home/cuil/workspace/arm/lm3s811/TI_Stellaris/driverlib/udma.c ****     //
 425:/home/cuil/workspace/arm/lm3s811/TI_Stellaris/driverlib/udma.c ****     ulChannelNum &= 0x1f;
 8671              		.loc 1 425 0
 8672 000a 7B68     		ldr	r3, [r7, #4]
 8673 000c 03F01F03 		and	r3, r3, #31
 8674 0010 7B60     		str	r3, [r7, #4]
 426:/home/cuil/workspace/arm/lm3s811/TI_Stellaris/driverlib/udma.c **** 
 427:/home/cuil/workspace/arm/lm3s811/TI_Stellaris/driverlib/udma.c ****     //
 428:/home/cuil/workspace/arm/lm3s811/TI_Stellaris/driverlib/udma.c ****     // Clear the useburst bit for this channel if set in ulConfig.
 429:/home/cuil/workspace/arm/lm3s811/TI_Stellaris/driverlib/udma.c ****     //
 430:/home/cuil/workspace/arm/lm3s811/TI_Stellaris/driverlib/udma.c ****     if(ulAttr & UDMA_ATTR_USEBURST)
 8675              		.loc 1 430 0
 8676 0012 3B68     		ldr	r3, [r7, #0]
 8677 0014 03F00103 		and	r3, r3, #1
 8678 0018 DBB2     		uxtb	r3, r3
 8679 001a 002B     		cmp	r3, #0
 8680 001c 06D0     		beq	.L42
 431:/home/cuil/workspace/arm/lm3s811/TI_Stellaris/driverlib/udma.c ****     {
 432:/home/cuil/workspace/arm/lm3s811/TI_Stellaris/driverlib/udma.c ****         HWREG(UDMA_USEBURSTCLR) = 1 << ulChannelNum;
 8681              		.loc 1 432 0
 8682 001e 184B     		ldr	r3, .L46
 8683 0020 7A68     		ldr	r2, [r7, #4]
 8684 0022 4FF00101 		mov	r1, #1
 8685 0026 01FA02F2 		lsl	r2, r1, r2
 8686 002a 1A60     		str	r2, [r3, #0]
 8687              	.L42:
 433:/home/cuil/workspace/arm/lm3s811/TI_Stellaris/driverlib/udma.c ****     }
 434:/home/cuil/workspace/arm/lm3s811/TI_Stellaris/driverlib/udma.c **** 
 435:/home/cuil/workspace/arm/lm3s811/TI_Stellaris/driverlib/udma.c ****     //
 436:/home/cuil/workspace/arm/lm3s811/TI_Stellaris/driverlib/udma.c ****     // Clear the alternate control select bit for this channel, if set in
 437:/home/cuil/workspace/arm/lm3s811/TI_Stellaris/driverlib/udma.c ****     // ulConfig.
 438:/home/cuil/workspace/arm/lm3s811/TI_Stellaris/driverlib/udma.c ****     //
 439:/home/cuil/workspace/arm/lm3s811/TI_Stellaris/driverlib/udma.c ****     if(ulAttr & UDMA_ATTR_ALTSELECT)
 8688              		.loc 1 439 0
 8689 002c 3B68     		ldr	r3, [r7, #0]
 8690 002e 03F00203 		and	r3, r3, #2
 8691 0032 002B     		cmp	r3, #0
 8692 0034 06D0     		beq	.L43
 440:/home/cuil/workspace/arm/lm3s811/TI_Stellaris/driverlib/udma.c ****     {
 441:/home/cuil/workspace/arm/lm3s811/TI_Stellaris/driverlib/udma.c ****         HWREG(UDMA_ALTCLR) = 1 << ulChannelNum;
 8693              		.loc 1 441 0
 8694 0036 134B     		ldr	r3, .L46+4
 8695 0038 7A68     		ldr	r2, [r7, #4]
 8696 003a 4FF00101 		mov	r1, #1
 8697 003e 01FA02F2 		lsl	r2, r1, r2
 8698 0042 1A60     		str	r2, [r3, #0]
 8699              	.L43:
 442:/home/cuil/workspace/arm/lm3s811/TI_Stellaris/driverlib/udma.c ****     }
 443:/home/cuil/workspace/arm/lm3s811/TI_Stellaris/driverlib/udma.c **** 
 444:/home/cuil/workspace/arm/lm3s811/TI_Stellaris/driverlib/udma.c ****     //
 445:/home/cuil/workspace/arm/lm3s811/TI_Stellaris/driverlib/udma.c ****     // Clear the high priority bit for this channel, if set in ulConfig.
 446:/home/cuil/workspace/arm/lm3s811/TI_Stellaris/driverlib/udma.c ****     //
 447:/home/cuil/workspace/arm/lm3s811/TI_Stellaris/driverlib/udma.c ****     if(ulAttr & UDMA_ATTR_HIGH_PRIORITY)
 8700              		.loc 1 447 0
 8701 0044 3B68     		ldr	r3, [r7, #0]
 8702 0046 03F00403 		and	r3, r3, #4
 8703 004a 002B     		cmp	r3, #0
 8704 004c 06D0     		beq	.L44
 448:/home/cuil/workspace/arm/lm3s811/TI_Stellaris/driverlib/udma.c ****     {
 449:/home/cuil/workspace/arm/lm3s811/TI_Stellaris/driverlib/udma.c ****         HWREG(UDMA_PRIOCLR) = 1 << ulChannelNum;
 8705              		.loc 1 449 0
 8706 004e 0E4B     		ldr	r3, .L46+8
 8707 0050 7A68     		ldr	r2, [r7, #4]
 8708 0052 4FF00101 		mov	r1, #1
 8709 0056 01FA02F2 		lsl	r2, r1, r2
 8710 005a 1A60     		str	r2, [r3, #0]
 8711              	.L44:
 450:/home/cuil/workspace/arm/lm3s811/TI_Stellaris/driverlib/udma.c ****     }
 451:/home/cuil/workspace/arm/lm3s811/TI_Stellaris/driverlib/udma.c **** 
 452:/home/cuil/workspace/arm/lm3s811/TI_Stellaris/driverlib/udma.c ****     //
 453:/home/cuil/workspace/arm/lm3s811/TI_Stellaris/driverlib/udma.c ****     // Clear the request mask bit for this channel, if set in ulConfig.
 454:/home/cuil/workspace/arm/lm3s811/TI_Stellaris/driverlib/udma.c ****     //
 455:/home/cuil/workspace/arm/lm3s811/TI_Stellaris/driverlib/udma.c ****     if(ulAttr & UDMA_ATTR_REQMASK)
 8712              		.loc 1 455 0
 8713 005c 3B68     		ldr	r3, [r7, #0]
 8714 005e 03F00803 		and	r3, r3, #8
 8715 0062 002B     		cmp	r3, #0
 8716 0064 06D0     		beq	.L41
 456:/home/cuil/workspace/arm/lm3s811/TI_Stellaris/driverlib/udma.c ****     {
 457:/home/cuil/workspace/arm/lm3s811/TI_Stellaris/driverlib/udma.c ****         HWREG(UDMA_REQMASKCLR) = 1 << ulChannelNum;
 8717              		.loc 1 457 0
 8718 0066 094B     		ldr	r3, .L46+12
 8719 0068 7A68     		ldr	r2, [r7, #4]
 8720 006a 4FF00101 		mov	r1, #1
 8721 006e 01FA02F2 		lsl	r2, r1, r2
 8722 0072 1A60     		str	r2, [r3, #0]
 8723              	.L41:
 458:/home/cuil/workspace/arm/lm3s811/TI_Stellaris/driverlib/udma.c ****     }
 459:/home/cuil/workspace/arm/lm3s811/TI_Stellaris/driverlib/udma.c **** }
 8724              		.loc 1 459 0
 8725 0074 07F10C07 		add	r7, r7, #12
 8726 0078 BD46     		mov	sp, r7
 8727 007a 80BC     		pop	{r7}
 8728 007c 7047     		bx	lr
 8729              	.L47:
 8730 007e 00BF     		.align	2
 8731              	.L46:
 8732 0080 1CF00F40 		.word	1074786332
 8733 0084 34F00F40 		.word	1074786356
 8734 0088 3CF00F40 		.word	1074786364
 8735 008c 24F00F40 		.word	1074786340
 8736              		.cfi_endproc
 8737              	.LFE12:
 8739              		.section	.text.uDMAChannelAttributeGet,"ax",%progbits
 8740              		.align	2
 8741              		.global	uDMAChannelAttributeGet
 8742              		.thumb
 8743              		.thumb_func
 8745              	uDMAChannelAttributeGet:
 8746              	.LFB13:
 460:/home/cuil/workspace/arm/lm3s811/TI_Stellaris/driverlib/udma.c **** 
 461:/home/cuil/workspace/arm/lm3s811/TI_Stellaris/driverlib/udma.c **** //*****************************************************************************
 462:/home/cuil/workspace/arm/lm3s811/TI_Stellaris/driverlib/udma.c **** //
 463:/home/cuil/workspace/arm/lm3s811/TI_Stellaris/driverlib/udma.c **** //! Gets the enabled attributes of a uDMA channel.
 464:/home/cuil/workspace/arm/lm3s811/TI_Stellaris/driverlib/udma.c **** //!
 465:/home/cuil/workspace/arm/lm3s811/TI_Stellaris/driverlib/udma.c **** //! \param ulChannelNum is the channel to configure.
 466:/home/cuil/workspace/arm/lm3s811/TI_Stellaris/driverlib/udma.c **** //!
 467:/home/cuil/workspace/arm/lm3s811/TI_Stellaris/driverlib/udma.c **** //! This function returns a combination of flags representing the attributes of
 468:/home/cuil/workspace/arm/lm3s811/TI_Stellaris/driverlib/udma.c **** //! the uDMA channel.
 469:/home/cuil/workspace/arm/lm3s811/TI_Stellaris/driverlib/udma.c **** //!
 470:/home/cuil/workspace/arm/lm3s811/TI_Stellaris/driverlib/udma.c **** //! \return Returns the logical OR of the attributes of the uDMA channel, which
 471:/home/cuil/workspace/arm/lm3s811/TI_Stellaris/driverlib/udma.c **** //! can be any of the following:
 472:/home/cuil/workspace/arm/lm3s811/TI_Stellaris/driverlib/udma.c **** //! - \b UDMA_ATTR_USEBURST is used to restrict transfers to use only burst
 473:/home/cuil/workspace/arm/lm3s811/TI_Stellaris/driverlib/udma.c **** //!   mode.
 474:/home/cuil/workspace/arm/lm3s811/TI_Stellaris/driverlib/udma.c **** //! - \b UDMA_ATTR_ALTSELECT is used to select the alternate control structure
 475:/home/cuil/workspace/arm/lm3s811/TI_Stellaris/driverlib/udma.c **** //!   for this channel.
 476:/home/cuil/workspace/arm/lm3s811/TI_Stellaris/driverlib/udma.c **** //! - \b UDMA_ATTR_HIGH_PRIORITY is used to set this channel to high priority.
 477:/home/cuil/workspace/arm/lm3s811/TI_Stellaris/driverlib/udma.c **** //! - \b UDMA_ATTR_REQMASK is used to mask the hardware request signal from the
 478:/home/cuil/workspace/arm/lm3s811/TI_Stellaris/driverlib/udma.c **** //!   peripheral for this channel.
 479:/home/cuil/workspace/arm/lm3s811/TI_Stellaris/driverlib/udma.c **** //
 480:/home/cuil/workspace/arm/lm3s811/TI_Stellaris/driverlib/udma.c **** //*****************************************************************************
 481:/home/cuil/workspace/arm/lm3s811/TI_Stellaris/driverlib/udma.c **** unsigned long
 482:/home/cuil/workspace/arm/lm3s811/TI_Stellaris/driverlib/udma.c **** uDMAChannelAttributeGet(unsigned long ulChannelNum)
 483:/home/cuil/workspace/arm/lm3s811/TI_Stellaris/driverlib/udma.c **** {
 8747              		.loc 1 483 0
 8748              		.cfi_startproc
 8749              		@ args = 0, pretend = 0, frame = 16
 8750              		@ frame_needed = 1, uses_anonymous_args = 0
 8751              		@ link register save eliminated.
 8752 0000 80B4     		push	{r7}
 8753              	.LCFI33:
 8754              		.cfi_def_cfa_offset 4
 8755 0002 85B0     		sub	sp, sp, #20
 8756              	.LCFI34:
 8757              		.cfi_def_cfa_offset 24
 8758 0004 00AF     		add	r7, sp, #0
 8759              		.cfi_offset 7, -4
 8760              	.LCFI35:
 8761              		.cfi_def_cfa_register 7
 8762 0006 7860     		str	r0, [r7, #4]
 484:/home/cuil/workspace/arm/lm3s811/TI_Stellaris/driverlib/udma.c ****     unsigned long ulAttr = 0;
 8763              		.loc 1 484 0
 8764 0008 4FF00003 		mov	r3, #0
 8765 000c FB60     		str	r3, [r7, #12]
 485:/home/cuil/workspace/arm/lm3s811/TI_Stellaris/driverlib/udma.c **** 
 486:/home/cuil/workspace/arm/lm3s811/TI_Stellaris/driverlib/udma.c ****     //
 487:/home/cuil/workspace/arm/lm3s811/TI_Stellaris/driverlib/udma.c ****     // Check the arguments.
 488:/home/cuil/workspace/arm/lm3s811/TI_Stellaris/driverlib/udma.c ****     //
 489:/home/cuil/workspace/arm/lm3s811/TI_Stellaris/driverlib/udma.c ****     ASSERT((ulChannelNum & 0xffff) < 32);
 490:/home/cuil/workspace/arm/lm3s811/TI_Stellaris/driverlib/udma.c **** 
 491:/home/cuil/workspace/arm/lm3s811/TI_Stellaris/driverlib/udma.c ****     //
 492:/home/cuil/workspace/arm/lm3s811/TI_Stellaris/driverlib/udma.c ****     // In case a channel selector macro (like UDMA_CH0_USB0EP1RX) was
 493:/home/cuil/workspace/arm/lm3s811/TI_Stellaris/driverlib/udma.c ****     // passed as the ulChannelNum parameter, extract just the channel number
 494:/home/cuil/workspace/arm/lm3s811/TI_Stellaris/driverlib/udma.c ****     // from this parameter.
 495:/home/cuil/workspace/arm/lm3s811/TI_Stellaris/driverlib/udma.c ****     //
 496:/home/cuil/workspace/arm/lm3s811/TI_Stellaris/driverlib/udma.c ****     ulChannelNum &= 0x1f;
 8766              		.loc 1 496 0
 8767 000e 7B68     		ldr	r3, [r7, #4]
 8768 0010 03F01F03 		and	r3, r3, #31
 8769 0014 7B60     		str	r3, [r7, #4]
 497:/home/cuil/workspace/arm/lm3s811/TI_Stellaris/driverlib/udma.c **** 
 498:/home/cuil/workspace/arm/lm3s811/TI_Stellaris/driverlib/udma.c ****     //
 499:/home/cuil/workspace/arm/lm3s811/TI_Stellaris/driverlib/udma.c ****     // Check to see if useburst bit is set for this channel.
 500:/home/cuil/workspace/arm/lm3s811/TI_Stellaris/driverlib/udma.c ****     //
 501:/home/cuil/workspace/arm/lm3s811/TI_Stellaris/driverlib/udma.c ****     if(HWREG(UDMA_USEBURSTSET) & (1 << ulChannelNum))
 8770              		.loc 1 501 0
 8771 0016 214B     		ldr	r3, .L53
 8772 0018 1A68     		ldr	r2, [r3, #0]
 8773 001a 7B68     		ldr	r3, [r7, #4]
 8774 001c 4FF00101 		mov	r1, #1
 8775 0020 01FA03F3 		lsl	r3, r1, r3
 8776 0024 02EA0303 		and	r3, r2, r3
 8777 0028 002B     		cmp	r3, #0
 8778 002a 03D0     		beq	.L49
 502:/home/cuil/workspace/arm/lm3s811/TI_Stellaris/driverlib/udma.c ****     {
 503:/home/cuil/workspace/arm/lm3s811/TI_Stellaris/driverlib/udma.c ****         ulAttr |= UDMA_ATTR_USEBURST;
 8779              		.loc 1 503 0
 8780 002c FB68     		ldr	r3, [r7, #12]
 8781 002e 43F00103 		orr	r3, r3, #1
 8782 0032 FB60     		str	r3, [r7, #12]
 8783              	.L49:
 504:/home/cuil/workspace/arm/lm3s811/TI_Stellaris/driverlib/udma.c ****     }
 505:/home/cuil/workspace/arm/lm3s811/TI_Stellaris/driverlib/udma.c **** 
 506:/home/cuil/workspace/arm/lm3s811/TI_Stellaris/driverlib/udma.c ****     //
 507:/home/cuil/workspace/arm/lm3s811/TI_Stellaris/driverlib/udma.c ****     // Check to see if the alternate control bit is set for this channel.
 508:/home/cuil/workspace/arm/lm3s811/TI_Stellaris/driverlib/udma.c ****     //
 509:/home/cuil/workspace/arm/lm3s811/TI_Stellaris/driverlib/udma.c ****     if(HWREG(UDMA_ALTSET) & (1 << ulChannelNum))
 8784              		.loc 1 509 0
 8785 0034 1A4B     		ldr	r3, .L53+4
 8786 0036 1A68     		ldr	r2, [r3, #0]
 8787 0038 7B68     		ldr	r3, [r7, #4]
 8788 003a 4FF00101 		mov	r1, #1
 8789 003e 01FA03F3 		lsl	r3, r1, r3
 8790 0042 02EA0303 		and	r3, r2, r3
 8791 0046 002B     		cmp	r3, #0
 8792 0048 03D0     		beq	.L50
 510:/home/cuil/workspace/arm/lm3s811/TI_Stellaris/driverlib/udma.c ****     {
 511:/home/cuil/workspace/arm/lm3s811/TI_Stellaris/driverlib/udma.c ****         ulAttr |= UDMA_ATTR_ALTSELECT;
 8793              		.loc 1 511 0
 8794 004a FB68     		ldr	r3, [r7, #12]
 8795 004c 43F00203 		orr	r3, r3, #2
 8796 0050 FB60     		str	r3, [r7, #12]
 8797              	.L50:
 512:/home/cuil/workspace/arm/lm3s811/TI_Stellaris/driverlib/udma.c ****     }
 513:/home/cuil/workspace/arm/lm3s811/TI_Stellaris/driverlib/udma.c **** 
 514:/home/cuil/workspace/arm/lm3s811/TI_Stellaris/driverlib/udma.c ****     //
 515:/home/cuil/workspace/arm/lm3s811/TI_Stellaris/driverlib/udma.c ****     // Check to see if the high priority bit is set for this channel.
 516:/home/cuil/workspace/arm/lm3s811/TI_Stellaris/driverlib/udma.c ****     //
 517:/home/cuil/workspace/arm/lm3s811/TI_Stellaris/driverlib/udma.c ****     if(HWREG(UDMA_PRIOSET) & (1 << ulChannelNum))
 8798              		.loc 1 517 0
 8799 0052 144B     		ldr	r3, .L53+8
 8800 0054 1A68     		ldr	r2, [r3, #0]
 8801 0056 7B68     		ldr	r3, [r7, #4]
 8802 0058 4FF00101 		mov	r1, #1
 8803 005c 01FA03F3 		lsl	r3, r1, r3
 8804 0060 02EA0303 		and	r3, r2, r3
 8805 0064 002B     		cmp	r3, #0
 8806 0066 03D0     		beq	.L51
 518:/home/cuil/workspace/arm/lm3s811/TI_Stellaris/driverlib/udma.c ****     {
 519:/home/cuil/workspace/arm/lm3s811/TI_Stellaris/driverlib/udma.c ****         ulAttr |= UDMA_ATTR_HIGH_PRIORITY;
 8807              		.loc 1 519 0
 8808 0068 FB68     		ldr	r3, [r7, #12]
 8809 006a 43F00403 		orr	r3, r3, #4
 8810 006e FB60     		str	r3, [r7, #12]
 8811              	.L51:
 520:/home/cuil/workspace/arm/lm3s811/TI_Stellaris/driverlib/udma.c ****     }
 521:/home/cuil/workspace/arm/lm3s811/TI_Stellaris/driverlib/udma.c **** 
 522:/home/cuil/workspace/arm/lm3s811/TI_Stellaris/driverlib/udma.c ****     //
 523:/home/cuil/workspace/arm/lm3s811/TI_Stellaris/driverlib/udma.c ****     // Check to see if the request mask bit is set for this channel.
 524:/home/cuil/workspace/arm/lm3s811/TI_Stellaris/driverlib/udma.c ****     //
 525:/home/cuil/workspace/arm/lm3s811/TI_Stellaris/driverlib/udma.c ****     if(HWREG(UDMA_REQMASKSET) & (1 << ulChannelNum))
 8812              		.loc 1 525 0
 8813 0070 0D4B     		ldr	r3, .L53+12
 8814 0072 1A68     		ldr	r2, [r3, #0]
 8815 0074 7B68     		ldr	r3, [r7, #4]
 8816 0076 4FF00101 		mov	r1, #1
 8817 007a 01FA03F3 		lsl	r3, r1, r3
 8818 007e 02EA0303 		and	r3, r2, r3
 8819 0082 002B     		cmp	r3, #0
 8820 0084 03D0     		beq	.L52
 526:/home/cuil/workspace/arm/lm3s811/TI_Stellaris/driverlib/udma.c ****     {
 527:/home/cuil/workspace/arm/lm3s811/TI_Stellaris/driverlib/udma.c ****         ulAttr |= UDMA_ATTR_REQMASK;
 8821              		.loc 1 527 0
 8822 0086 FB68     		ldr	r3, [r7, #12]
 8823 0088 43F00803 		orr	r3, r3, #8
 8824 008c FB60     		str	r3, [r7, #12]
 8825              	.L52:
 528:/home/cuil/workspace/arm/lm3s811/TI_Stellaris/driverlib/udma.c ****     }
 529:/home/cuil/workspace/arm/lm3s811/TI_Stellaris/driverlib/udma.c **** 
 530:/home/cuil/workspace/arm/lm3s811/TI_Stellaris/driverlib/udma.c ****     //
 531:/home/cuil/workspace/arm/lm3s811/TI_Stellaris/driverlib/udma.c ****     // Return the configuration flags.
 532:/home/cuil/workspace/arm/lm3s811/TI_Stellaris/driverlib/udma.c ****     //
 533:/home/cuil/workspace/arm/lm3s811/TI_Stellaris/driverlib/udma.c ****     return(ulAttr);
 8826              		.loc 1 533 0
 8827 008e FB68     		ldr	r3, [r7, #12]
 534:/home/cuil/workspace/arm/lm3s811/TI_Stellaris/driverlib/udma.c **** }
 8828              		.loc 1 534 0
 8829 0090 1846     		mov	r0, r3
 8830 0092 07F11407 		add	r7, r7, #20
 8831 0096 BD46     		mov	sp, r7
 8832 0098 80BC     		pop	{r7}
 8833 009a 7047     		bx	lr
 8834              	.L54:
 8835              		.align	2
 8836              	.L53:
 8837 009c 18F00F40 		.word	1074786328
 8838 00a0 30F00F40 		.word	1074786352
 8839 00a4 38F00F40 		.word	1074786360
 8840 00a8 20F00F40 		.word	1074786336
 8841              		.cfi_endproc
 8842              	.LFE13:
 8844              		.section	.text.uDMAChannelControlSet,"ax",%progbits
 8845              		.align	2
 8846              		.global	uDMAChannelControlSet
 8847              		.thumb
 8848              		.thumb_func
 8850              	uDMAChannelControlSet:
 8851              	.LFB14:
 535:/home/cuil/workspace/arm/lm3s811/TI_Stellaris/driverlib/udma.c **** 
 536:/home/cuil/workspace/arm/lm3s811/TI_Stellaris/driverlib/udma.c **** //*****************************************************************************
 537:/home/cuil/workspace/arm/lm3s811/TI_Stellaris/driverlib/udma.c **** //
 538:/home/cuil/workspace/arm/lm3s811/TI_Stellaris/driverlib/udma.c **** //! Sets the control parameters for a uDMA channel control structure.
 539:/home/cuil/workspace/arm/lm3s811/TI_Stellaris/driverlib/udma.c **** //!
 540:/home/cuil/workspace/arm/lm3s811/TI_Stellaris/driverlib/udma.c **** //! \param ulChannelStructIndex is the logical OR of the uDMA channel number
 541:/home/cuil/workspace/arm/lm3s811/TI_Stellaris/driverlib/udma.c **** //! with \b UDMA_PRI_SELECT or \b UDMA_ALT_SELECT.
 542:/home/cuil/workspace/arm/lm3s811/TI_Stellaris/driverlib/udma.c **** //! \param ulControl is logical OR of several control values to set the control
 543:/home/cuil/workspace/arm/lm3s811/TI_Stellaris/driverlib/udma.c **** //! parameters for the channel.
 544:/home/cuil/workspace/arm/lm3s811/TI_Stellaris/driverlib/udma.c **** //!
 545:/home/cuil/workspace/arm/lm3s811/TI_Stellaris/driverlib/udma.c **** //! This function is used to set control parameters for a uDMA transfer.  These
 546:/home/cuil/workspace/arm/lm3s811/TI_Stellaris/driverlib/udma.c **** //! parameters are typically not changed often.
 547:/home/cuil/workspace/arm/lm3s811/TI_Stellaris/driverlib/udma.c **** //!
 548:/home/cuil/workspace/arm/lm3s811/TI_Stellaris/driverlib/udma.c **** //! The \e ulChannelStructIndex parameter should be the logical OR of the
 549:/home/cuil/workspace/arm/lm3s811/TI_Stellaris/driverlib/udma.c **** //! channel number with one of \b UDMA_PRI_SELECT or \b UDMA_ALT_SELECT to
 550:/home/cuil/workspace/arm/lm3s811/TI_Stellaris/driverlib/udma.c **** //! choose whether the primary or alternate data structure is used.
 551:/home/cuil/workspace/arm/lm3s811/TI_Stellaris/driverlib/udma.c **** //!
 552:/home/cuil/workspace/arm/lm3s811/TI_Stellaris/driverlib/udma.c **** //! The \e ulControl parameter is the logical OR of five values: the data size,
 553:/home/cuil/workspace/arm/lm3s811/TI_Stellaris/driverlib/udma.c **** //! the source address increment, the destination address increment, the
 554:/home/cuil/workspace/arm/lm3s811/TI_Stellaris/driverlib/udma.c **** //! arbitration size, and the use burst flag.  The choices available for each
 555:/home/cuil/workspace/arm/lm3s811/TI_Stellaris/driverlib/udma.c **** //! of these values is described below.
 556:/home/cuil/workspace/arm/lm3s811/TI_Stellaris/driverlib/udma.c **** //!
 557:/home/cuil/workspace/arm/lm3s811/TI_Stellaris/driverlib/udma.c **** //! Choose the data size from one of \b UDMA_SIZE_8, \b UDMA_SIZE_16, or
 558:/home/cuil/workspace/arm/lm3s811/TI_Stellaris/driverlib/udma.c **** //! \b UDMA_SIZE_32 to select a data size of 8, 16, or 32 bits.
 559:/home/cuil/workspace/arm/lm3s811/TI_Stellaris/driverlib/udma.c **** //!
 560:/home/cuil/workspace/arm/lm3s811/TI_Stellaris/driverlib/udma.c **** //! Choose the source address increment from one of \b UDMA_SRC_INC_8,
 561:/home/cuil/workspace/arm/lm3s811/TI_Stellaris/driverlib/udma.c **** //! \b UDMA_SRC_INC_16, \b UDMA_SRC_INC_32, or \b UDMA_SRC_INC_NONE to select
 562:/home/cuil/workspace/arm/lm3s811/TI_Stellaris/driverlib/udma.c **** //! an address increment of 8-bit bytes, 16-bit halfwords, 32-bit words, or
 563:/home/cuil/workspace/arm/lm3s811/TI_Stellaris/driverlib/udma.c **** //! to select non-incrementing.
 564:/home/cuil/workspace/arm/lm3s811/TI_Stellaris/driverlib/udma.c **** //!
 565:/home/cuil/workspace/arm/lm3s811/TI_Stellaris/driverlib/udma.c **** //! Choose the destination address increment from one of \b UDMA_DST_INC_8,
 566:/home/cuil/workspace/arm/lm3s811/TI_Stellaris/driverlib/udma.c **** //! \b UDMA_DST_INC_16, \b UDMA_DST_INC_32, or \b UDMA_DST_INC_NONE to select
 567:/home/cuil/workspace/arm/lm3s811/TI_Stellaris/driverlib/udma.c **** //! an address increment of 8-bit bytes, 16-bit halfwords, 32-bit words, or
 568:/home/cuil/workspace/arm/lm3s811/TI_Stellaris/driverlib/udma.c **** //! to select non-incrementing.
 569:/home/cuil/workspace/arm/lm3s811/TI_Stellaris/driverlib/udma.c **** //!
 570:/home/cuil/workspace/arm/lm3s811/TI_Stellaris/driverlib/udma.c **** //! The arbitration size determines how many items are transferred before
 571:/home/cuil/workspace/arm/lm3s811/TI_Stellaris/driverlib/udma.c **** //! the uDMA controller re-arbitrates for the bus.  Choose the arbitration size
 572:/home/cuil/workspace/arm/lm3s811/TI_Stellaris/driverlib/udma.c **** //! from one of \b UDMA_ARB_1, \b UDMA_ARB_2, \b UDMA_ARB_4, \b UDMA_ARB_8,
 573:/home/cuil/workspace/arm/lm3s811/TI_Stellaris/driverlib/udma.c **** //! through \b UDMA_ARB_1024 to select the arbitration size from 1 to 1024
 574:/home/cuil/workspace/arm/lm3s811/TI_Stellaris/driverlib/udma.c **** //! items, in powers of 2.
 575:/home/cuil/workspace/arm/lm3s811/TI_Stellaris/driverlib/udma.c **** //!
 576:/home/cuil/workspace/arm/lm3s811/TI_Stellaris/driverlib/udma.c **** //! The value \b UDMA_NEXT_USEBURST is used to force the channel to only
 577:/home/cuil/workspace/arm/lm3s811/TI_Stellaris/driverlib/udma.c **** //! respond to burst requests at the tail end of a scatter-gather transfer.
 578:/home/cuil/workspace/arm/lm3s811/TI_Stellaris/driverlib/udma.c **** //!
 579:/home/cuil/workspace/arm/lm3s811/TI_Stellaris/driverlib/udma.c **** //! \note The address increment cannot be smaller than the data size.
 580:/home/cuil/workspace/arm/lm3s811/TI_Stellaris/driverlib/udma.c **** //!
 581:/home/cuil/workspace/arm/lm3s811/TI_Stellaris/driverlib/udma.c **** //! \return None.
 582:/home/cuil/workspace/arm/lm3s811/TI_Stellaris/driverlib/udma.c **** //
 583:/home/cuil/workspace/arm/lm3s811/TI_Stellaris/driverlib/udma.c **** //*****************************************************************************
 584:/home/cuil/workspace/arm/lm3s811/TI_Stellaris/driverlib/udma.c **** void
 585:/home/cuil/workspace/arm/lm3s811/TI_Stellaris/driverlib/udma.c **** uDMAChannelControlSet(unsigned long ulChannelStructIndex,
 586:/home/cuil/workspace/arm/lm3s811/TI_Stellaris/driverlib/udma.c ****                       unsigned long ulControl)
 587:/home/cuil/workspace/arm/lm3s811/TI_Stellaris/driverlib/udma.c **** {
 8852              		.loc 1 587 0
 8853              		.cfi_startproc
 8854              		@ args = 0, pretend = 0, frame = 16
 8855              		@ frame_needed = 1, uses_anonymous_args = 0
 8856              		@ link register save eliminated.
 8857 0000 80B4     		push	{r7}
 8858              	.LCFI36:
 8859              		.cfi_def_cfa_offset 4
 8860 0002 85B0     		sub	sp, sp, #20
 8861              	.LCFI37:
 8862              		.cfi_def_cfa_offset 24
 8863 0004 00AF     		add	r7, sp, #0
 8864              		.cfi_offset 7, -4
 8865              	.LCFI38:
 8866              		.cfi_def_cfa_register 7
 8867 0006 7860     		str	r0, [r7, #4]
 8868 0008 3960     		str	r1, [r7, #0]
 588:/home/cuil/workspace/arm/lm3s811/TI_Stellaris/driverlib/udma.c ****     tDMAControlTable *pCtl;
 589:/home/cuil/workspace/arm/lm3s811/TI_Stellaris/driverlib/udma.c **** 
 590:/home/cuil/workspace/arm/lm3s811/TI_Stellaris/driverlib/udma.c ****     //
 591:/home/cuil/workspace/arm/lm3s811/TI_Stellaris/driverlib/udma.c ****     // Check the arguments.
 592:/home/cuil/workspace/arm/lm3s811/TI_Stellaris/driverlib/udma.c ****     //
 593:/home/cuil/workspace/arm/lm3s811/TI_Stellaris/driverlib/udma.c ****     ASSERT((ulChannelStructIndex & 0xffff) < 64);
 594:/home/cuil/workspace/arm/lm3s811/TI_Stellaris/driverlib/udma.c ****     ASSERT(HWREG(UDMA_CTLBASE) != 0);
 595:/home/cuil/workspace/arm/lm3s811/TI_Stellaris/driverlib/udma.c **** 
 596:/home/cuil/workspace/arm/lm3s811/TI_Stellaris/driverlib/udma.c ****     //
 597:/home/cuil/workspace/arm/lm3s811/TI_Stellaris/driverlib/udma.c ****     // In case a channel selector macro (like UDMA_CH0_USB0EP1RX) was
 598:/home/cuil/workspace/arm/lm3s811/TI_Stellaris/driverlib/udma.c ****     // passed as the ulChannelStructIndex parameter, extract just the channel
 599:/home/cuil/workspace/arm/lm3s811/TI_Stellaris/driverlib/udma.c ****     // index from this parameter.
 600:/home/cuil/workspace/arm/lm3s811/TI_Stellaris/driverlib/udma.c ****     //
 601:/home/cuil/workspace/arm/lm3s811/TI_Stellaris/driverlib/udma.c ****     ulChannelStructIndex &= 0x3f;
 8869              		.loc 1 601 0
 8870 000a 7B68     		ldr	r3, [r7, #4]
 8871 000c 03F03F03 		and	r3, r3, #63
 8872 0010 7B60     		str	r3, [r7, #4]
 602:/home/cuil/workspace/arm/lm3s811/TI_Stellaris/driverlib/udma.c **** 
 603:/home/cuil/workspace/arm/lm3s811/TI_Stellaris/driverlib/udma.c ****     //
 604:/home/cuil/workspace/arm/lm3s811/TI_Stellaris/driverlib/udma.c ****     // Get the base address of the control table.
 605:/home/cuil/workspace/arm/lm3s811/TI_Stellaris/driverlib/udma.c ****     //
 606:/home/cuil/workspace/arm/lm3s811/TI_Stellaris/driverlib/udma.c ****     pCtl = (tDMAControlTable *)HWREG(UDMA_CTLBASE);
 8873              		.loc 1 606 0
 8874 0012 0C4B     		ldr	r3, .L56
 8875 0014 1B68     		ldr	r3, [r3, #0]
 8876 0016 FB60     		str	r3, [r7, #12]
 607:/home/cuil/workspace/arm/lm3s811/TI_Stellaris/driverlib/udma.c **** 
 608:/home/cuil/workspace/arm/lm3s811/TI_Stellaris/driverlib/udma.c ****     //
 609:/home/cuil/workspace/arm/lm3s811/TI_Stellaris/driverlib/udma.c ****     // Get the current control word value and mask off the fields to be
 610:/home/cuil/workspace/arm/lm3s811/TI_Stellaris/driverlib/udma.c ****     // changed, then OR in the new settings.
 611:/home/cuil/workspace/arm/lm3s811/TI_Stellaris/driverlib/udma.c ****     //
 612:/home/cuil/workspace/arm/lm3s811/TI_Stellaris/driverlib/udma.c ****     pCtl[ulChannelStructIndex].ulControl =
 8877              		.loc 1 612 0
 8878 0018 7B68     		ldr	r3, [r7, #4]
 8879 001a 4FEA0313 		lsl	r3, r3, #4
 8880 001e FA68     		ldr	r2, [r7, #12]
 8881 0020 D218     		adds	r2, r2, r3
 613:/home/cuil/workspace/arm/lm3s811/TI_Stellaris/driverlib/udma.c ****         ((pCtl[ulChannelStructIndex].ulControl &
 8882              		.loc 1 613 0
 8883 0022 7B68     		ldr	r3, [r7, #4]
 8884 0024 4FEA0313 		lsl	r3, r3, #4
 8885 0028 F968     		ldr	r1, [r7, #12]
 8886 002a CB18     		adds	r3, r1, r3
 8887 002c 9968     		ldr	r1, [r3, #8]
 8888 002e 064B     		ldr	r3, .L56+4
 8889 0030 01EA0303 		and	r3, r1, r3
 614:/home/cuil/workspace/arm/lm3s811/TI_Stellaris/driverlib/udma.c ****           ~(UDMA_CHCTL_DSTINC_M |
 615:/home/cuil/workspace/arm/lm3s811/TI_Stellaris/driverlib/udma.c ****             UDMA_CHCTL_DSTSIZE_M |
 616:/home/cuil/workspace/arm/lm3s811/TI_Stellaris/driverlib/udma.c ****             UDMA_CHCTL_SRCINC_M |
 617:/home/cuil/workspace/arm/lm3s811/TI_Stellaris/driverlib/udma.c ****             UDMA_CHCTL_SRCSIZE_M |
 618:/home/cuil/workspace/arm/lm3s811/TI_Stellaris/driverlib/udma.c ****             UDMA_CHCTL_ARBSIZE_M |
 619:/home/cuil/workspace/arm/lm3s811/TI_Stellaris/driverlib/udma.c ****             UDMA_CHCTL_NXTUSEBURST)) |
 8890              		.loc 1 619 0
 8891 0034 3968     		ldr	r1, [r7, #0]
 8892 0036 0B43     		orrs	r3, r3, r1
 612:/home/cuil/workspace/arm/lm3s811/TI_Stellaris/driverlib/udma.c ****     pCtl[ulChannelStructIndex].ulControl =
 8893              		.loc 1 612 0
 8894 0038 9360     		str	r3, [r2, #8]
 620:/home/cuil/workspace/arm/lm3s811/TI_Stellaris/driverlib/udma.c ****          ulControl);
 621:/home/cuil/workspace/arm/lm3s811/TI_Stellaris/driverlib/udma.c **** }
 8895              		.loc 1 621 0
 8896 003a 07F11407 		add	r7, r7, #20
 8897 003e BD46     		mov	sp, r7
 8898 0040 80BC     		pop	{r7}
 8899 0042 7047     		bx	lr
 8900              	.L57:
 8901              		.align	2
 8902              	.L56:
 8903 0044 08F00F40 		.word	1074786312
 8904 0048 F73FFC00 		.word	16531447
 8905              		.cfi_endproc
 8906              	.LFE14:
 8908              		.section	.text.uDMAChannelTransferSet,"ax",%progbits
 8909              		.align	2
 8910              		.global	uDMAChannelTransferSet
 8911              		.thumb
 8912              		.thumb_func
 8914              	uDMAChannelTransferSet:
 8915              	.LFB15:
 622:/home/cuil/workspace/arm/lm3s811/TI_Stellaris/driverlib/udma.c **** 
 623:/home/cuil/workspace/arm/lm3s811/TI_Stellaris/driverlib/udma.c **** //*****************************************************************************
 624:/home/cuil/workspace/arm/lm3s811/TI_Stellaris/driverlib/udma.c **** //
 625:/home/cuil/workspace/arm/lm3s811/TI_Stellaris/driverlib/udma.c **** //! Sets the transfer parameters for a uDMA channel control structure.
 626:/home/cuil/workspace/arm/lm3s811/TI_Stellaris/driverlib/udma.c **** //!
 627:/home/cuil/workspace/arm/lm3s811/TI_Stellaris/driverlib/udma.c **** //! \param ulChannelStructIndex is the logical OR of the uDMA channel number
 628:/home/cuil/workspace/arm/lm3s811/TI_Stellaris/driverlib/udma.c **** //! with either \b UDMA_PRI_SELECT or \b UDMA_ALT_SELECT.
 629:/home/cuil/workspace/arm/lm3s811/TI_Stellaris/driverlib/udma.c **** //! \param ulMode is the type of uDMA transfer.
 630:/home/cuil/workspace/arm/lm3s811/TI_Stellaris/driverlib/udma.c **** //! \param pvSrcAddr is the source address for the transfer.
 631:/home/cuil/workspace/arm/lm3s811/TI_Stellaris/driverlib/udma.c **** //! \param pvDstAddr is the destination address for the transfer.
 632:/home/cuil/workspace/arm/lm3s811/TI_Stellaris/driverlib/udma.c **** //! \param ulTransferSize is the number of data items to transfer.
 633:/home/cuil/workspace/arm/lm3s811/TI_Stellaris/driverlib/udma.c **** //!
 634:/home/cuil/workspace/arm/lm3s811/TI_Stellaris/driverlib/udma.c **** //! This function is used to configure the parameters for a uDMA transfer.  
 635:/home/cuil/workspace/arm/lm3s811/TI_Stellaris/driverlib/udma.c **** //! These parameters are typically changed often.  The function
 636:/home/cuil/workspace/arm/lm3s811/TI_Stellaris/driverlib/udma.c **** //! uDMAChannelControlSet() MUST be called at least once for this channel prior
 637:/home/cuil/workspace/arm/lm3s811/TI_Stellaris/driverlib/udma.c **** //! to calling this function.
 638:/home/cuil/workspace/arm/lm3s811/TI_Stellaris/driverlib/udma.c **** //!
 639:/home/cuil/workspace/arm/lm3s811/TI_Stellaris/driverlib/udma.c **** //! The \e ulChannelStructIndex parameter should be the logical OR of the
 640:/home/cuil/workspace/arm/lm3s811/TI_Stellaris/driverlib/udma.c **** //! channel number with one of \b UDMA_PRI_SELECT or \b UDMA_ALT_SELECT to
 641:/home/cuil/workspace/arm/lm3s811/TI_Stellaris/driverlib/udma.c **** //! choose whether the primary or alternate data structure is used.
 642:/home/cuil/workspace/arm/lm3s811/TI_Stellaris/driverlib/udma.c **** //!
 643:/home/cuil/workspace/arm/lm3s811/TI_Stellaris/driverlib/udma.c **** //! The \e ulMode parameter should be one of the following values:
 644:/home/cuil/workspace/arm/lm3s811/TI_Stellaris/driverlib/udma.c **** //!
 645:/home/cuil/workspace/arm/lm3s811/TI_Stellaris/driverlib/udma.c **** //! - \b UDMA_MODE_STOP stops the uDMA transfer.  The controller sets the mode
 646:/home/cuil/workspace/arm/lm3s811/TI_Stellaris/driverlib/udma.c **** //!   to this value at the end of a transfer.
 647:/home/cuil/workspace/arm/lm3s811/TI_Stellaris/driverlib/udma.c **** //! - \b UDMA_MODE_BASIC to perform a basic transfer based on request.
 648:/home/cuil/workspace/arm/lm3s811/TI_Stellaris/driverlib/udma.c **** //! - \b UDMA_MODE_AUTO to perform a transfer that always completes once
 649:/home/cuil/workspace/arm/lm3s811/TI_Stellaris/driverlib/udma.c **** //!   started even if the request is removed.
 650:/home/cuil/workspace/arm/lm3s811/TI_Stellaris/driverlib/udma.c **** //! - \b UDMA_MODE_PINGPONG to set up a transfer that switches between the
 651:/home/cuil/workspace/arm/lm3s811/TI_Stellaris/driverlib/udma.c **** //!   primary and alternate control structures for the channel.  This mode 
 652:/home/cuil/workspace/arm/lm3s811/TI_Stellaris/driverlib/udma.c **** //!   allows use of ping-pong buffering for uDMA transfers.
 653:/home/cuil/workspace/arm/lm3s811/TI_Stellaris/driverlib/udma.c **** //! - \b UDMA_MODE_MEM_SCATTER_GATHER to set up a memory scatter-gather
 654:/home/cuil/workspace/arm/lm3s811/TI_Stellaris/driverlib/udma.c **** //!   transfer.
 655:/home/cuil/workspace/arm/lm3s811/TI_Stellaris/driverlib/udma.c **** //! - \b UDMA_MODE_PER_SCATTER_GATHER to set up a peripheral scatter-gather
 656:/home/cuil/workspace/arm/lm3s811/TI_Stellaris/driverlib/udma.c **** //!   transfer.
 657:/home/cuil/workspace/arm/lm3s811/TI_Stellaris/driverlib/udma.c **** //!
 658:/home/cuil/workspace/arm/lm3s811/TI_Stellaris/driverlib/udma.c **** //! The \e pvSrcAddr and \e pvDstAddr parameters are pointers to the first
 659:/home/cuil/workspace/arm/lm3s811/TI_Stellaris/driverlib/udma.c **** //! location of the data to be transferred.  These addresses should be aligned
 660:/home/cuil/workspace/arm/lm3s811/TI_Stellaris/driverlib/udma.c **** //! according to the item size.  The compiler takes care of this alignment if 
 661:/home/cuil/workspace/arm/lm3s811/TI_Stellaris/driverlib/udma.c **** //! the pointers are pointing to storage of the appropriate data type.
 662:/home/cuil/workspace/arm/lm3s811/TI_Stellaris/driverlib/udma.c **** //!
 663:/home/cuil/workspace/arm/lm3s811/TI_Stellaris/driverlib/udma.c **** //! The \e ulTransferSize parameter is the number of data items, not the number
 664:/home/cuil/workspace/arm/lm3s811/TI_Stellaris/driverlib/udma.c **** //! of bytes.
 665:/home/cuil/workspace/arm/lm3s811/TI_Stellaris/driverlib/udma.c **** //!
 666:/home/cuil/workspace/arm/lm3s811/TI_Stellaris/driverlib/udma.c **** //! The two scatter-gather modes, memory and peripheral, are actually different
 667:/home/cuil/workspace/arm/lm3s811/TI_Stellaris/driverlib/udma.c **** //! depending on whether the primary or alternate control structure is
 668:/home/cuil/workspace/arm/lm3s811/TI_Stellaris/driverlib/udma.c **** //! selected.  This function looks for the \b UDMA_PRI_SELECT and
 669:/home/cuil/workspace/arm/lm3s811/TI_Stellaris/driverlib/udma.c **** //! \b UDMA_ALT_SELECT flag along with the channel number and sets the
 670:/home/cuil/workspace/arm/lm3s811/TI_Stellaris/driverlib/udma.c **** //! scatter-gather mode as appropriate for the primary or alternate control
 671:/home/cuil/workspace/arm/lm3s811/TI_Stellaris/driverlib/udma.c **** //! structure.
 672:/home/cuil/workspace/arm/lm3s811/TI_Stellaris/driverlib/udma.c **** //!
 673:/home/cuil/workspace/arm/lm3s811/TI_Stellaris/driverlib/udma.c **** //! The channel must also be enabled using uDMAChannelEnable() after calling
 674:/home/cuil/workspace/arm/lm3s811/TI_Stellaris/driverlib/udma.c **** //! this function.  The transfer does not begin until the channel has been 
 675:/home/cuil/workspace/arm/lm3s811/TI_Stellaris/driverlib/udma.c **** //! configured and enabled.  Note that the channel is automatically disabled 
 676:/home/cuil/workspace/arm/lm3s811/TI_Stellaris/driverlib/udma.c **** //! after the transfer is completed, meaning that uDMAChannelEnable() must be 
 677:/home/cuil/workspace/arm/lm3s811/TI_Stellaris/driverlib/udma.c **** //! called again after setting up the next transfer.
 678:/home/cuil/workspace/arm/lm3s811/TI_Stellaris/driverlib/udma.c **** //!
 679:/home/cuil/workspace/arm/lm3s811/TI_Stellaris/driverlib/udma.c **** //! \note Great care must be taken to not modify a channel control structure
 680:/home/cuil/workspace/arm/lm3s811/TI_Stellaris/driverlib/udma.c **** //! that is in use or else the results are unpredictable, including the
 681:/home/cuil/workspace/arm/lm3s811/TI_Stellaris/driverlib/udma.c **** //! possibility of undesired data transfers to or from memory or peripherals.
 682:/home/cuil/workspace/arm/lm3s811/TI_Stellaris/driverlib/udma.c **** //! For BASIC and AUTO modes, it is safe to make changes when the channel is
 683:/home/cuil/workspace/arm/lm3s811/TI_Stellaris/driverlib/udma.c **** //! disabled, or the uDMAChannelModeGet() returns \b UDMA_MODE_STOP.  For
 684:/home/cuil/workspace/arm/lm3s811/TI_Stellaris/driverlib/udma.c **** //! PINGPONG or one of the SCATTER_GATHER modes, it is safe to modify the
 685:/home/cuil/workspace/arm/lm3s811/TI_Stellaris/driverlib/udma.c **** //! primary or alternate control structure only when the other is being used.
 686:/home/cuil/workspace/arm/lm3s811/TI_Stellaris/driverlib/udma.c **** //! The uDMAChannelModeGet() function returns \b UDMA_MODE_STOP when a
 687:/home/cuil/workspace/arm/lm3s811/TI_Stellaris/driverlib/udma.c **** //! channel control structure is inactive and safe to modify.
 688:/home/cuil/workspace/arm/lm3s811/TI_Stellaris/driverlib/udma.c **** //!
 689:/home/cuil/workspace/arm/lm3s811/TI_Stellaris/driverlib/udma.c **** //! \return None.
 690:/home/cuil/workspace/arm/lm3s811/TI_Stellaris/driverlib/udma.c **** //
 691:/home/cuil/workspace/arm/lm3s811/TI_Stellaris/driverlib/udma.c **** //*****************************************************************************
 692:/home/cuil/workspace/arm/lm3s811/TI_Stellaris/driverlib/udma.c **** void
 693:/home/cuil/workspace/arm/lm3s811/TI_Stellaris/driverlib/udma.c **** uDMAChannelTransferSet(unsigned long ulChannelStructIndex,
 694:/home/cuil/workspace/arm/lm3s811/TI_Stellaris/driverlib/udma.c ****                        unsigned long ulMode, void *pvSrcAddr, void *pvDstAddr,
 695:/home/cuil/workspace/arm/lm3s811/TI_Stellaris/driverlib/udma.c ****                        unsigned long ulTransferSize)
 696:/home/cuil/workspace/arm/lm3s811/TI_Stellaris/driverlib/udma.c **** {
 8916              		.loc 1 696 0
 8917              		.cfi_startproc
 8918              		@ args = 4, pretend = 0, frame = 32
 8919              		@ frame_needed = 1, uses_anonymous_args = 0
 8920              		@ link register save eliminated.
 8921 0000 80B4     		push	{r7}
 8922              	.LCFI39:
 8923              		.cfi_def_cfa_offset 4
 8924 0002 89B0     		sub	sp, sp, #36
 8925              	.LCFI40:
 8926              		.cfi_def_cfa_offset 40
 8927 0004 00AF     		add	r7, sp, #0
 8928              		.cfi_offset 7, -4
 8929              	.LCFI41:
 8930              		.cfi_def_cfa_register 7
 8931 0006 F860     		str	r0, [r7, #12]
 8932 0008 B960     		str	r1, [r7, #8]
 8933 000a 7A60     		str	r2, [r7, #4]
 8934 000c 3B60     		str	r3, [r7, #0]
 697:/home/cuil/workspace/arm/lm3s811/TI_Stellaris/driverlib/udma.c ****     tDMAControlTable *pControlTable;
 698:/home/cuil/workspace/arm/lm3s811/TI_Stellaris/driverlib/udma.c ****     unsigned long ulControl;
 699:/home/cuil/workspace/arm/lm3s811/TI_Stellaris/driverlib/udma.c ****     unsigned long ulInc;
 700:/home/cuil/workspace/arm/lm3s811/TI_Stellaris/driverlib/udma.c ****     unsigned long ulBufferBytes;
 701:/home/cuil/workspace/arm/lm3s811/TI_Stellaris/driverlib/udma.c **** 
 702:/home/cuil/workspace/arm/lm3s811/TI_Stellaris/driverlib/udma.c ****     //
 703:/home/cuil/workspace/arm/lm3s811/TI_Stellaris/driverlib/udma.c ****     // Check the arguments.
 704:/home/cuil/workspace/arm/lm3s811/TI_Stellaris/driverlib/udma.c ****     //
 705:/home/cuil/workspace/arm/lm3s811/TI_Stellaris/driverlib/udma.c ****     ASSERT((ulChannelStructIndex & 0xffff) < 64);
 706:/home/cuil/workspace/arm/lm3s811/TI_Stellaris/driverlib/udma.c ****     ASSERT(HWREG(UDMA_CTLBASE) != 0);
 707:/home/cuil/workspace/arm/lm3s811/TI_Stellaris/driverlib/udma.c ****     ASSERT(ulMode <= UDMA_MODE_PER_SCATTER_GATHER);
 708:/home/cuil/workspace/arm/lm3s811/TI_Stellaris/driverlib/udma.c ****     ASSERT((unsigned long)pvSrcAddr >= 0x20000000);
 709:/home/cuil/workspace/arm/lm3s811/TI_Stellaris/driverlib/udma.c ****     ASSERT((unsigned long)pvDstAddr >= 0x20000000);
 710:/home/cuil/workspace/arm/lm3s811/TI_Stellaris/driverlib/udma.c ****     ASSERT((ulTransferSize != 0) && (ulTransferSize <= 1024));
 711:/home/cuil/workspace/arm/lm3s811/TI_Stellaris/driverlib/udma.c **** 
 712:/home/cuil/workspace/arm/lm3s811/TI_Stellaris/driverlib/udma.c ****     //
 713:/home/cuil/workspace/arm/lm3s811/TI_Stellaris/driverlib/udma.c ****     // In case a channel selector macro (like UDMA_CH0_USB0EP1RX) was
 714:/home/cuil/workspace/arm/lm3s811/TI_Stellaris/driverlib/udma.c ****     // passed as the ulChannelStructIndex parameter, extract just the channel
 715:/home/cuil/workspace/arm/lm3s811/TI_Stellaris/driverlib/udma.c ****     // index from this parameter.
 716:/home/cuil/workspace/arm/lm3s811/TI_Stellaris/driverlib/udma.c ****     //
 717:/home/cuil/workspace/arm/lm3s811/TI_Stellaris/driverlib/udma.c ****     ulChannelStructIndex &= 0x3f;
 8935              		.loc 1 717 0
 8936 000e FB68     		ldr	r3, [r7, #12]
 8937 0010 03F03F03 		and	r3, r3, #63
 8938 0014 FB60     		str	r3, [r7, #12]
 718:/home/cuil/workspace/arm/lm3s811/TI_Stellaris/driverlib/udma.c **** 
 719:/home/cuil/workspace/arm/lm3s811/TI_Stellaris/driverlib/udma.c ****     //
 720:/home/cuil/workspace/arm/lm3s811/TI_Stellaris/driverlib/udma.c ****     // Get the base address of the control table.
 721:/home/cuil/workspace/arm/lm3s811/TI_Stellaris/driverlib/udma.c ****     //
 722:/home/cuil/workspace/arm/lm3s811/TI_Stellaris/driverlib/udma.c ****     pControlTable = (tDMAControlTable *)HWREG(UDMA_CTLBASE);
 8939              		.loc 1 722 0
 8940 0016 414B     		ldr	r3, .L65
 8941 0018 1B68     		ldr	r3, [r3, #0]
 8942 001a FB61     		str	r3, [r7, #28]
 723:/home/cuil/workspace/arm/lm3s811/TI_Stellaris/driverlib/udma.c **** 
 724:/home/cuil/workspace/arm/lm3s811/TI_Stellaris/driverlib/udma.c ****     //
 725:/home/cuil/workspace/arm/lm3s811/TI_Stellaris/driverlib/udma.c ****     // Get the current control word value and mask off the mode and size
 726:/home/cuil/workspace/arm/lm3s811/TI_Stellaris/driverlib/udma.c ****     // fields.
 727:/home/cuil/workspace/arm/lm3s811/TI_Stellaris/driverlib/udma.c ****     //
 728:/home/cuil/workspace/arm/lm3s811/TI_Stellaris/driverlib/udma.c ****     ulControl = (pControlTable[ulChannelStructIndex].ulControl &
 8943              		.loc 1 728 0
 8944 001c FB68     		ldr	r3, [r7, #12]
 8945 001e 4FEA0313 		lsl	r3, r3, #4
 8946 0022 FA69     		ldr	r2, [r7, #28]
 8947 0024 D318     		adds	r3, r2, r3
 8948 0026 9B68     		ldr	r3, [r3, #8]
 8949 0028 23F47E53 		bic	r3, r3, #16256
 8950 002c 23F07703 		bic	r3, r3, #119
 8951 0030 BB61     		str	r3, [r7, #24]
 729:/home/cuil/workspace/arm/lm3s811/TI_Stellaris/driverlib/udma.c ****                  ~(UDMA_CHCTL_XFERSIZE_M | UDMA_CHCTL_XFERMODE_M));
 730:/home/cuil/workspace/arm/lm3s811/TI_Stellaris/driverlib/udma.c **** 
 731:/home/cuil/workspace/arm/lm3s811/TI_Stellaris/driverlib/udma.c ****     //
 732:/home/cuil/workspace/arm/lm3s811/TI_Stellaris/driverlib/udma.c ****     // Adjust the mode if the alt control structure is selected.
 733:/home/cuil/workspace/arm/lm3s811/TI_Stellaris/driverlib/udma.c ****     //
 734:/home/cuil/workspace/arm/lm3s811/TI_Stellaris/driverlib/udma.c ****     if(ulChannelStructIndex & UDMA_ALT_SELECT)
 8952              		.loc 1 734 0
 8953 0032 FB68     		ldr	r3, [r7, #12]
 8954 0034 03F02003 		and	r3, r3, #32
 8955 0038 002B     		cmp	r3, #0
 8956 003a 09D0     		beq	.L59
 735:/home/cuil/workspace/arm/lm3s811/TI_Stellaris/driverlib/udma.c ****     {
 736:/home/cuil/workspace/arm/lm3s811/TI_Stellaris/driverlib/udma.c ****         if((ulMode == UDMA_MODE_MEM_SCATTER_GATHER) ||
 8957              		.loc 1 736 0
 8958 003c BB68     		ldr	r3, [r7, #8]
 8959 003e 042B     		cmp	r3, #4
 8960 0040 02D0     		beq	.L60
 8961              		.loc 1 736 0 is_stmt 0 discriminator 1
 8962 0042 BB68     		ldr	r3, [r7, #8]
 8963 0044 062B     		cmp	r3, #6
 8964 0046 03D1     		bne	.L59
 8965              	.L60:
 737:/home/cuil/workspace/arm/lm3s811/TI_Stellaris/driverlib/udma.c ****            (ulMode == UDMA_MODE_PER_SCATTER_GATHER))
 738:/home/cuil/workspace/arm/lm3s811/TI_Stellaris/driverlib/udma.c ****         {
 739:/home/cuil/workspace/arm/lm3s811/TI_Stellaris/driverlib/udma.c ****             ulMode |= UDMA_MODE_ALT_SELECT;
 8966              		.loc 1 739 0 is_stmt 1
 8967 0048 BB68     		ldr	r3, [r7, #8]
 8968 004a 43F00103 		orr	r3, r3, #1
 8969 004e BB60     		str	r3, [r7, #8]
 8970              	.L59:
 740:/home/cuil/workspace/arm/lm3s811/TI_Stellaris/driverlib/udma.c ****         }
 741:/home/cuil/workspace/arm/lm3s811/TI_Stellaris/driverlib/udma.c ****     }
 742:/home/cuil/workspace/arm/lm3s811/TI_Stellaris/driverlib/udma.c **** 
 743:/home/cuil/workspace/arm/lm3s811/TI_Stellaris/driverlib/udma.c ****     //
 744:/home/cuil/workspace/arm/lm3s811/TI_Stellaris/driverlib/udma.c ****     // Set the transfer size and mode in the control word (but don't write the
 745:/home/cuil/workspace/arm/lm3s811/TI_Stellaris/driverlib/udma.c ****     // control word yet as it could kick off a transfer).
 746:/home/cuil/workspace/arm/lm3s811/TI_Stellaris/driverlib/udma.c ****     //
 747:/home/cuil/workspace/arm/lm3s811/TI_Stellaris/driverlib/udma.c ****     ulControl |= ulMode | ((ulTransferSize - 1) << 4);
 8971              		.loc 1 747 0
 8972 0050 BB6A     		ldr	r3, [r7, #40]
 8973 0052 03F1FF33 		add	r3, r3, #-1
 8974 0056 4FEA0312 		lsl	r2, r3, #4
 8975 005a BB68     		ldr	r3, [r7, #8]
 8976 005c 42EA0303 		orr	r3, r2, r3
 8977 0060 BA69     		ldr	r2, [r7, #24]
 8978 0062 42EA0303 		orr	r3, r2, r3
 8979 0066 BB61     		str	r3, [r7, #24]
 748:/home/cuil/workspace/arm/lm3s811/TI_Stellaris/driverlib/udma.c **** 
 749:/home/cuil/workspace/arm/lm3s811/TI_Stellaris/driverlib/udma.c ****     //
 750:/home/cuil/workspace/arm/lm3s811/TI_Stellaris/driverlib/udma.c ****     // Get the address increment value for the source, from the control word.
 751:/home/cuil/workspace/arm/lm3s811/TI_Stellaris/driverlib/udma.c ****     //
 752:/home/cuil/workspace/arm/lm3s811/TI_Stellaris/driverlib/udma.c ****     ulInc = (ulControl & UDMA_CHCTL_SRCINC_M);
 8980              		.loc 1 752 0
 8981 0068 BB69     		ldr	r3, [r7, #24]
 8982 006a 03F04063 		and	r3, r3, #201326592
 8983 006e 7B61     		str	r3, [r7, #20]
 753:/home/cuil/workspace/arm/lm3s811/TI_Stellaris/driverlib/udma.c **** 
 754:/home/cuil/workspace/arm/lm3s811/TI_Stellaris/driverlib/udma.c ****     //
 755:/home/cuil/workspace/arm/lm3s811/TI_Stellaris/driverlib/udma.c ****     // Compute the ending source address of the transfer.  If the source
 756:/home/cuil/workspace/arm/lm3s811/TI_Stellaris/driverlib/udma.c ****     // increment is set to none, then the ending address is the same as the
 757:/home/cuil/workspace/arm/lm3s811/TI_Stellaris/driverlib/udma.c ****     // beginning.
 758:/home/cuil/workspace/arm/lm3s811/TI_Stellaris/driverlib/udma.c ****     //
 759:/home/cuil/workspace/arm/lm3s811/TI_Stellaris/driverlib/udma.c ****     if(ulInc != UDMA_SRC_INC_NONE)
 8984              		.loc 1 759 0
 8985 0070 7B69     		ldr	r3, [r7, #20]
 8986 0072 B3F1406F 		cmp	r3, #201326592
 8987 0076 0ED0     		beq	.L61
 760:/home/cuil/workspace/arm/lm3s811/TI_Stellaris/driverlib/udma.c ****     {
 761:/home/cuil/workspace/arm/lm3s811/TI_Stellaris/driverlib/udma.c ****         ulInc = ulInc >> 26;
 8988              		.loc 1 761 0
 8989 0078 7B69     		ldr	r3, [r7, #20]
 8990 007a 4FEA9363 		lsr	r3, r3, #26
 8991 007e 7B61     		str	r3, [r7, #20]
 762:/home/cuil/workspace/arm/lm3s811/TI_Stellaris/driverlib/udma.c ****         ulBufferBytes = ulTransferSize << ulInc;
 8992              		.loc 1 762 0
 8993 0080 7B69     		ldr	r3, [r7, #20]
 8994 0082 BA6A     		ldr	r2, [r7, #40]
 8995 0084 02FA03F3 		lsl	r3, r2, r3
 8996 0088 3B61     		str	r3, [r7, #16]
 763:/home/cuil/workspace/arm/lm3s811/TI_Stellaris/driverlib/udma.c ****         pvSrcAddr = (void *)((unsigned long)pvSrcAddr + ulBufferBytes - 1);
 8997              		.loc 1 763 0
 8998 008a 7A68     		ldr	r2, [r7, #4]
 8999 008c 3B69     		ldr	r3, [r7, #16]
 9000 008e D318     		adds	r3, r2, r3
 9001 0090 03F1FF33 		add	r3, r3, #-1
 9002 0094 7B60     		str	r3, [r7, #4]
 9003              	.L61:
 764:/home/cuil/workspace/arm/lm3s811/TI_Stellaris/driverlib/udma.c ****     }
 765:/home/cuil/workspace/arm/lm3s811/TI_Stellaris/driverlib/udma.c **** 
 766:/home/cuil/workspace/arm/lm3s811/TI_Stellaris/driverlib/udma.c ****     //
 767:/home/cuil/workspace/arm/lm3s811/TI_Stellaris/driverlib/udma.c ****     // Load the source ending address into the control block.
 768:/home/cuil/workspace/arm/lm3s811/TI_Stellaris/driverlib/udma.c ****     //
 769:/home/cuil/workspace/arm/lm3s811/TI_Stellaris/driverlib/udma.c ****     pControlTable[ulChannelStructIndex].pvSrcEndAddr = pvSrcAddr;
 9004              		.loc 1 769 0
 9005 0096 FB68     		ldr	r3, [r7, #12]
 9006 0098 4FEA0313 		lsl	r3, r3, #4
 9007 009c FA69     		ldr	r2, [r7, #28]
 9008 009e D318     		adds	r3, r2, r3
 9009 00a0 7A68     		ldr	r2, [r7, #4]
 9010 00a2 1A60     		str	r2, [r3, #0]
 770:/home/cuil/workspace/arm/lm3s811/TI_Stellaris/driverlib/udma.c **** 
 771:/home/cuil/workspace/arm/lm3s811/TI_Stellaris/driverlib/udma.c ****     //
 772:/home/cuil/workspace/arm/lm3s811/TI_Stellaris/driverlib/udma.c ****     // Get the address increment value for the destination, from the control
 773:/home/cuil/workspace/arm/lm3s811/TI_Stellaris/driverlib/udma.c ****     // word.
 774:/home/cuil/workspace/arm/lm3s811/TI_Stellaris/driverlib/udma.c ****     //
 775:/home/cuil/workspace/arm/lm3s811/TI_Stellaris/driverlib/udma.c ****     ulInc = ulControl & UDMA_CHCTL_DSTINC_M;
 9011              		.loc 1 775 0
 9012 00a4 BB69     		ldr	r3, [r7, #24]
 9013 00a6 03F04043 		and	r3, r3, #-1073741824
 9014 00aa 7B61     		str	r3, [r7, #20]
 776:/home/cuil/workspace/arm/lm3s811/TI_Stellaris/driverlib/udma.c **** 
 777:/home/cuil/workspace/arm/lm3s811/TI_Stellaris/driverlib/udma.c ****     //
 778:/home/cuil/workspace/arm/lm3s811/TI_Stellaris/driverlib/udma.c ****     // Compute the ending destination address of the transfer.  If the
 779:/home/cuil/workspace/arm/lm3s811/TI_Stellaris/driverlib/udma.c ****     // destination increment is set to none, then the ending address is the
 780:/home/cuil/workspace/arm/lm3s811/TI_Stellaris/driverlib/udma.c ****     // same as the beginning.
 781:/home/cuil/workspace/arm/lm3s811/TI_Stellaris/driverlib/udma.c ****     //
 782:/home/cuil/workspace/arm/lm3s811/TI_Stellaris/driverlib/udma.c ****     if(ulInc != UDMA_DST_INC_NONE)
 9015              		.loc 1 782 0
 9016 00ac 7B69     		ldr	r3, [r7, #20]
 9017 00ae B3F1404F 		cmp	r3, #-1073741824
 9018 00b2 1FD0     		beq	.L62
 783:/home/cuil/workspace/arm/lm3s811/TI_Stellaris/driverlib/udma.c ****     {
 784:/home/cuil/workspace/arm/lm3s811/TI_Stellaris/driverlib/udma.c ****         //
 785:/home/cuil/workspace/arm/lm3s811/TI_Stellaris/driverlib/udma.c ****         // There is a special case if this is setting up a scatter-gather
 786:/home/cuil/workspace/arm/lm3s811/TI_Stellaris/driverlib/udma.c ****         // transfer.  The destination pointer must point to the end of
 787:/home/cuil/workspace/arm/lm3s811/TI_Stellaris/driverlib/udma.c ****         // the alternate structure for this channel instead of calculating
 788:/home/cuil/workspace/arm/lm3s811/TI_Stellaris/driverlib/udma.c ****         // the end of the buffer in the normal way.
 789:/home/cuil/workspace/arm/lm3s811/TI_Stellaris/driverlib/udma.c ****         //
 790:/home/cuil/workspace/arm/lm3s811/TI_Stellaris/driverlib/udma.c ****         if((ulMode == UDMA_MODE_MEM_SCATTER_GATHER) ||
 9019              		.loc 1 790 0
 9020 00b4 BB68     		ldr	r3, [r7, #8]
 9021 00b6 042B     		cmp	r3, #4
 9022 00b8 02D0     		beq	.L63
 9023              		.loc 1 790 0 is_stmt 0 discriminator 1
 9024 00ba BB68     		ldr	r3, [r7, #8]
 9025 00bc 062B     		cmp	r3, #6
 9026 00be 0AD1     		bne	.L64
 9027              	.L63:
 791:/home/cuil/workspace/arm/lm3s811/TI_Stellaris/driverlib/udma.c ****            (ulMode == UDMA_MODE_PER_SCATTER_GATHER))
 792:/home/cuil/workspace/arm/lm3s811/TI_Stellaris/driverlib/udma.c ****         {
 793:/home/cuil/workspace/arm/lm3s811/TI_Stellaris/driverlib/udma.c ****             pvDstAddr =
 794:/home/cuil/workspace/arm/lm3s811/TI_Stellaris/driverlib/udma.c ****                 (void *)&pControlTable[ulChannelStructIndex |
 9028              		.loc 1 794 0 is_stmt 1
 9029 00c0 FB68     		ldr	r3, [r7, #12]
 9030 00c2 43F02003 		orr	r3, r3, #32
 9031 00c6 4FEA0313 		lsl	r3, r3, #4
 9032 00ca FA69     		ldr	r2, [r7, #28]
 9033 00cc D318     		adds	r3, r2, r3
 793:/home/cuil/workspace/arm/lm3s811/TI_Stellaris/driverlib/udma.c ****             pvDstAddr =
 9034              		.loc 1 793 0
 9035 00ce 03F10C03 		add	r3, r3, #12
 9036 00d2 3B60     		str	r3, [r7, #0]
 9037 00d4 0EE0     		b	.L62
 9038              	.L64:
 795:/home/cuil/workspace/arm/lm3s811/TI_Stellaris/driverlib/udma.c ****                                        UDMA_ALT_SELECT].ulSpare;
 796:/home/cuil/workspace/arm/lm3s811/TI_Stellaris/driverlib/udma.c ****         }
 797:/home/cuil/workspace/arm/lm3s811/TI_Stellaris/driverlib/udma.c ****         //
 798:/home/cuil/workspace/arm/lm3s811/TI_Stellaris/driverlib/udma.c ****         // Not a scatter-gather transfer, calculate end pointer normally.
 799:/home/cuil/workspace/arm/lm3s811/TI_Stellaris/driverlib/udma.c ****         //
 800:/home/cuil/workspace/arm/lm3s811/TI_Stellaris/driverlib/udma.c ****         else
 801:/home/cuil/workspace/arm/lm3s811/TI_Stellaris/driverlib/udma.c ****         {
 802:/home/cuil/workspace/arm/lm3s811/TI_Stellaris/driverlib/udma.c ****             ulInc = ulInc >> 30;
 9039              		.loc 1 802 0
 9040 00d6 7B69     		ldr	r3, [r7, #20]
 9041 00d8 4FEA9373 		lsr	r3, r3, #30
 9042 00dc 7B61     		str	r3, [r7, #20]
 803:/home/cuil/workspace/arm/lm3s811/TI_Stellaris/driverlib/udma.c ****             ulBufferBytes = ulTransferSize << ulInc;
 9043              		.loc 1 803 0
 9044 00de 7B69     		ldr	r3, [r7, #20]
 9045 00e0 BA6A     		ldr	r2, [r7, #40]
 9046 00e2 02FA03F3 		lsl	r3, r2, r3
 9047 00e6 3B61     		str	r3, [r7, #16]
 804:/home/cuil/workspace/arm/lm3s811/TI_Stellaris/driverlib/udma.c ****             pvDstAddr = (void *)((unsigned long)pvDstAddr + ulBufferBytes - 1);
 9048              		.loc 1 804 0
 9049 00e8 3A68     		ldr	r2, [r7, #0]
 9050 00ea 3B69     		ldr	r3, [r7, #16]
 9051 00ec D318     		adds	r3, r2, r3
 9052 00ee 03F1FF33 		add	r3, r3, #-1
 9053 00f2 3B60     		str	r3, [r7, #0]
 9054              	.L62:
 805:/home/cuil/workspace/arm/lm3s811/TI_Stellaris/driverlib/udma.c ****         }
 806:/home/cuil/workspace/arm/lm3s811/TI_Stellaris/driverlib/udma.c ****     }
 807:/home/cuil/workspace/arm/lm3s811/TI_Stellaris/driverlib/udma.c **** 
 808:/home/cuil/workspace/arm/lm3s811/TI_Stellaris/driverlib/udma.c ****     //
 809:/home/cuil/workspace/arm/lm3s811/TI_Stellaris/driverlib/udma.c ****     // Load the destination ending address into the control block.
 810:/home/cuil/workspace/arm/lm3s811/TI_Stellaris/driverlib/udma.c ****     //
 811:/home/cuil/workspace/arm/lm3s811/TI_Stellaris/driverlib/udma.c ****     pControlTable[ulChannelStructIndex].pvDstEndAddr = pvDstAddr;
 9055              		.loc 1 811 0
 9056 00f4 FB68     		ldr	r3, [r7, #12]
 9057 00f6 4FEA0313 		lsl	r3, r3, #4
 9058 00fa FA69     		ldr	r2, [r7, #28]
 9059 00fc D318     		adds	r3, r2, r3
 9060 00fe 3A68     		ldr	r2, [r7, #0]
 9061 0100 5A60     		str	r2, [r3, #4]
 812:/home/cuil/workspace/arm/lm3s811/TI_Stellaris/driverlib/udma.c **** 
 813:/home/cuil/workspace/arm/lm3s811/TI_Stellaris/driverlib/udma.c ****     //
 814:/home/cuil/workspace/arm/lm3s811/TI_Stellaris/driverlib/udma.c ****     // Write the new control word value.
 815:/home/cuil/workspace/arm/lm3s811/TI_Stellaris/driverlib/udma.c ****     //
 816:/home/cuil/workspace/arm/lm3s811/TI_Stellaris/driverlib/udma.c ****     pControlTable[ulChannelStructIndex].ulControl = ulControl;
 9062              		.loc 1 816 0
 9063 0102 FB68     		ldr	r3, [r7, #12]
 9064 0104 4FEA0313 		lsl	r3, r3, #4
 9065 0108 FA69     		ldr	r2, [r7, #28]
 9066 010a D318     		adds	r3, r2, r3
 9067 010c BA69     		ldr	r2, [r7, #24]
 9068 010e 9A60     		str	r2, [r3, #8]
 817:/home/cuil/workspace/arm/lm3s811/TI_Stellaris/driverlib/udma.c **** }
 9069              		.loc 1 817 0
 9070 0110 07F12407 		add	r7, r7, #36
 9071 0114 BD46     		mov	sp, r7
 9072 0116 80BC     		pop	{r7}
 9073 0118 7047     		bx	lr
 9074              	.L66:
 9075 011a 00BF     		.align	2
 9076              	.L65:
 9077 011c 08F00F40 		.word	1074786312
 9078              		.cfi_endproc
 9079              	.LFE15:
 9081              		.section	.text.uDMAChannelScatterGatherSet,"ax",%progbits
 9082              		.align	2
 9083              		.global	uDMAChannelScatterGatherSet
 9084              		.thumb
 9085              		.thumb_func
 9087              	uDMAChannelScatterGatherSet:
 9088              	.LFB16:
 818:/home/cuil/workspace/arm/lm3s811/TI_Stellaris/driverlib/udma.c **** 
 819:/home/cuil/workspace/arm/lm3s811/TI_Stellaris/driverlib/udma.c **** //*****************************************************************************
 820:/home/cuil/workspace/arm/lm3s811/TI_Stellaris/driverlib/udma.c **** //
 821:/home/cuil/workspace/arm/lm3s811/TI_Stellaris/driverlib/udma.c **** //! Configures a uDMA channel for scatter-gather mode.
 822:/home/cuil/workspace/arm/lm3s811/TI_Stellaris/driverlib/udma.c **** //!
 823:/home/cuil/workspace/arm/lm3s811/TI_Stellaris/driverlib/udma.c **** //! \param ulChannelNum is the uDMA channel number.
 824:/home/cuil/workspace/arm/lm3s811/TI_Stellaris/driverlib/udma.c **** //! \param ulTaskCount is the number of scatter-gather tasks to execute.
 825:/home/cuil/workspace/arm/lm3s811/TI_Stellaris/driverlib/udma.c **** //! \param pvTaskList is a pointer to the beginning of the scatter-gather
 826:/home/cuil/workspace/arm/lm3s811/TI_Stellaris/driverlib/udma.c **** //! task list.
 827:/home/cuil/workspace/arm/lm3s811/TI_Stellaris/driverlib/udma.c **** //! \param ulIsPeriphSG is a flag to indicate it is a peripheral scatter-gather
 828:/home/cuil/workspace/arm/lm3s811/TI_Stellaris/driverlib/udma.c **** //! transfer (else it is memory scatter-gather transfer)
 829:/home/cuil/workspace/arm/lm3s811/TI_Stellaris/driverlib/udma.c **** //!
 830:/home/cuil/workspace/arm/lm3s811/TI_Stellaris/driverlib/udma.c **** //! This function is used to configure a channel for scatter-gather mode.
 831:/home/cuil/workspace/arm/lm3s811/TI_Stellaris/driverlib/udma.c **** //! The caller must have already set up a task list and must pass a pointer to
 832:/home/cuil/workspace/arm/lm3s811/TI_Stellaris/driverlib/udma.c **** //! the start of the task list as the \e pvTaskList parameter.  The
 833:/home/cuil/workspace/arm/lm3s811/TI_Stellaris/driverlib/udma.c **** //! \e ulTaskCount parameter is the count of tasks in the task list, not the
 834:/home/cuil/workspace/arm/lm3s811/TI_Stellaris/driverlib/udma.c **** //! size of the task list.  The flag \e bIsPeriphSG should be used to indicate
 835:/home/cuil/workspace/arm/lm3s811/TI_Stellaris/driverlib/udma.c **** //! if scatter-gather should be configured for peripheral or memory
 836:/home/cuil/workspace/arm/lm3s811/TI_Stellaris/driverlib/udma.c **** //! operation.
 837:/home/cuil/workspace/arm/lm3s811/TI_Stellaris/driverlib/udma.c **** //!
 838:/home/cuil/workspace/arm/lm3s811/TI_Stellaris/driverlib/udma.c **** //! \sa uDMATaskStructEntry
 839:/home/cuil/workspace/arm/lm3s811/TI_Stellaris/driverlib/udma.c **** //!
 840:/home/cuil/workspace/arm/lm3s811/TI_Stellaris/driverlib/udma.c **** //! \return None.
 841:/home/cuil/workspace/arm/lm3s811/TI_Stellaris/driverlib/udma.c **** //
 842:/home/cuil/workspace/arm/lm3s811/TI_Stellaris/driverlib/udma.c **** //*****************************************************************************
 843:/home/cuil/workspace/arm/lm3s811/TI_Stellaris/driverlib/udma.c **** void
 844:/home/cuil/workspace/arm/lm3s811/TI_Stellaris/driverlib/udma.c **** uDMAChannelScatterGatherSet(unsigned long ulChannelNum, unsigned ulTaskCount,
 845:/home/cuil/workspace/arm/lm3s811/TI_Stellaris/driverlib/udma.c ****                             void *pvTaskList, unsigned long ulIsPeriphSG)
 846:/home/cuil/workspace/arm/lm3s811/TI_Stellaris/driverlib/udma.c **** {
 9089              		.loc 1 846 0
 9090              		.cfi_startproc
 9091              		@ args = 0, pretend = 0, frame = 24
 9092              		@ frame_needed = 1, uses_anonymous_args = 0
 9093              		@ link register save eliminated.
 9094 0000 80B4     		push	{r7}
 9095              	.LCFI42:
 9096              		.cfi_def_cfa_offset 4
 9097 0002 87B0     		sub	sp, sp, #28
 9098              	.LCFI43:
 9099              		.cfi_def_cfa_offset 32
 9100 0004 00AF     		add	r7, sp, #0
 9101              		.cfi_offset 7, -4
 9102              	.LCFI44:
 9103              		.cfi_def_cfa_register 7
 9104 0006 F860     		str	r0, [r7, #12]
 9105 0008 B960     		str	r1, [r7, #8]
 9106 000a 7A60     		str	r2, [r7, #4]
 9107 000c 3B60     		str	r3, [r7, #0]
 847:/home/cuil/workspace/arm/lm3s811/TI_Stellaris/driverlib/udma.c ****     tDMAControlTable *pControlTable;
 848:/home/cuil/workspace/arm/lm3s811/TI_Stellaris/driverlib/udma.c ****     tDMAControlTable *pTaskTable;
 849:/home/cuil/workspace/arm/lm3s811/TI_Stellaris/driverlib/udma.c **** 
 850:/home/cuil/workspace/arm/lm3s811/TI_Stellaris/driverlib/udma.c ****     //
 851:/home/cuil/workspace/arm/lm3s811/TI_Stellaris/driverlib/udma.c ****     // Check the parameters
 852:/home/cuil/workspace/arm/lm3s811/TI_Stellaris/driverlib/udma.c ****     //
 853:/home/cuil/workspace/arm/lm3s811/TI_Stellaris/driverlib/udma.c ****     ASSERT((ulChannelNum & 0xffff) < 32);
 854:/home/cuil/workspace/arm/lm3s811/TI_Stellaris/driverlib/udma.c ****     ASSERT(HWREG(UDMA_CTLBASE) != 0);
 855:/home/cuil/workspace/arm/lm3s811/TI_Stellaris/driverlib/udma.c ****     ASSERT(pvTaskList != 0);
 856:/home/cuil/workspace/arm/lm3s811/TI_Stellaris/driverlib/udma.c ****     ASSERT(ulTaskCount <= 1024);
 857:/home/cuil/workspace/arm/lm3s811/TI_Stellaris/driverlib/udma.c ****     ASSERT(ulTaskCount != 0);
 858:/home/cuil/workspace/arm/lm3s811/TI_Stellaris/driverlib/udma.c **** 
 859:/home/cuil/workspace/arm/lm3s811/TI_Stellaris/driverlib/udma.c ****     //
 860:/home/cuil/workspace/arm/lm3s811/TI_Stellaris/driverlib/udma.c ****     // In case a channel selector macro (like UDMA_CH0_USB0EP1RX) was
 861:/home/cuil/workspace/arm/lm3s811/TI_Stellaris/driverlib/udma.c ****     // passed as the ulChannelNum parameter, extract just the channel number
 862:/home/cuil/workspace/arm/lm3s811/TI_Stellaris/driverlib/udma.c ****     // from this parameter.
 863:/home/cuil/workspace/arm/lm3s811/TI_Stellaris/driverlib/udma.c ****     //
 864:/home/cuil/workspace/arm/lm3s811/TI_Stellaris/driverlib/udma.c ****     ulChannelNum &= 0x1f;
 9108              		.loc 1 864 0
 9109 000e FB68     		ldr	r3, [r7, #12]
 9110 0010 03F01F03 		and	r3, r3, #31
 9111 0014 FB60     		str	r3, [r7, #12]
 865:/home/cuil/workspace/arm/lm3s811/TI_Stellaris/driverlib/udma.c **** 
 866:/home/cuil/workspace/arm/lm3s811/TI_Stellaris/driverlib/udma.c ****     //
 867:/home/cuil/workspace/arm/lm3s811/TI_Stellaris/driverlib/udma.c ****     // Get the base address of the control table.
 868:/home/cuil/workspace/arm/lm3s811/TI_Stellaris/driverlib/udma.c ****     //
 869:/home/cuil/workspace/arm/lm3s811/TI_Stellaris/driverlib/udma.c ****     pControlTable = (tDMAControlTable *)HWREG(UDMA_CTLBASE);
 9112              		.loc 1 869 0
 9113 0016 214B     		ldr	r3, .L70
 9114 0018 1B68     		ldr	r3, [r3, #0]
 9115 001a 7B61     		str	r3, [r7, #20]
 870:/home/cuil/workspace/arm/lm3s811/TI_Stellaris/driverlib/udma.c **** 
 871:/home/cuil/workspace/arm/lm3s811/TI_Stellaris/driverlib/udma.c ****     //
 872:/home/cuil/workspace/arm/lm3s811/TI_Stellaris/driverlib/udma.c ****     // Get a handy pointer to the task list
 873:/home/cuil/workspace/arm/lm3s811/TI_Stellaris/driverlib/udma.c ****     //
 874:/home/cuil/workspace/arm/lm3s811/TI_Stellaris/driverlib/udma.c ****     pTaskTable = (tDMAControlTable *)pvTaskList;
 9116              		.loc 1 874 0
 9117 001c 7B68     		ldr	r3, [r7, #4]
 9118 001e 3B61     		str	r3, [r7, #16]
 875:/home/cuil/workspace/arm/lm3s811/TI_Stellaris/driverlib/udma.c **** 
 876:/home/cuil/workspace/arm/lm3s811/TI_Stellaris/driverlib/udma.c ****     //
 877:/home/cuil/workspace/arm/lm3s811/TI_Stellaris/driverlib/udma.c ****     // Compute the ending address for the source pointer.  This address is the 
 878:/home/cuil/workspace/arm/lm3s811/TI_Stellaris/driverlib/udma.c ****     // last element of the last task in the task table
 879:/home/cuil/workspace/arm/lm3s811/TI_Stellaris/driverlib/udma.c ****     //
 880:/home/cuil/workspace/arm/lm3s811/TI_Stellaris/driverlib/udma.c ****     pControlTable[ulChannelNum].pvSrcEndAddr =
 9119              		.loc 1 880 0
 9120 0020 FB68     		ldr	r3, [r7, #12]
 9121 0022 4FEA0313 		lsl	r3, r3, #4
 9122 0026 7A69     		ldr	r2, [r7, #20]
 9123 0028 D318     		adds	r3, r2, r3
 881:/home/cuil/workspace/arm/lm3s811/TI_Stellaris/driverlib/udma.c ****         &pTaskTable[ulTaskCount - 1].ulSpare;
 9124              		.loc 1 881 0
 9125 002a BA68     		ldr	r2, [r7, #8]
 9126 002c 02F1FF32 		add	r2, r2, #-1
 9127 0030 4FEA0212 		lsl	r2, r2, #4
 9128 0034 3969     		ldr	r1, [r7, #16]
 9129 0036 8A18     		adds	r2, r1, r2
 9130 0038 02F10C02 		add	r2, r2, #12
 880:/home/cuil/workspace/arm/lm3s811/TI_Stellaris/driverlib/udma.c ****     pControlTable[ulChannelNum].pvSrcEndAddr =
 9131              		.loc 1 880 0
 9132 003c 1A60     		str	r2, [r3, #0]
 882:/home/cuil/workspace/arm/lm3s811/TI_Stellaris/driverlib/udma.c **** 
 883:/home/cuil/workspace/arm/lm3s811/TI_Stellaris/driverlib/udma.c ****     //
 884:/home/cuil/workspace/arm/lm3s811/TI_Stellaris/driverlib/udma.c ****     // Compute the ending address for the destination pointer.  This address 
 885:/home/cuil/workspace/arm/lm3s811/TI_Stellaris/driverlib/udma.c ****     // is the end of the alternate structure for this channel.
 886:/home/cuil/workspace/arm/lm3s811/TI_Stellaris/driverlib/udma.c ****     //
 887:/home/cuil/workspace/arm/lm3s811/TI_Stellaris/driverlib/udma.c ****     pControlTable[ulChannelNum].pvDstEndAddr =
 9133              		.loc 1 887 0
 9134 003e FB68     		ldr	r3, [r7, #12]
 9135 0040 4FEA0313 		lsl	r3, r3, #4
 9136 0044 7A69     		ldr	r2, [r7, #20]
 9137 0046 D318     		adds	r3, r2, r3
 888:/home/cuil/workspace/arm/lm3s811/TI_Stellaris/driverlib/udma.c ****         &pControlTable[ulChannelNum | UDMA_ALT_SELECT].ulSpare;
 9138              		.loc 1 888 0
 9139 0048 FA68     		ldr	r2, [r7, #12]
 9140 004a 42F02002 		orr	r2, r2, #32
 9141 004e 4FEA0212 		lsl	r2, r2, #4
 9142 0052 7969     		ldr	r1, [r7, #20]
 9143 0054 8A18     		adds	r2, r1, r2
 9144 0056 02F10C02 		add	r2, r2, #12
 887:/home/cuil/workspace/arm/lm3s811/TI_Stellaris/driverlib/udma.c ****     pControlTable[ulChannelNum].pvDstEndAddr =
 9145              		.loc 1 887 0
 9146 005a 5A60     		str	r2, [r3, #4]
 889:/home/cuil/workspace/arm/lm3s811/TI_Stellaris/driverlib/udma.c **** 
 890:/home/cuil/workspace/arm/lm3s811/TI_Stellaris/driverlib/udma.c ****     //
 891:/home/cuil/workspace/arm/lm3s811/TI_Stellaris/driverlib/udma.c ****     // Compute the control word.  Most configurable items are fixed for
 892:/home/cuil/workspace/arm/lm3s811/TI_Stellaris/driverlib/udma.c ****     // scatter-gather.  Item and increment sizes are all 32-bit and arb
 893:/home/cuil/workspace/arm/lm3s811/TI_Stellaris/driverlib/udma.c ****     // size must be 4.  The count is the number of items in the task list
 894:/home/cuil/workspace/arm/lm3s811/TI_Stellaris/driverlib/udma.c ****     // times 4 (4 words per task).
 895:/home/cuil/workspace/arm/lm3s811/TI_Stellaris/driverlib/udma.c ****     //
 896:/home/cuil/workspace/arm/lm3s811/TI_Stellaris/driverlib/udma.c ****     pControlTable[ulChannelNum].ulControl =
 9147              		.loc 1 896 0
 9148 005c FB68     		ldr	r3, [r7, #12]
 9149 005e 4FEA0313 		lsl	r3, r3, #4
 9150 0062 7A69     		ldr	r2, [r7, #20]
 9151 0064 D218     		adds	r2, r2, r3
 897:/home/cuil/workspace/arm/lm3s811/TI_Stellaris/driverlib/udma.c ****         (UDMA_CHCTL_DSTINC_32 | UDMA_CHCTL_DSTSIZE_32 |
 898:/home/cuil/workspace/arm/lm3s811/TI_Stellaris/driverlib/udma.c ****          UDMA_CHCTL_SRCINC_32 | UDMA_CHCTL_SRCSIZE_32 |
 899:/home/cuil/workspace/arm/lm3s811/TI_Stellaris/driverlib/udma.c ****          UDMA_CHCTL_ARBSIZE_4 |
 900:/home/cuil/workspace/arm/lm3s811/TI_Stellaris/driverlib/udma.c ****          (((ulTaskCount * 4) - 1) << UDMA_CHCTL_XFERSIZE_S) |
 9152              		.loc 1 900 0
 9153 0066 BB68     		ldr	r3, [r7, #8]
 9154 0068 4FEA8303 		lsl	r3, r3, #2
 9155 006c 03F1FF33 		add	r3, r3, #-1
 9156 0070 4FEA0311 		lsl	r1, r3, #4
 9157 0074 3B68     		ldr	r3, [r7, #0]
 9158 0076 002B     		cmp	r3, #0
 9159 0078 02D0     		beq	.L68
 9160              		.loc 1 900 0 is_stmt 0 discriminator 1
 9161 007a 4FF00603 		mov	r3, #6
 9162 007e 01E0     		b	.L69
 9163              	.L68:
 9164              		.loc 1 900 0 discriminator 2
 9165 0080 4FF00403 		mov	r3, #4
 9166              	.L69:
 9167              		.loc 1 900 0 discriminator 3
 9168 0084 41EA0303 		orr	r3, r1, r3
 9169 0088 43F02A43 		orr	r3, r3, #-1442840576
 9170 008c 43F40043 		orr	r3, r3, #32768
 896:/home/cuil/workspace/arm/lm3s811/TI_Stellaris/driverlib/udma.c ****     pControlTable[ulChannelNum].ulControl =
 9171              		.loc 1 896 0 is_stmt 1 discriminator 3
 9172 0090 9360     		str	r3, [r2, #8]
 901:/home/cuil/workspace/arm/lm3s811/TI_Stellaris/driverlib/udma.c ****          (ulIsPeriphSG ? UDMA_CHCTL_XFERMODE_PER_SG :
 902:/home/cuil/workspace/arm/lm3s811/TI_Stellaris/driverlib/udma.c ****           UDMA_CHCTL_XFERMODE_MEM_SG));
 903:/home/cuil/workspace/arm/lm3s811/TI_Stellaris/driverlib/udma.c **** }
 9173              		.loc 1 903 0 discriminator 3
 9174 0092 07F11C07 		add	r7, r7, #28
 9175 0096 BD46     		mov	sp, r7
 9176 0098 80BC     		pop	{r7}
 9177 009a 7047     		bx	lr
 9178              	.L71:
 9179              		.align	2
 9180              	.L70:
 9181 009c 08F00F40 		.word	1074786312
 9182              		.cfi_endproc
 9183              	.LFE16:
 9185              		.section	.text.uDMAChannelSizeGet,"ax",%progbits
 9186              		.align	2
 9187              		.global	uDMAChannelSizeGet
 9188              		.thumb
 9189              		.thumb_func
 9191              	uDMAChannelSizeGet:
 9192              	.LFB17:
 904:/home/cuil/workspace/arm/lm3s811/TI_Stellaris/driverlib/udma.c **** 
 905:/home/cuil/workspace/arm/lm3s811/TI_Stellaris/driverlib/udma.c **** //*****************************************************************************
 906:/home/cuil/workspace/arm/lm3s811/TI_Stellaris/driverlib/udma.c **** //
 907:/home/cuil/workspace/arm/lm3s811/TI_Stellaris/driverlib/udma.c **** //! Gets the current transfer size for a uDMA channel control structure.
 908:/home/cuil/workspace/arm/lm3s811/TI_Stellaris/driverlib/udma.c **** //!
 909:/home/cuil/workspace/arm/lm3s811/TI_Stellaris/driverlib/udma.c **** //! \param ulChannelStructIndex is the logical OR of the uDMA channel number
 910:/home/cuil/workspace/arm/lm3s811/TI_Stellaris/driverlib/udma.c **** //! with either \b UDMA_PRI_SELECT or \b UDMA_ALT_SELECT.
 911:/home/cuil/workspace/arm/lm3s811/TI_Stellaris/driverlib/udma.c **** //!
 912:/home/cuil/workspace/arm/lm3s811/TI_Stellaris/driverlib/udma.c **** //! This function is used to get the uDMA transfer size for a channel.  The
 913:/home/cuil/workspace/arm/lm3s811/TI_Stellaris/driverlib/udma.c **** //! transfer size is the number of items to transfer, where the size of an item
 914:/home/cuil/workspace/arm/lm3s811/TI_Stellaris/driverlib/udma.c **** //! might be 8, 16, or 32 bits.  If a partial transfer has already occurred,
 915:/home/cuil/workspace/arm/lm3s811/TI_Stellaris/driverlib/udma.c **** //! then the number of remaining items is returned.  If the transfer is
 916:/home/cuil/workspace/arm/lm3s811/TI_Stellaris/driverlib/udma.c **** //! complete, then 0 is returned.
 917:/home/cuil/workspace/arm/lm3s811/TI_Stellaris/driverlib/udma.c **** //!
 918:/home/cuil/workspace/arm/lm3s811/TI_Stellaris/driverlib/udma.c **** //! \return Returns the number of items remaining to transfer.
 919:/home/cuil/workspace/arm/lm3s811/TI_Stellaris/driverlib/udma.c **** //
 920:/home/cuil/workspace/arm/lm3s811/TI_Stellaris/driverlib/udma.c **** //*****************************************************************************
 921:/home/cuil/workspace/arm/lm3s811/TI_Stellaris/driverlib/udma.c **** unsigned long
 922:/home/cuil/workspace/arm/lm3s811/TI_Stellaris/driverlib/udma.c **** uDMAChannelSizeGet(unsigned long ulChannelStructIndex)
 923:/home/cuil/workspace/arm/lm3s811/TI_Stellaris/driverlib/udma.c **** {
 9193              		.loc 1 923 0
 9194              		.cfi_startproc
 9195              		@ args = 0, pretend = 0, frame = 16
 9196              		@ frame_needed = 1, uses_anonymous_args = 0
 9197              		@ link register save eliminated.
 9198 0000 80B4     		push	{r7}
 9199              	.LCFI45:
 9200              		.cfi_def_cfa_offset 4
 9201 0002 85B0     		sub	sp, sp, #20
 9202              	.LCFI46:
 9203              		.cfi_def_cfa_offset 24
 9204 0004 00AF     		add	r7, sp, #0
 9205              		.cfi_offset 7, -4
 9206              	.LCFI47:
 9207              		.cfi_def_cfa_register 7
 9208 0006 7860     		str	r0, [r7, #4]
 924:/home/cuil/workspace/arm/lm3s811/TI_Stellaris/driverlib/udma.c ****     tDMAControlTable *pControlTable;
 925:/home/cuil/workspace/arm/lm3s811/TI_Stellaris/driverlib/udma.c ****     unsigned long ulControl;
 926:/home/cuil/workspace/arm/lm3s811/TI_Stellaris/driverlib/udma.c **** 
 927:/home/cuil/workspace/arm/lm3s811/TI_Stellaris/driverlib/udma.c ****     //
 928:/home/cuil/workspace/arm/lm3s811/TI_Stellaris/driverlib/udma.c ****     // Check the arguments.
 929:/home/cuil/workspace/arm/lm3s811/TI_Stellaris/driverlib/udma.c ****     //
 930:/home/cuil/workspace/arm/lm3s811/TI_Stellaris/driverlib/udma.c ****     ASSERT((ulChannelStructIndex & 0xffff) < 64);
 931:/home/cuil/workspace/arm/lm3s811/TI_Stellaris/driverlib/udma.c ****     ASSERT(HWREG(UDMA_CTLBASE) != 0);
 932:/home/cuil/workspace/arm/lm3s811/TI_Stellaris/driverlib/udma.c **** 
 933:/home/cuil/workspace/arm/lm3s811/TI_Stellaris/driverlib/udma.c ****     //
 934:/home/cuil/workspace/arm/lm3s811/TI_Stellaris/driverlib/udma.c ****     // In case a channel selector macro (like UDMA_CH0_USB0EP1RX) was
 935:/home/cuil/workspace/arm/lm3s811/TI_Stellaris/driverlib/udma.c ****     // passed as the ulChannelStructIndex parameter, extract just the channel
 936:/home/cuil/workspace/arm/lm3s811/TI_Stellaris/driverlib/udma.c ****     // index from this parameter.
 937:/home/cuil/workspace/arm/lm3s811/TI_Stellaris/driverlib/udma.c ****     //
 938:/home/cuil/workspace/arm/lm3s811/TI_Stellaris/driverlib/udma.c ****     ulChannelStructIndex &= 0x3f;
 9209              		.loc 1 938 0
 9210 0008 7B68     		ldr	r3, [r7, #4]
 9211 000a 03F03F03 		and	r3, r3, #63
 9212 000e 7B60     		str	r3, [r7, #4]
 939:/home/cuil/workspace/arm/lm3s811/TI_Stellaris/driverlib/udma.c **** 
 940:/home/cuil/workspace/arm/lm3s811/TI_Stellaris/driverlib/udma.c ****     //
 941:/home/cuil/workspace/arm/lm3s811/TI_Stellaris/driverlib/udma.c ****     // Get the base address of the control table.
 942:/home/cuil/workspace/arm/lm3s811/TI_Stellaris/driverlib/udma.c ****     //
 943:/home/cuil/workspace/arm/lm3s811/TI_Stellaris/driverlib/udma.c ****     pControlTable = (tDMAControlTable *)HWREG(UDMA_CTLBASE);
 9213              		.loc 1 943 0
 9214 0010 0F4B     		ldr	r3, .L75
 9215 0012 1B68     		ldr	r3, [r3, #0]
 9216 0014 FB60     		str	r3, [r7, #12]
 944:/home/cuil/workspace/arm/lm3s811/TI_Stellaris/driverlib/udma.c **** 
 945:/home/cuil/workspace/arm/lm3s811/TI_Stellaris/driverlib/udma.c ****     //
 946:/home/cuil/workspace/arm/lm3s811/TI_Stellaris/driverlib/udma.c ****     // Get the current control word value and mask off all but the size field
 947:/home/cuil/workspace/arm/lm3s811/TI_Stellaris/driverlib/udma.c ****     // and the mode field.
 948:/home/cuil/workspace/arm/lm3s811/TI_Stellaris/driverlib/udma.c ****     //
 949:/home/cuil/workspace/arm/lm3s811/TI_Stellaris/driverlib/udma.c ****     ulControl = (pControlTable[ulChannelStructIndex].ulControl &
 9217              		.loc 1 949 0
 9218 0016 7B68     		ldr	r3, [r7, #4]
 9219 0018 4FEA0313 		lsl	r3, r3, #4
 9220 001c FA68     		ldr	r2, [r7, #12]
 9221 001e D318     		adds	r3, r2, r3
 9222 0020 9A68     		ldr	r2, [r3, #8]
 9223 0022 43F6F773 		movw	r3, #16375
 9224 0026 02EA0303 		and	r3, r2, r3
 9225 002a BB60     		str	r3, [r7, #8]
 950:/home/cuil/workspace/arm/lm3s811/TI_Stellaris/driverlib/udma.c ****                  (UDMA_CHCTL_XFERSIZE_M | UDMA_CHCTL_XFERMODE_M));
 951:/home/cuil/workspace/arm/lm3s811/TI_Stellaris/driverlib/udma.c **** 
 952:/home/cuil/workspace/arm/lm3s811/TI_Stellaris/driverlib/udma.c ****     //
 953:/home/cuil/workspace/arm/lm3s811/TI_Stellaris/driverlib/udma.c ****     // If the size field and mode field are 0 then the transfer is finished
 954:/home/cuil/workspace/arm/lm3s811/TI_Stellaris/driverlib/udma.c ****     // and there are no more items to transfer
 955:/home/cuil/workspace/arm/lm3s811/TI_Stellaris/driverlib/udma.c ****     //
 956:/home/cuil/workspace/arm/lm3s811/TI_Stellaris/driverlib/udma.c ****     if(ulControl == 0)
 9226              		.loc 1 956 0
 9227 002c BB68     		ldr	r3, [r7, #8]
 9228 002e 002B     		cmp	r3, #0
 9229 0030 02D1     		bne	.L73
 957:/home/cuil/workspace/arm/lm3s811/TI_Stellaris/driverlib/udma.c ****     {
 958:/home/cuil/workspace/arm/lm3s811/TI_Stellaris/driverlib/udma.c ****         return(0);
 9230              		.loc 1 958 0
 9231 0032 4FF00003 		mov	r3, #0
 9232 0036 04E0     		b	.L74
 9233              	.L73:
 959:/home/cuil/workspace/arm/lm3s811/TI_Stellaris/driverlib/udma.c ****     }
 960:/home/cuil/workspace/arm/lm3s811/TI_Stellaris/driverlib/udma.c **** 
 961:/home/cuil/workspace/arm/lm3s811/TI_Stellaris/driverlib/udma.c ****     //
 962:/home/cuil/workspace/arm/lm3s811/TI_Stellaris/driverlib/udma.c ****     // Otherwise, if either the size field or more field is non-zero, then
 963:/home/cuil/workspace/arm/lm3s811/TI_Stellaris/driverlib/udma.c ****     // not all the items have been transferred.
 964:/home/cuil/workspace/arm/lm3s811/TI_Stellaris/driverlib/udma.c ****     //
 965:/home/cuil/workspace/arm/lm3s811/TI_Stellaris/driverlib/udma.c ****     else
 966:/home/cuil/workspace/arm/lm3s811/TI_Stellaris/driverlib/udma.c ****     {
 967:/home/cuil/workspace/arm/lm3s811/TI_Stellaris/driverlib/udma.c ****         //
 968:/home/cuil/workspace/arm/lm3s811/TI_Stellaris/driverlib/udma.c ****         // Shift the size field and add one, then return to user.
 969:/home/cuil/workspace/arm/lm3s811/TI_Stellaris/driverlib/udma.c ****         //
 970:/home/cuil/workspace/arm/lm3s811/TI_Stellaris/driverlib/udma.c ****         return((ulControl >> 4) + 1);
 9234              		.loc 1 970 0
 9235 0038 BB68     		ldr	r3, [r7, #8]
 9236 003a 4FEA1313 		lsr	r3, r3, #4
 9237 003e 03F10103 		add	r3, r3, #1
 9238              	.L74:
 971:/home/cuil/workspace/arm/lm3s811/TI_Stellaris/driverlib/udma.c ****     }
 972:/home/cuil/workspace/arm/lm3s811/TI_Stellaris/driverlib/udma.c **** }
 9239              		.loc 1 972 0
 9240 0042 1846     		mov	r0, r3
 9241 0044 07F11407 		add	r7, r7, #20
 9242 0048 BD46     		mov	sp, r7
 9243 004a 80BC     		pop	{r7}
 9244 004c 7047     		bx	lr
 9245              	.L76:
 9246 004e 00BF     		.align	2
 9247              	.L75:
 9248 0050 08F00F40 		.word	1074786312
 9249              		.cfi_endproc
 9250              	.LFE17:
 9252              		.section	.text.uDMAChannelModeGet,"ax",%progbits
 9253              		.align	2
 9254              		.global	uDMAChannelModeGet
 9255              		.thumb
 9256              		.thumb_func
 9258              	uDMAChannelModeGet:
 9259              	.LFB18:
 973:/home/cuil/workspace/arm/lm3s811/TI_Stellaris/driverlib/udma.c **** 
 974:/home/cuil/workspace/arm/lm3s811/TI_Stellaris/driverlib/udma.c **** //*****************************************************************************
 975:/home/cuil/workspace/arm/lm3s811/TI_Stellaris/driverlib/udma.c **** //
 976:/home/cuil/workspace/arm/lm3s811/TI_Stellaris/driverlib/udma.c **** //! Gets the transfer mode for a uDMA channel control structure.
 977:/home/cuil/workspace/arm/lm3s811/TI_Stellaris/driverlib/udma.c **** //!
 978:/home/cuil/workspace/arm/lm3s811/TI_Stellaris/driverlib/udma.c **** //! \param ulChannelStructIndex is the logical OR of the uDMA channel number
 979:/home/cuil/workspace/arm/lm3s811/TI_Stellaris/driverlib/udma.c **** //! with either \b UDMA_PRI_SELECT or \b UDMA_ALT_SELECT.
 980:/home/cuil/workspace/arm/lm3s811/TI_Stellaris/driverlib/udma.c **** //!
 981:/home/cuil/workspace/arm/lm3s811/TI_Stellaris/driverlib/udma.c **** //! This function is used to get the transfer mode for the uDMA channel and
 982:/home/cuil/workspace/arm/lm3s811/TI_Stellaris/driverlib/udma.c **** //! to query the status of a transfer on a channel.  When the transfer is
 983:/home/cuil/workspace/arm/lm3s811/TI_Stellaris/driverlib/udma.c **** //! complete the mode is \b UDMA_MODE_STOP.
 984:/home/cuil/workspace/arm/lm3s811/TI_Stellaris/driverlib/udma.c **** //!
 985:/home/cuil/workspace/arm/lm3s811/TI_Stellaris/driverlib/udma.c **** //! \return Returns the transfer mode of the specified channel and control
 986:/home/cuil/workspace/arm/lm3s811/TI_Stellaris/driverlib/udma.c **** //! structure, which is one of the following values: \b UDMA_MODE_STOP,
 987:/home/cuil/workspace/arm/lm3s811/TI_Stellaris/driverlib/udma.c **** //! \b UDMA_MODE_BASIC, \b UDMA_MODE_AUTO, \b UDMA_MODE_PINGPONG,
 988:/home/cuil/workspace/arm/lm3s811/TI_Stellaris/driverlib/udma.c **** //! \b UDMA_MODE_MEM_SCATTER_GATHER, or \b UDMA_MODE_PER_SCATTER_GATHER.
 989:/home/cuil/workspace/arm/lm3s811/TI_Stellaris/driverlib/udma.c **** //
 990:/home/cuil/workspace/arm/lm3s811/TI_Stellaris/driverlib/udma.c **** //*****************************************************************************
 991:/home/cuil/workspace/arm/lm3s811/TI_Stellaris/driverlib/udma.c **** unsigned long
 992:/home/cuil/workspace/arm/lm3s811/TI_Stellaris/driverlib/udma.c **** uDMAChannelModeGet(unsigned long ulChannelStructIndex)
 993:/home/cuil/workspace/arm/lm3s811/TI_Stellaris/driverlib/udma.c **** {
 9260              		.loc 1 993 0
 9261              		.cfi_startproc
 9262              		@ args = 0, pretend = 0, frame = 16
 9263              		@ frame_needed = 1, uses_anonymous_args = 0
 9264              		@ link register save eliminated.
 9265 0000 80B4     		push	{r7}
 9266              	.LCFI48:
 9267              		.cfi_def_cfa_offset 4
 9268 0002 85B0     		sub	sp, sp, #20
 9269              	.LCFI49:
 9270              		.cfi_def_cfa_offset 24
 9271 0004 00AF     		add	r7, sp, #0
 9272              		.cfi_offset 7, -4
 9273              	.LCFI50:
 9274              		.cfi_def_cfa_register 7
 9275 0006 7860     		str	r0, [r7, #4]
 994:/home/cuil/workspace/arm/lm3s811/TI_Stellaris/driverlib/udma.c ****     tDMAControlTable *pControlTable;
 995:/home/cuil/workspace/arm/lm3s811/TI_Stellaris/driverlib/udma.c ****     unsigned long ulControl;
 996:/home/cuil/workspace/arm/lm3s811/TI_Stellaris/driverlib/udma.c **** 
 997:/home/cuil/workspace/arm/lm3s811/TI_Stellaris/driverlib/udma.c ****     //
 998:/home/cuil/workspace/arm/lm3s811/TI_Stellaris/driverlib/udma.c ****     // Check the arguments.
 999:/home/cuil/workspace/arm/lm3s811/TI_Stellaris/driverlib/udma.c ****     //
1000:/home/cuil/workspace/arm/lm3s811/TI_Stellaris/driverlib/udma.c ****     ASSERT((ulChannelStructIndex & 0xffff) < 64);
1001:/home/cuil/workspace/arm/lm3s811/TI_Stellaris/driverlib/udma.c ****     ASSERT(HWREG(UDMA_CTLBASE) != 0);
1002:/home/cuil/workspace/arm/lm3s811/TI_Stellaris/driverlib/udma.c **** 
1003:/home/cuil/workspace/arm/lm3s811/TI_Stellaris/driverlib/udma.c ****     //
1004:/home/cuil/workspace/arm/lm3s811/TI_Stellaris/driverlib/udma.c ****     // In case a channel selector macro (like UDMA_CH0_USB0EP1RX) was
1005:/home/cuil/workspace/arm/lm3s811/TI_Stellaris/driverlib/udma.c ****     // passed as the ulChannelStructIndex parameter, extract just the channel
1006:/home/cuil/workspace/arm/lm3s811/TI_Stellaris/driverlib/udma.c ****     // index from this parameter.
1007:/home/cuil/workspace/arm/lm3s811/TI_Stellaris/driverlib/udma.c ****     //
1008:/home/cuil/workspace/arm/lm3s811/TI_Stellaris/driverlib/udma.c ****     ulChannelStructIndex &= 0x3f;
 9276              		.loc 1 1008 0
 9277 0008 7B68     		ldr	r3, [r7, #4]
 9278 000a 03F03F03 		and	r3, r3, #63
 9279 000e 7B60     		str	r3, [r7, #4]
1009:/home/cuil/workspace/arm/lm3s811/TI_Stellaris/driverlib/udma.c **** 
1010:/home/cuil/workspace/arm/lm3s811/TI_Stellaris/driverlib/udma.c ****     //
1011:/home/cuil/workspace/arm/lm3s811/TI_Stellaris/driverlib/udma.c ****     // Get the base address of the control table.
1012:/home/cuil/workspace/arm/lm3s811/TI_Stellaris/driverlib/udma.c ****     //
1013:/home/cuil/workspace/arm/lm3s811/TI_Stellaris/driverlib/udma.c ****     pControlTable = (tDMAControlTable *)HWREG(UDMA_CTLBASE);
 9280              		.loc 1 1013 0
 9281 0010 104B     		ldr	r3, .L80
 9282 0012 1B68     		ldr	r3, [r3, #0]
 9283 0014 BB60     		str	r3, [r7, #8]
1014:/home/cuil/workspace/arm/lm3s811/TI_Stellaris/driverlib/udma.c **** 
1015:/home/cuil/workspace/arm/lm3s811/TI_Stellaris/driverlib/udma.c ****     //
1016:/home/cuil/workspace/arm/lm3s811/TI_Stellaris/driverlib/udma.c ****     // Get the current control word value and mask off all but the mode field.
1017:/home/cuil/workspace/arm/lm3s811/TI_Stellaris/driverlib/udma.c ****     //
1018:/home/cuil/workspace/arm/lm3s811/TI_Stellaris/driverlib/udma.c ****     ulControl = (pControlTable[ulChannelStructIndex].ulControl &
 9284              		.loc 1 1018 0
 9285 0016 7B68     		ldr	r3, [r7, #4]
 9286 0018 4FEA0313 		lsl	r3, r3, #4
 9287 001c BA68     		ldr	r2, [r7, #8]
 9288 001e D318     		adds	r3, r2, r3
 9289 0020 9B68     		ldr	r3, [r3, #8]
 9290 0022 03F00703 		and	r3, r3, #7
 9291 0026 FB60     		str	r3, [r7, #12]
1019:/home/cuil/workspace/arm/lm3s811/TI_Stellaris/driverlib/udma.c ****                  UDMA_CHCTL_XFERMODE_M);
1020:/home/cuil/workspace/arm/lm3s811/TI_Stellaris/driverlib/udma.c **** 
1021:/home/cuil/workspace/arm/lm3s811/TI_Stellaris/driverlib/udma.c ****     //
1022:/home/cuil/workspace/arm/lm3s811/TI_Stellaris/driverlib/udma.c ****     // Check if scatter/gather mode, and if so, mask off the alt bit.
1023:/home/cuil/workspace/arm/lm3s811/TI_Stellaris/driverlib/udma.c ****     //
1024:/home/cuil/workspace/arm/lm3s811/TI_Stellaris/driverlib/udma.c ****     if(((ulControl & ~UDMA_MODE_ALT_SELECT) == UDMA_MODE_MEM_SCATTER_GATHER) ||
 9292              		.loc 1 1024 0
 9293 0028 FB68     		ldr	r3, [r7, #12]
 9294 002a 23F00103 		bic	r3, r3, #1
 9295 002e 042B     		cmp	r3, #4
 9296 0030 04D0     		beq	.L78
1025:/home/cuil/workspace/arm/lm3s811/TI_Stellaris/driverlib/udma.c ****        ((ulControl & ~UDMA_MODE_ALT_SELECT) == UDMA_MODE_PER_SCATTER_GATHER))
 9297              		.loc 1 1025 0 discriminator 1
 9298 0032 FB68     		ldr	r3, [r7, #12]
 9299 0034 23F00103 		bic	r3, r3, #1
1024:/home/cuil/workspace/arm/lm3s811/TI_Stellaris/driverlib/udma.c ****     if(((ulControl & ~UDMA_MODE_ALT_SELECT) == UDMA_MODE_MEM_SCATTER_GATHER) ||
 9300              		.loc 1 1024 0 discriminator 1
 9301 0038 062B     		cmp	r3, #6
 9302 003a 03D1     		bne	.L79
 9303              	.L78:
1026:/home/cuil/workspace/arm/lm3s811/TI_Stellaris/driverlib/udma.c ****     {
1027:/home/cuil/workspace/arm/lm3s811/TI_Stellaris/driverlib/udma.c ****         ulControl &= ~UDMA_MODE_ALT_SELECT;
 9304              		.loc 1 1027 0
 9305 003c FB68     		ldr	r3, [r7, #12]
 9306 003e 23F00103 		bic	r3, r3, #1
 9307 0042 FB60     		str	r3, [r7, #12]
 9308              	.L79:
1028:/home/cuil/workspace/arm/lm3s811/TI_Stellaris/driverlib/udma.c ****     }
1029:/home/cuil/workspace/arm/lm3s811/TI_Stellaris/driverlib/udma.c **** 
1030:/home/cuil/workspace/arm/lm3s811/TI_Stellaris/driverlib/udma.c ****     //
1031:/home/cuil/workspace/arm/lm3s811/TI_Stellaris/driverlib/udma.c ****     // Return the mode to the caller.
1032:/home/cuil/workspace/arm/lm3s811/TI_Stellaris/driverlib/udma.c ****     //
1033:/home/cuil/workspace/arm/lm3s811/TI_Stellaris/driverlib/udma.c ****     return(ulControl);
 9309              		.loc 1 1033 0
 9310 0044 FB68     		ldr	r3, [r7, #12]
1034:/home/cuil/workspace/arm/lm3s811/TI_Stellaris/driverlib/udma.c **** }
 9311              		.loc 1 1034 0
 9312 0046 1846     		mov	r0, r3
 9313 0048 07F11407 		add	r7, r7, #20
 9314 004c BD46     		mov	sp, r7
 9315 004e 80BC     		pop	{r7}
 9316 0050 7047     		bx	lr
 9317              	.L81:
 9318 0052 00BF     		.align	2
 9319              	.L80:
 9320 0054 08F00F40 		.word	1074786312
 9321              		.cfi_endproc
 9322              	.LFE18:
 9324              		.section	.text.uDMAChannelSelectSecondary,"ax",%progbits
 9325              		.align	2
 9326              		.global	uDMAChannelSelectSecondary
 9327              		.thumb
 9328              		.thumb_func
 9330              	uDMAChannelSelectSecondary:
 9331              	.LFB19:
1035:/home/cuil/workspace/arm/lm3s811/TI_Stellaris/driverlib/udma.c **** 
1036:/home/cuil/workspace/arm/lm3s811/TI_Stellaris/driverlib/udma.c **** //*****************************************************************************
1037:/home/cuil/workspace/arm/lm3s811/TI_Stellaris/driverlib/udma.c **** //
1038:/home/cuil/workspace/arm/lm3s811/TI_Stellaris/driverlib/udma.c **** //! Selects the secondary peripheral for a set of uDMA channels.
1039:/home/cuil/workspace/arm/lm3s811/TI_Stellaris/driverlib/udma.c **** //!
1040:/home/cuil/workspace/arm/lm3s811/TI_Stellaris/driverlib/udma.c **** //! \param ulSecPeriphs is the logical OR of the uDMA channels for which to use
1041:/home/cuil/workspace/arm/lm3s811/TI_Stellaris/driverlib/udma.c **** //! the secondary peripheral, instead of the default peripheral.
1042:/home/cuil/workspace/arm/lm3s811/TI_Stellaris/driverlib/udma.c **** //!
1043:/home/cuil/workspace/arm/lm3s811/TI_Stellaris/driverlib/udma.c **** //! This function is used to select the secondary peripheral assignment for a
1044:/home/cuil/workspace/arm/lm3s811/TI_Stellaris/driverlib/udma.c **** //! set of uDMA channels.  By selecting the secondary peripheral assignment for
1045:/home/cuil/workspace/arm/lm3s811/TI_Stellaris/driverlib/udma.c **** //! a channel, the default peripheral assignment is no longer available for
1046:/home/cuil/workspace/arm/lm3s811/TI_Stellaris/driverlib/udma.c **** //! that channel.
1047:/home/cuil/workspace/arm/lm3s811/TI_Stellaris/driverlib/udma.c **** //!
1048:/home/cuil/workspace/arm/lm3s811/TI_Stellaris/driverlib/udma.c **** //! The parameter \e ulSecPeriphs can be the logical OR of any of the following
1049:/home/cuil/workspace/arm/lm3s811/TI_Stellaris/driverlib/udma.c **** //! macros.  If one of the macros below is in the list passed to this function,
1050:/home/cuil/workspace/arm/lm3s811/TI_Stellaris/driverlib/udma.c **** //! then the secondary peripheral (marked as \b _SEC_) is selected.
1051:/home/cuil/workspace/arm/lm3s811/TI_Stellaris/driverlib/udma.c **** //!
1052:/home/cuil/workspace/arm/lm3s811/TI_Stellaris/driverlib/udma.c **** //! - \b UDMA_DEF_USBEP1RX_SEC_UART2RX
1053:/home/cuil/workspace/arm/lm3s811/TI_Stellaris/driverlib/udma.c **** //! - \b UDMA_DEF_USBEP1TX_SEC_UART2TX
1054:/home/cuil/workspace/arm/lm3s811/TI_Stellaris/driverlib/udma.c **** //! - \b UDMA_DEF_USBEP2RX_SEC_TMR3A
1055:/home/cuil/workspace/arm/lm3s811/TI_Stellaris/driverlib/udma.c **** //! - \b UDMA_DEF_USBEP2TX_SEC_TMR3B
1056:/home/cuil/workspace/arm/lm3s811/TI_Stellaris/driverlib/udma.c **** //! - \b UDMA_DEF_USBEP3RX_SEC_TMR2A
1057:/home/cuil/workspace/arm/lm3s811/TI_Stellaris/driverlib/udma.c **** //! - \b UDMA_DEF_USBEP3TX_SEC_TMR2B
1058:/home/cuil/workspace/arm/lm3s811/TI_Stellaris/driverlib/udma.c **** //! - \b UDMA_DEF_ETH0RX_SEC_TMR2A
1059:/home/cuil/workspace/arm/lm3s811/TI_Stellaris/driverlib/udma.c **** //! - \b UDMA_DEF_ETH0TX_SEC_TMR2B
1060:/home/cuil/workspace/arm/lm3s811/TI_Stellaris/driverlib/udma.c **** //! - \b UDMA_DEF_UART0RX_SEC_UART1RX
1061:/home/cuil/workspace/arm/lm3s811/TI_Stellaris/driverlib/udma.c **** //! - \b UDMA_DEF_UART0TX_SEC_UART1TX
1062:/home/cuil/workspace/arm/lm3s811/TI_Stellaris/driverlib/udma.c **** //! - \b UDMA_DEF_SSI0RX_SEC_SSI1RX
1063:/home/cuil/workspace/arm/lm3s811/TI_Stellaris/driverlib/udma.c **** //! - \b UDMA_DEF_SSI0TX_SEC_SSI1TX
1064:/home/cuil/workspace/arm/lm3s811/TI_Stellaris/driverlib/udma.c **** //! - \b UDMA_DEF_RESERVED_SEC_UART2RX
1065:/home/cuil/workspace/arm/lm3s811/TI_Stellaris/driverlib/udma.c **** //! - \b UDMA_DEF_RESERVED_SEC_UART2TX
1066:/home/cuil/workspace/arm/lm3s811/TI_Stellaris/driverlib/udma.c **** //! - \b UDMA_DEF_ADC00_SEC_TMR2A
1067:/home/cuil/workspace/arm/lm3s811/TI_Stellaris/driverlib/udma.c **** //! - \b UDMA_DEF_ADC01_SEC_TMR2B
1068:/home/cuil/workspace/arm/lm3s811/TI_Stellaris/driverlib/udma.c **** //! - \b UDMA_DEF_ADC02_SEC_RESERVED
1069:/home/cuil/workspace/arm/lm3s811/TI_Stellaris/driverlib/udma.c **** //! - \b UDMA_DEF_ADC03_SEC_RESERVED
1070:/home/cuil/workspace/arm/lm3s811/TI_Stellaris/driverlib/udma.c **** //! - \b UDMA_DEF_TMR0A_SEC_TMR1A
1071:/home/cuil/workspace/arm/lm3s811/TI_Stellaris/driverlib/udma.c **** //! - \b UDMA_DEF_TMR0B_SEC_TMR1B
1072:/home/cuil/workspace/arm/lm3s811/TI_Stellaris/driverlib/udma.c **** //! - \b UDMA_DEF_TMR1A_SEC_EPI0RX
1073:/home/cuil/workspace/arm/lm3s811/TI_Stellaris/driverlib/udma.c **** //! - \b UDMA_DEF_TMR1B_SEC_EPI0TX
1074:/home/cuil/workspace/arm/lm3s811/TI_Stellaris/driverlib/udma.c **** //! - \b UDMA_DEF_UART1RX_SEC_RESERVED
1075:/home/cuil/workspace/arm/lm3s811/TI_Stellaris/driverlib/udma.c **** //! - \b UDMA_DEF_UART1TX_SEC_RESERVED
1076:/home/cuil/workspace/arm/lm3s811/TI_Stellaris/driverlib/udma.c **** //! - \b UDMA_DEF_SSI1RX_SEC_ADC10
1077:/home/cuil/workspace/arm/lm3s811/TI_Stellaris/driverlib/udma.c **** //! - \b UDMA_DEF_SSI1TX_SEC_ADC11
1078:/home/cuil/workspace/arm/lm3s811/TI_Stellaris/driverlib/udma.c **** //! - \b UDMA_DEF_RESERVED_SEC_ADC12
1079:/home/cuil/workspace/arm/lm3s811/TI_Stellaris/driverlib/udma.c **** //! - \b UDMA_DEF_RESERVED_SEC_ADC13
1080:/home/cuil/workspace/arm/lm3s811/TI_Stellaris/driverlib/udma.c **** //! - \b UDMA_DEF_I2S0RX_SEC_RESERVED
1081:/home/cuil/workspace/arm/lm3s811/TI_Stellaris/driverlib/udma.c **** //! - \b UDMA_DEF_I2S0TX_SEC_RESERVED
1082:/home/cuil/workspace/arm/lm3s811/TI_Stellaris/driverlib/udma.c **** //!
1083:/home/cuil/workspace/arm/lm3s811/TI_Stellaris/driverlib/udma.c **** //! \return None.
1084:/home/cuil/workspace/arm/lm3s811/TI_Stellaris/driverlib/udma.c **** //
1085:/home/cuil/workspace/arm/lm3s811/TI_Stellaris/driverlib/udma.c **** //*****************************************************************************
1086:/home/cuil/workspace/arm/lm3s811/TI_Stellaris/driverlib/udma.c **** void
1087:/home/cuil/workspace/arm/lm3s811/TI_Stellaris/driverlib/udma.c **** uDMAChannelSelectSecondary(unsigned long ulSecPeriphs)
1088:/home/cuil/workspace/arm/lm3s811/TI_Stellaris/driverlib/udma.c **** {
 9332              		.loc 1 1088 0
 9333              		.cfi_startproc
 9334              		@ args = 0, pretend = 0, frame = 8
 9335              		@ frame_needed = 1, uses_anonymous_args = 0
 9336              		@ link register save eliminated.
 9337 0000 80B4     		push	{r7}
 9338              	.LCFI51:
 9339              		.cfi_def_cfa_offset 4
 9340 0002 83B0     		sub	sp, sp, #12
 9341              	.LCFI52:
 9342              		.cfi_def_cfa_offset 16
 9343 0004 00AF     		add	r7, sp, #0
 9344              		.cfi_offset 7, -4
 9345              	.LCFI53:
 9346              		.cfi_def_cfa_register 7
 9347 0006 7860     		str	r0, [r7, #4]
1089:/home/cuil/workspace/arm/lm3s811/TI_Stellaris/driverlib/udma.c ****     //
1090:/home/cuil/workspace/arm/lm3s811/TI_Stellaris/driverlib/udma.c ****     // Select the secondary peripheral for the specified channels.
1091:/home/cuil/workspace/arm/lm3s811/TI_Stellaris/driverlib/udma.c ****     //
1092:/home/cuil/workspace/arm/lm3s811/TI_Stellaris/driverlib/udma.c ****     HWREG(UDMA_CHASGN) |= ulSecPeriphs;
 9348              		.loc 1 1092 0
 9349 0008 054B     		ldr	r3, .L83
 9350 000a 054A     		ldr	r2, .L83
 9351 000c 1168     		ldr	r1, [r2, #0]
 9352 000e 7A68     		ldr	r2, [r7, #4]
 9353 0010 41EA0202 		orr	r2, r1, r2
 9354 0014 1A60     		str	r2, [r3, #0]
1093:/home/cuil/workspace/arm/lm3s811/TI_Stellaris/driverlib/udma.c **** }
 9355              		.loc 1 1093 0
 9356 0016 07F10C07 		add	r7, r7, #12
 9357 001a BD46     		mov	sp, r7
 9358 001c 80BC     		pop	{r7}
 9359 001e 7047     		bx	lr
 9360              	.L84:
 9361              		.align	2
 9362              	.L83:
 9363 0020 00F50F40 		.word	1074787584
 9364              		.cfi_endproc
 9365              	.LFE19:
 9367              		.section	.text.uDMAChannelSelectDefault,"ax",%progbits
 9368              		.align	2
 9369              		.global	uDMAChannelSelectDefault
 9370              		.thumb
 9371              		.thumb_func
 9373              	uDMAChannelSelectDefault:
 9374              	.LFB20:
1094:/home/cuil/workspace/arm/lm3s811/TI_Stellaris/driverlib/udma.c **** 
1095:/home/cuil/workspace/arm/lm3s811/TI_Stellaris/driverlib/udma.c **** //*****************************************************************************
1096:/home/cuil/workspace/arm/lm3s811/TI_Stellaris/driverlib/udma.c **** //
1097:/home/cuil/workspace/arm/lm3s811/TI_Stellaris/driverlib/udma.c **** //! Selects the default peripheral for a set of uDMA channels.
1098:/home/cuil/workspace/arm/lm3s811/TI_Stellaris/driverlib/udma.c **** //!
1099:/home/cuil/workspace/arm/lm3s811/TI_Stellaris/driverlib/udma.c **** //! \param ulDefPeriphs is the logical OR of the uDMA channels for which to use
1100:/home/cuil/workspace/arm/lm3s811/TI_Stellaris/driverlib/udma.c **** //! the default peripheral, instead of the secondary peripheral.
1101:/home/cuil/workspace/arm/lm3s811/TI_Stellaris/driverlib/udma.c **** //!
1102:/home/cuil/workspace/arm/lm3s811/TI_Stellaris/driverlib/udma.c **** //! This function is used to select the default peripheral assignment for a set
1103:/home/cuil/workspace/arm/lm3s811/TI_Stellaris/driverlib/udma.c **** //! of uDMA channels.
1104:/home/cuil/workspace/arm/lm3s811/TI_Stellaris/driverlib/udma.c **** //!
1105:/home/cuil/workspace/arm/lm3s811/TI_Stellaris/driverlib/udma.c **** //! The parameter \e ulDefPeriphs can be the logical OR of any of the following
1106:/home/cuil/workspace/arm/lm3s811/TI_Stellaris/driverlib/udma.c **** //! macros.  If one of the macros below is in the list passed to this function,
1107:/home/cuil/workspace/arm/lm3s811/TI_Stellaris/driverlib/udma.c **** //! then the default peripheral (marked as \b _DEF_) is selected.
1108:/home/cuil/workspace/arm/lm3s811/TI_Stellaris/driverlib/udma.c **** //!
1109:/home/cuil/workspace/arm/lm3s811/TI_Stellaris/driverlib/udma.c **** //! - \b UDMA_DEF_USBEP1RX_SEC_UART2RX
1110:/home/cuil/workspace/arm/lm3s811/TI_Stellaris/driverlib/udma.c **** //! - \b UDMA_DEF_USBEP1TX_SEC_UART2TX
1111:/home/cuil/workspace/arm/lm3s811/TI_Stellaris/driverlib/udma.c **** //! - \b UDMA_DEF_USBEP2RX_SEC_TMR3A
1112:/home/cuil/workspace/arm/lm3s811/TI_Stellaris/driverlib/udma.c **** //! - \b UDMA_DEF_USBEP2TX_SEC_TMR3B
1113:/home/cuil/workspace/arm/lm3s811/TI_Stellaris/driverlib/udma.c **** //! - \b UDMA_DEF_USBEP3RX_SEC_TMR2A
1114:/home/cuil/workspace/arm/lm3s811/TI_Stellaris/driverlib/udma.c **** //! - \b UDMA_DEF_USBEP3TX_SEC_TMR2B
1115:/home/cuil/workspace/arm/lm3s811/TI_Stellaris/driverlib/udma.c **** //! - \b UDMA_DEF_ETH0RX_SEC_TMR2A
1116:/home/cuil/workspace/arm/lm3s811/TI_Stellaris/driverlib/udma.c **** //! - \b UDMA_DEF_ETH0TX_SEC_TMR2B
1117:/home/cuil/workspace/arm/lm3s811/TI_Stellaris/driverlib/udma.c **** //! - \b UDMA_DEF_UART0RX_SEC_UART1RX
1118:/home/cuil/workspace/arm/lm3s811/TI_Stellaris/driverlib/udma.c **** //! - \b UDMA_DEF_UART0TX_SEC_UART1TX
1119:/home/cuil/workspace/arm/lm3s811/TI_Stellaris/driverlib/udma.c **** //! - \b UDMA_DEF_SSI0RX_SEC_SSI1RX
1120:/home/cuil/workspace/arm/lm3s811/TI_Stellaris/driverlib/udma.c **** //! - \b UDMA_DEF_SSI0TX_SEC_SSI1TX
1121:/home/cuil/workspace/arm/lm3s811/TI_Stellaris/driverlib/udma.c **** //! - \b UDMA_DEF_RESERVED_SEC_UART2RX
1122:/home/cuil/workspace/arm/lm3s811/TI_Stellaris/driverlib/udma.c **** //! - \b UDMA_DEF_RESERVED_SEC_UART2TX
1123:/home/cuil/workspace/arm/lm3s811/TI_Stellaris/driverlib/udma.c **** //! - \b UDMA_DEF_ADC00_SEC_TMR2A
1124:/home/cuil/workspace/arm/lm3s811/TI_Stellaris/driverlib/udma.c **** //! - \b UDMA_DEF_ADC01_SEC_TMR2B
1125:/home/cuil/workspace/arm/lm3s811/TI_Stellaris/driverlib/udma.c **** //! - \b UDMA_DEF_ADC02_SEC_RESERVED
1126:/home/cuil/workspace/arm/lm3s811/TI_Stellaris/driverlib/udma.c **** //! - \b UDMA_DEF_ADC03_SEC_RESERVED
1127:/home/cuil/workspace/arm/lm3s811/TI_Stellaris/driverlib/udma.c **** //! - \b UDMA_DEF_TMR0A_SEC_TMR1A
1128:/home/cuil/workspace/arm/lm3s811/TI_Stellaris/driverlib/udma.c **** //! - \b UDMA_DEF_TMR0B_SEC_TMR1B
1129:/home/cuil/workspace/arm/lm3s811/TI_Stellaris/driverlib/udma.c **** //! - \b UDMA_DEF_TMR1A_SEC_EPI0RX
1130:/home/cuil/workspace/arm/lm3s811/TI_Stellaris/driverlib/udma.c **** //! - \b UDMA_DEF_TMR1B_SEC_EPI0TX
1131:/home/cuil/workspace/arm/lm3s811/TI_Stellaris/driverlib/udma.c **** //! - \b UDMA_DEF_UART1RX_SEC_RESERVED
1132:/home/cuil/workspace/arm/lm3s811/TI_Stellaris/driverlib/udma.c **** //! - \b UDMA_DEF_UART1TX_SEC_RESERVED
1133:/home/cuil/workspace/arm/lm3s811/TI_Stellaris/driverlib/udma.c **** //! - \b UDMA_DEF_SSI1RX_SEC_ADC10
1134:/home/cuil/workspace/arm/lm3s811/TI_Stellaris/driverlib/udma.c **** //! - \b UDMA_DEF_SSI1TX_SEC_ADC11
1135:/home/cuil/workspace/arm/lm3s811/TI_Stellaris/driverlib/udma.c **** //! - \b UDMA_DEF_RESERVED_SEC_ADC12
1136:/home/cuil/workspace/arm/lm3s811/TI_Stellaris/driverlib/udma.c **** //! - \b UDMA_DEF_RESERVED_SEC_ADC13
1137:/home/cuil/workspace/arm/lm3s811/TI_Stellaris/driverlib/udma.c **** //! - \b UDMA_DEF_I2S0RX_SEC_RESERVED
1138:/home/cuil/workspace/arm/lm3s811/TI_Stellaris/driverlib/udma.c **** //! - \b UDMA_DEF_I2S0TX_SEC_RESERVED
1139:/home/cuil/workspace/arm/lm3s811/TI_Stellaris/driverlib/udma.c **** //!
1140:/home/cuil/workspace/arm/lm3s811/TI_Stellaris/driverlib/udma.c **** //! \return None.
1141:/home/cuil/workspace/arm/lm3s811/TI_Stellaris/driverlib/udma.c **** //
1142:/home/cuil/workspace/arm/lm3s811/TI_Stellaris/driverlib/udma.c **** //*****************************************************************************
1143:/home/cuil/workspace/arm/lm3s811/TI_Stellaris/driverlib/udma.c **** void
1144:/home/cuil/workspace/arm/lm3s811/TI_Stellaris/driverlib/udma.c **** uDMAChannelSelectDefault(unsigned long ulDefPeriphs)
1145:/home/cuil/workspace/arm/lm3s811/TI_Stellaris/driverlib/udma.c **** {
 9375              		.loc 1 1145 0
 9376              		.cfi_startproc
 9377              		@ args = 0, pretend = 0, frame = 8
 9378              		@ frame_needed = 1, uses_anonymous_args = 0
 9379              		@ link register save eliminated.
 9380 0000 80B4     		push	{r7}
 9381              	.LCFI54:
 9382              		.cfi_def_cfa_offset 4
 9383 0002 83B0     		sub	sp, sp, #12
 9384              	.LCFI55:
 9385              		.cfi_def_cfa_offset 16
 9386 0004 00AF     		add	r7, sp, #0
 9387              		.cfi_offset 7, -4
 9388              	.LCFI56:
 9389              		.cfi_def_cfa_register 7
 9390 0006 7860     		str	r0, [r7, #4]
1146:/home/cuil/workspace/arm/lm3s811/TI_Stellaris/driverlib/udma.c ****     //
1147:/home/cuil/workspace/arm/lm3s811/TI_Stellaris/driverlib/udma.c ****     // Select the default peripheral for the specified channels.
1148:/home/cuil/workspace/arm/lm3s811/TI_Stellaris/driverlib/udma.c ****     //
1149:/home/cuil/workspace/arm/lm3s811/TI_Stellaris/driverlib/udma.c ****     HWREG(UDMA_CHASGN) &= ~ulDefPeriphs;
 9391              		.loc 1 1149 0
 9392 0008 064B     		ldr	r3, .L86
 9393 000a 064A     		ldr	r2, .L86
 9394 000c 1168     		ldr	r1, [r2, #0]
 9395 000e 7A68     		ldr	r2, [r7, #4]
 9396 0010 6FEA0202 		mvn	r2, r2
 9397 0014 01EA0202 		and	r2, r1, r2
 9398 0018 1A60     		str	r2, [r3, #0]
1150:/home/cuil/workspace/arm/lm3s811/TI_Stellaris/driverlib/udma.c **** }
 9399              		.loc 1 1150 0
 9400 001a 07F10C07 		add	r7, r7, #12
 9401 001e BD46     		mov	sp, r7
 9402 0020 80BC     		pop	{r7}
 9403 0022 7047     		bx	lr
 9404              	.L87:
 9405              		.align	2
 9406              	.L86:
 9407 0024 00F50F40 		.word	1074787584
 9408              		.cfi_endproc
 9409              	.LFE20:
 9411              		.section	.text.uDMAIntRegister,"ax",%progbits
 9412              		.align	2
 9413              		.global	uDMAIntRegister
 9414              		.thumb
 9415              		.thumb_func
 9417              	uDMAIntRegister:
 9418              	.LFB21:
1151:/home/cuil/workspace/arm/lm3s811/TI_Stellaris/driverlib/udma.c **** 
1152:/home/cuil/workspace/arm/lm3s811/TI_Stellaris/driverlib/udma.c **** //*****************************************************************************
1153:/home/cuil/workspace/arm/lm3s811/TI_Stellaris/driverlib/udma.c **** //
1154:/home/cuil/workspace/arm/lm3s811/TI_Stellaris/driverlib/udma.c **** //! Registers an interrupt handler for the uDMA controller.
1155:/home/cuil/workspace/arm/lm3s811/TI_Stellaris/driverlib/udma.c **** //!
1156:/home/cuil/workspace/arm/lm3s811/TI_Stellaris/driverlib/udma.c **** //! \param ulIntChannel identifies which uDMA interrupt is to be registered.
1157:/home/cuil/workspace/arm/lm3s811/TI_Stellaris/driverlib/udma.c **** //! \param pfnHandler is a pointer to the function to be called when the
1158:/home/cuil/workspace/arm/lm3s811/TI_Stellaris/driverlib/udma.c **** //! interrupt is activated.
1159:/home/cuil/workspace/arm/lm3s811/TI_Stellaris/driverlib/udma.c **** //!
1160:/home/cuil/workspace/arm/lm3s811/TI_Stellaris/driverlib/udma.c **** //! This function registers and enables the handler to be called when the uDMA 
1161:/home/cuil/workspace/arm/lm3s811/TI_Stellaris/driverlib/udma.c **** //! controller generates an interrupt.  The \e ulIntChannel parameter should be 
1162:/home/cuil/workspace/arm/lm3s811/TI_Stellaris/driverlib/udma.c **** //! one of the following:
1163:/home/cuil/workspace/arm/lm3s811/TI_Stellaris/driverlib/udma.c **** //!
1164:/home/cuil/workspace/arm/lm3s811/TI_Stellaris/driverlib/udma.c **** //! - \b UDMA_INT_SW to register an interrupt handler to process interrupts
1165:/home/cuil/workspace/arm/lm3s811/TI_Stellaris/driverlib/udma.c **** //!   from the uDMA software channel (UDMA_CHANNEL_SW)
1166:/home/cuil/workspace/arm/lm3s811/TI_Stellaris/driverlib/udma.c **** //! - \b UDMA_INT_ERR to register an interrupt handler to process uDMA error
1167:/home/cuil/workspace/arm/lm3s811/TI_Stellaris/driverlib/udma.c **** //!   interrupts
1168:/home/cuil/workspace/arm/lm3s811/TI_Stellaris/driverlib/udma.c **** //!
1169:/home/cuil/workspace/arm/lm3s811/TI_Stellaris/driverlib/udma.c **** //! \sa IntRegister() for important information about registering interrupt
1170:/home/cuil/workspace/arm/lm3s811/TI_Stellaris/driverlib/udma.c **** //! handlers.
1171:/home/cuil/workspace/arm/lm3s811/TI_Stellaris/driverlib/udma.c **** //!
1172:/home/cuil/workspace/arm/lm3s811/TI_Stellaris/driverlib/udma.c **** //! \note The interrupt handler for the uDMA is for transfer completion when 
1173:/home/cuil/workspace/arm/lm3s811/TI_Stellaris/driverlib/udma.c **** //! the channel UDMA_CHANNEL_SW is used and for error interrupts.  The
1174:/home/cuil/workspace/arm/lm3s811/TI_Stellaris/driverlib/udma.c **** //! interrupts for each peripheral channel are handled through the individual
1175:/home/cuil/workspace/arm/lm3s811/TI_Stellaris/driverlib/udma.c **** //! peripheral interrupt handlers.
1176:/home/cuil/workspace/arm/lm3s811/TI_Stellaris/driverlib/udma.c **** //!
1177:/home/cuil/workspace/arm/lm3s811/TI_Stellaris/driverlib/udma.c **** //! \return None.
1178:/home/cuil/workspace/arm/lm3s811/TI_Stellaris/driverlib/udma.c **** //
1179:/home/cuil/workspace/arm/lm3s811/TI_Stellaris/driverlib/udma.c **** //*****************************************************************************
1180:/home/cuil/workspace/arm/lm3s811/TI_Stellaris/driverlib/udma.c **** void
1181:/home/cuil/workspace/arm/lm3s811/TI_Stellaris/driverlib/udma.c **** uDMAIntRegister(unsigned long ulIntChannel, void (*pfnHandler)(void))
1182:/home/cuil/workspace/arm/lm3s811/TI_Stellaris/driverlib/udma.c **** {
 9419              		.loc 1 1182 0
 9420              		.cfi_startproc
 9421              		@ args = 0, pretend = 0, frame = 8
 9422              		@ frame_needed = 1, uses_anonymous_args = 0
 9423 0000 80B5     		push	{r7, lr}
 9424              	.LCFI57:
 9425              		.cfi_def_cfa_offset 8
 9426 0002 82B0     		sub	sp, sp, #8
 9427              	.LCFI58:
 9428              		.cfi_def_cfa_offset 16
 9429 0004 00AF     		add	r7, sp, #0
 9430              		.cfi_offset 14, -4
 9431              		.cfi_offset 7, -8
 9432              	.LCFI59:
 9433              		.cfi_def_cfa_register 7
 9434 0006 7860     		str	r0, [r7, #4]
 9435 0008 3960     		str	r1, [r7, #0]
1183:/home/cuil/workspace/arm/lm3s811/TI_Stellaris/driverlib/udma.c ****     //
1184:/home/cuil/workspace/arm/lm3s811/TI_Stellaris/driverlib/udma.c ****     // Check the arguments.
1185:/home/cuil/workspace/arm/lm3s811/TI_Stellaris/driverlib/udma.c ****     //
1186:/home/cuil/workspace/arm/lm3s811/TI_Stellaris/driverlib/udma.c ****     ASSERT(pfnHandler);
1187:/home/cuil/workspace/arm/lm3s811/TI_Stellaris/driverlib/udma.c ****     ASSERT((ulIntChannel == UDMA_INT_SW) || (ulIntChannel == UDMA_INT_ERR));
1188:/home/cuil/workspace/arm/lm3s811/TI_Stellaris/driverlib/udma.c **** 
1189:/home/cuil/workspace/arm/lm3s811/TI_Stellaris/driverlib/udma.c ****     //
1190:/home/cuil/workspace/arm/lm3s811/TI_Stellaris/driverlib/udma.c ****     // Register the interrupt handler.
1191:/home/cuil/workspace/arm/lm3s811/TI_Stellaris/driverlib/udma.c ****     //
1192:/home/cuil/workspace/arm/lm3s811/TI_Stellaris/driverlib/udma.c ****     IntRegister(ulIntChannel, pfnHandler);
 9436              		.loc 1 1192 0
 9437 000a 7868     		ldr	r0, [r7, #4]
 9438 000c 3968     		ldr	r1, [r7, #0]
 9439 000e FFF7FEFF 		bl	IntRegister
1193:/home/cuil/workspace/arm/lm3s811/TI_Stellaris/driverlib/udma.c **** 
1194:/home/cuil/workspace/arm/lm3s811/TI_Stellaris/driverlib/udma.c ****     //
1195:/home/cuil/workspace/arm/lm3s811/TI_Stellaris/driverlib/udma.c ****     // Enable the memory management fault.
1196:/home/cuil/workspace/arm/lm3s811/TI_Stellaris/driverlib/udma.c ****     //
1197:/home/cuil/workspace/arm/lm3s811/TI_Stellaris/driverlib/udma.c ****     IntEnable(ulIntChannel);
 9440              		.loc 1 1197 0
 9441 0012 7868     		ldr	r0, [r7, #4]
 9442 0014 FFF7FEFF 		bl	IntEnable
1198:/home/cuil/workspace/arm/lm3s811/TI_Stellaris/driverlib/udma.c **** }
 9443              		.loc 1 1198 0
 9444 0018 07F10807 		add	r7, r7, #8
 9445 001c BD46     		mov	sp, r7
 9446 001e 80BD     		pop	{r7, pc}
 9447              		.cfi_endproc
 9448              	.LFE21:
 9450              		.section	.text.uDMAIntUnregister,"ax",%progbits
 9451              		.align	2
 9452              		.global	uDMAIntUnregister
 9453              		.thumb
 9454              		.thumb_func
 9456              	uDMAIntUnregister:
 9457              	.LFB22:
1199:/home/cuil/workspace/arm/lm3s811/TI_Stellaris/driverlib/udma.c **** 
1200:/home/cuil/workspace/arm/lm3s811/TI_Stellaris/driverlib/udma.c **** //*****************************************************************************
1201:/home/cuil/workspace/arm/lm3s811/TI_Stellaris/driverlib/udma.c **** //
1202:/home/cuil/workspace/arm/lm3s811/TI_Stellaris/driverlib/udma.c **** //! Unregisters an interrupt handler for the uDMA controller.
1203:/home/cuil/workspace/arm/lm3s811/TI_Stellaris/driverlib/udma.c **** //!
1204:/home/cuil/workspace/arm/lm3s811/TI_Stellaris/driverlib/udma.c **** //! \param ulIntChannel identifies which uDMA interrupt to unregister.
1205:/home/cuil/workspace/arm/lm3s811/TI_Stellaris/driverlib/udma.c **** //!
1206:/home/cuil/workspace/arm/lm3s811/TI_Stellaris/driverlib/udma.c **** //! This function disables and unregisters the handler to be called for the
1207:/home/cuil/workspace/arm/lm3s811/TI_Stellaris/driverlib/udma.c **** //! specified uDMA interrupt.  The \e ulIntChannel parameter should be one of
1208:/home/cuil/workspace/arm/lm3s811/TI_Stellaris/driverlib/udma.c **** //! \b UDMA_INT_SW or \b UDMA_INT_ERR as documented for the function
1209:/home/cuil/workspace/arm/lm3s811/TI_Stellaris/driverlib/udma.c **** //! uDMAIntRegister().
1210:/home/cuil/workspace/arm/lm3s811/TI_Stellaris/driverlib/udma.c **** //!
1211:/home/cuil/workspace/arm/lm3s811/TI_Stellaris/driverlib/udma.c **** //! \sa IntRegister() for important information about registering interrupt
1212:/home/cuil/workspace/arm/lm3s811/TI_Stellaris/driverlib/udma.c **** //! handlers.
1213:/home/cuil/workspace/arm/lm3s811/TI_Stellaris/driverlib/udma.c **** //!
1214:/home/cuil/workspace/arm/lm3s811/TI_Stellaris/driverlib/udma.c **** //! \return None.
1215:/home/cuil/workspace/arm/lm3s811/TI_Stellaris/driverlib/udma.c **** //
1216:/home/cuil/workspace/arm/lm3s811/TI_Stellaris/driverlib/udma.c **** //*****************************************************************************
1217:/home/cuil/workspace/arm/lm3s811/TI_Stellaris/driverlib/udma.c **** void
1218:/home/cuil/workspace/arm/lm3s811/TI_Stellaris/driverlib/udma.c **** uDMAIntUnregister(unsigned long ulIntChannel)
1219:/home/cuil/workspace/arm/lm3s811/TI_Stellaris/driverlib/udma.c **** {
 9458              		.loc 1 1219 0
 9459              		.cfi_startproc
 9460              		@ args = 0, pretend = 0, frame = 8
 9461              		@ frame_needed = 1, uses_anonymous_args = 0
 9462 0000 80B5     		push	{r7, lr}
 9463              	.LCFI60:
 9464              		.cfi_def_cfa_offset 8
 9465 0002 82B0     		sub	sp, sp, #8
 9466              	.LCFI61:
 9467              		.cfi_def_cfa_offset 16
 9468 0004 00AF     		add	r7, sp, #0
 9469              		.cfi_offset 14, -4
 9470              		.cfi_offset 7, -8
 9471              	.LCFI62:
 9472              		.cfi_def_cfa_register 7
 9473 0006 7860     		str	r0, [r7, #4]
1220:/home/cuil/workspace/arm/lm3s811/TI_Stellaris/driverlib/udma.c ****     //
1221:/home/cuil/workspace/arm/lm3s811/TI_Stellaris/driverlib/udma.c ****     // Disable the interrupt.
1222:/home/cuil/workspace/arm/lm3s811/TI_Stellaris/driverlib/udma.c ****     //
1223:/home/cuil/workspace/arm/lm3s811/TI_Stellaris/driverlib/udma.c ****     IntDisable(ulIntChannel);
 9474              		.loc 1 1223 0
 9475 0008 7868     		ldr	r0, [r7, #4]
 9476 000a FFF7FEFF 		bl	IntDisable
1224:/home/cuil/workspace/arm/lm3s811/TI_Stellaris/driverlib/udma.c **** 
1225:/home/cuil/workspace/arm/lm3s811/TI_Stellaris/driverlib/udma.c ****     //
1226:/home/cuil/workspace/arm/lm3s811/TI_Stellaris/driverlib/udma.c ****     // Unregister the interrupt handler.
1227:/home/cuil/workspace/arm/lm3s811/TI_Stellaris/driverlib/udma.c ****     //
1228:/home/cuil/workspace/arm/lm3s811/TI_Stellaris/driverlib/udma.c ****     IntUnregister(ulIntChannel);
 9477              		.loc 1 1228 0
 9478 000e 7868     		ldr	r0, [r7, #4]
 9479 0010 FFF7FEFF 		bl	IntUnregister
1229:/home/cuil/workspace/arm/lm3s811/TI_Stellaris/driverlib/udma.c **** }
 9480              		.loc 1 1229 0
 9481 0014 07F10807 		add	r7, r7, #8
 9482 0018 BD46     		mov	sp, r7
 9483 001a 80BD     		pop	{r7, pc}
 9484              		.cfi_endproc
 9485              	.LFE22:
 9487              		.section	.text.uDMAIntStatus,"ax",%progbits
 9488              		.align	2
 9489              		.global	uDMAIntStatus
 9490              		.thumb
 9491              		.thumb_func
 9493              	uDMAIntStatus:
 9494              	.LFB23:
1230:/home/cuil/workspace/arm/lm3s811/TI_Stellaris/driverlib/udma.c **** 
1231:/home/cuil/workspace/arm/lm3s811/TI_Stellaris/driverlib/udma.c **** //*****************************************************************************
1232:/home/cuil/workspace/arm/lm3s811/TI_Stellaris/driverlib/udma.c **** //
1233:/home/cuil/workspace/arm/lm3s811/TI_Stellaris/driverlib/udma.c **** //! Gets the uDMA controller channel interrupt status.
1234:/home/cuil/workspace/arm/lm3s811/TI_Stellaris/driverlib/udma.c **** //!
1235:/home/cuil/workspace/arm/lm3s811/TI_Stellaris/driverlib/udma.c **** //! This function is used to get the interrupt status of the uDMA controller.
1236:/home/cuil/workspace/arm/lm3s811/TI_Stellaris/driverlib/udma.c **** //! The returned value is a 32-bit bit mask that indicates which channels are
1237:/home/cuil/workspace/arm/lm3s811/TI_Stellaris/driverlib/udma.c **** //! requesting an interrupt.  This function can be used from within an
1238:/home/cuil/workspace/arm/lm3s811/TI_Stellaris/driverlib/udma.c **** //! interrupt handler to determine or confirm which uDMA channel has requested
1239:/home/cuil/workspace/arm/lm3s811/TI_Stellaris/driverlib/udma.c **** //! an interrupt.
1240:/home/cuil/workspace/arm/lm3s811/TI_Stellaris/driverlib/udma.c **** //!
1241:/home/cuil/workspace/arm/lm3s811/TI_Stellaris/driverlib/udma.c **** //! \note This function is only available on devices that have the DMA Channel
1242:/home/cuil/workspace/arm/lm3s811/TI_Stellaris/driverlib/udma.c **** //! Interrupt Status Register (DMACHIS).  Please consult the data sheet for
1243:/home/cuil/workspace/arm/lm3s811/TI_Stellaris/driverlib/udma.c **** //! your part.
1244:/home/cuil/workspace/arm/lm3s811/TI_Stellaris/driverlib/udma.c **** //!
1245:/home/cuil/workspace/arm/lm3s811/TI_Stellaris/driverlib/udma.c **** //! \return Returns a 32-bit mask which indicates requesting uDMA channels.
1246:/home/cuil/workspace/arm/lm3s811/TI_Stellaris/driverlib/udma.c **** //! There is a bit for each channel and a 1 indicates that the channel
1247:/home/cuil/workspace/arm/lm3s811/TI_Stellaris/driverlib/udma.c **** //! is requesting an interrupt.  Multiple bits can be set.
1248:/home/cuil/workspace/arm/lm3s811/TI_Stellaris/driverlib/udma.c **** //
1249:/home/cuil/workspace/arm/lm3s811/TI_Stellaris/driverlib/udma.c **** //*****************************************************************************
1250:/home/cuil/workspace/arm/lm3s811/TI_Stellaris/driverlib/udma.c **** unsigned long
1251:/home/cuil/workspace/arm/lm3s811/TI_Stellaris/driverlib/udma.c **** uDMAIntStatus(void)
1252:/home/cuil/workspace/arm/lm3s811/TI_Stellaris/driverlib/udma.c **** {
 9495              		.loc 1 1252 0
 9496              		.cfi_startproc
 9497              		@ args = 0, pretend = 0, frame = 0
 9498              		@ frame_needed = 1, uses_anonymous_args = 0
 9499              		@ link register save eliminated.
 9500 0000 80B4     		push	{r7}
 9501              	.LCFI63:
 9502              		.cfi_def_cfa_offset 4
 9503 0002 00AF     		add	r7, sp, #0
 9504              		.cfi_offset 7, -4
 9505              	.LCFI64:
 9506              		.cfi_def_cfa_register 7
1253:/home/cuil/workspace/arm/lm3s811/TI_Stellaris/driverlib/udma.c ****     //
1254:/home/cuil/workspace/arm/lm3s811/TI_Stellaris/driverlib/udma.c ****     // Check feature availability
1255:/home/cuil/workspace/arm/lm3s811/TI_Stellaris/driverlib/udma.c ****     //
1256:/home/cuil/workspace/arm/lm3s811/TI_Stellaris/driverlib/udma.c ****     ASSERT(!CLASS_IS_SANDSTORM);
1257:/home/cuil/workspace/arm/lm3s811/TI_Stellaris/driverlib/udma.c ****     ASSERT(!CLASS_IS_FURY);
1258:/home/cuil/workspace/arm/lm3s811/TI_Stellaris/driverlib/udma.c ****     ASSERT(!CLASS_IS_DUSTDEVIL);
1259:/home/cuil/workspace/arm/lm3s811/TI_Stellaris/driverlib/udma.c ****     ASSERT(!CLASS_IS_TEMPEST);
1260:/home/cuil/workspace/arm/lm3s811/TI_Stellaris/driverlib/udma.c **** 
1261:/home/cuil/workspace/arm/lm3s811/TI_Stellaris/driverlib/udma.c ****     //
1262:/home/cuil/workspace/arm/lm3s811/TI_Stellaris/driverlib/udma.c ****     // Return the value of the uDMA interrupt status register
1263:/home/cuil/workspace/arm/lm3s811/TI_Stellaris/driverlib/udma.c ****     //
1264:/home/cuil/workspace/arm/lm3s811/TI_Stellaris/driverlib/udma.c ****     return(HWREG(UDMA_CHIS));
 9507              		.loc 1 1264 0
 9508 0004 024B     		ldr	r3, .L91
 9509 0006 1B68     		ldr	r3, [r3, #0]
1265:/home/cuil/workspace/arm/lm3s811/TI_Stellaris/driverlib/udma.c **** }
 9510              		.loc 1 1265 0
 9511 0008 1846     		mov	r0, r3
 9512 000a BD46     		mov	sp, r7
 9513 000c 80BC     		pop	{r7}
 9514 000e 7047     		bx	lr
 9515              	.L92:
 9516              		.align	2
 9517              	.L91:
 9518 0010 04F50F40 		.word	1074787588
 9519              		.cfi_endproc
 9520              	.LFE23:
 9522              		.section	.text.uDMAIntClear,"ax",%progbits
 9523              		.align	2
 9524              		.global	uDMAIntClear
 9525              		.thumb
 9526              		.thumb_func
 9528              	uDMAIntClear:
 9529              	.LFB24:
1266:/home/cuil/workspace/arm/lm3s811/TI_Stellaris/driverlib/udma.c **** 
1267:/home/cuil/workspace/arm/lm3s811/TI_Stellaris/driverlib/udma.c **** //*****************************************************************************
1268:/home/cuil/workspace/arm/lm3s811/TI_Stellaris/driverlib/udma.c **** //
1269:/home/cuil/workspace/arm/lm3s811/TI_Stellaris/driverlib/udma.c **** //! Clears uDMA interrupt status.
1270:/home/cuil/workspace/arm/lm3s811/TI_Stellaris/driverlib/udma.c **** //!
1271:/home/cuil/workspace/arm/lm3s811/TI_Stellaris/driverlib/udma.c **** //! \param ulChanMask is a 32-bit mask with one bit for each uDMA channel.
1272:/home/cuil/workspace/arm/lm3s811/TI_Stellaris/driverlib/udma.c **** //!
1273:/home/cuil/workspace/arm/lm3s811/TI_Stellaris/driverlib/udma.c **** //! This function clears bits in the uDMA interrupt status register according
1274:/home/cuil/workspace/arm/lm3s811/TI_Stellaris/driverlib/udma.c **** //! to which bits are set in \e ulChanMask. There is one bit for each channel. 
1275:/home/cuil/workspace/arm/lm3s811/TI_Stellaris/driverlib/udma.c **** //! If a a bit is set in \e ulChanMask, then that corresponding channel's 
1276:/home/cuil/workspace/arm/lm3s811/TI_Stellaris/driverlib/udma.c **** //! interrupt status is cleared (if it was set).
1277:/home/cuil/workspace/arm/lm3s811/TI_Stellaris/driverlib/udma.c **** //!
1278:/home/cuil/workspace/arm/lm3s811/TI_Stellaris/driverlib/udma.c **** //! \note This function is only available on devices that have the DMA Channel
1279:/home/cuil/workspace/arm/lm3s811/TI_Stellaris/driverlib/udma.c **** //! Interrupt Status Register (DMACHIS).  Please consult the data sheet for
1280:/home/cuil/workspace/arm/lm3s811/TI_Stellaris/driverlib/udma.c **** //! your part.
1281:/home/cuil/workspace/arm/lm3s811/TI_Stellaris/driverlib/udma.c **** //!
1282:/home/cuil/workspace/arm/lm3s811/TI_Stellaris/driverlib/udma.c **** //! \return None.
1283:/home/cuil/workspace/arm/lm3s811/TI_Stellaris/driverlib/udma.c **** //
1284:/home/cuil/workspace/arm/lm3s811/TI_Stellaris/driverlib/udma.c **** //*****************************************************************************
1285:/home/cuil/workspace/arm/lm3s811/TI_Stellaris/driverlib/udma.c **** void
1286:/home/cuil/workspace/arm/lm3s811/TI_Stellaris/driverlib/udma.c **** uDMAIntClear(unsigned long ulChanMask)
1287:/home/cuil/workspace/arm/lm3s811/TI_Stellaris/driverlib/udma.c **** {
 9530              		.loc 1 1287 0
 9531              		.cfi_startproc
 9532              		@ args = 0, pretend = 0, frame = 8
 9533              		@ frame_needed = 1, uses_anonymous_args = 0
 9534              		@ link register save eliminated.
 9535 0000 80B4     		push	{r7}
 9536              	.LCFI65:
 9537              		.cfi_def_cfa_offset 4
 9538 0002 83B0     		sub	sp, sp, #12
 9539              	.LCFI66:
 9540              		.cfi_def_cfa_offset 16
 9541 0004 00AF     		add	r7, sp, #0
 9542              		.cfi_offset 7, -4
 9543              	.LCFI67:
 9544              		.cfi_def_cfa_register 7
 9545 0006 7860     		str	r0, [r7, #4]
1288:/home/cuil/workspace/arm/lm3s811/TI_Stellaris/driverlib/udma.c ****     //
1289:/home/cuil/workspace/arm/lm3s811/TI_Stellaris/driverlib/udma.c ****     // Check feature availability
1290:/home/cuil/workspace/arm/lm3s811/TI_Stellaris/driverlib/udma.c ****     //
1291:/home/cuil/workspace/arm/lm3s811/TI_Stellaris/driverlib/udma.c ****     ASSERT(!CLASS_IS_SANDSTORM);
1292:/home/cuil/workspace/arm/lm3s811/TI_Stellaris/driverlib/udma.c ****     ASSERT(!CLASS_IS_FURY);
1293:/home/cuil/workspace/arm/lm3s811/TI_Stellaris/driverlib/udma.c ****     ASSERT(!CLASS_IS_DUSTDEVIL);
1294:/home/cuil/workspace/arm/lm3s811/TI_Stellaris/driverlib/udma.c ****     ASSERT(!CLASS_IS_TEMPEST);
1295:/home/cuil/workspace/arm/lm3s811/TI_Stellaris/driverlib/udma.c **** 
1296:/home/cuil/workspace/arm/lm3s811/TI_Stellaris/driverlib/udma.c ****     //
1297:/home/cuil/workspace/arm/lm3s811/TI_Stellaris/driverlib/udma.c ****     // Clear the requested bits in the uDMA interrupt status register
1298:/home/cuil/workspace/arm/lm3s811/TI_Stellaris/driverlib/udma.c ****     //
1299:/home/cuil/workspace/arm/lm3s811/TI_Stellaris/driverlib/udma.c ****     HWREG(UDMA_CHIS) = ulChanMask;
 9546              		.loc 1 1299 0
 9547 0008 034B     		ldr	r3, .L94
 9548 000a 7A68     		ldr	r2, [r7, #4]
 9549 000c 1A60     		str	r2, [r3, #0]
1300:/home/cuil/workspace/arm/lm3s811/TI_Stellaris/driverlib/udma.c **** }
 9550              		.loc 1 1300 0
 9551 000e 07F10C07 		add	r7, r7, #12
 9552 0012 BD46     		mov	sp, r7
 9553 0014 80BC     		pop	{r7}
 9554 0016 7047     		bx	lr
 9555              	.L95:
 9556              		.align	2
 9557              	.L94:
 9558 0018 04F50F40 		.word	1074787588
 9559              		.cfi_endproc
 9560              	.LFE24:
 9562              		.section	.text.uDMAChannelAssign,"ax",%progbits
 9563              		.align	2
 9564              		.global	uDMAChannelAssign
 9565              		.thumb
 9566              		.thumb_func
 9568              	uDMAChannelAssign:
 9569              	.LFB25:
1301:/home/cuil/workspace/arm/lm3s811/TI_Stellaris/driverlib/udma.c **** 
1302:/home/cuil/workspace/arm/lm3s811/TI_Stellaris/driverlib/udma.c **** //*****************************************************************************
1303:/home/cuil/workspace/arm/lm3s811/TI_Stellaris/driverlib/udma.c **** //
1304:/home/cuil/workspace/arm/lm3s811/TI_Stellaris/driverlib/udma.c **** //! Assigns a peripheral mapping for a uDMA channel.
1305:/home/cuil/workspace/arm/lm3s811/TI_Stellaris/driverlib/udma.c **** //!
1306:/home/cuil/workspace/arm/lm3s811/TI_Stellaris/driverlib/udma.c **** //! \param ulMapping is a macro specifying the peripheral assignment for
1307:/home/cuil/workspace/arm/lm3s811/TI_Stellaris/driverlib/udma.c **** //! a channel.
1308:/home/cuil/workspace/arm/lm3s811/TI_Stellaris/driverlib/udma.c **** //!
1309:/home/cuil/workspace/arm/lm3s811/TI_Stellaris/driverlib/udma.c **** //! This function assigns a peripheral mapping to a uDMA channel.  It is
1310:/home/cuil/workspace/arm/lm3s811/TI_Stellaris/driverlib/udma.c **** //! used to select which peripheral is used for a uDMA channel.  The parameter
1311:/home/cuil/workspace/arm/lm3s811/TI_Stellaris/driverlib/udma.c **** //! \e ulMapping should be one of the macros named \b UDMA_CHn_tttt from the
1312:/home/cuil/workspace/arm/lm3s811/TI_Stellaris/driverlib/udma.c **** //! header file \e udma.h.  For example, to assign uDMA channel 0 to the
1313:/home/cuil/workspace/arm/lm3s811/TI_Stellaris/driverlib/udma.c **** //! UART2 RX channel, the parameter should be the macro \b UDMA_CH0_UART2RX.
1314:/home/cuil/workspace/arm/lm3s811/TI_Stellaris/driverlib/udma.c **** //!
1315:/home/cuil/workspace/arm/lm3s811/TI_Stellaris/driverlib/udma.c **** //! Please consult the Stellaris data sheet for a table showing all the
1316:/home/cuil/workspace/arm/lm3s811/TI_Stellaris/driverlib/udma.c **** //! possible peripheral assignments for the uDMA channels for a particular
1317:/home/cuil/workspace/arm/lm3s811/TI_Stellaris/driverlib/udma.c **** //! device.
1318:/home/cuil/workspace/arm/lm3s811/TI_Stellaris/driverlib/udma.c **** //!
1319:/home/cuil/workspace/arm/lm3s811/TI_Stellaris/driverlib/udma.c **** //! \note This function is only available on devices that have the DMA Channel
1320:/home/cuil/workspace/arm/lm3s811/TI_Stellaris/driverlib/udma.c **** //! Map Select registers (DMACHMAP0-3).  Please consult the data sheet for
1321:/home/cuil/workspace/arm/lm3s811/TI_Stellaris/driverlib/udma.c **** //! your part.
1322:/home/cuil/workspace/arm/lm3s811/TI_Stellaris/driverlib/udma.c **** //!
1323:/home/cuil/workspace/arm/lm3s811/TI_Stellaris/driverlib/udma.c **** //! \return None.
1324:/home/cuil/workspace/arm/lm3s811/TI_Stellaris/driverlib/udma.c **** //
1325:/home/cuil/workspace/arm/lm3s811/TI_Stellaris/driverlib/udma.c **** //*****************************************************************************
1326:/home/cuil/workspace/arm/lm3s811/TI_Stellaris/driverlib/udma.c **** void
1327:/home/cuil/workspace/arm/lm3s811/TI_Stellaris/driverlib/udma.c **** uDMAChannelAssign(unsigned long ulMapping)
1328:/home/cuil/workspace/arm/lm3s811/TI_Stellaris/driverlib/udma.c **** {
 9570              		.loc 1 1328 0
 9571              		.cfi_startproc
 9572              		@ args = 0, pretend = 0, frame = 24
 9573              		@ frame_needed = 1, uses_anonymous_args = 0
 9574              		@ link register save eliminated.
 9575 0000 80B4     		push	{r7}
 9576              	.LCFI68:
 9577              		.cfi_def_cfa_offset 4
 9578 0002 87B0     		sub	sp, sp, #28
 9579              	.LCFI69:
 9580              		.cfi_def_cfa_offset 32
 9581 0004 00AF     		add	r7, sp, #0
 9582              		.cfi_offset 7, -4
 9583              	.LCFI70:
 9584              		.cfi_def_cfa_register 7
 9585 0006 7860     		str	r0, [r7, #4]
1329:/home/cuil/workspace/arm/lm3s811/TI_Stellaris/driverlib/udma.c ****     unsigned long ulMapReg;
1330:/home/cuil/workspace/arm/lm3s811/TI_Stellaris/driverlib/udma.c ****     unsigned long ulMapShift;
1331:/home/cuil/workspace/arm/lm3s811/TI_Stellaris/driverlib/udma.c ****     unsigned long ulChannelNum;
1332:/home/cuil/workspace/arm/lm3s811/TI_Stellaris/driverlib/udma.c **** 
1333:/home/cuil/workspace/arm/lm3s811/TI_Stellaris/driverlib/udma.c ****     //
1334:/home/cuil/workspace/arm/lm3s811/TI_Stellaris/driverlib/udma.c ****     // Check the parameters
1335:/home/cuil/workspace/arm/lm3s811/TI_Stellaris/driverlib/udma.c ****     //
1336:/home/cuil/workspace/arm/lm3s811/TI_Stellaris/driverlib/udma.c ****     ASSERT((ulMapping & 0xffffff00) < 0x00050000);
1337:/home/cuil/workspace/arm/lm3s811/TI_Stellaris/driverlib/udma.c ****     ASSERT(!CLASS_IS_SANDSTORM);
1338:/home/cuil/workspace/arm/lm3s811/TI_Stellaris/driverlib/udma.c ****     ASSERT(!CLASS_IS_FURY);
1339:/home/cuil/workspace/arm/lm3s811/TI_Stellaris/driverlib/udma.c ****     ASSERT(!CLASS_IS_DUSTDEVIL);
1340:/home/cuil/workspace/arm/lm3s811/TI_Stellaris/driverlib/udma.c ****     ASSERT(!CLASS_IS_TEMPEST);
1341:/home/cuil/workspace/arm/lm3s811/TI_Stellaris/driverlib/udma.c ****     ASSERT(!CLASS_IS_FIRESTORM);
1342:/home/cuil/workspace/arm/lm3s811/TI_Stellaris/driverlib/udma.c **** 
1343:/home/cuil/workspace/arm/lm3s811/TI_Stellaris/driverlib/udma.c ****     //
1344:/home/cuil/workspace/arm/lm3s811/TI_Stellaris/driverlib/udma.c ****     // Extract the channel number and map encoding value from the parameter.
1345:/home/cuil/workspace/arm/lm3s811/TI_Stellaris/driverlib/udma.c ****     //
1346:/home/cuil/workspace/arm/lm3s811/TI_Stellaris/driverlib/udma.c ****     ulChannelNum = ulMapping & 0xff;
 9586              		.loc 1 1346 0
 9587 0008 7B68     		ldr	r3, [r7, #4]
 9588 000a 03F0FF03 		and	r3, r3, #255
 9589 000e 7B61     		str	r3, [r7, #20]
1347:/home/cuil/workspace/arm/lm3s811/TI_Stellaris/driverlib/udma.c ****     ulMapping = ulMapping >> 16;
 9590              		.loc 1 1347 0
 9591 0010 7B68     		ldr	r3, [r7, #4]
 9592 0012 4FEA1343 		lsr	r3, r3, #16
 9593 0016 7B60     		str	r3, [r7, #4]
1348:/home/cuil/workspace/arm/lm3s811/TI_Stellaris/driverlib/udma.c **** 
1349:/home/cuil/workspace/arm/lm3s811/TI_Stellaris/driverlib/udma.c ****     //
1350:/home/cuil/workspace/arm/lm3s811/TI_Stellaris/driverlib/udma.c ****     // Find the uDMA channel mapping register and shift value to use for this
1351:/home/cuil/workspace/arm/lm3s811/TI_Stellaris/driverlib/udma.c ****     // channel
1352:/home/cuil/workspace/arm/lm3s811/TI_Stellaris/driverlib/udma.c ****     //
1353:/home/cuil/workspace/arm/lm3s811/TI_Stellaris/driverlib/udma.c ****     ulMapReg = UDMA_CHMAP0 + ((ulChannelNum / 8) * 4);
 9594              		.loc 1 1353 0
 9595 0018 7B69     		ldr	r3, [r7, #20]
 9596 001a 4FEAD302 		lsr	r2, r3, #3
 9597 001e 114B     		ldr	r3, .L97
 9598 0020 D318     		adds	r3, r2, r3
 9599 0022 4FEA8303 		lsl	r3, r3, #2
 9600 0026 3B61     		str	r3, [r7, #16]
1354:/home/cuil/workspace/arm/lm3s811/TI_Stellaris/driverlib/udma.c ****     ulMapShift = (ulChannelNum % 8) * 4;
 9601              		.loc 1 1354 0
 9602 0028 7B69     		ldr	r3, [r7, #20]
 9603 002a 03F00703 		and	r3, r3, #7
 9604 002e 4FEA8303 		lsl	r3, r3, #2
 9605 0032 FB60     		str	r3, [r7, #12]
1355:/home/cuil/workspace/arm/lm3s811/TI_Stellaris/driverlib/udma.c **** 
1356:/home/cuil/workspace/arm/lm3s811/TI_Stellaris/driverlib/udma.c ****     //
1357:/home/cuil/workspace/arm/lm3s811/TI_Stellaris/driverlib/udma.c ****     // Set the channel map encoding for this channel
1358:/home/cuil/workspace/arm/lm3s811/TI_Stellaris/driverlib/udma.c ****     //
1359:/home/cuil/workspace/arm/lm3s811/TI_Stellaris/driverlib/udma.c ****     HWREG(ulMapReg) = (HWREG(ulMapReg) & ~(0xf << ulMapShift)) |
 9606              		.loc 1 1359 0
 9607 0034 3B69     		ldr	r3, [r7, #16]
 9608 0036 3A69     		ldr	r2, [r7, #16]
 9609 0038 1168     		ldr	r1, [r2, #0]
 9610 003a FA68     		ldr	r2, [r7, #12]
 9611 003c 4FF00F00 		mov	r0, #15
 9612 0040 00FA02F2 		lsl	r2, r0, r2
 9613 0044 6FEA0202 		mvn	r2, r2
 9614 0048 1140     		ands	r1, r1, r2
1360:/home/cuil/workspace/arm/lm3s811/TI_Stellaris/driverlib/udma.c ****                       ulMapping << ulMapShift;
 9615              		.loc 1 1360 0
 9616 004a FA68     		ldr	r2, [r7, #12]
 9617 004c 7868     		ldr	r0, [r7, #4]
 9618 004e 00FA02F2 		lsl	r2, r0, r2
1359:/home/cuil/workspace/arm/lm3s811/TI_Stellaris/driverlib/udma.c ****     HWREG(ulMapReg) = (HWREG(ulMapReg) & ~(0xf << ulMapShift)) |
 9619              		.loc 1 1359 0
 9620 0052 41EA0202 		orr	r2, r1, r2
 9621 0056 1A60     		str	r2, [r3, #0]
1361:/home/cuil/workspace/arm/lm3s811/TI_Stellaris/driverlib/udma.c **** }
 9622              		.loc 1 1361 0
 9623 0058 07F11C07 		add	r7, r7, #28
 9624 005c BD46     		mov	sp, r7
 9625 005e 80BC     		pop	{r7}
 9626 0060 7047     		bx	lr
 9627              	.L98:
 9628 0062 00BF     		.align	2
 9629              	.L97:
 9630 0064 44FD0310 		.word	268696900
 9631              		.cfi_endproc
 9632              	.LFE25:
 9634              		.text
 9635              	.Letext0: