   1              		.syntax unified
   2              		.cpu cortex-m3
   3              		.fpu softvfp
   4              		.eabi_attribute 20, 1
   5              		.eabi_attribute 21, 1
   6              		.eabi_attribute 23, 3
   7              		.eabi_attribute 24, 1
   8              		.eabi_attribute 25, 1
   9              		.eabi_attribute 26, 1
  10              		.eabi_attribute 30, 6
  11              		.eabi_attribute 18, 4
  12              		.thumb
  13              		.file	"usb.c"
  23              	.Ltext0:
  24              		.file 1 "/home/cuil/workspace/arm/lm3s811/TI_Stellaris/driverlib/usb.c"
 9457              		.align	2
 9458              		.thumb
 9459              		.thumb_func
 9461              	USBIndexWrite:
 9462              	.LFB0:
   1:/home/cuil/workspace/arm/lm3s811/TI_Stellaris/driverlib/usb.c **** //*****************************************************************************
   2:/home/cuil/workspace/arm/lm3s811/TI_Stellaris/driverlib/usb.c **** //
   3:/home/cuil/workspace/arm/lm3s811/TI_Stellaris/driverlib/usb.c **** // usb.c - Driver for the USB Interface.
   4:/home/cuil/workspace/arm/lm3s811/TI_Stellaris/driverlib/usb.c **** //
   5:/home/cuil/workspace/arm/lm3s811/TI_Stellaris/driverlib/usb.c **** // Copyright (c) 2007-2011 Texas Instruments Incorporated.  All rights reserved.
   6:/home/cuil/workspace/arm/lm3s811/TI_Stellaris/driverlib/usb.c **** // Software License Agreement
   7:/home/cuil/workspace/arm/lm3s811/TI_Stellaris/driverlib/usb.c **** // 
   8:/home/cuil/workspace/arm/lm3s811/TI_Stellaris/driverlib/usb.c **** // Texas Instruments (TI) is supplying this software for use solely and
   9:/home/cuil/workspace/arm/lm3s811/TI_Stellaris/driverlib/usb.c **** // exclusively on TI's microcontroller products. The software is owned by
  10:/home/cuil/workspace/arm/lm3s811/TI_Stellaris/driverlib/usb.c **** // TI and/or its suppliers, and is protected under applicable copyright
  11:/home/cuil/workspace/arm/lm3s811/TI_Stellaris/driverlib/usb.c **** // laws. You may not combine this software with "viral" open-source
  12:/home/cuil/workspace/arm/lm3s811/TI_Stellaris/driverlib/usb.c **** // software in order to form a larger program.
  13:/home/cuil/workspace/arm/lm3s811/TI_Stellaris/driverlib/usb.c **** // 
  14:/home/cuil/workspace/arm/lm3s811/TI_Stellaris/driverlib/usb.c **** // THIS SOFTWARE IS PROVIDED "AS IS" AND WITH ALL FAULTS.
  15:/home/cuil/workspace/arm/lm3s811/TI_Stellaris/driverlib/usb.c **** // NO WARRANTIES, WHETHER EXPRESS, IMPLIED OR STATUTORY, INCLUDING, BUT
  16:/home/cuil/workspace/arm/lm3s811/TI_Stellaris/driverlib/usb.c **** // NOT LIMITED TO, IMPLIED WARRANTIES OF MERCHANTABILITY AND FITNESS FOR
  17:/home/cuil/workspace/arm/lm3s811/TI_Stellaris/driverlib/usb.c **** // A PARTICULAR PURPOSE APPLY TO THIS SOFTWARE. TI SHALL NOT, UNDER ANY
  18:/home/cuil/workspace/arm/lm3s811/TI_Stellaris/driverlib/usb.c **** // CIRCUMSTANCES, BE LIABLE FOR SPECIAL, INCIDENTAL, OR CONSEQUENTIAL
  19:/home/cuil/workspace/arm/lm3s811/TI_Stellaris/driverlib/usb.c **** // DAMAGES, FOR ANY REASON WHATSOEVER.
  20:/home/cuil/workspace/arm/lm3s811/TI_Stellaris/driverlib/usb.c **** // 
  21:/home/cuil/workspace/arm/lm3s811/TI_Stellaris/driverlib/usb.c **** // This is part of revision 8264 of the Stellaris Peripheral Driver Library.
  22:/home/cuil/workspace/arm/lm3s811/TI_Stellaris/driverlib/usb.c **** //
  23:/home/cuil/workspace/arm/lm3s811/TI_Stellaris/driverlib/usb.c **** //*****************************************************************************
  24:/home/cuil/workspace/arm/lm3s811/TI_Stellaris/driverlib/usb.c **** 
  25:/home/cuil/workspace/arm/lm3s811/TI_Stellaris/driverlib/usb.c **** //*****************************************************************************
  26:/home/cuil/workspace/arm/lm3s811/TI_Stellaris/driverlib/usb.c **** //
  27:/home/cuil/workspace/arm/lm3s811/TI_Stellaris/driverlib/usb.c **** //! \addtogroup usb_api
  28:/home/cuil/workspace/arm/lm3s811/TI_Stellaris/driverlib/usb.c **** //! @{
  29:/home/cuil/workspace/arm/lm3s811/TI_Stellaris/driverlib/usb.c **** //
  30:/home/cuil/workspace/arm/lm3s811/TI_Stellaris/driverlib/usb.c **** //*****************************************************************************
  31:/home/cuil/workspace/arm/lm3s811/TI_Stellaris/driverlib/usb.c **** 
  32:/home/cuil/workspace/arm/lm3s811/TI_Stellaris/driverlib/usb.c **** #include "inc/hw_ints.h"
  33:/home/cuil/workspace/arm/lm3s811/TI_Stellaris/driverlib/usb.c **** #include "inc/hw_memmap.h"
  34:/home/cuil/workspace/arm/lm3s811/TI_Stellaris/driverlib/usb.c **** #include "inc/hw_types.h"
  35:/home/cuil/workspace/arm/lm3s811/TI_Stellaris/driverlib/usb.c **** #include "inc/hw_usb.h"
  36:/home/cuil/workspace/arm/lm3s811/TI_Stellaris/driverlib/usb.c **** #include "driverlib/debug.h"
  37:/home/cuil/workspace/arm/lm3s811/TI_Stellaris/driverlib/usb.c **** #include "driverlib/interrupt.h"
  38:/home/cuil/workspace/arm/lm3s811/TI_Stellaris/driverlib/usb.c **** #include "driverlib/udma.h"
  39:/home/cuil/workspace/arm/lm3s811/TI_Stellaris/driverlib/usb.c **** #include "driverlib/usb.h"
  40:/home/cuil/workspace/arm/lm3s811/TI_Stellaris/driverlib/usb.c **** 
  41:/home/cuil/workspace/arm/lm3s811/TI_Stellaris/driverlib/usb.c **** //*****************************************************************************
  42:/home/cuil/workspace/arm/lm3s811/TI_Stellaris/driverlib/usb.c **** //
  43:/home/cuil/workspace/arm/lm3s811/TI_Stellaris/driverlib/usb.c **** // Amount to shift the RX interrupt sources by in the flags used in the
  44:/home/cuil/workspace/arm/lm3s811/TI_Stellaris/driverlib/usb.c **** // interrupt calls.
  45:/home/cuil/workspace/arm/lm3s811/TI_Stellaris/driverlib/usb.c **** //
  46:/home/cuil/workspace/arm/lm3s811/TI_Stellaris/driverlib/usb.c **** //*****************************************************************************
  47:/home/cuil/workspace/arm/lm3s811/TI_Stellaris/driverlib/usb.c **** #ifndef DEPRECATED
  48:/home/cuil/workspace/arm/lm3s811/TI_Stellaris/driverlib/usb.c **** #define USB_INT_RX_SHIFT        8
  49:/home/cuil/workspace/arm/lm3s811/TI_Stellaris/driverlib/usb.c **** #endif
  50:/home/cuil/workspace/arm/lm3s811/TI_Stellaris/driverlib/usb.c **** #define USB_INTEP_RX_SHIFT      16
  51:/home/cuil/workspace/arm/lm3s811/TI_Stellaris/driverlib/usb.c **** 
  52:/home/cuil/workspace/arm/lm3s811/TI_Stellaris/driverlib/usb.c **** //*****************************************************************************
  53:/home/cuil/workspace/arm/lm3s811/TI_Stellaris/driverlib/usb.c **** //
  54:/home/cuil/workspace/arm/lm3s811/TI_Stellaris/driverlib/usb.c **** // Amount to shift the status interrupt sources by in the flags used in the
  55:/home/cuil/workspace/arm/lm3s811/TI_Stellaris/driverlib/usb.c **** // interrupt calls.
  56:/home/cuil/workspace/arm/lm3s811/TI_Stellaris/driverlib/usb.c **** //
  57:/home/cuil/workspace/arm/lm3s811/TI_Stellaris/driverlib/usb.c **** //*****************************************************************************
  58:/home/cuil/workspace/arm/lm3s811/TI_Stellaris/driverlib/usb.c **** #ifndef DEPRECATED
  59:/home/cuil/workspace/arm/lm3s811/TI_Stellaris/driverlib/usb.c **** #define USB_INT_STATUS_SHIFT    24
  60:/home/cuil/workspace/arm/lm3s811/TI_Stellaris/driverlib/usb.c **** #endif
  61:/home/cuil/workspace/arm/lm3s811/TI_Stellaris/driverlib/usb.c **** 
  62:/home/cuil/workspace/arm/lm3s811/TI_Stellaris/driverlib/usb.c **** //*****************************************************************************
  63:/home/cuil/workspace/arm/lm3s811/TI_Stellaris/driverlib/usb.c **** //
  64:/home/cuil/workspace/arm/lm3s811/TI_Stellaris/driverlib/usb.c **** // Amount to shift the RX endpoint status sources by in the flags used in the
  65:/home/cuil/workspace/arm/lm3s811/TI_Stellaris/driverlib/usb.c **** // calls.
  66:/home/cuil/workspace/arm/lm3s811/TI_Stellaris/driverlib/usb.c **** //
  67:/home/cuil/workspace/arm/lm3s811/TI_Stellaris/driverlib/usb.c **** //*****************************************************************************
  68:/home/cuil/workspace/arm/lm3s811/TI_Stellaris/driverlib/usb.c **** #define USB_RX_EPSTATUS_SHIFT   16
  69:/home/cuil/workspace/arm/lm3s811/TI_Stellaris/driverlib/usb.c **** 
  70:/home/cuil/workspace/arm/lm3s811/TI_Stellaris/driverlib/usb.c **** //*****************************************************************************
  71:/home/cuil/workspace/arm/lm3s811/TI_Stellaris/driverlib/usb.c **** //
  72:/home/cuil/workspace/arm/lm3s811/TI_Stellaris/driverlib/usb.c **** // Converts from an endpoint specifier to the offset of the endpoint's
  73:/home/cuil/workspace/arm/lm3s811/TI_Stellaris/driverlib/usb.c **** // control/status registers.
  74:/home/cuil/workspace/arm/lm3s811/TI_Stellaris/driverlib/usb.c **** //
  75:/home/cuil/workspace/arm/lm3s811/TI_Stellaris/driverlib/usb.c **** //*****************************************************************************
  76:/home/cuil/workspace/arm/lm3s811/TI_Stellaris/driverlib/usb.c **** #define EP_OFFSET(Endpoint)     (Endpoint - 0x10)
  77:/home/cuil/workspace/arm/lm3s811/TI_Stellaris/driverlib/usb.c **** 
  78:/home/cuil/workspace/arm/lm3s811/TI_Stellaris/driverlib/usb.c **** //*****************************************************************************
  79:/home/cuil/workspace/arm/lm3s811/TI_Stellaris/driverlib/usb.c **** //
  80:/home/cuil/workspace/arm/lm3s811/TI_Stellaris/driverlib/usb.c **** // Sets one of the indexed registers.
  81:/home/cuil/workspace/arm/lm3s811/TI_Stellaris/driverlib/usb.c **** //
  82:/home/cuil/workspace/arm/lm3s811/TI_Stellaris/driverlib/usb.c **** // \param ulBase specifies the USB module base address.
  83:/home/cuil/workspace/arm/lm3s811/TI_Stellaris/driverlib/usb.c **** // \param ulEndpoint is the endpoint index to target for this write.
  84:/home/cuil/workspace/arm/lm3s811/TI_Stellaris/driverlib/usb.c **** // \param ulIndexedReg is the indexed register to write to.
  85:/home/cuil/workspace/arm/lm3s811/TI_Stellaris/driverlib/usb.c **** // \param ucValue is the value to write to the register.
  86:/home/cuil/workspace/arm/lm3s811/TI_Stellaris/driverlib/usb.c **** //
  87:/home/cuil/workspace/arm/lm3s811/TI_Stellaris/driverlib/usb.c **** // This function is used to access the indexed registers for each endpoint.
  88:/home/cuil/workspace/arm/lm3s811/TI_Stellaris/driverlib/usb.c **** // The only registers that are indexed are the FIFO configuration registers,
  89:/home/cuil/workspace/arm/lm3s811/TI_Stellaris/driverlib/usb.c **** // which are not used after configuration.
  90:/home/cuil/workspace/arm/lm3s811/TI_Stellaris/driverlib/usb.c **** //
  91:/home/cuil/workspace/arm/lm3s811/TI_Stellaris/driverlib/usb.c **** // \return None.
  92:/home/cuil/workspace/arm/lm3s811/TI_Stellaris/driverlib/usb.c **** //
  93:/home/cuil/workspace/arm/lm3s811/TI_Stellaris/driverlib/usb.c **** //*****************************************************************************
  94:/home/cuil/workspace/arm/lm3s811/TI_Stellaris/driverlib/usb.c **** static void
  95:/home/cuil/workspace/arm/lm3s811/TI_Stellaris/driverlib/usb.c **** USBIndexWrite(unsigned long ulBase, unsigned long ulEndpoint,
  96:/home/cuil/workspace/arm/lm3s811/TI_Stellaris/driverlib/usb.c ****               unsigned long ulIndexedReg, unsigned long ulValue,
  97:/home/cuil/workspace/arm/lm3s811/TI_Stellaris/driverlib/usb.c ****               unsigned long ulSize)
  98:/home/cuil/workspace/arm/lm3s811/TI_Stellaris/driverlib/usb.c **** {
 9463              		.loc 1 98 0
 9464              		.cfi_startproc
 9465              		@ args = 4, pretend = 0, frame = 24
 9466              		@ frame_needed = 1, uses_anonymous_args = 0
 9467              		@ link register save eliminated.
 9468 0000 80B4     		push	{r7}
 9469              	.LCFI0:
 9470              		.cfi_def_cfa_offset 4
 9471 0002 87B0     		sub	sp, sp, #28
 9472              	.LCFI1:
 9473              		.cfi_def_cfa_offset 32
 9474 0004 00AF     		add	r7, sp, #0
 9475              		.cfi_offset 7, -4
 9476              	.LCFI2:
 9477              		.cfi_def_cfa_register 7
 9478 0006 F860     		str	r0, [r7, #12]
 9479 0008 B960     		str	r1, [r7, #8]
 9480 000a 7A60     		str	r2, [r7, #4]
 9481 000c 3B60     		str	r3, [r7, #0]
  99:/home/cuil/workspace/arm/lm3s811/TI_Stellaris/driverlib/usb.c ****     unsigned long ulIndex;
 100:/home/cuil/workspace/arm/lm3s811/TI_Stellaris/driverlib/usb.c **** 
 101:/home/cuil/workspace/arm/lm3s811/TI_Stellaris/driverlib/usb.c ****     //
 102:/home/cuil/workspace/arm/lm3s811/TI_Stellaris/driverlib/usb.c ****     // Check the arguments.
 103:/home/cuil/workspace/arm/lm3s811/TI_Stellaris/driverlib/usb.c ****     //
 104:/home/cuil/workspace/arm/lm3s811/TI_Stellaris/driverlib/usb.c ****     ASSERT(ulBase == USB0_BASE);
 105:/home/cuil/workspace/arm/lm3s811/TI_Stellaris/driverlib/usb.c ****     ASSERT((ulEndpoint == 0) || (ulEndpoint == 1) || (ulEndpoint == 2) ||
 106:/home/cuil/workspace/arm/lm3s811/TI_Stellaris/driverlib/usb.c ****            (ulEndpoint == 3));
 107:/home/cuil/workspace/arm/lm3s811/TI_Stellaris/driverlib/usb.c ****     ASSERT((ulSize == 1) || (ulSize == 2));
 108:/home/cuil/workspace/arm/lm3s811/TI_Stellaris/driverlib/usb.c **** 
 109:/home/cuil/workspace/arm/lm3s811/TI_Stellaris/driverlib/usb.c ****     //
 110:/home/cuil/workspace/arm/lm3s811/TI_Stellaris/driverlib/usb.c ****     // Save the old index in case it was in use.
 111:/home/cuil/workspace/arm/lm3s811/TI_Stellaris/driverlib/usb.c ****     //
 112:/home/cuil/workspace/arm/lm3s811/TI_Stellaris/driverlib/usb.c ****     ulIndex = HWREGB(ulBase + USB_O_EPIDX);
 9482              		.loc 1 112 0
 9483 000e FB68     		ldr	r3, [r7, #12]
 9484 0010 03F10E03 		add	r3, r3, #14
 9485 0014 1B78     		ldrb	r3, [r3, #0]
 9486 0016 DBB2     		uxtb	r3, r3
 9487 0018 7B61     		str	r3, [r7, #20]
 113:/home/cuil/workspace/arm/lm3s811/TI_Stellaris/driverlib/usb.c **** 
 114:/home/cuil/workspace/arm/lm3s811/TI_Stellaris/driverlib/usb.c ****     //
 115:/home/cuil/workspace/arm/lm3s811/TI_Stellaris/driverlib/usb.c ****     // Set the index.
 116:/home/cuil/workspace/arm/lm3s811/TI_Stellaris/driverlib/usb.c ****     //
 117:/home/cuil/workspace/arm/lm3s811/TI_Stellaris/driverlib/usb.c ****     HWREGB(ulBase + USB_O_EPIDX) = ulEndpoint;
 9488              		.loc 1 117 0
 9489 001a FB68     		ldr	r3, [r7, #12]
 9490 001c 03F10E03 		add	r3, r3, #14
 9491 0020 BA68     		ldr	r2, [r7, #8]
 9492 0022 D2B2     		uxtb	r2, r2
 9493 0024 1A70     		strb	r2, [r3, #0]
 118:/home/cuil/workspace/arm/lm3s811/TI_Stellaris/driverlib/usb.c **** 
 119:/home/cuil/workspace/arm/lm3s811/TI_Stellaris/driverlib/usb.c ****     //
 120:/home/cuil/workspace/arm/lm3s811/TI_Stellaris/driverlib/usb.c ****     // Determine the size of the register value.
 121:/home/cuil/workspace/arm/lm3s811/TI_Stellaris/driverlib/usb.c ****     //
 122:/home/cuil/workspace/arm/lm3s811/TI_Stellaris/driverlib/usb.c ****     if(ulSize == 1)
 9494              		.loc 1 122 0
 9495 0026 3B6A     		ldr	r3, [r7, #32]
 9496 0028 012B     		cmp	r3, #1
 9497 002a 06D1     		bne	.L2
 123:/home/cuil/workspace/arm/lm3s811/TI_Stellaris/driverlib/usb.c ****     {
 124:/home/cuil/workspace/arm/lm3s811/TI_Stellaris/driverlib/usb.c ****         //
 125:/home/cuil/workspace/arm/lm3s811/TI_Stellaris/driverlib/usb.c ****         // Set the value.
 126:/home/cuil/workspace/arm/lm3s811/TI_Stellaris/driverlib/usb.c ****         //
 127:/home/cuil/workspace/arm/lm3s811/TI_Stellaris/driverlib/usb.c ****         HWREGB(ulBase + ulIndexedReg) = ulValue;
 9498              		.loc 1 127 0
 9499 002c FA68     		ldr	r2, [r7, #12]
 9500 002e 7B68     		ldr	r3, [r7, #4]
 9501 0030 D318     		adds	r3, r2, r3
 9502 0032 3A68     		ldr	r2, [r7, #0]
 9503 0034 D2B2     		uxtb	r2, r2
 9504 0036 1A70     		strb	r2, [r3, #0]
 9505 0038 05E0     		b	.L3
 9506              	.L2:
 128:/home/cuil/workspace/arm/lm3s811/TI_Stellaris/driverlib/usb.c ****     }
 129:/home/cuil/workspace/arm/lm3s811/TI_Stellaris/driverlib/usb.c ****     else
 130:/home/cuil/workspace/arm/lm3s811/TI_Stellaris/driverlib/usb.c ****     {
 131:/home/cuil/workspace/arm/lm3s811/TI_Stellaris/driverlib/usb.c ****         //
 132:/home/cuil/workspace/arm/lm3s811/TI_Stellaris/driverlib/usb.c ****         // Set the value.
 133:/home/cuil/workspace/arm/lm3s811/TI_Stellaris/driverlib/usb.c ****         //
 134:/home/cuil/workspace/arm/lm3s811/TI_Stellaris/driverlib/usb.c ****         HWREGH(ulBase + ulIndexedReg) = ulValue;
 9507              		.loc 1 134 0
 9508 003a FA68     		ldr	r2, [r7, #12]
 9509 003c 7B68     		ldr	r3, [r7, #4]
 9510 003e D318     		adds	r3, r2, r3
 9511 0040 3A68     		ldr	r2, [r7, #0]
 9512 0042 92B2     		uxth	r2, r2
 9513 0044 1A80     		strh	r2, [r3, #0]	@ movhi
 9514              	.L3:
 135:/home/cuil/workspace/arm/lm3s811/TI_Stellaris/driverlib/usb.c ****     }
 136:/home/cuil/workspace/arm/lm3s811/TI_Stellaris/driverlib/usb.c **** 
 137:/home/cuil/workspace/arm/lm3s811/TI_Stellaris/driverlib/usb.c ****     //
 138:/home/cuil/workspace/arm/lm3s811/TI_Stellaris/driverlib/usb.c ****     // Restore the old index in case it was in use.
 139:/home/cuil/workspace/arm/lm3s811/TI_Stellaris/driverlib/usb.c ****     //
 140:/home/cuil/workspace/arm/lm3s811/TI_Stellaris/driverlib/usb.c ****     HWREGB(ulBase + USB_O_EPIDX) = ulIndex;
 9515              		.loc 1 140 0
 9516 0046 FB68     		ldr	r3, [r7, #12]
 9517 0048 03F10E03 		add	r3, r3, #14
 9518 004c 7A69     		ldr	r2, [r7, #20]
 9519 004e D2B2     		uxtb	r2, r2
 9520 0050 1A70     		strb	r2, [r3, #0]
 141:/home/cuil/workspace/arm/lm3s811/TI_Stellaris/driverlib/usb.c **** }
 9521              		.loc 1 141 0
 9522 0052 07F11C07 		add	r7, r7, #28
 9523 0056 BD46     		mov	sp, r7
 9524 0058 80BC     		pop	{r7}
 9525 005a 7047     		bx	lr
 9526              		.cfi_endproc
 9527              	.LFE0:
 9529              		.section	.text.USBIndexRead,"ax",%progbits
 9530              		.align	2
 9531              		.thumb
 9532              		.thumb_func
 9534              	USBIndexRead:
 9535              	.LFB1:
 142:/home/cuil/workspace/arm/lm3s811/TI_Stellaris/driverlib/usb.c **** 
 143:/home/cuil/workspace/arm/lm3s811/TI_Stellaris/driverlib/usb.c **** //*****************************************************************************
 144:/home/cuil/workspace/arm/lm3s811/TI_Stellaris/driverlib/usb.c **** //
 145:/home/cuil/workspace/arm/lm3s811/TI_Stellaris/driverlib/usb.c **** // Reads one of the indexed registers.
 146:/home/cuil/workspace/arm/lm3s811/TI_Stellaris/driverlib/usb.c **** //
 147:/home/cuil/workspace/arm/lm3s811/TI_Stellaris/driverlib/usb.c **** // \param ulBase specifies the USB module base address.
 148:/home/cuil/workspace/arm/lm3s811/TI_Stellaris/driverlib/usb.c **** // \param ulEndpoint is the endpoint index to target for this write.
 149:/home/cuil/workspace/arm/lm3s811/TI_Stellaris/driverlib/usb.c **** // \param ulIndexedReg is the indexed register to write to.
 150:/home/cuil/workspace/arm/lm3s811/TI_Stellaris/driverlib/usb.c **** //
 151:/home/cuil/workspace/arm/lm3s811/TI_Stellaris/driverlib/usb.c **** // This function is used internally to access the indexed registers for each
 152:/home/cuil/workspace/arm/lm3s811/TI_Stellaris/driverlib/usb.c **** // endpoint.  The only registers that are indexed are the FIFO configuration
 153:/home/cuil/workspace/arm/lm3s811/TI_Stellaris/driverlib/usb.c **** // registers, which are not used after configuration.
 154:/home/cuil/workspace/arm/lm3s811/TI_Stellaris/driverlib/usb.c **** //
 155:/home/cuil/workspace/arm/lm3s811/TI_Stellaris/driverlib/usb.c **** // \return The value in the register requested.
 156:/home/cuil/workspace/arm/lm3s811/TI_Stellaris/driverlib/usb.c **** //
 157:/home/cuil/workspace/arm/lm3s811/TI_Stellaris/driverlib/usb.c **** //*****************************************************************************
 158:/home/cuil/workspace/arm/lm3s811/TI_Stellaris/driverlib/usb.c **** static unsigned long
 159:/home/cuil/workspace/arm/lm3s811/TI_Stellaris/driverlib/usb.c **** USBIndexRead(unsigned long ulBase, unsigned long ulEndpoint,
 160:/home/cuil/workspace/arm/lm3s811/TI_Stellaris/driverlib/usb.c ****              unsigned long ulIndexedReg, unsigned long ulSize)
 161:/home/cuil/workspace/arm/lm3s811/TI_Stellaris/driverlib/usb.c **** {
 9536              		.loc 1 161 0
 9537              		.cfi_startproc
 9538              		@ args = 0, pretend = 0, frame = 24
 9539              		@ frame_needed = 1, uses_anonymous_args = 0
 9540              		@ link register save eliminated.
 9541 0000 80B4     		push	{r7}
 9542              	.LCFI3:
 9543              		.cfi_def_cfa_offset 4
 9544 0002 87B0     		sub	sp, sp, #28
 9545              	.LCFI4:
 9546              		.cfi_def_cfa_offset 32
 9547 0004 00AF     		add	r7, sp, #0
 9548              		.cfi_offset 7, -4
 9549              	.LCFI5:
 9550              		.cfi_def_cfa_register 7
 9551 0006 F860     		str	r0, [r7, #12]
 9552 0008 B960     		str	r1, [r7, #8]
 9553 000a 7A60     		str	r2, [r7, #4]
 9554 000c 3B60     		str	r3, [r7, #0]
 162:/home/cuil/workspace/arm/lm3s811/TI_Stellaris/driverlib/usb.c ****     unsigned char ulIndex;
 163:/home/cuil/workspace/arm/lm3s811/TI_Stellaris/driverlib/usb.c ****     unsigned char ulValue;
 164:/home/cuil/workspace/arm/lm3s811/TI_Stellaris/driverlib/usb.c **** 
 165:/home/cuil/workspace/arm/lm3s811/TI_Stellaris/driverlib/usb.c ****     //
 166:/home/cuil/workspace/arm/lm3s811/TI_Stellaris/driverlib/usb.c ****     // Check the arguments.
 167:/home/cuil/workspace/arm/lm3s811/TI_Stellaris/driverlib/usb.c ****     //
 168:/home/cuil/workspace/arm/lm3s811/TI_Stellaris/driverlib/usb.c ****     ASSERT(ulBase == USB0_BASE);
 169:/home/cuil/workspace/arm/lm3s811/TI_Stellaris/driverlib/usb.c ****     ASSERT((ulEndpoint == 0) || (ulEndpoint == 1) || (ulEndpoint == 2) ||
 170:/home/cuil/workspace/arm/lm3s811/TI_Stellaris/driverlib/usb.c ****            (ulEndpoint == 3));
 171:/home/cuil/workspace/arm/lm3s811/TI_Stellaris/driverlib/usb.c ****     ASSERT((ulSize == 1) || (ulSize == 2));
 172:/home/cuil/workspace/arm/lm3s811/TI_Stellaris/driverlib/usb.c **** 
 173:/home/cuil/workspace/arm/lm3s811/TI_Stellaris/driverlib/usb.c ****     //
 174:/home/cuil/workspace/arm/lm3s811/TI_Stellaris/driverlib/usb.c ****     // Save the old index in case it was in use.
 175:/home/cuil/workspace/arm/lm3s811/TI_Stellaris/driverlib/usb.c ****     //
 176:/home/cuil/workspace/arm/lm3s811/TI_Stellaris/driverlib/usb.c ****     ulIndex = HWREGB(ulBase + USB_O_EPIDX);
 9555              		.loc 1 176 0
 9556 000e FB68     		ldr	r3, [r7, #12]
 9557 0010 03F10E03 		add	r3, r3, #14
 9558 0014 1B78     		ldrb	r3, [r3, #0]
 9559 0016 BB75     		strb	r3, [r7, #22]
 177:/home/cuil/workspace/arm/lm3s811/TI_Stellaris/driverlib/usb.c **** 
 178:/home/cuil/workspace/arm/lm3s811/TI_Stellaris/driverlib/usb.c ****     //
 179:/home/cuil/workspace/arm/lm3s811/TI_Stellaris/driverlib/usb.c ****     // Set the index.
 180:/home/cuil/workspace/arm/lm3s811/TI_Stellaris/driverlib/usb.c ****     //
 181:/home/cuil/workspace/arm/lm3s811/TI_Stellaris/driverlib/usb.c ****     HWREGB(ulBase + USB_O_EPIDX) = ulEndpoint;
 9560              		.loc 1 181 0
 9561 0018 FB68     		ldr	r3, [r7, #12]
 9562 001a 03F10E03 		add	r3, r3, #14
 9563 001e BA68     		ldr	r2, [r7, #8]
 9564 0020 D2B2     		uxtb	r2, r2
 9565 0022 1A70     		strb	r2, [r3, #0]
 182:/home/cuil/workspace/arm/lm3s811/TI_Stellaris/driverlib/usb.c **** 
 183:/home/cuil/workspace/arm/lm3s811/TI_Stellaris/driverlib/usb.c ****     //
 184:/home/cuil/workspace/arm/lm3s811/TI_Stellaris/driverlib/usb.c ****     // Determine the size of the register value.
 185:/home/cuil/workspace/arm/lm3s811/TI_Stellaris/driverlib/usb.c ****     //
 186:/home/cuil/workspace/arm/lm3s811/TI_Stellaris/driverlib/usb.c ****     if(ulSize == 1)
 9566              		.loc 1 186 0
 9567 0024 3B68     		ldr	r3, [r7, #0]
 9568 0026 012B     		cmp	r3, #1
 9569 0028 05D1     		bne	.L5
 187:/home/cuil/workspace/arm/lm3s811/TI_Stellaris/driverlib/usb.c ****     {
 188:/home/cuil/workspace/arm/lm3s811/TI_Stellaris/driverlib/usb.c ****         //
 189:/home/cuil/workspace/arm/lm3s811/TI_Stellaris/driverlib/usb.c ****         // Get the value.
 190:/home/cuil/workspace/arm/lm3s811/TI_Stellaris/driverlib/usb.c ****         //
 191:/home/cuil/workspace/arm/lm3s811/TI_Stellaris/driverlib/usb.c ****         ulValue = HWREGB(ulBase + ulIndexedReg);
 9570              		.loc 1 191 0
 9571 002a FA68     		ldr	r2, [r7, #12]
 9572 002c 7B68     		ldr	r3, [r7, #4]
 9573 002e D318     		adds	r3, r2, r3
 9574 0030 1B78     		ldrb	r3, [r3, #0]
 9575 0032 FB75     		strb	r3, [r7, #23]
 9576 0034 05E0     		b	.L6
 9577              	.L5:
 192:/home/cuil/workspace/arm/lm3s811/TI_Stellaris/driverlib/usb.c ****     }
 193:/home/cuil/workspace/arm/lm3s811/TI_Stellaris/driverlib/usb.c ****     else
 194:/home/cuil/workspace/arm/lm3s811/TI_Stellaris/driverlib/usb.c ****     {
 195:/home/cuil/workspace/arm/lm3s811/TI_Stellaris/driverlib/usb.c ****         //
 196:/home/cuil/workspace/arm/lm3s811/TI_Stellaris/driverlib/usb.c ****         // Get the value.
 197:/home/cuil/workspace/arm/lm3s811/TI_Stellaris/driverlib/usb.c ****         //
 198:/home/cuil/workspace/arm/lm3s811/TI_Stellaris/driverlib/usb.c ****         ulValue = HWREGH(ulBase + ulIndexedReg);
 9578              		.loc 1 198 0
 9579 0036 FA68     		ldr	r2, [r7, #12]
 9580 0038 7B68     		ldr	r3, [r7, #4]
 9581 003a D318     		adds	r3, r2, r3
 9582 003c 1B88     		ldrh	r3, [r3, #0]	@ movhi
 9583 003e 9BB2     		uxth	r3, r3
 9584 0040 FB75     		strb	r3, [r7, #23]
 9585              	.L6:
 199:/home/cuil/workspace/arm/lm3s811/TI_Stellaris/driverlib/usb.c ****     }
 200:/home/cuil/workspace/arm/lm3s811/TI_Stellaris/driverlib/usb.c **** 
 201:/home/cuil/workspace/arm/lm3s811/TI_Stellaris/driverlib/usb.c ****     //
 202:/home/cuil/workspace/arm/lm3s811/TI_Stellaris/driverlib/usb.c ****     // Restore the old index in case it was in use.
 203:/home/cuil/workspace/arm/lm3s811/TI_Stellaris/driverlib/usb.c ****     //
 204:/home/cuil/workspace/arm/lm3s811/TI_Stellaris/driverlib/usb.c ****     HWREGB(ulBase + USB_O_EPIDX) = ulIndex;
 9586              		.loc 1 204 0
 9587 0042 FB68     		ldr	r3, [r7, #12]
 9588 0044 03F10E03 		add	r3, r3, #14
 9589 0048 BA7D     		ldrb	r2, [r7, #22]
 9590 004a 1A70     		strb	r2, [r3, #0]
 205:/home/cuil/workspace/arm/lm3s811/TI_Stellaris/driverlib/usb.c **** 
 206:/home/cuil/workspace/arm/lm3s811/TI_Stellaris/driverlib/usb.c ****     //
 207:/home/cuil/workspace/arm/lm3s811/TI_Stellaris/driverlib/usb.c ****     // Return the register's value.
 208:/home/cuil/workspace/arm/lm3s811/TI_Stellaris/driverlib/usb.c ****     //
 209:/home/cuil/workspace/arm/lm3s811/TI_Stellaris/driverlib/usb.c ****     return(ulValue);
 9591              		.loc 1 209 0
 9592 004c FB7D     		ldrb	r3, [r7, #23]	@ zero_extendqisi2
 210:/home/cuil/workspace/arm/lm3s811/TI_Stellaris/driverlib/usb.c **** }
 9593              		.loc 1 210 0
 9594 004e 1846     		mov	r0, r3
 9595 0050 07F11C07 		add	r7, r7, #28
 9596 0054 BD46     		mov	sp, r7
 9597 0056 80BC     		pop	{r7}
 9598 0058 7047     		bx	lr
 9599              		.cfi_endproc
 9600              	.LFE1:
 9602 005a 00BF     		.section	.text.USBHostSuspend,"ax",%progbits
 9603              		.align	2
 9604              		.global	USBHostSuspend
 9605              		.thumb
 9606              		.thumb_func
 9608              	USBHostSuspend:
 9609              	.LFB2:
 211:/home/cuil/workspace/arm/lm3s811/TI_Stellaris/driverlib/usb.c **** 
 212:/home/cuil/workspace/arm/lm3s811/TI_Stellaris/driverlib/usb.c **** //*****************************************************************************
 213:/home/cuil/workspace/arm/lm3s811/TI_Stellaris/driverlib/usb.c **** //
 214:/home/cuil/workspace/arm/lm3s811/TI_Stellaris/driverlib/usb.c **** //! Puts the USB bus in a suspended state.
 215:/home/cuil/workspace/arm/lm3s811/TI_Stellaris/driverlib/usb.c **** //!
 216:/home/cuil/workspace/arm/lm3s811/TI_Stellaris/driverlib/usb.c **** //! \param ulBase specifies the USB module base address.
 217:/home/cuil/workspace/arm/lm3s811/TI_Stellaris/driverlib/usb.c **** //!
 218:/home/cuil/workspace/arm/lm3s811/TI_Stellaris/driverlib/usb.c **** //! When used in host mode, this function puts the USB bus in the suspended
 219:/home/cuil/workspace/arm/lm3s811/TI_Stellaris/driverlib/usb.c **** //! state.
 220:/home/cuil/workspace/arm/lm3s811/TI_Stellaris/driverlib/usb.c **** //!
 221:/home/cuil/workspace/arm/lm3s811/TI_Stellaris/driverlib/usb.c **** //! \note This function should only be called in host mode.
 222:/home/cuil/workspace/arm/lm3s811/TI_Stellaris/driverlib/usb.c **** //!
 223:/home/cuil/workspace/arm/lm3s811/TI_Stellaris/driverlib/usb.c **** //! \return None.
 224:/home/cuil/workspace/arm/lm3s811/TI_Stellaris/driverlib/usb.c **** //
 225:/home/cuil/workspace/arm/lm3s811/TI_Stellaris/driverlib/usb.c **** //*****************************************************************************
 226:/home/cuil/workspace/arm/lm3s811/TI_Stellaris/driverlib/usb.c **** void
 227:/home/cuil/workspace/arm/lm3s811/TI_Stellaris/driverlib/usb.c **** USBHostSuspend(unsigned long ulBase)
 228:/home/cuil/workspace/arm/lm3s811/TI_Stellaris/driverlib/usb.c **** {
 9610              		.loc 1 228 0
 9611              		.cfi_startproc
 9612              		@ args = 0, pretend = 0, frame = 8
 9613              		@ frame_needed = 1, uses_anonymous_args = 0
 9614              		@ link register save eliminated.
 9615 0000 80B4     		push	{r7}
 9616              	.LCFI6:
 9617              		.cfi_def_cfa_offset 4
 9618 0002 83B0     		sub	sp, sp, #12
 9619              	.LCFI7:
 9620              		.cfi_def_cfa_offset 16
 9621 0004 00AF     		add	r7, sp, #0
 9622              		.cfi_offset 7, -4
 9623              	.LCFI8:
 9624              		.cfi_def_cfa_register 7
 9625 0006 7860     		str	r0, [r7, #4]
 229:/home/cuil/workspace/arm/lm3s811/TI_Stellaris/driverlib/usb.c ****     //
 230:/home/cuil/workspace/arm/lm3s811/TI_Stellaris/driverlib/usb.c ****     // Check the arguments.
 231:/home/cuil/workspace/arm/lm3s811/TI_Stellaris/driverlib/usb.c ****     //
 232:/home/cuil/workspace/arm/lm3s811/TI_Stellaris/driverlib/usb.c ****     ASSERT(ulBase == USB0_BASE);
 233:/home/cuil/workspace/arm/lm3s811/TI_Stellaris/driverlib/usb.c **** 
 234:/home/cuil/workspace/arm/lm3s811/TI_Stellaris/driverlib/usb.c ****     //
 235:/home/cuil/workspace/arm/lm3s811/TI_Stellaris/driverlib/usb.c ****     // Send the suspend signaling to the USB bus.
 236:/home/cuil/workspace/arm/lm3s811/TI_Stellaris/driverlib/usb.c ****     //
 237:/home/cuil/workspace/arm/lm3s811/TI_Stellaris/driverlib/usb.c ****     HWREGB(ulBase + USB_O_POWER) |= USB_POWER_SUSPEND;
 9626              		.loc 1 237 0
 9627 0008 7B68     		ldr	r3, [r7, #4]
 9628 000a 03F10103 		add	r3, r3, #1
 9629 000e 7A68     		ldr	r2, [r7, #4]
 9630 0010 02F10102 		add	r2, r2, #1
 9631 0014 1278     		ldrb	r2, [r2, #0]
 9632 0016 D2B2     		uxtb	r2, r2
 9633 0018 42F00202 		orr	r2, r2, #2
 9634 001c D2B2     		uxtb	r2, r2
 9635 001e 1A70     		strb	r2, [r3, #0]
 238:/home/cuil/workspace/arm/lm3s811/TI_Stellaris/driverlib/usb.c **** }
 9636              		.loc 1 238 0
 9637 0020 07F10C07 		add	r7, r7, #12
 9638 0024 BD46     		mov	sp, r7
 9639 0026 80BC     		pop	{r7}
 9640 0028 7047     		bx	lr
 9641              		.cfi_endproc
 9642              	.LFE2:
 9644 002a 00BF     		.section	.text.USBHostReset,"ax",%progbits
 9645              		.align	2
 9646              		.global	USBHostReset
 9647              		.thumb
 9648              		.thumb_func
 9650              	USBHostReset:
 9651              	.LFB3:
 239:/home/cuil/workspace/arm/lm3s811/TI_Stellaris/driverlib/usb.c **** 
 240:/home/cuil/workspace/arm/lm3s811/TI_Stellaris/driverlib/usb.c **** //*****************************************************************************
 241:/home/cuil/workspace/arm/lm3s811/TI_Stellaris/driverlib/usb.c **** //
 242:/home/cuil/workspace/arm/lm3s811/TI_Stellaris/driverlib/usb.c **** //! Handles the USB bus reset condition.
 243:/home/cuil/workspace/arm/lm3s811/TI_Stellaris/driverlib/usb.c **** //!
 244:/home/cuil/workspace/arm/lm3s811/TI_Stellaris/driverlib/usb.c **** //! \param ulBase specifies the USB module base address.
 245:/home/cuil/workspace/arm/lm3s811/TI_Stellaris/driverlib/usb.c **** //! \param bStart specifies whether to start or stop signaling reset on the USB
 246:/home/cuil/workspace/arm/lm3s811/TI_Stellaris/driverlib/usb.c **** //! bus.
 247:/home/cuil/workspace/arm/lm3s811/TI_Stellaris/driverlib/usb.c **** //!
 248:/home/cuil/workspace/arm/lm3s811/TI_Stellaris/driverlib/usb.c **** //! When this function is called with the \e bStart parameter set to \b true,
 249:/home/cuil/workspace/arm/lm3s811/TI_Stellaris/driverlib/usb.c **** //! this function causes the start of a reset condition on the USB bus.
 250:/home/cuil/workspace/arm/lm3s811/TI_Stellaris/driverlib/usb.c **** //! The caller should then delay at least 20ms before calling this function
 251:/home/cuil/workspace/arm/lm3s811/TI_Stellaris/driverlib/usb.c **** //! again with the \e bStart parameter set to \b false.
 252:/home/cuil/workspace/arm/lm3s811/TI_Stellaris/driverlib/usb.c **** //!
 253:/home/cuil/workspace/arm/lm3s811/TI_Stellaris/driverlib/usb.c **** //! \note This function should only be called in host mode.
 254:/home/cuil/workspace/arm/lm3s811/TI_Stellaris/driverlib/usb.c **** //!
 255:/home/cuil/workspace/arm/lm3s811/TI_Stellaris/driverlib/usb.c **** //! \return None.
 256:/home/cuil/workspace/arm/lm3s811/TI_Stellaris/driverlib/usb.c **** //
 257:/home/cuil/workspace/arm/lm3s811/TI_Stellaris/driverlib/usb.c **** //*****************************************************************************
 258:/home/cuil/workspace/arm/lm3s811/TI_Stellaris/driverlib/usb.c **** void
 259:/home/cuil/workspace/arm/lm3s811/TI_Stellaris/driverlib/usb.c **** USBHostReset(unsigned long ulBase, tBoolean bStart)
 260:/home/cuil/workspace/arm/lm3s811/TI_Stellaris/driverlib/usb.c **** {
 9652              		.loc 1 260 0
 9653              		.cfi_startproc
 9654              		@ args = 0, pretend = 0, frame = 8
 9655              		@ frame_needed = 1, uses_anonymous_args = 0
 9656              		@ link register save eliminated.
 9657 0000 80B4     		push	{r7}
 9658              	.LCFI9:
 9659              		.cfi_def_cfa_offset 4
 9660 0002 83B0     		sub	sp, sp, #12
 9661              	.LCFI10:
 9662              		.cfi_def_cfa_offset 16
 9663 0004 00AF     		add	r7, sp, #0
 9664              		.cfi_offset 7, -4
 9665              	.LCFI11:
 9666              		.cfi_def_cfa_register 7
 9667 0006 7860     		str	r0, [r7, #4]
 9668 0008 0B46     		mov	r3, r1
 9669 000a FB70     		strb	r3, [r7, #3]
 261:/home/cuil/workspace/arm/lm3s811/TI_Stellaris/driverlib/usb.c ****     //
 262:/home/cuil/workspace/arm/lm3s811/TI_Stellaris/driverlib/usb.c ****     // Check the arguments.
 263:/home/cuil/workspace/arm/lm3s811/TI_Stellaris/driverlib/usb.c ****     //
 264:/home/cuil/workspace/arm/lm3s811/TI_Stellaris/driverlib/usb.c ****     ASSERT(ulBase == USB0_BASE);
 265:/home/cuil/workspace/arm/lm3s811/TI_Stellaris/driverlib/usb.c **** 
 266:/home/cuil/workspace/arm/lm3s811/TI_Stellaris/driverlib/usb.c ****     //
 267:/home/cuil/workspace/arm/lm3s811/TI_Stellaris/driverlib/usb.c ****     // Send a reset signal to the bus.
 268:/home/cuil/workspace/arm/lm3s811/TI_Stellaris/driverlib/usb.c ****     //
 269:/home/cuil/workspace/arm/lm3s811/TI_Stellaris/driverlib/usb.c ****     if(bStart)
 9670              		.loc 1 269 0
 9671 000c FB78     		ldrb	r3, [r7, #3]	@ zero_extendqisi2
 9672 000e 002B     		cmp	r3, #0
 9673 0010 0CD0     		beq	.L9
 270:/home/cuil/workspace/arm/lm3s811/TI_Stellaris/driverlib/usb.c ****     {
 271:/home/cuil/workspace/arm/lm3s811/TI_Stellaris/driverlib/usb.c ****         HWREGB(ulBase + USB_O_POWER) |= USB_POWER_RESET;
 9674              		.loc 1 271 0
 9675 0012 7B68     		ldr	r3, [r7, #4]
 9676 0014 03F10103 		add	r3, r3, #1
 9677 0018 7A68     		ldr	r2, [r7, #4]
 9678 001a 02F10102 		add	r2, r2, #1
 9679 001e 1278     		ldrb	r2, [r2, #0]
 9680 0020 D2B2     		uxtb	r2, r2
 9681 0022 42F00802 		orr	r2, r2, #8
 9682 0026 D2B2     		uxtb	r2, r2
 9683 0028 1A70     		strb	r2, [r3, #0]
 9684 002a 0BE0     		b	.L8
 9685              	.L9:
 272:/home/cuil/workspace/arm/lm3s811/TI_Stellaris/driverlib/usb.c ****     }
 273:/home/cuil/workspace/arm/lm3s811/TI_Stellaris/driverlib/usb.c ****     else
 274:/home/cuil/workspace/arm/lm3s811/TI_Stellaris/driverlib/usb.c ****     {
 275:/home/cuil/workspace/arm/lm3s811/TI_Stellaris/driverlib/usb.c ****         HWREGB(ulBase + USB_O_POWER) &= ~USB_POWER_RESET;
 9686              		.loc 1 275 0
 9687 002c 7B68     		ldr	r3, [r7, #4]
 9688 002e 03F10103 		add	r3, r3, #1
 9689 0032 7A68     		ldr	r2, [r7, #4]
 9690 0034 02F10102 		add	r2, r2, #1
 9691 0038 1278     		ldrb	r2, [r2, #0]
 9692 003a D2B2     		uxtb	r2, r2
 9693 003c 22F00802 		bic	r2, r2, #8
 9694 0040 D2B2     		uxtb	r2, r2
 9695 0042 1A70     		strb	r2, [r3, #0]
 9696              	.L8:
 276:/home/cuil/workspace/arm/lm3s811/TI_Stellaris/driverlib/usb.c ****     }
 277:/home/cuil/workspace/arm/lm3s811/TI_Stellaris/driverlib/usb.c **** }
 9697              		.loc 1 277 0
 9698 0044 07F10C07 		add	r7, r7, #12
 9699 0048 BD46     		mov	sp, r7
 9700 004a 80BC     		pop	{r7}
 9701 004c 7047     		bx	lr
 9702              		.cfi_endproc
 9703              	.LFE3:
 9705 004e 00BF     		.section	.text.USBHostResume,"ax",%progbits
 9706              		.align	2
 9707              		.global	USBHostResume
 9708              		.thumb
 9709              		.thumb_func
 9711              	USBHostResume:
 9712              	.LFB4:
 278:/home/cuil/workspace/arm/lm3s811/TI_Stellaris/driverlib/usb.c **** 
 279:/home/cuil/workspace/arm/lm3s811/TI_Stellaris/driverlib/usb.c **** //*****************************************************************************
 280:/home/cuil/workspace/arm/lm3s811/TI_Stellaris/driverlib/usb.c **** //
 281:/home/cuil/workspace/arm/lm3s811/TI_Stellaris/driverlib/usb.c **** //! Handles the USB bus resume condition.
 282:/home/cuil/workspace/arm/lm3s811/TI_Stellaris/driverlib/usb.c **** //!
 283:/home/cuil/workspace/arm/lm3s811/TI_Stellaris/driverlib/usb.c **** //! \param ulBase specifies the USB module base address.
 284:/home/cuil/workspace/arm/lm3s811/TI_Stellaris/driverlib/usb.c **** //! \param bStart specifies if the USB controller is entering or leaving the
 285:/home/cuil/workspace/arm/lm3s811/TI_Stellaris/driverlib/usb.c **** //! resume signaling state.
 286:/home/cuil/workspace/arm/lm3s811/TI_Stellaris/driverlib/usb.c **** //!
 287:/home/cuil/workspace/arm/lm3s811/TI_Stellaris/driverlib/usb.c **** //! When in device mode, this function brings the USB controller out of the
 288:/home/cuil/workspace/arm/lm3s811/TI_Stellaris/driverlib/usb.c **** //! suspend state.  This call should first be made with the \e bStart parameter
 289:/home/cuil/workspace/arm/lm3s811/TI_Stellaris/driverlib/usb.c **** //! set to \b true to start resume signaling.  The device application should
 290:/home/cuil/workspace/arm/lm3s811/TI_Stellaris/driverlib/usb.c **** //! then delay at least 10ms but not more than 15ms before calling this
 291:/home/cuil/workspace/arm/lm3s811/TI_Stellaris/driverlib/usb.c **** //! function with the \e bStart parameter set to \b false.
 292:/home/cuil/workspace/arm/lm3s811/TI_Stellaris/driverlib/usb.c **** //!
 293:/home/cuil/workspace/arm/lm3s811/TI_Stellaris/driverlib/usb.c **** //! When in host mode, this function signals devices to leave the suspend
 294:/home/cuil/workspace/arm/lm3s811/TI_Stellaris/driverlib/usb.c **** //! state.  This call should first be made with the \e bStart parameter set to
 295:/home/cuil/workspace/arm/lm3s811/TI_Stellaris/driverlib/usb.c **** //! \b true to start resume signaling.  The host application should then delay
 296:/home/cuil/workspace/arm/lm3s811/TI_Stellaris/driverlib/usb.c **** //! at least 20ms before calling this function with the \e bStart parameter set
 297:/home/cuil/workspace/arm/lm3s811/TI_Stellaris/driverlib/usb.c **** //! to \b false.  This action causes the controller to complete the resume
 298:/home/cuil/workspace/arm/lm3s811/TI_Stellaris/driverlib/usb.c **** //! signaling on the USB bus.
 299:/home/cuil/workspace/arm/lm3s811/TI_Stellaris/driverlib/usb.c **** //!
 300:/home/cuil/workspace/arm/lm3s811/TI_Stellaris/driverlib/usb.c **** //! \return None.
 301:/home/cuil/workspace/arm/lm3s811/TI_Stellaris/driverlib/usb.c **** //
 302:/home/cuil/workspace/arm/lm3s811/TI_Stellaris/driverlib/usb.c **** //*****************************************************************************
 303:/home/cuil/workspace/arm/lm3s811/TI_Stellaris/driverlib/usb.c **** void
 304:/home/cuil/workspace/arm/lm3s811/TI_Stellaris/driverlib/usb.c **** USBHostResume(unsigned long ulBase, tBoolean bStart)
 305:/home/cuil/workspace/arm/lm3s811/TI_Stellaris/driverlib/usb.c **** {
 9713              		.loc 1 305 0
 9714              		.cfi_startproc
 9715              		@ args = 0, pretend = 0, frame = 8
 9716              		@ frame_needed = 1, uses_anonymous_args = 0
 9717              		@ link register save eliminated.
 9718 0000 80B4     		push	{r7}
 9719              	.LCFI12:
 9720              		.cfi_def_cfa_offset 4
 9721 0002 83B0     		sub	sp, sp, #12
 9722              	.LCFI13:
 9723              		.cfi_def_cfa_offset 16
 9724 0004 00AF     		add	r7, sp, #0
 9725              		.cfi_offset 7, -4
 9726              	.LCFI14:
 9727              		.cfi_def_cfa_register 7
 9728 0006 7860     		str	r0, [r7, #4]
 9729 0008 0B46     		mov	r3, r1
 9730 000a FB70     		strb	r3, [r7, #3]
 306:/home/cuil/workspace/arm/lm3s811/TI_Stellaris/driverlib/usb.c ****     //
 307:/home/cuil/workspace/arm/lm3s811/TI_Stellaris/driverlib/usb.c ****     // Check the arguments.
 308:/home/cuil/workspace/arm/lm3s811/TI_Stellaris/driverlib/usb.c ****     //
 309:/home/cuil/workspace/arm/lm3s811/TI_Stellaris/driverlib/usb.c ****     ASSERT(ulBase == USB0_BASE);
 310:/home/cuil/workspace/arm/lm3s811/TI_Stellaris/driverlib/usb.c **** 
 311:/home/cuil/workspace/arm/lm3s811/TI_Stellaris/driverlib/usb.c ****     //
 312:/home/cuil/workspace/arm/lm3s811/TI_Stellaris/driverlib/usb.c ****     // Send a resume signal to the bus.
 313:/home/cuil/workspace/arm/lm3s811/TI_Stellaris/driverlib/usb.c ****     //
 314:/home/cuil/workspace/arm/lm3s811/TI_Stellaris/driverlib/usb.c ****     if(bStart)
 9731              		.loc 1 314 0
 9732 000c FB78     		ldrb	r3, [r7, #3]	@ zero_extendqisi2
 9733 000e 002B     		cmp	r3, #0
 9734 0010 0CD0     		beq	.L12
 315:/home/cuil/workspace/arm/lm3s811/TI_Stellaris/driverlib/usb.c ****     {
 316:/home/cuil/workspace/arm/lm3s811/TI_Stellaris/driverlib/usb.c ****         HWREGB(ulBase + USB_O_POWER) |= USB_POWER_RESUME;
 9735              		.loc 1 316 0
 9736 0012 7B68     		ldr	r3, [r7, #4]
 9737 0014 03F10103 		add	r3, r3, #1
 9738 0018 7A68     		ldr	r2, [r7, #4]
 9739 001a 02F10102 		add	r2, r2, #1
 9740 001e 1278     		ldrb	r2, [r2, #0]
 9741 0020 D2B2     		uxtb	r2, r2
 9742 0022 42F00402 		orr	r2, r2, #4
 9743 0026 D2B2     		uxtb	r2, r2
 9744 0028 1A70     		strb	r2, [r3, #0]
 9745 002a 0BE0     		b	.L11
 9746              	.L12:
 317:/home/cuil/workspace/arm/lm3s811/TI_Stellaris/driverlib/usb.c ****     }
 318:/home/cuil/workspace/arm/lm3s811/TI_Stellaris/driverlib/usb.c ****     else
 319:/home/cuil/workspace/arm/lm3s811/TI_Stellaris/driverlib/usb.c ****     {
 320:/home/cuil/workspace/arm/lm3s811/TI_Stellaris/driverlib/usb.c ****         HWREGB(ulBase + USB_O_POWER) &= ~USB_POWER_RESUME;
 9747              		.loc 1 320 0
 9748 002c 7B68     		ldr	r3, [r7, #4]
 9749 002e 03F10103 		add	r3, r3, #1
 9750 0032 7A68     		ldr	r2, [r7, #4]
 9751 0034 02F10102 		add	r2, r2, #1
 9752 0038 1278     		ldrb	r2, [r2, #0]
 9753 003a D2B2     		uxtb	r2, r2
 9754 003c 22F00402 		bic	r2, r2, #4
 9755 0040 D2B2     		uxtb	r2, r2
 9756 0042 1A70     		strb	r2, [r3, #0]
 9757              	.L11:
 321:/home/cuil/workspace/arm/lm3s811/TI_Stellaris/driverlib/usb.c ****     }
 322:/home/cuil/workspace/arm/lm3s811/TI_Stellaris/driverlib/usb.c **** }
 9758              		.loc 1 322 0
 9759 0044 07F10C07 		add	r7, r7, #12
 9760 0048 BD46     		mov	sp, r7
 9761 004a 80BC     		pop	{r7}
 9762 004c 7047     		bx	lr
 9763              		.cfi_endproc
 9764              	.LFE4:
 9766 004e 00BF     		.section	.text.USBHostSpeedGet,"ax",%progbits
 9767              		.align	2
 9768              		.global	USBHostSpeedGet
 9769              		.thumb
 9770              		.thumb_func
 9772              	USBHostSpeedGet:
 9773              	.LFB5:
 323:/home/cuil/workspace/arm/lm3s811/TI_Stellaris/driverlib/usb.c **** 
 324:/home/cuil/workspace/arm/lm3s811/TI_Stellaris/driverlib/usb.c **** //*****************************************************************************
 325:/home/cuil/workspace/arm/lm3s811/TI_Stellaris/driverlib/usb.c **** //
 326:/home/cuil/workspace/arm/lm3s811/TI_Stellaris/driverlib/usb.c **** //! Returns the current speed of the USB device connected.
 327:/home/cuil/workspace/arm/lm3s811/TI_Stellaris/driverlib/usb.c **** //!
 328:/home/cuil/workspace/arm/lm3s811/TI_Stellaris/driverlib/usb.c **** //! \param ulBase specifies the USB module base address.
 329:/home/cuil/workspace/arm/lm3s811/TI_Stellaris/driverlib/usb.c **** //!
 330:/home/cuil/workspace/arm/lm3s811/TI_Stellaris/driverlib/usb.c **** //! This function returns the current speed of the USB bus.
 331:/home/cuil/workspace/arm/lm3s811/TI_Stellaris/driverlib/usb.c **** //!
 332:/home/cuil/workspace/arm/lm3s811/TI_Stellaris/driverlib/usb.c **** //! \note This function should only be called in host mode.
 333:/home/cuil/workspace/arm/lm3s811/TI_Stellaris/driverlib/usb.c **** //!
 334:/home/cuil/workspace/arm/lm3s811/TI_Stellaris/driverlib/usb.c **** //! \return Returns either \b USB_LOW_SPEED, \b USB_FULL_SPEED, or
 335:/home/cuil/workspace/arm/lm3s811/TI_Stellaris/driverlib/usb.c **** //! \b USB_UNDEF_SPEED.
 336:/home/cuil/workspace/arm/lm3s811/TI_Stellaris/driverlib/usb.c **** //
 337:/home/cuil/workspace/arm/lm3s811/TI_Stellaris/driverlib/usb.c **** //*****************************************************************************
 338:/home/cuil/workspace/arm/lm3s811/TI_Stellaris/driverlib/usb.c **** unsigned long
 339:/home/cuil/workspace/arm/lm3s811/TI_Stellaris/driverlib/usb.c **** USBHostSpeedGet(unsigned long ulBase)
 340:/home/cuil/workspace/arm/lm3s811/TI_Stellaris/driverlib/usb.c **** {
 9774              		.loc 1 340 0
 9775              		.cfi_startproc
 9776              		@ args = 0, pretend = 0, frame = 8
 9777              		@ frame_needed = 1, uses_anonymous_args = 0
 9778              		@ link register save eliminated.
 9779 0000 80B4     		push	{r7}
 9780              	.LCFI15:
 9781              		.cfi_def_cfa_offset 4
 9782 0002 83B0     		sub	sp, sp, #12
 9783              	.LCFI16:
 9784              		.cfi_def_cfa_offset 16
 9785 0004 00AF     		add	r7, sp, #0
 9786              		.cfi_offset 7, -4
 9787              	.LCFI17:
 9788              		.cfi_def_cfa_register 7
 9789 0006 7860     		str	r0, [r7, #4]
 341:/home/cuil/workspace/arm/lm3s811/TI_Stellaris/driverlib/usb.c ****     //
 342:/home/cuil/workspace/arm/lm3s811/TI_Stellaris/driverlib/usb.c ****     // Check the arguments.
 343:/home/cuil/workspace/arm/lm3s811/TI_Stellaris/driverlib/usb.c ****     //
 344:/home/cuil/workspace/arm/lm3s811/TI_Stellaris/driverlib/usb.c ****     ASSERT(ulBase == USB0_BASE);
 345:/home/cuil/workspace/arm/lm3s811/TI_Stellaris/driverlib/usb.c **** 
 346:/home/cuil/workspace/arm/lm3s811/TI_Stellaris/driverlib/usb.c ****     //
 347:/home/cuil/workspace/arm/lm3s811/TI_Stellaris/driverlib/usb.c ****     // If the Full Speed device bit is set, then this is a full speed device.
 348:/home/cuil/workspace/arm/lm3s811/TI_Stellaris/driverlib/usb.c ****     //
 349:/home/cuil/workspace/arm/lm3s811/TI_Stellaris/driverlib/usb.c ****     if(HWREGB(ulBase + USB_O_DEVCTL) & USB_DEVCTL_FSDEV)
 9790              		.loc 1 349 0
 9791 0008 7B68     		ldr	r3, [r7, #4]
 9792 000a 03F16003 		add	r3, r3, #96
 9793 000e 1B78     		ldrb	r3, [r3, #0]
 9794 0010 DBB2     		uxtb	r3, r3
 9795 0012 03F04003 		and	r3, r3, #64
 9796 0016 002B     		cmp	r3, #0
 9797 0018 02D0     		beq	.L15
 350:/home/cuil/workspace/arm/lm3s811/TI_Stellaris/driverlib/usb.c ****     {
 351:/home/cuil/workspace/arm/lm3s811/TI_Stellaris/driverlib/usb.c ****         return(USB_FULL_SPEED);
 9798              		.loc 1 351 0
 9799 001a 4FF00103 		mov	r3, #1
 9800 001e 0DE0     		b	.L16
 9801              	.L15:
 352:/home/cuil/workspace/arm/lm3s811/TI_Stellaris/driverlib/usb.c ****     }
 353:/home/cuil/workspace/arm/lm3s811/TI_Stellaris/driverlib/usb.c **** 
 354:/home/cuil/workspace/arm/lm3s811/TI_Stellaris/driverlib/usb.c ****     //
 355:/home/cuil/workspace/arm/lm3s811/TI_Stellaris/driverlib/usb.c ****     // If the Low Speed device bit is set, then this is a low speed device.
 356:/home/cuil/workspace/arm/lm3s811/TI_Stellaris/driverlib/usb.c ****     //
 357:/home/cuil/workspace/arm/lm3s811/TI_Stellaris/driverlib/usb.c ****     if(HWREGB(ulBase + USB_O_DEVCTL) & USB_DEVCTL_LSDEV)
 9802              		.loc 1 357 0
 9803 0020 7B68     		ldr	r3, [r7, #4]
 9804 0022 03F16003 		add	r3, r3, #96
 9805 0026 1B78     		ldrb	r3, [r3, #0]
 9806 0028 DBB2     		uxtb	r3, r3
 9807 002a 03F02003 		and	r3, r3, #32
 9808 002e 002B     		cmp	r3, #0
 9809 0030 02D0     		beq	.L17
 358:/home/cuil/workspace/arm/lm3s811/TI_Stellaris/driverlib/usb.c ****     {
 359:/home/cuil/workspace/arm/lm3s811/TI_Stellaris/driverlib/usb.c ****         return(USB_LOW_SPEED);
 9810              		.loc 1 359 0
 9811 0032 4FF00003 		mov	r3, #0
 9812 0036 01E0     		b	.L16
 9813              	.L17:
 360:/home/cuil/workspace/arm/lm3s811/TI_Stellaris/driverlib/usb.c ****     }
 361:/home/cuil/workspace/arm/lm3s811/TI_Stellaris/driverlib/usb.c **** 
 362:/home/cuil/workspace/arm/lm3s811/TI_Stellaris/driverlib/usb.c ****     //
 363:/home/cuil/workspace/arm/lm3s811/TI_Stellaris/driverlib/usb.c ****     // The device speed is not known.
 364:/home/cuil/workspace/arm/lm3s811/TI_Stellaris/driverlib/usb.c ****     //
 365:/home/cuil/workspace/arm/lm3s811/TI_Stellaris/driverlib/usb.c ****     return(USB_UNDEF_SPEED);
 9814              		.loc 1 365 0
 9815 0038 4FF00043 		mov	r3, #-2147483648
 9816              	.L16:
 366:/home/cuil/workspace/arm/lm3s811/TI_Stellaris/driverlib/usb.c **** }
 9817              		.loc 1 366 0
 9818 003c 1846     		mov	r0, r3
 9819 003e 07F10C07 		add	r7, r7, #12
 9820 0042 BD46     		mov	sp, r7
 9821 0044 80BC     		pop	{r7}
 9822 0046 7047     		bx	lr
 9823              		.cfi_endproc
 9824              	.LFE5:
 9826              		.section	.text.USBIntStatus,"ax",%progbits
 9827              		.align	2
 9828              		.global	USBIntStatus
 9829              		.thumb
 9830              		.thumb_func
 9832              	USBIntStatus:
 9833              	.LFB6:
 367:/home/cuil/workspace/arm/lm3s811/TI_Stellaris/driverlib/usb.c **** 
 368:/home/cuil/workspace/arm/lm3s811/TI_Stellaris/driverlib/usb.c **** //*****************************************************************************
 369:/home/cuil/workspace/arm/lm3s811/TI_Stellaris/driverlib/usb.c **** //
 370:/home/cuil/workspace/arm/lm3s811/TI_Stellaris/driverlib/usb.c **** //! Returns the status of the USB interrupts.
 371:/home/cuil/workspace/arm/lm3s811/TI_Stellaris/driverlib/usb.c **** //!
 372:/home/cuil/workspace/arm/lm3s811/TI_Stellaris/driverlib/usb.c **** //! \param ulBase specifies the USB module base address.
 373:/home/cuil/workspace/arm/lm3s811/TI_Stellaris/driverlib/usb.c **** //!
 374:/home/cuil/workspace/arm/lm3s811/TI_Stellaris/driverlib/usb.c **** //! This function reads the source of the interrupt for the USB controller.
 375:/home/cuil/workspace/arm/lm3s811/TI_Stellaris/driverlib/usb.c **** //! There are three groups of interrupt sources, IN Endpoints, OUT Endpoints,
 376:/home/cuil/workspace/arm/lm3s811/TI_Stellaris/driverlib/usb.c **** //! and general status changes.  This call returns the current status for
 377:/home/cuil/workspace/arm/lm3s811/TI_Stellaris/driverlib/usb.c **** //! all of these interrupts.  The bit values returned should be compared
 378:/home/cuil/workspace/arm/lm3s811/TI_Stellaris/driverlib/usb.c **** //! against the \b USB_HOST_IN, \b USB_HOST_OUT, \b USB_HOST_EP0,
 379:/home/cuil/workspace/arm/lm3s811/TI_Stellaris/driverlib/usb.c **** //! \b USB_DEV_IN, \b USB_DEV_OUT, and \b USB_DEV_EP0 values.
 380:/home/cuil/workspace/arm/lm3s811/TI_Stellaris/driverlib/usb.c **** //!
 381:/home/cuil/workspace/arm/lm3s811/TI_Stellaris/driverlib/usb.c **** //! \note This call clears the source of all of the general status interrupts.
 382:/home/cuil/workspace/arm/lm3s811/TI_Stellaris/driverlib/usb.c **** //! 
 383:/home/cuil/workspace/arm/lm3s811/TI_Stellaris/driverlib/usb.c **** //! \note WARNING: This API cannot be used on endpoint numbers greater than
 384:/home/cuil/workspace/arm/lm3s811/TI_Stellaris/driverlib/usb.c **** //! endpoint 3 so USBIntStatusControl() or USBIntStatusEndpoint() should be
 385:/home/cuil/workspace/arm/lm3s811/TI_Stellaris/driverlib/usb.c **** //! used instead.
 386:/home/cuil/workspace/arm/lm3s811/TI_Stellaris/driverlib/usb.c **** //!
 387:/home/cuil/workspace/arm/lm3s811/TI_Stellaris/driverlib/usb.c **** //! \return Returns the status of the sources for the USB controller's
 388:/home/cuil/workspace/arm/lm3s811/TI_Stellaris/driverlib/usb.c **** //! interrupt.
 389:/home/cuil/workspace/arm/lm3s811/TI_Stellaris/driverlib/usb.c **** //
 390:/home/cuil/workspace/arm/lm3s811/TI_Stellaris/driverlib/usb.c **** //*****************************************************************************
 391:/home/cuil/workspace/arm/lm3s811/TI_Stellaris/driverlib/usb.c **** #ifndef DEPRECATED
 392:/home/cuil/workspace/arm/lm3s811/TI_Stellaris/driverlib/usb.c **** unsigned long
 393:/home/cuil/workspace/arm/lm3s811/TI_Stellaris/driverlib/usb.c **** USBIntStatus(unsigned long ulBase)
 394:/home/cuil/workspace/arm/lm3s811/TI_Stellaris/driverlib/usb.c **** {
 9834              		.loc 1 394 0
 9835              		.cfi_startproc
 9836              		@ args = 0, pretend = 0, frame = 16
 9837              		@ frame_needed = 1, uses_anonymous_args = 0
 9838              		@ link register save eliminated.
 9839 0000 80B4     		push	{r7}
 9840              	.LCFI18:
 9841              		.cfi_def_cfa_offset 4
 9842 0002 85B0     		sub	sp, sp, #20
 9843              	.LCFI19:
 9844              		.cfi_def_cfa_offset 24
 9845 0004 00AF     		add	r7, sp, #0
 9846              		.cfi_offset 7, -4
 9847              	.LCFI20:
 9848              		.cfi_def_cfa_register 7
 9849 0006 7860     		str	r0, [r7, #4]
 395:/home/cuil/workspace/arm/lm3s811/TI_Stellaris/driverlib/usb.c ****     unsigned long ulStatus;
 396:/home/cuil/workspace/arm/lm3s811/TI_Stellaris/driverlib/usb.c **** 
 397:/home/cuil/workspace/arm/lm3s811/TI_Stellaris/driverlib/usb.c ****     //
 398:/home/cuil/workspace/arm/lm3s811/TI_Stellaris/driverlib/usb.c ****     // Check the arguments.
 399:/home/cuil/workspace/arm/lm3s811/TI_Stellaris/driverlib/usb.c ****     //
 400:/home/cuil/workspace/arm/lm3s811/TI_Stellaris/driverlib/usb.c ****     ASSERT(ulBase == USB0_BASE);
 401:/home/cuil/workspace/arm/lm3s811/TI_Stellaris/driverlib/usb.c **** 
 402:/home/cuil/workspace/arm/lm3s811/TI_Stellaris/driverlib/usb.c ****     //
 403:/home/cuil/workspace/arm/lm3s811/TI_Stellaris/driverlib/usb.c ****     // Get the transmit interrupt status.
 404:/home/cuil/workspace/arm/lm3s811/TI_Stellaris/driverlib/usb.c ****     //
 405:/home/cuil/workspace/arm/lm3s811/TI_Stellaris/driverlib/usb.c ****     ulStatus = (HWREGB(ulBase + USB_O_TXIS));
 9850              		.loc 1 405 0
 9851 0008 7B68     		ldr	r3, [r7, #4]
 9852 000a 03F10203 		add	r3, r3, #2
 9853 000e 1B78     		ldrb	r3, [r3, #0]
 9854 0010 DBB2     		uxtb	r3, r3
 9855 0012 FB60     		str	r3, [r7, #12]
 406:/home/cuil/workspace/arm/lm3s811/TI_Stellaris/driverlib/usb.c **** 
 407:/home/cuil/workspace/arm/lm3s811/TI_Stellaris/driverlib/usb.c ****     //
 408:/home/cuil/workspace/arm/lm3s811/TI_Stellaris/driverlib/usb.c ****     // Get the receive interrupt status, these bits go into the second byte of
 409:/home/cuil/workspace/arm/lm3s811/TI_Stellaris/driverlib/usb.c ****     // the returned value.
 410:/home/cuil/workspace/arm/lm3s811/TI_Stellaris/driverlib/usb.c ****     //
 411:/home/cuil/workspace/arm/lm3s811/TI_Stellaris/driverlib/usb.c ****     ulStatus |= (HWREGB(ulBase + USB_O_RXIS) << USB_INT_RX_SHIFT);
 9856              		.loc 1 411 0
 9857 0014 7B68     		ldr	r3, [r7, #4]
 9858 0016 03F10403 		add	r3, r3, #4
 9859 001a 1B78     		ldrb	r3, [r3, #0]
 9860 001c DBB2     		uxtb	r3, r3
 9861 001e 4FEA0323 		lsl	r3, r3, #8
 9862 0022 FA68     		ldr	r2, [r7, #12]
 9863 0024 42EA0303 		orr	r3, r2, r3
 9864 0028 FB60     		str	r3, [r7, #12]
 412:/home/cuil/workspace/arm/lm3s811/TI_Stellaris/driverlib/usb.c **** 
 413:/home/cuil/workspace/arm/lm3s811/TI_Stellaris/driverlib/usb.c ****     //
 414:/home/cuil/workspace/arm/lm3s811/TI_Stellaris/driverlib/usb.c ****     // Get the general interrupt status, these bits go into the upper 8 bits
 415:/home/cuil/workspace/arm/lm3s811/TI_Stellaris/driverlib/usb.c ****     // of the returned value.
 416:/home/cuil/workspace/arm/lm3s811/TI_Stellaris/driverlib/usb.c ****     //
 417:/home/cuil/workspace/arm/lm3s811/TI_Stellaris/driverlib/usb.c ****     ulStatus |= (HWREGB(ulBase + USB_O_IS) << USB_INT_STATUS_SHIFT);
 9865              		.loc 1 417 0
 9866 002a 7B68     		ldr	r3, [r7, #4]
 9867 002c 03F10A03 		add	r3, r3, #10
 9868 0030 1B78     		ldrb	r3, [r3, #0]
 9869 0032 DBB2     		uxtb	r3, r3
 9870 0034 4FEA0363 		lsl	r3, r3, #24
 9871 0038 FA68     		ldr	r2, [r7, #12]
 9872 003a 42EA0303 		orr	r3, r2, r3
 9873 003e FB60     		str	r3, [r7, #12]
 418:/home/cuil/workspace/arm/lm3s811/TI_Stellaris/driverlib/usb.c **** 
 419:/home/cuil/workspace/arm/lm3s811/TI_Stellaris/driverlib/usb.c ****     //
 420:/home/cuil/workspace/arm/lm3s811/TI_Stellaris/driverlib/usb.c ****     // Add the power fault status.
 421:/home/cuil/workspace/arm/lm3s811/TI_Stellaris/driverlib/usb.c ****     //
 422:/home/cuil/workspace/arm/lm3s811/TI_Stellaris/driverlib/usb.c ****     if(HWREG(ulBase + USB_O_EPCISC) & USB_EPCISC_PF)
 9874              		.loc 1 422 0
 9875 0040 7B68     		ldr	r3, [r7, #4]
 9876 0042 03F58063 		add	r3, r3, #1024
 9877 0046 03F10C03 		add	r3, r3, #12
 9878 004a 1B68     		ldr	r3, [r3, #0]
 9879 004c 03F00103 		and	r3, r3, #1
 9880 0050 DBB2     		uxtb	r3, r3
 9881 0052 002B     		cmp	r3, #0
 9882 0054 14D0     		beq	.L19
 423:/home/cuil/workspace/arm/lm3s811/TI_Stellaris/driverlib/usb.c ****     {
 424:/home/cuil/workspace/arm/lm3s811/TI_Stellaris/driverlib/usb.c ****         //
 425:/home/cuil/workspace/arm/lm3s811/TI_Stellaris/driverlib/usb.c ****         // Indicate a power fault was detected.
 426:/home/cuil/workspace/arm/lm3s811/TI_Stellaris/driverlib/usb.c ****         //
 427:/home/cuil/workspace/arm/lm3s811/TI_Stellaris/driverlib/usb.c ****         ulStatus |= USB_INT_POWER_FAULT;
 9883              		.loc 1 427 0
 9884 0056 FB68     		ldr	r3, [r7, #12]
 9885 0058 43F48033 		orr	r3, r3, #65536
 9886 005c FB60     		str	r3, [r7, #12]
 428:/home/cuil/workspace/arm/lm3s811/TI_Stellaris/driverlib/usb.c **** 
 429:/home/cuil/workspace/arm/lm3s811/TI_Stellaris/driverlib/usb.c ****         //
 430:/home/cuil/workspace/arm/lm3s811/TI_Stellaris/driverlib/usb.c ****         // Clear the power fault interrupt.
 431:/home/cuil/workspace/arm/lm3s811/TI_Stellaris/driverlib/usb.c ****         //
 432:/home/cuil/workspace/arm/lm3s811/TI_Stellaris/driverlib/usb.c ****         HWREGB(ulBase + USB_O_EPCISC) |= USB_EPCISC_PF;
 9887              		.loc 1 432 0
 9888 005e 7B68     		ldr	r3, [r7, #4]
 9889 0060 03F58063 		add	r3, r3, #1024
 9890 0064 03F10C03 		add	r3, r3, #12
 9891 0068 1A46     		mov	r2, r3
 9892 006a 7B68     		ldr	r3, [r7, #4]
 9893 006c 03F58063 		add	r3, r3, #1024
 9894 0070 03F10C03 		add	r3, r3, #12
 9895 0074 1B78     		ldrb	r3, [r3, #0]
 9896 0076 DBB2     		uxtb	r3, r3
 9897 0078 43F00103 		orr	r3, r3, #1
 9898 007c DBB2     		uxtb	r3, r3
 9899 007e 1370     		strb	r3, [r2, #0]
 9900              	.L19:
 433:/home/cuil/workspace/arm/lm3s811/TI_Stellaris/driverlib/usb.c ****     }
 434:/home/cuil/workspace/arm/lm3s811/TI_Stellaris/driverlib/usb.c **** 
 435:/home/cuil/workspace/arm/lm3s811/TI_Stellaris/driverlib/usb.c ****     if(HWREG(USB0_BASE + USB_O_IDVISC) & USB_IDVRIS_ID)
 9901              		.loc 1 435 0
 9902 0080 0B4B     		ldr	r3, .L21
 9903 0082 1B68     		ldr	r3, [r3, #0]
 9904 0084 03F00103 		and	r3, r3, #1
 9905 0088 DBB2     		uxtb	r3, r3
 9906 008a 002B     		cmp	r3, #0
 9907 008c 09D0     		beq	.L20
 436:/home/cuil/workspace/arm/lm3s811/TI_Stellaris/driverlib/usb.c ****     {
 437:/home/cuil/workspace/arm/lm3s811/TI_Stellaris/driverlib/usb.c ****         //
 438:/home/cuil/workspace/arm/lm3s811/TI_Stellaris/driverlib/usb.c ****         // Indicate an id detection was detected.
 439:/home/cuil/workspace/arm/lm3s811/TI_Stellaris/driverlib/usb.c ****         //
 440:/home/cuil/workspace/arm/lm3s811/TI_Stellaris/driverlib/usb.c ****         ulStatus |= USB_INT_MODE_DETECT;
 9908              		.loc 1 440 0
 9909 008e FB68     		ldr	r3, [r7, #12]
 9910 0090 43F40033 		orr	r3, r3, #131072
 9911 0094 FB60     		str	r3, [r7, #12]
 441:/home/cuil/workspace/arm/lm3s811/TI_Stellaris/driverlib/usb.c **** 
 442:/home/cuil/workspace/arm/lm3s811/TI_Stellaris/driverlib/usb.c ****         //
 443:/home/cuil/workspace/arm/lm3s811/TI_Stellaris/driverlib/usb.c ****         // Clear the id detection interrupt.
 444:/home/cuil/workspace/arm/lm3s811/TI_Stellaris/driverlib/usb.c ****         //
 445:/home/cuil/workspace/arm/lm3s811/TI_Stellaris/driverlib/usb.c ****         HWREG(USB0_BASE + USB_O_IDVISC) |= USB_IDVRIS_ID;
 9912              		.loc 1 445 0
 9913 0096 064B     		ldr	r3, .L21
 9914 0098 054A     		ldr	r2, .L21
 9915 009a 1268     		ldr	r2, [r2, #0]
 9916 009c 42F00102 		orr	r2, r2, #1
 9917 00a0 1A60     		str	r2, [r3, #0]
 9918              	.L20:
 446:/home/cuil/workspace/arm/lm3s811/TI_Stellaris/driverlib/usb.c ****     }
 447:/home/cuil/workspace/arm/lm3s811/TI_Stellaris/driverlib/usb.c **** 
 448:/home/cuil/workspace/arm/lm3s811/TI_Stellaris/driverlib/usb.c ****     //
 449:/home/cuil/workspace/arm/lm3s811/TI_Stellaris/driverlib/usb.c ****     // Return the combined interrupt status.
 450:/home/cuil/workspace/arm/lm3s811/TI_Stellaris/driverlib/usb.c ****     //
 451:/home/cuil/workspace/arm/lm3s811/TI_Stellaris/driverlib/usb.c ****     return(ulStatus);
 9919              		.loc 1 451 0
 9920 00a2 FB68     		ldr	r3, [r7, #12]
 452:/home/cuil/workspace/arm/lm3s811/TI_Stellaris/driverlib/usb.c **** }
 9921              		.loc 1 452 0
 9922 00a4 1846     		mov	r0, r3
 9923 00a6 07F11407 		add	r7, r7, #20
 9924 00aa BD46     		mov	sp, r7
 9925 00ac 80BC     		pop	{r7}
 9926 00ae 7047     		bx	lr
 9927              	.L22:
 9928              		.align	2
 9929              	.L21:
 9930 00b0 4C040540 		.word	1074070604
 9931              		.cfi_endproc
 9932              	.LFE6:
 9934              		.section	.text.USBIntDisable,"ax",%progbits
 9935              		.align	2
 9936              		.global	USBIntDisable
 9937              		.thumb
 9938              		.thumb_func
 9940              	USBIntDisable:
 9941              	.LFB7:
 453:/home/cuil/workspace/arm/lm3s811/TI_Stellaris/driverlib/usb.c **** #endif
 454:/home/cuil/workspace/arm/lm3s811/TI_Stellaris/driverlib/usb.c **** 
 455:/home/cuil/workspace/arm/lm3s811/TI_Stellaris/driverlib/usb.c **** //*****************************************************************************
 456:/home/cuil/workspace/arm/lm3s811/TI_Stellaris/driverlib/usb.c **** //
 457:/home/cuil/workspace/arm/lm3s811/TI_Stellaris/driverlib/usb.c **** //! Disables the sources for USB interrupts.
 458:/home/cuil/workspace/arm/lm3s811/TI_Stellaris/driverlib/usb.c **** //!
 459:/home/cuil/workspace/arm/lm3s811/TI_Stellaris/driverlib/usb.c **** //! \param ulBase specifies the USB module base address.
 460:/home/cuil/workspace/arm/lm3s811/TI_Stellaris/driverlib/usb.c **** //! \param ulFlags specifies which interrupts to disable.
 461:/home/cuil/workspace/arm/lm3s811/TI_Stellaris/driverlib/usb.c **** //!
 462:/home/cuil/workspace/arm/lm3s811/TI_Stellaris/driverlib/usb.c **** //! This function disables the USB controller from generating the
 463:/home/cuil/workspace/arm/lm3s811/TI_Stellaris/driverlib/usb.c **** //! interrupts indicated by the \e ulFlags parameter.  There are three groups
 464:/home/cuil/workspace/arm/lm3s811/TI_Stellaris/driverlib/usb.c **** //! of interrupt sources, IN Endpoints, OUT Endpoints, and general status
 465:/home/cuil/workspace/arm/lm3s811/TI_Stellaris/driverlib/usb.c **** //! changes, specified by \b USB_INT_HOST_IN, \b USB_INT_HOST_OUT,
 466:/home/cuil/workspace/arm/lm3s811/TI_Stellaris/driverlib/usb.c **** //! \b USB_INT_DEV_IN, \b USB_INT_DEV_OUT, and \b USB_INT_STATUS.  If
 467:/home/cuil/workspace/arm/lm3s811/TI_Stellaris/driverlib/usb.c **** //! \b USB_INT_ALL is specified, then all interrupts are disabled.
 468:/home/cuil/workspace/arm/lm3s811/TI_Stellaris/driverlib/usb.c **** //!
 469:/home/cuil/workspace/arm/lm3s811/TI_Stellaris/driverlib/usb.c **** //! \note WARNING: This API cannot be used on endpoint numbers greater than
 470:/home/cuil/workspace/arm/lm3s811/TI_Stellaris/driverlib/usb.c **** //! endpoint 3 so USBIntDisableControl() or USBIntDisableEndpoint() should be
 471:/home/cuil/workspace/arm/lm3s811/TI_Stellaris/driverlib/usb.c **** //! used instead.
 472:/home/cuil/workspace/arm/lm3s811/TI_Stellaris/driverlib/usb.c **** //!
 473:/home/cuil/workspace/arm/lm3s811/TI_Stellaris/driverlib/usb.c **** //! \return None.
 474:/home/cuil/workspace/arm/lm3s811/TI_Stellaris/driverlib/usb.c **** //
 475:/home/cuil/workspace/arm/lm3s811/TI_Stellaris/driverlib/usb.c **** //*****************************************************************************
 476:/home/cuil/workspace/arm/lm3s811/TI_Stellaris/driverlib/usb.c **** #ifndef DEPRECATED
 477:/home/cuil/workspace/arm/lm3s811/TI_Stellaris/driverlib/usb.c **** void
 478:/home/cuil/workspace/arm/lm3s811/TI_Stellaris/driverlib/usb.c **** USBIntDisable(unsigned long ulBase, unsigned long ulFlags)
 479:/home/cuil/workspace/arm/lm3s811/TI_Stellaris/driverlib/usb.c **** {
 9942              		.loc 1 479 0
 9943              		.cfi_startproc
 9944              		@ args = 0, pretend = 0, frame = 8
 9945              		@ frame_needed = 1, uses_anonymous_args = 0
 9946              		@ link register save eliminated.
 9947 0000 80B4     		push	{r7}
 9948              	.LCFI21:
 9949              		.cfi_def_cfa_offset 4
 9950 0002 83B0     		sub	sp, sp, #12
 9951              	.LCFI22:
 9952              		.cfi_def_cfa_offset 16
 9953 0004 00AF     		add	r7, sp, #0
 9954              		.cfi_offset 7, -4
 9955              	.LCFI23:
 9956              		.cfi_def_cfa_register 7
 9957 0006 7860     		str	r0, [r7, #4]
 9958 0008 3960     		str	r1, [r7, #0]
 480:/home/cuil/workspace/arm/lm3s811/TI_Stellaris/driverlib/usb.c ****     //
 481:/home/cuil/workspace/arm/lm3s811/TI_Stellaris/driverlib/usb.c ****     // Check the arguments.
 482:/home/cuil/workspace/arm/lm3s811/TI_Stellaris/driverlib/usb.c ****     //
 483:/home/cuil/workspace/arm/lm3s811/TI_Stellaris/driverlib/usb.c ****     ASSERT(ulBase == USB0_BASE);
 484:/home/cuil/workspace/arm/lm3s811/TI_Stellaris/driverlib/usb.c ****     ASSERT((ulFlags & ~(USB_INT_ALL)) == 0);
 485:/home/cuil/workspace/arm/lm3s811/TI_Stellaris/driverlib/usb.c **** 
 486:/home/cuil/workspace/arm/lm3s811/TI_Stellaris/driverlib/usb.c ****     //
 487:/home/cuil/workspace/arm/lm3s811/TI_Stellaris/driverlib/usb.c ****     // If any transmit interrupts were disabled, then write the transmit
 488:/home/cuil/workspace/arm/lm3s811/TI_Stellaris/driverlib/usb.c ****     // interrupt settings out to the hardware.
 489:/home/cuil/workspace/arm/lm3s811/TI_Stellaris/driverlib/usb.c ****     //
 490:/home/cuil/workspace/arm/lm3s811/TI_Stellaris/driverlib/usb.c ****     if(ulFlags & (USB_INT_HOST_OUT | USB_INT_DEV_IN | USB_INT_EP0))
 9959              		.loc 1 490 0
 9960 000a 3B68     		ldr	r3, [r7, #0]
 9961 000c 03F00F03 		and	r3, r3, #15
 9962 0010 002B     		cmp	r3, #0
 9963 0012 13D0     		beq	.L24
 491:/home/cuil/workspace/arm/lm3s811/TI_Stellaris/driverlib/usb.c ****     {
 492:/home/cuil/workspace/arm/lm3s811/TI_Stellaris/driverlib/usb.c ****         HWREGH(ulBase + USB_O_TXIE) &=
 9964              		.loc 1 492 0
 9965 0014 7B68     		ldr	r3, [r7, #4]
 9966 0016 03F10603 		add	r3, r3, #6
 9967 001a 7A68     		ldr	r2, [r7, #4]
 9968 001c 02F10602 		add	r2, r2, #6
 9969 0020 1288     		ldrh	r2, [r2, #0]	@ movhi
 9970 0022 91B2     		uxth	r1, r2
 9971 0024 3A68     		ldr	r2, [r7, #0]
 9972 0026 92B2     		uxth	r2, r2
 9973 0028 02F00F02 		and	r2, r2, #15
 9974 002c 92B2     		uxth	r2, r2
 9975 002e 6FEA0202 		mvn	r2, r2
 9976 0032 92B2     		uxth	r2, r2
 9977 0034 01EA0202 		and	r2, r1, r2
 9978 0038 92B2     		uxth	r2, r2
 9979 003a 1A80     		strh	r2, [r3, #0]	@ movhi
 9980              	.L24:
 493:/home/cuil/workspace/arm/lm3s811/TI_Stellaris/driverlib/usb.c ****             ~(ulFlags & (USB_INT_HOST_OUT | USB_INT_DEV_IN | USB_INT_EP0));
 494:/home/cuil/workspace/arm/lm3s811/TI_Stellaris/driverlib/usb.c ****     }
 495:/home/cuil/workspace/arm/lm3s811/TI_Stellaris/driverlib/usb.c **** 
 496:/home/cuil/workspace/arm/lm3s811/TI_Stellaris/driverlib/usb.c ****     //
 497:/home/cuil/workspace/arm/lm3s811/TI_Stellaris/driverlib/usb.c ****     // If any receive interrupts were disabled, then write the receive 
 498:/home/cuil/workspace/arm/lm3s811/TI_Stellaris/driverlib/usb.c ****     // interrupt settings out to the hardware.
 499:/home/cuil/workspace/arm/lm3s811/TI_Stellaris/driverlib/usb.c ****     //
 500:/home/cuil/workspace/arm/lm3s811/TI_Stellaris/driverlib/usb.c ****     if(ulFlags & (USB_INT_HOST_IN | USB_INT_DEV_OUT))
 9981              		.loc 1 500 0
 9982 003c 3B68     		ldr	r3, [r7, #0]
 9983 003e 03F46063 		and	r3, r3, #3584
 9984 0042 002B     		cmp	r3, #0
 9985 0044 14D0     		beq	.L25
 501:/home/cuil/workspace/arm/lm3s811/TI_Stellaris/driverlib/usb.c ****     {
 502:/home/cuil/workspace/arm/lm3s811/TI_Stellaris/driverlib/usb.c ****         HWREGH(ulBase + USB_O_RXIE) &=
 9986              		.loc 1 502 0
 9987 0046 7B68     		ldr	r3, [r7, #4]
 9988 0048 03F10803 		add	r3, r3, #8
 9989 004c 7A68     		ldr	r2, [r7, #4]
 9990 004e 02F10802 		add	r2, r2, #8
 9991 0052 1288     		ldrh	r2, [r2, #0]	@ movhi
 9992 0054 91B2     		uxth	r1, r2
 503:/home/cuil/workspace/arm/lm3s811/TI_Stellaris/driverlib/usb.c ****             ~((ulFlags & (USB_INT_HOST_IN | USB_INT_DEV_OUT)) >>
 9993              		.loc 1 503 0
 9994 0056 3A68     		ldr	r2, [r7, #0]
 9995 0058 02F46062 		and	r2, r2, #3584
 9996 005c 4FEA1222 		lsr	r2, r2, #8
 502:/home/cuil/workspace/arm/lm3s811/TI_Stellaris/driverlib/usb.c ****         HWREGH(ulBase + USB_O_RXIE) &=
 9997              		.loc 1 502 0
 9998 0060 92B2     		uxth	r2, r2
 9999 0062 6FEA0202 		mvn	r2, r2
 10000 0066 92B2     		uxth	r2, r2
 10001 0068 01EA0202 		and	r2, r1, r2
 10002 006c 92B2     		uxth	r2, r2
 10003 006e 1A80     		strh	r2, [r3, #0]	@ movhi
 10004              	.L25:
 504:/home/cuil/workspace/arm/lm3s811/TI_Stellaris/driverlib/usb.c ****               USB_INT_RX_SHIFT);
 505:/home/cuil/workspace/arm/lm3s811/TI_Stellaris/driverlib/usb.c ****     }
 506:/home/cuil/workspace/arm/lm3s811/TI_Stellaris/driverlib/usb.c **** 
 507:/home/cuil/workspace/arm/lm3s811/TI_Stellaris/driverlib/usb.c ****     //
 508:/home/cuil/workspace/arm/lm3s811/TI_Stellaris/driverlib/usb.c ****     // If any general interrupts were disabled, then write the general 
 509:/home/cuil/workspace/arm/lm3s811/TI_Stellaris/driverlib/usb.c ****     // interrupt settings out to the hardware.
 510:/home/cuil/workspace/arm/lm3s811/TI_Stellaris/driverlib/usb.c ****     //
 511:/home/cuil/workspace/arm/lm3s811/TI_Stellaris/driverlib/usb.c ****     if(ulFlags & USB_INT_STATUS)
 10005              		.loc 1 511 0
 10006 0070 3B68     		ldr	r3, [r7, #0]
 10007 0072 03F07F43 		and	r3, r3, #-16777216
 10008 0076 002B     		cmp	r3, #0
 10009 0078 12D0     		beq	.L26
 512:/home/cuil/workspace/arm/lm3s811/TI_Stellaris/driverlib/usb.c ****     {
 513:/home/cuil/workspace/arm/lm3s811/TI_Stellaris/driverlib/usb.c ****         HWREGB(ulBase + USB_O_IE) &=
 10010              		.loc 1 513 0
 10011 007a 7B68     		ldr	r3, [r7, #4]
 10012 007c 03F10B03 		add	r3, r3, #11
 10013 0080 7A68     		ldr	r2, [r7, #4]
 10014 0082 02F10B02 		add	r2, r2, #11
 10015 0086 1278     		ldrb	r2, [r2, #0]
 10016 0088 D1B2     		uxtb	r1, r2
 514:/home/cuil/workspace/arm/lm3s811/TI_Stellaris/driverlib/usb.c ****             ~((ulFlags & USB_INT_STATUS) >> USB_INT_STATUS_SHIFT);
 10017              		.loc 1 514 0
 10018 008a 3A68     		ldr	r2, [r7, #0]
 10019 008c 4FEA1262 		lsr	r2, r2, #24
 513:/home/cuil/workspace/arm/lm3s811/TI_Stellaris/driverlib/usb.c ****         HWREGB(ulBase + USB_O_IE) &=
 10020              		.loc 1 513 0
 10021 0090 D2B2     		uxtb	r2, r2
 10022 0092 6FEA0202 		mvn	r2, r2
 10023 0096 D2B2     		uxtb	r2, r2
 10024 0098 01EA0202 		and	r2, r1, r2
 10025 009c D2B2     		uxtb	r2, r2
 10026 009e 1A70     		strb	r2, [r3, #0]
 10027              	.L26:
 515:/home/cuil/workspace/arm/lm3s811/TI_Stellaris/driverlib/usb.c ****     }
 516:/home/cuil/workspace/arm/lm3s811/TI_Stellaris/driverlib/usb.c **** 
 517:/home/cuil/workspace/arm/lm3s811/TI_Stellaris/driverlib/usb.c ****     //
 518:/home/cuil/workspace/arm/lm3s811/TI_Stellaris/driverlib/usb.c ****     // Disable the power fault interrupt.
 519:/home/cuil/workspace/arm/lm3s811/TI_Stellaris/driverlib/usb.c ****     //
 520:/home/cuil/workspace/arm/lm3s811/TI_Stellaris/driverlib/usb.c ****     if(ulFlags & USB_INT_POWER_FAULT)
 10028              		.loc 1 520 0
 10029 00a0 3B68     		ldr	r3, [r7, #0]
 10030 00a2 03F48033 		and	r3, r3, #65536
 10031 00a6 002B     		cmp	r3, #0
 10032 00a8 05D0     		beq	.L27
 521:/home/cuil/workspace/arm/lm3s811/TI_Stellaris/driverlib/usb.c ****     {
 522:/home/cuil/workspace/arm/lm3s811/TI_Stellaris/driverlib/usb.c ****         HWREG(ulBase + USB_O_EPCIM) = 0;
 10033              		.loc 1 522 0
 10034 00aa 7B68     		ldr	r3, [r7, #4]
 10035 00ac 03F58163 		add	r3, r3, #1032
 10036 00b0 4FF00002 		mov	r2, #0
 10037 00b4 1A60     		str	r2, [r3, #0]
 10038              	.L27:
 523:/home/cuil/workspace/arm/lm3s811/TI_Stellaris/driverlib/usb.c ****     }
 524:/home/cuil/workspace/arm/lm3s811/TI_Stellaris/driverlib/usb.c **** 
 525:/home/cuil/workspace/arm/lm3s811/TI_Stellaris/driverlib/usb.c ****     //
 526:/home/cuil/workspace/arm/lm3s811/TI_Stellaris/driverlib/usb.c ****     // Disable the ID pin detect interrupt.
 527:/home/cuil/workspace/arm/lm3s811/TI_Stellaris/driverlib/usb.c ****     //
 528:/home/cuil/workspace/arm/lm3s811/TI_Stellaris/driverlib/usb.c ****     if(ulFlags & USB_INT_MODE_DETECT)
 10039              		.loc 1 528 0
 10040 00b6 3B68     		ldr	r3, [r7, #0]
 10041 00b8 03F40033 		and	r3, r3, #131072
 10042 00bc 002B     		cmp	r3, #0
 10043 00be 03D0     		beq	.L23
 529:/home/cuil/workspace/arm/lm3s811/TI_Stellaris/driverlib/usb.c ****     {
 530:/home/cuil/workspace/arm/lm3s811/TI_Stellaris/driverlib/usb.c ****         HWREG(USB0_BASE + USB_O_IDVIM) = 0;
 10044              		.loc 1 530 0
 10045 00c0 044B     		ldr	r3, .L29
 10046 00c2 4FF00002 		mov	r2, #0
 10047 00c6 1A60     		str	r2, [r3, #0]
 10048              	.L23:
 531:/home/cuil/workspace/arm/lm3s811/TI_Stellaris/driverlib/usb.c ****     }
 532:/home/cuil/workspace/arm/lm3s811/TI_Stellaris/driverlib/usb.c **** }
 10049              		.loc 1 532 0
 10050 00c8 07F10C07 		add	r7, r7, #12
 10051 00cc BD46     		mov	sp, r7
 10052 00ce 80BC     		pop	{r7}
 10053 00d0 7047     		bx	lr
 10054              	.L30:
 10055 00d2 00BF     		.align	2
 10056              	.L29:
 10057 00d4 48040540 		.word	1074070600
 10058              		.cfi_endproc
 10059              	.LFE7:
 10061              		.section	.text.USBIntEnable,"ax",%progbits
 10062              		.align	2
 10063              		.global	USBIntEnable
 10064              		.thumb
 10065              		.thumb_func
 10067              	USBIntEnable:
 10068              	.LFB8:
 533:/home/cuil/workspace/arm/lm3s811/TI_Stellaris/driverlib/usb.c **** #endif
 534:/home/cuil/workspace/arm/lm3s811/TI_Stellaris/driverlib/usb.c **** 
 535:/home/cuil/workspace/arm/lm3s811/TI_Stellaris/driverlib/usb.c **** //*****************************************************************************
 536:/home/cuil/workspace/arm/lm3s811/TI_Stellaris/driverlib/usb.c **** //
 537:/home/cuil/workspace/arm/lm3s811/TI_Stellaris/driverlib/usb.c **** //! Enables the sources for USB interrupts.
 538:/home/cuil/workspace/arm/lm3s811/TI_Stellaris/driverlib/usb.c **** //!
 539:/home/cuil/workspace/arm/lm3s811/TI_Stellaris/driverlib/usb.c **** //! \param ulBase specifies the USB module base address.
 540:/home/cuil/workspace/arm/lm3s811/TI_Stellaris/driverlib/usb.c **** //! \param ulFlags specifies which interrupts to enable.
 541:/home/cuil/workspace/arm/lm3s811/TI_Stellaris/driverlib/usb.c **** //!
 542:/home/cuil/workspace/arm/lm3s811/TI_Stellaris/driverlib/usb.c **** //! This function enables the USB controller's ability to generate the
 543:/home/cuil/workspace/arm/lm3s811/TI_Stellaris/driverlib/usb.c **** //! interrupts indicated by the \e ulFlags parameter.  There are three
 544:/home/cuil/workspace/arm/lm3s811/TI_Stellaris/driverlib/usb.c **** //! groups of interrupt sources, IN Endpoints, OUT Endpoints, and
 545:/home/cuil/workspace/arm/lm3s811/TI_Stellaris/driverlib/usb.c **** //! general status changes, specified by \b USB_INT_HOST_IN,
 546:/home/cuil/workspace/arm/lm3s811/TI_Stellaris/driverlib/usb.c **** //! \b USB_INT_HOST_OUT, \b USB_INT_DEV_IN, \b USB_INT_DEV_OUT, and
 547:/home/cuil/workspace/arm/lm3s811/TI_Stellaris/driverlib/usb.c **** //! \b USB_STATUS.  If \b USB_INT_ALL is specified then all interrupts are
 548:/home/cuil/workspace/arm/lm3s811/TI_Stellaris/driverlib/usb.c **** //! enabled.
 549:/home/cuil/workspace/arm/lm3s811/TI_Stellaris/driverlib/usb.c **** //!
 550:/home/cuil/workspace/arm/lm3s811/TI_Stellaris/driverlib/usb.c **** //! \note A call must be made to enable the interrupt in the main interrupt
 551:/home/cuil/workspace/arm/lm3s811/TI_Stellaris/driverlib/usb.c **** //! controller to receive interrupts.  The USBIntRegister() API performs this
 552:/home/cuil/workspace/arm/lm3s811/TI_Stellaris/driverlib/usb.c **** //! controller-level interrupt enable.  However if static interrupt handlers
 553:/home/cuil/workspace/arm/lm3s811/TI_Stellaris/driverlib/usb.c **** //! are used, then then a call to IntEnable() must be made in order to allow 
 554:/home/cuil/workspace/arm/lm3s811/TI_Stellaris/driverlib/usb.c **** //! any USB interrupts to occur.
 555:/home/cuil/workspace/arm/lm3s811/TI_Stellaris/driverlib/usb.c **** //!
 556:/home/cuil/workspace/arm/lm3s811/TI_Stellaris/driverlib/usb.c **** //! \note WARNING: This API cannot be used on endpoint numbers greater than
 557:/home/cuil/workspace/arm/lm3s811/TI_Stellaris/driverlib/usb.c **** //! endpoint 3 so USBIntEnableControl() or USBIntEnableEndpoint() should be
 558:/home/cuil/workspace/arm/lm3s811/TI_Stellaris/driverlib/usb.c **** //! used instead.
 559:/home/cuil/workspace/arm/lm3s811/TI_Stellaris/driverlib/usb.c **** //!
 560:/home/cuil/workspace/arm/lm3s811/TI_Stellaris/driverlib/usb.c **** //! \return None.
 561:/home/cuil/workspace/arm/lm3s811/TI_Stellaris/driverlib/usb.c **** //
 562:/home/cuil/workspace/arm/lm3s811/TI_Stellaris/driverlib/usb.c **** //*****************************************************************************
 563:/home/cuil/workspace/arm/lm3s811/TI_Stellaris/driverlib/usb.c **** #ifndef DEPRECATED
 564:/home/cuil/workspace/arm/lm3s811/TI_Stellaris/driverlib/usb.c **** void
 565:/home/cuil/workspace/arm/lm3s811/TI_Stellaris/driverlib/usb.c **** USBIntEnable(unsigned long ulBase, unsigned long ulFlags)
 566:/home/cuil/workspace/arm/lm3s811/TI_Stellaris/driverlib/usb.c **** {
 10069              		.loc 1 566 0
 10070              		.cfi_startproc
 10071              		@ args = 0, pretend = 0, frame = 8
 10072              		@ frame_needed = 1, uses_anonymous_args = 0
 10073              		@ link register save eliminated.
 10074 0000 80B4     		push	{r7}
 10075              	.LCFI24:
 10076              		.cfi_def_cfa_offset 4
 10077 0002 83B0     		sub	sp, sp, #12
 10078              	.LCFI25:
 10079              		.cfi_def_cfa_offset 16
 10080 0004 00AF     		add	r7, sp, #0
 10081              		.cfi_offset 7, -4
 10082              	.LCFI26:
 10083              		.cfi_def_cfa_register 7
 10084 0006 7860     		str	r0, [r7, #4]
 10085 0008 3960     		str	r1, [r7, #0]
 567:/home/cuil/workspace/arm/lm3s811/TI_Stellaris/driverlib/usb.c ****     //
 568:/home/cuil/workspace/arm/lm3s811/TI_Stellaris/driverlib/usb.c ****     // Check the arguments.
 569:/home/cuil/workspace/arm/lm3s811/TI_Stellaris/driverlib/usb.c ****     //
 570:/home/cuil/workspace/arm/lm3s811/TI_Stellaris/driverlib/usb.c ****     ASSERT(ulBase == USB0_BASE);
 571:/home/cuil/workspace/arm/lm3s811/TI_Stellaris/driverlib/usb.c ****     ASSERT((ulFlags & (~USB_INT_ALL)) == 0);
 572:/home/cuil/workspace/arm/lm3s811/TI_Stellaris/driverlib/usb.c **** 
 573:/home/cuil/workspace/arm/lm3s811/TI_Stellaris/driverlib/usb.c ****     //
 574:/home/cuil/workspace/arm/lm3s811/TI_Stellaris/driverlib/usb.c ****     // If any transmit interrupts were enabled, then write the transmit
 575:/home/cuil/workspace/arm/lm3s811/TI_Stellaris/driverlib/usb.c ****     // interrupt settings out to the hardware.
 576:/home/cuil/workspace/arm/lm3s811/TI_Stellaris/driverlib/usb.c ****     //
 577:/home/cuil/workspace/arm/lm3s811/TI_Stellaris/driverlib/usb.c ****     if(ulFlags & (USB_INT_HOST_OUT | USB_INT_DEV_IN | USB_INT_EP0))
 10086              		.loc 1 577 0
 10087 000a 3B68     		ldr	r3, [r7, #0]
 10088 000c 03F00F03 		and	r3, r3, #15
 10089 0010 002B     		cmp	r3, #0
 10090 0012 10D0     		beq	.L32
 578:/home/cuil/workspace/arm/lm3s811/TI_Stellaris/driverlib/usb.c ****     {
 579:/home/cuil/workspace/arm/lm3s811/TI_Stellaris/driverlib/usb.c ****         HWREGH(ulBase + USB_O_TXIE) |=
 10091              		.loc 1 579 0
 10092 0014 7B68     		ldr	r3, [r7, #4]
 10093 0016 03F10603 		add	r3, r3, #6
 10094 001a 7A68     		ldr	r2, [r7, #4]
 10095 001c 02F10602 		add	r2, r2, #6
 10096 0020 1288     		ldrh	r2, [r2, #0]	@ movhi
 10097 0022 91B2     		uxth	r1, r2
 10098 0024 3A68     		ldr	r2, [r7, #0]
 10099 0026 92B2     		uxth	r2, r2
 10100 0028 02F00F02 		and	r2, r2, #15
 10101 002c 92B2     		uxth	r2, r2
 10102 002e 41EA0202 		orr	r2, r1, r2
 10103 0032 92B2     		uxth	r2, r2
 10104 0034 1A80     		strh	r2, [r3, #0]	@ movhi
 10105              	.L32:
 580:/home/cuil/workspace/arm/lm3s811/TI_Stellaris/driverlib/usb.c ****             ulFlags & (USB_INT_HOST_OUT | USB_INT_DEV_IN | USB_INT_EP0);
 581:/home/cuil/workspace/arm/lm3s811/TI_Stellaris/driverlib/usb.c ****     }
 582:/home/cuil/workspace/arm/lm3s811/TI_Stellaris/driverlib/usb.c **** 
 583:/home/cuil/workspace/arm/lm3s811/TI_Stellaris/driverlib/usb.c ****     //
 584:/home/cuil/workspace/arm/lm3s811/TI_Stellaris/driverlib/usb.c ****     // If any receive interrupts were enabled, then write the receive 
 585:/home/cuil/workspace/arm/lm3s811/TI_Stellaris/driverlib/usb.c ****     // interrupt settings out to the hardware.
 586:/home/cuil/workspace/arm/lm3s811/TI_Stellaris/driverlib/usb.c ****     //
 587:/home/cuil/workspace/arm/lm3s811/TI_Stellaris/driverlib/usb.c ****     if(ulFlags & (USB_INT_HOST_IN | USB_INT_DEV_OUT))
 10106              		.loc 1 587 0
 10107 0036 3B68     		ldr	r3, [r7, #0]
 10108 0038 03F46063 		and	r3, r3, #3584
 10109 003c 002B     		cmp	r3, #0
 10110 003e 11D0     		beq	.L33
 588:/home/cuil/workspace/arm/lm3s811/TI_Stellaris/driverlib/usb.c ****     {
 589:/home/cuil/workspace/arm/lm3s811/TI_Stellaris/driverlib/usb.c ****         HWREGH(ulBase + USB_O_RXIE) |=
 10111              		.loc 1 589 0
 10112 0040 7B68     		ldr	r3, [r7, #4]
 10113 0042 03F10803 		add	r3, r3, #8
 10114 0046 7A68     		ldr	r2, [r7, #4]
 10115 0048 02F10802 		add	r2, r2, #8
 10116 004c 1288     		ldrh	r2, [r2, #0]	@ movhi
 10117 004e 91B2     		uxth	r1, r2
 590:/home/cuil/workspace/arm/lm3s811/TI_Stellaris/driverlib/usb.c ****             ((ulFlags & (USB_INT_HOST_IN | USB_INT_DEV_OUT)) >>
 10118              		.loc 1 590 0
 10119 0050 3A68     		ldr	r2, [r7, #0]
 10120 0052 02F46062 		and	r2, r2, #3584
 10121 0056 4FEA1222 		lsr	r2, r2, #8
 589:/home/cuil/workspace/arm/lm3s811/TI_Stellaris/driverlib/usb.c ****         HWREGH(ulBase + USB_O_RXIE) |=
 10122              		.loc 1 589 0
 10123 005a 92B2     		uxth	r2, r2
 10124 005c 41EA0202 		orr	r2, r1, r2
 10125 0060 92B2     		uxth	r2, r2
 10126 0062 1A80     		strh	r2, [r3, #0]	@ movhi
 10127              	.L33:
 591:/home/cuil/workspace/arm/lm3s811/TI_Stellaris/driverlib/usb.c ****              USB_INT_RX_SHIFT);
 592:/home/cuil/workspace/arm/lm3s811/TI_Stellaris/driverlib/usb.c ****     }
 593:/home/cuil/workspace/arm/lm3s811/TI_Stellaris/driverlib/usb.c **** 
 594:/home/cuil/workspace/arm/lm3s811/TI_Stellaris/driverlib/usb.c ****     //
 595:/home/cuil/workspace/arm/lm3s811/TI_Stellaris/driverlib/usb.c ****     // If any general interrupts were enabled, then write the general 
 596:/home/cuil/workspace/arm/lm3s811/TI_Stellaris/driverlib/usb.c ****     // interrupt settings out to the hardware.
 597:/home/cuil/workspace/arm/lm3s811/TI_Stellaris/driverlib/usb.c ****     //
 598:/home/cuil/workspace/arm/lm3s811/TI_Stellaris/driverlib/usb.c ****     if(ulFlags & USB_INT_STATUS)
 10128              		.loc 1 598 0
 10129 0064 3B68     		ldr	r3, [r7, #0]
 10130 0066 03F07F43 		and	r3, r3, #-16777216
 10131 006a 002B     		cmp	r3, #0
 10132 006c 0FD0     		beq	.L34
 599:/home/cuil/workspace/arm/lm3s811/TI_Stellaris/driverlib/usb.c ****     {
 600:/home/cuil/workspace/arm/lm3s811/TI_Stellaris/driverlib/usb.c ****         HWREGB(ulBase + USB_O_IE) |=
 10133              		.loc 1 600 0
 10134 006e 7B68     		ldr	r3, [r7, #4]
 10135 0070 03F10B03 		add	r3, r3, #11
 10136 0074 7A68     		ldr	r2, [r7, #4]
 10137 0076 02F10B02 		add	r2, r2, #11
 10138 007a 1278     		ldrb	r2, [r2, #0]
 10139 007c D1B2     		uxtb	r1, r2
 601:/home/cuil/workspace/arm/lm3s811/TI_Stellaris/driverlib/usb.c ****             (ulFlags & USB_INT_STATUS) >> USB_INT_STATUS_SHIFT;
 10140              		.loc 1 601 0
 10141 007e 3A68     		ldr	r2, [r7, #0]
 10142 0080 4FEA1262 		lsr	r2, r2, #24
 600:/home/cuil/workspace/arm/lm3s811/TI_Stellaris/driverlib/usb.c ****         HWREGB(ulBase + USB_O_IE) |=
 10143              		.loc 1 600 0
 10144 0084 D2B2     		uxtb	r2, r2
 10145 0086 41EA0202 		orr	r2, r1, r2
 10146 008a D2B2     		uxtb	r2, r2
 10147 008c 1A70     		strb	r2, [r3, #0]
 10148              	.L34:
 602:/home/cuil/workspace/arm/lm3s811/TI_Stellaris/driverlib/usb.c ****     }
 603:/home/cuil/workspace/arm/lm3s811/TI_Stellaris/driverlib/usb.c **** 
 604:/home/cuil/workspace/arm/lm3s811/TI_Stellaris/driverlib/usb.c ****     //
 605:/home/cuil/workspace/arm/lm3s811/TI_Stellaris/driverlib/usb.c ****     // Enable the power fault interrupt.
 606:/home/cuil/workspace/arm/lm3s811/TI_Stellaris/driverlib/usb.c ****     //
 607:/home/cuil/workspace/arm/lm3s811/TI_Stellaris/driverlib/usb.c ****     if(ulFlags & USB_INT_POWER_FAULT)
 10149              		.loc 1 607 0
 10150 008e 3B68     		ldr	r3, [r7, #0]
 10151 0090 03F48033 		and	r3, r3, #65536
 10152 0094 002B     		cmp	r3, #0
 10153 0096 05D0     		beq	.L35
 608:/home/cuil/workspace/arm/lm3s811/TI_Stellaris/driverlib/usb.c ****     {
 609:/home/cuil/workspace/arm/lm3s811/TI_Stellaris/driverlib/usb.c ****         HWREG(ulBase + USB_O_EPCIM) = USB_EPCIM_PF;
 10154              		.loc 1 609 0
 10155 0098 7B68     		ldr	r3, [r7, #4]
 10156 009a 03F58163 		add	r3, r3, #1032
 10157 009e 4FF00102 		mov	r2, #1
 10158 00a2 1A60     		str	r2, [r3, #0]
 10159              	.L35:
 610:/home/cuil/workspace/arm/lm3s811/TI_Stellaris/driverlib/usb.c ****     }
 611:/home/cuil/workspace/arm/lm3s811/TI_Stellaris/driverlib/usb.c **** 
 612:/home/cuil/workspace/arm/lm3s811/TI_Stellaris/driverlib/usb.c ****     //
 613:/home/cuil/workspace/arm/lm3s811/TI_Stellaris/driverlib/usb.c ****     // Enable the ID pin detect interrupt.
 614:/home/cuil/workspace/arm/lm3s811/TI_Stellaris/driverlib/usb.c ****     //
 615:/home/cuil/workspace/arm/lm3s811/TI_Stellaris/driverlib/usb.c ****     if(ulFlags & USB_INT_MODE_DETECT)
 10160              		.loc 1 615 0
 10161 00a4 3B68     		ldr	r3, [r7, #0]
 10162 00a6 03F40033 		and	r3, r3, #131072
 10163 00aa 002B     		cmp	r3, #0
 10164 00ac 03D0     		beq	.L31
 616:/home/cuil/workspace/arm/lm3s811/TI_Stellaris/driverlib/usb.c ****     {
 617:/home/cuil/workspace/arm/lm3s811/TI_Stellaris/driverlib/usb.c ****         HWREG(USB0_BASE + USB_O_IDVIM) = USB_IDVIM_ID;
 10165              		.loc 1 617 0
 10166 00ae 044B     		ldr	r3, .L37
 10167 00b0 4FF00102 		mov	r2, #1
 10168 00b4 1A60     		str	r2, [r3, #0]
 10169              	.L31:
 618:/home/cuil/workspace/arm/lm3s811/TI_Stellaris/driverlib/usb.c ****     }
 619:/home/cuil/workspace/arm/lm3s811/TI_Stellaris/driverlib/usb.c **** }
 10170              		.loc 1 619 0
 10171 00b6 07F10C07 		add	r7, r7, #12
 10172 00ba BD46     		mov	sp, r7
 10173 00bc 80BC     		pop	{r7}
 10174 00be 7047     		bx	lr
 10175              	.L38:
 10176              		.align	2
 10177              	.L37:
 10178 00c0 48040540 		.word	1074070600
 10179              		.cfi_endproc
 10180              	.LFE8:
 10182              		.section	.text.USBIntDisableControl,"ax",%progbits
 10183              		.align	2
 10184              		.global	USBIntDisableControl
 10185              		.thumb
 10186              		.thumb_func
 10188              	USBIntDisableControl:
 10189              	.LFB9:
 620:/home/cuil/workspace/arm/lm3s811/TI_Stellaris/driverlib/usb.c **** #endif
 621:/home/cuil/workspace/arm/lm3s811/TI_Stellaris/driverlib/usb.c **** 
 622:/home/cuil/workspace/arm/lm3s811/TI_Stellaris/driverlib/usb.c **** //*****************************************************************************
 623:/home/cuil/workspace/arm/lm3s811/TI_Stellaris/driverlib/usb.c **** //
 624:/home/cuil/workspace/arm/lm3s811/TI_Stellaris/driverlib/usb.c **** //! Disables control interrupts on a given USB controller.
 625:/home/cuil/workspace/arm/lm3s811/TI_Stellaris/driverlib/usb.c **** //!
 626:/home/cuil/workspace/arm/lm3s811/TI_Stellaris/driverlib/usb.c **** //! \param ulBase specifies the USB module base address.
 627:/home/cuil/workspace/arm/lm3s811/TI_Stellaris/driverlib/usb.c **** //! \param ulFlags specifies which control interrupts to disable.
 628:/home/cuil/workspace/arm/lm3s811/TI_Stellaris/driverlib/usb.c **** //!
 629:/home/cuil/workspace/arm/lm3s811/TI_Stellaris/driverlib/usb.c **** //! This function disables the control interrupts for the USB controller
 630:/home/cuil/workspace/arm/lm3s811/TI_Stellaris/driverlib/usb.c **** //! specified by the \e ulBase parameter.  The \e ulFlags parameter specifies
 631:/home/cuil/workspace/arm/lm3s811/TI_Stellaris/driverlib/usb.c **** //! which control interrupts to disable.  The flags passed in the \e ulFlags
 632:/home/cuil/workspace/arm/lm3s811/TI_Stellaris/driverlib/usb.c **** //! parameters should be the definitions that start with \b USB_INTCTRL_* and
 633:/home/cuil/workspace/arm/lm3s811/TI_Stellaris/driverlib/usb.c **** //! not any other \b USB_INT flags.
 634:/home/cuil/workspace/arm/lm3s811/TI_Stellaris/driverlib/usb.c **** //!
 635:/home/cuil/workspace/arm/lm3s811/TI_Stellaris/driverlib/usb.c **** //! \return None.
 636:/home/cuil/workspace/arm/lm3s811/TI_Stellaris/driverlib/usb.c **** //
 637:/home/cuil/workspace/arm/lm3s811/TI_Stellaris/driverlib/usb.c **** //*****************************************************************************
 638:/home/cuil/workspace/arm/lm3s811/TI_Stellaris/driverlib/usb.c **** void
 639:/home/cuil/workspace/arm/lm3s811/TI_Stellaris/driverlib/usb.c **** USBIntDisableControl(unsigned long ulBase, unsigned long ulFlags)
 640:/home/cuil/workspace/arm/lm3s811/TI_Stellaris/driverlib/usb.c **** {
 10190              		.loc 1 640 0
 10191              		.cfi_startproc
 10192              		@ args = 0, pretend = 0, frame = 8
 10193              		@ frame_needed = 1, uses_anonymous_args = 0
 10194              		@ link register save eliminated.
 10195 0000 80B4     		push	{r7}
 10196              	.LCFI27:
 10197              		.cfi_def_cfa_offset 4
 10198 0002 83B0     		sub	sp, sp, #12
 10199              	.LCFI28:
 10200              		.cfi_def_cfa_offset 16
 10201 0004 00AF     		add	r7, sp, #0
 10202              		.cfi_offset 7, -4
 10203              	.LCFI29:
 10204              		.cfi_def_cfa_register 7
 10205 0006 7860     		str	r0, [r7, #4]
 10206 0008 3960     		str	r1, [r7, #0]
 641:/home/cuil/workspace/arm/lm3s811/TI_Stellaris/driverlib/usb.c ****     //
 642:/home/cuil/workspace/arm/lm3s811/TI_Stellaris/driverlib/usb.c ****     // Check the arguments.
 643:/home/cuil/workspace/arm/lm3s811/TI_Stellaris/driverlib/usb.c ****     //
 644:/home/cuil/workspace/arm/lm3s811/TI_Stellaris/driverlib/usb.c ****     ASSERT(ulBase == USB0_BASE);
 645:/home/cuil/workspace/arm/lm3s811/TI_Stellaris/driverlib/usb.c ****     ASSERT((ulFlags & ~(USB_INTCTRL_ALL)) == 0);
 646:/home/cuil/workspace/arm/lm3s811/TI_Stellaris/driverlib/usb.c **** 
 647:/home/cuil/workspace/arm/lm3s811/TI_Stellaris/driverlib/usb.c ****     //
 648:/home/cuil/workspace/arm/lm3s811/TI_Stellaris/driverlib/usb.c ****     // If any general interrupts were disabled then write the general interrupt
 649:/home/cuil/workspace/arm/lm3s811/TI_Stellaris/driverlib/usb.c ****     // settings out to the hardware.
 650:/home/cuil/workspace/arm/lm3s811/TI_Stellaris/driverlib/usb.c ****     //
 651:/home/cuil/workspace/arm/lm3s811/TI_Stellaris/driverlib/usb.c ****     if(ulFlags & USB_INTCTRL_STATUS)
 10207              		.loc 1 651 0
 10208 000a 3B68     		ldr	r3, [r7, #0]
 10209 000c 03F0FF03 		and	r3, r3, #255
 10210 0010 002B     		cmp	r3, #0
 10211 0012 10D0     		beq	.L40
 652:/home/cuil/workspace/arm/lm3s811/TI_Stellaris/driverlib/usb.c ****     {
 653:/home/cuil/workspace/arm/lm3s811/TI_Stellaris/driverlib/usb.c ****         HWREGB(ulBase + USB_O_IE) &= ~(ulFlags & USB_INTCTRL_STATUS);
 10212              		.loc 1 653 0
 10213 0014 7B68     		ldr	r3, [r7, #4]
 10214 0016 03F10B03 		add	r3, r3, #11
 10215 001a 7A68     		ldr	r2, [r7, #4]
 10216 001c 02F10B02 		add	r2, r2, #11
 10217 0020 1278     		ldrb	r2, [r2, #0]
 10218 0022 D1B2     		uxtb	r1, r2
 10219 0024 3A68     		ldr	r2, [r7, #0]
 10220 0026 D2B2     		uxtb	r2, r2
 10221 0028 6FEA0202 		mvn	r2, r2
 10222 002c D2B2     		uxtb	r2, r2
 10223 002e 01EA0202 		and	r2, r1, r2
 10224 0032 D2B2     		uxtb	r2, r2
 10225 0034 1A70     		strb	r2, [r3, #0]
 10226              	.L40:
 654:/home/cuil/workspace/arm/lm3s811/TI_Stellaris/driverlib/usb.c ****     }
 655:/home/cuil/workspace/arm/lm3s811/TI_Stellaris/driverlib/usb.c **** 
 656:/home/cuil/workspace/arm/lm3s811/TI_Stellaris/driverlib/usb.c ****     //
 657:/home/cuil/workspace/arm/lm3s811/TI_Stellaris/driverlib/usb.c ****     // Disable the power fault interrupt.
 658:/home/cuil/workspace/arm/lm3s811/TI_Stellaris/driverlib/usb.c ****     //
 659:/home/cuil/workspace/arm/lm3s811/TI_Stellaris/driverlib/usb.c ****     if(ulFlags & USB_INTCTRL_POWER_FAULT)
 10227              		.loc 1 659 0
 10228 0036 3B68     		ldr	r3, [r7, #0]
 10229 0038 03F48073 		and	r3, r3, #256
 10230 003c 002B     		cmp	r3, #0
 10231 003e 05D0     		beq	.L41
 660:/home/cuil/workspace/arm/lm3s811/TI_Stellaris/driverlib/usb.c ****     {
 661:/home/cuil/workspace/arm/lm3s811/TI_Stellaris/driverlib/usb.c ****         HWREG(ulBase + USB_O_EPCIM) = 0;
 10232              		.loc 1 661 0
 10233 0040 7B68     		ldr	r3, [r7, #4]
 10234 0042 03F58163 		add	r3, r3, #1032
 10235 0046 4FF00002 		mov	r2, #0
 10236 004a 1A60     		str	r2, [r3, #0]
 10237              	.L41:
 662:/home/cuil/workspace/arm/lm3s811/TI_Stellaris/driverlib/usb.c ****     }
 663:/home/cuil/workspace/arm/lm3s811/TI_Stellaris/driverlib/usb.c **** 
 664:/home/cuil/workspace/arm/lm3s811/TI_Stellaris/driverlib/usb.c ****     //
 665:/home/cuil/workspace/arm/lm3s811/TI_Stellaris/driverlib/usb.c ****     // Disable the ID pin detect interrupt.
 666:/home/cuil/workspace/arm/lm3s811/TI_Stellaris/driverlib/usb.c ****     //
 667:/home/cuil/workspace/arm/lm3s811/TI_Stellaris/driverlib/usb.c ****     if(ulFlags & USB_INTCTRL_MODE_DETECT)
 10238              		.loc 1 667 0
 10239 004c 3B68     		ldr	r3, [r7, #0]
 10240 004e 03F40073 		and	r3, r3, #512
 10241 0052 002B     		cmp	r3, #0
 10242 0054 03D0     		beq	.L39
 668:/home/cuil/workspace/arm/lm3s811/TI_Stellaris/driverlib/usb.c ****     {
 669:/home/cuil/workspace/arm/lm3s811/TI_Stellaris/driverlib/usb.c ****         HWREG(USB0_BASE + USB_O_IDVIM) = 0;
 10243              		.loc 1 669 0
 10244 0056 044B     		ldr	r3, .L43
 10245 0058 4FF00002 		mov	r2, #0
 10246 005c 1A60     		str	r2, [r3, #0]
 10247              	.L39:
 670:/home/cuil/workspace/arm/lm3s811/TI_Stellaris/driverlib/usb.c ****     }
 671:/home/cuil/workspace/arm/lm3s811/TI_Stellaris/driverlib/usb.c **** }
 10248              		.loc 1 671 0
 10249 005e 07F10C07 		add	r7, r7, #12
 10250 0062 BD46     		mov	sp, r7
 10251 0064 80BC     		pop	{r7}
 10252 0066 7047     		bx	lr
 10253              	.L44:
 10254              		.align	2
 10255              	.L43:
 10256 0068 48040540 		.word	1074070600
 10257              		.cfi_endproc
 10258              	.LFE9:
 10260              		.section	.text.USBIntEnableControl,"ax",%progbits
 10261              		.align	2
 10262              		.global	USBIntEnableControl
 10263              		.thumb
 10264              		.thumb_func
 10266              	USBIntEnableControl:
 10267              	.LFB10:
 672:/home/cuil/workspace/arm/lm3s811/TI_Stellaris/driverlib/usb.c **** 
 673:/home/cuil/workspace/arm/lm3s811/TI_Stellaris/driverlib/usb.c **** //*****************************************************************************
 674:/home/cuil/workspace/arm/lm3s811/TI_Stellaris/driverlib/usb.c **** //
 675:/home/cuil/workspace/arm/lm3s811/TI_Stellaris/driverlib/usb.c **** //! Enables control interrupts on a given USB controller.
 676:/home/cuil/workspace/arm/lm3s811/TI_Stellaris/driverlib/usb.c **** //!
 677:/home/cuil/workspace/arm/lm3s811/TI_Stellaris/driverlib/usb.c **** //! \param ulBase specifies the USB module base address.
 678:/home/cuil/workspace/arm/lm3s811/TI_Stellaris/driverlib/usb.c **** //! \param ulFlags specifies which control interrupts to enable.
 679:/home/cuil/workspace/arm/lm3s811/TI_Stellaris/driverlib/usb.c **** //!
 680:/home/cuil/workspace/arm/lm3s811/TI_Stellaris/driverlib/usb.c **** //! This function enables the control interrupts for the USB controller
 681:/home/cuil/workspace/arm/lm3s811/TI_Stellaris/driverlib/usb.c **** //! specified by the \e ulBase parameter.  The \e ulFlags parameter specifies
 682:/home/cuil/workspace/arm/lm3s811/TI_Stellaris/driverlib/usb.c **** //! which control interrupts to enable.  The flags passed in the \e ulFlags
 683:/home/cuil/workspace/arm/lm3s811/TI_Stellaris/driverlib/usb.c **** //! parameters should be the definitions that start with \b USB_INTCTRL_* and
 684:/home/cuil/workspace/arm/lm3s811/TI_Stellaris/driverlib/usb.c **** //! not any other \b USB_INT flags.
 685:/home/cuil/workspace/arm/lm3s811/TI_Stellaris/driverlib/usb.c **** //!
 686:/home/cuil/workspace/arm/lm3s811/TI_Stellaris/driverlib/usb.c **** //! \return None.
 687:/home/cuil/workspace/arm/lm3s811/TI_Stellaris/driverlib/usb.c **** //
 688:/home/cuil/workspace/arm/lm3s811/TI_Stellaris/driverlib/usb.c **** //*****************************************************************************
 689:/home/cuil/workspace/arm/lm3s811/TI_Stellaris/driverlib/usb.c **** void
 690:/home/cuil/workspace/arm/lm3s811/TI_Stellaris/driverlib/usb.c **** USBIntEnableControl(unsigned long ulBase, unsigned long ulFlags)
 691:/home/cuil/workspace/arm/lm3s811/TI_Stellaris/driverlib/usb.c **** {
 10268              		.loc 1 691 0
 10269              		.cfi_startproc
 10270              		@ args = 0, pretend = 0, frame = 8
 10271              		@ frame_needed = 1, uses_anonymous_args = 0
 10272              		@ link register save eliminated.
 10273 0000 80B4     		push	{r7}
 10274              	.LCFI30:
 10275              		.cfi_def_cfa_offset 4
 10276 0002 83B0     		sub	sp, sp, #12
 10277              	.LCFI31:
 10278              		.cfi_def_cfa_offset 16
 10279 0004 00AF     		add	r7, sp, #0
 10280              		.cfi_offset 7, -4
 10281              	.LCFI32:
 10282              		.cfi_def_cfa_register 7
 10283 0006 7860     		str	r0, [r7, #4]
 10284 0008 3960     		str	r1, [r7, #0]
 692:/home/cuil/workspace/arm/lm3s811/TI_Stellaris/driverlib/usb.c ****     //
 693:/home/cuil/workspace/arm/lm3s811/TI_Stellaris/driverlib/usb.c ****     // Check the arguments.
 694:/home/cuil/workspace/arm/lm3s811/TI_Stellaris/driverlib/usb.c ****     //
 695:/home/cuil/workspace/arm/lm3s811/TI_Stellaris/driverlib/usb.c ****     ASSERT(ulBase == USB0_BASE);
 696:/home/cuil/workspace/arm/lm3s811/TI_Stellaris/driverlib/usb.c ****     ASSERT((ulFlags & (~USB_INTCTRL_ALL)) == 0);
 697:/home/cuil/workspace/arm/lm3s811/TI_Stellaris/driverlib/usb.c **** 
 698:/home/cuil/workspace/arm/lm3s811/TI_Stellaris/driverlib/usb.c ****     //
 699:/home/cuil/workspace/arm/lm3s811/TI_Stellaris/driverlib/usb.c ****     // If any general interrupts were enabled, then write the general 
 700:/home/cuil/workspace/arm/lm3s811/TI_Stellaris/driverlib/usb.c ****     // interrupt settings out to the hardware.
 701:/home/cuil/workspace/arm/lm3s811/TI_Stellaris/driverlib/usb.c ****     //
 702:/home/cuil/workspace/arm/lm3s811/TI_Stellaris/driverlib/usb.c ****     if(ulFlags & USB_INTCTRL_STATUS)
 10285              		.loc 1 702 0
 10286 000a 3B68     		ldr	r3, [r7, #0]
 10287 000c 03F0FF03 		and	r3, r3, #255
 10288 0010 002B     		cmp	r3, #0
 10289 0012 0DD0     		beq	.L46
 703:/home/cuil/workspace/arm/lm3s811/TI_Stellaris/driverlib/usb.c ****     {
 704:/home/cuil/workspace/arm/lm3s811/TI_Stellaris/driverlib/usb.c ****         HWREGB(ulBase + USB_O_IE) |= ulFlags;
 10290              		.loc 1 704 0
 10291 0014 7B68     		ldr	r3, [r7, #4]
 10292 0016 03F10B03 		add	r3, r3, #11
 10293 001a 7A68     		ldr	r2, [r7, #4]
 10294 001c 02F10B02 		add	r2, r2, #11
 10295 0020 1278     		ldrb	r2, [r2, #0]
 10296 0022 D1B2     		uxtb	r1, r2
 10297 0024 3A68     		ldr	r2, [r7, #0]
 10298 0026 D2B2     		uxtb	r2, r2
 10299 0028 41EA0202 		orr	r2, r1, r2
 10300 002c D2B2     		uxtb	r2, r2
 10301 002e 1A70     		strb	r2, [r3, #0]
 10302              	.L46:
 705:/home/cuil/workspace/arm/lm3s811/TI_Stellaris/driverlib/usb.c ****     }
 706:/home/cuil/workspace/arm/lm3s811/TI_Stellaris/driverlib/usb.c **** 
 707:/home/cuil/workspace/arm/lm3s811/TI_Stellaris/driverlib/usb.c ****     //
 708:/home/cuil/workspace/arm/lm3s811/TI_Stellaris/driverlib/usb.c ****     // Enable the power fault interrupt.
 709:/home/cuil/workspace/arm/lm3s811/TI_Stellaris/driverlib/usb.c ****     //
 710:/home/cuil/workspace/arm/lm3s811/TI_Stellaris/driverlib/usb.c ****     if(ulFlags & USB_INTCTRL_POWER_FAULT)
 10303              		.loc 1 710 0
 10304 0030 3B68     		ldr	r3, [r7, #0]
 10305 0032 03F48073 		and	r3, r3, #256
 10306 0036 002B     		cmp	r3, #0
 10307 0038 05D0     		beq	.L47
 711:/home/cuil/workspace/arm/lm3s811/TI_Stellaris/driverlib/usb.c ****     {
 712:/home/cuil/workspace/arm/lm3s811/TI_Stellaris/driverlib/usb.c ****         HWREG(ulBase + USB_O_EPCIM) = USB_EPCIM_PF;
 10308              		.loc 1 712 0
 10309 003a 7B68     		ldr	r3, [r7, #4]
 10310 003c 03F58163 		add	r3, r3, #1032
 10311 0040 4FF00102 		mov	r2, #1
 10312 0044 1A60     		str	r2, [r3, #0]
 10313              	.L47:
 713:/home/cuil/workspace/arm/lm3s811/TI_Stellaris/driverlib/usb.c ****     }
 714:/home/cuil/workspace/arm/lm3s811/TI_Stellaris/driverlib/usb.c **** 
 715:/home/cuil/workspace/arm/lm3s811/TI_Stellaris/driverlib/usb.c ****     //
 716:/home/cuil/workspace/arm/lm3s811/TI_Stellaris/driverlib/usb.c ****     // Enable the ID pin detect interrupt.
 717:/home/cuil/workspace/arm/lm3s811/TI_Stellaris/driverlib/usb.c ****     //
 718:/home/cuil/workspace/arm/lm3s811/TI_Stellaris/driverlib/usb.c ****     if(ulFlags & USB_INTCTRL_MODE_DETECT)
 10314              		.loc 1 718 0
 10315 0046 3B68     		ldr	r3, [r7, #0]
 10316 0048 03F40073 		and	r3, r3, #512
 10317 004c 002B     		cmp	r3, #0
 10318 004e 03D0     		beq	.L45
 719:/home/cuil/workspace/arm/lm3s811/TI_Stellaris/driverlib/usb.c ****     {
 720:/home/cuil/workspace/arm/lm3s811/TI_Stellaris/driverlib/usb.c ****         HWREG(USB0_BASE + USB_O_IDVIM) = USB_IDVIM_ID;
 10319              		.loc 1 720 0
 10320 0050 044B     		ldr	r3, .L49
 10321 0052 4FF00102 		mov	r2, #1
 10322 0056 1A60     		str	r2, [r3, #0]
 10323              	.L45:
 721:/home/cuil/workspace/arm/lm3s811/TI_Stellaris/driverlib/usb.c ****     }
 722:/home/cuil/workspace/arm/lm3s811/TI_Stellaris/driverlib/usb.c **** }
 10324              		.loc 1 722 0
 10325 0058 07F10C07 		add	r7, r7, #12
 10326 005c BD46     		mov	sp, r7
 10327 005e 80BC     		pop	{r7}
 10328 0060 7047     		bx	lr
 10329              	.L50:
 10330 0062 00BF     		.align	2
 10331              	.L49:
 10332 0064 48040540 		.word	1074070600
 10333              		.cfi_endproc
 10334              	.LFE10:
 10336              		.section	.text.USBIntStatusControl,"ax",%progbits
 10337              		.align	2
 10338              		.global	USBIntStatusControl
 10339              		.thumb
 10340              		.thumb_func
 10342              	USBIntStatusControl:
 10343              	.LFB11:
 723:/home/cuil/workspace/arm/lm3s811/TI_Stellaris/driverlib/usb.c **** 
 724:/home/cuil/workspace/arm/lm3s811/TI_Stellaris/driverlib/usb.c **** //*****************************************************************************
 725:/home/cuil/workspace/arm/lm3s811/TI_Stellaris/driverlib/usb.c **** //
 726:/home/cuil/workspace/arm/lm3s811/TI_Stellaris/driverlib/usb.c **** //! Returns the control interrupt status on a given USB controller.
 727:/home/cuil/workspace/arm/lm3s811/TI_Stellaris/driverlib/usb.c **** //!
 728:/home/cuil/workspace/arm/lm3s811/TI_Stellaris/driverlib/usb.c **** //! \param ulBase specifies the USB module base address.
 729:/home/cuil/workspace/arm/lm3s811/TI_Stellaris/driverlib/usb.c **** //!
 730:/home/cuil/workspace/arm/lm3s811/TI_Stellaris/driverlib/usb.c **** //! This function reads control interrupt status for a USB controller. This
 731:/home/cuil/workspace/arm/lm3s811/TI_Stellaris/driverlib/usb.c **** //! call returns the current status for control interrupts only, the endpoint
 732:/home/cuil/workspace/arm/lm3s811/TI_Stellaris/driverlib/usb.c **** //! interrupt status is retrieved by calling USBIntStatusEndpoint(). The bit 
 733:/home/cuil/workspace/arm/lm3s811/TI_Stellaris/driverlib/usb.c **** //! values returned should be compared against the \b USB_INTCTRL_*
 734:/home/cuil/workspace/arm/lm3s811/TI_Stellaris/driverlib/usb.c **** //! values.
 735:/home/cuil/workspace/arm/lm3s811/TI_Stellaris/driverlib/usb.c **** //!
 736:/home/cuil/workspace/arm/lm3s811/TI_Stellaris/driverlib/usb.c **** //! The following are the meanings of all \b USB_INCTRL_ flags and the modes
 737:/home/cuil/workspace/arm/lm3s811/TI_Stellaris/driverlib/usb.c **** //! for which they are valid.  These values apply to any calls to
 738:/home/cuil/workspace/arm/lm3s811/TI_Stellaris/driverlib/usb.c **** //! USBIntStatusControl(), USBIntEnableControl(), and USBIntDisableControl().
 739:/home/cuil/workspace/arm/lm3s811/TI_Stellaris/driverlib/usb.c **** //! Some of these flags are only valid in the following modes as indicated in
 740:/home/cuil/workspace/arm/lm3s811/TI_Stellaris/driverlib/usb.c **** //! the parentheses:  Host, Device, and OTG.
 741:/home/cuil/workspace/arm/lm3s811/TI_Stellaris/driverlib/usb.c **** //!
 742:/home/cuil/workspace/arm/lm3s811/TI_Stellaris/driverlib/usb.c **** //! - \b USB_INTCTRL_ALL - A full mask of all control interrupt sources.
 743:/home/cuil/workspace/arm/lm3s811/TI_Stellaris/driverlib/usb.c **** //! - \b USB_INTCTRL_VBUS_ERR - A VBUS error has occurred (Host Only).
 744:/home/cuil/workspace/arm/lm3s811/TI_Stellaris/driverlib/usb.c **** //! - \b USB_INTCTRL_SESSION - Session Start Detected on A-side of cable
 745:/home/cuil/workspace/arm/lm3s811/TI_Stellaris/driverlib/usb.c **** //!                            (OTG Only).
 746:/home/cuil/workspace/arm/lm3s811/TI_Stellaris/driverlib/usb.c **** //! - \b USB_INTCTRL_SESSION_END - Session End Detected (Device Only)
 747:/home/cuil/workspace/arm/lm3s811/TI_Stellaris/driverlib/usb.c **** //! - \b USB_INTCTRL_DISCONNECT - Device Disconnect Detected (Host Only)
 748:/home/cuil/workspace/arm/lm3s811/TI_Stellaris/driverlib/usb.c **** //! - \b USB_INTCTRL_CONNECT - Device Connect Detected (Host Only)
 749:/home/cuil/workspace/arm/lm3s811/TI_Stellaris/driverlib/usb.c **** //! - \b USB_INTCTRL_SOF - Start of Frame Detected.
 750:/home/cuil/workspace/arm/lm3s811/TI_Stellaris/driverlib/usb.c **** //! - \b USB_INTCTRL_BABBLE - USB controller detected a device signaling past
 751:/home/cuil/workspace/arm/lm3s811/TI_Stellaris/driverlib/usb.c **** //!                           the end of a frame. (Host Only)
 752:/home/cuil/workspace/arm/lm3s811/TI_Stellaris/driverlib/usb.c **** //! - \b USB_INTCTRL_RESET - Reset signaling detected by device. (Device Only)
 753:/home/cuil/workspace/arm/lm3s811/TI_Stellaris/driverlib/usb.c **** //! - \b USB_INTCTRL_RESUME - Resume signaling detected.
 754:/home/cuil/workspace/arm/lm3s811/TI_Stellaris/driverlib/usb.c **** //! - \b USB_INTCTRL_SUSPEND - Suspend signaling detected by device (Device
 755:/home/cuil/workspace/arm/lm3s811/TI_Stellaris/driverlib/usb.c **** //!                            Only)
 756:/home/cuil/workspace/arm/lm3s811/TI_Stellaris/driverlib/usb.c **** //! - \b USB_INTCTRL_MODE_DETECT - OTG cable mode detection has completed
 757:/home/cuil/workspace/arm/lm3s811/TI_Stellaris/driverlib/usb.c **** //!                                (OTG Only)
 758:/home/cuil/workspace/arm/lm3s811/TI_Stellaris/driverlib/usb.c **** //! - \b USB_INTCTRL_POWER_FAULT - Power Fault detected. (Host Only)
 759:/home/cuil/workspace/arm/lm3s811/TI_Stellaris/driverlib/usb.c **** //!
 760:/home/cuil/workspace/arm/lm3s811/TI_Stellaris/driverlib/usb.c **** //! \note This call clears the source of all of the control status interrupts.
 761:/home/cuil/workspace/arm/lm3s811/TI_Stellaris/driverlib/usb.c **** //! 
 762:/home/cuil/workspace/arm/lm3s811/TI_Stellaris/driverlib/usb.c **** //! \return Returns the status of the control interrupts for a USB controller.
 763:/home/cuil/workspace/arm/lm3s811/TI_Stellaris/driverlib/usb.c **** //
 764:/home/cuil/workspace/arm/lm3s811/TI_Stellaris/driverlib/usb.c **** //*****************************************************************************
 765:/home/cuil/workspace/arm/lm3s811/TI_Stellaris/driverlib/usb.c **** unsigned long
 766:/home/cuil/workspace/arm/lm3s811/TI_Stellaris/driverlib/usb.c **** USBIntStatusControl(unsigned long ulBase)
 767:/home/cuil/workspace/arm/lm3s811/TI_Stellaris/driverlib/usb.c **** {
 10344              		.loc 1 767 0
 10345              		.cfi_startproc
 10346              		@ args = 0, pretend = 0, frame = 16
 10347              		@ frame_needed = 1, uses_anonymous_args = 0
 10348              		@ link register save eliminated.
 10349 0000 80B4     		push	{r7}
 10350              	.LCFI33:
 10351              		.cfi_def_cfa_offset 4
 10352 0002 85B0     		sub	sp, sp, #20
 10353              	.LCFI34:
 10354              		.cfi_def_cfa_offset 24
 10355 0004 00AF     		add	r7, sp, #0
 10356              		.cfi_offset 7, -4
 10357              	.LCFI35:
 10358              		.cfi_def_cfa_register 7
 10359 0006 7860     		str	r0, [r7, #4]
 768:/home/cuil/workspace/arm/lm3s811/TI_Stellaris/driverlib/usb.c ****     unsigned long ulStatus;
 769:/home/cuil/workspace/arm/lm3s811/TI_Stellaris/driverlib/usb.c **** 
 770:/home/cuil/workspace/arm/lm3s811/TI_Stellaris/driverlib/usb.c ****     //
 771:/home/cuil/workspace/arm/lm3s811/TI_Stellaris/driverlib/usb.c ****     // Check the arguments.
 772:/home/cuil/workspace/arm/lm3s811/TI_Stellaris/driverlib/usb.c ****     //
 773:/home/cuil/workspace/arm/lm3s811/TI_Stellaris/driverlib/usb.c ****     ASSERT(ulBase == USB0_BASE);
 774:/home/cuil/workspace/arm/lm3s811/TI_Stellaris/driverlib/usb.c **** 
 775:/home/cuil/workspace/arm/lm3s811/TI_Stellaris/driverlib/usb.c ****     //
 776:/home/cuil/workspace/arm/lm3s811/TI_Stellaris/driverlib/usb.c ****     // Get the general interrupt status, these bits go into the upper 8 bits
 777:/home/cuil/workspace/arm/lm3s811/TI_Stellaris/driverlib/usb.c ****     // of the returned value.
 778:/home/cuil/workspace/arm/lm3s811/TI_Stellaris/driverlib/usb.c ****     //
 779:/home/cuil/workspace/arm/lm3s811/TI_Stellaris/driverlib/usb.c ****     ulStatus = HWREGB(ulBase + USB_O_IS);
 10360              		.loc 1 779 0
 10361 0008 7B68     		ldr	r3, [r7, #4]
 10362 000a 03F10A03 		add	r3, r3, #10
 10363 000e 1B78     		ldrb	r3, [r3, #0]
 10364 0010 DBB2     		uxtb	r3, r3
 10365 0012 FB60     		str	r3, [r7, #12]
 780:/home/cuil/workspace/arm/lm3s811/TI_Stellaris/driverlib/usb.c **** 
 781:/home/cuil/workspace/arm/lm3s811/TI_Stellaris/driverlib/usb.c ****     //
 782:/home/cuil/workspace/arm/lm3s811/TI_Stellaris/driverlib/usb.c ****     // Add the power fault status.
 783:/home/cuil/workspace/arm/lm3s811/TI_Stellaris/driverlib/usb.c ****     //
 784:/home/cuil/workspace/arm/lm3s811/TI_Stellaris/driverlib/usb.c ****     if(HWREG(ulBase + USB_O_EPCISC) & USB_EPCISC_PF)
 10366              		.loc 1 784 0
 10367 0014 7B68     		ldr	r3, [r7, #4]
 10368 0016 03F58063 		add	r3, r3, #1024
 10369 001a 03F10C03 		add	r3, r3, #12
 10370 001e 1B68     		ldr	r3, [r3, #0]
 10371 0020 03F00103 		and	r3, r3, #1
 10372 0024 DBB2     		uxtb	r3, r3
 10373 0026 002B     		cmp	r3, #0
 10374 0028 14D0     		beq	.L52
 785:/home/cuil/workspace/arm/lm3s811/TI_Stellaris/driverlib/usb.c ****     {
 786:/home/cuil/workspace/arm/lm3s811/TI_Stellaris/driverlib/usb.c ****         //
 787:/home/cuil/workspace/arm/lm3s811/TI_Stellaris/driverlib/usb.c ****         // Indicate a power fault was detected.
 788:/home/cuil/workspace/arm/lm3s811/TI_Stellaris/driverlib/usb.c ****         //
 789:/home/cuil/workspace/arm/lm3s811/TI_Stellaris/driverlib/usb.c ****         ulStatus |= USB_INTCTRL_POWER_FAULT;
 10375              		.loc 1 789 0
 10376 002a FB68     		ldr	r3, [r7, #12]
 10377 002c 43F48073 		orr	r3, r3, #256
 10378 0030 FB60     		str	r3, [r7, #12]
 790:/home/cuil/workspace/arm/lm3s811/TI_Stellaris/driverlib/usb.c **** 
 791:/home/cuil/workspace/arm/lm3s811/TI_Stellaris/driverlib/usb.c ****         //
 792:/home/cuil/workspace/arm/lm3s811/TI_Stellaris/driverlib/usb.c ****         // Clear the power fault interrupt.
 793:/home/cuil/workspace/arm/lm3s811/TI_Stellaris/driverlib/usb.c ****         //
 794:/home/cuil/workspace/arm/lm3s811/TI_Stellaris/driverlib/usb.c ****         HWREGB(ulBase + USB_O_EPCISC) |= USB_EPCISC_PF;
 10379              		.loc 1 794 0
 10380 0032 7B68     		ldr	r3, [r7, #4]
 10381 0034 03F58063 		add	r3, r3, #1024
 10382 0038 03F10C03 		add	r3, r3, #12
 10383 003c 1A46     		mov	r2, r3
 10384 003e 7B68     		ldr	r3, [r7, #4]
 10385 0040 03F58063 		add	r3, r3, #1024
 10386 0044 03F10C03 		add	r3, r3, #12
 10387 0048 1B78     		ldrb	r3, [r3, #0]
 10388 004a DBB2     		uxtb	r3, r3
 10389 004c 43F00103 		orr	r3, r3, #1
 10390 0050 DBB2     		uxtb	r3, r3
 10391 0052 1370     		strb	r3, [r2, #0]
 10392              	.L52:
 795:/home/cuil/workspace/arm/lm3s811/TI_Stellaris/driverlib/usb.c ****     }
 796:/home/cuil/workspace/arm/lm3s811/TI_Stellaris/driverlib/usb.c **** 
 797:/home/cuil/workspace/arm/lm3s811/TI_Stellaris/driverlib/usb.c ****     if(HWREG(USB0_BASE + USB_O_IDVISC) & USB_IDVRIS_ID)
 10393              		.loc 1 797 0
 10394 0054 0B4B     		ldr	r3, .L54
 10395 0056 1B68     		ldr	r3, [r3, #0]
 10396 0058 03F00103 		and	r3, r3, #1
 10397 005c DBB2     		uxtb	r3, r3
 10398 005e 002B     		cmp	r3, #0
 10399 0060 09D0     		beq	.L53
 798:/home/cuil/workspace/arm/lm3s811/TI_Stellaris/driverlib/usb.c ****     {
 799:/home/cuil/workspace/arm/lm3s811/TI_Stellaris/driverlib/usb.c ****         //
 800:/home/cuil/workspace/arm/lm3s811/TI_Stellaris/driverlib/usb.c ****         // Indicate an id detection.
 801:/home/cuil/workspace/arm/lm3s811/TI_Stellaris/driverlib/usb.c ****         //
 802:/home/cuil/workspace/arm/lm3s811/TI_Stellaris/driverlib/usb.c ****         ulStatus |= USB_INTCTRL_MODE_DETECT;
 10400              		.loc 1 802 0
 10401 0062 FB68     		ldr	r3, [r7, #12]
 10402 0064 43F40073 		orr	r3, r3, #512
 10403 0068 FB60     		str	r3, [r7, #12]
 803:/home/cuil/workspace/arm/lm3s811/TI_Stellaris/driverlib/usb.c **** 
 804:/home/cuil/workspace/arm/lm3s811/TI_Stellaris/driverlib/usb.c ****         //
 805:/home/cuil/workspace/arm/lm3s811/TI_Stellaris/driverlib/usb.c ****         // Clear the id detection interrupt.
 806:/home/cuil/workspace/arm/lm3s811/TI_Stellaris/driverlib/usb.c ****         //
 807:/home/cuil/workspace/arm/lm3s811/TI_Stellaris/driverlib/usb.c ****         HWREG(USB0_BASE + USB_O_IDVISC) |= USB_IDVRIS_ID;
 10404              		.loc 1 807 0
 10405 006a 064B     		ldr	r3, .L54
 10406 006c 054A     		ldr	r2, .L54
 10407 006e 1268     		ldr	r2, [r2, #0]
 10408 0070 42F00102 		orr	r2, r2, #1
 10409 0074 1A60     		str	r2, [r3, #0]
 10410              	.L53:
 808:/home/cuil/workspace/arm/lm3s811/TI_Stellaris/driverlib/usb.c ****     }
 809:/home/cuil/workspace/arm/lm3s811/TI_Stellaris/driverlib/usb.c **** 
 810:/home/cuil/workspace/arm/lm3s811/TI_Stellaris/driverlib/usb.c ****     //
 811:/home/cuil/workspace/arm/lm3s811/TI_Stellaris/driverlib/usb.c ****     // Return the combined interrupt status.
 812:/home/cuil/workspace/arm/lm3s811/TI_Stellaris/driverlib/usb.c ****     //
 813:/home/cuil/workspace/arm/lm3s811/TI_Stellaris/driverlib/usb.c ****     return(ulStatus);
 10411              		.loc 1 813 0
 10412 0076 FB68     		ldr	r3, [r7, #12]
 814:/home/cuil/workspace/arm/lm3s811/TI_Stellaris/driverlib/usb.c **** }
 10413              		.loc 1 814 0
 10414 0078 1846     		mov	r0, r3
 10415 007a 07F11407 		add	r7, r7, #20
 10416 007e BD46     		mov	sp, r7
 10417 0080 80BC     		pop	{r7}
 10418 0082 7047     		bx	lr
 10419              	.L55:
 10420              		.align	2
 10421              	.L54:
 10422 0084 4C040540 		.word	1074070604
 10423              		.cfi_endproc
 10424              	.LFE11:
 10426              		.section	.text.USBIntDisableEndpoint,"ax",%progbits
 10427              		.align	2
 10428              		.global	USBIntDisableEndpoint
 10429              		.thumb
 10430              		.thumb_func
 10432              	USBIntDisableEndpoint:
 10433              	.LFB12:
 815:/home/cuil/workspace/arm/lm3s811/TI_Stellaris/driverlib/usb.c **** 
 816:/home/cuil/workspace/arm/lm3s811/TI_Stellaris/driverlib/usb.c **** //*****************************************************************************
 817:/home/cuil/workspace/arm/lm3s811/TI_Stellaris/driverlib/usb.c **** //
 818:/home/cuil/workspace/arm/lm3s811/TI_Stellaris/driverlib/usb.c **** //! Disables endpoint interrupts on a given USB controller.
 819:/home/cuil/workspace/arm/lm3s811/TI_Stellaris/driverlib/usb.c **** //!
 820:/home/cuil/workspace/arm/lm3s811/TI_Stellaris/driverlib/usb.c **** //! \param ulBase specifies the USB module base address.
 821:/home/cuil/workspace/arm/lm3s811/TI_Stellaris/driverlib/usb.c **** //! \param ulFlags specifies which endpoint interrupts to disable.
 822:/home/cuil/workspace/arm/lm3s811/TI_Stellaris/driverlib/usb.c **** //!
 823:/home/cuil/workspace/arm/lm3s811/TI_Stellaris/driverlib/usb.c **** //! This function disables endpoint interrupts for the USB controller specified
 824:/home/cuil/workspace/arm/lm3s811/TI_Stellaris/driverlib/usb.c **** //! by the \e ulBase parameter.  The \e ulFlags parameter specifies which
 825:/home/cuil/workspace/arm/lm3s811/TI_Stellaris/driverlib/usb.c **** //! endpoint interrupts to disable.  The flags passed in the \e ulFlags
 826:/home/cuil/workspace/arm/lm3s811/TI_Stellaris/driverlib/usb.c **** //! parameters should be the definitions that start with \b USB_INTEP_* and not
 827:/home/cuil/workspace/arm/lm3s811/TI_Stellaris/driverlib/usb.c **** //! any other \b USB_INT flags.
 828:/home/cuil/workspace/arm/lm3s811/TI_Stellaris/driverlib/usb.c **** //!
 829:/home/cuil/workspace/arm/lm3s811/TI_Stellaris/driverlib/usb.c **** //! \return None.
 830:/home/cuil/workspace/arm/lm3s811/TI_Stellaris/driverlib/usb.c **** //
 831:/home/cuil/workspace/arm/lm3s811/TI_Stellaris/driverlib/usb.c **** //*****************************************************************************
 832:/home/cuil/workspace/arm/lm3s811/TI_Stellaris/driverlib/usb.c **** void
 833:/home/cuil/workspace/arm/lm3s811/TI_Stellaris/driverlib/usb.c **** USBIntDisableEndpoint(unsigned long ulBase, unsigned long ulFlags)
 834:/home/cuil/workspace/arm/lm3s811/TI_Stellaris/driverlib/usb.c **** {
 10434              		.loc 1 834 0
 10435              		.cfi_startproc
 10436              		@ args = 0, pretend = 0, frame = 8
 10437              		@ frame_needed = 1, uses_anonymous_args = 0
 10438              		@ link register save eliminated.
 10439 0000 80B4     		push	{r7}
 10440              	.LCFI36:
 10441              		.cfi_def_cfa_offset 4
 10442 0002 83B0     		sub	sp, sp, #12
 10443              	.LCFI37:
 10444              		.cfi_def_cfa_offset 16
 10445 0004 00AF     		add	r7, sp, #0
 10446              		.cfi_offset 7, -4
 10447              	.LCFI38:
 10448              		.cfi_def_cfa_register 7
 10449 0006 7860     		str	r0, [r7, #4]
 10450 0008 3960     		str	r1, [r7, #0]
 835:/home/cuil/workspace/arm/lm3s811/TI_Stellaris/driverlib/usb.c ****     //
 836:/home/cuil/workspace/arm/lm3s811/TI_Stellaris/driverlib/usb.c ****     // Check the arguments.
 837:/home/cuil/workspace/arm/lm3s811/TI_Stellaris/driverlib/usb.c ****     //
 838:/home/cuil/workspace/arm/lm3s811/TI_Stellaris/driverlib/usb.c ****     ASSERT(ulBase == USB0_BASE);
 839:/home/cuil/workspace/arm/lm3s811/TI_Stellaris/driverlib/usb.c **** 
 840:/home/cuil/workspace/arm/lm3s811/TI_Stellaris/driverlib/usb.c ****     //
 841:/home/cuil/workspace/arm/lm3s811/TI_Stellaris/driverlib/usb.c ****     // If any transmit interrupts were disabled, then write the transmit
 842:/home/cuil/workspace/arm/lm3s811/TI_Stellaris/driverlib/usb.c ****     // interrupt settings out to the hardware.
 843:/home/cuil/workspace/arm/lm3s811/TI_Stellaris/driverlib/usb.c ****     //
 844:/home/cuil/workspace/arm/lm3s811/TI_Stellaris/driverlib/usb.c ****     HWREGH(ulBase + USB_O_TXIE) &=
 10451              		.loc 1 844 0
 10452 000a 7B68     		ldr	r3, [r7, #4]
 10453 000c 03F10603 		add	r3, r3, #6
 10454 0010 7A68     		ldr	r2, [r7, #4]
 10455 0012 02F10602 		add	r2, r2, #6
 10456 0016 1288     		ldrh	r2, [r2, #0]	@ movhi
 10457 0018 91B2     		uxth	r1, r2
 10458 001a 3A68     		ldr	r2, [r7, #0]
 10459 001c 92B2     		uxth	r2, r2
 10460 001e 6FEA0202 		mvn	r2, r2
 10461 0022 92B2     		uxth	r2, r2
 10462 0024 01EA0202 		and	r2, r1, r2
 10463 0028 92B2     		uxth	r2, r2
 10464 002a 1A80     		strh	r2, [r3, #0]	@ movhi
 845:/home/cuil/workspace/arm/lm3s811/TI_Stellaris/driverlib/usb.c ****         ~(ulFlags & (USB_INTEP_HOST_OUT | USB_INTEP_DEV_IN | USB_INTEP_0));
 846:/home/cuil/workspace/arm/lm3s811/TI_Stellaris/driverlib/usb.c **** 
 847:/home/cuil/workspace/arm/lm3s811/TI_Stellaris/driverlib/usb.c ****     //
 848:/home/cuil/workspace/arm/lm3s811/TI_Stellaris/driverlib/usb.c ****     // If any receive interrupts were disabled, then write the receive interrupt
 849:/home/cuil/workspace/arm/lm3s811/TI_Stellaris/driverlib/usb.c ****     // settings out to the hardware.
 850:/home/cuil/workspace/arm/lm3s811/TI_Stellaris/driverlib/usb.c ****     //
 851:/home/cuil/workspace/arm/lm3s811/TI_Stellaris/driverlib/usb.c ****     HWREGH(ulBase + USB_O_RXIE) &=
 10465              		.loc 1 851 0
 10466 002c 7B68     		ldr	r3, [r7, #4]
 10467 002e 03F10803 		add	r3, r3, #8
 10468 0032 1A46     		mov	r2, r3
 10469 0034 7B68     		ldr	r3, [r7, #4]
 10470 0036 03F10803 		add	r3, r3, #8
 10471 003a 1B88     		ldrh	r3, [r3, #0]	@ movhi
 10472 003c 99B2     		uxth	r1, r3
 852:/home/cuil/workspace/arm/lm3s811/TI_Stellaris/driverlib/usb.c ****         ~((ulFlags & (USB_INTEP_HOST_IN | USB_INTEP_DEV_OUT)) >>
 10473              		.loc 1 852 0
 10474 003e 3B68     		ldr	r3, [r7, #0]
 10475 0040 4FEA5343 		lsr	r3, r3, #17
 10476 0044 4FEA4343 		lsl	r3, r3, #17
 10477 0048 4FEA1343 		lsr	r3, r3, #16
 851:/home/cuil/workspace/arm/lm3s811/TI_Stellaris/driverlib/usb.c ****     HWREGH(ulBase + USB_O_RXIE) &=
 10478              		.loc 1 851 0
 10479 004c 9BB2     		uxth	r3, r3
 10480 004e 6FEA0303 		mvn	r3, r3
 10481 0052 9BB2     		uxth	r3, r3
 10482 0054 01EA0303 		and	r3, r1, r3
 10483 0058 9BB2     		uxth	r3, r3
 10484 005a 1380     		strh	r3, [r2, #0]	@ movhi
 853:/home/cuil/workspace/arm/lm3s811/TI_Stellaris/driverlib/usb.c ****           USB_INTEP_RX_SHIFT);
 854:/home/cuil/workspace/arm/lm3s811/TI_Stellaris/driverlib/usb.c **** }
 10485              		.loc 1 854 0
 10486 005c 07F10C07 		add	r7, r7, #12
 10487 0060 BD46     		mov	sp, r7
 10488 0062 80BC     		pop	{r7}
 10489 0064 7047     		bx	lr
 10490              		.cfi_endproc
 10491              	.LFE12:
 10493 0066 00BF     		.section	.text.USBIntEnableEndpoint,"ax",%progbits
 10494              		.align	2
 10495              		.global	USBIntEnableEndpoint
 10496              		.thumb
 10497              		.thumb_func
 10499              	USBIntEnableEndpoint:
 10500              	.LFB13:
 855:/home/cuil/workspace/arm/lm3s811/TI_Stellaris/driverlib/usb.c **** 
 856:/home/cuil/workspace/arm/lm3s811/TI_Stellaris/driverlib/usb.c **** //*****************************************************************************
 857:/home/cuil/workspace/arm/lm3s811/TI_Stellaris/driverlib/usb.c **** //
 858:/home/cuil/workspace/arm/lm3s811/TI_Stellaris/driverlib/usb.c **** //! Enables endpoint interrupts on a given USB controller.
 859:/home/cuil/workspace/arm/lm3s811/TI_Stellaris/driverlib/usb.c **** //!
 860:/home/cuil/workspace/arm/lm3s811/TI_Stellaris/driverlib/usb.c **** //! \param ulBase specifies the USB module base address.
 861:/home/cuil/workspace/arm/lm3s811/TI_Stellaris/driverlib/usb.c **** //! \param ulFlags specifies which endpoint interrupts to enable.
 862:/home/cuil/workspace/arm/lm3s811/TI_Stellaris/driverlib/usb.c **** //!
 863:/home/cuil/workspace/arm/lm3s811/TI_Stellaris/driverlib/usb.c **** //! This function enables endpoint interrupts for the USB controller specified
 864:/home/cuil/workspace/arm/lm3s811/TI_Stellaris/driverlib/usb.c **** //! by the \e ulBase parameter.  The \e ulFlags parameter specifies which
 865:/home/cuil/workspace/arm/lm3s811/TI_Stellaris/driverlib/usb.c **** //! endpoint interrupts to enable.  The flags passed in the \e ulFlags
 866:/home/cuil/workspace/arm/lm3s811/TI_Stellaris/driverlib/usb.c **** //! parameters should be the definitions that start with \b USB_INTEP_* and not
 867:/home/cuil/workspace/arm/lm3s811/TI_Stellaris/driverlib/usb.c **** //! any other \b USB_INT flags.
 868:/home/cuil/workspace/arm/lm3s811/TI_Stellaris/driverlib/usb.c **** //!
 869:/home/cuil/workspace/arm/lm3s811/TI_Stellaris/driverlib/usb.c **** //! \return None.
 870:/home/cuil/workspace/arm/lm3s811/TI_Stellaris/driverlib/usb.c **** //
 871:/home/cuil/workspace/arm/lm3s811/TI_Stellaris/driverlib/usb.c **** //*****************************************************************************
 872:/home/cuil/workspace/arm/lm3s811/TI_Stellaris/driverlib/usb.c **** void
 873:/home/cuil/workspace/arm/lm3s811/TI_Stellaris/driverlib/usb.c **** USBIntEnableEndpoint(unsigned long ulBase, unsigned long ulFlags)
 874:/home/cuil/workspace/arm/lm3s811/TI_Stellaris/driverlib/usb.c **** {
 10501              		.loc 1 874 0
 10502              		.cfi_startproc
 10503              		@ args = 0, pretend = 0, frame = 8
 10504              		@ frame_needed = 1, uses_anonymous_args = 0
 10505              		@ link register save eliminated.
 10506 0000 80B4     		push	{r7}
 10507              	.LCFI39:
 10508              		.cfi_def_cfa_offset 4
 10509 0002 83B0     		sub	sp, sp, #12
 10510              	.LCFI40:
 10511              		.cfi_def_cfa_offset 16
 10512 0004 00AF     		add	r7, sp, #0
 10513              		.cfi_offset 7, -4
 10514              	.LCFI41:
 10515              		.cfi_def_cfa_register 7
 10516 0006 7860     		str	r0, [r7, #4]
 10517 0008 3960     		str	r1, [r7, #0]
 875:/home/cuil/workspace/arm/lm3s811/TI_Stellaris/driverlib/usb.c ****     //
 876:/home/cuil/workspace/arm/lm3s811/TI_Stellaris/driverlib/usb.c ****     // Check the arguments.
 877:/home/cuil/workspace/arm/lm3s811/TI_Stellaris/driverlib/usb.c ****     //
 878:/home/cuil/workspace/arm/lm3s811/TI_Stellaris/driverlib/usb.c ****     ASSERT(ulBase == USB0_BASE);
 879:/home/cuil/workspace/arm/lm3s811/TI_Stellaris/driverlib/usb.c **** 
 880:/home/cuil/workspace/arm/lm3s811/TI_Stellaris/driverlib/usb.c ****     //
 881:/home/cuil/workspace/arm/lm3s811/TI_Stellaris/driverlib/usb.c ****     // Enable any transmit endpoint interrupts.
 882:/home/cuil/workspace/arm/lm3s811/TI_Stellaris/driverlib/usb.c ****     //
 883:/home/cuil/workspace/arm/lm3s811/TI_Stellaris/driverlib/usb.c ****     HWREGH(ulBase + USB_O_TXIE) |=
 10518              		.loc 1 883 0
 10519 000a 7B68     		ldr	r3, [r7, #4]
 10520 000c 03F10603 		add	r3, r3, #6
 10521 0010 7A68     		ldr	r2, [r7, #4]
 10522 0012 02F10602 		add	r2, r2, #6
 10523 0016 1288     		ldrh	r2, [r2, #0]	@ movhi
 10524 0018 91B2     		uxth	r1, r2
 10525 001a 3A68     		ldr	r2, [r7, #0]
 10526 001c 92B2     		uxth	r2, r2
 10527 001e 41EA0202 		orr	r2, r1, r2
 10528 0022 92B2     		uxth	r2, r2
 10529 0024 1A80     		strh	r2, [r3, #0]	@ movhi
 884:/home/cuil/workspace/arm/lm3s811/TI_Stellaris/driverlib/usb.c ****            ulFlags & (USB_INTEP_HOST_OUT | USB_INTEP_DEV_IN | USB_INTEP_0);
 885:/home/cuil/workspace/arm/lm3s811/TI_Stellaris/driverlib/usb.c **** 
 886:/home/cuil/workspace/arm/lm3s811/TI_Stellaris/driverlib/usb.c ****     //
 887:/home/cuil/workspace/arm/lm3s811/TI_Stellaris/driverlib/usb.c ****     // Enable any receive endpoint interrupts.
 888:/home/cuil/workspace/arm/lm3s811/TI_Stellaris/driverlib/usb.c ****     //
 889:/home/cuil/workspace/arm/lm3s811/TI_Stellaris/driverlib/usb.c ****     HWREGH(ulBase + USB_O_RXIE) |=
 10530              		.loc 1 889 0
 10531 0026 7B68     		ldr	r3, [r7, #4]
 10532 0028 03F10803 		add	r3, r3, #8
 10533 002c 1A46     		mov	r2, r3
 10534 002e 7B68     		ldr	r3, [r7, #4]
 10535 0030 03F10803 		add	r3, r3, #8
 10536 0034 1B88     		ldrh	r3, [r3, #0]	@ movhi
 10537 0036 99B2     		uxth	r1, r3
 890:/home/cuil/workspace/arm/lm3s811/TI_Stellaris/driverlib/usb.c ****         ((ulFlags & (USB_INTEP_HOST_IN | USB_INTEP_DEV_OUT)) >>
 10538              		.loc 1 890 0
 10539 0038 3B68     		ldr	r3, [r7, #0]
 10540 003a 4FEA5343 		lsr	r3, r3, #17
 10541 003e 4FEA4343 		lsl	r3, r3, #17
 10542 0042 4FEA1343 		lsr	r3, r3, #16
 889:/home/cuil/workspace/arm/lm3s811/TI_Stellaris/driverlib/usb.c ****     HWREGH(ulBase + USB_O_RXIE) |=
 10543              		.loc 1 889 0
 10544 0046 9BB2     		uxth	r3, r3
 10545 0048 41EA0303 		orr	r3, r1, r3
 10546 004c 9BB2     		uxth	r3, r3
 10547 004e 1380     		strh	r3, [r2, #0]	@ movhi
 891:/home/cuil/workspace/arm/lm3s811/TI_Stellaris/driverlib/usb.c ****          USB_INTEP_RX_SHIFT);
 892:/home/cuil/workspace/arm/lm3s811/TI_Stellaris/driverlib/usb.c **** }
 10548              		.loc 1 892 0
 10549 0050 07F10C07 		add	r7, r7, #12
 10550 0054 BD46     		mov	sp, r7
 10551 0056 80BC     		pop	{r7}
 10552 0058 7047     		bx	lr
 10553              		.cfi_endproc
 10554              	.LFE13:
 10556 005a 00BF     		.section	.text.USBIntStatusEndpoint,"ax",%progbits
 10557              		.align	2
 10558              		.global	USBIntStatusEndpoint
 10559              		.thumb
 10560              		.thumb_func
 10562              	USBIntStatusEndpoint:
 10563              	.LFB14:
 893:/home/cuil/workspace/arm/lm3s811/TI_Stellaris/driverlib/usb.c **** 
 894:/home/cuil/workspace/arm/lm3s811/TI_Stellaris/driverlib/usb.c **** //*****************************************************************************
 895:/home/cuil/workspace/arm/lm3s811/TI_Stellaris/driverlib/usb.c **** //
 896:/home/cuil/workspace/arm/lm3s811/TI_Stellaris/driverlib/usb.c **** //! Returns the endpoint interrupt status on a given USB controller.
 897:/home/cuil/workspace/arm/lm3s811/TI_Stellaris/driverlib/usb.c **** //!
 898:/home/cuil/workspace/arm/lm3s811/TI_Stellaris/driverlib/usb.c **** //! \param ulBase specifies the USB module base address.
 899:/home/cuil/workspace/arm/lm3s811/TI_Stellaris/driverlib/usb.c **** //!
 900:/home/cuil/workspace/arm/lm3s811/TI_Stellaris/driverlib/usb.c **** //! This function reads endpoint interrupt status for a USB controller. This
 901:/home/cuil/workspace/arm/lm3s811/TI_Stellaris/driverlib/usb.c **** //! call returns the current status for endpoint interrupts only, the control
 902:/home/cuil/workspace/arm/lm3s811/TI_Stellaris/driverlib/usb.c **** //! interrupt status is retrieved by calling USBIntStatusControl(). The bit 
 903:/home/cuil/workspace/arm/lm3s811/TI_Stellaris/driverlib/usb.c **** //! values returned should be compared against the \b USB_INTEP_* values.  
 904:/home/cuil/workspace/arm/lm3s811/TI_Stellaris/driverlib/usb.c **** //! These values are grouped into classes for \b USB_INTEP_HOST_* and
 905:/home/cuil/workspace/arm/lm3s811/TI_Stellaris/driverlib/usb.c **** //! \b USB_INTEP_DEV_* values to handle both host and device modes with all
 906:/home/cuil/workspace/arm/lm3s811/TI_Stellaris/driverlib/usb.c **** //! endpoints.
 907:/home/cuil/workspace/arm/lm3s811/TI_Stellaris/driverlib/usb.c **** //!
 908:/home/cuil/workspace/arm/lm3s811/TI_Stellaris/driverlib/usb.c **** //! \note This call clears the source of all of the endpoint interrupts.
 909:/home/cuil/workspace/arm/lm3s811/TI_Stellaris/driverlib/usb.c **** //!
 910:/home/cuil/workspace/arm/lm3s811/TI_Stellaris/driverlib/usb.c **** //! \return Returns the status of the endpoint interrupts for a USB controller.
 911:/home/cuil/workspace/arm/lm3s811/TI_Stellaris/driverlib/usb.c **** //
 912:/home/cuil/workspace/arm/lm3s811/TI_Stellaris/driverlib/usb.c **** //*****************************************************************************
 913:/home/cuil/workspace/arm/lm3s811/TI_Stellaris/driverlib/usb.c **** unsigned long
 914:/home/cuil/workspace/arm/lm3s811/TI_Stellaris/driverlib/usb.c **** USBIntStatusEndpoint(unsigned long ulBase)
 915:/home/cuil/workspace/arm/lm3s811/TI_Stellaris/driverlib/usb.c **** {
 10564              		.loc 1 915 0
 10565              		.cfi_startproc
 10566              		@ args = 0, pretend = 0, frame = 16
 10567              		@ frame_needed = 1, uses_anonymous_args = 0
 10568              		@ link register save eliminated.
 10569 0000 80B4     		push	{r7}
 10570              	.LCFI42:
 10571              		.cfi_def_cfa_offset 4
 10572 0002 85B0     		sub	sp, sp, #20
 10573              	.LCFI43:
 10574              		.cfi_def_cfa_offset 24
 10575 0004 00AF     		add	r7, sp, #0
 10576              		.cfi_offset 7, -4
 10577              	.LCFI44:
 10578              		.cfi_def_cfa_register 7
 10579 0006 7860     		str	r0, [r7, #4]
 916:/home/cuil/workspace/arm/lm3s811/TI_Stellaris/driverlib/usb.c ****     unsigned long ulStatus;
 917:/home/cuil/workspace/arm/lm3s811/TI_Stellaris/driverlib/usb.c **** 
 918:/home/cuil/workspace/arm/lm3s811/TI_Stellaris/driverlib/usb.c ****     //
 919:/home/cuil/workspace/arm/lm3s811/TI_Stellaris/driverlib/usb.c ****     // Check the arguments.
 920:/home/cuil/workspace/arm/lm3s811/TI_Stellaris/driverlib/usb.c ****     //
 921:/home/cuil/workspace/arm/lm3s811/TI_Stellaris/driverlib/usb.c ****     ASSERT(ulBase == USB0_BASE);
 922:/home/cuil/workspace/arm/lm3s811/TI_Stellaris/driverlib/usb.c **** 
 923:/home/cuil/workspace/arm/lm3s811/TI_Stellaris/driverlib/usb.c ****     //
 924:/home/cuil/workspace/arm/lm3s811/TI_Stellaris/driverlib/usb.c ****     // Get the transmit interrupt status.
 925:/home/cuil/workspace/arm/lm3s811/TI_Stellaris/driverlib/usb.c ****     //
 926:/home/cuil/workspace/arm/lm3s811/TI_Stellaris/driverlib/usb.c ****     ulStatus = HWREGH(ulBase + USB_O_TXIS);
 10580              		.loc 1 926 0
 10581 0008 7B68     		ldr	r3, [r7, #4]
 10582 000a 03F10203 		add	r3, r3, #2
 10583 000e 1B88     		ldrh	r3, [r3, #0]	@ movhi
 10584 0010 9BB2     		uxth	r3, r3
 10585 0012 FB60     		str	r3, [r7, #12]
 927:/home/cuil/workspace/arm/lm3s811/TI_Stellaris/driverlib/usb.c **** 
 928:/home/cuil/workspace/arm/lm3s811/TI_Stellaris/driverlib/usb.c ****     ulStatus |= (HWREGH(ulBase + USB_O_RXIS) << USB_INTEP_RX_SHIFT);
 10586              		.loc 1 928 0
 10587 0014 7B68     		ldr	r3, [r7, #4]
 10588 0016 03F10403 		add	r3, r3, #4
 10589 001a 1B88     		ldrh	r3, [r3, #0]	@ movhi
 10590 001c 9BB2     		uxth	r3, r3
 10591 001e 4FEA0343 		lsl	r3, r3, #16
 10592 0022 FA68     		ldr	r2, [r7, #12]
 10593 0024 42EA0303 		orr	r3, r2, r3
 10594 0028 FB60     		str	r3, [r7, #12]
 929:/home/cuil/workspace/arm/lm3s811/TI_Stellaris/driverlib/usb.c **** 
 930:/home/cuil/workspace/arm/lm3s811/TI_Stellaris/driverlib/usb.c ****     //
 931:/home/cuil/workspace/arm/lm3s811/TI_Stellaris/driverlib/usb.c ****     // Return the combined interrupt status.
 932:/home/cuil/workspace/arm/lm3s811/TI_Stellaris/driverlib/usb.c ****     //
 933:/home/cuil/workspace/arm/lm3s811/TI_Stellaris/driverlib/usb.c ****     return(ulStatus);
 10595              		.loc 1 933 0
 10596 002a FB68     		ldr	r3, [r7, #12]
 934:/home/cuil/workspace/arm/lm3s811/TI_Stellaris/driverlib/usb.c **** }
 10597              		.loc 1 934 0
 10598 002c 1846     		mov	r0, r3
 10599 002e 07F11407 		add	r7, r7, #20
 10600 0032 BD46     		mov	sp, r7
 10601 0034 80BC     		pop	{r7}
 10602 0036 7047     		bx	lr
 10603              		.cfi_endproc
 10604              	.LFE14:
 10606              		.section	.text.USBIntRegister,"ax",%progbits
 10607              		.align	2
 10608              		.global	USBIntRegister
 10609              		.thumb
 10610              		.thumb_func
 10612              	USBIntRegister:
 10613              	.LFB15:
 935:/home/cuil/workspace/arm/lm3s811/TI_Stellaris/driverlib/usb.c **** 
 936:/home/cuil/workspace/arm/lm3s811/TI_Stellaris/driverlib/usb.c **** //*****************************************************************************
 937:/home/cuil/workspace/arm/lm3s811/TI_Stellaris/driverlib/usb.c **** //
 938:/home/cuil/workspace/arm/lm3s811/TI_Stellaris/driverlib/usb.c **** //! Registers an interrupt handler for the USB controller.
 939:/home/cuil/workspace/arm/lm3s811/TI_Stellaris/driverlib/usb.c **** //!
 940:/home/cuil/workspace/arm/lm3s811/TI_Stellaris/driverlib/usb.c **** //! \param ulBase specifies the USB module base address.
 941:/home/cuil/workspace/arm/lm3s811/TI_Stellaris/driverlib/usb.c **** //! \param pfnHandler is a pointer to the function to be called when a USB
 942:/home/cuil/workspace/arm/lm3s811/TI_Stellaris/driverlib/usb.c **** //! interrupt occurs.
 943:/home/cuil/workspace/arm/lm3s811/TI_Stellaris/driverlib/usb.c **** //!
 944:/home/cuil/workspace/arm/lm3s811/TI_Stellaris/driverlib/usb.c **** //! This function registers the handler to be called when a USB interrupt
 945:/home/cuil/workspace/arm/lm3s811/TI_Stellaris/driverlib/usb.c **** //! occurs and enables the global USB interrupt in the interrupt controller.
 946:/home/cuil/workspace/arm/lm3s811/TI_Stellaris/driverlib/usb.c **** //! The specific desired USB interrupts must be enabled via a separate call to
 947:/home/cuil/workspace/arm/lm3s811/TI_Stellaris/driverlib/usb.c **** //! USBIntEnable().  It is the interrupt handler's responsibility to clear the
 948:/home/cuil/workspace/arm/lm3s811/TI_Stellaris/driverlib/usb.c **** //! interrupt sources via calls to USBIntStatusControl() and 
 949:/home/cuil/workspace/arm/lm3s811/TI_Stellaris/driverlib/usb.c **** //! USBIntStatusEndpoint().
 950:/home/cuil/workspace/arm/lm3s811/TI_Stellaris/driverlib/usb.c **** //!
 951:/home/cuil/workspace/arm/lm3s811/TI_Stellaris/driverlib/usb.c **** //! \sa IntRegister() for important information about registering interrupt
 952:/home/cuil/workspace/arm/lm3s811/TI_Stellaris/driverlib/usb.c **** //! handlers.
 953:/home/cuil/workspace/arm/lm3s811/TI_Stellaris/driverlib/usb.c **** //!
 954:/home/cuil/workspace/arm/lm3s811/TI_Stellaris/driverlib/usb.c **** //! \return None.
 955:/home/cuil/workspace/arm/lm3s811/TI_Stellaris/driverlib/usb.c **** //
 956:/home/cuil/workspace/arm/lm3s811/TI_Stellaris/driverlib/usb.c **** //*****************************************************************************
 957:/home/cuil/workspace/arm/lm3s811/TI_Stellaris/driverlib/usb.c **** void
 958:/home/cuil/workspace/arm/lm3s811/TI_Stellaris/driverlib/usb.c **** USBIntRegister(unsigned long ulBase, void(*pfnHandler)(void))
 959:/home/cuil/workspace/arm/lm3s811/TI_Stellaris/driverlib/usb.c **** {
 10614              		.loc 1 959 0
 10615              		.cfi_startproc
 10616              		@ args = 0, pretend = 0, frame = 8
 10617              		@ frame_needed = 1, uses_anonymous_args = 0
 10618 0000 80B5     		push	{r7, lr}
 10619              	.LCFI45:
 10620              		.cfi_def_cfa_offset 8
 10621 0002 82B0     		sub	sp, sp, #8
 10622              	.LCFI46:
 10623              		.cfi_def_cfa_offset 16
 10624 0004 00AF     		add	r7, sp, #0
 10625              		.cfi_offset 14, -4
 10626              		.cfi_offset 7, -8
 10627              	.LCFI47:
 10628              		.cfi_def_cfa_register 7
 10629 0006 7860     		str	r0, [r7, #4]
 10630 0008 3960     		str	r1, [r7, #0]
 960:/home/cuil/workspace/arm/lm3s811/TI_Stellaris/driverlib/usb.c ****     //
 961:/home/cuil/workspace/arm/lm3s811/TI_Stellaris/driverlib/usb.c ****     // Check the arguments.
 962:/home/cuil/workspace/arm/lm3s811/TI_Stellaris/driverlib/usb.c ****     //
 963:/home/cuil/workspace/arm/lm3s811/TI_Stellaris/driverlib/usb.c ****     ASSERT(ulBase == USB0_BASE);
 964:/home/cuil/workspace/arm/lm3s811/TI_Stellaris/driverlib/usb.c **** 
 965:/home/cuil/workspace/arm/lm3s811/TI_Stellaris/driverlib/usb.c ****     //
 966:/home/cuil/workspace/arm/lm3s811/TI_Stellaris/driverlib/usb.c ****     // Register the interrupt handler.
 967:/home/cuil/workspace/arm/lm3s811/TI_Stellaris/driverlib/usb.c ****     //
 968:/home/cuil/workspace/arm/lm3s811/TI_Stellaris/driverlib/usb.c ****     IntRegister(INT_USB0, pfnHandler);
 10631              		.loc 1 968 0
 10632 000a 4FF03C00 		mov	r0, #60
 10633 000e 3968     		ldr	r1, [r7, #0]
 10634 0010 FFF7FEFF 		bl	IntRegister
 969:/home/cuil/workspace/arm/lm3s811/TI_Stellaris/driverlib/usb.c **** 
 970:/home/cuil/workspace/arm/lm3s811/TI_Stellaris/driverlib/usb.c ****     //
 971:/home/cuil/workspace/arm/lm3s811/TI_Stellaris/driverlib/usb.c ****     // Enable the USB interrupt.
 972:/home/cuil/workspace/arm/lm3s811/TI_Stellaris/driverlib/usb.c ****     //
 973:/home/cuil/workspace/arm/lm3s811/TI_Stellaris/driverlib/usb.c ****     IntEnable(INT_USB0);
 10635              		.loc 1 973 0
 10636 0014 4FF03C00 		mov	r0, #60
 10637 0018 FFF7FEFF 		bl	IntEnable
 974:/home/cuil/workspace/arm/lm3s811/TI_Stellaris/driverlib/usb.c **** }
 10638              		.loc 1 974 0
 10639 001c 07F10807 		add	r7, r7, #8
 10640 0020 BD46     		mov	sp, r7
 10641 0022 80BD     		pop	{r7, pc}
 10642              		.cfi_endproc
 10643              	.LFE15:
 10645              		.section	.text.USBIntUnregister,"ax",%progbits
 10646              		.align	2
 10647              		.global	USBIntUnregister
 10648              		.thumb
 10649              		.thumb_func
 10651              	USBIntUnregister:
 10652              	.LFB16:
 975:/home/cuil/workspace/arm/lm3s811/TI_Stellaris/driverlib/usb.c **** 
 976:/home/cuil/workspace/arm/lm3s811/TI_Stellaris/driverlib/usb.c **** //*****************************************************************************
 977:/home/cuil/workspace/arm/lm3s811/TI_Stellaris/driverlib/usb.c **** //
 978:/home/cuil/workspace/arm/lm3s811/TI_Stellaris/driverlib/usb.c **** //! Unregisters an interrupt handler for the USB controller.
 979:/home/cuil/workspace/arm/lm3s811/TI_Stellaris/driverlib/usb.c **** //!
 980:/home/cuil/workspace/arm/lm3s811/TI_Stellaris/driverlib/usb.c **** //! \param ulBase specifies the USB module base address.
 981:/home/cuil/workspace/arm/lm3s811/TI_Stellaris/driverlib/usb.c **** //!
 982:/home/cuil/workspace/arm/lm3s811/TI_Stellaris/driverlib/usb.c **** //! This function unregisters the interrupt handler.  This function also
 983:/home/cuil/workspace/arm/lm3s811/TI_Stellaris/driverlib/usb.c **** //! disables the USB interrupt in the interrupt controller.
 984:/home/cuil/workspace/arm/lm3s811/TI_Stellaris/driverlib/usb.c **** //!
 985:/home/cuil/workspace/arm/lm3s811/TI_Stellaris/driverlib/usb.c **** //! \sa IntRegister() for important information about registering or
 986:/home/cuil/workspace/arm/lm3s811/TI_Stellaris/driverlib/usb.c **** //! unregistering interrupt handlers.
 987:/home/cuil/workspace/arm/lm3s811/TI_Stellaris/driverlib/usb.c **** //!
 988:/home/cuil/workspace/arm/lm3s811/TI_Stellaris/driverlib/usb.c **** //! \return None.
 989:/home/cuil/workspace/arm/lm3s811/TI_Stellaris/driverlib/usb.c **** //
 990:/home/cuil/workspace/arm/lm3s811/TI_Stellaris/driverlib/usb.c **** //*****************************************************************************
 991:/home/cuil/workspace/arm/lm3s811/TI_Stellaris/driverlib/usb.c **** void
 992:/home/cuil/workspace/arm/lm3s811/TI_Stellaris/driverlib/usb.c **** USBIntUnregister(unsigned long ulBase)
 993:/home/cuil/workspace/arm/lm3s811/TI_Stellaris/driverlib/usb.c **** {
 10653              		.loc 1 993 0
 10654              		.cfi_startproc
 10655              		@ args = 0, pretend = 0, frame = 8
 10656              		@ frame_needed = 1, uses_anonymous_args = 0
 10657 0000 80B5     		push	{r7, lr}
 10658              	.LCFI48:
 10659              		.cfi_def_cfa_offset 8
 10660 0002 82B0     		sub	sp, sp, #8
 10661              	.LCFI49:
 10662              		.cfi_def_cfa_offset 16
 10663 0004 00AF     		add	r7, sp, #0
 10664              		.cfi_offset 14, -4
 10665              		.cfi_offset 7, -8
 10666              	.LCFI50:
 10667              		.cfi_def_cfa_register 7
 10668 0006 7860     		str	r0, [r7, #4]
 994:/home/cuil/workspace/arm/lm3s811/TI_Stellaris/driverlib/usb.c ****     //
 995:/home/cuil/workspace/arm/lm3s811/TI_Stellaris/driverlib/usb.c ****     // Check the arguments.
 996:/home/cuil/workspace/arm/lm3s811/TI_Stellaris/driverlib/usb.c ****     //
 997:/home/cuil/workspace/arm/lm3s811/TI_Stellaris/driverlib/usb.c ****     ASSERT(ulBase == USB0_BASE);
 998:/home/cuil/workspace/arm/lm3s811/TI_Stellaris/driverlib/usb.c **** 
 999:/home/cuil/workspace/arm/lm3s811/TI_Stellaris/driverlib/usb.c ****     //
1000:/home/cuil/workspace/arm/lm3s811/TI_Stellaris/driverlib/usb.c ****     // Disable the USB interrupt.
1001:/home/cuil/workspace/arm/lm3s811/TI_Stellaris/driverlib/usb.c ****     //
1002:/home/cuil/workspace/arm/lm3s811/TI_Stellaris/driverlib/usb.c ****     IntDisable(INT_USB0);
 10669              		.loc 1 1002 0
 10670 0008 4FF03C00 		mov	r0, #60
 10671 000c FFF7FEFF 		bl	IntDisable
1003:/home/cuil/workspace/arm/lm3s811/TI_Stellaris/driverlib/usb.c **** 
1004:/home/cuil/workspace/arm/lm3s811/TI_Stellaris/driverlib/usb.c ****     //
1005:/home/cuil/workspace/arm/lm3s811/TI_Stellaris/driverlib/usb.c ****     // Unregister the interrupt handler.
1006:/home/cuil/workspace/arm/lm3s811/TI_Stellaris/driverlib/usb.c ****     //
1007:/home/cuil/workspace/arm/lm3s811/TI_Stellaris/driverlib/usb.c ****     IntUnregister(INT_USB0);
 10672              		.loc 1 1007 0
 10673 0010 4FF03C00 		mov	r0, #60
 10674 0014 FFF7FEFF 		bl	IntUnregister
1008:/home/cuil/workspace/arm/lm3s811/TI_Stellaris/driverlib/usb.c **** }
 10675              		.loc 1 1008 0
 10676 0018 07F10807 		add	r7, r7, #8
 10677 001c BD46     		mov	sp, r7
 10678 001e 80BD     		pop	{r7, pc}
 10679              		.cfi_endproc
 10680              	.LFE16:
 10682              		.section	.text.USBEndpointStatus,"ax",%progbits
 10683              		.align	2
 10684              		.global	USBEndpointStatus
 10685              		.thumb
 10686              		.thumb_func
 10688              	USBEndpointStatus:
 10689              	.LFB17:
1009:/home/cuil/workspace/arm/lm3s811/TI_Stellaris/driverlib/usb.c **** 
1010:/home/cuil/workspace/arm/lm3s811/TI_Stellaris/driverlib/usb.c **** //*****************************************************************************
1011:/home/cuil/workspace/arm/lm3s811/TI_Stellaris/driverlib/usb.c **** //
1012:/home/cuil/workspace/arm/lm3s811/TI_Stellaris/driverlib/usb.c **** //! Returns the current status of an endpoint.
1013:/home/cuil/workspace/arm/lm3s811/TI_Stellaris/driverlib/usb.c **** //!
1014:/home/cuil/workspace/arm/lm3s811/TI_Stellaris/driverlib/usb.c **** //! \param ulBase specifies the USB module base address.
1015:/home/cuil/workspace/arm/lm3s811/TI_Stellaris/driverlib/usb.c **** //! \param ulEndpoint is the endpoint to access.
1016:/home/cuil/workspace/arm/lm3s811/TI_Stellaris/driverlib/usb.c **** //!
1017:/home/cuil/workspace/arm/lm3s811/TI_Stellaris/driverlib/usb.c **** //! This function returns the status of a given endpoint.  If any of these
1018:/home/cuil/workspace/arm/lm3s811/TI_Stellaris/driverlib/usb.c **** //! status bits must be cleared, then the USBDevEndpointStatusClear() or the
1019:/home/cuil/workspace/arm/lm3s811/TI_Stellaris/driverlib/usb.c **** //! USBHostEndpointStatusClear() functions should be called.
1020:/home/cuil/workspace/arm/lm3s811/TI_Stellaris/driverlib/usb.c **** //! 
1021:/home/cuil/workspace/arm/lm3s811/TI_Stellaris/driverlib/usb.c **** //! The following are the status flags for host mode:
1022:/home/cuil/workspace/arm/lm3s811/TI_Stellaris/driverlib/usb.c **** //!
1023:/home/cuil/workspace/arm/lm3s811/TI_Stellaris/driverlib/usb.c **** //! - \b USB_HOST_IN_PID_ERROR - PID error on the given endpoint.
1024:/home/cuil/workspace/arm/lm3s811/TI_Stellaris/driverlib/usb.c **** //! - \b USB_HOST_IN_NOT_COMP - The device failed to respond to an IN request.
1025:/home/cuil/workspace/arm/lm3s811/TI_Stellaris/driverlib/usb.c **** //! - \b USB_HOST_IN_STALL - A stall was received on an IN endpoint.
1026:/home/cuil/workspace/arm/lm3s811/TI_Stellaris/driverlib/usb.c **** //! - \b USB_HOST_IN_DATA_ERROR - There was a CRC or bit-stuff error on an IN
1027:/home/cuil/workspace/arm/lm3s811/TI_Stellaris/driverlib/usb.c **** //!   endpoint in Isochronous mode.
1028:/home/cuil/workspace/arm/lm3s811/TI_Stellaris/driverlib/usb.c **** //! - \b USB_HOST_IN_NAK_TO - NAKs received on this IN endpoint for more than
1029:/home/cuil/workspace/arm/lm3s811/TI_Stellaris/driverlib/usb.c **** //!   the specified timeout period.
1030:/home/cuil/workspace/arm/lm3s811/TI_Stellaris/driverlib/usb.c **** //! - \b USB_HOST_IN_ERROR - Failed to communicate with a device using this IN
1031:/home/cuil/workspace/arm/lm3s811/TI_Stellaris/driverlib/usb.c **** //!   endpoint.
1032:/home/cuil/workspace/arm/lm3s811/TI_Stellaris/driverlib/usb.c **** //! - \b USB_HOST_IN_FIFO_FULL - This IN endpoint's FIFO is full.
1033:/home/cuil/workspace/arm/lm3s811/TI_Stellaris/driverlib/usb.c **** //! - \b USB_HOST_IN_PKTRDY - Data packet ready on this IN endpoint.
1034:/home/cuil/workspace/arm/lm3s811/TI_Stellaris/driverlib/usb.c **** //! - \b USB_HOST_OUT_NAK_TO - NAKs received on this OUT endpoint for more than
1035:/home/cuil/workspace/arm/lm3s811/TI_Stellaris/driverlib/usb.c **** //!   the specified timeout period.
1036:/home/cuil/workspace/arm/lm3s811/TI_Stellaris/driverlib/usb.c **** //! - \b USB_HOST_OUT_NOT_COMP - The device failed to respond to an OUT
1037:/home/cuil/workspace/arm/lm3s811/TI_Stellaris/driverlib/usb.c **** //!   request.
1038:/home/cuil/workspace/arm/lm3s811/TI_Stellaris/driverlib/usb.c **** //! - \b USB_HOST_OUT_STALL - A stall was received on this OUT endpoint.
1039:/home/cuil/workspace/arm/lm3s811/TI_Stellaris/driverlib/usb.c **** //! - \b USB_HOST_OUT_ERROR - Failed to communicate with a device using this
1040:/home/cuil/workspace/arm/lm3s811/TI_Stellaris/driverlib/usb.c **** //!   OUT endpoint.
1041:/home/cuil/workspace/arm/lm3s811/TI_Stellaris/driverlib/usb.c **** //! - \b USB_HOST_OUT_FIFO_NE - This endpoint's OUT FIFO is not empty.
1042:/home/cuil/workspace/arm/lm3s811/TI_Stellaris/driverlib/usb.c **** //! - \b USB_HOST_OUT_PKTPEND - The data transfer on this OUT endpoint has not
1043:/home/cuil/workspace/arm/lm3s811/TI_Stellaris/driverlib/usb.c **** //!   completed.
1044:/home/cuil/workspace/arm/lm3s811/TI_Stellaris/driverlib/usb.c **** //! - \b USB_HOST_EP0_NAK_TO - NAKs received on endpoint zero for more than the
1045:/home/cuil/workspace/arm/lm3s811/TI_Stellaris/driverlib/usb.c **** //!   specified timeout period.
1046:/home/cuil/workspace/arm/lm3s811/TI_Stellaris/driverlib/usb.c **** //! - \b USB_HOST_EP0_ERROR - The device failed to respond to a request on
1047:/home/cuil/workspace/arm/lm3s811/TI_Stellaris/driverlib/usb.c **** //!   endpoint zero.
1048:/home/cuil/workspace/arm/lm3s811/TI_Stellaris/driverlib/usb.c **** //! - \b USB_HOST_EP0_IN_STALL - A stall was received on endpoint zero for an
1049:/home/cuil/workspace/arm/lm3s811/TI_Stellaris/driverlib/usb.c **** //!   IN transaction.
1050:/home/cuil/workspace/arm/lm3s811/TI_Stellaris/driverlib/usb.c **** //! - \b USB_HOST_EP0_IN_PKTRDY - Data packet ready on endpoint zero for an IN
1051:/home/cuil/workspace/arm/lm3s811/TI_Stellaris/driverlib/usb.c **** //!   transaction.
1052:/home/cuil/workspace/arm/lm3s811/TI_Stellaris/driverlib/usb.c **** //!
1053:/home/cuil/workspace/arm/lm3s811/TI_Stellaris/driverlib/usb.c **** //! The following are the status flags for device mode:
1054:/home/cuil/workspace/arm/lm3s811/TI_Stellaris/driverlib/usb.c **** //!
1055:/home/cuil/workspace/arm/lm3s811/TI_Stellaris/driverlib/usb.c **** //! - \b USB_DEV_OUT_SENT_STALL - A stall was sent on this OUT endpoint.
1056:/home/cuil/workspace/arm/lm3s811/TI_Stellaris/driverlib/usb.c **** //! - \b USB_DEV_OUT_DATA_ERROR - There was a CRC or bit-stuff error on an OUT
1057:/home/cuil/workspace/arm/lm3s811/TI_Stellaris/driverlib/usb.c **** //!   endpoint.
1058:/home/cuil/workspace/arm/lm3s811/TI_Stellaris/driverlib/usb.c **** //! - \b USB_DEV_OUT_OVERRUN - An OUT packet was not loaded due to a full FIFO.
1059:/home/cuil/workspace/arm/lm3s811/TI_Stellaris/driverlib/usb.c **** //! - \b USB_DEV_OUT_FIFO_FULL - The OUT endpoint's FIFO is full.
1060:/home/cuil/workspace/arm/lm3s811/TI_Stellaris/driverlib/usb.c **** //! - \b USB_DEV_OUT_PKTRDY - There is a data packet ready in the OUT
1061:/home/cuil/workspace/arm/lm3s811/TI_Stellaris/driverlib/usb.c **** //!   endpoint's FIFO.
1062:/home/cuil/workspace/arm/lm3s811/TI_Stellaris/driverlib/usb.c **** //! - \b USB_DEV_IN_NOT_COMP - A larger packet was split up, more data to come.
1063:/home/cuil/workspace/arm/lm3s811/TI_Stellaris/driverlib/usb.c **** //! - \b USB_DEV_IN_SENT_STALL - A stall was sent on this IN endpoint.
1064:/home/cuil/workspace/arm/lm3s811/TI_Stellaris/driverlib/usb.c **** //! - \b USB_DEV_IN_UNDERRUN - Data was requested on the IN endpoint and no
1065:/home/cuil/workspace/arm/lm3s811/TI_Stellaris/driverlib/usb.c **** //!   data was ready.
1066:/home/cuil/workspace/arm/lm3s811/TI_Stellaris/driverlib/usb.c **** //! - \b USB_DEV_IN_FIFO_NE - The IN endpoint's FIFO is not empty.
1067:/home/cuil/workspace/arm/lm3s811/TI_Stellaris/driverlib/usb.c **** //! - \b USB_DEV_IN_PKTPEND - The data transfer on this IN endpoint has not
1068:/home/cuil/workspace/arm/lm3s811/TI_Stellaris/driverlib/usb.c **** //!   completed.
1069:/home/cuil/workspace/arm/lm3s811/TI_Stellaris/driverlib/usb.c **** //! - \b USB_DEV_EP0_SETUP_END - A control transaction ended before Data End
1070:/home/cuil/workspace/arm/lm3s811/TI_Stellaris/driverlib/usb.c **** //!   condition was sent.
1071:/home/cuil/workspace/arm/lm3s811/TI_Stellaris/driverlib/usb.c **** //! - \b USB_DEV_EP0_SENT_STALL - A stall was sent on endpoint zero.
1072:/home/cuil/workspace/arm/lm3s811/TI_Stellaris/driverlib/usb.c **** //! - \b USB_DEV_EP0_IN_PKTPEND - The data transfer on endpoint zero has not
1073:/home/cuil/workspace/arm/lm3s811/TI_Stellaris/driverlib/usb.c **** //!   completed.
1074:/home/cuil/workspace/arm/lm3s811/TI_Stellaris/driverlib/usb.c **** //! - \b USB_DEV_EP0_OUT_PKTRDY - There is a data packet ready in endpoint
1075:/home/cuil/workspace/arm/lm3s811/TI_Stellaris/driverlib/usb.c **** //!   zero's OUT FIFO.
1076:/home/cuil/workspace/arm/lm3s811/TI_Stellaris/driverlib/usb.c **** //!
1077:/home/cuil/workspace/arm/lm3s811/TI_Stellaris/driverlib/usb.c **** //! \return The current status flags for the endpoint depending on mode.
1078:/home/cuil/workspace/arm/lm3s811/TI_Stellaris/driverlib/usb.c **** //
1079:/home/cuil/workspace/arm/lm3s811/TI_Stellaris/driverlib/usb.c **** //*****************************************************************************
1080:/home/cuil/workspace/arm/lm3s811/TI_Stellaris/driverlib/usb.c **** unsigned long
1081:/home/cuil/workspace/arm/lm3s811/TI_Stellaris/driverlib/usb.c **** USBEndpointStatus(unsigned long ulBase, unsigned long ulEndpoint)
1082:/home/cuil/workspace/arm/lm3s811/TI_Stellaris/driverlib/usb.c **** {
 10690              		.loc 1 1082 0
 10691              		.cfi_startproc
 10692              		@ args = 0, pretend = 0, frame = 16
 10693              		@ frame_needed = 1, uses_anonymous_args = 0
 10694              		@ link register save eliminated.
 10695 0000 80B4     		push	{r7}
 10696              	.LCFI51:
 10697              		.cfi_def_cfa_offset 4
 10698 0002 85B0     		sub	sp, sp, #20
 10699              	.LCFI52:
 10700              		.cfi_def_cfa_offset 24
 10701 0004 00AF     		add	r7, sp, #0
 10702              		.cfi_offset 7, -4
 10703              	.LCFI53:
 10704              		.cfi_def_cfa_register 7
 10705 0006 7860     		str	r0, [r7, #4]
 10706 0008 3960     		str	r1, [r7, #0]
1083:/home/cuil/workspace/arm/lm3s811/TI_Stellaris/driverlib/usb.c ****     unsigned long ulStatus;
1084:/home/cuil/workspace/arm/lm3s811/TI_Stellaris/driverlib/usb.c **** 
1085:/home/cuil/workspace/arm/lm3s811/TI_Stellaris/driverlib/usb.c ****     //
1086:/home/cuil/workspace/arm/lm3s811/TI_Stellaris/driverlib/usb.c ****     // Check the arguments.
1087:/home/cuil/workspace/arm/lm3s811/TI_Stellaris/driverlib/usb.c ****     //
1088:/home/cuil/workspace/arm/lm3s811/TI_Stellaris/driverlib/usb.c ****     ASSERT(ulBase == USB0_BASE);
1089:/home/cuil/workspace/arm/lm3s811/TI_Stellaris/driverlib/usb.c ****     ASSERT((ulEndpoint == USB_EP_0) || (ulEndpoint == USB_EP_1) ||
1090:/home/cuil/workspace/arm/lm3s811/TI_Stellaris/driverlib/usb.c ****            (ulEndpoint == USB_EP_2) || (ulEndpoint == USB_EP_3) ||
1091:/home/cuil/workspace/arm/lm3s811/TI_Stellaris/driverlib/usb.c ****            (ulEndpoint == USB_EP_4) || (ulEndpoint == USB_EP_5) ||
1092:/home/cuil/workspace/arm/lm3s811/TI_Stellaris/driverlib/usb.c ****            (ulEndpoint == USB_EP_6) || (ulEndpoint == USB_EP_7) ||
1093:/home/cuil/workspace/arm/lm3s811/TI_Stellaris/driverlib/usb.c ****            (ulEndpoint == USB_EP_8) || (ulEndpoint == USB_EP_9) ||
1094:/home/cuil/workspace/arm/lm3s811/TI_Stellaris/driverlib/usb.c ****            (ulEndpoint == USB_EP_10) || (ulEndpoint == USB_EP_11) ||
1095:/home/cuil/workspace/arm/lm3s811/TI_Stellaris/driverlib/usb.c ****            (ulEndpoint == USB_EP_12) || (ulEndpoint == USB_EP_13) ||
1096:/home/cuil/workspace/arm/lm3s811/TI_Stellaris/driverlib/usb.c ****            (ulEndpoint == USB_EP_14) || (ulEndpoint == USB_EP_15));
1097:/home/cuil/workspace/arm/lm3s811/TI_Stellaris/driverlib/usb.c **** 
1098:/home/cuil/workspace/arm/lm3s811/TI_Stellaris/driverlib/usb.c ****     //
1099:/home/cuil/workspace/arm/lm3s811/TI_Stellaris/driverlib/usb.c ****     // Get the TX portion of the endpoint status.
1100:/home/cuil/workspace/arm/lm3s811/TI_Stellaris/driverlib/usb.c ****     //
1101:/home/cuil/workspace/arm/lm3s811/TI_Stellaris/driverlib/usb.c ****     ulStatus = HWREGH(ulBase + EP_OFFSET(ulEndpoint) + USB_O_TXCSRL1);
 10707              		.loc 1 1101 0
 10708 000a 3A68     		ldr	r2, [r7, #0]
 10709 000c 7B68     		ldr	r3, [r7, #4]
 10710 000e D318     		adds	r3, r2, r3
 10711 0010 03F58173 		add	r3, r3, #258
 10712 0014 1B88     		ldrh	r3, [r3, #0]	@ movhi
 10713 0016 9BB2     		uxth	r3, r3
 10714 0018 FB60     		str	r3, [r7, #12]
1102:/home/cuil/workspace/arm/lm3s811/TI_Stellaris/driverlib/usb.c **** 
1103:/home/cuil/workspace/arm/lm3s811/TI_Stellaris/driverlib/usb.c ****     //
1104:/home/cuil/workspace/arm/lm3s811/TI_Stellaris/driverlib/usb.c ****     // Get the RX portion of the endpoint status.
1105:/home/cuil/workspace/arm/lm3s811/TI_Stellaris/driverlib/usb.c ****     //
1106:/home/cuil/workspace/arm/lm3s811/TI_Stellaris/driverlib/usb.c ****     ulStatus |= ((HWREGH(ulBase + EP_OFFSET(ulEndpoint) + USB_O_RXCSRL1)) <<
 10715              		.loc 1 1106 0
 10716 001a 3A68     		ldr	r2, [r7, #0]
 10717 001c 7B68     		ldr	r3, [r7, #4]
 10718 001e D318     		adds	r3, r2, r3
 10719 0020 03F58373 		add	r3, r3, #262
 10720 0024 1B88     		ldrh	r3, [r3, #0]	@ movhi
 10721 0026 9BB2     		uxth	r3, r3
 10722 0028 4FEA0343 		lsl	r3, r3, #16
 10723 002c FA68     		ldr	r2, [r7, #12]
 10724 002e 42EA0303 		orr	r3, r2, r3
 10725 0032 FB60     		str	r3, [r7, #12]
1107:/home/cuil/workspace/arm/lm3s811/TI_Stellaris/driverlib/usb.c ****                  USB_RX_EPSTATUS_SHIFT);
1108:/home/cuil/workspace/arm/lm3s811/TI_Stellaris/driverlib/usb.c **** 
1109:/home/cuil/workspace/arm/lm3s811/TI_Stellaris/driverlib/usb.c ****     //
1110:/home/cuil/workspace/arm/lm3s811/TI_Stellaris/driverlib/usb.c ****     // Return the endpoint status.
1111:/home/cuil/workspace/arm/lm3s811/TI_Stellaris/driverlib/usb.c ****     //
1112:/home/cuil/workspace/arm/lm3s811/TI_Stellaris/driverlib/usb.c ****     return(ulStatus);
 10726              		.loc 1 1112 0
 10727 0034 FB68     		ldr	r3, [r7, #12]
1113:/home/cuil/workspace/arm/lm3s811/TI_Stellaris/driverlib/usb.c **** }
 10728              		.loc 1 1113 0
 10729 0036 1846     		mov	r0, r3
 10730 0038 07F11407 		add	r7, r7, #20
 10731 003c BD46     		mov	sp, r7
 10732 003e 80BC     		pop	{r7}
 10733 0040 7047     		bx	lr
 10734              		.cfi_endproc
 10735              	.LFE17:
 10737 0042 00BF     		.section	.text.USBHostEndpointStatusClear,"ax",%progbits
 10738              		.align	2
 10739              		.global	USBHostEndpointStatusClear
 10740              		.thumb
 10741              		.thumb_func
 10743              	USBHostEndpointStatusClear:
 10744              	.LFB18:
1114:/home/cuil/workspace/arm/lm3s811/TI_Stellaris/driverlib/usb.c **** 
1115:/home/cuil/workspace/arm/lm3s811/TI_Stellaris/driverlib/usb.c **** //*****************************************************************************
1116:/home/cuil/workspace/arm/lm3s811/TI_Stellaris/driverlib/usb.c **** //
1117:/home/cuil/workspace/arm/lm3s811/TI_Stellaris/driverlib/usb.c **** //! Clears the status bits in this endpoint in host mode.
1118:/home/cuil/workspace/arm/lm3s811/TI_Stellaris/driverlib/usb.c **** //!
1119:/home/cuil/workspace/arm/lm3s811/TI_Stellaris/driverlib/usb.c **** //! \param ulBase specifies the USB module base address.
1120:/home/cuil/workspace/arm/lm3s811/TI_Stellaris/driverlib/usb.c **** //! \param ulEndpoint is the endpoint to access.
1121:/home/cuil/workspace/arm/lm3s811/TI_Stellaris/driverlib/usb.c **** //! \param ulFlags are the status bits that should be cleared.
1122:/home/cuil/workspace/arm/lm3s811/TI_Stellaris/driverlib/usb.c **** //!
1123:/home/cuil/workspace/arm/lm3s811/TI_Stellaris/driverlib/usb.c **** //! This function clears the status of any bits that are passed in the
1124:/home/cuil/workspace/arm/lm3s811/TI_Stellaris/driverlib/usb.c **** //! \e ulFlags parameter.  The \e ulFlags parameter can take the value returned
1125:/home/cuil/workspace/arm/lm3s811/TI_Stellaris/driverlib/usb.c **** //! from the USBEndpointStatus() call.
1126:/home/cuil/workspace/arm/lm3s811/TI_Stellaris/driverlib/usb.c **** //!
1127:/home/cuil/workspace/arm/lm3s811/TI_Stellaris/driverlib/usb.c **** //! \note This function should only be called in host mode.
1128:/home/cuil/workspace/arm/lm3s811/TI_Stellaris/driverlib/usb.c **** //!
1129:/home/cuil/workspace/arm/lm3s811/TI_Stellaris/driverlib/usb.c **** //! \return None.
1130:/home/cuil/workspace/arm/lm3s811/TI_Stellaris/driverlib/usb.c **** //
1131:/home/cuil/workspace/arm/lm3s811/TI_Stellaris/driverlib/usb.c **** //*****************************************************************************
1132:/home/cuil/workspace/arm/lm3s811/TI_Stellaris/driverlib/usb.c **** void
1133:/home/cuil/workspace/arm/lm3s811/TI_Stellaris/driverlib/usb.c **** USBHostEndpointStatusClear(unsigned long ulBase, unsigned long ulEndpoint,
1134:/home/cuil/workspace/arm/lm3s811/TI_Stellaris/driverlib/usb.c ****                            unsigned long ulFlags)
1135:/home/cuil/workspace/arm/lm3s811/TI_Stellaris/driverlib/usb.c **** {
 10745              		.loc 1 1135 0
 10746              		.cfi_startproc
 10747              		@ args = 0, pretend = 0, frame = 16
 10748              		@ frame_needed = 1, uses_anonymous_args = 0
 10749              		@ link register save eliminated.
 10750 0000 80B4     		push	{r7}
 10751              	.LCFI54:
 10752              		.cfi_def_cfa_offset 4
 10753 0002 85B0     		sub	sp, sp, #20
 10754              	.LCFI55:
 10755              		.cfi_def_cfa_offset 24
 10756 0004 00AF     		add	r7, sp, #0
 10757              		.cfi_offset 7, -4
 10758              	.LCFI56:
 10759              		.cfi_def_cfa_register 7
 10760 0006 F860     		str	r0, [r7, #12]
 10761 0008 B960     		str	r1, [r7, #8]
 10762 000a 7A60     		str	r2, [r7, #4]
1136:/home/cuil/workspace/arm/lm3s811/TI_Stellaris/driverlib/usb.c ****     //
1137:/home/cuil/workspace/arm/lm3s811/TI_Stellaris/driverlib/usb.c ****     // Check the arguments.
1138:/home/cuil/workspace/arm/lm3s811/TI_Stellaris/driverlib/usb.c ****     //
1139:/home/cuil/workspace/arm/lm3s811/TI_Stellaris/driverlib/usb.c ****     ASSERT(ulBase == USB0_BASE);
1140:/home/cuil/workspace/arm/lm3s811/TI_Stellaris/driverlib/usb.c ****     ASSERT((ulEndpoint == USB_EP_0) || (ulEndpoint == USB_EP_1) ||
1141:/home/cuil/workspace/arm/lm3s811/TI_Stellaris/driverlib/usb.c ****            (ulEndpoint == USB_EP_2) || (ulEndpoint == USB_EP_3) ||
1142:/home/cuil/workspace/arm/lm3s811/TI_Stellaris/driverlib/usb.c ****            (ulEndpoint == USB_EP_4) || (ulEndpoint == USB_EP_5) ||
1143:/home/cuil/workspace/arm/lm3s811/TI_Stellaris/driverlib/usb.c ****            (ulEndpoint == USB_EP_6) || (ulEndpoint == USB_EP_7) ||
1144:/home/cuil/workspace/arm/lm3s811/TI_Stellaris/driverlib/usb.c ****            (ulEndpoint == USB_EP_8) || (ulEndpoint == USB_EP_9) ||
1145:/home/cuil/workspace/arm/lm3s811/TI_Stellaris/driverlib/usb.c ****            (ulEndpoint == USB_EP_10) || (ulEndpoint == USB_EP_11) ||
1146:/home/cuil/workspace/arm/lm3s811/TI_Stellaris/driverlib/usb.c ****            (ulEndpoint == USB_EP_12) || (ulEndpoint == USB_EP_13) ||
1147:/home/cuil/workspace/arm/lm3s811/TI_Stellaris/driverlib/usb.c ****            (ulEndpoint == USB_EP_14) || (ulEndpoint == USB_EP_15));
1148:/home/cuil/workspace/arm/lm3s811/TI_Stellaris/driverlib/usb.c **** 
1149:/home/cuil/workspace/arm/lm3s811/TI_Stellaris/driverlib/usb.c ****     //
1150:/home/cuil/workspace/arm/lm3s811/TI_Stellaris/driverlib/usb.c ****     // Clear the specified flags for the endpoint.
1151:/home/cuil/workspace/arm/lm3s811/TI_Stellaris/driverlib/usb.c ****     //
1152:/home/cuil/workspace/arm/lm3s811/TI_Stellaris/driverlib/usb.c ****     if(ulEndpoint == USB_EP_0)
 10763              		.loc 1 1152 0
 10764 000c BB68     		ldr	r3, [r7, #8]
 10765 000e 002B     		cmp	r3, #0
 10766 0010 11D1     		bne	.L63
1153:/home/cuil/workspace/arm/lm3s811/TI_Stellaris/driverlib/usb.c ****     {
1154:/home/cuil/workspace/arm/lm3s811/TI_Stellaris/driverlib/usb.c ****         HWREGB(ulBase + USB_O_CSRL0) &= ~ulFlags;
 10767              		.loc 1 1154 0
 10768 0012 FB68     		ldr	r3, [r7, #12]
 10769 0014 03F58173 		add	r3, r3, #258
 10770 0018 FA68     		ldr	r2, [r7, #12]
 10771 001a 02F58172 		add	r2, r2, #258
 10772 001e 1278     		ldrb	r2, [r2, #0]
 10773 0020 D1B2     		uxtb	r1, r2
 10774 0022 7A68     		ldr	r2, [r7, #4]
 10775 0024 D2B2     		uxtb	r2, r2
 10776 0026 6FEA0202 		mvn	r2, r2
 10777 002a D2B2     		uxtb	r2, r2
 10778 002c 01EA0202 		and	r2, r1, r2
 10779 0030 D2B2     		uxtb	r2, r2
 10780 0032 1A70     		strb	r2, [r3, #0]
 10781 0034 2BE0     		b	.L62
 10782              	.L63:
1155:/home/cuil/workspace/arm/lm3s811/TI_Stellaris/driverlib/usb.c ****     }
1156:/home/cuil/workspace/arm/lm3s811/TI_Stellaris/driverlib/usb.c ****     else
1157:/home/cuil/workspace/arm/lm3s811/TI_Stellaris/driverlib/usb.c ****     {
1158:/home/cuil/workspace/arm/lm3s811/TI_Stellaris/driverlib/usb.c ****         HWREGB(ulBase + USB_O_TXCSRL1 + EP_OFFSET(ulEndpoint)) &= ~ulFlags;
 10783              		.loc 1 1158 0
 10784 0036 FA68     		ldr	r2, [r7, #12]
 10785 0038 BB68     		ldr	r3, [r7, #8]
 10786 003a D318     		adds	r3, r2, r3
 10787 003c 03F58173 		add	r3, r3, #258
 10788 0040 F968     		ldr	r1, [r7, #12]
 10789 0042 BA68     		ldr	r2, [r7, #8]
 10790 0044 8A18     		adds	r2, r1, r2
 10791 0046 02F58172 		add	r2, r2, #258
 10792 004a 1278     		ldrb	r2, [r2, #0]
 10793 004c D1B2     		uxtb	r1, r2
 10794 004e 7A68     		ldr	r2, [r7, #4]
 10795 0050 D2B2     		uxtb	r2, r2
 10796 0052 6FEA0202 		mvn	r2, r2
 10797 0056 D2B2     		uxtb	r2, r2
 10798 0058 01EA0202 		and	r2, r1, r2
 10799 005c D2B2     		uxtb	r2, r2
 10800 005e 1A70     		strb	r2, [r3, #0]
1159:/home/cuil/workspace/arm/lm3s811/TI_Stellaris/driverlib/usb.c ****         HWREGB(ulBase + USB_O_RXCSRL1 + EP_OFFSET(ulEndpoint)) &=
 10801              		.loc 1 1159 0
 10802 0060 FA68     		ldr	r2, [r7, #12]
 10803 0062 BB68     		ldr	r3, [r7, #8]
 10804 0064 D318     		adds	r3, r2, r3
 10805 0066 03F58373 		add	r3, r3, #262
 10806 006a F968     		ldr	r1, [r7, #12]
 10807 006c BA68     		ldr	r2, [r7, #8]
 10808 006e 8A18     		adds	r2, r1, r2
 10809 0070 02F58372 		add	r2, r2, #262
 10810 0074 1278     		ldrb	r2, [r2, #0]
 10811 0076 D1B2     		uxtb	r1, r2
1160:/home/cuil/workspace/arm/lm3s811/TI_Stellaris/driverlib/usb.c ****             ~(ulFlags >> USB_RX_EPSTATUS_SHIFT);
 10812              		.loc 1 1160 0
 10813 0078 7A68     		ldr	r2, [r7, #4]
 10814 007a 4FEA1242 		lsr	r2, r2, #16
1159:/home/cuil/workspace/arm/lm3s811/TI_Stellaris/driverlib/usb.c ****         HWREGB(ulBase + USB_O_RXCSRL1 + EP_OFFSET(ulEndpoint)) &=
 10815              		.loc 1 1159 0
 10816 007e D2B2     		uxtb	r2, r2
 10817 0080 6FEA0202 		mvn	r2, r2
 10818 0084 D2B2     		uxtb	r2, r2
 10819 0086 01EA0202 		and	r2, r1, r2
 10820 008a D2B2     		uxtb	r2, r2
 10821 008c 1A70     		strb	r2, [r3, #0]
 10822              	.L62:
1161:/home/cuil/workspace/arm/lm3s811/TI_Stellaris/driverlib/usb.c ****     }
1162:/home/cuil/workspace/arm/lm3s811/TI_Stellaris/driverlib/usb.c **** }
 10823              		.loc 1 1162 0
 10824 008e 07F11407 		add	r7, r7, #20
 10825 0092 BD46     		mov	sp, r7
 10826 0094 80BC     		pop	{r7}
 10827 0096 7047     		bx	lr
 10828              		.cfi_endproc
 10829              	.LFE18:
 10831              		.section	.text.USBDevEndpointStatusClear,"ax",%progbits
 10832              		.align	2
 10833              		.global	USBDevEndpointStatusClear
 10834              		.thumb
 10835              		.thumb_func
 10837              	USBDevEndpointStatusClear:
 10838              	.LFB19:
1163:/home/cuil/workspace/arm/lm3s811/TI_Stellaris/driverlib/usb.c **** 
1164:/home/cuil/workspace/arm/lm3s811/TI_Stellaris/driverlib/usb.c **** //*****************************************************************************
1165:/home/cuil/workspace/arm/lm3s811/TI_Stellaris/driverlib/usb.c **** //
1166:/home/cuil/workspace/arm/lm3s811/TI_Stellaris/driverlib/usb.c **** //! Clears the status bits in this endpoint in device mode.
1167:/home/cuil/workspace/arm/lm3s811/TI_Stellaris/driverlib/usb.c **** //!
1168:/home/cuil/workspace/arm/lm3s811/TI_Stellaris/driverlib/usb.c **** //! \param ulBase specifies the USB module base address.
1169:/home/cuil/workspace/arm/lm3s811/TI_Stellaris/driverlib/usb.c **** //! \param ulEndpoint is the endpoint to access.
1170:/home/cuil/workspace/arm/lm3s811/TI_Stellaris/driverlib/usb.c **** //! \param ulFlags are the status bits that should be cleared.
1171:/home/cuil/workspace/arm/lm3s811/TI_Stellaris/driverlib/usb.c **** //!
1172:/home/cuil/workspace/arm/lm3s811/TI_Stellaris/driverlib/usb.c **** //! This function clears the status of any bits that are passed in the
1173:/home/cuil/workspace/arm/lm3s811/TI_Stellaris/driverlib/usb.c **** //! \e ulFlags parameter.  The \e ulFlags parameter can take the value returned
1174:/home/cuil/workspace/arm/lm3s811/TI_Stellaris/driverlib/usb.c **** //! from the USBEndpointStatus() call.
1175:/home/cuil/workspace/arm/lm3s811/TI_Stellaris/driverlib/usb.c **** //!
1176:/home/cuil/workspace/arm/lm3s811/TI_Stellaris/driverlib/usb.c **** //! \note This function should only be called in device mode.
1177:/home/cuil/workspace/arm/lm3s811/TI_Stellaris/driverlib/usb.c **** //!
1178:/home/cuil/workspace/arm/lm3s811/TI_Stellaris/driverlib/usb.c **** //! \return None.
1179:/home/cuil/workspace/arm/lm3s811/TI_Stellaris/driverlib/usb.c **** //
1180:/home/cuil/workspace/arm/lm3s811/TI_Stellaris/driverlib/usb.c **** //*****************************************************************************
1181:/home/cuil/workspace/arm/lm3s811/TI_Stellaris/driverlib/usb.c **** void
1182:/home/cuil/workspace/arm/lm3s811/TI_Stellaris/driverlib/usb.c **** USBDevEndpointStatusClear(unsigned long ulBase, unsigned long ulEndpoint,
1183:/home/cuil/workspace/arm/lm3s811/TI_Stellaris/driverlib/usb.c ****                           unsigned long ulFlags)
1184:/home/cuil/workspace/arm/lm3s811/TI_Stellaris/driverlib/usb.c **** {
 10839              		.loc 1 1184 0
 10840              		.cfi_startproc
 10841              		@ args = 0, pretend = 0, frame = 16
 10842              		@ frame_needed = 1, uses_anonymous_args = 0
 10843              		@ link register save eliminated.
 10844 0000 80B4     		push	{r7}
 10845              	.LCFI57:
 10846              		.cfi_def_cfa_offset 4
 10847 0002 85B0     		sub	sp, sp, #20
 10848              	.LCFI58:
 10849              		.cfi_def_cfa_offset 24
 10850 0004 00AF     		add	r7, sp, #0
 10851              		.cfi_offset 7, -4
 10852              	.LCFI59:
 10853              		.cfi_def_cfa_register 7
 10854 0006 F860     		str	r0, [r7, #12]
 10855 0008 B960     		str	r1, [r7, #8]
 10856 000a 7A60     		str	r2, [r7, #4]
1185:/home/cuil/workspace/arm/lm3s811/TI_Stellaris/driverlib/usb.c ****     //
1186:/home/cuil/workspace/arm/lm3s811/TI_Stellaris/driverlib/usb.c ****     // Check the arguments.
1187:/home/cuil/workspace/arm/lm3s811/TI_Stellaris/driverlib/usb.c ****     //
1188:/home/cuil/workspace/arm/lm3s811/TI_Stellaris/driverlib/usb.c ****     ASSERT(ulBase == USB0_BASE);
1189:/home/cuil/workspace/arm/lm3s811/TI_Stellaris/driverlib/usb.c ****     ASSERT((ulEndpoint == USB_EP_0) || (ulEndpoint == USB_EP_1) ||
1190:/home/cuil/workspace/arm/lm3s811/TI_Stellaris/driverlib/usb.c ****            (ulEndpoint == USB_EP_2) || (ulEndpoint == USB_EP_3) ||
1191:/home/cuil/workspace/arm/lm3s811/TI_Stellaris/driverlib/usb.c ****            (ulEndpoint == USB_EP_4) || (ulEndpoint == USB_EP_5) ||
1192:/home/cuil/workspace/arm/lm3s811/TI_Stellaris/driverlib/usb.c ****            (ulEndpoint == USB_EP_6) || (ulEndpoint == USB_EP_7) ||
1193:/home/cuil/workspace/arm/lm3s811/TI_Stellaris/driverlib/usb.c ****            (ulEndpoint == USB_EP_8) || (ulEndpoint == USB_EP_9) ||
1194:/home/cuil/workspace/arm/lm3s811/TI_Stellaris/driverlib/usb.c ****            (ulEndpoint == USB_EP_10) || (ulEndpoint == USB_EP_11) ||
1195:/home/cuil/workspace/arm/lm3s811/TI_Stellaris/driverlib/usb.c ****            (ulEndpoint == USB_EP_12) || (ulEndpoint == USB_EP_13) ||
1196:/home/cuil/workspace/arm/lm3s811/TI_Stellaris/driverlib/usb.c ****            (ulEndpoint == USB_EP_14) || (ulEndpoint == USB_EP_15));
1197:/home/cuil/workspace/arm/lm3s811/TI_Stellaris/driverlib/usb.c **** 
1198:/home/cuil/workspace/arm/lm3s811/TI_Stellaris/driverlib/usb.c ****     //
1199:/home/cuil/workspace/arm/lm3s811/TI_Stellaris/driverlib/usb.c ****     // If this is endpoint 0, then the bits have different meaning and map 
1200:/home/cuil/workspace/arm/lm3s811/TI_Stellaris/driverlib/usb.c ****     // into the TX memory location.
1201:/home/cuil/workspace/arm/lm3s811/TI_Stellaris/driverlib/usb.c ****     //
1202:/home/cuil/workspace/arm/lm3s811/TI_Stellaris/driverlib/usb.c ****     if(ulEndpoint == USB_EP_0)
 10857              		.loc 1 1202 0
 10858 000c BB68     		ldr	r3, [r7, #8]
 10859 000e 002B     		cmp	r3, #0
 10860 0010 34D1     		bne	.L66
1203:/home/cuil/workspace/arm/lm3s811/TI_Stellaris/driverlib/usb.c ****     {
1204:/home/cuil/workspace/arm/lm3s811/TI_Stellaris/driverlib/usb.c ****         //
1205:/home/cuil/workspace/arm/lm3s811/TI_Stellaris/driverlib/usb.c ****         // Set the Serviced RxPktRdy bit to clear the RxPktRdy.
1206:/home/cuil/workspace/arm/lm3s811/TI_Stellaris/driverlib/usb.c ****         //
1207:/home/cuil/workspace/arm/lm3s811/TI_Stellaris/driverlib/usb.c ****         if(ulFlags & USB_DEV_EP0_OUT_PKTRDY)
 10861              		.loc 1 1207 0
 10862 0012 7B68     		ldr	r3, [r7, #4]
 10863 0014 03F00103 		and	r3, r3, #1
 10864 0018 DBB2     		uxtb	r3, r3
 10865 001a 002B     		cmp	r3, #0
 10866 001c 0BD0     		beq	.L67
1208:/home/cuil/workspace/arm/lm3s811/TI_Stellaris/driverlib/usb.c ****         {
1209:/home/cuil/workspace/arm/lm3s811/TI_Stellaris/driverlib/usb.c ****             HWREGB(ulBase + USB_O_CSRL0) |= USB_CSRL0_RXRDYC;
 10867              		.loc 1 1209 0
 10868 001e FB68     		ldr	r3, [r7, #12]
 10869 0020 03F58173 		add	r3, r3, #258
 10870 0024 FA68     		ldr	r2, [r7, #12]
 10871 0026 02F58172 		add	r2, r2, #258
 10872 002a 1278     		ldrb	r2, [r2, #0]
 10873 002c D2B2     		uxtb	r2, r2
 10874 002e 42F04002 		orr	r2, r2, #64
 10875 0032 D2B2     		uxtb	r2, r2
 10876 0034 1A70     		strb	r2, [r3, #0]
 10877              	.L67:
1210:/home/cuil/workspace/arm/lm3s811/TI_Stellaris/driverlib/usb.c ****         }
1211:/home/cuil/workspace/arm/lm3s811/TI_Stellaris/driverlib/usb.c **** 
1212:/home/cuil/workspace/arm/lm3s811/TI_Stellaris/driverlib/usb.c ****         //
1213:/home/cuil/workspace/arm/lm3s811/TI_Stellaris/driverlib/usb.c ****         // Set the serviced Setup End bit to clear the SetupEnd status.
1214:/home/cuil/workspace/arm/lm3s811/TI_Stellaris/driverlib/usb.c ****         //
1215:/home/cuil/workspace/arm/lm3s811/TI_Stellaris/driverlib/usb.c ****         if(ulFlags & USB_DEV_EP0_SETUP_END)
 10878              		.loc 1 1215 0
 10879 0036 7B68     		ldr	r3, [r7, #4]
 10880 0038 03F01003 		and	r3, r3, #16
 10881 003c 002B     		cmp	r3, #0
 10882 003e 0BD0     		beq	.L68
1216:/home/cuil/workspace/arm/lm3s811/TI_Stellaris/driverlib/usb.c ****         {
1217:/home/cuil/workspace/arm/lm3s811/TI_Stellaris/driverlib/usb.c ****             HWREGB(ulBase + USB_O_CSRL0) |= USB_CSRL0_SETENDC;
 10883              		.loc 1 1217 0
 10884 0040 FB68     		ldr	r3, [r7, #12]
 10885 0042 03F58173 		add	r3, r3, #258
 10886 0046 FA68     		ldr	r2, [r7, #12]
 10887 0048 02F58172 		add	r2, r2, #258
 10888 004c 1278     		ldrb	r2, [r2, #0]
 10889 004e D2B2     		uxtb	r2, r2
 10890 0050 62F07F02 		orn	r2, r2, #127
 10891 0054 D2B2     		uxtb	r2, r2
 10892 0056 1A70     		strb	r2, [r3, #0]
 10893              	.L68:
1218:/home/cuil/workspace/arm/lm3s811/TI_Stellaris/driverlib/usb.c ****         }
1219:/home/cuil/workspace/arm/lm3s811/TI_Stellaris/driverlib/usb.c **** 
1220:/home/cuil/workspace/arm/lm3s811/TI_Stellaris/driverlib/usb.c ****         //
1221:/home/cuil/workspace/arm/lm3s811/TI_Stellaris/driverlib/usb.c ****         // Clear the Sent Stall status flag.
1222:/home/cuil/workspace/arm/lm3s811/TI_Stellaris/driverlib/usb.c ****         //
1223:/home/cuil/workspace/arm/lm3s811/TI_Stellaris/driverlib/usb.c ****         if(ulFlags & USB_DEV_EP0_SENT_STALL)
 10894              		.loc 1 1223 0
 10895 0058 7B68     		ldr	r3, [r7, #4]
 10896 005a 03F00403 		and	r3, r3, #4
 10897 005e 002B     		cmp	r3, #0
 10898 0060 3DD0     		beq	.L65
1224:/home/cuil/workspace/arm/lm3s811/TI_Stellaris/driverlib/usb.c ****         {
1225:/home/cuil/workspace/arm/lm3s811/TI_Stellaris/driverlib/usb.c ****             HWREGB(ulBase + USB_O_CSRL0) &= ~(USB_DEV_EP0_SENT_STALL);
 10899              		.loc 1 1225 0
 10900 0062 FB68     		ldr	r3, [r7, #12]
 10901 0064 03F58173 		add	r3, r3, #258
 10902 0068 FA68     		ldr	r2, [r7, #12]
 10903 006a 02F58172 		add	r2, r2, #258
 10904 006e 1278     		ldrb	r2, [r2, #0]
 10905 0070 D2B2     		uxtb	r2, r2
 10906 0072 22F00402 		bic	r2, r2, #4
 10907 0076 D2B2     		uxtb	r2, r2
 10908 0078 1A70     		strb	r2, [r3, #0]
 10909 007a 30E0     		b	.L65
 10910              	.L66:
1226:/home/cuil/workspace/arm/lm3s811/TI_Stellaris/driverlib/usb.c ****         }
1227:/home/cuil/workspace/arm/lm3s811/TI_Stellaris/driverlib/usb.c ****     }
1228:/home/cuil/workspace/arm/lm3s811/TI_Stellaris/driverlib/usb.c ****     else
1229:/home/cuil/workspace/arm/lm3s811/TI_Stellaris/driverlib/usb.c ****     {
1230:/home/cuil/workspace/arm/lm3s811/TI_Stellaris/driverlib/usb.c ****         //
1231:/home/cuil/workspace/arm/lm3s811/TI_Stellaris/driverlib/usb.c ****         // Clear out any TX flags that were passed in.  Only
1232:/home/cuil/workspace/arm/lm3s811/TI_Stellaris/driverlib/usb.c ****         // USB_DEV_TX_SENT_STALL and USB_DEV_TX_UNDERRUN should be cleared.
1233:/home/cuil/workspace/arm/lm3s811/TI_Stellaris/driverlib/usb.c ****         //
1234:/home/cuil/workspace/arm/lm3s811/TI_Stellaris/driverlib/usb.c ****         HWREGB(ulBase + USB_O_TXCSRL1 + EP_OFFSET(ulEndpoint)) &=
 10911              		.loc 1 1234 0
 10912 007c FA68     		ldr	r2, [r7, #12]
 10913 007e BB68     		ldr	r3, [r7, #8]
 10914 0080 D318     		adds	r3, r2, r3
 10915 0082 03F58173 		add	r3, r3, #258
 10916 0086 F968     		ldr	r1, [r7, #12]
 10917 0088 BA68     		ldr	r2, [r7, #8]
 10918 008a 8A18     		adds	r2, r1, r2
 10919 008c 02F58172 		add	r2, r2, #258
 10920 0090 1278     		ldrb	r2, [r2, #0]
 10921 0092 D1B2     		uxtb	r1, r2
 10922 0094 7A68     		ldr	r2, [r7, #4]
 10923 0096 D2B2     		uxtb	r2, r2
 10924 0098 02F02402 		and	r2, r2, #36
 10925 009c D2B2     		uxtb	r2, r2
 10926 009e 6FEA0202 		mvn	r2, r2
 10927 00a2 D2B2     		uxtb	r2, r2
 10928 00a4 01EA0202 		and	r2, r1, r2
 10929 00a8 D2B2     		uxtb	r2, r2
 10930 00aa 1A70     		strb	r2, [r3, #0]
1235:/home/cuil/workspace/arm/lm3s811/TI_Stellaris/driverlib/usb.c ****             ~(ulFlags & (USB_DEV_TX_SENT_STALL | USB_DEV_TX_UNDERRUN));
1236:/home/cuil/workspace/arm/lm3s811/TI_Stellaris/driverlib/usb.c **** 
1237:/home/cuil/workspace/arm/lm3s811/TI_Stellaris/driverlib/usb.c ****         //
1238:/home/cuil/workspace/arm/lm3s811/TI_Stellaris/driverlib/usb.c ****         // Clear out valid RX flags that were passed in.  Only
1239:/home/cuil/workspace/arm/lm3s811/TI_Stellaris/driverlib/usb.c ****         // USB_DEV_RX_SENT_STALL, USB_DEV_RX_DATA_ERROR, and USB_DEV_RX_OVERRUN
1240:/home/cuil/workspace/arm/lm3s811/TI_Stellaris/driverlib/usb.c ****         // should be cleared.
1241:/home/cuil/workspace/arm/lm3s811/TI_Stellaris/driverlib/usb.c ****         //
1242:/home/cuil/workspace/arm/lm3s811/TI_Stellaris/driverlib/usb.c ****         HWREGB(ulBase + USB_O_RXCSRL1 + EP_OFFSET(ulEndpoint)) &=
 10931              		.loc 1 1242 0
 10932 00ac FA68     		ldr	r2, [r7, #12]
 10933 00ae BB68     		ldr	r3, [r7, #8]
 10934 00b0 D318     		adds	r3, r2, r3
 10935 00b2 03F58373 		add	r3, r3, #262
 10936 00b6 F968     		ldr	r1, [r7, #12]
 10937 00b8 BA68     		ldr	r2, [r7, #8]
 10938 00ba 8A18     		adds	r2, r1, r2
 10939 00bc 02F58372 		add	r2, r2, #262
 10940 00c0 1278     		ldrb	r2, [r2, #0]
 10941 00c2 D1B2     		uxtb	r1, r2
1243:/home/cuil/workspace/arm/lm3s811/TI_Stellaris/driverlib/usb.c ****             ~((ulFlags & (USB_DEV_RX_SENT_STALL | USB_DEV_RX_DATA_ERROR |
 10942              		.loc 1 1243 0
 10943 00c4 7A68     		ldr	r2, [r7, #4]
 10944 00c6 02F49802 		and	r2, r2, #4980736
1244:/home/cuil/workspace/arm/lm3s811/TI_Stellaris/driverlib/usb.c ****                           USB_DEV_RX_OVERRUN)) >> USB_RX_EPSTATUS_SHIFT);
 10945              		.loc 1 1244 0
 10946 00ca 4FEA1242 		lsr	r2, r2, #16
1242:/home/cuil/workspace/arm/lm3s811/TI_Stellaris/driverlib/usb.c ****         HWREGB(ulBase + USB_O_RXCSRL1 + EP_OFFSET(ulEndpoint)) &=
 10947              		.loc 1 1242 0
 10948 00ce D2B2     		uxtb	r2, r2
 10949 00d0 6FEA0202 		mvn	r2, r2
 10950 00d4 D2B2     		uxtb	r2, r2
 10951 00d6 01EA0202 		and	r2, r1, r2
 10952 00da D2B2     		uxtb	r2, r2
 10953 00dc 1A70     		strb	r2, [r3, #0]
 10954              	.L65:
1245:/home/cuil/workspace/arm/lm3s811/TI_Stellaris/driverlib/usb.c ****     }
1246:/home/cuil/workspace/arm/lm3s811/TI_Stellaris/driverlib/usb.c **** }
 10955              		.loc 1 1246 0
 10956 00de 07F11407 		add	r7, r7, #20
 10957 00e2 BD46     		mov	sp, r7
 10958 00e4 80BC     		pop	{r7}
 10959 00e6 7047     		bx	lr
 10960              		.cfi_endproc
 10961              	.LFE19:
 10963              		.section	.text.USBHostEndpointDataToggle,"ax",%progbits
 10964              		.align	2
 10965              		.global	USBHostEndpointDataToggle
 10966              		.thumb
 10967              		.thumb_func
 10969              	USBHostEndpointDataToggle:
 10970              	.LFB20:
1247:/home/cuil/workspace/arm/lm3s811/TI_Stellaris/driverlib/usb.c **** 
1248:/home/cuil/workspace/arm/lm3s811/TI_Stellaris/driverlib/usb.c **** //*****************************************************************************
1249:/home/cuil/workspace/arm/lm3s811/TI_Stellaris/driverlib/usb.c **** //
1250:/home/cuil/workspace/arm/lm3s811/TI_Stellaris/driverlib/usb.c **** //! Sets the value data toggle on an endpoint in host mode.
1251:/home/cuil/workspace/arm/lm3s811/TI_Stellaris/driverlib/usb.c **** //!
1252:/home/cuil/workspace/arm/lm3s811/TI_Stellaris/driverlib/usb.c **** //! \param ulBase specifies the USB module base address.
1253:/home/cuil/workspace/arm/lm3s811/TI_Stellaris/driverlib/usb.c **** //! \param ulEndpoint specifies the endpoint to reset the data toggle.
1254:/home/cuil/workspace/arm/lm3s811/TI_Stellaris/driverlib/usb.c **** //! \param bDataToggle specifies whether to set the state to DATA0 or DATA1.
1255:/home/cuil/workspace/arm/lm3s811/TI_Stellaris/driverlib/usb.c **** //! \param ulFlags specifies whether to set the IN or OUT endpoint.
1256:/home/cuil/workspace/arm/lm3s811/TI_Stellaris/driverlib/usb.c **** //!
1257:/home/cuil/workspace/arm/lm3s811/TI_Stellaris/driverlib/usb.c **** //! This function is used to force the state of the data toggle in host mode.
1258:/home/cuil/workspace/arm/lm3s811/TI_Stellaris/driverlib/usb.c **** //! If the value passed in the \e bDataToggle parameter is \b false, then the
1259:/home/cuil/workspace/arm/lm3s811/TI_Stellaris/driverlib/usb.c **** //! data toggle is set to the DATA0 state, and if it is \b true it is set to
1260:/home/cuil/workspace/arm/lm3s811/TI_Stellaris/driverlib/usb.c **** //! the DATA1 state.  The \e ulFlags parameter can be \b USB_EP_HOST_IN or
1261:/home/cuil/workspace/arm/lm3s811/TI_Stellaris/driverlib/usb.c **** //! \b USB_EP_HOST_OUT to access the desired portion of this endpoint.  The
1262:/home/cuil/workspace/arm/lm3s811/TI_Stellaris/driverlib/usb.c **** //! \e ulFlags parameter is ignored for endpoint zero.
1263:/home/cuil/workspace/arm/lm3s811/TI_Stellaris/driverlib/usb.c **** //!
1264:/home/cuil/workspace/arm/lm3s811/TI_Stellaris/driverlib/usb.c **** //! \note This function should only be called in host mode.
1265:/home/cuil/workspace/arm/lm3s811/TI_Stellaris/driverlib/usb.c **** //!
1266:/home/cuil/workspace/arm/lm3s811/TI_Stellaris/driverlib/usb.c **** //! \return None.
1267:/home/cuil/workspace/arm/lm3s811/TI_Stellaris/driverlib/usb.c **** //
1268:/home/cuil/workspace/arm/lm3s811/TI_Stellaris/driverlib/usb.c **** //*****************************************************************************
1269:/home/cuil/workspace/arm/lm3s811/TI_Stellaris/driverlib/usb.c **** void
1270:/home/cuil/workspace/arm/lm3s811/TI_Stellaris/driverlib/usb.c **** USBHostEndpointDataToggle(unsigned long ulBase, unsigned long ulEndpoint,
1271:/home/cuil/workspace/arm/lm3s811/TI_Stellaris/driverlib/usb.c ****                           tBoolean bDataToggle, unsigned long ulFlags)
1272:/home/cuil/workspace/arm/lm3s811/TI_Stellaris/driverlib/usb.c **** {
 10971              		.loc 1 1272 0
 10972              		.cfi_startproc
 10973              		@ args = 0, pretend = 0, frame = 24
 10974              		@ frame_needed = 1, uses_anonymous_args = 0
 10975              		@ link register save eliminated.
 10976 0000 80B4     		push	{r7}
 10977              	.LCFI60:
 10978              		.cfi_def_cfa_offset 4
 10979 0002 87B0     		sub	sp, sp, #28
 10980              	.LCFI61:
 10981              		.cfi_def_cfa_offset 32
 10982 0004 00AF     		add	r7, sp, #0
 10983              		.cfi_offset 7, -4
 10984              	.LCFI62:
 10985              		.cfi_def_cfa_register 7
 10986 0006 F860     		str	r0, [r7, #12]
 10987 0008 B960     		str	r1, [r7, #8]
 10988 000a 3B60     		str	r3, [r7, #0]
 10989 000c 1346     		mov	r3, r2
 10990 000e FB71     		strb	r3, [r7, #7]
1273:/home/cuil/workspace/arm/lm3s811/TI_Stellaris/driverlib/usb.c ****     unsigned long ulDataToggle;
1274:/home/cuil/workspace/arm/lm3s811/TI_Stellaris/driverlib/usb.c **** 
1275:/home/cuil/workspace/arm/lm3s811/TI_Stellaris/driverlib/usb.c ****     //
1276:/home/cuil/workspace/arm/lm3s811/TI_Stellaris/driverlib/usb.c ****     // Check the arguments.
1277:/home/cuil/workspace/arm/lm3s811/TI_Stellaris/driverlib/usb.c ****     //
1278:/home/cuil/workspace/arm/lm3s811/TI_Stellaris/driverlib/usb.c ****     ASSERT(ulBase == USB0_BASE);
1279:/home/cuil/workspace/arm/lm3s811/TI_Stellaris/driverlib/usb.c ****     ASSERT((ulEndpoint == USB_EP_0) || (ulEndpoint == USB_EP_1) ||
1280:/home/cuil/workspace/arm/lm3s811/TI_Stellaris/driverlib/usb.c ****            (ulEndpoint == USB_EP_2) || (ulEndpoint == USB_EP_3) ||
1281:/home/cuil/workspace/arm/lm3s811/TI_Stellaris/driverlib/usb.c ****            (ulEndpoint == USB_EP_4) || (ulEndpoint == USB_EP_5) ||
1282:/home/cuil/workspace/arm/lm3s811/TI_Stellaris/driverlib/usb.c ****            (ulEndpoint == USB_EP_6) || (ulEndpoint == USB_EP_7) ||
1283:/home/cuil/workspace/arm/lm3s811/TI_Stellaris/driverlib/usb.c ****            (ulEndpoint == USB_EP_8) || (ulEndpoint == USB_EP_9) ||
1284:/home/cuil/workspace/arm/lm3s811/TI_Stellaris/driverlib/usb.c ****            (ulEndpoint == USB_EP_10) || (ulEndpoint == USB_EP_11) ||
1285:/home/cuil/workspace/arm/lm3s811/TI_Stellaris/driverlib/usb.c ****            (ulEndpoint == USB_EP_12) || (ulEndpoint == USB_EP_13) ||
1286:/home/cuil/workspace/arm/lm3s811/TI_Stellaris/driverlib/usb.c ****            (ulEndpoint == USB_EP_14) || (ulEndpoint == USB_EP_15));
1287:/home/cuil/workspace/arm/lm3s811/TI_Stellaris/driverlib/usb.c **** 
1288:/home/cuil/workspace/arm/lm3s811/TI_Stellaris/driverlib/usb.c ****     //
1289:/home/cuil/workspace/arm/lm3s811/TI_Stellaris/driverlib/usb.c ****     // The data toggle defaults to DATA0.
1290:/home/cuil/workspace/arm/lm3s811/TI_Stellaris/driverlib/usb.c ****     //
1291:/home/cuil/workspace/arm/lm3s811/TI_Stellaris/driverlib/usb.c ****     ulDataToggle = 0;
 10991              		.loc 1 1291 0
 10992 0010 4FF00003 		mov	r3, #0
 10993 0014 7B61     		str	r3, [r7, #20]
1292:/home/cuil/workspace/arm/lm3s811/TI_Stellaris/driverlib/usb.c **** 
1293:/home/cuil/workspace/arm/lm3s811/TI_Stellaris/driverlib/usb.c ****     //
1294:/home/cuil/workspace/arm/lm3s811/TI_Stellaris/driverlib/usb.c ****     // See if the data toggle should be set to DATA1.
1295:/home/cuil/workspace/arm/lm3s811/TI_Stellaris/driverlib/usb.c ****     //
1296:/home/cuil/workspace/arm/lm3s811/TI_Stellaris/driverlib/usb.c ****     if(bDataToggle)
 10994              		.loc 1 1296 0
 10995 0016 FB79     		ldrb	r3, [r7, #7]	@ zero_extendqisi2
 10996 0018 002B     		cmp	r3, #0
 10997 001a 10D0     		beq	.L71
1297:/home/cuil/workspace/arm/lm3s811/TI_Stellaris/driverlib/usb.c ****     {
1298:/home/cuil/workspace/arm/lm3s811/TI_Stellaris/driverlib/usb.c ****         //
1299:/home/cuil/workspace/arm/lm3s811/TI_Stellaris/driverlib/usb.c ****         // Select the data toggle bit based on the endpoint.
1300:/home/cuil/workspace/arm/lm3s811/TI_Stellaris/driverlib/usb.c ****         //
1301:/home/cuil/workspace/arm/lm3s811/TI_Stellaris/driverlib/usb.c ****         if(ulEndpoint == USB_EP_0)
 10998              		.loc 1 1301 0
 10999 001c BB68     		ldr	r3, [r7, #8]
 11000 001e 002B     		cmp	r3, #0
 11001 0020 03D1     		bne	.L72
1302:/home/cuil/workspace/arm/lm3s811/TI_Stellaris/driverlib/usb.c ****         {
1303:/home/cuil/workspace/arm/lm3s811/TI_Stellaris/driverlib/usb.c ****             ulDataToggle = USB_CSRH0_DT;
 11002              		.loc 1 1303 0
 11003 0022 4FF00203 		mov	r3, #2
 11004 0026 7B61     		str	r3, [r7, #20]
 11005 0028 09E0     		b	.L71
 11006              	.L72:
1304:/home/cuil/workspace/arm/lm3s811/TI_Stellaris/driverlib/usb.c ****         }
1305:/home/cuil/workspace/arm/lm3s811/TI_Stellaris/driverlib/usb.c ****         else if(ulFlags == USB_EP_HOST_IN)
 11007              		.loc 1 1305 0
 11008 002a 3B68     		ldr	r3, [r7, #0]
 11009 002c 002B     		cmp	r3, #0
 11010 002e 03D1     		bne	.L73
1306:/home/cuil/workspace/arm/lm3s811/TI_Stellaris/driverlib/usb.c ****         {
1307:/home/cuil/workspace/arm/lm3s811/TI_Stellaris/driverlib/usb.c ****             ulDataToggle = USB_RXCSRH1_DT;
 11011              		.loc 1 1307 0
 11012 0030 4FF00203 		mov	r3, #2
 11013 0034 7B61     		str	r3, [r7, #20]
 11014 0036 02E0     		b	.L71
 11015              	.L73:
1308:/home/cuil/workspace/arm/lm3s811/TI_Stellaris/driverlib/usb.c ****         }
1309:/home/cuil/workspace/arm/lm3s811/TI_Stellaris/driverlib/usb.c ****         else
1310:/home/cuil/workspace/arm/lm3s811/TI_Stellaris/driverlib/usb.c ****         {
1311:/home/cuil/workspace/arm/lm3s811/TI_Stellaris/driverlib/usb.c ****             ulDataToggle = USB_TXCSRH1_DT;
 11016              		.loc 1 1311 0
 11017 0038 4FF00103 		mov	r3, #1
 11018 003c 7B61     		str	r3, [r7, #20]
 11019              	.L71:
1312:/home/cuil/workspace/arm/lm3s811/TI_Stellaris/driverlib/usb.c ****         }
1313:/home/cuil/workspace/arm/lm3s811/TI_Stellaris/driverlib/usb.c ****     }
1314:/home/cuil/workspace/arm/lm3s811/TI_Stellaris/driverlib/usb.c **** 
1315:/home/cuil/workspace/arm/lm3s811/TI_Stellaris/driverlib/usb.c ****     //
1316:/home/cuil/workspace/arm/lm3s811/TI_Stellaris/driverlib/usb.c ****     // Set the data toggle based on the endpoint.
1317:/home/cuil/workspace/arm/lm3s811/TI_Stellaris/driverlib/usb.c ****     //
1318:/home/cuil/workspace/arm/lm3s811/TI_Stellaris/driverlib/usb.c ****     if(ulEndpoint == USB_EP_0)
 11020              		.loc 1 1318 0
 11021 003e BB68     		ldr	r3, [r7, #8]
 11022 0040 002B     		cmp	r3, #0
 11023 0042 19D1     		bne	.L74
1319:/home/cuil/workspace/arm/lm3s811/TI_Stellaris/driverlib/usb.c ****     {
1320:/home/cuil/workspace/arm/lm3s811/TI_Stellaris/driverlib/usb.c ****         //
1321:/home/cuil/workspace/arm/lm3s811/TI_Stellaris/driverlib/usb.c ****         // Set the write enable and the bit value for endpoint zero.
1322:/home/cuil/workspace/arm/lm3s811/TI_Stellaris/driverlib/usb.c ****         //
1323:/home/cuil/workspace/arm/lm3s811/TI_Stellaris/driverlib/usb.c ****         HWREGB(ulBase + USB_O_CSRH0) =
 11024              		.loc 1 1323 0
 11025 0044 FB68     		ldr	r3, [r7, #12]
 11026 0046 03F58073 		add	r3, r3, #256
 11027 004a 03F10303 		add	r3, r3, #3
 11028 004e 1A46     		mov	r2, r3
1324:/home/cuil/workspace/arm/lm3s811/TI_Stellaris/driverlib/usb.c ****             ((HWREGB(ulBase + USB_O_CSRH0) &
 11029              		.loc 1 1324 0
 11030 0050 FB68     		ldr	r3, [r7, #12]
 11031 0052 03F58073 		add	r3, r3, #256
 11032 0056 03F10303 		add	r3, r3, #3
 11033 005a 1B78     		ldrb	r3, [r3, #0]
 11034 005c DBB2     		uxtb	r3, r3
1323:/home/cuil/workspace/arm/lm3s811/TI_Stellaris/driverlib/usb.c ****         HWREGB(ulBase + USB_O_CSRH0) =
 11035              		.loc 1 1323 0
 11036 005e 23F00603 		bic	r3, r3, #6
 11037 0062 D9B2     		uxtb	r1, r3
 11038 0064 7B69     		ldr	r3, [r7, #20]
 11039 0066 DBB2     		uxtb	r3, r3
 11040 0068 41EA0303 		orr	r3, r1, r3
 11041 006c DBB2     		uxtb	r3, r3
 11042 006e 43F00403 		orr	r3, r3, #4
 11043 0072 DBB2     		uxtb	r3, r3
 11044 0074 1370     		strb	r3, [r2, #0]
 11045 0076 3DE0     		b	.L70
 11046              	.L74:
1325:/home/cuil/workspace/arm/lm3s811/TI_Stellaris/driverlib/usb.c ****               ~(USB_CSRH0_DTWE | USB_CSRH0_DT)) |
1326:/home/cuil/workspace/arm/lm3s811/TI_Stellaris/driverlib/usb.c ****              (ulDataToggle | USB_CSRH0_DTWE));
1327:/home/cuil/workspace/arm/lm3s811/TI_Stellaris/driverlib/usb.c ****     }
1328:/home/cuil/workspace/arm/lm3s811/TI_Stellaris/driverlib/usb.c ****     else if(ulFlags == USB_EP_HOST_IN)
 11047              		.loc 1 1328 0
 11048 0078 3B68     		ldr	r3, [r7, #0]
 11049 007a 002B     		cmp	r3, #0
 11050 007c 1DD1     		bne	.L76
1329:/home/cuil/workspace/arm/lm3s811/TI_Stellaris/driverlib/usb.c ****     {
1330:/home/cuil/workspace/arm/lm3s811/TI_Stellaris/driverlib/usb.c ****         //
1331:/home/cuil/workspace/arm/lm3s811/TI_Stellaris/driverlib/usb.c ****         // Set the Write enable and the bit value for an IN endpoint.
1332:/home/cuil/workspace/arm/lm3s811/TI_Stellaris/driverlib/usb.c ****         //
1333:/home/cuil/workspace/arm/lm3s811/TI_Stellaris/driverlib/usb.c ****         HWREGB(ulBase + USB_O_RXCSRH1 + EP_OFFSET(ulEndpoint)) =
 11051              		.loc 1 1333 0
 11052 007e FA68     		ldr	r2, [r7, #12]
 11053 0080 BB68     		ldr	r3, [r7, #8]
 11054 0082 D318     		adds	r3, r2, r3
 11055 0084 03F58273 		add	r3, r3, #260
 11056 0088 03F10303 		add	r3, r3, #3
 11057 008c 1A46     		mov	r2, r3
1334:/home/cuil/workspace/arm/lm3s811/TI_Stellaris/driverlib/usb.c ****             ((HWREGB(ulBase + USB_O_RXCSRH1 + EP_OFFSET(ulEndpoint)) &
 11058              		.loc 1 1334 0
 11059 008e F968     		ldr	r1, [r7, #12]
 11060 0090 BB68     		ldr	r3, [r7, #8]
 11061 0092 CB18     		adds	r3, r1, r3
 11062 0094 03F58273 		add	r3, r3, #260
 11063 0098 03F10303 		add	r3, r3, #3
 11064 009c 1B78     		ldrb	r3, [r3, #0]
 11065 009e DBB2     		uxtb	r3, r3
1333:/home/cuil/workspace/arm/lm3s811/TI_Stellaris/driverlib/usb.c ****         HWREGB(ulBase + USB_O_RXCSRH1 + EP_OFFSET(ulEndpoint)) =
 11066              		.loc 1 1333 0
 11067 00a0 23F00603 		bic	r3, r3, #6
 11068 00a4 D9B2     		uxtb	r1, r3
 11069 00a6 7B69     		ldr	r3, [r7, #20]
 11070 00a8 DBB2     		uxtb	r3, r3
 11071 00aa 41EA0303 		orr	r3, r1, r3
 11072 00ae DBB2     		uxtb	r3, r3
 11073 00b0 43F00403 		orr	r3, r3, #4
 11074 00b4 DBB2     		uxtb	r3, r3
 11075 00b6 1370     		strb	r3, [r2, #0]
 11076 00b8 1CE0     		b	.L70
 11077              	.L76:
1335:/home/cuil/workspace/arm/lm3s811/TI_Stellaris/driverlib/usb.c ****               ~(USB_RXCSRH1_DTWE | USB_RXCSRH1_DT)) |
1336:/home/cuil/workspace/arm/lm3s811/TI_Stellaris/driverlib/usb.c ****              (ulDataToggle | USB_RXCSRH1_DTWE));
1337:/home/cuil/workspace/arm/lm3s811/TI_Stellaris/driverlib/usb.c ****     }
1338:/home/cuil/workspace/arm/lm3s811/TI_Stellaris/driverlib/usb.c ****     else
1339:/home/cuil/workspace/arm/lm3s811/TI_Stellaris/driverlib/usb.c ****     {
1340:/home/cuil/workspace/arm/lm3s811/TI_Stellaris/driverlib/usb.c ****         //
1341:/home/cuil/workspace/arm/lm3s811/TI_Stellaris/driverlib/usb.c ****         // Set the Write enable and the bit value for an OUT endpoint.
1342:/home/cuil/workspace/arm/lm3s811/TI_Stellaris/driverlib/usb.c ****         //
1343:/home/cuil/workspace/arm/lm3s811/TI_Stellaris/driverlib/usb.c ****         HWREGB(ulBase + USB_O_TXCSRH1 + EP_OFFSET(ulEndpoint)) =
 11078              		.loc 1 1343 0
 11079 00ba FA68     		ldr	r2, [r7, #12]
 11080 00bc BB68     		ldr	r3, [r7, #8]
 11081 00be D318     		adds	r3, r2, r3
 11082 00c0 03F58073 		add	r3, r3, #256
 11083 00c4 03F10303 		add	r3, r3, #3
 11084 00c8 1A46     		mov	r2, r3
1344:/home/cuil/workspace/arm/lm3s811/TI_Stellaris/driverlib/usb.c ****             ((HWREGB(ulBase + USB_O_TXCSRH1 + EP_OFFSET(ulEndpoint)) &
 11085              		.loc 1 1344 0
 11086 00ca F968     		ldr	r1, [r7, #12]
 11087 00cc BB68     		ldr	r3, [r7, #8]
 11088 00ce CB18     		adds	r3, r1, r3
 11089 00d0 03F58073 		add	r3, r3, #256
 11090 00d4 03F10303 		add	r3, r3, #3
 11091 00d8 1B78     		ldrb	r3, [r3, #0]
 11092 00da DBB2     		uxtb	r3, r3
1343:/home/cuil/workspace/arm/lm3s811/TI_Stellaris/driverlib/usb.c ****         HWREGB(ulBase + USB_O_TXCSRH1 + EP_OFFSET(ulEndpoint)) =
 11093              		.loc 1 1343 0
 11094 00dc 23F00303 		bic	r3, r3, #3
 11095 00e0 D9B2     		uxtb	r1, r3
 11096 00e2 7B69     		ldr	r3, [r7, #20]
 11097 00e4 DBB2     		uxtb	r3, r3
 11098 00e6 41EA0303 		orr	r3, r1, r3
 11099 00ea DBB2     		uxtb	r3, r3
 11100 00ec 43F00203 		orr	r3, r3, #2
 11101 00f0 DBB2     		uxtb	r3, r3
 11102 00f2 1370     		strb	r3, [r2, #0]
 11103              	.L70:
1345:/home/cuil/workspace/arm/lm3s811/TI_Stellaris/driverlib/usb.c ****               ~(USB_TXCSRH1_DTWE | USB_TXCSRH1_DT)) |
1346:/home/cuil/workspace/arm/lm3s811/TI_Stellaris/driverlib/usb.c ****              (ulDataToggle | USB_TXCSRH1_DTWE));
1347:/home/cuil/workspace/arm/lm3s811/TI_Stellaris/driverlib/usb.c ****     }
1348:/home/cuil/workspace/arm/lm3s811/TI_Stellaris/driverlib/usb.c **** }
 11104              		.loc 1 1348 0
 11105 00f4 07F11C07 		add	r7, r7, #28
 11106 00f8 BD46     		mov	sp, r7
 11107 00fa 80BC     		pop	{r7}
 11108 00fc 7047     		bx	lr
 11109              		.cfi_endproc
 11110              	.LFE20:
 11112 00fe 00BF     		.section	.text.USBEndpointDataToggleClear,"ax",%progbits
 11113              		.align	2
 11114              		.global	USBEndpointDataToggleClear
 11115              		.thumb
 11116              		.thumb_func
 11118              	USBEndpointDataToggleClear:
 11119              	.LFB21:
1349:/home/cuil/workspace/arm/lm3s811/TI_Stellaris/driverlib/usb.c **** 
1350:/home/cuil/workspace/arm/lm3s811/TI_Stellaris/driverlib/usb.c **** //*****************************************************************************
1351:/home/cuil/workspace/arm/lm3s811/TI_Stellaris/driverlib/usb.c **** //
1352:/home/cuil/workspace/arm/lm3s811/TI_Stellaris/driverlib/usb.c **** //! Sets the data toggle on an endpoint to zero.
1353:/home/cuil/workspace/arm/lm3s811/TI_Stellaris/driverlib/usb.c **** //!
1354:/home/cuil/workspace/arm/lm3s811/TI_Stellaris/driverlib/usb.c **** //! \param ulBase specifies the USB module base address.
1355:/home/cuil/workspace/arm/lm3s811/TI_Stellaris/driverlib/usb.c **** //! \param ulEndpoint specifies the endpoint to reset the data toggle.
1356:/home/cuil/workspace/arm/lm3s811/TI_Stellaris/driverlib/usb.c **** //! \param ulFlags specifies whether to access the IN or OUT endpoint.
1357:/home/cuil/workspace/arm/lm3s811/TI_Stellaris/driverlib/usb.c **** //!
1358:/home/cuil/workspace/arm/lm3s811/TI_Stellaris/driverlib/usb.c **** //! This function causes the USB controller to clear the data toggle for an
1359:/home/cuil/workspace/arm/lm3s811/TI_Stellaris/driverlib/usb.c **** //! endpoint.  This call is not valid for endpoint zero and can be made with
1360:/home/cuil/workspace/arm/lm3s811/TI_Stellaris/driverlib/usb.c **** //! host or device controllers.
1361:/home/cuil/workspace/arm/lm3s811/TI_Stellaris/driverlib/usb.c **** //!
1362:/home/cuil/workspace/arm/lm3s811/TI_Stellaris/driverlib/usb.c **** //! The \e ulFlags parameter should be one of \b USB_EP_HOST_OUT,
1363:/home/cuil/workspace/arm/lm3s811/TI_Stellaris/driverlib/usb.c **** //! \b USB_EP_HOST_IN, \b USB_EP_DEV_OUT, or \b USB_EP_DEV_IN.
1364:/home/cuil/workspace/arm/lm3s811/TI_Stellaris/driverlib/usb.c **** //!
1365:/home/cuil/workspace/arm/lm3s811/TI_Stellaris/driverlib/usb.c **** //! \return None.
1366:/home/cuil/workspace/arm/lm3s811/TI_Stellaris/driverlib/usb.c **** //
1367:/home/cuil/workspace/arm/lm3s811/TI_Stellaris/driverlib/usb.c **** //*****************************************************************************
1368:/home/cuil/workspace/arm/lm3s811/TI_Stellaris/driverlib/usb.c **** void
1369:/home/cuil/workspace/arm/lm3s811/TI_Stellaris/driverlib/usb.c **** USBEndpointDataToggleClear(unsigned long ulBase, unsigned long ulEndpoint,
1370:/home/cuil/workspace/arm/lm3s811/TI_Stellaris/driverlib/usb.c ****                            unsigned long ulFlags)
1371:/home/cuil/workspace/arm/lm3s811/TI_Stellaris/driverlib/usb.c **** {
 11120              		.loc 1 1371 0
 11121              		.cfi_startproc
 11122              		@ args = 0, pretend = 0, frame = 16
 11123              		@ frame_needed = 1, uses_anonymous_args = 0
 11124              		@ link register save eliminated.
 11125 0000 80B4     		push	{r7}
 11126              	.LCFI63:
 11127              		.cfi_def_cfa_offset 4
 11128 0002 85B0     		sub	sp, sp, #20
 11129              	.LCFI64:
 11130              		.cfi_def_cfa_offset 24
 11131 0004 00AF     		add	r7, sp, #0
 11132              		.cfi_offset 7, -4
 11133              	.LCFI65:
 11134              		.cfi_def_cfa_register 7
 11135 0006 F860     		str	r0, [r7, #12]
 11136 0008 B960     		str	r1, [r7, #8]
 11137 000a 7A60     		str	r2, [r7, #4]
1372:/home/cuil/workspace/arm/lm3s811/TI_Stellaris/driverlib/usb.c ****     //
1373:/home/cuil/workspace/arm/lm3s811/TI_Stellaris/driverlib/usb.c ****     // Check the arguments.
1374:/home/cuil/workspace/arm/lm3s811/TI_Stellaris/driverlib/usb.c ****     //
1375:/home/cuil/workspace/arm/lm3s811/TI_Stellaris/driverlib/usb.c ****     ASSERT(ulBase == USB0_BASE);
1376:/home/cuil/workspace/arm/lm3s811/TI_Stellaris/driverlib/usb.c ****     ASSERT((ulEndpoint == USB_EP_1) || (ulEndpoint == USB_EP_2) ||
1377:/home/cuil/workspace/arm/lm3s811/TI_Stellaris/driverlib/usb.c ****            (ulEndpoint == USB_EP_3) || (ulEndpoint == USB_EP_4) ||
1378:/home/cuil/workspace/arm/lm3s811/TI_Stellaris/driverlib/usb.c ****            (ulEndpoint == USB_EP_5) || (ulEndpoint == USB_EP_6) ||
1379:/home/cuil/workspace/arm/lm3s811/TI_Stellaris/driverlib/usb.c ****            (ulEndpoint == USB_EP_7) || (ulEndpoint == USB_EP_8) ||
1380:/home/cuil/workspace/arm/lm3s811/TI_Stellaris/driverlib/usb.c ****            (ulEndpoint == USB_EP_9) || (ulEndpoint == USB_EP_10) ||
1381:/home/cuil/workspace/arm/lm3s811/TI_Stellaris/driverlib/usb.c ****            (ulEndpoint == USB_EP_11) || (ulEndpoint == USB_EP_12) ||
1382:/home/cuil/workspace/arm/lm3s811/TI_Stellaris/driverlib/usb.c ****            (ulEndpoint == USB_EP_13) || (ulEndpoint == USB_EP_14) ||
1383:/home/cuil/workspace/arm/lm3s811/TI_Stellaris/driverlib/usb.c ****            (ulEndpoint == USB_EP_15));
1384:/home/cuil/workspace/arm/lm3s811/TI_Stellaris/driverlib/usb.c **** 
1385:/home/cuil/workspace/arm/lm3s811/TI_Stellaris/driverlib/usb.c ****     //
1386:/home/cuil/workspace/arm/lm3s811/TI_Stellaris/driverlib/usb.c ****     // See if the transmit or receive data toggle should be cleared.
1387:/home/cuil/workspace/arm/lm3s811/TI_Stellaris/driverlib/usb.c ****     //
1388:/home/cuil/workspace/arm/lm3s811/TI_Stellaris/driverlib/usb.c ****     if(ulFlags & (USB_EP_HOST_OUT | USB_EP_DEV_IN))
 11138              		.loc 1 1388 0
 11139 000c 7B68     		ldr	r3, [r7, #4]
 11140 000e 03F40053 		and	r3, r3, #8192
 11141 0012 002B     		cmp	r3, #0
 11142 0014 10D0     		beq	.L78
1389:/home/cuil/workspace/arm/lm3s811/TI_Stellaris/driverlib/usb.c ****     {
1390:/home/cuil/workspace/arm/lm3s811/TI_Stellaris/driverlib/usb.c ****         HWREGB(ulBase + USB_O_TXCSRL1 + EP_OFFSET(ulEndpoint)) |=
 11143              		.loc 1 1390 0
 11144 0016 FA68     		ldr	r2, [r7, #12]
 11145 0018 BB68     		ldr	r3, [r7, #8]
 11146 001a D318     		adds	r3, r2, r3
 11147 001c 03F58173 		add	r3, r3, #258
 11148 0020 F968     		ldr	r1, [r7, #12]
 11149 0022 BA68     		ldr	r2, [r7, #8]
 11150 0024 8A18     		adds	r2, r1, r2
 11151 0026 02F58172 		add	r2, r2, #258
 11152 002a 1278     		ldrb	r2, [r2, #0]
 11153 002c D2B2     		uxtb	r2, r2
 11154 002e 42F04002 		orr	r2, r2, #64
 11155 0032 D2B2     		uxtb	r2, r2
 11156 0034 1A70     		strb	r2, [r3, #0]
 11157 0036 0FE0     		b	.L77
 11158              	.L78:
1391:/home/cuil/workspace/arm/lm3s811/TI_Stellaris/driverlib/usb.c ****             USB_TXCSRL1_CLRDT;
1392:/home/cuil/workspace/arm/lm3s811/TI_Stellaris/driverlib/usb.c ****     }
1393:/home/cuil/workspace/arm/lm3s811/TI_Stellaris/driverlib/usb.c ****     else
1394:/home/cuil/workspace/arm/lm3s811/TI_Stellaris/driverlib/usb.c ****     {
1395:/home/cuil/workspace/arm/lm3s811/TI_Stellaris/driverlib/usb.c ****         HWREGB(ulBase + USB_O_RXCSRL1 + EP_OFFSET(ulEndpoint)) |=
 11159              		.loc 1 1395 0
 11160 0038 FA68     		ldr	r2, [r7, #12]
 11161 003a BB68     		ldr	r3, [r7, #8]
 11162 003c D318     		adds	r3, r2, r3
 11163 003e 03F58373 		add	r3, r3, #262
 11164 0042 F968     		ldr	r1, [r7, #12]
 11165 0044 BA68     		ldr	r2, [r7, #8]
 11166 0046 8A18     		adds	r2, r1, r2
 11167 0048 02F58372 		add	r2, r2, #262
 11168 004c 1278     		ldrb	r2, [r2, #0]
 11169 004e D2B2     		uxtb	r2, r2
 11170 0050 62F07F02 		orn	r2, r2, #127
 11171 0054 D2B2     		uxtb	r2, r2
 11172 0056 1A70     		strb	r2, [r3, #0]
 11173              	.L77:
1396:/home/cuil/workspace/arm/lm3s811/TI_Stellaris/driverlib/usb.c ****             USB_RXCSRL1_CLRDT;
1397:/home/cuil/workspace/arm/lm3s811/TI_Stellaris/driverlib/usb.c ****     }
1398:/home/cuil/workspace/arm/lm3s811/TI_Stellaris/driverlib/usb.c **** }
 11174              		.loc 1 1398 0
 11175 0058 07F11407 		add	r7, r7, #20
 11176 005c BD46     		mov	sp, r7
 11177 005e 80BC     		pop	{r7}
 11178 0060 7047     		bx	lr
 11179              		.cfi_endproc
 11180              	.LFE21:
 11182 0062 00BF     		.section	.text.USBDevEndpointStall,"ax",%progbits
 11183              		.align	2
 11184              		.global	USBDevEndpointStall
 11185              		.thumb
 11186              		.thumb_func
 11188              	USBDevEndpointStall:
 11189              	.LFB22:
1399:/home/cuil/workspace/arm/lm3s811/TI_Stellaris/driverlib/usb.c **** 
1400:/home/cuil/workspace/arm/lm3s811/TI_Stellaris/driverlib/usb.c **** //*****************************************************************************
1401:/home/cuil/workspace/arm/lm3s811/TI_Stellaris/driverlib/usb.c **** //
1402:/home/cuil/workspace/arm/lm3s811/TI_Stellaris/driverlib/usb.c **** //! Stalls the specified endpoint in device mode.
1403:/home/cuil/workspace/arm/lm3s811/TI_Stellaris/driverlib/usb.c **** //!
1404:/home/cuil/workspace/arm/lm3s811/TI_Stellaris/driverlib/usb.c **** //! \param ulBase specifies the USB module base address.
1405:/home/cuil/workspace/arm/lm3s811/TI_Stellaris/driverlib/usb.c **** //! \param ulEndpoint specifies the endpoint to stall.
1406:/home/cuil/workspace/arm/lm3s811/TI_Stellaris/driverlib/usb.c **** //! \param ulFlags specifies whether to stall the IN or OUT endpoint.
1407:/home/cuil/workspace/arm/lm3s811/TI_Stellaris/driverlib/usb.c **** //!
1408:/home/cuil/workspace/arm/lm3s811/TI_Stellaris/driverlib/usb.c **** //! This function causes the endpoint number passed in to go into a stall
1409:/home/cuil/workspace/arm/lm3s811/TI_Stellaris/driverlib/usb.c **** //! condition.  If the \e ulFlags parameter is \b USB_EP_DEV_IN, then the stall
1410:/home/cuil/workspace/arm/lm3s811/TI_Stellaris/driverlib/usb.c **** //! is issued on the IN portion of this endpoint.  If the \e ulFlags parameter
1411:/home/cuil/workspace/arm/lm3s811/TI_Stellaris/driverlib/usb.c **** //! is \b USB_EP_DEV_OUT, then the stall is issued on the OUT portion of this
1412:/home/cuil/workspace/arm/lm3s811/TI_Stellaris/driverlib/usb.c **** //! endpoint.
1413:/home/cuil/workspace/arm/lm3s811/TI_Stellaris/driverlib/usb.c **** //!
1414:/home/cuil/workspace/arm/lm3s811/TI_Stellaris/driverlib/usb.c **** //! \note This function should only be called in device mode.
1415:/home/cuil/workspace/arm/lm3s811/TI_Stellaris/driverlib/usb.c **** //!
1416:/home/cuil/workspace/arm/lm3s811/TI_Stellaris/driverlib/usb.c **** //! \return None.
1417:/home/cuil/workspace/arm/lm3s811/TI_Stellaris/driverlib/usb.c **** //
1418:/home/cuil/workspace/arm/lm3s811/TI_Stellaris/driverlib/usb.c **** //*****************************************************************************
1419:/home/cuil/workspace/arm/lm3s811/TI_Stellaris/driverlib/usb.c **** void
1420:/home/cuil/workspace/arm/lm3s811/TI_Stellaris/driverlib/usb.c **** USBDevEndpointStall(unsigned long ulBase, unsigned long ulEndpoint,
1421:/home/cuil/workspace/arm/lm3s811/TI_Stellaris/driverlib/usb.c ****                     unsigned long ulFlags)
1422:/home/cuil/workspace/arm/lm3s811/TI_Stellaris/driverlib/usb.c **** {
 11190              		.loc 1 1422 0
 11191              		.cfi_startproc
 11192              		@ args = 0, pretend = 0, frame = 16
 11193              		@ frame_needed = 1, uses_anonymous_args = 0
 11194              		@ link register save eliminated.
 11195 0000 80B4     		push	{r7}
 11196              	.LCFI66:
 11197              		.cfi_def_cfa_offset 4
 11198 0002 85B0     		sub	sp, sp, #20
 11199              	.LCFI67:
 11200              		.cfi_def_cfa_offset 24
 11201 0004 00AF     		add	r7, sp, #0
 11202              		.cfi_offset 7, -4
 11203              	.LCFI68:
 11204              		.cfi_def_cfa_register 7
 11205 0006 F860     		str	r0, [r7, #12]
 11206 0008 B960     		str	r1, [r7, #8]
 11207 000a 7A60     		str	r2, [r7, #4]
1423:/home/cuil/workspace/arm/lm3s811/TI_Stellaris/driverlib/usb.c ****     //
1424:/home/cuil/workspace/arm/lm3s811/TI_Stellaris/driverlib/usb.c ****     // Check the arguments.
1425:/home/cuil/workspace/arm/lm3s811/TI_Stellaris/driverlib/usb.c ****     //
1426:/home/cuil/workspace/arm/lm3s811/TI_Stellaris/driverlib/usb.c ****     ASSERT(ulBase == USB0_BASE);
1427:/home/cuil/workspace/arm/lm3s811/TI_Stellaris/driverlib/usb.c ****     ASSERT((ulFlags & ~(USB_EP_DEV_IN | USB_EP_DEV_OUT)) == 0)
1428:/home/cuil/workspace/arm/lm3s811/TI_Stellaris/driverlib/usb.c ****     ASSERT((ulEndpoint == USB_EP_0) || (ulEndpoint == USB_EP_1) ||
1429:/home/cuil/workspace/arm/lm3s811/TI_Stellaris/driverlib/usb.c ****            (ulEndpoint == USB_EP_2) || (ulEndpoint == USB_EP_3) ||
1430:/home/cuil/workspace/arm/lm3s811/TI_Stellaris/driverlib/usb.c ****            (ulEndpoint == USB_EP_4) || (ulEndpoint == USB_EP_5) ||
1431:/home/cuil/workspace/arm/lm3s811/TI_Stellaris/driverlib/usb.c ****            (ulEndpoint == USB_EP_6) || (ulEndpoint == USB_EP_7) ||
1432:/home/cuil/workspace/arm/lm3s811/TI_Stellaris/driverlib/usb.c ****            (ulEndpoint == USB_EP_8) || (ulEndpoint == USB_EP_9) ||
1433:/home/cuil/workspace/arm/lm3s811/TI_Stellaris/driverlib/usb.c ****            (ulEndpoint == USB_EP_10) || (ulEndpoint == USB_EP_11) ||
1434:/home/cuil/workspace/arm/lm3s811/TI_Stellaris/driverlib/usb.c ****            (ulEndpoint == USB_EP_12) || (ulEndpoint == USB_EP_13) ||
1435:/home/cuil/workspace/arm/lm3s811/TI_Stellaris/driverlib/usb.c ****            (ulEndpoint == USB_EP_14) || (ulEndpoint == USB_EP_15));
1436:/home/cuil/workspace/arm/lm3s811/TI_Stellaris/driverlib/usb.c **** 
1437:/home/cuil/workspace/arm/lm3s811/TI_Stellaris/driverlib/usb.c ****     //
1438:/home/cuil/workspace/arm/lm3s811/TI_Stellaris/driverlib/usb.c ****     // Determine how to stall this endpoint.
1439:/home/cuil/workspace/arm/lm3s811/TI_Stellaris/driverlib/usb.c ****     //
1440:/home/cuil/workspace/arm/lm3s811/TI_Stellaris/driverlib/usb.c ****     if(ulEndpoint == USB_EP_0)
 11208              		.loc 1 1440 0
 11209 000c BB68     		ldr	r3, [r7, #8]
 11210 000e 002B     		cmp	r3, #0
 11211 0010 0CD1     		bne	.L81
1441:/home/cuil/workspace/arm/lm3s811/TI_Stellaris/driverlib/usb.c ****     {
1442:/home/cuil/workspace/arm/lm3s811/TI_Stellaris/driverlib/usb.c ****         //
1443:/home/cuil/workspace/arm/lm3s811/TI_Stellaris/driverlib/usb.c ****         // Perform a stall on endpoint zero.
1444:/home/cuil/workspace/arm/lm3s811/TI_Stellaris/driverlib/usb.c ****         //
1445:/home/cuil/workspace/arm/lm3s811/TI_Stellaris/driverlib/usb.c ****         HWREGB(ulBase + USB_O_CSRL0) |=
 11212              		.loc 1 1445 0
 11213 0012 FB68     		ldr	r3, [r7, #12]
 11214 0014 03F58173 		add	r3, r3, #258
 11215 0018 FA68     		ldr	r2, [r7, #12]
 11216 001a 02F58172 		add	r2, r2, #258
 11217 001e 1278     		ldrb	r2, [r2, #0]
 11218 0020 D2B2     		uxtb	r2, r2
 11219 0022 42F06002 		orr	r2, r2, #96
 11220 0026 D2B2     		uxtb	r2, r2
 11221 0028 1A70     		strb	r2, [r3, #0]
 11222 002a 24E0     		b	.L80
 11223              	.L81:
1446:/home/cuil/workspace/arm/lm3s811/TI_Stellaris/driverlib/usb.c ****             (USB_CSRL0_STALL | USB_CSRL0_RXRDYC);
1447:/home/cuil/workspace/arm/lm3s811/TI_Stellaris/driverlib/usb.c ****     }
1448:/home/cuil/workspace/arm/lm3s811/TI_Stellaris/driverlib/usb.c ****     else if(ulFlags == USB_EP_DEV_IN)
 11224              		.loc 1 1448 0
 11225 002c 7B68     		ldr	r3, [r7, #4]
 11226 002e B3F5005F 		cmp	r3, #8192
 11227 0032 10D1     		bne	.L83
1449:/home/cuil/workspace/arm/lm3s811/TI_Stellaris/driverlib/usb.c ****     {
1450:/home/cuil/workspace/arm/lm3s811/TI_Stellaris/driverlib/usb.c ****         //
1451:/home/cuil/workspace/arm/lm3s811/TI_Stellaris/driverlib/usb.c ****         // Perform a stall on an IN endpoint.
1452:/home/cuil/workspace/arm/lm3s811/TI_Stellaris/driverlib/usb.c ****         //
1453:/home/cuil/workspace/arm/lm3s811/TI_Stellaris/driverlib/usb.c ****         HWREGB(ulBase + USB_O_TXCSRL1 + EP_OFFSET(ulEndpoint)) |=
 11228              		.loc 1 1453 0
 11229 0034 FA68     		ldr	r2, [r7, #12]
 11230 0036 BB68     		ldr	r3, [r7, #8]
 11231 0038 D318     		adds	r3, r2, r3
 11232 003a 03F58173 		add	r3, r3, #258
 11233 003e F968     		ldr	r1, [r7, #12]
 11234 0040 BA68     		ldr	r2, [r7, #8]
 11235 0042 8A18     		adds	r2, r1, r2
 11236 0044 02F58172 		add	r2, r2, #258
 11237 0048 1278     		ldrb	r2, [r2, #0]
 11238 004a D2B2     		uxtb	r2, r2
 11239 004c 42F01002 		orr	r2, r2, #16
 11240 0050 D2B2     		uxtb	r2, r2
 11241 0052 1A70     		strb	r2, [r3, #0]
 11242 0054 0FE0     		b	.L80
 11243              	.L83:
1454:/home/cuil/workspace/arm/lm3s811/TI_Stellaris/driverlib/usb.c ****             USB_TXCSRL1_STALL;
1455:/home/cuil/workspace/arm/lm3s811/TI_Stellaris/driverlib/usb.c ****     }
1456:/home/cuil/workspace/arm/lm3s811/TI_Stellaris/driverlib/usb.c ****     else
1457:/home/cuil/workspace/arm/lm3s811/TI_Stellaris/driverlib/usb.c ****     {
1458:/home/cuil/workspace/arm/lm3s811/TI_Stellaris/driverlib/usb.c ****         //
1459:/home/cuil/workspace/arm/lm3s811/TI_Stellaris/driverlib/usb.c ****         // Perform a stall on an OUT endpoint.
1460:/home/cuil/workspace/arm/lm3s811/TI_Stellaris/driverlib/usb.c ****         //
1461:/home/cuil/workspace/arm/lm3s811/TI_Stellaris/driverlib/usb.c ****         HWREGB(ulBase + USB_O_RXCSRL1 + EP_OFFSET(ulEndpoint)) |=
 11244              		.loc 1 1461 0
 11245 0056 FA68     		ldr	r2, [r7, #12]
 11246 0058 BB68     		ldr	r3, [r7, #8]
 11247 005a D318     		adds	r3, r2, r3
 11248 005c 03F58373 		add	r3, r3, #262
 11249 0060 F968     		ldr	r1, [r7, #12]
 11250 0062 BA68     		ldr	r2, [r7, #8]
 11251 0064 8A18     		adds	r2, r1, r2
 11252 0066 02F58372 		add	r2, r2, #262
 11253 006a 1278     		ldrb	r2, [r2, #0]
 11254 006c D2B2     		uxtb	r2, r2
 11255 006e 42F02002 		orr	r2, r2, #32
 11256 0072 D2B2     		uxtb	r2, r2
 11257 0074 1A70     		strb	r2, [r3, #0]
 11258              	.L80:
1462:/home/cuil/workspace/arm/lm3s811/TI_Stellaris/driverlib/usb.c ****             USB_RXCSRL1_STALL;
1463:/home/cuil/workspace/arm/lm3s811/TI_Stellaris/driverlib/usb.c ****     }
1464:/home/cuil/workspace/arm/lm3s811/TI_Stellaris/driverlib/usb.c **** }
 11259              		.loc 1 1464 0
 11260 0076 07F11407 		add	r7, r7, #20
 11261 007a BD46     		mov	sp, r7
 11262 007c 80BC     		pop	{r7}
 11263 007e 7047     		bx	lr
 11264              		.cfi_endproc
 11265              	.LFE22:
 11267              		.section	.text.USBDevEndpointStallClear,"ax",%progbits
 11268              		.align	2
 11269              		.global	USBDevEndpointStallClear
 11270              		.thumb
 11271              		.thumb_func
 11273              	USBDevEndpointStallClear:
 11274              	.LFB23:
1465:/home/cuil/workspace/arm/lm3s811/TI_Stellaris/driverlib/usb.c **** 
1466:/home/cuil/workspace/arm/lm3s811/TI_Stellaris/driverlib/usb.c **** //*****************************************************************************
1467:/home/cuil/workspace/arm/lm3s811/TI_Stellaris/driverlib/usb.c **** //
1468:/home/cuil/workspace/arm/lm3s811/TI_Stellaris/driverlib/usb.c **** //! Clears the stall condition on the specified endpoint in device mode.
1469:/home/cuil/workspace/arm/lm3s811/TI_Stellaris/driverlib/usb.c **** //!
1470:/home/cuil/workspace/arm/lm3s811/TI_Stellaris/driverlib/usb.c **** //! \param ulBase specifies the USB module base address.
1471:/home/cuil/workspace/arm/lm3s811/TI_Stellaris/driverlib/usb.c **** //! \param ulEndpoint specifies which endpoint to remove the stall condition.
1472:/home/cuil/workspace/arm/lm3s811/TI_Stellaris/driverlib/usb.c **** //! \param ulFlags specifies whether to remove the stall condition from the IN
1473:/home/cuil/workspace/arm/lm3s811/TI_Stellaris/driverlib/usb.c **** //! or the OUT portion of this endpoint.
1474:/home/cuil/workspace/arm/lm3s811/TI_Stellaris/driverlib/usb.c **** //!
1475:/home/cuil/workspace/arm/lm3s811/TI_Stellaris/driverlib/usb.c **** //! This function causes the endpoint number passed in to exit the stall
1476:/home/cuil/workspace/arm/lm3s811/TI_Stellaris/driverlib/usb.c **** //! condition.  If the \e ulFlags parameter is \b USB_EP_DEV_IN, then the stall
1477:/home/cuil/workspace/arm/lm3s811/TI_Stellaris/driverlib/usb.c **** //! is cleared on the IN portion of this endpoint.  If the \e ulFlags parameter
1478:/home/cuil/workspace/arm/lm3s811/TI_Stellaris/driverlib/usb.c **** //! is \b USB_EP_DEV_OUT, then the stall is cleared on the OUT portion of this
1479:/home/cuil/workspace/arm/lm3s811/TI_Stellaris/driverlib/usb.c **** //! endpoint.
1480:/home/cuil/workspace/arm/lm3s811/TI_Stellaris/driverlib/usb.c **** //!
1481:/home/cuil/workspace/arm/lm3s811/TI_Stellaris/driverlib/usb.c **** //! \note This function should only be called in device mode.
1482:/home/cuil/workspace/arm/lm3s811/TI_Stellaris/driverlib/usb.c **** //!
1483:/home/cuil/workspace/arm/lm3s811/TI_Stellaris/driverlib/usb.c **** //! \return None.
1484:/home/cuil/workspace/arm/lm3s811/TI_Stellaris/driverlib/usb.c **** //
1485:/home/cuil/workspace/arm/lm3s811/TI_Stellaris/driverlib/usb.c **** //*****************************************************************************
1486:/home/cuil/workspace/arm/lm3s811/TI_Stellaris/driverlib/usb.c **** void
1487:/home/cuil/workspace/arm/lm3s811/TI_Stellaris/driverlib/usb.c **** USBDevEndpointStallClear(unsigned long ulBase, unsigned long ulEndpoint,
1488:/home/cuil/workspace/arm/lm3s811/TI_Stellaris/driverlib/usb.c ****                          unsigned long ulFlags)
1489:/home/cuil/workspace/arm/lm3s811/TI_Stellaris/driverlib/usb.c **** {
 11275              		.loc 1 1489 0
 11276              		.cfi_startproc
 11277              		@ args = 0, pretend = 0, frame = 16
 11278              		@ frame_needed = 1, uses_anonymous_args = 0
 11279              		@ link register save eliminated.
 11280 0000 80B4     		push	{r7}
 11281              	.LCFI69:
 11282              		.cfi_def_cfa_offset 4
 11283 0002 85B0     		sub	sp, sp, #20
 11284              	.LCFI70:
 11285              		.cfi_def_cfa_offset 24
 11286 0004 00AF     		add	r7, sp, #0
 11287              		.cfi_offset 7, -4
 11288              	.LCFI71:
 11289              		.cfi_def_cfa_register 7
 11290 0006 F860     		str	r0, [r7, #12]
 11291 0008 B960     		str	r1, [r7, #8]
 11292 000a 7A60     		str	r2, [r7, #4]
1490:/home/cuil/workspace/arm/lm3s811/TI_Stellaris/driverlib/usb.c ****     //
1491:/home/cuil/workspace/arm/lm3s811/TI_Stellaris/driverlib/usb.c ****     // Check the arguments.
1492:/home/cuil/workspace/arm/lm3s811/TI_Stellaris/driverlib/usb.c ****     //
1493:/home/cuil/workspace/arm/lm3s811/TI_Stellaris/driverlib/usb.c ****     ASSERT(ulBase == USB0_BASE);
1494:/home/cuil/workspace/arm/lm3s811/TI_Stellaris/driverlib/usb.c ****     ASSERT((ulEndpoint == USB_EP_0) || (ulEndpoint == USB_EP_1) ||
1495:/home/cuil/workspace/arm/lm3s811/TI_Stellaris/driverlib/usb.c ****            (ulEndpoint == USB_EP_2) || (ulEndpoint == USB_EP_3) ||
1496:/home/cuil/workspace/arm/lm3s811/TI_Stellaris/driverlib/usb.c ****            (ulEndpoint == USB_EP_4) || (ulEndpoint == USB_EP_5) ||
1497:/home/cuil/workspace/arm/lm3s811/TI_Stellaris/driverlib/usb.c ****            (ulEndpoint == USB_EP_6) || (ulEndpoint == USB_EP_7) ||
1498:/home/cuil/workspace/arm/lm3s811/TI_Stellaris/driverlib/usb.c ****            (ulEndpoint == USB_EP_8) || (ulEndpoint == USB_EP_9) ||
1499:/home/cuil/workspace/arm/lm3s811/TI_Stellaris/driverlib/usb.c ****            (ulEndpoint == USB_EP_10) || (ulEndpoint == USB_EP_11) ||
1500:/home/cuil/workspace/arm/lm3s811/TI_Stellaris/driverlib/usb.c ****            (ulEndpoint == USB_EP_12) || (ulEndpoint == USB_EP_13) ||
1501:/home/cuil/workspace/arm/lm3s811/TI_Stellaris/driverlib/usb.c ****            (ulEndpoint == USB_EP_14) || (ulEndpoint == USB_EP_15));
1502:/home/cuil/workspace/arm/lm3s811/TI_Stellaris/driverlib/usb.c ****     ASSERT((ulFlags & ~(USB_EP_DEV_IN | USB_EP_DEV_OUT)) == 0)
1503:/home/cuil/workspace/arm/lm3s811/TI_Stellaris/driverlib/usb.c **** 
1504:/home/cuil/workspace/arm/lm3s811/TI_Stellaris/driverlib/usb.c ****     //
1505:/home/cuil/workspace/arm/lm3s811/TI_Stellaris/driverlib/usb.c ****     // Determine how to clear the stall on this endpoint.
1506:/home/cuil/workspace/arm/lm3s811/TI_Stellaris/driverlib/usb.c ****     //
1507:/home/cuil/workspace/arm/lm3s811/TI_Stellaris/driverlib/usb.c ****     if(ulEndpoint == USB_EP_0)
 11293              		.loc 1 1507 0
 11294 000c BB68     		ldr	r3, [r7, #8]
 11295 000e 002B     		cmp	r3, #0
 11296 0010 0CD1     		bne	.L85
1508:/home/cuil/workspace/arm/lm3s811/TI_Stellaris/driverlib/usb.c ****     {
1509:/home/cuil/workspace/arm/lm3s811/TI_Stellaris/driverlib/usb.c ****         //
1510:/home/cuil/workspace/arm/lm3s811/TI_Stellaris/driverlib/usb.c ****         // Clear the stall on endpoint zero.
1511:/home/cuil/workspace/arm/lm3s811/TI_Stellaris/driverlib/usb.c ****         //
1512:/home/cuil/workspace/arm/lm3s811/TI_Stellaris/driverlib/usb.c ****         HWREGB(ulBase + USB_O_CSRL0) &= ~USB_CSRL0_STALLED;
 11297              		.loc 1 1512 0
 11298 0012 FB68     		ldr	r3, [r7, #12]
 11299 0014 03F58173 		add	r3, r3, #258
 11300 0018 FA68     		ldr	r2, [r7, #12]
 11301 001a 02F58172 		add	r2, r2, #258
 11302 001e 1278     		ldrb	r2, [r2, #0]
 11303 0020 D2B2     		uxtb	r2, r2
 11304 0022 22F00402 		bic	r2, r2, #4
 11305 0026 D2B2     		uxtb	r2, r2
 11306 0028 1A70     		strb	r2, [r3, #0]
 11307 002a 44E0     		b	.L84
 11308              	.L85:
1513:/home/cuil/workspace/arm/lm3s811/TI_Stellaris/driverlib/usb.c ****     }
1514:/home/cuil/workspace/arm/lm3s811/TI_Stellaris/driverlib/usb.c ****     else if(ulFlags == USB_EP_DEV_IN)
 11309              		.loc 1 1514 0
 11310 002c 7B68     		ldr	r3, [r7, #4]
 11311 002e B3F5005F 		cmp	r3, #8192
 11312 0032 20D1     		bne	.L87
1515:/home/cuil/workspace/arm/lm3s811/TI_Stellaris/driverlib/usb.c ****     {
1516:/home/cuil/workspace/arm/lm3s811/TI_Stellaris/driverlib/usb.c ****         //
1517:/home/cuil/workspace/arm/lm3s811/TI_Stellaris/driverlib/usb.c ****         // Clear the stall on an IN endpoint.
1518:/home/cuil/workspace/arm/lm3s811/TI_Stellaris/driverlib/usb.c ****         //
1519:/home/cuil/workspace/arm/lm3s811/TI_Stellaris/driverlib/usb.c ****         HWREGB(ulBase + USB_O_TXCSRL1 + EP_OFFSET(ulEndpoint)) &=
 11313              		.loc 1 1519 0
 11314 0034 FA68     		ldr	r2, [r7, #12]
 11315 0036 BB68     		ldr	r3, [r7, #8]
 11316 0038 D318     		adds	r3, r2, r3
 11317 003a 03F58173 		add	r3, r3, #258
 11318 003e F968     		ldr	r1, [r7, #12]
 11319 0040 BA68     		ldr	r2, [r7, #8]
 11320 0042 8A18     		adds	r2, r1, r2
 11321 0044 02F58172 		add	r2, r2, #258
 11322 0048 1278     		ldrb	r2, [r2, #0]
 11323 004a D2B2     		uxtb	r2, r2
 11324 004c 22F03002 		bic	r2, r2, #48
 11325 0050 D2B2     		uxtb	r2, r2
 11326 0052 1A70     		strb	r2, [r3, #0]
1520:/home/cuil/workspace/arm/lm3s811/TI_Stellaris/driverlib/usb.c ****             ~(USB_TXCSRL1_STALL | USB_TXCSRL1_STALLED);
1521:/home/cuil/workspace/arm/lm3s811/TI_Stellaris/driverlib/usb.c **** 
1522:/home/cuil/workspace/arm/lm3s811/TI_Stellaris/driverlib/usb.c ****         //
1523:/home/cuil/workspace/arm/lm3s811/TI_Stellaris/driverlib/usb.c ****         // Reset the data toggle.
1524:/home/cuil/workspace/arm/lm3s811/TI_Stellaris/driverlib/usb.c ****         //
1525:/home/cuil/workspace/arm/lm3s811/TI_Stellaris/driverlib/usb.c ****         HWREGB(ulBase + USB_O_TXCSRL1 + EP_OFFSET(ulEndpoint)) |=
 11327              		.loc 1 1525 0
 11328 0054 FA68     		ldr	r2, [r7, #12]
 11329 0056 BB68     		ldr	r3, [r7, #8]
 11330 0058 D318     		adds	r3, r2, r3
 11331 005a 03F58173 		add	r3, r3, #258
 11332 005e F968     		ldr	r1, [r7, #12]
 11333 0060 BA68     		ldr	r2, [r7, #8]
 11334 0062 8A18     		adds	r2, r1, r2
 11335 0064 02F58172 		add	r2, r2, #258
 11336 0068 1278     		ldrb	r2, [r2, #0]
 11337 006a D2B2     		uxtb	r2, r2
 11338 006c 42F04002 		orr	r2, r2, #64
 11339 0070 D2B2     		uxtb	r2, r2
 11340 0072 1A70     		strb	r2, [r3, #0]
 11341 0074 1FE0     		b	.L84
 11342              	.L87:
1526:/home/cuil/workspace/arm/lm3s811/TI_Stellaris/driverlib/usb.c ****             USB_TXCSRL1_CLRDT;
1527:/home/cuil/workspace/arm/lm3s811/TI_Stellaris/driverlib/usb.c ****     }
1528:/home/cuil/workspace/arm/lm3s811/TI_Stellaris/driverlib/usb.c ****     else
1529:/home/cuil/workspace/arm/lm3s811/TI_Stellaris/driverlib/usb.c ****     {
1530:/home/cuil/workspace/arm/lm3s811/TI_Stellaris/driverlib/usb.c ****         //
1531:/home/cuil/workspace/arm/lm3s811/TI_Stellaris/driverlib/usb.c ****         // Clear the stall on an OUT endpoint.
1532:/home/cuil/workspace/arm/lm3s811/TI_Stellaris/driverlib/usb.c ****         //
1533:/home/cuil/workspace/arm/lm3s811/TI_Stellaris/driverlib/usb.c ****         HWREGB(ulBase + USB_O_RXCSRL1 + EP_OFFSET(ulEndpoint)) &=
 11343              		.loc 1 1533 0
 11344 0076 FA68     		ldr	r2, [r7, #12]
 11345 0078 BB68     		ldr	r3, [r7, #8]
 11346 007a D318     		adds	r3, r2, r3
 11347 007c 03F58373 		add	r3, r3, #262
 11348 0080 F968     		ldr	r1, [r7, #12]
 11349 0082 BA68     		ldr	r2, [r7, #8]
 11350 0084 8A18     		adds	r2, r1, r2
 11351 0086 02F58372 		add	r2, r2, #262
 11352 008a 1278     		ldrb	r2, [r2, #0]
 11353 008c D2B2     		uxtb	r2, r2
 11354 008e 22F06002 		bic	r2, r2, #96
 11355 0092 D2B2     		uxtb	r2, r2
 11356 0094 1A70     		strb	r2, [r3, #0]
1534:/home/cuil/workspace/arm/lm3s811/TI_Stellaris/driverlib/usb.c ****             ~(USB_RXCSRL1_STALL | USB_RXCSRL1_STALLED);
1535:/home/cuil/workspace/arm/lm3s811/TI_Stellaris/driverlib/usb.c **** 
1536:/home/cuil/workspace/arm/lm3s811/TI_Stellaris/driverlib/usb.c ****         //
1537:/home/cuil/workspace/arm/lm3s811/TI_Stellaris/driverlib/usb.c ****         // Reset the data toggle.
1538:/home/cuil/workspace/arm/lm3s811/TI_Stellaris/driverlib/usb.c ****         //
1539:/home/cuil/workspace/arm/lm3s811/TI_Stellaris/driverlib/usb.c ****         HWREGB(ulBase + USB_O_RXCSRL1 + EP_OFFSET(ulEndpoint)) |=
 11357              		.loc 1 1539 0
 11358 0096 FA68     		ldr	r2, [r7, #12]
 11359 0098 BB68     		ldr	r3, [r7, #8]
 11360 009a D318     		adds	r3, r2, r3
 11361 009c 03F58373 		add	r3, r3, #262
 11362 00a0 F968     		ldr	r1, [r7, #12]
 11363 00a2 BA68     		ldr	r2, [r7, #8]
 11364 00a4 8A18     		adds	r2, r1, r2
 11365 00a6 02F58372 		add	r2, r2, #262
 11366 00aa 1278     		ldrb	r2, [r2, #0]
 11367 00ac D2B2     		uxtb	r2, r2
 11368 00ae 62F07F02 		orn	r2, r2, #127
 11369 00b2 D2B2     		uxtb	r2, r2
 11370 00b4 1A70     		strb	r2, [r3, #0]
 11371              	.L84:
1540:/home/cuil/workspace/arm/lm3s811/TI_Stellaris/driverlib/usb.c ****             USB_RXCSRL1_CLRDT;
1541:/home/cuil/workspace/arm/lm3s811/TI_Stellaris/driverlib/usb.c ****     }
1542:/home/cuil/workspace/arm/lm3s811/TI_Stellaris/driverlib/usb.c **** }
 11372              		.loc 1 1542 0
 11373 00b6 07F11407 		add	r7, r7, #20
 11374 00ba BD46     		mov	sp, r7
 11375 00bc 80BC     		pop	{r7}
 11376 00be 7047     		bx	lr
 11377              		.cfi_endproc
 11378              	.LFE23:
 11380              		.section	.text.USBDevConnect,"ax",%progbits
 11381              		.align	2
 11382              		.global	USBDevConnect
 11383              		.thumb
 11384              		.thumb_func
 11386              	USBDevConnect:
 11387              	.LFB24:
1543:/home/cuil/workspace/arm/lm3s811/TI_Stellaris/driverlib/usb.c **** 
1544:/home/cuil/workspace/arm/lm3s811/TI_Stellaris/driverlib/usb.c **** //*****************************************************************************
1545:/home/cuil/workspace/arm/lm3s811/TI_Stellaris/driverlib/usb.c **** //
1546:/home/cuil/workspace/arm/lm3s811/TI_Stellaris/driverlib/usb.c **** //! Connects the USB controller to the bus in device mode.
1547:/home/cuil/workspace/arm/lm3s811/TI_Stellaris/driverlib/usb.c **** //!
1548:/home/cuil/workspace/arm/lm3s811/TI_Stellaris/driverlib/usb.c **** //! \param ulBase specifies the USB module base address.
1549:/home/cuil/workspace/arm/lm3s811/TI_Stellaris/driverlib/usb.c **** //!
1550:/home/cuil/workspace/arm/lm3s811/TI_Stellaris/driverlib/usb.c **** //! This function causes the soft connect feature of the USB controller to
1551:/home/cuil/workspace/arm/lm3s811/TI_Stellaris/driverlib/usb.c **** //! be enabled.  Call USBDevDisconnect() to remove the USB device from the bus.
1552:/home/cuil/workspace/arm/lm3s811/TI_Stellaris/driverlib/usb.c **** //!
1553:/home/cuil/workspace/arm/lm3s811/TI_Stellaris/driverlib/usb.c **** //! \note This function should only be called in device mode.
1554:/home/cuil/workspace/arm/lm3s811/TI_Stellaris/driverlib/usb.c **** //!
1555:/home/cuil/workspace/arm/lm3s811/TI_Stellaris/driverlib/usb.c **** //! \return None.
1556:/home/cuil/workspace/arm/lm3s811/TI_Stellaris/driverlib/usb.c **** //
1557:/home/cuil/workspace/arm/lm3s811/TI_Stellaris/driverlib/usb.c **** //*****************************************************************************
1558:/home/cuil/workspace/arm/lm3s811/TI_Stellaris/driverlib/usb.c **** void
1559:/home/cuil/workspace/arm/lm3s811/TI_Stellaris/driverlib/usb.c **** USBDevConnect(unsigned long ulBase)
1560:/home/cuil/workspace/arm/lm3s811/TI_Stellaris/driverlib/usb.c **** {
 11388              		.loc 1 1560 0
 11389              		.cfi_startproc
 11390              		@ args = 0, pretend = 0, frame = 8
 11391              		@ frame_needed = 1, uses_anonymous_args = 0
 11392              		@ link register save eliminated.
 11393 0000 80B4     		push	{r7}
 11394              	.LCFI72:
 11395              		.cfi_def_cfa_offset 4
 11396 0002 83B0     		sub	sp, sp, #12
 11397              	.LCFI73:
 11398              		.cfi_def_cfa_offset 16
 11399 0004 00AF     		add	r7, sp, #0
 11400              		.cfi_offset 7, -4
 11401              	.LCFI74:
 11402              		.cfi_def_cfa_register 7
 11403 0006 7860     		str	r0, [r7, #4]
1561:/home/cuil/workspace/arm/lm3s811/TI_Stellaris/driverlib/usb.c ****     //
1562:/home/cuil/workspace/arm/lm3s811/TI_Stellaris/driverlib/usb.c ****     // Check the arguments.
1563:/home/cuil/workspace/arm/lm3s811/TI_Stellaris/driverlib/usb.c ****     //
1564:/home/cuil/workspace/arm/lm3s811/TI_Stellaris/driverlib/usb.c ****     ASSERT(ulBase == USB0_BASE);
1565:/home/cuil/workspace/arm/lm3s811/TI_Stellaris/driverlib/usb.c **** 
1566:/home/cuil/workspace/arm/lm3s811/TI_Stellaris/driverlib/usb.c ****     //
1567:/home/cuil/workspace/arm/lm3s811/TI_Stellaris/driverlib/usb.c ****     // Enable connection to the USB bus.
1568:/home/cuil/workspace/arm/lm3s811/TI_Stellaris/driverlib/usb.c ****     //
1569:/home/cuil/workspace/arm/lm3s811/TI_Stellaris/driverlib/usb.c ****     HWREGB(ulBase + USB_O_POWER) |= USB_POWER_SOFTCONN;
 11404              		.loc 1 1569 0
 11405 0008 7B68     		ldr	r3, [r7, #4]
 11406 000a 03F10103 		add	r3, r3, #1
 11407 000e 7A68     		ldr	r2, [r7, #4]
 11408 0010 02F10102 		add	r2, r2, #1
 11409 0014 1278     		ldrb	r2, [r2, #0]
 11410 0016 D2B2     		uxtb	r2, r2
 11411 0018 42F04002 		orr	r2, r2, #64
 11412 001c D2B2     		uxtb	r2, r2
 11413 001e 1A70     		strb	r2, [r3, #0]
1570:/home/cuil/workspace/arm/lm3s811/TI_Stellaris/driverlib/usb.c **** }
 11414              		.loc 1 1570 0
 11415 0020 07F10C07 		add	r7, r7, #12
 11416 0024 BD46     		mov	sp, r7
 11417 0026 80BC     		pop	{r7}
 11418 0028 7047     		bx	lr
 11419              		.cfi_endproc
 11420              	.LFE24:
 11422 002a 00BF     		.section	.text.USBDevDisconnect,"ax",%progbits
 11423              		.align	2
 11424              		.global	USBDevDisconnect
 11425              		.thumb
 11426              		.thumb_func
 11428              	USBDevDisconnect:
 11429              	.LFB25:
1571:/home/cuil/workspace/arm/lm3s811/TI_Stellaris/driverlib/usb.c **** 
1572:/home/cuil/workspace/arm/lm3s811/TI_Stellaris/driverlib/usb.c **** //*****************************************************************************
1573:/home/cuil/workspace/arm/lm3s811/TI_Stellaris/driverlib/usb.c **** //
1574:/home/cuil/workspace/arm/lm3s811/TI_Stellaris/driverlib/usb.c **** //! Removes the USB controller from the bus in device mode.
1575:/home/cuil/workspace/arm/lm3s811/TI_Stellaris/driverlib/usb.c **** //!
1576:/home/cuil/workspace/arm/lm3s811/TI_Stellaris/driverlib/usb.c **** //! \param ulBase specifies the USB module base address.
1577:/home/cuil/workspace/arm/lm3s811/TI_Stellaris/driverlib/usb.c **** //!
1578:/home/cuil/workspace/arm/lm3s811/TI_Stellaris/driverlib/usb.c **** //! This function causes the soft connect feature of the USB controller to
1579:/home/cuil/workspace/arm/lm3s811/TI_Stellaris/driverlib/usb.c **** //! remove the device from the USB bus.  A call to USBDevConnect() is needed to
1580:/home/cuil/workspace/arm/lm3s811/TI_Stellaris/driverlib/usb.c **** //! reconnect to the bus.
1581:/home/cuil/workspace/arm/lm3s811/TI_Stellaris/driverlib/usb.c **** //!
1582:/home/cuil/workspace/arm/lm3s811/TI_Stellaris/driverlib/usb.c **** //! \note This function should only be called in device mode.
1583:/home/cuil/workspace/arm/lm3s811/TI_Stellaris/driverlib/usb.c **** //!
1584:/home/cuil/workspace/arm/lm3s811/TI_Stellaris/driverlib/usb.c **** //! \return None.
1585:/home/cuil/workspace/arm/lm3s811/TI_Stellaris/driverlib/usb.c **** //
1586:/home/cuil/workspace/arm/lm3s811/TI_Stellaris/driverlib/usb.c **** //*****************************************************************************
1587:/home/cuil/workspace/arm/lm3s811/TI_Stellaris/driverlib/usb.c **** void
1588:/home/cuil/workspace/arm/lm3s811/TI_Stellaris/driverlib/usb.c **** USBDevDisconnect(unsigned long ulBase)
1589:/home/cuil/workspace/arm/lm3s811/TI_Stellaris/driverlib/usb.c **** {
 11430              		.loc 1 1589 0
 11431              		.cfi_startproc
 11432              		@ args = 0, pretend = 0, frame = 8
 11433              		@ frame_needed = 1, uses_anonymous_args = 0
 11434              		@ link register save eliminated.
 11435 0000 80B4     		push	{r7}
 11436              	.LCFI75:
 11437              		.cfi_def_cfa_offset 4
 11438 0002 83B0     		sub	sp, sp, #12
 11439              	.LCFI76:
 11440              		.cfi_def_cfa_offset 16
 11441 0004 00AF     		add	r7, sp, #0
 11442              		.cfi_offset 7, -4
 11443              	.LCFI77:
 11444              		.cfi_def_cfa_register 7
 11445 0006 7860     		str	r0, [r7, #4]
1590:/home/cuil/workspace/arm/lm3s811/TI_Stellaris/driverlib/usb.c ****     //
1591:/home/cuil/workspace/arm/lm3s811/TI_Stellaris/driverlib/usb.c ****     // Check the arguments.
1592:/home/cuil/workspace/arm/lm3s811/TI_Stellaris/driverlib/usb.c ****     //
1593:/home/cuil/workspace/arm/lm3s811/TI_Stellaris/driverlib/usb.c ****     ASSERT(ulBase == USB0_BASE);
1594:/home/cuil/workspace/arm/lm3s811/TI_Stellaris/driverlib/usb.c **** 
1595:/home/cuil/workspace/arm/lm3s811/TI_Stellaris/driverlib/usb.c ****     //
1596:/home/cuil/workspace/arm/lm3s811/TI_Stellaris/driverlib/usb.c ****     // Disable connection to the USB bus.
1597:/home/cuil/workspace/arm/lm3s811/TI_Stellaris/driverlib/usb.c ****     //
1598:/home/cuil/workspace/arm/lm3s811/TI_Stellaris/driverlib/usb.c ****     HWREGB(ulBase + USB_O_POWER) &= (~USB_POWER_SOFTCONN);
 11446              		.loc 1 1598 0
 11447 0008 7B68     		ldr	r3, [r7, #4]
 11448 000a 03F10103 		add	r3, r3, #1
 11449 000e 7A68     		ldr	r2, [r7, #4]
 11450 0010 02F10102 		add	r2, r2, #1
 11451 0014 1278     		ldrb	r2, [r2, #0]
 11452 0016 D2B2     		uxtb	r2, r2
 11453 0018 22F04002 		bic	r2, r2, #64
 11454 001c D2B2     		uxtb	r2, r2
 11455 001e 1A70     		strb	r2, [r3, #0]
1599:/home/cuil/workspace/arm/lm3s811/TI_Stellaris/driverlib/usb.c **** }
 11456              		.loc 1 1599 0
 11457 0020 07F10C07 		add	r7, r7, #12
 11458 0024 BD46     		mov	sp, r7
 11459 0026 80BC     		pop	{r7}
 11460 0028 7047     		bx	lr
 11461              		.cfi_endproc
 11462              	.LFE25:
 11464 002a 00BF     		.section	.text.USBDevAddrSet,"ax",%progbits
 11465              		.align	2
 11466              		.global	USBDevAddrSet
 11467              		.thumb
 11468              		.thumb_func
 11470              	USBDevAddrSet:
 11471              	.LFB26:
1600:/home/cuil/workspace/arm/lm3s811/TI_Stellaris/driverlib/usb.c **** 
1601:/home/cuil/workspace/arm/lm3s811/TI_Stellaris/driverlib/usb.c **** //*****************************************************************************
1602:/home/cuil/workspace/arm/lm3s811/TI_Stellaris/driverlib/usb.c **** //
1603:/home/cuil/workspace/arm/lm3s811/TI_Stellaris/driverlib/usb.c **** //! Sets the address in device mode.
1604:/home/cuil/workspace/arm/lm3s811/TI_Stellaris/driverlib/usb.c **** //!
1605:/home/cuil/workspace/arm/lm3s811/TI_Stellaris/driverlib/usb.c **** //! \param ulBase specifies the USB module base address.
1606:/home/cuil/workspace/arm/lm3s811/TI_Stellaris/driverlib/usb.c **** //! \param ulAddress is the address to use for a device.
1607:/home/cuil/workspace/arm/lm3s811/TI_Stellaris/driverlib/usb.c **** //!
1608:/home/cuil/workspace/arm/lm3s811/TI_Stellaris/driverlib/usb.c **** //! This function configures the device address on the USB bus.  This address 
1609:/home/cuil/workspace/arm/lm3s811/TI_Stellaris/driverlib/usb.c **** //! was likely received via a SET ADDRESS command from the host controller.
1610:/home/cuil/workspace/arm/lm3s811/TI_Stellaris/driverlib/usb.c **** //!
1611:/home/cuil/workspace/arm/lm3s811/TI_Stellaris/driverlib/usb.c **** //! \note This function should only be called in device mode.
1612:/home/cuil/workspace/arm/lm3s811/TI_Stellaris/driverlib/usb.c **** //!
1613:/home/cuil/workspace/arm/lm3s811/TI_Stellaris/driverlib/usb.c **** //! \return None.
1614:/home/cuil/workspace/arm/lm3s811/TI_Stellaris/driverlib/usb.c **** //
1615:/home/cuil/workspace/arm/lm3s811/TI_Stellaris/driverlib/usb.c **** //*****************************************************************************
1616:/home/cuil/workspace/arm/lm3s811/TI_Stellaris/driverlib/usb.c **** void
1617:/home/cuil/workspace/arm/lm3s811/TI_Stellaris/driverlib/usb.c **** USBDevAddrSet(unsigned long ulBase, unsigned long ulAddress)
1618:/home/cuil/workspace/arm/lm3s811/TI_Stellaris/driverlib/usb.c **** {
 11472              		.loc 1 1618 0
 11473              		.cfi_startproc
 11474              		@ args = 0, pretend = 0, frame = 8
 11475              		@ frame_needed = 1, uses_anonymous_args = 0
 11476              		@ link register save eliminated.
 11477 0000 80B4     		push	{r7}
 11478              	.LCFI78:
 11479              		.cfi_def_cfa_offset 4
 11480 0002 83B0     		sub	sp, sp, #12
 11481              	.LCFI79:
 11482              		.cfi_def_cfa_offset 16
 11483 0004 00AF     		add	r7, sp, #0
 11484              		.cfi_offset 7, -4
 11485              	.LCFI80:
 11486              		.cfi_def_cfa_register 7
 11487 0006 7860     		str	r0, [r7, #4]
 11488 0008 3960     		str	r1, [r7, #0]
1619:/home/cuil/workspace/arm/lm3s811/TI_Stellaris/driverlib/usb.c ****     //
1620:/home/cuil/workspace/arm/lm3s811/TI_Stellaris/driverlib/usb.c ****     // Check the arguments.
1621:/home/cuil/workspace/arm/lm3s811/TI_Stellaris/driverlib/usb.c ****     //
1622:/home/cuil/workspace/arm/lm3s811/TI_Stellaris/driverlib/usb.c ****     ASSERT(ulBase == USB0_BASE);
1623:/home/cuil/workspace/arm/lm3s811/TI_Stellaris/driverlib/usb.c **** 
1624:/home/cuil/workspace/arm/lm3s811/TI_Stellaris/driverlib/usb.c ****     //
1625:/home/cuil/workspace/arm/lm3s811/TI_Stellaris/driverlib/usb.c ****     // Set the function address in the correct location.
1626:/home/cuil/workspace/arm/lm3s811/TI_Stellaris/driverlib/usb.c ****     //
1627:/home/cuil/workspace/arm/lm3s811/TI_Stellaris/driverlib/usb.c ****     HWREGB(ulBase + USB_O_FADDR) = (unsigned char)ulAddress;
 11489              		.loc 1 1627 0
 11490 000a 7B68     		ldr	r3, [r7, #4]
 11491 000c 3A68     		ldr	r2, [r7, #0]
 11492 000e D2B2     		uxtb	r2, r2
 11493 0010 1A70     		strb	r2, [r3, #0]
1628:/home/cuil/workspace/arm/lm3s811/TI_Stellaris/driverlib/usb.c **** }
 11494              		.loc 1 1628 0
 11495 0012 07F10C07 		add	r7, r7, #12
 11496 0016 BD46     		mov	sp, r7
 11497 0018 80BC     		pop	{r7}
 11498 001a 7047     		bx	lr
 11499              		.cfi_endproc
 11500              	.LFE26:
 11502              		.section	.text.USBDevAddrGet,"ax",%progbits
 11503              		.align	2
 11504              		.global	USBDevAddrGet
 11505              		.thumb
 11506              		.thumb_func
 11508              	USBDevAddrGet:
 11509              	.LFB27:
1629:/home/cuil/workspace/arm/lm3s811/TI_Stellaris/driverlib/usb.c **** 
1630:/home/cuil/workspace/arm/lm3s811/TI_Stellaris/driverlib/usb.c **** //*****************************************************************************
1631:/home/cuil/workspace/arm/lm3s811/TI_Stellaris/driverlib/usb.c **** //
1632:/home/cuil/workspace/arm/lm3s811/TI_Stellaris/driverlib/usb.c **** //! Returns the current device address in device mode.
1633:/home/cuil/workspace/arm/lm3s811/TI_Stellaris/driverlib/usb.c **** //!
1634:/home/cuil/workspace/arm/lm3s811/TI_Stellaris/driverlib/usb.c **** //! \param ulBase specifies the USB module base address.
1635:/home/cuil/workspace/arm/lm3s811/TI_Stellaris/driverlib/usb.c **** //!
1636:/home/cuil/workspace/arm/lm3s811/TI_Stellaris/driverlib/usb.c **** //! This function returns the current device address.  This address was set
1637:/home/cuil/workspace/arm/lm3s811/TI_Stellaris/driverlib/usb.c **** //! by a call to USBDevAddrSet().
1638:/home/cuil/workspace/arm/lm3s811/TI_Stellaris/driverlib/usb.c **** //!
1639:/home/cuil/workspace/arm/lm3s811/TI_Stellaris/driverlib/usb.c **** //! \note This function should only be called in device mode.
1640:/home/cuil/workspace/arm/lm3s811/TI_Stellaris/driverlib/usb.c **** //!
1641:/home/cuil/workspace/arm/lm3s811/TI_Stellaris/driverlib/usb.c **** //! \return The current device address.
1642:/home/cuil/workspace/arm/lm3s811/TI_Stellaris/driverlib/usb.c **** //
1643:/home/cuil/workspace/arm/lm3s811/TI_Stellaris/driverlib/usb.c **** //*****************************************************************************
1644:/home/cuil/workspace/arm/lm3s811/TI_Stellaris/driverlib/usb.c **** unsigned long
1645:/home/cuil/workspace/arm/lm3s811/TI_Stellaris/driverlib/usb.c **** USBDevAddrGet(unsigned long ulBase)
1646:/home/cuil/workspace/arm/lm3s811/TI_Stellaris/driverlib/usb.c **** {
 11510              		.loc 1 1646 0
 11511              		.cfi_startproc
 11512              		@ args = 0, pretend = 0, frame = 8
 11513              		@ frame_needed = 1, uses_anonymous_args = 0
 11514              		@ link register save eliminated.
 11515 0000 80B4     		push	{r7}
 11516              	.LCFI81:
 11517              		.cfi_def_cfa_offset 4
 11518 0002 83B0     		sub	sp, sp, #12
 11519              	.LCFI82:
 11520              		.cfi_def_cfa_offset 16
 11521 0004 00AF     		add	r7, sp, #0
 11522              		.cfi_offset 7, -4
 11523              	.LCFI83:
 11524              		.cfi_def_cfa_register 7
 11525 0006 7860     		str	r0, [r7, #4]
1647:/home/cuil/workspace/arm/lm3s811/TI_Stellaris/driverlib/usb.c ****     //
1648:/home/cuil/workspace/arm/lm3s811/TI_Stellaris/driverlib/usb.c ****     // Check the arguments.
1649:/home/cuil/workspace/arm/lm3s811/TI_Stellaris/driverlib/usb.c ****     //
1650:/home/cuil/workspace/arm/lm3s811/TI_Stellaris/driverlib/usb.c ****     ASSERT(ulBase == USB0_BASE);
1651:/home/cuil/workspace/arm/lm3s811/TI_Stellaris/driverlib/usb.c **** 
1652:/home/cuil/workspace/arm/lm3s811/TI_Stellaris/driverlib/usb.c ****     //
1653:/home/cuil/workspace/arm/lm3s811/TI_Stellaris/driverlib/usb.c ****     // Return the function address.
1654:/home/cuil/workspace/arm/lm3s811/TI_Stellaris/driverlib/usb.c ****     //
1655:/home/cuil/workspace/arm/lm3s811/TI_Stellaris/driverlib/usb.c ****     return(HWREGB(ulBase + USB_O_FADDR));
 11526              		.loc 1 1655 0
 11527 0008 7B68     		ldr	r3, [r7, #4]
 11528 000a 1B78     		ldrb	r3, [r3, #0]
 11529 000c DBB2     		uxtb	r3, r3
1656:/home/cuil/workspace/arm/lm3s811/TI_Stellaris/driverlib/usb.c **** }
 11530              		.loc 1 1656 0
 11531 000e 1846     		mov	r0, r3
 11532 0010 07F10C07 		add	r7, r7, #12
 11533 0014 BD46     		mov	sp, r7
 11534 0016 80BC     		pop	{r7}
 11535 0018 7047     		bx	lr
 11536              		.cfi_endproc
 11537              	.LFE27:
 11539 001a 00BF     		.section	.text.USBHostEndpointConfig,"ax",%progbits
 11540              		.align	2
 11541              		.global	USBHostEndpointConfig
 11542              		.thumb
 11543              		.thumb_func
 11545              	USBHostEndpointConfig:
 11546              	.LFB28:
1657:/home/cuil/workspace/arm/lm3s811/TI_Stellaris/driverlib/usb.c **** 
1658:/home/cuil/workspace/arm/lm3s811/TI_Stellaris/driverlib/usb.c **** //*****************************************************************************
1659:/home/cuil/workspace/arm/lm3s811/TI_Stellaris/driverlib/usb.c **** //
1660:/home/cuil/workspace/arm/lm3s811/TI_Stellaris/driverlib/usb.c **** //! Sets the base configuration for a host endpoint.
1661:/home/cuil/workspace/arm/lm3s811/TI_Stellaris/driverlib/usb.c **** //!
1662:/home/cuil/workspace/arm/lm3s811/TI_Stellaris/driverlib/usb.c **** //! \param ulBase specifies the USB module base address.
1663:/home/cuil/workspace/arm/lm3s811/TI_Stellaris/driverlib/usb.c **** //! \param ulEndpoint is the endpoint to access.
1664:/home/cuil/workspace/arm/lm3s811/TI_Stellaris/driverlib/usb.c **** //! \param ulMaxPayload is the maximum payload for this endpoint.
1665:/home/cuil/workspace/arm/lm3s811/TI_Stellaris/driverlib/usb.c **** //! \param ulNAKPollInterval is the either the NAK timeout limit or the polling
1666:/home/cuil/workspace/arm/lm3s811/TI_Stellaris/driverlib/usb.c **** //! interval, depending on the type of endpoint.
1667:/home/cuil/workspace/arm/lm3s811/TI_Stellaris/driverlib/usb.c **** //! \param ulTargetEndpoint is the endpoint that the host endpoint is
1668:/home/cuil/workspace/arm/lm3s811/TI_Stellaris/driverlib/usb.c **** //! targeting.
1669:/home/cuil/workspace/arm/lm3s811/TI_Stellaris/driverlib/usb.c **** //! \param ulFlags are used to configure other endpoint settings.
1670:/home/cuil/workspace/arm/lm3s811/TI_Stellaris/driverlib/usb.c **** //!
1671:/home/cuil/workspace/arm/lm3s811/TI_Stellaris/driverlib/usb.c **** //! This function sets the basic configuration for the transmit or receive
1672:/home/cuil/workspace/arm/lm3s811/TI_Stellaris/driverlib/usb.c **** //! portion of an endpoint in host mode.  The \e ulFlags parameter determines
1673:/home/cuil/workspace/arm/lm3s811/TI_Stellaris/driverlib/usb.c **** //! some of the configuration while the other parameters provide the rest.  The
1674:/home/cuil/workspace/arm/lm3s811/TI_Stellaris/driverlib/usb.c **** //! \e ulFlags parameter determines whether this is an IN endpoint
1675:/home/cuil/workspace/arm/lm3s811/TI_Stellaris/driverlib/usb.c **** //! (\b USB_EP_HOST_IN or \b USB_EP_DEV_IN) or an OUT endpoint 
1676:/home/cuil/workspace/arm/lm3s811/TI_Stellaris/driverlib/usb.c **** //! (\b USB_EP_HOST_OUT or \b USB_EP_DEV_OUT), whether this is a Full speed
1677:/home/cuil/workspace/arm/lm3s811/TI_Stellaris/driverlib/usb.c **** //! endpoint (\b USB_EP_SPEED_FULL) or a Low speed endpoint 
1678:/home/cuil/workspace/arm/lm3s811/TI_Stellaris/driverlib/usb.c **** //! (\b USB_EP_SPEED_LOW).
1679:/home/cuil/workspace/arm/lm3s811/TI_Stellaris/driverlib/usb.c **** //!
1680:/home/cuil/workspace/arm/lm3s811/TI_Stellaris/driverlib/usb.c **** //! The \b USB_EP_MODE_ flags control the type of the endpoint.
1681:/home/cuil/workspace/arm/lm3s811/TI_Stellaris/driverlib/usb.c **** //! - \b USB_EP_MODE_CTRL is a control endpoint.
1682:/home/cuil/workspace/arm/lm3s811/TI_Stellaris/driverlib/usb.c **** //! - \b USB_EP_MODE_ISOC is an isochronous endpoint.
1683:/home/cuil/workspace/arm/lm3s811/TI_Stellaris/driverlib/usb.c **** //! - \b USB_EP_MODE_BULK is a bulk endpoint.
1684:/home/cuil/workspace/arm/lm3s811/TI_Stellaris/driverlib/usb.c **** //! - \b USB_EP_MODE_INT is an interrupt endpoint.
1685:/home/cuil/workspace/arm/lm3s811/TI_Stellaris/driverlib/usb.c **** //!
1686:/home/cuil/workspace/arm/lm3s811/TI_Stellaris/driverlib/usb.c **** //! The \e ulNAKPollInterval parameter has different meanings based on the
1687:/home/cuil/workspace/arm/lm3s811/TI_Stellaris/driverlib/usb.c **** //! \b USB_EP_MODE value and whether or not this call is being made for
1688:/home/cuil/workspace/arm/lm3s811/TI_Stellaris/driverlib/usb.c **** //! endpoint zero or another endpoint.  For endpoint zero or any Bulk
1689:/home/cuil/workspace/arm/lm3s811/TI_Stellaris/driverlib/usb.c **** //! endpoints, this value always indicates the number of frames to allow a
1690:/home/cuil/workspace/arm/lm3s811/TI_Stellaris/driverlib/usb.c **** //! device to NAK before considering it a timeout.  If this endpoint is an
1691:/home/cuil/workspace/arm/lm3s811/TI_Stellaris/driverlib/usb.c **** //! isochronous or interrupt endpoint, this value is the polling interval for
1692:/home/cuil/workspace/arm/lm3s811/TI_Stellaris/driverlib/usb.c **** //! this endpoint.
1693:/home/cuil/workspace/arm/lm3s811/TI_Stellaris/driverlib/usb.c **** //!
1694:/home/cuil/workspace/arm/lm3s811/TI_Stellaris/driverlib/usb.c **** //! For interrupt endpoints, the polling interval is simply the number of
1695:/home/cuil/workspace/arm/lm3s811/TI_Stellaris/driverlib/usb.c **** //! frames between polling an interrupt endpoint.  For isochronous endpoints
1696:/home/cuil/workspace/arm/lm3s811/TI_Stellaris/driverlib/usb.c **** //! this value represents a polling interval of 2 ^ (\e ulNAKPollInterval - 1)
1697:/home/cuil/workspace/arm/lm3s811/TI_Stellaris/driverlib/usb.c **** //! frames.  When used as a NAK timeout, the \e ulNAKPollInterval value
1698:/home/cuil/workspace/arm/lm3s811/TI_Stellaris/driverlib/usb.c **** //! specifies 2 ^ (\e ulNAKPollInterval - 1) frames before issuing a time out.
1699:/home/cuil/workspace/arm/lm3s811/TI_Stellaris/driverlib/usb.c **** //! There are two special time out values that can be specified when setting
1700:/home/cuil/workspace/arm/lm3s811/TI_Stellaris/driverlib/usb.c **** //! the \e ulNAKPollInterval value.  The first is \b MAX_NAK_LIMIT, which is 
1701:/home/cuil/workspace/arm/lm3s811/TI_Stellaris/driverlib/usb.c **** //! the maximum value that can be passed in this variable.  The other is
1702:/home/cuil/workspace/arm/lm3s811/TI_Stellaris/driverlib/usb.c **** //! \b DISABLE_NAK_LIMIT, which indicates that there should be no limit on the
1703:/home/cuil/workspace/arm/lm3s811/TI_Stellaris/driverlib/usb.c **** //! number of NAKs.
1704:/home/cuil/workspace/arm/lm3s811/TI_Stellaris/driverlib/usb.c **** //!
1705:/home/cuil/workspace/arm/lm3s811/TI_Stellaris/driverlib/usb.c **** //! The \b USB_EP_DMA_MODE_ flags enable the type of DMA used to access the
1706:/home/cuil/workspace/arm/lm3s811/TI_Stellaris/driverlib/usb.c **** //! endpoint's data FIFOs.  The choice of the DMA mode depends on how the DMA
1707:/home/cuil/workspace/arm/lm3s811/TI_Stellaris/driverlib/usb.c **** //! controller is configured and how it is being used.  See the ``Using USB
1708:/home/cuil/workspace/arm/lm3s811/TI_Stellaris/driverlib/usb.c **** //! with the uDMA Controller'' section for more information on DMA
1709:/home/cuil/workspace/arm/lm3s811/TI_Stellaris/driverlib/usb.c **** //! configuration.
1710:/home/cuil/workspace/arm/lm3s811/TI_Stellaris/driverlib/usb.c **** //!
1711:/home/cuil/workspace/arm/lm3s811/TI_Stellaris/driverlib/usb.c **** //! When configuring the OUT portion of an endpoint, the \b USB_EP_AUTO_SET bit
1712:/home/cuil/workspace/arm/lm3s811/TI_Stellaris/driverlib/usb.c **** //! is specified to cause the transmission of data on the USB bus to start
1713:/home/cuil/workspace/arm/lm3s811/TI_Stellaris/driverlib/usb.c **** //! as soon as the number of bytes specified by \e ulMaxPayload has been
1714:/home/cuil/workspace/arm/lm3s811/TI_Stellaris/driverlib/usb.c **** //! written into the OUT FIFO for this endpoint.
1715:/home/cuil/workspace/arm/lm3s811/TI_Stellaris/driverlib/usb.c **** //!
1716:/home/cuil/workspace/arm/lm3s811/TI_Stellaris/driverlib/usb.c **** //! When configuring the IN portion of an endpoint, the \b USB_EP_AUTO_REQUEST
1717:/home/cuil/workspace/arm/lm3s811/TI_Stellaris/driverlib/usb.c **** //! bit can be specified to trigger the request for more data once the FIFO has
1718:/home/cuil/workspace/arm/lm3s811/TI_Stellaris/driverlib/usb.c **** //! been drained enough to fit \e ulMaxPayload bytes.  The \b USB_EP_AUTO_CLEAR
1719:/home/cuil/workspace/arm/lm3s811/TI_Stellaris/driverlib/usb.c **** //! bit can be used to clear the data packet ready flag automatically once the
1720:/home/cuil/workspace/arm/lm3s811/TI_Stellaris/driverlib/usb.c **** //! data has been read from the FIFO.  If this option is not used, this flag
1721:/home/cuil/workspace/arm/lm3s811/TI_Stellaris/driverlib/usb.c **** //! must be manually cleared via a call to USBDevEndpointStatusClear() or
1722:/home/cuil/workspace/arm/lm3s811/TI_Stellaris/driverlib/usb.c **** //! USBHostEndpointStatusClear().
1723:/home/cuil/workspace/arm/lm3s811/TI_Stellaris/driverlib/usb.c **** //!
1724:/home/cuil/workspace/arm/lm3s811/TI_Stellaris/driverlib/usb.c **** //! \note This function should only be called in host mode.
1725:/home/cuil/workspace/arm/lm3s811/TI_Stellaris/driverlib/usb.c **** //!
1726:/home/cuil/workspace/arm/lm3s811/TI_Stellaris/driverlib/usb.c **** //! \return None.
1727:/home/cuil/workspace/arm/lm3s811/TI_Stellaris/driverlib/usb.c **** //
1728:/home/cuil/workspace/arm/lm3s811/TI_Stellaris/driverlib/usb.c **** //*****************************************************************************
1729:/home/cuil/workspace/arm/lm3s811/TI_Stellaris/driverlib/usb.c **** void
1730:/home/cuil/workspace/arm/lm3s811/TI_Stellaris/driverlib/usb.c **** USBHostEndpointConfig(unsigned long ulBase, unsigned long ulEndpoint,
1731:/home/cuil/workspace/arm/lm3s811/TI_Stellaris/driverlib/usb.c ****                       unsigned long ulMaxPayload,
1732:/home/cuil/workspace/arm/lm3s811/TI_Stellaris/driverlib/usb.c ****                       unsigned long ulNAKPollInterval,
1733:/home/cuil/workspace/arm/lm3s811/TI_Stellaris/driverlib/usb.c ****                       unsigned long ulTargetEndpoint, unsigned long ulFlags)
1734:/home/cuil/workspace/arm/lm3s811/TI_Stellaris/driverlib/usb.c **** {
 11547              		.loc 1 1734 0
 11548              		.cfi_startproc
 11549              		@ args = 8, pretend = 0, frame = 24
 11550              		@ frame_needed = 1, uses_anonymous_args = 0
 11551              		@ link register save eliminated.
 11552 0000 80B4     		push	{r7}
 11553              	.LCFI84:
 11554              		.cfi_def_cfa_offset 4
 11555 0002 87B0     		sub	sp, sp, #28
 11556              	.LCFI85:
 11557              		.cfi_def_cfa_offset 32
 11558 0004 00AF     		add	r7, sp, #0
 11559              		.cfi_offset 7, -4
 11560              	.LCFI86:
 11561              		.cfi_def_cfa_register 7
 11562 0006 F860     		str	r0, [r7, #12]
 11563 0008 B960     		str	r1, [r7, #8]
 11564 000a 7A60     		str	r2, [r7, #4]
 11565 000c 3B60     		str	r3, [r7, #0]
1735:/home/cuil/workspace/arm/lm3s811/TI_Stellaris/driverlib/usb.c ****     unsigned long ulRegister;
1736:/home/cuil/workspace/arm/lm3s811/TI_Stellaris/driverlib/usb.c **** 
1737:/home/cuil/workspace/arm/lm3s811/TI_Stellaris/driverlib/usb.c ****     //
1738:/home/cuil/workspace/arm/lm3s811/TI_Stellaris/driverlib/usb.c ****     // Check the arguments.
1739:/home/cuil/workspace/arm/lm3s811/TI_Stellaris/driverlib/usb.c ****     //
1740:/home/cuil/workspace/arm/lm3s811/TI_Stellaris/driverlib/usb.c ****     ASSERT(ulBase == USB0_BASE);
1741:/home/cuil/workspace/arm/lm3s811/TI_Stellaris/driverlib/usb.c ****     ASSERT((ulEndpoint == USB_EP_0) || (ulEndpoint == USB_EP_1) ||
1742:/home/cuil/workspace/arm/lm3s811/TI_Stellaris/driverlib/usb.c ****            (ulEndpoint == USB_EP_2) || (ulEndpoint == USB_EP_3) ||
1743:/home/cuil/workspace/arm/lm3s811/TI_Stellaris/driverlib/usb.c ****            (ulEndpoint == USB_EP_4) || (ulEndpoint == USB_EP_5) ||
1744:/home/cuil/workspace/arm/lm3s811/TI_Stellaris/driverlib/usb.c ****            (ulEndpoint == USB_EP_6) || (ulEndpoint == USB_EP_7) ||
1745:/home/cuil/workspace/arm/lm3s811/TI_Stellaris/driverlib/usb.c ****            (ulEndpoint == USB_EP_8) || (ulEndpoint == USB_EP_9) ||
1746:/home/cuil/workspace/arm/lm3s811/TI_Stellaris/driverlib/usb.c ****            (ulEndpoint == USB_EP_10) || (ulEndpoint == USB_EP_11) ||
1747:/home/cuil/workspace/arm/lm3s811/TI_Stellaris/driverlib/usb.c ****            (ulEndpoint == USB_EP_12) || (ulEndpoint == USB_EP_13) ||
1748:/home/cuil/workspace/arm/lm3s811/TI_Stellaris/driverlib/usb.c ****            (ulEndpoint == USB_EP_14) || (ulEndpoint == USB_EP_15));
1749:/home/cuil/workspace/arm/lm3s811/TI_Stellaris/driverlib/usb.c ****     ASSERT(ulNAKPollInterval <= MAX_NAK_LIMIT);
1750:/home/cuil/workspace/arm/lm3s811/TI_Stellaris/driverlib/usb.c **** 
1751:/home/cuil/workspace/arm/lm3s811/TI_Stellaris/driverlib/usb.c ****     //
1752:/home/cuil/workspace/arm/lm3s811/TI_Stellaris/driverlib/usb.c ****     // Endpoint zero is configured differently than the other endpoints, so see
1753:/home/cuil/workspace/arm/lm3s811/TI_Stellaris/driverlib/usb.c ****     // if this is endpoint zero.
1754:/home/cuil/workspace/arm/lm3s811/TI_Stellaris/driverlib/usb.c ****     //
1755:/home/cuil/workspace/arm/lm3s811/TI_Stellaris/driverlib/usb.c ****     if(ulEndpoint == USB_EP_0)
 11566              		.loc 1 1755 0
 11567 000e BB68     		ldr	r3, [r7, #8]
 11568 0010 002B     		cmp	r3, #0
 11569 0012 17D1     		bne	.L93
1756:/home/cuil/workspace/arm/lm3s811/TI_Stellaris/driverlib/usb.c ****     {
1757:/home/cuil/workspace/arm/lm3s811/TI_Stellaris/driverlib/usb.c ****         //
1758:/home/cuil/workspace/arm/lm3s811/TI_Stellaris/driverlib/usb.c ****         // Set the NAK timeout.
1759:/home/cuil/workspace/arm/lm3s811/TI_Stellaris/driverlib/usb.c ****         //
1760:/home/cuil/workspace/arm/lm3s811/TI_Stellaris/driverlib/usb.c ****         HWREGB(ulBase + USB_O_NAKLMT) = ulNAKPollInterval;
 11570              		.loc 1 1760 0
 11571 0014 FB68     		ldr	r3, [r7, #12]
 11572 0016 03F58473 		add	r3, r3, #264
 11573 001a 03F10303 		add	r3, r3, #3
 11574 001e 3A68     		ldr	r2, [r7, #0]
 11575 0020 D2B2     		uxtb	r2, r2
 11576 0022 1A70     		strb	r2, [r3, #0]
1761:/home/cuil/workspace/arm/lm3s811/TI_Stellaris/driverlib/usb.c **** 
1762:/home/cuil/workspace/arm/lm3s811/TI_Stellaris/driverlib/usb.c ****         //
1763:/home/cuil/workspace/arm/lm3s811/TI_Stellaris/driverlib/usb.c ****         // Set the transfer type information.
1764:/home/cuil/workspace/arm/lm3s811/TI_Stellaris/driverlib/usb.c ****         //
1765:/home/cuil/workspace/arm/lm3s811/TI_Stellaris/driverlib/usb.c ****         HWREGB(ulBase + USB_O_TYPE0) =
 11577              		.loc 1 1765 0
 11578 0024 FB68     		ldr	r3, [r7, #12]
 11579 0026 03F58573 		add	r3, r3, #266
 11580 002a 1A46     		mov	r2, r3
1766:/home/cuil/workspace/arm/lm3s811/TI_Stellaris/driverlib/usb.c ****             ((ulFlags & USB_EP_SPEED_FULL) ? USB_TYPE0_SPEED_FULL :
 11581              		.loc 1 1766 0
 11582 002c 7B6A     		ldr	r3, [r7, #36]
 11583 002e 03F48053 		and	r3, r3, #4096
1765:/home/cuil/workspace/arm/lm3s811/TI_Stellaris/driverlib/usb.c ****         HWREGB(ulBase + USB_O_TYPE0) =
 11584              		.loc 1 1765 0
 11585 0032 002B     		cmp	r3, #0
 11586 0034 02D0     		beq	.L94
1765:/home/cuil/workspace/arm/lm3s811/TI_Stellaris/driverlib/usb.c ****         HWREGB(ulBase + USB_O_TYPE0) =
 11587              		.loc 1 1765 0 is_stmt 0 discriminator 1
 11588 0036 4FF08003 		mov	r3, #128
 11589 003a 01E0     		b	.L95
 11590              	.L94:
1765:/home/cuil/workspace/arm/lm3s811/TI_Stellaris/driverlib/usb.c ****         HWREGB(ulBase + USB_O_TYPE0) =
 11591              		.loc 1 1765 0 discriminator 2
 11592 003c 4FF0C003 		mov	r3, #192
 11593              	.L95:
1765:/home/cuil/workspace/arm/lm3s811/TI_Stellaris/driverlib/usb.c ****         HWREGB(ulBase + USB_O_TYPE0) =
 11594              		.loc 1 1765 0 discriminator 3
 11595 0040 1370     		strb	r3, [r2, #0]
 11596 0042 B5E0     		b	.L92
 11597              	.L93:
1767:/home/cuil/workspace/arm/lm3s811/TI_Stellaris/driverlib/usb.c ****              USB_TYPE0_SPEED_LOW);
1768:/home/cuil/workspace/arm/lm3s811/TI_Stellaris/driverlib/usb.c ****     }
1769:/home/cuil/workspace/arm/lm3s811/TI_Stellaris/driverlib/usb.c ****     else
1770:/home/cuil/workspace/arm/lm3s811/TI_Stellaris/driverlib/usb.c ****     {
1771:/home/cuil/workspace/arm/lm3s811/TI_Stellaris/driverlib/usb.c ****         //
1772:/home/cuil/workspace/arm/lm3s811/TI_Stellaris/driverlib/usb.c ****         // Start with the target endpoint.
1773:/home/cuil/workspace/arm/lm3s811/TI_Stellaris/driverlib/usb.c ****         //
1774:/home/cuil/workspace/arm/lm3s811/TI_Stellaris/driverlib/usb.c ****         ulRegister = ulTargetEndpoint;
 11598              		.loc 1 1774 0 is_stmt 1
 11599 0044 3B6A     		ldr	r3, [r7, #32]
 11600 0046 7B61     		str	r3, [r7, #20]
1775:/home/cuil/workspace/arm/lm3s811/TI_Stellaris/driverlib/usb.c **** 
1776:/home/cuil/workspace/arm/lm3s811/TI_Stellaris/driverlib/usb.c ****         //
1777:/home/cuil/workspace/arm/lm3s811/TI_Stellaris/driverlib/usb.c ****         // Set the speed for the device using this endpoint.
1778:/home/cuil/workspace/arm/lm3s811/TI_Stellaris/driverlib/usb.c ****         //
1779:/home/cuil/workspace/arm/lm3s811/TI_Stellaris/driverlib/usb.c ****         if(ulFlags & USB_EP_SPEED_FULL)
 11601              		.loc 1 1779 0
 11602 0048 7B6A     		ldr	r3, [r7, #36]
 11603 004a 03F48053 		and	r3, r3, #4096
 11604 004e 002B     		cmp	r3, #0
 11605 0050 04D0     		beq	.L97
1780:/home/cuil/workspace/arm/lm3s811/TI_Stellaris/driverlib/usb.c ****         {
1781:/home/cuil/workspace/arm/lm3s811/TI_Stellaris/driverlib/usb.c ****             ulRegister |= USB_TXTYPE1_SPEED_FULL;
 11606              		.loc 1 1781 0
 11607 0052 7B69     		ldr	r3, [r7, #20]
 11608 0054 43F08003 		orr	r3, r3, #128
 11609 0058 7B61     		str	r3, [r7, #20]
 11610 005a 03E0     		b	.L98
 11611              	.L97:
1782:/home/cuil/workspace/arm/lm3s811/TI_Stellaris/driverlib/usb.c ****         }
1783:/home/cuil/workspace/arm/lm3s811/TI_Stellaris/driverlib/usb.c ****         else
1784:/home/cuil/workspace/arm/lm3s811/TI_Stellaris/driverlib/usb.c ****         {
1785:/home/cuil/workspace/arm/lm3s811/TI_Stellaris/driverlib/usb.c ****             ulRegister |= USB_TXTYPE1_SPEED_LOW;
 11612              		.loc 1 1785 0
 11613 005c 7B69     		ldr	r3, [r7, #20]
 11614 005e 43F0C003 		orr	r3, r3, #192
 11615 0062 7B61     		str	r3, [r7, #20]
 11616              	.L98:
1786:/home/cuil/workspace/arm/lm3s811/TI_Stellaris/driverlib/usb.c ****         }
1787:/home/cuil/workspace/arm/lm3s811/TI_Stellaris/driverlib/usb.c **** 
1788:/home/cuil/workspace/arm/lm3s811/TI_Stellaris/driverlib/usb.c ****         //
1789:/home/cuil/workspace/arm/lm3s811/TI_Stellaris/driverlib/usb.c ****         // Set the protocol for the device using this endpoint.
1790:/home/cuil/workspace/arm/lm3s811/TI_Stellaris/driverlib/usb.c ****         //
1791:/home/cuil/workspace/arm/lm3s811/TI_Stellaris/driverlib/usb.c ****         switch(ulFlags & USB_EP_MODE_MASK)
 11617              		.loc 1 1791 0
 11618 0064 7B6A     		ldr	r3, [r7, #36]
 11619 0066 03F44073 		and	r3, r3, #768
 11620 006a B3F5807F 		cmp	r3, #256
 11621 006e 0BD0     		beq	.L101
 11622 0070 B3F5807F 		cmp	r3, #256
 11623 0074 02D8     		bhi	.L104
 11624 0076 002B     		cmp	r3, #0
 11625 0078 0BD0     		beq	.L100
 11626 007a 14E0     		b	.L99
 11627              	.L104:
 11628 007c B3F5007F 		cmp	r3, #512
 11629 0080 0CD0     		beq	.L102
 11630 0082 B3F5407F 		cmp	r3, #768
1792:/home/cuil/workspace/arm/lm3s811/TI_Stellaris/driverlib/usb.c ****         {
1793:/home/cuil/workspace/arm/lm3s811/TI_Stellaris/driverlib/usb.c ****             //
1794:/home/cuil/workspace/arm/lm3s811/TI_Stellaris/driverlib/usb.c ****             // The bulk protocol is being used.
1795:/home/cuil/workspace/arm/lm3s811/TI_Stellaris/driverlib/usb.c ****             //
1796:/home/cuil/workspace/arm/lm3s811/TI_Stellaris/driverlib/usb.c ****             case USB_EP_MODE_BULK:
1797:/home/cuil/workspace/arm/lm3s811/TI_Stellaris/driverlib/usb.c ****             {
1798:/home/cuil/workspace/arm/lm3s811/TI_Stellaris/driverlib/usb.c ****                 ulRegister |= USB_TXTYPE1_PROTO_BULK;
1799:/home/cuil/workspace/arm/lm3s811/TI_Stellaris/driverlib/usb.c ****                 break;
1800:/home/cuil/workspace/arm/lm3s811/TI_Stellaris/driverlib/usb.c ****             }
1801:/home/cuil/workspace/arm/lm3s811/TI_Stellaris/driverlib/usb.c **** 
1802:/home/cuil/workspace/arm/lm3s811/TI_Stellaris/driverlib/usb.c ****             //
1803:/home/cuil/workspace/arm/lm3s811/TI_Stellaris/driverlib/usb.c ****             // The isochronous protocol is being used.
1804:/home/cuil/workspace/arm/lm3s811/TI_Stellaris/driverlib/usb.c ****             //
1805:/home/cuil/workspace/arm/lm3s811/TI_Stellaris/driverlib/usb.c ****             case USB_EP_MODE_ISOC:
1806:/home/cuil/workspace/arm/lm3s811/TI_Stellaris/driverlib/usb.c ****             {
1807:/home/cuil/workspace/arm/lm3s811/TI_Stellaris/driverlib/usb.c ****                 ulRegister |= USB_TXTYPE1_PROTO_ISOC;
1808:/home/cuil/workspace/arm/lm3s811/TI_Stellaris/driverlib/usb.c ****                 break;
1809:/home/cuil/workspace/arm/lm3s811/TI_Stellaris/driverlib/usb.c ****             }
1810:/home/cuil/workspace/arm/lm3s811/TI_Stellaris/driverlib/usb.c **** 
1811:/home/cuil/workspace/arm/lm3s811/TI_Stellaris/driverlib/usb.c ****             //
1812:/home/cuil/workspace/arm/lm3s811/TI_Stellaris/driverlib/usb.c ****             // The interrupt protocol is being used.
1813:/home/cuil/workspace/arm/lm3s811/TI_Stellaris/driverlib/usb.c ****             //
1814:/home/cuil/workspace/arm/lm3s811/TI_Stellaris/driverlib/usb.c ****             case USB_EP_MODE_INT:
1815:/home/cuil/workspace/arm/lm3s811/TI_Stellaris/driverlib/usb.c ****             {
1816:/home/cuil/workspace/arm/lm3s811/TI_Stellaris/driverlib/usb.c ****                 ulRegister |= USB_TXTYPE1_PROTO_INT;
1817:/home/cuil/workspace/arm/lm3s811/TI_Stellaris/driverlib/usb.c ****                 break;
1818:/home/cuil/workspace/arm/lm3s811/TI_Stellaris/driverlib/usb.c ****             }
1819:/home/cuil/workspace/arm/lm3s811/TI_Stellaris/driverlib/usb.c **** 
1820:/home/cuil/workspace/arm/lm3s811/TI_Stellaris/driverlib/usb.c ****             //
1821:/home/cuil/workspace/arm/lm3s811/TI_Stellaris/driverlib/usb.c ****             // The control protocol is being used.
1822:/home/cuil/workspace/arm/lm3s811/TI_Stellaris/driverlib/usb.c ****             //
1823:/home/cuil/workspace/arm/lm3s811/TI_Stellaris/driverlib/usb.c ****             case USB_EP_MODE_CTRL:
1824:/home/cuil/workspace/arm/lm3s811/TI_Stellaris/driverlib/usb.c ****             {
1825:/home/cuil/workspace/arm/lm3s811/TI_Stellaris/driverlib/usb.c ****                 ulRegister |= USB_TXTYPE1_PROTO_CTRL;
1826:/home/cuil/workspace/arm/lm3s811/TI_Stellaris/driverlib/usb.c ****                 break;
 11631              		.loc 1 1826 0
 11632 0086 0EE0     		b	.L99
 11633              	.L101:
1798:/home/cuil/workspace/arm/lm3s811/TI_Stellaris/driverlib/usb.c ****                 ulRegister |= USB_TXTYPE1_PROTO_BULK;
 11634              		.loc 1 1798 0
 11635 0088 7B69     		ldr	r3, [r7, #20]
 11636 008a 43F02003 		orr	r3, r3, #32
 11637 008e 7B61     		str	r3, [r7, #20]
1799:/home/cuil/workspace/arm/lm3s811/TI_Stellaris/driverlib/usb.c ****                 break;
 11638              		.loc 1 1799 0
 11639 0090 09E0     		b	.L99
 11640              	.L100:
1807:/home/cuil/workspace/arm/lm3s811/TI_Stellaris/driverlib/usb.c ****                 ulRegister |= USB_TXTYPE1_PROTO_ISOC;
 11641              		.loc 1 1807 0
 11642 0092 7B69     		ldr	r3, [r7, #20]
 11643 0094 43F01003 		orr	r3, r3, #16
 11644 0098 7B61     		str	r3, [r7, #20]
1808:/home/cuil/workspace/arm/lm3s811/TI_Stellaris/driverlib/usb.c ****                 break;
 11645              		.loc 1 1808 0
 11646 009a 04E0     		b	.L99
 11647              	.L102:
1816:/home/cuil/workspace/arm/lm3s811/TI_Stellaris/driverlib/usb.c ****                 ulRegister |= USB_TXTYPE1_PROTO_INT;
 11648              		.loc 1 1816 0
 11649 009c 7B69     		ldr	r3, [r7, #20]
 11650 009e 43F03003 		orr	r3, r3, #48
 11651 00a2 7B61     		str	r3, [r7, #20]
1817:/home/cuil/workspace/arm/lm3s811/TI_Stellaris/driverlib/usb.c ****                 break;
 11652              		.loc 1 1817 0
 11653 00a4 00BF     		nop
 11654              	.L99:
1827:/home/cuil/workspace/arm/lm3s811/TI_Stellaris/driverlib/usb.c ****             }
1828:/home/cuil/workspace/arm/lm3s811/TI_Stellaris/driverlib/usb.c ****         }
1829:/home/cuil/workspace/arm/lm3s811/TI_Stellaris/driverlib/usb.c **** 
1830:/home/cuil/workspace/arm/lm3s811/TI_Stellaris/driverlib/usb.c ****         //
1831:/home/cuil/workspace/arm/lm3s811/TI_Stellaris/driverlib/usb.c ****         // See if the transmit or receive endpoint is being configured.
1832:/home/cuil/workspace/arm/lm3s811/TI_Stellaris/driverlib/usb.c ****         //
1833:/home/cuil/workspace/arm/lm3s811/TI_Stellaris/driverlib/usb.c ****         if(ulFlags & USB_EP_HOST_OUT)
 11655              		.loc 1 1833 0
 11656 00a6 7B6A     		ldr	r3, [r7, #36]
 11657 00a8 03F40053 		and	r3, r3, #8192
 11658 00ac 002B     		cmp	r3, #0
 11659 00ae 44D0     		beq	.L105
1834:/home/cuil/workspace/arm/lm3s811/TI_Stellaris/driverlib/usb.c ****         {
1835:/home/cuil/workspace/arm/lm3s811/TI_Stellaris/driverlib/usb.c ****             //
1836:/home/cuil/workspace/arm/lm3s811/TI_Stellaris/driverlib/usb.c ****             // Set the transfer type information.
1837:/home/cuil/workspace/arm/lm3s811/TI_Stellaris/driverlib/usb.c ****             //
1838:/home/cuil/workspace/arm/lm3s811/TI_Stellaris/driverlib/usb.c ****             HWREGB(ulBase + EP_OFFSET(ulEndpoint) + USB_O_TXTYPE1) =
 11660              		.loc 1 1838 0
 11661 00b0 BA68     		ldr	r2, [r7, #8]
 11662 00b2 FB68     		ldr	r3, [r7, #12]
 11663 00b4 D318     		adds	r3, r2, r3
 11664 00b6 03F58573 		add	r3, r3, #266
 11665 00ba 7A69     		ldr	r2, [r7, #20]
 11666 00bc D2B2     		uxtb	r2, r2
 11667 00be 1A70     		strb	r2, [r3, #0]
1839:/home/cuil/workspace/arm/lm3s811/TI_Stellaris/driverlib/usb.c ****                 ulRegister;
1840:/home/cuil/workspace/arm/lm3s811/TI_Stellaris/driverlib/usb.c **** 
1841:/home/cuil/workspace/arm/lm3s811/TI_Stellaris/driverlib/usb.c ****             //
1842:/home/cuil/workspace/arm/lm3s811/TI_Stellaris/driverlib/usb.c ****             // Set the NAK timeout or polling interval.
1843:/home/cuil/workspace/arm/lm3s811/TI_Stellaris/driverlib/usb.c ****             //
1844:/home/cuil/workspace/arm/lm3s811/TI_Stellaris/driverlib/usb.c ****             HWREGB(ulBase + EP_OFFSET(ulEndpoint) + USB_O_TXINTERVAL1) =
 11668              		.loc 1 1844 0
 11669 00c0 BA68     		ldr	r2, [r7, #8]
 11670 00c2 FB68     		ldr	r3, [r7, #12]
 11671 00c4 D318     		adds	r3, r2, r3
 11672 00c6 03F58473 		add	r3, r3, #264
 11673 00ca 03F10303 		add	r3, r3, #3
 11674 00ce 3A68     		ldr	r2, [r7, #0]
 11675 00d0 D2B2     		uxtb	r2, r2
 11676 00d2 1A70     		strb	r2, [r3, #0]
1845:/home/cuil/workspace/arm/lm3s811/TI_Stellaris/driverlib/usb.c ****                 ulNAKPollInterval;
1846:/home/cuil/workspace/arm/lm3s811/TI_Stellaris/driverlib/usb.c **** 
1847:/home/cuil/workspace/arm/lm3s811/TI_Stellaris/driverlib/usb.c ****             //
1848:/home/cuil/workspace/arm/lm3s811/TI_Stellaris/driverlib/usb.c ****             // Set the Maximum Payload per transaction.
1849:/home/cuil/workspace/arm/lm3s811/TI_Stellaris/driverlib/usb.c ****             //
1850:/home/cuil/workspace/arm/lm3s811/TI_Stellaris/driverlib/usb.c ****             HWREGB(ulBase + EP_OFFSET(ulEndpoint) + USB_O_TXMAXP1) =
 11677              		.loc 1 1850 0
 11678 00d4 BA68     		ldr	r2, [r7, #8]
 11679 00d6 FB68     		ldr	r3, [r7, #12]
 11680 00d8 D318     		adds	r3, r2, r3
 11681 00da 03F58073 		add	r3, r3, #256
 11682 00de 7A68     		ldr	r2, [r7, #4]
 11683 00e0 D2B2     		uxtb	r2, r2
 11684 00e2 1A70     		strb	r2, [r3, #0]
1851:/home/cuil/workspace/arm/lm3s811/TI_Stellaris/driverlib/usb.c ****                 ulMaxPayload;
1852:/home/cuil/workspace/arm/lm3s811/TI_Stellaris/driverlib/usb.c **** 
1853:/home/cuil/workspace/arm/lm3s811/TI_Stellaris/driverlib/usb.c ****             //
1854:/home/cuil/workspace/arm/lm3s811/TI_Stellaris/driverlib/usb.c ****             // Set the transmit control value to zero.
1855:/home/cuil/workspace/arm/lm3s811/TI_Stellaris/driverlib/usb.c ****             //
1856:/home/cuil/workspace/arm/lm3s811/TI_Stellaris/driverlib/usb.c ****             ulRegister = 0;
 11685              		.loc 1 1856 0
 11686 00e4 4FF00003 		mov	r3, #0
 11687 00e8 7B61     		str	r3, [r7, #20]
1857:/home/cuil/workspace/arm/lm3s811/TI_Stellaris/driverlib/usb.c **** 
1858:/home/cuil/workspace/arm/lm3s811/TI_Stellaris/driverlib/usb.c ****             //
1859:/home/cuil/workspace/arm/lm3s811/TI_Stellaris/driverlib/usb.c ****             // Allow auto setting of TxPktRdy when max packet size has been
1860:/home/cuil/workspace/arm/lm3s811/TI_Stellaris/driverlib/usb.c ****             // loaded into the FIFO.
1861:/home/cuil/workspace/arm/lm3s811/TI_Stellaris/driverlib/usb.c ****             //
1862:/home/cuil/workspace/arm/lm3s811/TI_Stellaris/driverlib/usb.c ****             if(ulFlags & USB_EP_AUTO_SET)
 11688              		.loc 1 1862 0
 11689 00ea 7B6A     		ldr	r3, [r7, #36]
 11690 00ec 03F00103 		and	r3, r3, #1
 11691 00f0 DBB2     		uxtb	r3, r3
 11692 00f2 002B     		cmp	r3, #0
 11693 00f4 03D0     		beq	.L106
1863:/home/cuil/workspace/arm/lm3s811/TI_Stellaris/driverlib/usb.c ****             {
1864:/home/cuil/workspace/arm/lm3s811/TI_Stellaris/driverlib/usb.c ****                 ulRegister |= USB_TXCSRH1_AUTOSET;
 11694              		.loc 1 1864 0
 11695 00f6 7B69     		ldr	r3, [r7, #20]
 11696 00f8 43F08003 		orr	r3, r3, #128
 11697 00fc 7B61     		str	r3, [r7, #20]
 11698              	.L106:
1865:/home/cuil/workspace/arm/lm3s811/TI_Stellaris/driverlib/usb.c ****             }
1866:/home/cuil/workspace/arm/lm3s811/TI_Stellaris/driverlib/usb.c **** 
1867:/home/cuil/workspace/arm/lm3s811/TI_Stellaris/driverlib/usb.c ****             //
1868:/home/cuil/workspace/arm/lm3s811/TI_Stellaris/driverlib/usb.c ****             // Configure the DMA Mode.
1869:/home/cuil/workspace/arm/lm3s811/TI_Stellaris/driverlib/usb.c ****             //
1870:/home/cuil/workspace/arm/lm3s811/TI_Stellaris/driverlib/usb.c ****             if(ulFlags & USB_EP_DMA_MODE_1)
 11699              		.loc 1 1870 0
 11700 00fe 7B6A     		ldr	r3, [r7, #36]
 11701 0100 03F01003 		and	r3, r3, #16
 11702 0104 002B     		cmp	r3, #0
 11703 0106 04D0     		beq	.L107
1871:/home/cuil/workspace/arm/lm3s811/TI_Stellaris/driverlib/usb.c ****             {
1872:/home/cuil/workspace/arm/lm3s811/TI_Stellaris/driverlib/usb.c ****                 ulRegister |= USB_TXCSRH1_DMAEN | USB_TXCSRH1_DMAMOD;
 11704              		.loc 1 1872 0
 11705 0108 7B69     		ldr	r3, [r7, #20]
 11706 010a 43F01403 		orr	r3, r3, #20
 11707 010e 7B61     		str	r3, [r7, #20]
 11708 0110 08E0     		b	.L108
 11709              	.L107:
1873:/home/cuil/workspace/arm/lm3s811/TI_Stellaris/driverlib/usb.c ****             }
1874:/home/cuil/workspace/arm/lm3s811/TI_Stellaris/driverlib/usb.c ****             else if(ulFlags & USB_EP_DMA_MODE_0)
 11710              		.loc 1 1874 0
 11711 0112 7B6A     		ldr	r3, [r7, #36]
 11712 0114 03F00803 		and	r3, r3, #8
 11713 0118 002B     		cmp	r3, #0
 11714 011a 03D0     		beq	.L108
1875:/home/cuil/workspace/arm/lm3s811/TI_Stellaris/driverlib/usb.c ****             {
1876:/home/cuil/workspace/arm/lm3s811/TI_Stellaris/driverlib/usb.c ****                 ulRegister |= USB_TXCSRH1_DMAEN;
 11715              		.loc 1 1876 0
 11716 011c 7B69     		ldr	r3, [r7, #20]
 11717 011e 43F01003 		orr	r3, r3, #16
 11718 0122 7B61     		str	r3, [r7, #20]
 11719              	.L108:
1877:/home/cuil/workspace/arm/lm3s811/TI_Stellaris/driverlib/usb.c ****             }
1878:/home/cuil/workspace/arm/lm3s811/TI_Stellaris/driverlib/usb.c **** 
1879:/home/cuil/workspace/arm/lm3s811/TI_Stellaris/driverlib/usb.c ****             //
1880:/home/cuil/workspace/arm/lm3s811/TI_Stellaris/driverlib/usb.c ****             // Write out the transmit control value.
1881:/home/cuil/workspace/arm/lm3s811/TI_Stellaris/driverlib/usb.c ****             //
1882:/home/cuil/workspace/arm/lm3s811/TI_Stellaris/driverlib/usb.c ****             HWREGB(ulBase + EP_OFFSET(ulEndpoint) + USB_O_TXCSRH1) =
 11720              		.loc 1 1882 0
 11721 0124 BA68     		ldr	r2, [r7, #8]
 11722 0126 FB68     		ldr	r3, [r7, #12]
 11723 0128 D318     		adds	r3, r2, r3
 11724 012a 03F58073 		add	r3, r3, #256
 11725 012e 03F10303 		add	r3, r3, #3
1883:/home/cuil/workspace/arm/lm3s811/TI_Stellaris/driverlib/usb.c ****                 (unsigned char)ulRegister;
 11726              		.loc 1 1883 0
 11727 0132 7A69     		ldr	r2, [r7, #20]
 11728 0134 D2B2     		uxtb	r2, r2
1882:/home/cuil/workspace/arm/lm3s811/TI_Stellaris/driverlib/usb.c ****             HWREGB(ulBase + EP_OFFSET(ulEndpoint) + USB_O_TXCSRH1) =
 11729              		.loc 1 1882 0
 11730 0136 1A70     		strb	r2, [r3, #0]
 11731 0138 3AE0     		b	.L92
 11732              	.L105:
1884:/home/cuil/workspace/arm/lm3s811/TI_Stellaris/driverlib/usb.c ****         }
1885:/home/cuil/workspace/arm/lm3s811/TI_Stellaris/driverlib/usb.c ****         else
1886:/home/cuil/workspace/arm/lm3s811/TI_Stellaris/driverlib/usb.c ****         {
1887:/home/cuil/workspace/arm/lm3s811/TI_Stellaris/driverlib/usb.c ****             //
1888:/home/cuil/workspace/arm/lm3s811/TI_Stellaris/driverlib/usb.c ****             // Set the transfer type information.
1889:/home/cuil/workspace/arm/lm3s811/TI_Stellaris/driverlib/usb.c ****             //
1890:/home/cuil/workspace/arm/lm3s811/TI_Stellaris/driverlib/usb.c ****             HWREGB(ulBase + EP_OFFSET(ulEndpoint) + USB_O_RXTYPE1) =
 11733              		.loc 1 1890 0
 11734 013a BA68     		ldr	r2, [r7, #8]
 11735 013c FB68     		ldr	r3, [r7, #12]
 11736 013e D318     		adds	r3, r2, r3
 11737 0140 03F58673 		add	r3, r3, #268
 11738 0144 7A69     		ldr	r2, [r7, #20]
 11739 0146 D2B2     		uxtb	r2, r2
 11740 0148 1A70     		strb	r2, [r3, #0]
1891:/home/cuil/workspace/arm/lm3s811/TI_Stellaris/driverlib/usb.c ****                 ulRegister;
1892:/home/cuil/workspace/arm/lm3s811/TI_Stellaris/driverlib/usb.c **** 
1893:/home/cuil/workspace/arm/lm3s811/TI_Stellaris/driverlib/usb.c ****             //
1894:/home/cuil/workspace/arm/lm3s811/TI_Stellaris/driverlib/usb.c ****             // Set the NAK timeout or polling interval.
1895:/home/cuil/workspace/arm/lm3s811/TI_Stellaris/driverlib/usb.c ****             //
1896:/home/cuil/workspace/arm/lm3s811/TI_Stellaris/driverlib/usb.c ****             HWREGB(ulBase + EP_OFFSET(ulEndpoint) + USB_O_RXINTERVAL1) =
 11741              		.loc 1 1896 0
 11742 014a BA68     		ldr	r2, [r7, #8]
 11743 014c FB68     		ldr	r3, [r7, #12]
 11744 014e D318     		adds	r3, r2, r3
 11745 0150 03F58673 		add	r3, r3, #268
 11746 0154 03F10103 		add	r3, r3, #1
 11747 0158 3A68     		ldr	r2, [r7, #0]
 11748 015a D2B2     		uxtb	r2, r2
 11749 015c 1A70     		strb	r2, [r3, #0]
1897:/home/cuil/workspace/arm/lm3s811/TI_Stellaris/driverlib/usb.c ****                 ulNAKPollInterval;
1898:/home/cuil/workspace/arm/lm3s811/TI_Stellaris/driverlib/usb.c **** 
1899:/home/cuil/workspace/arm/lm3s811/TI_Stellaris/driverlib/usb.c ****             //
1900:/home/cuil/workspace/arm/lm3s811/TI_Stellaris/driverlib/usb.c ****             // Set the receive control value to zero.
1901:/home/cuil/workspace/arm/lm3s811/TI_Stellaris/driverlib/usb.c ****             //
1902:/home/cuil/workspace/arm/lm3s811/TI_Stellaris/driverlib/usb.c ****             ulRegister = 0;
 11750              		.loc 1 1902 0
 11751 015e 4FF00003 		mov	r3, #0
 11752 0162 7B61     		str	r3, [r7, #20]
1903:/home/cuil/workspace/arm/lm3s811/TI_Stellaris/driverlib/usb.c **** 
1904:/home/cuil/workspace/arm/lm3s811/TI_Stellaris/driverlib/usb.c ****             //
1905:/home/cuil/workspace/arm/lm3s811/TI_Stellaris/driverlib/usb.c ****             // Allow auto clearing of RxPktRdy when packet of size max packet
1906:/home/cuil/workspace/arm/lm3s811/TI_Stellaris/driverlib/usb.c ****             // has been unloaded from the FIFO.
1907:/home/cuil/workspace/arm/lm3s811/TI_Stellaris/driverlib/usb.c ****             //
1908:/home/cuil/workspace/arm/lm3s811/TI_Stellaris/driverlib/usb.c ****             if(ulFlags & USB_EP_AUTO_CLEAR)
 11753              		.loc 1 1908 0
 11754 0164 7B6A     		ldr	r3, [r7, #36]
 11755 0166 03F00403 		and	r3, r3, #4
 11756 016a 002B     		cmp	r3, #0
 11757 016c 03D0     		beq	.L109
1909:/home/cuil/workspace/arm/lm3s811/TI_Stellaris/driverlib/usb.c ****             {
1910:/home/cuil/workspace/arm/lm3s811/TI_Stellaris/driverlib/usb.c ****                 ulRegister |= USB_RXCSRH1_AUTOCL;
 11758              		.loc 1 1910 0
 11759 016e 7B69     		ldr	r3, [r7, #20]
 11760 0170 43F08003 		orr	r3, r3, #128
 11761 0174 7B61     		str	r3, [r7, #20]
 11762              	.L109:
1911:/home/cuil/workspace/arm/lm3s811/TI_Stellaris/driverlib/usb.c ****             }
1912:/home/cuil/workspace/arm/lm3s811/TI_Stellaris/driverlib/usb.c **** 
1913:/home/cuil/workspace/arm/lm3s811/TI_Stellaris/driverlib/usb.c ****             //
1914:/home/cuil/workspace/arm/lm3s811/TI_Stellaris/driverlib/usb.c ****             // Configure the DMA Mode.
1915:/home/cuil/workspace/arm/lm3s811/TI_Stellaris/driverlib/usb.c ****             //
1916:/home/cuil/workspace/arm/lm3s811/TI_Stellaris/driverlib/usb.c ****             if(ulFlags & USB_EP_DMA_MODE_1)
 11763              		.loc 1 1916 0
 11764 0176 7B6A     		ldr	r3, [r7, #36]
 11765 0178 03F01003 		and	r3, r3, #16
 11766 017c 002B     		cmp	r3, #0
 11767 017e 04D0     		beq	.L110
1917:/home/cuil/workspace/arm/lm3s811/TI_Stellaris/driverlib/usb.c ****             {
1918:/home/cuil/workspace/arm/lm3s811/TI_Stellaris/driverlib/usb.c ****                 ulRegister |= USB_RXCSRH1_DMAEN | USB_RXCSRH1_DMAMOD;
 11768              		.loc 1 1918 0
 11769 0180 7B69     		ldr	r3, [r7, #20]
 11770 0182 43F02803 		orr	r3, r3, #40
 11771 0186 7B61     		str	r3, [r7, #20]
 11772 0188 08E0     		b	.L111
 11773              	.L110:
1919:/home/cuil/workspace/arm/lm3s811/TI_Stellaris/driverlib/usb.c ****             }
1920:/home/cuil/workspace/arm/lm3s811/TI_Stellaris/driverlib/usb.c ****             else if(ulFlags & USB_EP_DMA_MODE_0)
 11774              		.loc 1 1920 0
 11775 018a 7B6A     		ldr	r3, [r7, #36]
 11776 018c 03F00803 		and	r3, r3, #8
 11777 0190 002B     		cmp	r3, #0
 11778 0192 03D0     		beq	.L111
1921:/home/cuil/workspace/arm/lm3s811/TI_Stellaris/driverlib/usb.c ****             {
1922:/home/cuil/workspace/arm/lm3s811/TI_Stellaris/driverlib/usb.c ****                 ulRegister |= USB_RXCSRH1_DMAEN;
 11779              		.loc 1 1922 0
 11780 0194 7B69     		ldr	r3, [r7, #20]
 11781 0196 43F02003 		orr	r3, r3, #32
 11782 019a 7B61     		str	r3, [r7, #20]
 11783              	.L111:
1923:/home/cuil/workspace/arm/lm3s811/TI_Stellaris/driverlib/usb.c ****             }
1924:/home/cuil/workspace/arm/lm3s811/TI_Stellaris/driverlib/usb.c **** 
1925:/home/cuil/workspace/arm/lm3s811/TI_Stellaris/driverlib/usb.c ****             //
1926:/home/cuil/workspace/arm/lm3s811/TI_Stellaris/driverlib/usb.c ****             // Write out the receive control value.
1927:/home/cuil/workspace/arm/lm3s811/TI_Stellaris/driverlib/usb.c ****             //
1928:/home/cuil/workspace/arm/lm3s811/TI_Stellaris/driverlib/usb.c ****             HWREGB(ulBase + EP_OFFSET(ulEndpoint) + USB_O_RXCSRH1) =
 11784              		.loc 1 1928 0
 11785 019c BA68     		ldr	r2, [r7, #8]
 11786 019e FB68     		ldr	r3, [r7, #12]
 11787 01a0 D318     		adds	r3, r2, r3
 11788 01a2 03F58273 		add	r3, r3, #260
 11789 01a6 03F10303 		add	r3, r3, #3
1929:/home/cuil/workspace/arm/lm3s811/TI_Stellaris/driverlib/usb.c ****                 (unsigned char)ulRegister;
 11790              		.loc 1 1929 0
 11791 01aa 7A69     		ldr	r2, [r7, #20]
 11792 01ac D2B2     		uxtb	r2, r2
1928:/home/cuil/workspace/arm/lm3s811/TI_Stellaris/driverlib/usb.c ****             HWREGB(ulBase + EP_OFFSET(ulEndpoint) + USB_O_RXCSRH1) =
 11793              		.loc 1 1928 0
 11794 01ae 1A70     		strb	r2, [r3, #0]
 11795              	.L92:
1930:/home/cuil/workspace/arm/lm3s811/TI_Stellaris/driverlib/usb.c ****         }
1931:/home/cuil/workspace/arm/lm3s811/TI_Stellaris/driverlib/usb.c ****     }
1932:/home/cuil/workspace/arm/lm3s811/TI_Stellaris/driverlib/usb.c **** }
 11796              		.loc 1 1932 0
 11797 01b0 07F11C07 		add	r7, r7, #28
 11798 01b4 BD46     		mov	sp, r7
 11799 01b6 80BC     		pop	{r7}
 11800 01b8 7047     		bx	lr
 11801              		.cfi_endproc
 11802              	.LFE28:
 11804 01ba 00BF     		.section	.text.USBDevEndpointConfigSet,"ax",%progbits
 11805              		.align	2
 11806              		.global	USBDevEndpointConfigSet
 11807              		.thumb
 11808              		.thumb_func
 11810              	USBDevEndpointConfigSet:
 11811              	.LFB29:
1933:/home/cuil/workspace/arm/lm3s811/TI_Stellaris/driverlib/usb.c **** 
1934:/home/cuil/workspace/arm/lm3s811/TI_Stellaris/driverlib/usb.c **** //*****************************************************************************
1935:/home/cuil/workspace/arm/lm3s811/TI_Stellaris/driverlib/usb.c **** //
1936:/home/cuil/workspace/arm/lm3s811/TI_Stellaris/driverlib/usb.c **** //! Sets the configuration for an endpoint.
1937:/home/cuil/workspace/arm/lm3s811/TI_Stellaris/driverlib/usb.c **** //!
1938:/home/cuil/workspace/arm/lm3s811/TI_Stellaris/driverlib/usb.c **** //! \param ulBase specifies the USB module base address.
1939:/home/cuil/workspace/arm/lm3s811/TI_Stellaris/driverlib/usb.c **** //! \param ulEndpoint is the endpoint to access.
1940:/home/cuil/workspace/arm/lm3s811/TI_Stellaris/driverlib/usb.c **** //! \param ulMaxPacketSize is the maximum packet size for this endpoint.
1941:/home/cuil/workspace/arm/lm3s811/TI_Stellaris/driverlib/usb.c **** //! \param ulFlags are used to configure other endpoint settings.
1942:/home/cuil/workspace/arm/lm3s811/TI_Stellaris/driverlib/usb.c **** //!
1943:/home/cuil/workspace/arm/lm3s811/TI_Stellaris/driverlib/usb.c **** //! This function sets the basic configuration for an endpoint in device mode.
1944:/home/cuil/workspace/arm/lm3s811/TI_Stellaris/driverlib/usb.c **** //! Endpoint zero does not have a dynamic configuration, so this function
1945:/home/cuil/workspace/arm/lm3s811/TI_Stellaris/driverlib/usb.c **** //! should not be called for endpoint zero.  The \e ulFlags parameter
1946:/home/cuil/workspace/arm/lm3s811/TI_Stellaris/driverlib/usb.c **** //! determines some of the configuration while the other parameters provide the
1947:/home/cuil/workspace/arm/lm3s811/TI_Stellaris/driverlib/usb.c **** //! rest.
1948:/home/cuil/workspace/arm/lm3s811/TI_Stellaris/driverlib/usb.c **** //!
1949:/home/cuil/workspace/arm/lm3s811/TI_Stellaris/driverlib/usb.c **** //! The \b USB_EP_MODE_ flags define what the type is for the given endpoint.
1950:/home/cuil/workspace/arm/lm3s811/TI_Stellaris/driverlib/usb.c **** //!
1951:/home/cuil/workspace/arm/lm3s811/TI_Stellaris/driverlib/usb.c **** //! - \b USB_EP_MODE_CTRL is a control endpoint.
1952:/home/cuil/workspace/arm/lm3s811/TI_Stellaris/driverlib/usb.c **** //! - \b USB_EP_MODE_ISOC is an isochronous endpoint.
1953:/home/cuil/workspace/arm/lm3s811/TI_Stellaris/driverlib/usb.c **** //! - \b USB_EP_MODE_BULK is a bulk endpoint.
1954:/home/cuil/workspace/arm/lm3s811/TI_Stellaris/driverlib/usb.c **** //! - \b USB_EP_MODE_INT is an interrupt endpoint.
1955:/home/cuil/workspace/arm/lm3s811/TI_Stellaris/driverlib/usb.c **** //!
1956:/home/cuil/workspace/arm/lm3s811/TI_Stellaris/driverlib/usb.c **** //! The \b USB_EP_DMA_MODE_ flags determine the type of DMA access to the
1957:/home/cuil/workspace/arm/lm3s811/TI_Stellaris/driverlib/usb.c **** //! endpoint data FIFOs.  The choice of the DMA mode depends on how the DMA
1958:/home/cuil/workspace/arm/lm3s811/TI_Stellaris/driverlib/usb.c **** //! controller is configured and how it is being used.  See the ``Using USB
1959:/home/cuil/workspace/arm/lm3s811/TI_Stellaris/driverlib/usb.c **** //! with the uDMA Controller'' section for more information on DMA
1960:/home/cuil/workspace/arm/lm3s811/TI_Stellaris/driverlib/usb.c **** //! configuration.
1961:/home/cuil/workspace/arm/lm3s811/TI_Stellaris/driverlib/usb.c **** //!
1962:/home/cuil/workspace/arm/lm3s811/TI_Stellaris/driverlib/usb.c **** //! When configuring an IN endpoint, the \b USB_EP_AUTO_SET bit can be
1963:/home/cuil/workspace/arm/lm3s811/TI_Stellaris/driverlib/usb.c **** //! specified to cause the automatic transmission of data on the USB bus as
1964:/home/cuil/workspace/arm/lm3s811/TI_Stellaris/driverlib/usb.c **** //! soon as \e ulMaxPacketSize bytes of data are written into the FIFO for
1965:/home/cuil/workspace/arm/lm3s811/TI_Stellaris/driverlib/usb.c **** //! this endpoint.  This option is commonly used with DMA as no interaction is
1966:/home/cuil/workspace/arm/lm3s811/TI_Stellaris/driverlib/usb.c **** //! required to start the transmission of data.
1967:/home/cuil/workspace/arm/lm3s811/TI_Stellaris/driverlib/usb.c **** //!
1968:/home/cuil/workspace/arm/lm3s811/TI_Stellaris/driverlib/usb.c **** //! When configuring an OUT endpoint, the \b USB_EP_AUTO_REQUEST bit is
1969:/home/cuil/workspace/arm/lm3s811/TI_Stellaris/driverlib/usb.c **** //! specified to trigger the request for more data once the FIFO has been
1970:/home/cuil/workspace/arm/lm3s811/TI_Stellaris/driverlib/usb.c **** //! drained enough to receive \e ulMaxPacketSize more bytes of data.  Also for
1971:/home/cuil/workspace/arm/lm3s811/TI_Stellaris/driverlib/usb.c **** //! OUT endpoints, the \b USB_EP_AUTO_CLEAR bit can be used to clear the data
1972:/home/cuil/workspace/arm/lm3s811/TI_Stellaris/driverlib/usb.c **** //! packet ready flag automatically once the data has been read from the FIFO.
1973:/home/cuil/workspace/arm/lm3s811/TI_Stellaris/driverlib/usb.c **** //! If this option is not used, this flag must be manually cleared via a call 
1974:/home/cuil/workspace/arm/lm3s811/TI_Stellaris/driverlib/usb.c **** //! to USBDevEndpointStatusClear().  Both of these settings can be used to 
1975:/home/cuil/workspace/arm/lm3s811/TI_Stellaris/driverlib/usb.c **** //! remove the need for extra calls when using the controller in DMA mode.
1976:/home/cuil/workspace/arm/lm3s811/TI_Stellaris/driverlib/usb.c **** //!
1977:/home/cuil/workspace/arm/lm3s811/TI_Stellaris/driverlib/usb.c **** //! \note This function should only be called in device mode.
1978:/home/cuil/workspace/arm/lm3s811/TI_Stellaris/driverlib/usb.c **** //!
1979:/home/cuil/workspace/arm/lm3s811/TI_Stellaris/driverlib/usb.c **** //! \return None.
1980:/home/cuil/workspace/arm/lm3s811/TI_Stellaris/driverlib/usb.c **** //
1981:/home/cuil/workspace/arm/lm3s811/TI_Stellaris/driverlib/usb.c **** //*****************************************************************************
1982:/home/cuil/workspace/arm/lm3s811/TI_Stellaris/driverlib/usb.c **** void
1983:/home/cuil/workspace/arm/lm3s811/TI_Stellaris/driverlib/usb.c **** USBDevEndpointConfigSet(unsigned long ulBase, unsigned long ulEndpoint,
1984:/home/cuil/workspace/arm/lm3s811/TI_Stellaris/driverlib/usb.c ****                         unsigned long ulMaxPacketSize, unsigned long ulFlags)
1985:/home/cuil/workspace/arm/lm3s811/TI_Stellaris/driverlib/usb.c **** {
 11812              		.loc 1 1985 0
 11813              		.cfi_startproc
 11814              		@ args = 0, pretend = 0, frame = 24
 11815              		@ frame_needed = 1, uses_anonymous_args = 0
 11816              		@ link register save eliminated.
 11817 0000 80B4     		push	{r7}
 11818              	.LCFI87:
 11819              		.cfi_def_cfa_offset 4
 11820 0002 87B0     		sub	sp, sp, #28
 11821              	.LCFI88:
 11822              		.cfi_def_cfa_offset 32
 11823 0004 00AF     		add	r7, sp, #0
 11824              		.cfi_offset 7, -4
 11825              	.LCFI89:
 11826              		.cfi_def_cfa_register 7
 11827 0006 F860     		str	r0, [r7, #12]
 11828 0008 B960     		str	r1, [r7, #8]
 11829 000a 7A60     		str	r2, [r7, #4]
 11830 000c 3B60     		str	r3, [r7, #0]
1986:/home/cuil/workspace/arm/lm3s811/TI_Stellaris/driverlib/usb.c ****     unsigned long ulRegister;
1987:/home/cuil/workspace/arm/lm3s811/TI_Stellaris/driverlib/usb.c **** 
1988:/home/cuil/workspace/arm/lm3s811/TI_Stellaris/driverlib/usb.c ****     //
1989:/home/cuil/workspace/arm/lm3s811/TI_Stellaris/driverlib/usb.c ****     // Check the arguments.
1990:/home/cuil/workspace/arm/lm3s811/TI_Stellaris/driverlib/usb.c ****     //
1991:/home/cuil/workspace/arm/lm3s811/TI_Stellaris/driverlib/usb.c ****     ASSERT(ulBase == USB0_BASE);
1992:/home/cuil/workspace/arm/lm3s811/TI_Stellaris/driverlib/usb.c ****     ASSERT((ulEndpoint == USB_EP_1) || (ulEndpoint == USB_EP_2) ||
1993:/home/cuil/workspace/arm/lm3s811/TI_Stellaris/driverlib/usb.c ****            (ulEndpoint == USB_EP_3) || (ulEndpoint == USB_EP_4) ||
1994:/home/cuil/workspace/arm/lm3s811/TI_Stellaris/driverlib/usb.c ****            (ulEndpoint == USB_EP_5) || (ulEndpoint == USB_EP_6) ||
1995:/home/cuil/workspace/arm/lm3s811/TI_Stellaris/driverlib/usb.c ****            (ulEndpoint == USB_EP_7) || (ulEndpoint == USB_EP_8) ||
1996:/home/cuil/workspace/arm/lm3s811/TI_Stellaris/driverlib/usb.c ****            (ulEndpoint == USB_EP_9) || (ulEndpoint == USB_EP_10) ||
1997:/home/cuil/workspace/arm/lm3s811/TI_Stellaris/driverlib/usb.c ****            (ulEndpoint == USB_EP_11) || (ulEndpoint == USB_EP_12) ||
1998:/home/cuil/workspace/arm/lm3s811/TI_Stellaris/driverlib/usb.c ****            (ulEndpoint == USB_EP_13) || (ulEndpoint == USB_EP_14) ||
1999:/home/cuil/workspace/arm/lm3s811/TI_Stellaris/driverlib/usb.c ****            (ulEndpoint == USB_EP_15));
2000:/home/cuil/workspace/arm/lm3s811/TI_Stellaris/driverlib/usb.c **** 
2001:/home/cuil/workspace/arm/lm3s811/TI_Stellaris/driverlib/usb.c ****     //
2002:/home/cuil/workspace/arm/lm3s811/TI_Stellaris/driverlib/usb.c ****     // Determine if a transmit or receive endpoint is being configured.
2003:/home/cuil/workspace/arm/lm3s811/TI_Stellaris/driverlib/usb.c ****     //
2004:/home/cuil/workspace/arm/lm3s811/TI_Stellaris/driverlib/usb.c ****     if(ulFlags & USB_EP_DEV_IN)
 11831              		.loc 1 2004 0
 11832 000e 3B68     		ldr	r3, [r7, #0]
 11833 0010 03F40053 		and	r3, r3, #8192
 11834 0014 002B     		cmp	r3, #0
 11835 0016 43D0     		beq	.L113
2005:/home/cuil/workspace/arm/lm3s811/TI_Stellaris/driverlib/usb.c ****     {
2006:/home/cuil/workspace/arm/lm3s811/TI_Stellaris/driverlib/usb.c ****         //
2007:/home/cuil/workspace/arm/lm3s811/TI_Stellaris/driverlib/usb.c ****         // Set the maximum packet size.
2008:/home/cuil/workspace/arm/lm3s811/TI_Stellaris/driverlib/usb.c ****         //
2009:/home/cuil/workspace/arm/lm3s811/TI_Stellaris/driverlib/usb.c ****         HWREGB(ulBase + EP_OFFSET(ulEndpoint) + USB_O_TXMAXP1) =
 11836              		.loc 1 2009 0
 11837 0018 BA68     		ldr	r2, [r7, #8]
 11838 001a FB68     		ldr	r3, [r7, #12]
 11839 001c D318     		adds	r3, r2, r3
 11840 001e 03F58073 		add	r3, r3, #256
 11841 0022 7A68     		ldr	r2, [r7, #4]
 11842 0024 D2B2     		uxtb	r2, r2
 11843 0026 1A70     		strb	r2, [r3, #0]
2010:/home/cuil/workspace/arm/lm3s811/TI_Stellaris/driverlib/usb.c ****             ulMaxPacketSize;
2011:/home/cuil/workspace/arm/lm3s811/TI_Stellaris/driverlib/usb.c **** 
2012:/home/cuil/workspace/arm/lm3s811/TI_Stellaris/driverlib/usb.c ****         //
2013:/home/cuil/workspace/arm/lm3s811/TI_Stellaris/driverlib/usb.c ****         // The transmit control value is zero unless options are enabled.
2014:/home/cuil/workspace/arm/lm3s811/TI_Stellaris/driverlib/usb.c ****         //
2015:/home/cuil/workspace/arm/lm3s811/TI_Stellaris/driverlib/usb.c ****         ulRegister = 0;
 11844              		.loc 1 2015 0
 11845 0028 4FF00003 		mov	r3, #0
 11846 002c 7B61     		str	r3, [r7, #20]
2016:/home/cuil/workspace/arm/lm3s811/TI_Stellaris/driverlib/usb.c **** 
2017:/home/cuil/workspace/arm/lm3s811/TI_Stellaris/driverlib/usb.c ****         //
2018:/home/cuil/workspace/arm/lm3s811/TI_Stellaris/driverlib/usb.c ****         // Allow auto setting of TxPktRdy when max packet size has been loaded
2019:/home/cuil/workspace/arm/lm3s811/TI_Stellaris/driverlib/usb.c ****         // into the FIFO.
2020:/home/cuil/workspace/arm/lm3s811/TI_Stellaris/driverlib/usb.c ****         //
2021:/home/cuil/workspace/arm/lm3s811/TI_Stellaris/driverlib/usb.c ****         if(ulFlags & USB_EP_AUTO_SET)
 11847              		.loc 1 2021 0
 11848 002e 3B68     		ldr	r3, [r7, #0]
 11849 0030 03F00103 		and	r3, r3, #1
 11850 0034 DBB2     		uxtb	r3, r3
 11851 0036 002B     		cmp	r3, #0
 11852 0038 03D0     		beq	.L114
2022:/home/cuil/workspace/arm/lm3s811/TI_Stellaris/driverlib/usb.c ****         {
2023:/home/cuil/workspace/arm/lm3s811/TI_Stellaris/driverlib/usb.c ****             ulRegister |= USB_TXCSRH1_AUTOSET;
 11853              		.loc 1 2023 0
 11854 003a 7B69     		ldr	r3, [r7, #20]
 11855 003c 43F08003 		orr	r3, r3, #128
 11856 0040 7B61     		str	r3, [r7, #20]
 11857              	.L114:
2024:/home/cuil/workspace/arm/lm3s811/TI_Stellaris/driverlib/usb.c ****         }
2025:/home/cuil/workspace/arm/lm3s811/TI_Stellaris/driverlib/usb.c **** 
2026:/home/cuil/workspace/arm/lm3s811/TI_Stellaris/driverlib/usb.c ****         //
2027:/home/cuil/workspace/arm/lm3s811/TI_Stellaris/driverlib/usb.c ****         // Configure the DMA mode.
2028:/home/cuil/workspace/arm/lm3s811/TI_Stellaris/driverlib/usb.c ****         //
2029:/home/cuil/workspace/arm/lm3s811/TI_Stellaris/driverlib/usb.c ****         if(ulFlags & USB_EP_DMA_MODE_1)
 11858              		.loc 1 2029 0
 11859 0042 3B68     		ldr	r3, [r7, #0]
 11860 0044 03F01003 		and	r3, r3, #16
 11861 0048 002B     		cmp	r3, #0
 11862 004a 04D0     		beq	.L115
2030:/home/cuil/workspace/arm/lm3s811/TI_Stellaris/driverlib/usb.c ****         {
2031:/home/cuil/workspace/arm/lm3s811/TI_Stellaris/driverlib/usb.c ****             ulRegister |= USB_TXCSRH1_DMAEN | USB_TXCSRH1_DMAMOD;
 11863              		.loc 1 2031 0
 11864 004c 7B69     		ldr	r3, [r7, #20]
 11865 004e 43F01403 		orr	r3, r3, #20
 11866 0052 7B61     		str	r3, [r7, #20]
 11867 0054 08E0     		b	.L116
 11868              	.L115:
2032:/home/cuil/workspace/arm/lm3s811/TI_Stellaris/driverlib/usb.c ****         }
2033:/home/cuil/workspace/arm/lm3s811/TI_Stellaris/driverlib/usb.c ****         else if(ulFlags & USB_EP_DMA_MODE_0)
 11869              		.loc 1 2033 0
 11870 0056 3B68     		ldr	r3, [r7, #0]
 11871 0058 03F00803 		and	r3, r3, #8
 11872 005c 002B     		cmp	r3, #0
 11873 005e 03D0     		beq	.L116
2034:/home/cuil/workspace/arm/lm3s811/TI_Stellaris/driverlib/usb.c ****         {
2035:/home/cuil/workspace/arm/lm3s811/TI_Stellaris/driverlib/usb.c ****             ulRegister |= USB_TXCSRH1_DMAEN;
 11874              		.loc 1 2035 0
 11875 0060 7B69     		ldr	r3, [r7, #20]
 11876 0062 43F01003 		orr	r3, r3, #16
 11877 0066 7B61     		str	r3, [r7, #20]
 11878              	.L116:
2036:/home/cuil/workspace/arm/lm3s811/TI_Stellaris/driverlib/usb.c ****         }
2037:/home/cuil/workspace/arm/lm3s811/TI_Stellaris/driverlib/usb.c **** 
2038:/home/cuil/workspace/arm/lm3s811/TI_Stellaris/driverlib/usb.c ****         //
2039:/home/cuil/workspace/arm/lm3s811/TI_Stellaris/driverlib/usb.c ****         // Enable isochronous mode if requested.
2040:/home/cuil/workspace/arm/lm3s811/TI_Stellaris/driverlib/usb.c ****         //
2041:/home/cuil/workspace/arm/lm3s811/TI_Stellaris/driverlib/usb.c ****         if((ulFlags & USB_EP_MODE_MASK) == USB_EP_MODE_ISOC)
 11879              		.loc 1 2041 0
 11880 0068 3B68     		ldr	r3, [r7, #0]
 11881 006a 03F44073 		and	r3, r3, #768
 11882 006e 002B     		cmp	r3, #0
 11883 0070 03D1     		bne	.L117
2042:/home/cuil/workspace/arm/lm3s811/TI_Stellaris/driverlib/usb.c ****         {
2043:/home/cuil/workspace/arm/lm3s811/TI_Stellaris/driverlib/usb.c ****             ulRegister |= USB_TXCSRH1_ISO;
 11884              		.loc 1 2043 0
 11885 0072 7B69     		ldr	r3, [r7, #20]
 11886 0074 43F04003 		orr	r3, r3, #64
 11887 0078 7B61     		str	r3, [r7, #20]
 11888              	.L117:
2044:/home/cuil/workspace/arm/lm3s811/TI_Stellaris/driverlib/usb.c ****         }
2045:/home/cuil/workspace/arm/lm3s811/TI_Stellaris/driverlib/usb.c **** 
2046:/home/cuil/workspace/arm/lm3s811/TI_Stellaris/driverlib/usb.c ****         //
2047:/home/cuil/workspace/arm/lm3s811/TI_Stellaris/driverlib/usb.c ****         // Write the transmit control value.
2048:/home/cuil/workspace/arm/lm3s811/TI_Stellaris/driverlib/usb.c ****         //
2049:/home/cuil/workspace/arm/lm3s811/TI_Stellaris/driverlib/usb.c ****         HWREGB(ulBase + EP_OFFSET(ulEndpoint) + USB_O_TXCSRH1) =
 11889              		.loc 1 2049 0
 11890 007a BA68     		ldr	r2, [r7, #8]
 11891 007c FB68     		ldr	r3, [r7, #12]
 11892 007e D318     		adds	r3, r2, r3
 11893 0080 03F58073 		add	r3, r3, #256
 11894 0084 03F10303 		add	r3, r3, #3
2050:/home/cuil/workspace/arm/lm3s811/TI_Stellaris/driverlib/usb.c ****             (unsigned char)ulRegister;
 11895              		.loc 1 2050 0
 11896 0088 7A69     		ldr	r2, [r7, #20]
 11897 008a D2B2     		uxtb	r2, r2
2049:/home/cuil/workspace/arm/lm3s811/TI_Stellaris/driverlib/usb.c ****         HWREGB(ulBase + EP_OFFSET(ulEndpoint) + USB_O_TXCSRH1) =
 11898              		.loc 1 2049 0
 11899 008c 1A70     		strb	r2, [r3, #0]
2051:/home/cuil/workspace/arm/lm3s811/TI_Stellaris/driverlib/usb.c **** 
2052:/home/cuil/workspace/arm/lm3s811/TI_Stellaris/driverlib/usb.c ****         //
2053:/home/cuil/workspace/arm/lm3s811/TI_Stellaris/driverlib/usb.c ****         // Reset the Data toggle to zero.
2054:/home/cuil/workspace/arm/lm3s811/TI_Stellaris/driverlib/usb.c ****         //
2055:/home/cuil/workspace/arm/lm3s811/TI_Stellaris/driverlib/usb.c ****         HWREGB(ulBase + EP_OFFSET(ulEndpoint) + USB_O_TXCSRL1) =
 11900              		.loc 1 2055 0
 11901 008e BA68     		ldr	r2, [r7, #8]
 11902 0090 FB68     		ldr	r3, [r7, #12]
 11903 0092 D318     		adds	r3, r2, r3
 11904 0094 03F58173 		add	r3, r3, #258
 11905 0098 4FF04002 		mov	r2, #64
 11906 009c 1A70     		strb	r2, [r3, #0]
 11907 009e 40E0     		b	.L112
 11908              	.L113:
2056:/home/cuil/workspace/arm/lm3s811/TI_Stellaris/driverlib/usb.c ****             USB_TXCSRL1_CLRDT;
2057:/home/cuil/workspace/arm/lm3s811/TI_Stellaris/driverlib/usb.c ****     }
2058:/home/cuil/workspace/arm/lm3s811/TI_Stellaris/driverlib/usb.c ****     else
2059:/home/cuil/workspace/arm/lm3s811/TI_Stellaris/driverlib/usb.c ****     {
2060:/home/cuil/workspace/arm/lm3s811/TI_Stellaris/driverlib/usb.c ****         //
2061:/home/cuil/workspace/arm/lm3s811/TI_Stellaris/driverlib/usb.c ****         // Set the MaxPacketSize.
2062:/home/cuil/workspace/arm/lm3s811/TI_Stellaris/driverlib/usb.c ****         //
2063:/home/cuil/workspace/arm/lm3s811/TI_Stellaris/driverlib/usb.c ****         HWREGB(ulBase + EP_OFFSET(ulEndpoint) + USB_O_RXMAXP1) =
 11909              		.loc 1 2063 0
 11910 00a0 BA68     		ldr	r2, [r7, #8]
 11911 00a2 FB68     		ldr	r3, [r7, #12]
 11912 00a4 D318     		adds	r3, r2, r3
 11913 00a6 03F58273 		add	r3, r3, #260
 11914 00aa 7A68     		ldr	r2, [r7, #4]
 11915 00ac D2B2     		uxtb	r2, r2
 11916 00ae 1A70     		strb	r2, [r3, #0]
2064:/home/cuil/workspace/arm/lm3s811/TI_Stellaris/driverlib/usb.c ****             ulMaxPacketSize;
2065:/home/cuil/workspace/arm/lm3s811/TI_Stellaris/driverlib/usb.c **** 
2066:/home/cuil/workspace/arm/lm3s811/TI_Stellaris/driverlib/usb.c ****         //
2067:/home/cuil/workspace/arm/lm3s811/TI_Stellaris/driverlib/usb.c ****         // The receive control value is zero unless options are enabled.
2068:/home/cuil/workspace/arm/lm3s811/TI_Stellaris/driverlib/usb.c ****         //
2069:/home/cuil/workspace/arm/lm3s811/TI_Stellaris/driverlib/usb.c ****         ulRegister = 0;
 11917              		.loc 1 2069 0
 11918 00b0 4FF00003 		mov	r3, #0
 11919 00b4 7B61     		str	r3, [r7, #20]
2070:/home/cuil/workspace/arm/lm3s811/TI_Stellaris/driverlib/usb.c **** 
2071:/home/cuil/workspace/arm/lm3s811/TI_Stellaris/driverlib/usb.c ****         //
2072:/home/cuil/workspace/arm/lm3s811/TI_Stellaris/driverlib/usb.c ****         // Allow auto clearing of RxPktRdy when packet of size max packet
2073:/home/cuil/workspace/arm/lm3s811/TI_Stellaris/driverlib/usb.c ****         // has been unloaded from the FIFO.
2074:/home/cuil/workspace/arm/lm3s811/TI_Stellaris/driverlib/usb.c ****         //
2075:/home/cuil/workspace/arm/lm3s811/TI_Stellaris/driverlib/usb.c ****         if(ulFlags & USB_EP_AUTO_CLEAR)
 11920              		.loc 1 2075 0
 11921 00b6 3B68     		ldr	r3, [r7, #0]
 11922 00b8 03F00403 		and	r3, r3, #4
 11923 00bc 002B     		cmp	r3, #0
 11924 00be 02D0     		beq	.L119
2076:/home/cuil/workspace/arm/lm3s811/TI_Stellaris/driverlib/usb.c ****         {
2077:/home/cuil/workspace/arm/lm3s811/TI_Stellaris/driverlib/usb.c ****             ulRegister = USB_RXCSRH1_AUTOCL;
 11925              		.loc 1 2077 0
 11926 00c0 4FF08003 		mov	r3, #128
 11927 00c4 7B61     		str	r3, [r7, #20]
 11928              	.L119:
2078:/home/cuil/workspace/arm/lm3s811/TI_Stellaris/driverlib/usb.c ****         }
2079:/home/cuil/workspace/arm/lm3s811/TI_Stellaris/driverlib/usb.c **** 
2080:/home/cuil/workspace/arm/lm3s811/TI_Stellaris/driverlib/usb.c ****         //
2081:/home/cuil/workspace/arm/lm3s811/TI_Stellaris/driverlib/usb.c ****         // Configure the DMA mode.
2082:/home/cuil/workspace/arm/lm3s811/TI_Stellaris/driverlib/usb.c ****         //
2083:/home/cuil/workspace/arm/lm3s811/TI_Stellaris/driverlib/usb.c ****         if(ulFlags & USB_EP_DMA_MODE_1)
 11929              		.loc 1 2083 0
 11930 00c6 3B68     		ldr	r3, [r7, #0]
 11931 00c8 03F01003 		and	r3, r3, #16
 11932 00cc 002B     		cmp	r3, #0
 11933 00ce 04D0     		beq	.L120
2084:/home/cuil/workspace/arm/lm3s811/TI_Stellaris/driverlib/usb.c ****         {
2085:/home/cuil/workspace/arm/lm3s811/TI_Stellaris/driverlib/usb.c ****             ulRegister |= USB_RXCSRH1_DMAEN | USB_RXCSRH1_DMAMOD;
 11934              		.loc 1 2085 0
 11935 00d0 7B69     		ldr	r3, [r7, #20]
 11936 00d2 43F02803 		orr	r3, r3, #40
 11937 00d6 7B61     		str	r3, [r7, #20]
 11938 00d8 08E0     		b	.L121
 11939              	.L120:
2086:/home/cuil/workspace/arm/lm3s811/TI_Stellaris/driverlib/usb.c ****         }
2087:/home/cuil/workspace/arm/lm3s811/TI_Stellaris/driverlib/usb.c ****         else if(ulFlags & USB_EP_DMA_MODE_0)
 11940              		.loc 1 2087 0
 11941 00da 3B68     		ldr	r3, [r7, #0]
 11942 00dc 03F00803 		and	r3, r3, #8
 11943 00e0 002B     		cmp	r3, #0
 11944 00e2 03D0     		beq	.L121
2088:/home/cuil/workspace/arm/lm3s811/TI_Stellaris/driverlib/usb.c ****         {
2089:/home/cuil/workspace/arm/lm3s811/TI_Stellaris/driverlib/usb.c ****             ulRegister |= USB_RXCSRH1_DMAEN;
 11945              		.loc 1 2089 0
 11946 00e4 7B69     		ldr	r3, [r7, #20]
 11947 00e6 43F02003 		orr	r3, r3, #32
 11948 00ea 7B61     		str	r3, [r7, #20]
 11949              	.L121:
2090:/home/cuil/workspace/arm/lm3s811/TI_Stellaris/driverlib/usb.c ****         }
2091:/home/cuil/workspace/arm/lm3s811/TI_Stellaris/driverlib/usb.c **** 
2092:/home/cuil/workspace/arm/lm3s811/TI_Stellaris/driverlib/usb.c ****         //
2093:/home/cuil/workspace/arm/lm3s811/TI_Stellaris/driverlib/usb.c ****         // Enable isochronous mode if requested.
2094:/home/cuil/workspace/arm/lm3s811/TI_Stellaris/driverlib/usb.c ****         //
2095:/home/cuil/workspace/arm/lm3s811/TI_Stellaris/driverlib/usb.c ****         if((ulFlags & USB_EP_MODE_MASK) == USB_EP_MODE_ISOC)
 11950              		.loc 1 2095 0
 11951 00ec 3B68     		ldr	r3, [r7, #0]
 11952 00ee 03F44073 		and	r3, r3, #768
 11953 00f2 002B     		cmp	r3, #0
 11954 00f4 03D1     		bne	.L122
2096:/home/cuil/workspace/arm/lm3s811/TI_Stellaris/driverlib/usb.c ****         {
2097:/home/cuil/workspace/arm/lm3s811/TI_Stellaris/driverlib/usb.c ****             ulRegister |= USB_RXCSRH1_ISO;
 11955              		.loc 1 2097 0
 11956 00f6 7B69     		ldr	r3, [r7, #20]
 11957 00f8 43F04003 		orr	r3, r3, #64
 11958 00fc 7B61     		str	r3, [r7, #20]
 11959              	.L122:
2098:/home/cuil/workspace/arm/lm3s811/TI_Stellaris/driverlib/usb.c ****         }
2099:/home/cuil/workspace/arm/lm3s811/TI_Stellaris/driverlib/usb.c **** 
2100:/home/cuil/workspace/arm/lm3s811/TI_Stellaris/driverlib/usb.c ****         //
2101:/home/cuil/workspace/arm/lm3s811/TI_Stellaris/driverlib/usb.c ****         // Write the receive control value.
2102:/home/cuil/workspace/arm/lm3s811/TI_Stellaris/driverlib/usb.c ****         //
2103:/home/cuil/workspace/arm/lm3s811/TI_Stellaris/driverlib/usb.c ****         HWREGB(ulBase + EP_OFFSET(ulEndpoint) + USB_O_RXCSRH1) =
 11960              		.loc 1 2103 0
 11961 00fe BA68     		ldr	r2, [r7, #8]
 11962 0100 FB68     		ldr	r3, [r7, #12]
 11963 0102 D318     		adds	r3, r2, r3
 11964 0104 03F58273 		add	r3, r3, #260
 11965 0108 03F10303 		add	r3, r3, #3
2104:/home/cuil/workspace/arm/lm3s811/TI_Stellaris/driverlib/usb.c ****             (unsigned char)ulRegister;
 11966              		.loc 1 2104 0
 11967 010c 7A69     		ldr	r2, [r7, #20]
 11968 010e D2B2     		uxtb	r2, r2
2103:/home/cuil/workspace/arm/lm3s811/TI_Stellaris/driverlib/usb.c ****         HWREGB(ulBase + EP_OFFSET(ulEndpoint) + USB_O_RXCSRH1) =
 11969              		.loc 1 2103 0
 11970 0110 1A70     		strb	r2, [r3, #0]
2105:/home/cuil/workspace/arm/lm3s811/TI_Stellaris/driverlib/usb.c **** 
2106:/home/cuil/workspace/arm/lm3s811/TI_Stellaris/driverlib/usb.c ****         //
2107:/home/cuil/workspace/arm/lm3s811/TI_Stellaris/driverlib/usb.c ****         // Reset the Data toggle to zero.
2108:/home/cuil/workspace/arm/lm3s811/TI_Stellaris/driverlib/usb.c ****         //
2109:/home/cuil/workspace/arm/lm3s811/TI_Stellaris/driverlib/usb.c ****         HWREGB(ulBase + EP_OFFSET(ulEndpoint) + USB_O_RXCSRL1) =
 11971              		.loc 1 2109 0
 11972 0112 BA68     		ldr	r2, [r7, #8]
 11973 0114 FB68     		ldr	r3, [r7, #12]
 11974 0116 D318     		adds	r3, r2, r3
 11975 0118 03F58373 		add	r3, r3, #262
 11976 011c 4FF08002 		mov	r2, #128
 11977 0120 1A70     		strb	r2, [r3, #0]
 11978              	.L112:
2110:/home/cuil/workspace/arm/lm3s811/TI_Stellaris/driverlib/usb.c ****             USB_RXCSRL1_CLRDT;
2111:/home/cuil/workspace/arm/lm3s811/TI_Stellaris/driverlib/usb.c ****     }
2112:/home/cuil/workspace/arm/lm3s811/TI_Stellaris/driverlib/usb.c **** }
 11979              		.loc 1 2112 0
 11980 0122 07F11C07 		add	r7, r7, #28
 11981 0126 BD46     		mov	sp, r7
 11982 0128 80BC     		pop	{r7}
 11983 012a 7047     		bx	lr
 11984              		.cfi_endproc
 11985              	.LFE29:
 11987              		.section	.text.USBDevEndpointConfigGet,"ax",%progbits
 11988              		.align	2
 11989              		.global	USBDevEndpointConfigGet
 11990              		.thumb
 11991              		.thumb_func
 11993              	USBDevEndpointConfigGet:
 11994              	.LFB30:
2113:/home/cuil/workspace/arm/lm3s811/TI_Stellaris/driverlib/usb.c **** 
2114:/home/cuil/workspace/arm/lm3s811/TI_Stellaris/driverlib/usb.c **** //*****************************************************************************
2115:/home/cuil/workspace/arm/lm3s811/TI_Stellaris/driverlib/usb.c **** //
2116:/home/cuil/workspace/arm/lm3s811/TI_Stellaris/driverlib/usb.c **** //! Gets the current configuration for an endpoint.
2117:/home/cuil/workspace/arm/lm3s811/TI_Stellaris/driverlib/usb.c **** //!
2118:/home/cuil/workspace/arm/lm3s811/TI_Stellaris/driverlib/usb.c **** //! \param ulBase specifies the USB module base address.
2119:/home/cuil/workspace/arm/lm3s811/TI_Stellaris/driverlib/usb.c **** //! \param ulEndpoint is the endpoint to access.
2120:/home/cuil/workspace/arm/lm3s811/TI_Stellaris/driverlib/usb.c **** //! \param pulMaxPacketSize is a pointer which is written with the maximum
2121:/home/cuil/workspace/arm/lm3s811/TI_Stellaris/driverlib/usb.c **** //! packet size for this endpoint.
2122:/home/cuil/workspace/arm/lm3s811/TI_Stellaris/driverlib/usb.c **** //! \param pulFlags is a pointer which is written with the current endpoint
2123:/home/cuil/workspace/arm/lm3s811/TI_Stellaris/driverlib/usb.c **** //! settings.  On entry to the function, this pointer must contain either
2124:/home/cuil/workspace/arm/lm3s811/TI_Stellaris/driverlib/usb.c **** //! \b USB_EP_DEV_IN or \b USB_EP_DEV_OUT to indicate whether the IN or OUT
2125:/home/cuil/workspace/arm/lm3s811/TI_Stellaris/driverlib/usb.c **** //! endpoint is to be queried.
2126:/home/cuil/workspace/arm/lm3s811/TI_Stellaris/driverlib/usb.c **** //!
2127:/home/cuil/workspace/arm/lm3s811/TI_Stellaris/driverlib/usb.c **** //! This function returns the basic configuration for an endpoint in device
2128:/home/cuil/workspace/arm/lm3s811/TI_Stellaris/driverlib/usb.c **** //! mode. The values returned in \e *pulMaxPacketSize and \e *pulFlags are
2129:/home/cuil/workspace/arm/lm3s811/TI_Stellaris/driverlib/usb.c **** //! equivalent to the \e ulMaxPacketSize and \e ulFlags previously passed to
2130:/home/cuil/workspace/arm/lm3s811/TI_Stellaris/driverlib/usb.c **** //! USBDevEndpointConfigSet() for this endpoint.
2131:/home/cuil/workspace/arm/lm3s811/TI_Stellaris/driverlib/usb.c **** //!
2132:/home/cuil/workspace/arm/lm3s811/TI_Stellaris/driverlib/usb.c **** //! \note This function should only be called in device mode.
2133:/home/cuil/workspace/arm/lm3s811/TI_Stellaris/driverlib/usb.c **** //!
2134:/home/cuil/workspace/arm/lm3s811/TI_Stellaris/driverlib/usb.c **** //! \return None.
2135:/home/cuil/workspace/arm/lm3s811/TI_Stellaris/driverlib/usb.c **** //
2136:/home/cuil/workspace/arm/lm3s811/TI_Stellaris/driverlib/usb.c **** //*****************************************************************************
2137:/home/cuil/workspace/arm/lm3s811/TI_Stellaris/driverlib/usb.c **** void
2138:/home/cuil/workspace/arm/lm3s811/TI_Stellaris/driverlib/usb.c **** USBDevEndpointConfigGet(unsigned long ulBase, unsigned long ulEndpoint,
2139:/home/cuil/workspace/arm/lm3s811/TI_Stellaris/driverlib/usb.c ****                         unsigned long *pulMaxPacketSize,
2140:/home/cuil/workspace/arm/lm3s811/TI_Stellaris/driverlib/usb.c ****                         unsigned long *pulFlags)
2141:/home/cuil/workspace/arm/lm3s811/TI_Stellaris/driverlib/usb.c **** {
 11995              		.loc 1 2141 0
 11996              		.cfi_startproc
 11997              		@ args = 0, pretend = 0, frame = 24
 11998              		@ frame_needed = 1, uses_anonymous_args = 0
 11999              		@ link register save eliminated.
 12000 0000 80B4     		push	{r7}
 12001              	.LCFI90:
 12002              		.cfi_def_cfa_offset 4
 12003 0002 87B0     		sub	sp, sp, #28
 12004              	.LCFI91:
 12005              		.cfi_def_cfa_offset 32
 12006 0004 00AF     		add	r7, sp, #0
 12007              		.cfi_offset 7, -4
 12008              	.LCFI92:
 12009              		.cfi_def_cfa_register 7
 12010 0006 F860     		str	r0, [r7, #12]
 12011 0008 B960     		str	r1, [r7, #8]
 12012 000a 7A60     		str	r2, [r7, #4]
 12013 000c 3B60     		str	r3, [r7, #0]
2142:/home/cuil/workspace/arm/lm3s811/TI_Stellaris/driverlib/usb.c ****     unsigned long ulRegister;
2143:/home/cuil/workspace/arm/lm3s811/TI_Stellaris/driverlib/usb.c **** 
2144:/home/cuil/workspace/arm/lm3s811/TI_Stellaris/driverlib/usb.c ****     //
2145:/home/cuil/workspace/arm/lm3s811/TI_Stellaris/driverlib/usb.c ****     // Check the arguments.
2146:/home/cuil/workspace/arm/lm3s811/TI_Stellaris/driverlib/usb.c ****     //
2147:/home/cuil/workspace/arm/lm3s811/TI_Stellaris/driverlib/usb.c ****     ASSERT(ulBase == USB0_BASE);
2148:/home/cuil/workspace/arm/lm3s811/TI_Stellaris/driverlib/usb.c ****     ASSERT(pulMaxPacketSize && pulFlags);
2149:/home/cuil/workspace/arm/lm3s811/TI_Stellaris/driverlib/usb.c ****     ASSERT((ulEndpoint == USB_EP_1) || (ulEndpoint == USB_EP_2) ||
2150:/home/cuil/workspace/arm/lm3s811/TI_Stellaris/driverlib/usb.c ****            (ulEndpoint == USB_EP_3) || (ulEndpoint == USB_EP_4) ||
2151:/home/cuil/workspace/arm/lm3s811/TI_Stellaris/driverlib/usb.c ****            (ulEndpoint == USB_EP_5) || (ulEndpoint == USB_EP_6) ||
2152:/home/cuil/workspace/arm/lm3s811/TI_Stellaris/driverlib/usb.c ****            (ulEndpoint == USB_EP_7) || (ulEndpoint == USB_EP_8) ||
2153:/home/cuil/workspace/arm/lm3s811/TI_Stellaris/driverlib/usb.c ****            (ulEndpoint == USB_EP_9) || (ulEndpoint == USB_EP_10) ||
2154:/home/cuil/workspace/arm/lm3s811/TI_Stellaris/driverlib/usb.c ****            (ulEndpoint == USB_EP_11) || (ulEndpoint == USB_EP_12) ||
2155:/home/cuil/workspace/arm/lm3s811/TI_Stellaris/driverlib/usb.c ****            (ulEndpoint == USB_EP_13) || (ulEndpoint == USB_EP_14) ||
2156:/home/cuil/workspace/arm/lm3s811/TI_Stellaris/driverlib/usb.c ****            (ulEndpoint == USB_EP_15));
2157:/home/cuil/workspace/arm/lm3s811/TI_Stellaris/driverlib/usb.c **** 
2158:/home/cuil/workspace/arm/lm3s811/TI_Stellaris/driverlib/usb.c ****     //
2159:/home/cuil/workspace/arm/lm3s811/TI_Stellaris/driverlib/usb.c ****     // Determine if a transmit or receive endpoint is being queried.
2160:/home/cuil/workspace/arm/lm3s811/TI_Stellaris/driverlib/usb.c ****     //
2161:/home/cuil/workspace/arm/lm3s811/TI_Stellaris/driverlib/usb.c ****     if(*pulFlags & USB_EP_DEV_IN)
 12014              		.loc 1 2161 0
 12015 000e 3B68     		ldr	r3, [r7, #0]
 12016 0010 1B68     		ldr	r3, [r3, #0]
 12017 0012 03F40053 		and	r3, r3, #8192
 12018 0016 002B     		cmp	r3, #0
 12019 0018 4AD0     		beq	.L124
2162:/home/cuil/workspace/arm/lm3s811/TI_Stellaris/driverlib/usb.c ****     {
2163:/home/cuil/workspace/arm/lm3s811/TI_Stellaris/driverlib/usb.c ****         //
2164:/home/cuil/workspace/arm/lm3s811/TI_Stellaris/driverlib/usb.c ****         // Clear the flags other than the direction bit.
2165:/home/cuil/workspace/arm/lm3s811/TI_Stellaris/driverlib/usb.c ****         //
2166:/home/cuil/workspace/arm/lm3s811/TI_Stellaris/driverlib/usb.c ****         *pulFlags = USB_EP_DEV_IN;
 12020              		.loc 1 2166 0
 12021 001a 3B68     		ldr	r3, [r7, #0]
 12022 001c 4FF40052 		mov	r2, #8192
 12023 0020 1A60     		str	r2, [r3, #0]
2167:/home/cuil/workspace/arm/lm3s811/TI_Stellaris/driverlib/usb.c **** 
2168:/home/cuil/workspace/arm/lm3s811/TI_Stellaris/driverlib/usb.c ****         //
2169:/home/cuil/workspace/arm/lm3s811/TI_Stellaris/driverlib/usb.c ****         // Get the maximum packet size.
2170:/home/cuil/workspace/arm/lm3s811/TI_Stellaris/driverlib/usb.c ****         //
2171:/home/cuil/workspace/arm/lm3s811/TI_Stellaris/driverlib/usb.c ****         *pulMaxPacketSize = (unsigned long)HWREGB(ulBase +
 12024              		.loc 1 2171 0
 12025 0022 BA68     		ldr	r2, [r7, #8]
 12026 0024 FB68     		ldr	r3, [r7, #12]
 12027 0026 D318     		adds	r3, r2, r3
 12028 0028 03F58073 		add	r3, r3, #256
 12029 002c 1B78     		ldrb	r3, [r3, #0]
 12030 002e DBB2     		uxtb	r3, r3
 12031 0030 1A46     		mov	r2, r3
 12032 0032 7B68     		ldr	r3, [r7, #4]
 12033 0034 1A60     		str	r2, [r3, #0]
2172:/home/cuil/workspace/arm/lm3s811/TI_Stellaris/driverlib/usb.c ****                                                   EP_OFFSET(ulEndpoint) +
2173:/home/cuil/workspace/arm/lm3s811/TI_Stellaris/driverlib/usb.c ****                                                   USB_O_TXMAXP1);
2174:/home/cuil/workspace/arm/lm3s811/TI_Stellaris/driverlib/usb.c **** 
2175:/home/cuil/workspace/arm/lm3s811/TI_Stellaris/driverlib/usb.c ****         //
2176:/home/cuil/workspace/arm/lm3s811/TI_Stellaris/driverlib/usb.c ****         // Get the current transmit control register value.
2177:/home/cuil/workspace/arm/lm3s811/TI_Stellaris/driverlib/usb.c ****         //
2178:/home/cuil/workspace/arm/lm3s811/TI_Stellaris/driverlib/usb.c ****         ulRegister = (unsigned long)HWREGB(ulBase + EP_OFFSET(ulEndpoint) +
 12034              		.loc 1 2178 0
 12035 0036 BA68     		ldr	r2, [r7, #8]
 12036 0038 FB68     		ldr	r3, [r7, #12]
 12037 003a D318     		adds	r3, r2, r3
 12038 003c 03F58073 		add	r3, r3, #256
 12039 0040 03F10303 		add	r3, r3, #3
 12040 0044 1B78     		ldrb	r3, [r3, #0]
 12041 0046 DBB2     		uxtb	r3, r3
 12042 0048 7B61     		str	r3, [r7, #20]
2179:/home/cuil/workspace/arm/lm3s811/TI_Stellaris/driverlib/usb.c ****                                            USB_O_TXCSRH1);
2180:/home/cuil/workspace/arm/lm3s811/TI_Stellaris/driverlib/usb.c **** 
2181:/home/cuil/workspace/arm/lm3s811/TI_Stellaris/driverlib/usb.c ****         //
2182:/home/cuil/workspace/arm/lm3s811/TI_Stellaris/driverlib/usb.c ****         // Are we allowing auto setting of TxPktRdy when max packet size has
2183:/home/cuil/workspace/arm/lm3s811/TI_Stellaris/driverlib/usb.c ****         // been loaded into the FIFO?
2184:/home/cuil/workspace/arm/lm3s811/TI_Stellaris/driverlib/usb.c ****         //
2185:/home/cuil/workspace/arm/lm3s811/TI_Stellaris/driverlib/usb.c ****         if(ulRegister & USB_TXCSRH1_AUTOSET)
 12043              		.loc 1 2185 0
 12044 004a 7B69     		ldr	r3, [r7, #20]
 12045 004c 03F08003 		and	r3, r3, #128
 12046 0050 002B     		cmp	r3, #0
 12047 0052 05D0     		beq	.L125
2186:/home/cuil/workspace/arm/lm3s811/TI_Stellaris/driverlib/usb.c ****         {
2187:/home/cuil/workspace/arm/lm3s811/TI_Stellaris/driverlib/usb.c ****             *pulFlags |= USB_EP_AUTO_SET;
 12048              		.loc 1 2187 0
 12049 0054 3B68     		ldr	r3, [r7, #0]
 12050 0056 1B68     		ldr	r3, [r3, #0]
 12051 0058 43F00102 		orr	r2, r3, #1
 12052 005c 3B68     		ldr	r3, [r7, #0]
 12053 005e 1A60     		str	r2, [r3, #0]
 12054              	.L125:
2188:/home/cuil/workspace/arm/lm3s811/TI_Stellaris/driverlib/usb.c ****         }
2189:/home/cuil/workspace/arm/lm3s811/TI_Stellaris/driverlib/usb.c **** 
2190:/home/cuil/workspace/arm/lm3s811/TI_Stellaris/driverlib/usb.c ****         //
2191:/home/cuil/workspace/arm/lm3s811/TI_Stellaris/driverlib/usb.c ****         // Get the DMA mode.
2192:/home/cuil/workspace/arm/lm3s811/TI_Stellaris/driverlib/usb.c ****         //
2193:/home/cuil/workspace/arm/lm3s811/TI_Stellaris/driverlib/usb.c ****         if(ulRegister & USB_TXCSRH1_DMAEN)
 12055              		.loc 1 2193 0
 12056 0060 7B69     		ldr	r3, [r7, #20]
 12057 0062 03F01003 		and	r3, r3, #16
 12058 0066 002B     		cmp	r3, #0
 12059 0068 11D0     		beq	.L126
2194:/home/cuil/workspace/arm/lm3s811/TI_Stellaris/driverlib/usb.c ****         {
2195:/home/cuil/workspace/arm/lm3s811/TI_Stellaris/driverlib/usb.c ****             if(ulRegister & USB_TXCSRH1_DMAMOD)
 12060              		.loc 1 2195 0
 12061 006a 7B69     		ldr	r3, [r7, #20]
 12062 006c 03F00403 		and	r3, r3, #4
 12063 0070 002B     		cmp	r3, #0
 12064 0072 06D0     		beq	.L127
2196:/home/cuil/workspace/arm/lm3s811/TI_Stellaris/driverlib/usb.c ****             {
2197:/home/cuil/workspace/arm/lm3s811/TI_Stellaris/driverlib/usb.c ****                 *pulFlags |= USB_EP_DMA_MODE_1;
 12065              		.loc 1 2197 0
 12066 0074 3B68     		ldr	r3, [r7, #0]
 12067 0076 1B68     		ldr	r3, [r3, #0]
 12068 0078 43F01002 		orr	r2, r3, #16
 12069 007c 3B68     		ldr	r3, [r7, #0]
 12070 007e 1A60     		str	r2, [r3, #0]
 12071 0080 05E0     		b	.L126
 12072              	.L127:
2198:/home/cuil/workspace/arm/lm3s811/TI_Stellaris/driverlib/usb.c ****             }
2199:/home/cuil/workspace/arm/lm3s811/TI_Stellaris/driverlib/usb.c ****             else
2200:/home/cuil/workspace/arm/lm3s811/TI_Stellaris/driverlib/usb.c ****             {
2201:/home/cuil/workspace/arm/lm3s811/TI_Stellaris/driverlib/usb.c ****                 *pulFlags |= USB_EP_DMA_MODE_0;
 12073              		.loc 1 2201 0
 12074 0082 3B68     		ldr	r3, [r7, #0]
 12075 0084 1B68     		ldr	r3, [r3, #0]
 12076 0086 43F00802 		orr	r2, r3, #8
 12077 008a 3B68     		ldr	r3, [r7, #0]
 12078 008c 1A60     		str	r2, [r3, #0]
 12079              	.L126:
2202:/home/cuil/workspace/arm/lm3s811/TI_Stellaris/driverlib/usb.c ****             }
2203:/home/cuil/workspace/arm/lm3s811/TI_Stellaris/driverlib/usb.c ****         }
2204:/home/cuil/workspace/arm/lm3s811/TI_Stellaris/driverlib/usb.c **** 
2205:/home/cuil/workspace/arm/lm3s811/TI_Stellaris/driverlib/usb.c ****         //
2206:/home/cuil/workspace/arm/lm3s811/TI_Stellaris/driverlib/usb.c ****         // Are we in isochronous mode?
2207:/home/cuil/workspace/arm/lm3s811/TI_Stellaris/driverlib/usb.c ****         //
2208:/home/cuil/workspace/arm/lm3s811/TI_Stellaris/driverlib/usb.c ****         if(ulRegister & USB_TXCSRH1_ISO)
 12080              		.loc 1 2208 0
 12081 008e 7B69     		ldr	r3, [r7, #20]
 12082 0090 03F04003 		and	r3, r3, #64
 12083 0094 002B     		cmp	r3, #0
 12084 0096 04D0     		beq	.L128
2209:/home/cuil/workspace/arm/lm3s811/TI_Stellaris/driverlib/usb.c ****         {
2210:/home/cuil/workspace/arm/lm3s811/TI_Stellaris/driverlib/usb.c ****             *pulFlags |= USB_EP_MODE_ISOC;
 12085              		.loc 1 2210 0
 12086 0098 3B68     		ldr	r3, [r7, #0]
 12087 009a 1A68     		ldr	r2, [r3, #0]
 12088 009c 3B68     		ldr	r3, [r7, #0]
 12089 009e 1A60     		str	r2, [r3, #0]
 12090 00a0 50E0     		b	.L123
 12091              	.L128:
2211:/home/cuil/workspace/arm/lm3s811/TI_Stellaris/driverlib/usb.c ****         }
2212:/home/cuil/workspace/arm/lm3s811/TI_Stellaris/driverlib/usb.c ****         else
2213:/home/cuil/workspace/arm/lm3s811/TI_Stellaris/driverlib/usb.c ****         {
2214:/home/cuil/workspace/arm/lm3s811/TI_Stellaris/driverlib/usb.c ****             //
2215:/home/cuil/workspace/arm/lm3s811/TI_Stellaris/driverlib/usb.c ****             // The hardware doesn't differentiate between bulk, interrupt
2216:/home/cuil/workspace/arm/lm3s811/TI_Stellaris/driverlib/usb.c ****             // and control mode for the endpoint so we just set something
2217:/home/cuil/workspace/arm/lm3s811/TI_Stellaris/driverlib/usb.c ****             // that isn't isochronous.  This protocol ensures that anyone 
2218:/home/cuil/workspace/arm/lm3s811/TI_Stellaris/driverlib/usb.c ****             // modifying the returned flags in preparation for a call to
2219:/home/cuil/workspace/arm/lm3s811/TI_Stellaris/driverlib/usb.c ****             // USBDevEndpointConfigSet do not see an unexpected mode change.
2220:/home/cuil/workspace/arm/lm3s811/TI_Stellaris/driverlib/usb.c ****             // If they decode the returned mode, however, they may be in for
2221:/home/cuil/workspace/arm/lm3s811/TI_Stellaris/driverlib/usb.c ****             // a surprise.
2222:/home/cuil/workspace/arm/lm3s811/TI_Stellaris/driverlib/usb.c ****             //
2223:/home/cuil/workspace/arm/lm3s811/TI_Stellaris/driverlib/usb.c ****             *pulFlags |= USB_EP_MODE_BULK;
 12092              		.loc 1 2223 0
 12093 00a2 3B68     		ldr	r3, [r7, #0]
 12094 00a4 1B68     		ldr	r3, [r3, #0]
 12095 00a6 43F48072 		orr	r2, r3, #256
 12096 00aa 3B68     		ldr	r3, [r7, #0]
 12097 00ac 1A60     		str	r2, [r3, #0]
 12098 00ae 49E0     		b	.L123
 12099              	.L124:
2224:/home/cuil/workspace/arm/lm3s811/TI_Stellaris/driverlib/usb.c ****         }
2225:/home/cuil/workspace/arm/lm3s811/TI_Stellaris/driverlib/usb.c ****     }
2226:/home/cuil/workspace/arm/lm3s811/TI_Stellaris/driverlib/usb.c ****     else
2227:/home/cuil/workspace/arm/lm3s811/TI_Stellaris/driverlib/usb.c ****     {
2228:/home/cuil/workspace/arm/lm3s811/TI_Stellaris/driverlib/usb.c ****         //
2229:/home/cuil/workspace/arm/lm3s811/TI_Stellaris/driverlib/usb.c ****         // Clear the flags other than the direction bit.
2230:/home/cuil/workspace/arm/lm3s811/TI_Stellaris/driverlib/usb.c ****         //
2231:/home/cuil/workspace/arm/lm3s811/TI_Stellaris/driverlib/usb.c ****         *pulFlags = USB_EP_DEV_OUT;
 12100              		.loc 1 2231 0
 12101 00b0 3B68     		ldr	r3, [r7, #0]
 12102 00b2 4FF00002 		mov	r2, #0
 12103 00b6 1A60     		str	r2, [r3, #0]
2232:/home/cuil/workspace/arm/lm3s811/TI_Stellaris/driverlib/usb.c **** 
2233:/home/cuil/workspace/arm/lm3s811/TI_Stellaris/driverlib/usb.c ****         //
2234:/home/cuil/workspace/arm/lm3s811/TI_Stellaris/driverlib/usb.c ****         // Get the MaxPacketSize.
2235:/home/cuil/workspace/arm/lm3s811/TI_Stellaris/driverlib/usb.c ****         //
2236:/home/cuil/workspace/arm/lm3s811/TI_Stellaris/driverlib/usb.c ****         *pulMaxPacketSize = (unsigned long)HWREGB(ulBase +
 12104              		.loc 1 2236 0
 12105 00b8 BA68     		ldr	r2, [r7, #8]
 12106 00ba FB68     		ldr	r3, [r7, #12]
 12107 00bc D318     		adds	r3, r2, r3
 12108 00be 03F58273 		add	r3, r3, #260
 12109 00c2 1B78     		ldrb	r3, [r3, #0]
 12110 00c4 DBB2     		uxtb	r3, r3
 12111 00c6 1A46     		mov	r2, r3
 12112 00c8 7B68     		ldr	r3, [r7, #4]
 12113 00ca 1A60     		str	r2, [r3, #0]
2237:/home/cuil/workspace/arm/lm3s811/TI_Stellaris/driverlib/usb.c ****                                                   EP_OFFSET(ulEndpoint) +
2238:/home/cuil/workspace/arm/lm3s811/TI_Stellaris/driverlib/usb.c ****                                                   USB_O_RXMAXP1);
2239:/home/cuil/workspace/arm/lm3s811/TI_Stellaris/driverlib/usb.c **** 
2240:/home/cuil/workspace/arm/lm3s811/TI_Stellaris/driverlib/usb.c ****         //
2241:/home/cuil/workspace/arm/lm3s811/TI_Stellaris/driverlib/usb.c ****         // Get the current receive control register value.
2242:/home/cuil/workspace/arm/lm3s811/TI_Stellaris/driverlib/usb.c ****         //
2243:/home/cuil/workspace/arm/lm3s811/TI_Stellaris/driverlib/usb.c ****         ulRegister = (unsigned long)HWREGB(ulBase + EP_OFFSET(ulEndpoint) +
 12114              		.loc 1 2243 0
 12115 00cc BA68     		ldr	r2, [r7, #8]
 12116 00ce FB68     		ldr	r3, [r7, #12]
 12117 00d0 D318     		adds	r3, r2, r3
 12118 00d2 03F58273 		add	r3, r3, #260
 12119 00d6 03F10303 		add	r3, r3, #3
 12120 00da 1B78     		ldrb	r3, [r3, #0]
 12121 00dc DBB2     		uxtb	r3, r3
 12122 00de 7B61     		str	r3, [r7, #20]
2244:/home/cuil/workspace/arm/lm3s811/TI_Stellaris/driverlib/usb.c ****                                            USB_O_RXCSRH1);
2245:/home/cuil/workspace/arm/lm3s811/TI_Stellaris/driverlib/usb.c **** 
2246:/home/cuil/workspace/arm/lm3s811/TI_Stellaris/driverlib/usb.c ****         //
2247:/home/cuil/workspace/arm/lm3s811/TI_Stellaris/driverlib/usb.c ****         // Are we allowing auto clearing of RxPktRdy when packet of size max
2248:/home/cuil/workspace/arm/lm3s811/TI_Stellaris/driverlib/usb.c ****         // packet has been unloaded from the FIFO?
2249:/home/cuil/workspace/arm/lm3s811/TI_Stellaris/driverlib/usb.c ****         //
2250:/home/cuil/workspace/arm/lm3s811/TI_Stellaris/driverlib/usb.c ****         if(ulRegister & USB_RXCSRH1_AUTOCL)
 12123              		.loc 1 2250 0
 12124 00e0 7B69     		ldr	r3, [r7, #20]
 12125 00e2 03F08003 		and	r3, r3, #128
 12126 00e6 002B     		cmp	r3, #0
 12127 00e8 05D0     		beq	.L130
2251:/home/cuil/workspace/arm/lm3s811/TI_Stellaris/driverlib/usb.c ****         {
2252:/home/cuil/workspace/arm/lm3s811/TI_Stellaris/driverlib/usb.c ****             *pulFlags |= USB_EP_AUTO_CLEAR;
 12128              		.loc 1 2252 0
 12129 00ea 3B68     		ldr	r3, [r7, #0]
 12130 00ec 1B68     		ldr	r3, [r3, #0]
 12131 00ee 43F00402 		orr	r2, r3, #4
 12132 00f2 3B68     		ldr	r3, [r7, #0]
 12133 00f4 1A60     		str	r2, [r3, #0]
 12134              	.L130:
2253:/home/cuil/workspace/arm/lm3s811/TI_Stellaris/driverlib/usb.c ****         }
2254:/home/cuil/workspace/arm/lm3s811/TI_Stellaris/driverlib/usb.c **** 
2255:/home/cuil/workspace/arm/lm3s811/TI_Stellaris/driverlib/usb.c ****         //
2256:/home/cuil/workspace/arm/lm3s811/TI_Stellaris/driverlib/usb.c ****         // Get the DMA mode.
2257:/home/cuil/workspace/arm/lm3s811/TI_Stellaris/driverlib/usb.c ****         //
2258:/home/cuil/workspace/arm/lm3s811/TI_Stellaris/driverlib/usb.c ****         if(ulRegister & USB_RXCSRH1_DMAEN)
 12135              		.loc 1 2258 0
 12136 00f6 7B69     		ldr	r3, [r7, #20]
 12137 00f8 03F02003 		and	r3, r3, #32
 12138 00fc 002B     		cmp	r3, #0
 12139 00fe 11D0     		beq	.L131
2259:/home/cuil/workspace/arm/lm3s811/TI_Stellaris/driverlib/usb.c ****         {
2260:/home/cuil/workspace/arm/lm3s811/TI_Stellaris/driverlib/usb.c ****             if(ulRegister & USB_RXCSRH1_DMAMOD)
 12140              		.loc 1 2260 0
 12141 0100 7B69     		ldr	r3, [r7, #20]
 12142 0102 03F00803 		and	r3, r3, #8
 12143 0106 002B     		cmp	r3, #0
 12144 0108 06D0     		beq	.L132
2261:/home/cuil/workspace/arm/lm3s811/TI_Stellaris/driverlib/usb.c ****             {
2262:/home/cuil/workspace/arm/lm3s811/TI_Stellaris/driverlib/usb.c ****                 *pulFlags |= USB_EP_DMA_MODE_1;
 12145              		.loc 1 2262 0
 12146 010a 3B68     		ldr	r3, [r7, #0]
 12147 010c 1B68     		ldr	r3, [r3, #0]
 12148 010e 43F01002 		orr	r2, r3, #16
 12149 0112 3B68     		ldr	r3, [r7, #0]
 12150 0114 1A60     		str	r2, [r3, #0]
 12151 0116 05E0     		b	.L131
 12152              	.L132:
2263:/home/cuil/workspace/arm/lm3s811/TI_Stellaris/driverlib/usb.c ****             }
2264:/home/cuil/workspace/arm/lm3s811/TI_Stellaris/driverlib/usb.c ****             else
2265:/home/cuil/workspace/arm/lm3s811/TI_Stellaris/driverlib/usb.c ****             {
2266:/home/cuil/workspace/arm/lm3s811/TI_Stellaris/driverlib/usb.c ****                 *pulFlags |= USB_EP_DMA_MODE_0;
 12153              		.loc 1 2266 0
 12154 0118 3B68     		ldr	r3, [r7, #0]
 12155 011a 1B68     		ldr	r3, [r3, #0]
 12156 011c 43F00802 		orr	r2, r3, #8
 12157 0120 3B68     		ldr	r3, [r7, #0]
 12158 0122 1A60     		str	r2, [r3, #0]
 12159              	.L131:
2267:/home/cuil/workspace/arm/lm3s811/TI_Stellaris/driverlib/usb.c ****             }
2268:/home/cuil/workspace/arm/lm3s811/TI_Stellaris/driverlib/usb.c ****         }
2269:/home/cuil/workspace/arm/lm3s811/TI_Stellaris/driverlib/usb.c **** 
2270:/home/cuil/workspace/arm/lm3s811/TI_Stellaris/driverlib/usb.c ****         //
2271:/home/cuil/workspace/arm/lm3s811/TI_Stellaris/driverlib/usb.c ****         // Are we in isochronous mode?
2272:/home/cuil/workspace/arm/lm3s811/TI_Stellaris/driverlib/usb.c ****         //
2273:/home/cuil/workspace/arm/lm3s811/TI_Stellaris/driverlib/usb.c ****         if(ulRegister & USB_RXCSRH1_ISO)
 12160              		.loc 1 2273 0
 12161 0124 7B69     		ldr	r3, [r7, #20]
 12162 0126 03F04003 		and	r3, r3, #64
 12163 012a 002B     		cmp	r3, #0
 12164 012c 04D0     		beq	.L133
2274:/home/cuil/workspace/arm/lm3s811/TI_Stellaris/driverlib/usb.c ****         {
2275:/home/cuil/workspace/arm/lm3s811/TI_Stellaris/driverlib/usb.c ****             *pulFlags |= USB_EP_MODE_ISOC;
 12165              		.loc 1 2275 0
 12166 012e 3B68     		ldr	r3, [r7, #0]
 12167 0130 1A68     		ldr	r2, [r3, #0]
 12168 0132 3B68     		ldr	r3, [r7, #0]
 12169 0134 1A60     		str	r2, [r3, #0]
 12170 0136 05E0     		b	.L123
 12171              	.L133:
2276:/home/cuil/workspace/arm/lm3s811/TI_Stellaris/driverlib/usb.c ****         }
2277:/home/cuil/workspace/arm/lm3s811/TI_Stellaris/driverlib/usb.c ****         else
2278:/home/cuil/workspace/arm/lm3s811/TI_Stellaris/driverlib/usb.c ****         {
2279:/home/cuil/workspace/arm/lm3s811/TI_Stellaris/driverlib/usb.c ****             //
2280:/home/cuil/workspace/arm/lm3s811/TI_Stellaris/driverlib/usb.c ****             // The hardware doesn't differentiate between bulk, interrupt
2281:/home/cuil/workspace/arm/lm3s811/TI_Stellaris/driverlib/usb.c ****             // and control mode for the endpoint so we just set something
2282:/home/cuil/workspace/arm/lm3s811/TI_Stellaris/driverlib/usb.c ****             // that isn't isochronous.  This protocol ensures that anyone 
2283:/home/cuil/workspace/arm/lm3s811/TI_Stellaris/driverlib/usb.c ****             // modifying the returned flags in preparation for a call to
2284:/home/cuil/workspace/arm/lm3s811/TI_Stellaris/driverlib/usb.c ****             // USBDevEndpointConfigSet do not see an unexpected mode change.
2285:/home/cuil/workspace/arm/lm3s811/TI_Stellaris/driverlib/usb.c ****             // If they decode the returned mode, however, they may be in for
2286:/home/cuil/workspace/arm/lm3s811/TI_Stellaris/driverlib/usb.c ****             // a surprise.
2287:/home/cuil/workspace/arm/lm3s811/TI_Stellaris/driverlib/usb.c ****             //
2288:/home/cuil/workspace/arm/lm3s811/TI_Stellaris/driverlib/usb.c ****             *pulFlags |= USB_EP_MODE_BULK;
 12172              		.loc 1 2288 0
 12173 0138 3B68     		ldr	r3, [r7, #0]
 12174 013a 1B68     		ldr	r3, [r3, #0]
 12175 013c 43F48072 		orr	r2, r3, #256
 12176 0140 3B68     		ldr	r3, [r7, #0]
 12177 0142 1A60     		str	r2, [r3, #0]
 12178              	.L123:
2289:/home/cuil/workspace/arm/lm3s811/TI_Stellaris/driverlib/usb.c ****         }
2290:/home/cuil/workspace/arm/lm3s811/TI_Stellaris/driverlib/usb.c ****     }
2291:/home/cuil/workspace/arm/lm3s811/TI_Stellaris/driverlib/usb.c **** }
 12179              		.loc 1 2291 0
 12180 0144 07F11C07 		add	r7, r7, #28
 12181 0148 BD46     		mov	sp, r7
 12182 014a 80BC     		pop	{r7}
 12183 014c 7047     		bx	lr
 12184              		.cfi_endproc
 12185              	.LFE30:
 12187 014e 00BF     		.section	.text.USBFIFOConfigSet,"ax",%progbits
 12188              		.align	2
 12189              		.global	USBFIFOConfigSet
 12190              		.thumb
 12191              		.thumb_func
 12193              	USBFIFOConfigSet:
 12194              	.LFB31:
2292:/home/cuil/workspace/arm/lm3s811/TI_Stellaris/driverlib/usb.c **** 
2293:/home/cuil/workspace/arm/lm3s811/TI_Stellaris/driverlib/usb.c **** //*****************************************************************************
2294:/home/cuil/workspace/arm/lm3s811/TI_Stellaris/driverlib/usb.c **** //
2295:/home/cuil/workspace/arm/lm3s811/TI_Stellaris/driverlib/usb.c **** //! Sets the FIFO configuration for an endpoint.
2296:/home/cuil/workspace/arm/lm3s811/TI_Stellaris/driverlib/usb.c **** //!
2297:/home/cuil/workspace/arm/lm3s811/TI_Stellaris/driverlib/usb.c **** //! \param ulBase specifies the USB module base address.
2298:/home/cuil/workspace/arm/lm3s811/TI_Stellaris/driverlib/usb.c **** //! \param ulEndpoint is the endpoint to access.
2299:/home/cuil/workspace/arm/lm3s811/TI_Stellaris/driverlib/usb.c **** //! \param ulFIFOAddress is the starting address for the FIFO.
2300:/home/cuil/workspace/arm/lm3s811/TI_Stellaris/driverlib/usb.c **** //! \param ulFIFOSize is the size of the FIFO specified by one of the
2301:/home/cuil/workspace/arm/lm3s811/TI_Stellaris/driverlib/usb.c **** //! USB_FIFO_SZ_ values.
2302:/home/cuil/workspace/arm/lm3s811/TI_Stellaris/driverlib/usb.c **** //! \param ulFlags specifies what information to set in the FIFO configuration.
2303:/home/cuil/workspace/arm/lm3s811/TI_Stellaris/driverlib/usb.c **** //!
2304:/home/cuil/workspace/arm/lm3s811/TI_Stellaris/driverlib/usb.c **** //! This function configures the starting FIFO RAM address and size of the FIFO
2305:/home/cuil/workspace/arm/lm3s811/TI_Stellaris/driverlib/usb.c **** //! for a given endpoint.  Endpoint zero does not have a dynamically
2306:/home/cuil/workspace/arm/lm3s811/TI_Stellaris/driverlib/usb.c **** //! configurable FIFO, so this function should not be called for endpoint zero.
2307:/home/cuil/workspace/arm/lm3s811/TI_Stellaris/driverlib/usb.c **** //! The \e ulFIFOSize parameter should be one of the values in the
2308:/home/cuil/workspace/arm/lm3s811/TI_Stellaris/driverlib/usb.c **** //! \b USB_FIFO_SZ_ values.  If the endpoint is going to use double buffering,
2309:/home/cuil/workspace/arm/lm3s811/TI_Stellaris/driverlib/usb.c **** //! it should use the values with the \b _DB at the end of the value.  For
2310:/home/cuil/workspace/arm/lm3s811/TI_Stellaris/driverlib/usb.c **** //! example, use \b USB_FIFO_SZ_16_DB to configure an endpoint to have a 16-
2311:/home/cuil/workspace/arm/lm3s811/TI_Stellaris/driverlib/usb.c **** //! byte, double-buffered FIFO.  If a double-buffered FIFO is used, then the
2312:/home/cuil/workspace/arm/lm3s811/TI_Stellaris/driverlib/usb.c **** //! actual size of the FIFO is twice the size indicated by the \e ulFIFOSize
2313:/home/cuil/workspace/arm/lm3s811/TI_Stellaris/driverlib/usb.c **** //! parameter.  For example, the \b USB_FIFO_SZ_16_DB value uses 32 bytes of 
2314:/home/cuil/workspace/arm/lm3s811/TI_Stellaris/driverlib/usb.c **** //! the USB controller's FIFO memory.
2315:/home/cuil/workspace/arm/lm3s811/TI_Stellaris/driverlib/usb.c **** //!
2316:/home/cuil/workspace/arm/lm3s811/TI_Stellaris/driverlib/usb.c **** //! The \e ulFIFOAddress value should be a multiple of 8 bytes and directly
2317:/home/cuil/workspace/arm/lm3s811/TI_Stellaris/driverlib/usb.c **** //! indicates the starting address in the USB controller's FIFO RAM.  For
2318:/home/cuil/workspace/arm/lm3s811/TI_Stellaris/driverlib/usb.c **** //! example, a value of 64 indicates that the FIFO should start 64 bytes into
2319:/home/cuil/workspace/arm/lm3s811/TI_Stellaris/driverlib/usb.c **** //! the USB controller's FIFO memory.  The \e ulFlags value specifies whether
2320:/home/cuil/workspace/arm/lm3s811/TI_Stellaris/driverlib/usb.c **** //! the endpoint's OUT or IN FIFO should be configured.  If in host mode, use
2321:/home/cuil/workspace/arm/lm3s811/TI_Stellaris/driverlib/usb.c **** //! \b USB_EP_HOST_OUT or \b USB_EP_HOST_IN, and if in device mode, use
2322:/home/cuil/workspace/arm/lm3s811/TI_Stellaris/driverlib/usb.c **** //! \b USB_EP_DEV_OUT or \b USB_EP_DEV_IN.
2323:/home/cuil/workspace/arm/lm3s811/TI_Stellaris/driverlib/usb.c **** //!
2324:/home/cuil/workspace/arm/lm3s811/TI_Stellaris/driverlib/usb.c **** //! \return None.
2325:/home/cuil/workspace/arm/lm3s811/TI_Stellaris/driverlib/usb.c **** //
2326:/home/cuil/workspace/arm/lm3s811/TI_Stellaris/driverlib/usb.c **** //*****************************************************************************
2327:/home/cuil/workspace/arm/lm3s811/TI_Stellaris/driverlib/usb.c **** void
2328:/home/cuil/workspace/arm/lm3s811/TI_Stellaris/driverlib/usb.c **** USBFIFOConfigSet(unsigned long ulBase, unsigned long ulEndpoint,
2329:/home/cuil/workspace/arm/lm3s811/TI_Stellaris/driverlib/usb.c ****                  unsigned long ulFIFOAddress, unsigned long ulFIFOSize,
2330:/home/cuil/workspace/arm/lm3s811/TI_Stellaris/driverlib/usb.c ****                  unsigned long ulFlags)
2331:/home/cuil/workspace/arm/lm3s811/TI_Stellaris/driverlib/usb.c **** {
 12195              		.loc 1 2331 0
 12196              		.cfi_startproc
 12197              		@ args = 4, pretend = 0, frame = 16
 12198              		@ frame_needed = 1, uses_anonymous_args = 0
 12199 0000 80B5     		push	{r7, lr}
 12200              	.LCFI93:
 12201              		.cfi_def_cfa_offset 8
 12202 0002 86B0     		sub	sp, sp, #24
 12203              	.LCFI94:
 12204              		.cfi_def_cfa_offset 32
 12205 0004 02AF     		add	r7, sp, #8
 12206              		.cfi_offset 14, -4
 12207              		.cfi_offset 7, -8
 12208              	.LCFI95:
 12209              		.cfi_def_cfa 7, 24
 12210 0006 F860     		str	r0, [r7, #12]
 12211 0008 B960     		str	r1, [r7, #8]
 12212 000a 7A60     		str	r2, [r7, #4]
 12213 000c 3B60     		str	r3, [r7, #0]
2332:/home/cuil/workspace/arm/lm3s811/TI_Stellaris/driverlib/usb.c ****     //
2333:/home/cuil/workspace/arm/lm3s811/TI_Stellaris/driverlib/usb.c ****     // Check the arguments.
2334:/home/cuil/workspace/arm/lm3s811/TI_Stellaris/driverlib/usb.c ****     //
2335:/home/cuil/workspace/arm/lm3s811/TI_Stellaris/driverlib/usb.c ****     ASSERT(ulBase == USB0_BASE);
2336:/home/cuil/workspace/arm/lm3s811/TI_Stellaris/driverlib/usb.c ****     ASSERT((ulEndpoint == USB_EP_1) || (ulEndpoint == USB_EP_2) ||
2337:/home/cuil/workspace/arm/lm3s811/TI_Stellaris/driverlib/usb.c ****            (ulEndpoint == USB_EP_3) || (ulEndpoint == USB_EP_4) ||
2338:/home/cuil/workspace/arm/lm3s811/TI_Stellaris/driverlib/usb.c ****            (ulEndpoint == USB_EP_5) || (ulEndpoint == USB_EP_6) ||
2339:/home/cuil/workspace/arm/lm3s811/TI_Stellaris/driverlib/usb.c ****            (ulEndpoint == USB_EP_7) || (ulEndpoint == USB_EP_8) ||
2340:/home/cuil/workspace/arm/lm3s811/TI_Stellaris/driverlib/usb.c ****            (ulEndpoint == USB_EP_9) || (ulEndpoint == USB_EP_10) ||
2341:/home/cuil/workspace/arm/lm3s811/TI_Stellaris/driverlib/usb.c ****            (ulEndpoint == USB_EP_11) || (ulEndpoint == USB_EP_12) ||
2342:/home/cuil/workspace/arm/lm3s811/TI_Stellaris/driverlib/usb.c ****            (ulEndpoint == USB_EP_13) || (ulEndpoint == USB_EP_14) ||
2343:/home/cuil/workspace/arm/lm3s811/TI_Stellaris/driverlib/usb.c ****            (ulEndpoint == USB_EP_15));
2344:/home/cuil/workspace/arm/lm3s811/TI_Stellaris/driverlib/usb.c **** 
2345:/home/cuil/workspace/arm/lm3s811/TI_Stellaris/driverlib/usb.c ****     //
2346:/home/cuil/workspace/arm/lm3s811/TI_Stellaris/driverlib/usb.c ****     // See if the transmit or receive FIFO is being configured.
2347:/home/cuil/workspace/arm/lm3s811/TI_Stellaris/driverlib/usb.c ****     //
2348:/home/cuil/workspace/arm/lm3s811/TI_Stellaris/driverlib/usb.c ****     if(ulFlags & (USB_EP_HOST_OUT | USB_EP_DEV_IN))
 12214              		.loc 1 2348 0
 12215 000e BB69     		ldr	r3, [r7, #24]
 12216 0010 03F40053 		and	r3, r3, #8192
 12217 0014 002B     		cmp	r3, #0
 12218 0016 1CD0     		beq	.L135
2349:/home/cuil/workspace/arm/lm3s811/TI_Stellaris/driverlib/usb.c ****     {
2350:/home/cuil/workspace/arm/lm3s811/TI_Stellaris/driverlib/usb.c ****         //
2351:/home/cuil/workspace/arm/lm3s811/TI_Stellaris/driverlib/usb.c ****         // Set the transmit FIFO location and size for this endpoint.
2352:/home/cuil/workspace/arm/lm3s811/TI_Stellaris/driverlib/usb.c ****         //
2353:/home/cuil/workspace/arm/lm3s811/TI_Stellaris/driverlib/usb.c ****         USBIndexWrite(ulBase, ulEndpoint >> 4, USB_O_TXFIFOSZ, ulFIFOSize, 1);
 12219              		.loc 1 2353 0
 12220 0018 BB68     		ldr	r3, [r7, #8]
 12221 001a 4FEA1313 		lsr	r3, r3, #4
 12222 001e 4FF00102 		mov	r2, #1
 12223 0022 0092     		str	r2, [sp, #0]
 12224 0024 F868     		ldr	r0, [r7, #12]
 12225 0026 1946     		mov	r1, r3
 12226 0028 4FF06202 		mov	r2, #98
 12227 002c 3B68     		ldr	r3, [r7, #0]
 12228 002e FFF7FEFF 		bl	USBIndexWrite
2354:/home/cuil/workspace/arm/lm3s811/TI_Stellaris/driverlib/usb.c ****         USBIndexWrite(ulBase, ulEndpoint >> 4, USB_O_TXFIFOADD,
 12229              		.loc 1 2354 0
 12230 0032 BB68     		ldr	r3, [r7, #8]
 12231 0034 4FEA1312 		lsr	r2, r3, #4
 12232 0038 7B68     		ldr	r3, [r7, #4]
 12233 003a 4FEAD303 		lsr	r3, r3, #3
 12234 003e 4FF00201 		mov	r1, #2
 12235 0042 0091     		str	r1, [sp, #0]
 12236 0044 F868     		ldr	r0, [r7, #12]
 12237 0046 1146     		mov	r1, r2
 12238 0048 4FF06402 		mov	r2, #100
 12239 004c FFF7FEFF 		bl	USBIndexWrite
 12240 0050 1BE0     		b	.L134
 12241              	.L135:
2355:/home/cuil/workspace/arm/lm3s811/TI_Stellaris/driverlib/usb.c ****                       ulFIFOAddress >> 3, 2);
2356:/home/cuil/workspace/arm/lm3s811/TI_Stellaris/driverlib/usb.c ****     }
2357:/home/cuil/workspace/arm/lm3s811/TI_Stellaris/driverlib/usb.c ****     else
2358:/home/cuil/workspace/arm/lm3s811/TI_Stellaris/driverlib/usb.c ****     {
2359:/home/cuil/workspace/arm/lm3s811/TI_Stellaris/driverlib/usb.c ****         //
2360:/home/cuil/workspace/arm/lm3s811/TI_Stellaris/driverlib/usb.c ****         // Set the receive FIFO location and size for this endpoint.
2361:/home/cuil/workspace/arm/lm3s811/TI_Stellaris/driverlib/usb.c ****         //
2362:/home/cuil/workspace/arm/lm3s811/TI_Stellaris/driverlib/usb.c ****         USBIndexWrite(ulBase, ulEndpoint >> 4, USB_O_RXFIFOSZ, ulFIFOSize, 1);
 12242              		.loc 1 2362 0
 12243 0052 BB68     		ldr	r3, [r7, #8]
 12244 0054 4FEA1313 		lsr	r3, r3, #4
 12245 0058 4FF00102 		mov	r2, #1
 12246 005c 0092     		str	r2, [sp, #0]
 12247 005e F868     		ldr	r0, [r7, #12]
 12248 0060 1946     		mov	r1, r3
 12249 0062 4FF06302 		mov	r2, #99
 12250 0066 3B68     		ldr	r3, [r7, #0]
 12251 0068 FFF7FEFF 		bl	USBIndexWrite
2363:/home/cuil/workspace/arm/lm3s811/TI_Stellaris/driverlib/usb.c ****         USBIndexWrite(ulBase, ulEndpoint >> 4, USB_O_RXFIFOADD,
 12252              		.loc 1 2363 0
 12253 006c BB68     		ldr	r3, [r7, #8]
 12254 006e 4FEA1312 		lsr	r2, r3, #4
 12255 0072 7B68     		ldr	r3, [r7, #4]
 12256 0074 4FEAD303 		lsr	r3, r3, #3
 12257 0078 4FF00201 		mov	r1, #2
 12258 007c 0091     		str	r1, [sp, #0]
 12259 007e F868     		ldr	r0, [r7, #12]
 12260 0080 1146     		mov	r1, r2
 12261 0082 4FF06602 		mov	r2, #102
 12262 0086 FFF7FEFF 		bl	USBIndexWrite
 12263              	.L134:
2364:/home/cuil/workspace/arm/lm3s811/TI_Stellaris/driverlib/usb.c ****                       ulFIFOAddress >> 3, 2);
2365:/home/cuil/workspace/arm/lm3s811/TI_Stellaris/driverlib/usb.c ****     }
2366:/home/cuil/workspace/arm/lm3s811/TI_Stellaris/driverlib/usb.c **** }
 12264              		.loc 1 2366 0
 12265 008a 07F11007 		add	r7, r7, #16
 12266 008e BD46     		mov	sp, r7
 12267 0090 80BD     		pop	{r7, pc}
 12268              		.cfi_endproc
 12269              	.LFE31:
 12271 0092 00BF     		.section	.text.USBFIFOConfigGet,"ax",%progbits
 12272              		.align	2
 12273              		.global	USBFIFOConfigGet
 12274              		.thumb
 12275              		.thumb_func
 12277              	USBFIFOConfigGet:
 12278              	.LFB32:
2367:/home/cuil/workspace/arm/lm3s811/TI_Stellaris/driverlib/usb.c **** 
2368:/home/cuil/workspace/arm/lm3s811/TI_Stellaris/driverlib/usb.c **** //*****************************************************************************
2369:/home/cuil/workspace/arm/lm3s811/TI_Stellaris/driverlib/usb.c **** //
2370:/home/cuil/workspace/arm/lm3s811/TI_Stellaris/driverlib/usb.c **** //! Returns the FIFO configuration for an endpoint.
2371:/home/cuil/workspace/arm/lm3s811/TI_Stellaris/driverlib/usb.c **** //!
2372:/home/cuil/workspace/arm/lm3s811/TI_Stellaris/driverlib/usb.c **** //! \param ulBase specifies the USB module base address.
2373:/home/cuil/workspace/arm/lm3s811/TI_Stellaris/driverlib/usb.c **** //! \param ulEndpoint is the endpoint to access.
2374:/home/cuil/workspace/arm/lm3s811/TI_Stellaris/driverlib/usb.c **** //! \param pulFIFOAddress is the starting address for the FIFO.
2375:/home/cuil/workspace/arm/lm3s811/TI_Stellaris/driverlib/usb.c **** //! \param pulFIFOSize is the size of the FIFO as specified by one of the
2376:/home/cuil/workspace/arm/lm3s811/TI_Stellaris/driverlib/usb.c **** //! USB_FIFO_SZ_ values.
2377:/home/cuil/workspace/arm/lm3s811/TI_Stellaris/driverlib/usb.c **** //! \param ulFlags specifies what information to retrieve from the FIFO
2378:/home/cuil/workspace/arm/lm3s811/TI_Stellaris/driverlib/usb.c **** //! configuration.
2379:/home/cuil/workspace/arm/lm3s811/TI_Stellaris/driverlib/usb.c **** //!
2380:/home/cuil/workspace/arm/lm3s811/TI_Stellaris/driverlib/usb.c **** //! This function returns the starting address and size of the FIFO for a
2381:/home/cuil/workspace/arm/lm3s811/TI_Stellaris/driverlib/usb.c **** //! given endpoint.  Endpoint zero does not have a dynamically configurable
2382:/home/cuil/workspace/arm/lm3s811/TI_Stellaris/driverlib/usb.c **** //! FIFO, so this function should not be called for endpoint zero.  The
2383:/home/cuil/workspace/arm/lm3s811/TI_Stellaris/driverlib/usb.c **** //! \e ulFlags parameter specifies whether the endpoint's OUT or IN FIFO should
2384:/home/cuil/workspace/arm/lm3s811/TI_Stellaris/driverlib/usb.c **** //! be read.  If in host mode, the \e ulFlags parameter should be
2385:/home/cuil/workspace/arm/lm3s811/TI_Stellaris/driverlib/usb.c **** //! \b USB_EP_HOST_OUT or \b USB_EP_HOST_IN, and if in device mode, the
2386:/home/cuil/workspace/arm/lm3s811/TI_Stellaris/driverlib/usb.c **** //! \e ulFlags parameter should be either \b USB_EP_DEV_OUT or
2387:/home/cuil/workspace/arm/lm3s811/TI_Stellaris/driverlib/usb.c **** //! \b USB_EP_DEV_IN.
2388:/home/cuil/workspace/arm/lm3s811/TI_Stellaris/driverlib/usb.c **** //!
2389:/home/cuil/workspace/arm/lm3s811/TI_Stellaris/driverlib/usb.c **** //! \return None.
2390:/home/cuil/workspace/arm/lm3s811/TI_Stellaris/driverlib/usb.c **** //
2391:/home/cuil/workspace/arm/lm3s811/TI_Stellaris/driverlib/usb.c **** //*****************************************************************************
2392:/home/cuil/workspace/arm/lm3s811/TI_Stellaris/driverlib/usb.c **** void
2393:/home/cuil/workspace/arm/lm3s811/TI_Stellaris/driverlib/usb.c **** USBFIFOConfigGet(unsigned long ulBase, unsigned long ulEndpoint,
2394:/home/cuil/workspace/arm/lm3s811/TI_Stellaris/driverlib/usb.c ****                  unsigned long *pulFIFOAddress, unsigned long *pulFIFOSize,
2395:/home/cuil/workspace/arm/lm3s811/TI_Stellaris/driverlib/usb.c ****                  unsigned long ulFlags)
2396:/home/cuil/workspace/arm/lm3s811/TI_Stellaris/driverlib/usb.c **** {
 12279              		.loc 1 2396 0
 12280              		.cfi_startproc
 12281              		@ args = 4, pretend = 0, frame = 16
 12282              		@ frame_needed = 1, uses_anonymous_args = 0
 12283 0000 80B5     		push	{r7, lr}
 12284              	.LCFI96:
 12285              		.cfi_def_cfa_offset 8
 12286 0002 84B0     		sub	sp, sp, #16
 12287              	.LCFI97:
 12288              		.cfi_def_cfa_offset 24
 12289 0004 00AF     		add	r7, sp, #0
 12290              		.cfi_offset 14, -4
 12291              		.cfi_offset 7, -8
 12292              	.LCFI98:
 12293              		.cfi_def_cfa_register 7
 12294 0006 F860     		str	r0, [r7, #12]
 12295 0008 B960     		str	r1, [r7, #8]
 12296 000a 7A60     		str	r2, [r7, #4]
 12297 000c 3B60     		str	r3, [r7, #0]
2397:/home/cuil/workspace/arm/lm3s811/TI_Stellaris/driverlib/usb.c ****     //
2398:/home/cuil/workspace/arm/lm3s811/TI_Stellaris/driverlib/usb.c ****     // Check the arguments.
2399:/home/cuil/workspace/arm/lm3s811/TI_Stellaris/driverlib/usb.c ****     //
2400:/home/cuil/workspace/arm/lm3s811/TI_Stellaris/driverlib/usb.c ****     ASSERT(ulBase == USB0_BASE);
2401:/home/cuil/workspace/arm/lm3s811/TI_Stellaris/driverlib/usb.c ****     ASSERT((ulEndpoint == USB_EP_1) || (ulEndpoint == USB_EP_2) ||
2402:/home/cuil/workspace/arm/lm3s811/TI_Stellaris/driverlib/usb.c ****            (ulEndpoint == USB_EP_3) || (ulEndpoint == USB_EP_4) ||
2403:/home/cuil/workspace/arm/lm3s811/TI_Stellaris/driverlib/usb.c ****            (ulEndpoint == USB_EP_5) || (ulEndpoint == USB_EP_6) ||
2404:/home/cuil/workspace/arm/lm3s811/TI_Stellaris/driverlib/usb.c ****            (ulEndpoint == USB_EP_7) || (ulEndpoint == USB_EP_8) ||
2405:/home/cuil/workspace/arm/lm3s811/TI_Stellaris/driverlib/usb.c ****            (ulEndpoint == USB_EP_9) || (ulEndpoint == USB_EP_10) ||
2406:/home/cuil/workspace/arm/lm3s811/TI_Stellaris/driverlib/usb.c ****            (ulEndpoint == USB_EP_11) || (ulEndpoint == USB_EP_12) ||
2407:/home/cuil/workspace/arm/lm3s811/TI_Stellaris/driverlib/usb.c ****            (ulEndpoint == USB_EP_13) || (ulEndpoint == USB_EP_14) ||
2408:/home/cuil/workspace/arm/lm3s811/TI_Stellaris/driverlib/usb.c ****            (ulEndpoint == USB_EP_15));
2409:/home/cuil/workspace/arm/lm3s811/TI_Stellaris/driverlib/usb.c **** 
2410:/home/cuil/workspace/arm/lm3s811/TI_Stellaris/driverlib/usb.c ****     //
2411:/home/cuil/workspace/arm/lm3s811/TI_Stellaris/driverlib/usb.c ****     // See if the transmit or receive FIFO is being configured.
2412:/home/cuil/workspace/arm/lm3s811/TI_Stellaris/driverlib/usb.c ****     //
2413:/home/cuil/workspace/arm/lm3s811/TI_Stellaris/driverlib/usb.c ****     if(ulFlags & (USB_EP_HOST_OUT | USB_EP_DEV_IN))
 12298              		.loc 1 2413 0
 12299 000e BB69     		ldr	r3, [r7, #24]
 12300 0010 03F40053 		and	r3, r3, #8192
 12301 0014 002B     		cmp	r3, #0
 12302 0016 1ED0     		beq	.L138
2414:/home/cuil/workspace/arm/lm3s811/TI_Stellaris/driverlib/usb.c ****     {
2415:/home/cuil/workspace/arm/lm3s811/TI_Stellaris/driverlib/usb.c ****         //
2416:/home/cuil/workspace/arm/lm3s811/TI_Stellaris/driverlib/usb.c ****         // Get the transmit FIFO location and size for this endpoint.
2417:/home/cuil/workspace/arm/lm3s811/TI_Stellaris/driverlib/usb.c ****         //
2418:/home/cuil/workspace/arm/lm3s811/TI_Stellaris/driverlib/usb.c ****         *pulFIFOAddress = (USBIndexRead(ulBase, ulEndpoint >> 4,
 12303              		.loc 1 2418 0
 12304 0018 BB68     		ldr	r3, [r7, #8]
 12305 001a 4FEA1313 		lsr	r3, r3, #4
 12306 001e F868     		ldr	r0, [r7, #12]
 12307 0020 1946     		mov	r1, r3
 12308 0022 4FF06402 		mov	r2, #100
 12309 0026 4FF00203 		mov	r3, #2
 12310 002a FFF7FEFF 		bl	USBIndexRead
 12311 002e 0346     		mov	r3, r0
2419:/home/cuil/workspace/arm/lm3s811/TI_Stellaris/driverlib/usb.c ****                                         (unsigned long)USB_O_TXFIFOADD,
2420:/home/cuil/workspace/arm/lm3s811/TI_Stellaris/driverlib/usb.c ****                                         2)) << 3;
 12312              		.loc 1 2420 0
 12313 0030 4FEAC302 		lsl	r2, r3, #3
2418:/home/cuil/workspace/arm/lm3s811/TI_Stellaris/driverlib/usb.c ****         *pulFIFOAddress = (USBIndexRead(ulBase, ulEndpoint >> 4,
 12314              		.loc 1 2418 0
 12315 0034 7B68     		ldr	r3, [r7, #4]
 12316 0036 1A60     		str	r2, [r3, #0]
2421:/home/cuil/workspace/arm/lm3s811/TI_Stellaris/driverlib/usb.c ****         *pulFIFOSize = USBIndexRead(ulBase, ulEndpoint >> 4,
 12317              		.loc 1 2421 0
 12318 0038 BB68     		ldr	r3, [r7, #8]
 12319 003a 4FEA1313 		lsr	r3, r3, #4
 12320 003e F868     		ldr	r0, [r7, #12]
 12321 0040 1946     		mov	r1, r3
 12322 0042 4FF06202 		mov	r2, #98
 12323 0046 4FF00103 		mov	r3, #1
 12324 004a FFF7FEFF 		bl	USBIndexRead
 12325 004e 0246     		mov	r2, r0
 12326 0050 3B68     		ldr	r3, [r7, #0]
 12327 0052 1A60     		str	r2, [r3, #0]
 12328 0054 1DE0     		b	.L137
 12329              	.L138:
2422:/home/cuil/workspace/arm/lm3s811/TI_Stellaris/driverlib/usb.c ****                                     (unsigned long)USB_O_TXFIFOSZ, 1);
2423:/home/cuil/workspace/arm/lm3s811/TI_Stellaris/driverlib/usb.c **** 
2424:/home/cuil/workspace/arm/lm3s811/TI_Stellaris/driverlib/usb.c ****     }
2425:/home/cuil/workspace/arm/lm3s811/TI_Stellaris/driverlib/usb.c ****     else
2426:/home/cuil/workspace/arm/lm3s811/TI_Stellaris/driverlib/usb.c ****     {
2427:/home/cuil/workspace/arm/lm3s811/TI_Stellaris/driverlib/usb.c ****         //
2428:/home/cuil/workspace/arm/lm3s811/TI_Stellaris/driverlib/usb.c ****         // Get the receive FIFO location and size for this endpoint.
2429:/home/cuil/workspace/arm/lm3s811/TI_Stellaris/driverlib/usb.c ****         //
2430:/home/cuil/workspace/arm/lm3s811/TI_Stellaris/driverlib/usb.c ****         *pulFIFOAddress = (USBIndexRead(ulBase, ulEndpoint >> 4,
 12330              		.loc 1 2430 0
 12331 0056 BB68     		ldr	r3, [r7, #8]
 12332 0058 4FEA1313 		lsr	r3, r3, #4
 12333 005c F868     		ldr	r0, [r7, #12]
 12334 005e 1946     		mov	r1, r3
 12335 0060 4FF06602 		mov	r2, #102
 12336 0064 4FF00203 		mov	r3, #2
 12337 0068 FFF7FEFF 		bl	USBIndexRead
 12338 006c 0346     		mov	r3, r0
2431:/home/cuil/workspace/arm/lm3s811/TI_Stellaris/driverlib/usb.c ****                                         (unsigned long)USB_O_RXFIFOADD,
2432:/home/cuil/workspace/arm/lm3s811/TI_Stellaris/driverlib/usb.c ****                                         2)) << 3;
 12339              		.loc 1 2432 0
 12340 006e 4FEAC302 		lsl	r2, r3, #3
2430:/home/cuil/workspace/arm/lm3s811/TI_Stellaris/driverlib/usb.c ****         *pulFIFOAddress = (USBIndexRead(ulBase, ulEndpoint >> 4,
 12341              		.loc 1 2430 0
 12342 0072 7B68     		ldr	r3, [r7, #4]
 12343 0074 1A60     		str	r2, [r3, #0]
2433:/home/cuil/workspace/arm/lm3s811/TI_Stellaris/driverlib/usb.c ****         *pulFIFOSize = USBIndexRead(ulBase, ulEndpoint >> 4,
 12344              		.loc 1 2433 0
 12345 0076 BB68     		ldr	r3, [r7, #8]
 12346 0078 4FEA1313 		lsr	r3, r3, #4
 12347 007c F868     		ldr	r0, [r7, #12]
 12348 007e 1946     		mov	r1, r3
 12349 0080 4FF06302 		mov	r2, #99
 12350 0084 4FF00103 		mov	r3, #1
 12351 0088 FFF7FEFF 		bl	USBIndexRead
 12352 008c 0246     		mov	r2, r0
 12353 008e 3B68     		ldr	r3, [r7, #0]
 12354 0090 1A60     		str	r2, [r3, #0]
 12355              	.L137:
2434:/home/cuil/workspace/arm/lm3s811/TI_Stellaris/driverlib/usb.c ****                                     (unsigned long)USB_O_RXFIFOSZ, 1);
2435:/home/cuil/workspace/arm/lm3s811/TI_Stellaris/driverlib/usb.c ****     }
2436:/home/cuil/workspace/arm/lm3s811/TI_Stellaris/driverlib/usb.c **** }
 12356              		.loc 1 2436 0
 12357 0092 07F11007 		add	r7, r7, #16
 12358 0096 BD46     		mov	sp, r7
 12359 0098 80BD     		pop	{r7, pc}
 12360              		.cfi_endproc
 12361              	.LFE32:
 12363 009a 00BF     		.section	.text.USBEndpointDMAEnable,"ax",%progbits
 12364              		.align	2
 12365              		.global	USBEndpointDMAEnable
 12366              		.thumb
 12367              		.thumb_func
 12369              	USBEndpointDMAEnable:
 12370              	.LFB33:
2437:/home/cuil/workspace/arm/lm3s811/TI_Stellaris/driverlib/usb.c **** 
2438:/home/cuil/workspace/arm/lm3s811/TI_Stellaris/driverlib/usb.c **** //*****************************************************************************
2439:/home/cuil/workspace/arm/lm3s811/TI_Stellaris/driverlib/usb.c **** //
2440:/home/cuil/workspace/arm/lm3s811/TI_Stellaris/driverlib/usb.c **** //! Enable DMA on a given endpoint.
2441:/home/cuil/workspace/arm/lm3s811/TI_Stellaris/driverlib/usb.c **** //!
2442:/home/cuil/workspace/arm/lm3s811/TI_Stellaris/driverlib/usb.c **** //! \param ulBase specifies the USB module base address.
2443:/home/cuil/workspace/arm/lm3s811/TI_Stellaris/driverlib/usb.c **** //! \param ulEndpoint is the endpoint to access.
2444:/home/cuil/workspace/arm/lm3s811/TI_Stellaris/driverlib/usb.c **** //! \param ulFlags specifies which direction and what mode to use when enabling
2445:/home/cuil/workspace/arm/lm3s811/TI_Stellaris/driverlib/usb.c **** //! DMA.
2446:/home/cuil/workspace/arm/lm3s811/TI_Stellaris/driverlib/usb.c **** //!
2447:/home/cuil/workspace/arm/lm3s811/TI_Stellaris/driverlib/usb.c **** //! This function enables DMA on a given endpoint and configures the mode
2448:/home/cuil/workspace/arm/lm3s811/TI_Stellaris/driverlib/usb.c **** //! according to the values in the \e ulFlags parameter.  The \e ulFlags
2449:/home/cuil/workspace/arm/lm3s811/TI_Stellaris/driverlib/usb.c **** //! parameter should have \b USB_EP_DEV_IN or \b USB_EP_DEV_OUT set.
2450:/home/cuil/workspace/arm/lm3s811/TI_Stellaris/driverlib/usb.c **** //!
2451:/home/cuil/workspace/arm/lm3s811/TI_Stellaris/driverlib/usb.c **** //! \return None.
2452:/home/cuil/workspace/arm/lm3s811/TI_Stellaris/driverlib/usb.c **** //
2453:/home/cuil/workspace/arm/lm3s811/TI_Stellaris/driverlib/usb.c **** //*****************************************************************************
2454:/home/cuil/workspace/arm/lm3s811/TI_Stellaris/driverlib/usb.c **** void
2455:/home/cuil/workspace/arm/lm3s811/TI_Stellaris/driverlib/usb.c **** USBEndpointDMAEnable(unsigned long ulBase, unsigned long ulEndpoint,
2456:/home/cuil/workspace/arm/lm3s811/TI_Stellaris/driverlib/usb.c ****                      unsigned long ulFlags)
2457:/home/cuil/workspace/arm/lm3s811/TI_Stellaris/driverlib/usb.c **** {
 12371              		.loc 1 2457 0
 12372              		.cfi_startproc
 12373              		@ args = 0, pretend = 0, frame = 16
 12374              		@ frame_needed = 1, uses_anonymous_args = 0
 12375              		@ link register save eliminated.
 12376 0000 80B4     		push	{r7}
 12377              	.LCFI99:
 12378              		.cfi_def_cfa_offset 4
 12379 0002 85B0     		sub	sp, sp, #20
 12380              	.LCFI100:
 12381              		.cfi_def_cfa_offset 24
 12382 0004 00AF     		add	r7, sp, #0
 12383              		.cfi_offset 7, -4
 12384              	.LCFI101:
 12385              		.cfi_def_cfa_register 7
 12386 0006 F860     		str	r0, [r7, #12]
 12387 0008 B960     		str	r1, [r7, #8]
 12388 000a 7A60     		str	r2, [r7, #4]
2458:/home/cuil/workspace/arm/lm3s811/TI_Stellaris/driverlib/usb.c ****     //
2459:/home/cuil/workspace/arm/lm3s811/TI_Stellaris/driverlib/usb.c ****     // See if the transmit DMA is being enabled.
2460:/home/cuil/workspace/arm/lm3s811/TI_Stellaris/driverlib/usb.c ****     //
2461:/home/cuil/workspace/arm/lm3s811/TI_Stellaris/driverlib/usb.c ****     if(ulFlags & USB_EP_DEV_IN)
 12389              		.loc 1 2461 0
 12390 000c 7B68     		ldr	r3, [r7, #4]
 12391 000e 03F40053 		and	r3, r3, #8192
 12392 0012 002B     		cmp	r3, #0
 12393 0014 15D0     		beq	.L141
2462:/home/cuil/workspace/arm/lm3s811/TI_Stellaris/driverlib/usb.c ****     {
2463:/home/cuil/workspace/arm/lm3s811/TI_Stellaris/driverlib/usb.c ****         //
2464:/home/cuil/workspace/arm/lm3s811/TI_Stellaris/driverlib/usb.c ****         // Enable DMA on the transmit endpoint.
2465:/home/cuil/workspace/arm/lm3s811/TI_Stellaris/driverlib/usb.c ****         //
2466:/home/cuil/workspace/arm/lm3s811/TI_Stellaris/driverlib/usb.c ****         HWREGB(ulBase + EP_OFFSET(ulEndpoint) + USB_O_TXCSRH1) |=
 12394              		.loc 1 2466 0
 12395 0016 BA68     		ldr	r2, [r7, #8]
 12396 0018 FB68     		ldr	r3, [r7, #12]
 12397 001a D318     		adds	r3, r2, r3
 12398 001c 03F58073 		add	r3, r3, #256
 12399 0020 03F10303 		add	r3, r3, #3
 12400 0024 1A46     		mov	r2, r3
 12401 0026 B968     		ldr	r1, [r7, #8]
 12402 0028 FB68     		ldr	r3, [r7, #12]
 12403 002a CB18     		adds	r3, r1, r3
 12404 002c 03F58073 		add	r3, r3, #256
 12405 0030 03F10303 		add	r3, r3, #3
 12406 0034 1B78     		ldrb	r3, [r3, #0]
 12407 0036 DBB2     		uxtb	r3, r3
 12408 0038 43F01003 		orr	r3, r3, #16
 12409 003c DBB2     		uxtb	r3, r3
 12410 003e 1370     		strb	r3, [r2, #0]
 12411 0040 14E0     		b	.L140
 12412              	.L141:
2467:/home/cuil/workspace/arm/lm3s811/TI_Stellaris/driverlib/usb.c ****             USB_TXCSRH1_DMAEN;
2468:/home/cuil/workspace/arm/lm3s811/TI_Stellaris/driverlib/usb.c ****     }
2469:/home/cuil/workspace/arm/lm3s811/TI_Stellaris/driverlib/usb.c ****     else
2470:/home/cuil/workspace/arm/lm3s811/TI_Stellaris/driverlib/usb.c ****     {
2471:/home/cuil/workspace/arm/lm3s811/TI_Stellaris/driverlib/usb.c ****         //
2472:/home/cuil/workspace/arm/lm3s811/TI_Stellaris/driverlib/usb.c ****         // Enable DMA on the receive endpoint.
2473:/home/cuil/workspace/arm/lm3s811/TI_Stellaris/driverlib/usb.c ****         //
2474:/home/cuil/workspace/arm/lm3s811/TI_Stellaris/driverlib/usb.c ****         HWREGB(ulBase + EP_OFFSET(ulEndpoint) + USB_O_RXCSRH1) |=
 12413              		.loc 1 2474 0
 12414 0042 BA68     		ldr	r2, [r7, #8]
 12415 0044 FB68     		ldr	r3, [r7, #12]
 12416 0046 D318     		adds	r3, r2, r3
 12417 0048 03F58273 		add	r3, r3, #260
 12418 004c 03F10303 		add	r3, r3, #3
 12419 0050 1A46     		mov	r2, r3
 12420 0052 B968     		ldr	r1, [r7, #8]
 12421 0054 FB68     		ldr	r3, [r7, #12]
 12422 0056 CB18     		adds	r3, r1, r3
 12423 0058 03F58273 		add	r3, r3, #260
 12424 005c 03F10303 		add	r3, r3, #3
 12425 0060 1B78     		ldrb	r3, [r3, #0]
 12426 0062 DBB2     		uxtb	r3, r3
 12427 0064 43F02003 		orr	r3, r3, #32
 12428 0068 DBB2     		uxtb	r3, r3
 12429 006a 1370     		strb	r3, [r2, #0]
 12430              	.L140:
2475:/home/cuil/workspace/arm/lm3s811/TI_Stellaris/driverlib/usb.c ****             USB_RXCSRH1_DMAEN;
2476:/home/cuil/workspace/arm/lm3s811/TI_Stellaris/driverlib/usb.c ****     }
2477:/home/cuil/workspace/arm/lm3s811/TI_Stellaris/driverlib/usb.c **** }
 12431              		.loc 1 2477 0
 12432 006c 07F11407 		add	r7, r7, #20
 12433 0070 BD46     		mov	sp, r7
 12434 0072 80BC     		pop	{r7}
 12435 0074 7047     		bx	lr
 12436              		.cfi_endproc
 12437              	.LFE33:
 12439 0076 00BF     		.section	.text.USBEndpointDMADisable,"ax",%progbits
 12440              		.align	2
 12441              		.global	USBEndpointDMADisable
 12442              		.thumb
 12443              		.thumb_func
 12445              	USBEndpointDMADisable:
 12446              	.LFB34:
2478:/home/cuil/workspace/arm/lm3s811/TI_Stellaris/driverlib/usb.c **** 
2479:/home/cuil/workspace/arm/lm3s811/TI_Stellaris/driverlib/usb.c **** //*****************************************************************************
2480:/home/cuil/workspace/arm/lm3s811/TI_Stellaris/driverlib/usb.c **** //
2481:/home/cuil/workspace/arm/lm3s811/TI_Stellaris/driverlib/usb.c **** //! Disable DMA on a given endpoint.
2482:/home/cuil/workspace/arm/lm3s811/TI_Stellaris/driverlib/usb.c **** //!
2483:/home/cuil/workspace/arm/lm3s811/TI_Stellaris/driverlib/usb.c **** //! \param ulBase specifies the USB module base address.
2484:/home/cuil/workspace/arm/lm3s811/TI_Stellaris/driverlib/usb.c **** //! \param ulEndpoint is the endpoint to access.
2485:/home/cuil/workspace/arm/lm3s811/TI_Stellaris/driverlib/usb.c **** //! \param ulFlags specifies which direction to disable.
2486:/home/cuil/workspace/arm/lm3s811/TI_Stellaris/driverlib/usb.c **** //!
2487:/home/cuil/workspace/arm/lm3s811/TI_Stellaris/driverlib/usb.c **** //! This function disables DMA on a given endpoint to allow non-DMA USB
2488:/home/cuil/workspace/arm/lm3s811/TI_Stellaris/driverlib/usb.c **** //! transactions to generate interrupts normally.  The ulFlags should be
2489:/home/cuil/workspace/arm/lm3s811/TI_Stellaris/driverlib/usb.c **** //! \b USB_EP_DEV_IN or \b USB_EP_DEV_OUT; all other bits are ignored.
2490:/home/cuil/workspace/arm/lm3s811/TI_Stellaris/driverlib/usb.c **** //!
2491:/home/cuil/workspace/arm/lm3s811/TI_Stellaris/driverlib/usb.c **** //! \return None.
2492:/home/cuil/workspace/arm/lm3s811/TI_Stellaris/driverlib/usb.c **** //
2493:/home/cuil/workspace/arm/lm3s811/TI_Stellaris/driverlib/usb.c **** //*****************************************************************************
2494:/home/cuil/workspace/arm/lm3s811/TI_Stellaris/driverlib/usb.c **** void
2495:/home/cuil/workspace/arm/lm3s811/TI_Stellaris/driverlib/usb.c **** USBEndpointDMADisable(unsigned long ulBase, unsigned long ulEndpoint,
2496:/home/cuil/workspace/arm/lm3s811/TI_Stellaris/driverlib/usb.c ****                       unsigned long ulFlags)
2497:/home/cuil/workspace/arm/lm3s811/TI_Stellaris/driverlib/usb.c **** {
 12447              		.loc 1 2497 0
 12448              		.cfi_startproc
 12449              		@ args = 0, pretend = 0, frame = 16
 12450              		@ frame_needed = 1, uses_anonymous_args = 0
 12451              		@ link register save eliminated.
 12452 0000 80B4     		push	{r7}
 12453              	.LCFI102:
 12454              		.cfi_def_cfa_offset 4
 12455 0002 85B0     		sub	sp, sp, #20
 12456              	.LCFI103:
 12457              		.cfi_def_cfa_offset 24
 12458 0004 00AF     		add	r7, sp, #0
 12459              		.cfi_offset 7, -4
 12460              	.LCFI104:
 12461              		.cfi_def_cfa_register 7
 12462 0006 F860     		str	r0, [r7, #12]
 12463 0008 B960     		str	r1, [r7, #8]
 12464 000a 7A60     		str	r2, [r7, #4]
2498:/home/cuil/workspace/arm/lm3s811/TI_Stellaris/driverlib/usb.c ****     //
2499:/home/cuil/workspace/arm/lm3s811/TI_Stellaris/driverlib/usb.c ****     // If this was a request to disable DMA on the IN portion of the endpoint
2500:/home/cuil/workspace/arm/lm3s811/TI_Stellaris/driverlib/usb.c ****     // then handle it.
2501:/home/cuil/workspace/arm/lm3s811/TI_Stellaris/driverlib/usb.c ****     //
2502:/home/cuil/workspace/arm/lm3s811/TI_Stellaris/driverlib/usb.c ****     if(ulFlags & USB_EP_DEV_IN)
 12465              		.loc 1 2502 0
 12466 000c 7B68     		ldr	r3, [r7, #4]
 12467 000e 03F40053 		and	r3, r3, #8192
 12468 0012 002B     		cmp	r3, #0
 12469 0014 15D0     		beq	.L144
2503:/home/cuil/workspace/arm/lm3s811/TI_Stellaris/driverlib/usb.c ****     {
2504:/home/cuil/workspace/arm/lm3s811/TI_Stellaris/driverlib/usb.c ****         //
2505:/home/cuil/workspace/arm/lm3s811/TI_Stellaris/driverlib/usb.c ****         // Just disable DMA leave the mode setting.
2506:/home/cuil/workspace/arm/lm3s811/TI_Stellaris/driverlib/usb.c ****         //
2507:/home/cuil/workspace/arm/lm3s811/TI_Stellaris/driverlib/usb.c ****         HWREGB(ulBase + EP_OFFSET(ulEndpoint) + USB_O_TXCSRH1) &=
 12470              		.loc 1 2507 0
 12471 0016 BA68     		ldr	r2, [r7, #8]
 12472 0018 FB68     		ldr	r3, [r7, #12]
 12473 001a D318     		adds	r3, r2, r3
 12474 001c 03F58073 		add	r3, r3, #256
 12475 0020 03F10303 		add	r3, r3, #3
 12476 0024 1A46     		mov	r2, r3
 12477 0026 B968     		ldr	r1, [r7, #8]
 12478 0028 FB68     		ldr	r3, [r7, #12]
 12479 002a CB18     		adds	r3, r1, r3
 12480 002c 03F58073 		add	r3, r3, #256
 12481 0030 03F10303 		add	r3, r3, #3
 12482 0034 1B78     		ldrb	r3, [r3, #0]
 12483 0036 DBB2     		uxtb	r3, r3
 12484 0038 23F01003 		bic	r3, r3, #16
 12485 003c DBB2     		uxtb	r3, r3
 12486 003e 1370     		strb	r3, [r2, #0]
 12487 0040 14E0     		b	.L143
 12488              	.L144:
2508:/home/cuil/workspace/arm/lm3s811/TI_Stellaris/driverlib/usb.c ****                ~USB_TXCSRH1_DMAEN;
2509:/home/cuil/workspace/arm/lm3s811/TI_Stellaris/driverlib/usb.c ****     }
2510:/home/cuil/workspace/arm/lm3s811/TI_Stellaris/driverlib/usb.c ****     else
2511:/home/cuil/workspace/arm/lm3s811/TI_Stellaris/driverlib/usb.c ****     {
2512:/home/cuil/workspace/arm/lm3s811/TI_Stellaris/driverlib/usb.c ****         //
2513:/home/cuil/workspace/arm/lm3s811/TI_Stellaris/driverlib/usb.c ****         // Just disable DMA leave the mode setting.
2514:/home/cuil/workspace/arm/lm3s811/TI_Stellaris/driverlib/usb.c ****         //
2515:/home/cuil/workspace/arm/lm3s811/TI_Stellaris/driverlib/usb.c ****         HWREGB(ulBase + EP_OFFSET(ulEndpoint) + USB_O_RXCSRH1) &=
 12489              		.loc 1 2515 0
 12490 0042 BA68     		ldr	r2, [r7, #8]
 12491 0044 FB68     		ldr	r3, [r7, #12]
 12492 0046 D318     		adds	r3, r2, r3
 12493 0048 03F58273 		add	r3, r3, #260
 12494 004c 03F10303 		add	r3, r3, #3
 12495 0050 1A46     		mov	r2, r3
 12496 0052 B968     		ldr	r1, [r7, #8]
 12497 0054 FB68     		ldr	r3, [r7, #12]
 12498 0056 CB18     		adds	r3, r1, r3
 12499 0058 03F58273 		add	r3, r3, #260
 12500 005c 03F10303 		add	r3, r3, #3
 12501 0060 1B78     		ldrb	r3, [r3, #0]
 12502 0062 DBB2     		uxtb	r3, r3
 12503 0064 23F02003 		bic	r3, r3, #32
 12504 0068 DBB2     		uxtb	r3, r3
 12505 006a 1370     		strb	r3, [r2, #0]
 12506              	.L143:
2516:/home/cuil/workspace/arm/lm3s811/TI_Stellaris/driverlib/usb.c ****                ~USB_RXCSRH1_DMAEN;
2517:/home/cuil/workspace/arm/lm3s811/TI_Stellaris/driverlib/usb.c ****     }
2518:/home/cuil/workspace/arm/lm3s811/TI_Stellaris/driverlib/usb.c **** }
 12507              		.loc 1 2518 0
 12508 006c 07F11407 		add	r7, r7, #20
 12509 0070 BD46     		mov	sp, r7
 12510 0072 80BC     		pop	{r7}
 12511 0074 7047     		bx	lr
 12512              		.cfi_endproc
 12513              	.LFE34:
 12515 0076 00BF     		.section	.text.USBEndpointDataAvail,"ax",%progbits
 12516              		.align	2
 12517              		.global	USBEndpointDataAvail
 12518              		.thumb
 12519              		.thumb_func
 12521              	USBEndpointDataAvail:
 12522              	.LFB35:
2519:/home/cuil/workspace/arm/lm3s811/TI_Stellaris/driverlib/usb.c **** 
2520:/home/cuil/workspace/arm/lm3s811/TI_Stellaris/driverlib/usb.c **** //*****************************************************************************
2521:/home/cuil/workspace/arm/lm3s811/TI_Stellaris/driverlib/usb.c **** //
2522:/home/cuil/workspace/arm/lm3s811/TI_Stellaris/driverlib/usb.c **** //! Determine the number of bytes of data available in a given endpoint's FIFO.
2523:/home/cuil/workspace/arm/lm3s811/TI_Stellaris/driverlib/usb.c **** //!
2524:/home/cuil/workspace/arm/lm3s811/TI_Stellaris/driverlib/usb.c **** //! \param ulBase specifies the USB module base address.
2525:/home/cuil/workspace/arm/lm3s811/TI_Stellaris/driverlib/usb.c **** //! \param ulEndpoint is the endpoint to access.
2526:/home/cuil/workspace/arm/lm3s811/TI_Stellaris/driverlib/usb.c **** //!
2527:/home/cuil/workspace/arm/lm3s811/TI_Stellaris/driverlib/usb.c **** //! This function returns the number of bytes of data currently available in 
2528:/home/cuil/workspace/arm/lm3s811/TI_Stellaris/driverlib/usb.c **** //! the FIFO for the given receive (OUT) endpoint.  It may be used prior to
2529:/home/cuil/workspace/arm/lm3s811/TI_Stellaris/driverlib/usb.c **** //! calling USBEndpointDataGet() to determine the size of buffer required to
2530:/home/cuil/workspace/arm/lm3s811/TI_Stellaris/driverlib/usb.c **** //! hold the newly-received packet.
2531:/home/cuil/workspace/arm/lm3s811/TI_Stellaris/driverlib/usb.c **** //!
2532:/home/cuil/workspace/arm/lm3s811/TI_Stellaris/driverlib/usb.c **** //! \return This call returns the number of bytes available in a given endpoint
2533:/home/cuil/workspace/arm/lm3s811/TI_Stellaris/driverlib/usb.c **** //! FIFO.
2534:/home/cuil/workspace/arm/lm3s811/TI_Stellaris/driverlib/usb.c **** //
2535:/home/cuil/workspace/arm/lm3s811/TI_Stellaris/driverlib/usb.c **** //*****************************************************************************
2536:/home/cuil/workspace/arm/lm3s811/TI_Stellaris/driverlib/usb.c **** unsigned long
2537:/home/cuil/workspace/arm/lm3s811/TI_Stellaris/driverlib/usb.c **** USBEndpointDataAvail(unsigned long ulBase, unsigned long ulEndpoint)
2538:/home/cuil/workspace/arm/lm3s811/TI_Stellaris/driverlib/usb.c **** {
 12523              		.loc 1 2538 0
 12524              		.cfi_startproc
 12525              		@ args = 0, pretend = 0, frame = 16
 12526              		@ frame_needed = 1, uses_anonymous_args = 0
 12527              		@ link register save eliminated.
 12528 0000 80B4     		push	{r7}
 12529              	.LCFI105:
 12530              		.cfi_def_cfa_offset 4
 12531 0002 85B0     		sub	sp, sp, #20
 12532              	.LCFI106:
 12533              		.cfi_def_cfa_offset 24
 12534 0004 00AF     		add	r7, sp, #0
 12535              		.cfi_offset 7, -4
 12536              	.LCFI107:
 12537              		.cfi_def_cfa_register 7
 12538 0006 7860     		str	r0, [r7, #4]
 12539 0008 3960     		str	r1, [r7, #0]
2539:/home/cuil/workspace/arm/lm3s811/TI_Stellaris/driverlib/usb.c ****     unsigned long ulRegister;
2540:/home/cuil/workspace/arm/lm3s811/TI_Stellaris/driverlib/usb.c **** 
2541:/home/cuil/workspace/arm/lm3s811/TI_Stellaris/driverlib/usb.c ****     //
2542:/home/cuil/workspace/arm/lm3s811/TI_Stellaris/driverlib/usb.c ****     // Check the arguments.
2543:/home/cuil/workspace/arm/lm3s811/TI_Stellaris/driverlib/usb.c ****     //
2544:/home/cuil/workspace/arm/lm3s811/TI_Stellaris/driverlib/usb.c ****     ASSERT(ulBase == USB0_BASE);
2545:/home/cuil/workspace/arm/lm3s811/TI_Stellaris/driverlib/usb.c ****     ASSERT((ulEndpoint == USB_EP_0) || (ulEndpoint == USB_EP_1) ||
2546:/home/cuil/workspace/arm/lm3s811/TI_Stellaris/driverlib/usb.c ****            (ulEndpoint == USB_EP_2) || (ulEndpoint == USB_EP_3) ||
2547:/home/cuil/workspace/arm/lm3s811/TI_Stellaris/driverlib/usb.c ****            (ulEndpoint == USB_EP_4) || (ulEndpoint == USB_EP_5) ||
2548:/home/cuil/workspace/arm/lm3s811/TI_Stellaris/driverlib/usb.c ****            (ulEndpoint == USB_EP_6) || (ulEndpoint == USB_EP_7) ||
2549:/home/cuil/workspace/arm/lm3s811/TI_Stellaris/driverlib/usb.c ****            (ulEndpoint == USB_EP_8) || (ulEndpoint == USB_EP_9) ||
2550:/home/cuil/workspace/arm/lm3s811/TI_Stellaris/driverlib/usb.c ****            (ulEndpoint == USB_EP_10) || (ulEndpoint == USB_EP_11) ||
2551:/home/cuil/workspace/arm/lm3s811/TI_Stellaris/driverlib/usb.c ****            (ulEndpoint == USB_EP_12) || (ulEndpoint == USB_EP_13) ||
2552:/home/cuil/workspace/arm/lm3s811/TI_Stellaris/driverlib/usb.c ****            (ulEndpoint == USB_EP_14) || (ulEndpoint == USB_EP_15));
2553:/home/cuil/workspace/arm/lm3s811/TI_Stellaris/driverlib/usb.c **** 
2554:/home/cuil/workspace/arm/lm3s811/TI_Stellaris/driverlib/usb.c ****     //
2555:/home/cuil/workspace/arm/lm3s811/TI_Stellaris/driverlib/usb.c ****     // Get the address of the receive status register to use, based on the
2556:/home/cuil/workspace/arm/lm3s811/TI_Stellaris/driverlib/usb.c ****     // endpoint.
2557:/home/cuil/workspace/arm/lm3s811/TI_Stellaris/driverlib/usb.c ****     //
2558:/home/cuil/workspace/arm/lm3s811/TI_Stellaris/driverlib/usb.c ****     if(ulEndpoint == USB_EP_0)
 12540              		.loc 1 2558 0
 12541 000a 3B68     		ldr	r3, [r7, #0]
 12542 000c 002B     		cmp	r3, #0
 12543 000e 03D1     		bne	.L147
2559:/home/cuil/workspace/arm/lm3s811/TI_Stellaris/driverlib/usb.c ****     {
2560:/home/cuil/workspace/arm/lm3s811/TI_Stellaris/driverlib/usb.c ****         ulRegister = USB_O_CSRL0;
 12544              		.loc 1 2560 0
 12545 0010 4FF48173 		mov	r3, #258
 12546 0014 FB60     		str	r3, [r7, #12]
 12547 0016 03E0     		b	.L148
 12548              	.L147:
2561:/home/cuil/workspace/arm/lm3s811/TI_Stellaris/driverlib/usb.c ****     }
2562:/home/cuil/workspace/arm/lm3s811/TI_Stellaris/driverlib/usb.c ****     else
2563:/home/cuil/workspace/arm/lm3s811/TI_Stellaris/driverlib/usb.c ****     {
2564:/home/cuil/workspace/arm/lm3s811/TI_Stellaris/driverlib/usb.c ****         ulRegister = USB_O_RXCSRL1 + EP_OFFSET(ulEndpoint);
 12549              		.loc 1 2564 0
 12550 0018 3B68     		ldr	r3, [r7, #0]
 12551 001a 03F58373 		add	r3, r3, #262
 12552 001e FB60     		str	r3, [r7, #12]
 12553              	.L148:
2565:/home/cuil/workspace/arm/lm3s811/TI_Stellaris/driverlib/usb.c ****     }
2566:/home/cuil/workspace/arm/lm3s811/TI_Stellaris/driverlib/usb.c **** 
2567:/home/cuil/workspace/arm/lm3s811/TI_Stellaris/driverlib/usb.c ****     //
2568:/home/cuil/workspace/arm/lm3s811/TI_Stellaris/driverlib/usb.c ****     // Is there a packet ready in the FIFO?
2569:/home/cuil/workspace/arm/lm3s811/TI_Stellaris/driverlib/usb.c ****     //
2570:/home/cuil/workspace/arm/lm3s811/TI_Stellaris/driverlib/usb.c ****     if((HWREGH(ulBase + ulRegister) & USB_CSRL0_RXRDY) == 0)
 12554              		.loc 1 2570 0
 12555 0020 7A68     		ldr	r2, [r7, #4]
 12556 0022 FB68     		ldr	r3, [r7, #12]
 12557 0024 D318     		adds	r3, r2, r3
 12558 0026 1B88     		ldrh	r3, [r3, #0]	@ movhi
 12559 0028 9BB2     		uxth	r3, r3
 12560 002a 03F00103 		and	r3, r3, #1
 12561 002e 002B     		cmp	r3, #0
 12562 0030 02D1     		bne	.L149
2571:/home/cuil/workspace/arm/lm3s811/TI_Stellaris/driverlib/usb.c ****     {
2572:/home/cuil/workspace/arm/lm3s811/TI_Stellaris/driverlib/usb.c ****         return(0);
 12563              		.loc 1 2572 0
 12564 0032 4FF00003 		mov	r3, #0
 12565 0036 06E0     		b	.L150
 12566              	.L149:
2573:/home/cuil/workspace/arm/lm3s811/TI_Stellaris/driverlib/usb.c ****     }
2574:/home/cuil/workspace/arm/lm3s811/TI_Stellaris/driverlib/usb.c **** 
2575:/home/cuil/workspace/arm/lm3s811/TI_Stellaris/driverlib/usb.c ****     //
2576:/home/cuil/workspace/arm/lm3s811/TI_Stellaris/driverlib/usb.c ****     // Return the byte count in the FIFO.
2577:/home/cuil/workspace/arm/lm3s811/TI_Stellaris/driverlib/usb.c ****     //
2578:/home/cuil/workspace/arm/lm3s811/TI_Stellaris/driverlib/usb.c ****     return(HWREGH(ulBase + USB_O_COUNT0 + ulEndpoint));
 12567              		.loc 1 2578 0
 12568 0038 7A68     		ldr	r2, [r7, #4]
 12569 003a 3B68     		ldr	r3, [r7, #0]
 12570 003c D318     		adds	r3, r2, r3
 12571 003e 03F58473 		add	r3, r3, #264
 12572 0042 1B88     		ldrh	r3, [r3, #0]	@ movhi
 12573 0044 9BB2     		uxth	r3, r3
 12574              	.L150:
2579:/home/cuil/workspace/arm/lm3s811/TI_Stellaris/driverlib/usb.c **** }
 12575              		.loc 1 2579 0
 12576 0046 1846     		mov	r0, r3
 12577 0048 07F11407 		add	r7, r7, #20
 12578 004c BD46     		mov	sp, r7
 12579 004e 80BC     		pop	{r7}
 12580 0050 7047     		bx	lr
 12581              		.cfi_endproc
 12582              	.LFE35:
 12584 0052 00BF     		.section	.text.USBEndpointDataGet,"ax",%progbits
 12585              		.align	2
 12586              		.global	USBEndpointDataGet
 12587              		.thumb
 12588              		.thumb_func
 12590              	USBEndpointDataGet:
 12591              	.LFB36:
2580:/home/cuil/workspace/arm/lm3s811/TI_Stellaris/driverlib/usb.c **** 
2581:/home/cuil/workspace/arm/lm3s811/TI_Stellaris/driverlib/usb.c **** //*****************************************************************************
2582:/home/cuil/workspace/arm/lm3s811/TI_Stellaris/driverlib/usb.c **** //
2583:/home/cuil/workspace/arm/lm3s811/TI_Stellaris/driverlib/usb.c **** //! Retrieves data from the given endpoint's FIFO.
2584:/home/cuil/workspace/arm/lm3s811/TI_Stellaris/driverlib/usb.c **** //!
2585:/home/cuil/workspace/arm/lm3s811/TI_Stellaris/driverlib/usb.c **** //! \param ulBase specifies the USB module base address.
2586:/home/cuil/workspace/arm/lm3s811/TI_Stellaris/driverlib/usb.c **** //! \param ulEndpoint is the endpoint to access.
2587:/home/cuil/workspace/arm/lm3s811/TI_Stellaris/driverlib/usb.c **** //! \param pucData is a pointer to the data area used to return the data from
2588:/home/cuil/workspace/arm/lm3s811/TI_Stellaris/driverlib/usb.c **** //! the FIFO.
2589:/home/cuil/workspace/arm/lm3s811/TI_Stellaris/driverlib/usb.c **** //! \param pulSize is initially the size of the buffer passed into this call
2590:/home/cuil/workspace/arm/lm3s811/TI_Stellaris/driverlib/usb.c **** //! via the \e pucData parameter.  It is set to the amount of data returned in
2591:/home/cuil/workspace/arm/lm3s811/TI_Stellaris/driverlib/usb.c **** //! the buffer.
2592:/home/cuil/workspace/arm/lm3s811/TI_Stellaris/driverlib/usb.c **** //!
2593:/home/cuil/workspace/arm/lm3s811/TI_Stellaris/driverlib/usb.c **** //! This function returns the data from the FIFO for the given endpoint.
2594:/home/cuil/workspace/arm/lm3s811/TI_Stellaris/driverlib/usb.c **** //! The \e pulSize parameter should indicate the size of the buffer passed in
2595:/home/cuil/workspace/arm/lm3s811/TI_Stellaris/driverlib/usb.c **** //! the \e pulData parameter.  The data in the \e pulSize parameter is changed
2596:/home/cuil/workspace/arm/lm3s811/TI_Stellaris/driverlib/usb.c **** //! to match the amount of data returned in the \e pucData parameter.  If a
2597:/home/cuil/workspace/arm/lm3s811/TI_Stellaris/driverlib/usb.c **** //! zero-byte packet is received, this call does not return an error but
2598:/home/cuil/workspace/arm/lm3s811/TI_Stellaris/driverlib/usb.c **** //! instead just returns a zero in the \e pulSize parameter.  The only error
2599:/home/cuil/workspace/arm/lm3s811/TI_Stellaris/driverlib/usb.c **** //! case occurs when there is no data packet available.
2600:/home/cuil/workspace/arm/lm3s811/TI_Stellaris/driverlib/usb.c **** //!
2601:/home/cuil/workspace/arm/lm3s811/TI_Stellaris/driverlib/usb.c **** //! \return This call returns 0, or -1 if no packet was received.
2602:/home/cuil/workspace/arm/lm3s811/TI_Stellaris/driverlib/usb.c **** //
2603:/home/cuil/workspace/arm/lm3s811/TI_Stellaris/driverlib/usb.c **** //*****************************************************************************
2604:/home/cuil/workspace/arm/lm3s811/TI_Stellaris/driverlib/usb.c **** long
2605:/home/cuil/workspace/arm/lm3s811/TI_Stellaris/driverlib/usb.c **** USBEndpointDataGet(unsigned long ulBase, unsigned long ulEndpoint,
2606:/home/cuil/workspace/arm/lm3s811/TI_Stellaris/driverlib/usb.c ****                    unsigned char *pucData, unsigned long *pulSize)
2607:/home/cuil/workspace/arm/lm3s811/TI_Stellaris/driverlib/usb.c **** {
 12592              		.loc 1 2607 0
 12593              		.cfi_startproc
 12594              		@ args = 0, pretend = 0, frame = 32
 12595              		@ frame_needed = 1, uses_anonymous_args = 0
 12596              		@ link register save eliminated.
 12597 0000 80B4     		push	{r7}
 12598              	.LCFI108:
 12599              		.cfi_def_cfa_offset 4
 12600 0002 89B0     		sub	sp, sp, #36
 12601              	.LCFI109:
 12602              		.cfi_def_cfa_offset 40
 12603 0004 00AF     		add	r7, sp, #0
 12604              		.cfi_offset 7, -4
 12605              	.LCFI110:
 12606              		.cfi_def_cfa_register 7
 12607 0006 F860     		str	r0, [r7, #12]
 12608 0008 B960     		str	r1, [r7, #8]
 12609 000a 7A60     		str	r2, [r7, #4]
 12610 000c 3B60     		str	r3, [r7, #0]
2608:/home/cuil/workspace/arm/lm3s811/TI_Stellaris/driverlib/usb.c ****     unsigned long ulRegister, ulByteCount, ulFIFO;
2609:/home/cuil/workspace/arm/lm3s811/TI_Stellaris/driverlib/usb.c **** 
2610:/home/cuil/workspace/arm/lm3s811/TI_Stellaris/driverlib/usb.c ****     //
2611:/home/cuil/workspace/arm/lm3s811/TI_Stellaris/driverlib/usb.c ****     // Check the arguments.
2612:/home/cuil/workspace/arm/lm3s811/TI_Stellaris/driverlib/usb.c ****     //
2613:/home/cuil/workspace/arm/lm3s811/TI_Stellaris/driverlib/usb.c ****     ASSERT(ulBase == USB0_BASE);
2614:/home/cuil/workspace/arm/lm3s811/TI_Stellaris/driverlib/usb.c ****     ASSERT((ulEndpoint == USB_EP_0) || (ulEndpoint == USB_EP_1) ||
2615:/home/cuil/workspace/arm/lm3s811/TI_Stellaris/driverlib/usb.c ****            (ulEndpoint == USB_EP_2) || (ulEndpoint == USB_EP_3) ||
2616:/home/cuil/workspace/arm/lm3s811/TI_Stellaris/driverlib/usb.c ****            (ulEndpoint == USB_EP_4) || (ulEndpoint == USB_EP_5) ||
2617:/home/cuil/workspace/arm/lm3s811/TI_Stellaris/driverlib/usb.c ****            (ulEndpoint == USB_EP_6) || (ulEndpoint == USB_EP_7) ||
2618:/home/cuil/workspace/arm/lm3s811/TI_Stellaris/driverlib/usb.c ****            (ulEndpoint == USB_EP_8) || (ulEndpoint == USB_EP_9) ||
2619:/home/cuil/workspace/arm/lm3s811/TI_Stellaris/driverlib/usb.c ****            (ulEndpoint == USB_EP_10) || (ulEndpoint == USB_EP_11) ||
2620:/home/cuil/workspace/arm/lm3s811/TI_Stellaris/driverlib/usb.c ****            (ulEndpoint == USB_EP_12) || (ulEndpoint == USB_EP_13) ||
2621:/home/cuil/workspace/arm/lm3s811/TI_Stellaris/driverlib/usb.c ****            (ulEndpoint == USB_EP_14) || (ulEndpoint == USB_EP_15));
2622:/home/cuil/workspace/arm/lm3s811/TI_Stellaris/driverlib/usb.c **** 
2623:/home/cuil/workspace/arm/lm3s811/TI_Stellaris/driverlib/usb.c ****     //
2624:/home/cuil/workspace/arm/lm3s811/TI_Stellaris/driverlib/usb.c ****     // Get the address of the receive status register to use, based on the
2625:/home/cuil/workspace/arm/lm3s811/TI_Stellaris/driverlib/usb.c ****     // endpoint.
2626:/home/cuil/workspace/arm/lm3s811/TI_Stellaris/driverlib/usb.c ****     //
2627:/home/cuil/workspace/arm/lm3s811/TI_Stellaris/driverlib/usb.c ****     if(ulEndpoint == USB_EP_0)
 12611              		.loc 1 2627 0
 12612 000e BB68     		ldr	r3, [r7, #8]
 12613 0010 002B     		cmp	r3, #0
 12614 0012 03D1     		bne	.L152
2628:/home/cuil/workspace/arm/lm3s811/TI_Stellaris/driverlib/usb.c ****     {
2629:/home/cuil/workspace/arm/lm3s811/TI_Stellaris/driverlib/usb.c ****         ulRegister = USB_O_CSRL0;
 12615              		.loc 1 2629 0
 12616 0014 4FF48173 		mov	r3, #258
 12617 0018 FB61     		str	r3, [r7, #28]
 12618 001a 03E0     		b	.L153
 12619              	.L152:
2630:/home/cuil/workspace/arm/lm3s811/TI_Stellaris/driverlib/usb.c ****     }
2631:/home/cuil/workspace/arm/lm3s811/TI_Stellaris/driverlib/usb.c ****     else
2632:/home/cuil/workspace/arm/lm3s811/TI_Stellaris/driverlib/usb.c ****     {
2633:/home/cuil/workspace/arm/lm3s811/TI_Stellaris/driverlib/usb.c ****         ulRegister = USB_O_RXCSRL1 + EP_OFFSET(ulEndpoint);
 12620              		.loc 1 2633 0
 12621 001c BB68     		ldr	r3, [r7, #8]
 12622 001e 03F58373 		add	r3, r3, #262
 12623 0022 FB61     		str	r3, [r7, #28]
 12624              	.L153:
2634:/home/cuil/workspace/arm/lm3s811/TI_Stellaris/driverlib/usb.c ****     }
2635:/home/cuil/workspace/arm/lm3s811/TI_Stellaris/driverlib/usb.c **** 
2636:/home/cuil/workspace/arm/lm3s811/TI_Stellaris/driverlib/usb.c ****     //
2637:/home/cuil/workspace/arm/lm3s811/TI_Stellaris/driverlib/usb.c ****     // Don't allow reading of data if the RxPktRdy bit is not set.
2638:/home/cuil/workspace/arm/lm3s811/TI_Stellaris/driverlib/usb.c ****     //
2639:/home/cuil/workspace/arm/lm3s811/TI_Stellaris/driverlib/usb.c ****     if((HWREGH(ulBase + ulRegister) & USB_CSRL0_RXRDY) == 0)
 12625              		.loc 1 2639 0
 12626 0024 FA68     		ldr	r2, [r7, #12]
 12627 0026 FB69     		ldr	r3, [r7, #28]
 12628 0028 D318     		adds	r3, r2, r3
 12629 002a 1B88     		ldrh	r3, [r3, #0]	@ movhi
 12630 002c 9BB2     		uxth	r3, r3
 12631 002e 03F00103 		and	r3, r3, #1
 12632 0032 002B     		cmp	r3, #0
 12633 0034 06D1     		bne	.L154
2640:/home/cuil/workspace/arm/lm3s811/TI_Stellaris/driverlib/usb.c ****     {
2641:/home/cuil/workspace/arm/lm3s811/TI_Stellaris/driverlib/usb.c ****         //
2642:/home/cuil/workspace/arm/lm3s811/TI_Stellaris/driverlib/usb.c ****         // Can't read the data because none is available.
2643:/home/cuil/workspace/arm/lm3s811/TI_Stellaris/driverlib/usb.c ****         //
2644:/home/cuil/workspace/arm/lm3s811/TI_Stellaris/driverlib/usb.c ****         *pulSize = 0;
 12634              		.loc 1 2644 0
 12635 0036 3B68     		ldr	r3, [r7, #0]
 12636 0038 4FF00002 		mov	r2, #0
 12637 003c 1A60     		str	r2, [r3, #0]
2645:/home/cuil/workspace/arm/lm3s811/TI_Stellaris/driverlib/usb.c **** 
2646:/home/cuil/workspace/arm/lm3s811/TI_Stellaris/driverlib/usb.c ****         //
2647:/home/cuil/workspace/arm/lm3s811/TI_Stellaris/driverlib/usb.c ****         // Return a failure since there is no data to read.
2648:/home/cuil/workspace/arm/lm3s811/TI_Stellaris/driverlib/usb.c ****         //
2649:/home/cuil/workspace/arm/lm3s811/TI_Stellaris/driverlib/usb.c ****         return(-1);
 12638              		.loc 1 2649 0
 12639 003e 4FF0FF33 		mov	r3, #-1
 12640 0042 2CE0     		b	.L155
 12641              	.L154:
2650:/home/cuil/workspace/arm/lm3s811/TI_Stellaris/driverlib/usb.c ****     }
2651:/home/cuil/workspace/arm/lm3s811/TI_Stellaris/driverlib/usb.c **** 
2652:/home/cuil/workspace/arm/lm3s811/TI_Stellaris/driverlib/usb.c ****     //
2653:/home/cuil/workspace/arm/lm3s811/TI_Stellaris/driverlib/usb.c ****     // Get the byte count in the FIFO.
2654:/home/cuil/workspace/arm/lm3s811/TI_Stellaris/driverlib/usb.c ****     //
2655:/home/cuil/workspace/arm/lm3s811/TI_Stellaris/driverlib/usb.c ****     ulByteCount = HWREGH(ulBase + USB_O_COUNT0 + ulEndpoint);
 12642              		.loc 1 2655 0
 12643 0044 FA68     		ldr	r2, [r7, #12]
 12644 0046 BB68     		ldr	r3, [r7, #8]
 12645 0048 D318     		adds	r3, r2, r3
 12646 004a 03F58473 		add	r3, r3, #264
 12647 004e 1B88     		ldrh	r3, [r3, #0]	@ movhi
 12648 0050 9BB2     		uxth	r3, r3
 12649 0052 BB61     		str	r3, [r7, #24]
2656:/home/cuil/workspace/arm/lm3s811/TI_Stellaris/driverlib/usb.c **** 
2657:/home/cuil/workspace/arm/lm3s811/TI_Stellaris/driverlib/usb.c ****     //
2658:/home/cuil/workspace/arm/lm3s811/TI_Stellaris/driverlib/usb.c ****     // Determine how many bytes we will actually copy.
2659:/home/cuil/workspace/arm/lm3s811/TI_Stellaris/driverlib/usb.c ****     //
2660:/home/cuil/workspace/arm/lm3s811/TI_Stellaris/driverlib/usb.c ****     ulByteCount = (ulByteCount < *pulSize) ? ulByteCount : *pulSize;
 12650              		.loc 1 2660 0
 12651 0054 3B68     		ldr	r3, [r7, #0]
 12652 0056 1B68     		ldr	r3, [r3, #0]
 12653 0058 BA69     		ldr	r2, [r7, #24]
 12654 005a 9A42     		cmp	r2, r3
 12655 005c 38BF     		it	cc
 12656 005e 1346     		movcc	r3, r2
 12657 0060 BB61     		str	r3, [r7, #24]
2661:/home/cuil/workspace/arm/lm3s811/TI_Stellaris/driverlib/usb.c **** 
2662:/home/cuil/workspace/arm/lm3s811/TI_Stellaris/driverlib/usb.c ****     //
2663:/home/cuil/workspace/arm/lm3s811/TI_Stellaris/driverlib/usb.c ****     // Return the number of bytes we are going to read.
2664:/home/cuil/workspace/arm/lm3s811/TI_Stellaris/driverlib/usb.c ****     //
2665:/home/cuil/workspace/arm/lm3s811/TI_Stellaris/driverlib/usb.c ****     *pulSize = ulByteCount;
 12658              		.loc 1 2665 0
 12659 0062 3B68     		ldr	r3, [r7, #0]
 12660 0064 BA69     		ldr	r2, [r7, #24]
 12661 0066 1A60     		str	r2, [r3, #0]
2666:/home/cuil/workspace/arm/lm3s811/TI_Stellaris/driverlib/usb.c **** 
2667:/home/cuil/workspace/arm/lm3s811/TI_Stellaris/driverlib/usb.c ****     //
2668:/home/cuil/workspace/arm/lm3s811/TI_Stellaris/driverlib/usb.c ****     // Calculate the FIFO address.
2669:/home/cuil/workspace/arm/lm3s811/TI_Stellaris/driverlib/usb.c ****     //
2670:/home/cuil/workspace/arm/lm3s811/TI_Stellaris/driverlib/usb.c ****     ulFIFO = ulBase + USB_O_FIFO0 + (ulEndpoint >> 2);
 12662              		.loc 1 2670 0
 12663 0068 BB68     		ldr	r3, [r7, #8]
 12664 006a 4FEA9302 		lsr	r2, r3, #2
 12665 006e FB68     		ldr	r3, [r7, #12]
 12666 0070 D318     		adds	r3, r2, r3
 12667 0072 03F12003 		add	r3, r3, #32
 12668 0076 7B61     		str	r3, [r7, #20]
2671:/home/cuil/workspace/arm/lm3s811/TI_Stellaris/driverlib/usb.c **** 
2672:/home/cuil/workspace/arm/lm3s811/TI_Stellaris/driverlib/usb.c ****     //
2673:/home/cuil/workspace/arm/lm3s811/TI_Stellaris/driverlib/usb.c ****     // Read the data out of the FIFO.
2674:/home/cuil/workspace/arm/lm3s811/TI_Stellaris/driverlib/usb.c ****     //
2675:/home/cuil/workspace/arm/lm3s811/TI_Stellaris/driverlib/usb.c ****     for(; ulByteCount > 0; ulByteCount--)
 12669              		.loc 1 2675 0
 12670 0078 0CE0     		b	.L156
 12671              	.L157:
2676:/home/cuil/workspace/arm/lm3s811/TI_Stellaris/driverlib/usb.c ****     {
2677:/home/cuil/workspace/arm/lm3s811/TI_Stellaris/driverlib/usb.c ****         //
2678:/home/cuil/workspace/arm/lm3s811/TI_Stellaris/driverlib/usb.c ****         // Read a byte at a time from the FIFO.
2679:/home/cuil/workspace/arm/lm3s811/TI_Stellaris/driverlib/usb.c ****         //
2680:/home/cuil/workspace/arm/lm3s811/TI_Stellaris/driverlib/usb.c ****         *pucData++ = HWREGB(ulFIFO);
 12672              		.loc 1 2680 0 discriminator 2
 12673 007a 7B69     		ldr	r3, [r7, #20]
 12674 007c 1B78     		ldrb	r3, [r3, #0]
 12675 007e DAB2     		uxtb	r2, r3
 12676 0080 7B68     		ldr	r3, [r7, #4]
 12677 0082 1A70     		strb	r2, [r3, #0]
 12678 0084 7B68     		ldr	r3, [r7, #4]
 12679 0086 03F10103 		add	r3, r3, #1
 12680 008a 7B60     		str	r3, [r7, #4]
2675:/home/cuil/workspace/arm/lm3s811/TI_Stellaris/driverlib/usb.c ****     for(; ulByteCount > 0; ulByteCount--)
 12681              		.loc 1 2675 0 discriminator 2
 12682 008c BB69     		ldr	r3, [r7, #24]
 12683 008e 03F1FF33 		add	r3, r3, #-1
 12684 0092 BB61     		str	r3, [r7, #24]
 12685              	.L156:
2675:/home/cuil/workspace/arm/lm3s811/TI_Stellaris/driverlib/usb.c ****     for(; ulByteCount > 0; ulByteCount--)
 12686              		.loc 1 2675 0 is_stmt 0 discriminator 1
 12687 0094 BB69     		ldr	r3, [r7, #24]
 12688 0096 002B     		cmp	r3, #0
 12689 0098 EFD1     		bne	.L157
2681:/home/cuil/workspace/arm/lm3s811/TI_Stellaris/driverlib/usb.c ****     }
2682:/home/cuil/workspace/arm/lm3s811/TI_Stellaris/driverlib/usb.c **** 
2683:/home/cuil/workspace/arm/lm3s811/TI_Stellaris/driverlib/usb.c ****     //
2684:/home/cuil/workspace/arm/lm3s811/TI_Stellaris/driverlib/usb.c ****     // Success.
2685:/home/cuil/workspace/arm/lm3s811/TI_Stellaris/driverlib/usb.c ****     //
2686:/home/cuil/workspace/arm/lm3s811/TI_Stellaris/driverlib/usb.c ****     return(0);
 12690              		.loc 1 2686 0 is_stmt 1
 12691 009a 4FF00003 		mov	r3, #0
 12692              	.L155:
2687:/home/cuil/workspace/arm/lm3s811/TI_Stellaris/driverlib/usb.c **** }
 12693              		.loc 1 2687 0
 12694 009e 1846     		mov	r0, r3
 12695 00a0 07F12407 		add	r7, r7, #36
 12696 00a4 BD46     		mov	sp, r7
 12697 00a6 80BC     		pop	{r7}
 12698 00a8 7047     		bx	lr
 12699              		.cfi_endproc
 12700              	.LFE36:
 12702 00aa 00BF     		.section	.text.USBDevEndpointDataAck,"ax",%progbits
 12703              		.align	2
 12704              		.global	USBDevEndpointDataAck
 12705              		.thumb
 12706              		.thumb_func
 12708              	USBDevEndpointDataAck:
 12709              	.LFB37:
2688:/home/cuil/workspace/arm/lm3s811/TI_Stellaris/driverlib/usb.c **** 
2689:/home/cuil/workspace/arm/lm3s811/TI_Stellaris/driverlib/usb.c **** //*****************************************************************************
2690:/home/cuil/workspace/arm/lm3s811/TI_Stellaris/driverlib/usb.c **** //
2691:/home/cuil/workspace/arm/lm3s811/TI_Stellaris/driverlib/usb.c **** //! Acknowledge that data was read from the given endpoint's FIFO in device
2692:/home/cuil/workspace/arm/lm3s811/TI_Stellaris/driverlib/usb.c **** //! mode.
2693:/home/cuil/workspace/arm/lm3s811/TI_Stellaris/driverlib/usb.c **** //!
2694:/home/cuil/workspace/arm/lm3s811/TI_Stellaris/driverlib/usb.c **** //! \param ulBase specifies the USB module base address.
2695:/home/cuil/workspace/arm/lm3s811/TI_Stellaris/driverlib/usb.c **** //! \param ulEndpoint is the endpoint to access.
2696:/home/cuil/workspace/arm/lm3s811/TI_Stellaris/driverlib/usb.c **** //! \param bIsLastPacket indicates if this packet is the last one.
2697:/home/cuil/workspace/arm/lm3s811/TI_Stellaris/driverlib/usb.c **** //!
2698:/home/cuil/workspace/arm/lm3s811/TI_Stellaris/driverlib/usb.c **** //! This function acknowledges that the data was read from the endpoint's FIFO.
2699:/home/cuil/workspace/arm/lm3s811/TI_Stellaris/driverlib/usb.c **** //! The \e bIsLastPacket parameter is set to a \b true value if this is the
2700:/home/cuil/workspace/arm/lm3s811/TI_Stellaris/driverlib/usb.c **** //! last in a series of data packets on endpoint zero.  The \e bIsLastPacket
2701:/home/cuil/workspace/arm/lm3s811/TI_Stellaris/driverlib/usb.c **** //! parameter is not used for endpoints other than endpoint zero.  This call
2702:/home/cuil/workspace/arm/lm3s811/TI_Stellaris/driverlib/usb.c **** //! can be used if processing is required between reading the data and
2703:/home/cuil/workspace/arm/lm3s811/TI_Stellaris/driverlib/usb.c **** //! acknowledging that the data has been read.
2704:/home/cuil/workspace/arm/lm3s811/TI_Stellaris/driverlib/usb.c **** //!
2705:/home/cuil/workspace/arm/lm3s811/TI_Stellaris/driverlib/usb.c **** //! \note This function should only be called in device mode.
2706:/home/cuil/workspace/arm/lm3s811/TI_Stellaris/driverlib/usb.c **** //!
2707:/home/cuil/workspace/arm/lm3s811/TI_Stellaris/driverlib/usb.c **** //! \return None.
2708:/home/cuil/workspace/arm/lm3s811/TI_Stellaris/driverlib/usb.c **** //
2709:/home/cuil/workspace/arm/lm3s811/TI_Stellaris/driverlib/usb.c **** //*****************************************************************************
2710:/home/cuil/workspace/arm/lm3s811/TI_Stellaris/driverlib/usb.c **** void
2711:/home/cuil/workspace/arm/lm3s811/TI_Stellaris/driverlib/usb.c **** USBDevEndpointDataAck(unsigned long ulBase, unsigned long ulEndpoint,
2712:/home/cuil/workspace/arm/lm3s811/TI_Stellaris/driverlib/usb.c ****                       tBoolean bIsLastPacket)
2713:/home/cuil/workspace/arm/lm3s811/TI_Stellaris/driverlib/usb.c **** {
 12710              		.loc 1 2713 0
 12711              		.cfi_startproc
 12712              		@ args = 0, pretend = 0, frame = 16
 12713              		@ frame_needed = 1, uses_anonymous_args = 0
 12714              		@ link register save eliminated.
 12715 0000 80B4     		push	{r7}
 12716              	.LCFI111:
 12717              		.cfi_def_cfa_offset 4
 12718 0002 85B0     		sub	sp, sp, #20
 12719              	.LCFI112:
 12720              		.cfi_def_cfa_offset 24
 12721 0004 00AF     		add	r7, sp, #0
 12722              		.cfi_offset 7, -4
 12723              	.LCFI113:
 12724              		.cfi_def_cfa_register 7
 12725 0006 F860     		str	r0, [r7, #12]
 12726 0008 B960     		str	r1, [r7, #8]
 12727 000a 1346     		mov	r3, r2
 12728 000c FB71     		strb	r3, [r7, #7]
2714:/home/cuil/workspace/arm/lm3s811/TI_Stellaris/driverlib/usb.c ****     //
2715:/home/cuil/workspace/arm/lm3s811/TI_Stellaris/driverlib/usb.c ****     // Check the arguments.
2716:/home/cuil/workspace/arm/lm3s811/TI_Stellaris/driverlib/usb.c ****     //
2717:/home/cuil/workspace/arm/lm3s811/TI_Stellaris/driverlib/usb.c ****     ASSERT(ulBase == USB0_BASE);
2718:/home/cuil/workspace/arm/lm3s811/TI_Stellaris/driverlib/usb.c ****     ASSERT((ulEndpoint == USB_EP_0) || (ulEndpoint == USB_EP_1) ||
2719:/home/cuil/workspace/arm/lm3s811/TI_Stellaris/driverlib/usb.c ****            (ulEndpoint == USB_EP_2) || (ulEndpoint == USB_EP_3) ||
2720:/home/cuil/workspace/arm/lm3s811/TI_Stellaris/driverlib/usb.c ****            (ulEndpoint == USB_EP_4) || (ulEndpoint == USB_EP_5) ||
2721:/home/cuil/workspace/arm/lm3s811/TI_Stellaris/driverlib/usb.c ****            (ulEndpoint == USB_EP_6) || (ulEndpoint == USB_EP_7) ||
2722:/home/cuil/workspace/arm/lm3s811/TI_Stellaris/driverlib/usb.c ****            (ulEndpoint == USB_EP_8) || (ulEndpoint == USB_EP_9) ||
2723:/home/cuil/workspace/arm/lm3s811/TI_Stellaris/driverlib/usb.c ****            (ulEndpoint == USB_EP_10) || (ulEndpoint == USB_EP_11) ||
2724:/home/cuil/workspace/arm/lm3s811/TI_Stellaris/driverlib/usb.c ****            (ulEndpoint == USB_EP_12) || (ulEndpoint == USB_EP_13) ||
2725:/home/cuil/workspace/arm/lm3s811/TI_Stellaris/driverlib/usb.c ****            (ulEndpoint == USB_EP_14) || (ulEndpoint == USB_EP_15));
2726:/home/cuil/workspace/arm/lm3s811/TI_Stellaris/driverlib/usb.c **** 
2727:/home/cuil/workspace/arm/lm3s811/TI_Stellaris/driverlib/usb.c ****     //
2728:/home/cuil/workspace/arm/lm3s811/TI_Stellaris/driverlib/usb.c ****     // Determine which endpoint is being acked.
2729:/home/cuil/workspace/arm/lm3s811/TI_Stellaris/driverlib/usb.c ****     //
2730:/home/cuil/workspace/arm/lm3s811/TI_Stellaris/driverlib/usb.c ****     if(ulEndpoint == USB_EP_0)
 12729              		.loc 1 2730 0
 12730 000e BB68     		ldr	r3, [r7, #8]
 12731 0010 002B     		cmp	r3, #0
 12732 0012 0DD1     		bne	.L159
2731:/home/cuil/workspace/arm/lm3s811/TI_Stellaris/driverlib/usb.c ****     {
2732:/home/cuil/workspace/arm/lm3s811/TI_Stellaris/driverlib/usb.c ****         //
2733:/home/cuil/workspace/arm/lm3s811/TI_Stellaris/driverlib/usb.c ****         // Clear RxPktRdy, and optionally DataEnd, on endpoint zero.
2734:/home/cuil/workspace/arm/lm3s811/TI_Stellaris/driverlib/usb.c ****         //
2735:/home/cuil/workspace/arm/lm3s811/TI_Stellaris/driverlib/usb.c ****         HWREGB(ulBase + USB_O_CSRL0) =
 12733              		.loc 1 2735 0
 12734 0014 FB68     		ldr	r3, [r7, #12]
 12735 0016 03F58173 		add	r3, r3, #258
 12736 001a 1A46     		mov	r2, r3
 12737 001c FB79     		ldrb	r3, [r7, #7]	@ zero_extendqisi2
 12738 001e 002B     		cmp	r3, #0
 12739 0020 02D0     		beq	.L160
 12740              		.loc 1 2735 0 is_stmt 0 discriminator 1
 12741 0022 4FF04803 		mov	r3, #72
 12742 0026 01E0     		b	.L161
 12743              	.L160:
 12744              		.loc 1 2735 0 discriminator 2
 12745 0028 4FF04003 		mov	r3, #64
 12746              	.L161:
 12747              		.loc 1 2735 0 discriminator 3
 12748 002c 1370     		strb	r3, [r2, #0]
 12749 002e 0FE0     		b	.L158
 12750              	.L159:
2736:/home/cuil/workspace/arm/lm3s811/TI_Stellaris/driverlib/usb.c ****             USB_CSRL0_RXRDYC | (bIsLastPacket ? USB_CSRL0_DATAEND : 0);
2737:/home/cuil/workspace/arm/lm3s811/TI_Stellaris/driverlib/usb.c ****     }
2738:/home/cuil/workspace/arm/lm3s811/TI_Stellaris/driverlib/usb.c ****     else
2739:/home/cuil/workspace/arm/lm3s811/TI_Stellaris/driverlib/usb.c ****     {
2740:/home/cuil/workspace/arm/lm3s811/TI_Stellaris/driverlib/usb.c ****         //
2741:/home/cuil/workspace/arm/lm3s811/TI_Stellaris/driverlib/usb.c ****         // Clear RxPktRdy on all other endpoints.
2742:/home/cuil/workspace/arm/lm3s811/TI_Stellaris/driverlib/usb.c ****         //
2743:/home/cuil/workspace/arm/lm3s811/TI_Stellaris/driverlib/usb.c ****         HWREGB(ulBase + USB_O_RXCSRL1 + EP_OFFSET(ulEndpoint)) &=
 12751              		.loc 1 2743 0 is_stmt 1
 12752 0030 FA68     		ldr	r2, [r7, #12]
 12753 0032 BB68     		ldr	r3, [r7, #8]
 12754 0034 D318     		adds	r3, r2, r3
 12755 0036 03F58373 		add	r3, r3, #262
 12756 003a F968     		ldr	r1, [r7, #12]
 12757 003c BA68     		ldr	r2, [r7, #8]
 12758 003e 8A18     		adds	r2, r1, r2
 12759 0040 02F58372 		add	r2, r2, #262
 12760 0044 1278     		ldrb	r2, [r2, #0]
 12761 0046 D2B2     		uxtb	r2, r2
 12762 0048 22F00102 		bic	r2, r2, #1
 12763 004c D2B2     		uxtb	r2, r2
 12764 004e 1A70     		strb	r2, [r3, #0]
 12765              	.L158:
2744:/home/cuil/workspace/arm/lm3s811/TI_Stellaris/driverlib/usb.c ****             ~(USB_RXCSRL1_RXRDY);
2745:/home/cuil/workspace/arm/lm3s811/TI_Stellaris/driverlib/usb.c ****     }
2746:/home/cuil/workspace/arm/lm3s811/TI_Stellaris/driverlib/usb.c **** }
 12766              		.loc 1 2746 0
 12767 0050 07F11407 		add	r7, r7, #20
 12768 0054 BD46     		mov	sp, r7
 12769 0056 80BC     		pop	{r7}
 12770 0058 7047     		bx	lr
 12771              		.cfi_endproc
 12772              	.LFE37:
 12774 005a 00BF     		.section	.text.USBHostEndpointDataAck,"ax",%progbits
 12775              		.align	2
 12776              		.global	USBHostEndpointDataAck
 12777              		.thumb
 12778              		.thumb_func
 12780              	USBHostEndpointDataAck:
 12781              	.LFB38:
2747:/home/cuil/workspace/arm/lm3s811/TI_Stellaris/driverlib/usb.c **** 
2748:/home/cuil/workspace/arm/lm3s811/TI_Stellaris/driverlib/usb.c **** //*****************************************************************************
2749:/home/cuil/workspace/arm/lm3s811/TI_Stellaris/driverlib/usb.c **** //
2750:/home/cuil/workspace/arm/lm3s811/TI_Stellaris/driverlib/usb.c **** //! Acknowledge that data was read from the given endpoint's FIFO in host
2751:/home/cuil/workspace/arm/lm3s811/TI_Stellaris/driverlib/usb.c **** //! mode.
2752:/home/cuil/workspace/arm/lm3s811/TI_Stellaris/driverlib/usb.c **** //!
2753:/home/cuil/workspace/arm/lm3s811/TI_Stellaris/driverlib/usb.c **** //! \param ulBase specifies the USB module base address.
2754:/home/cuil/workspace/arm/lm3s811/TI_Stellaris/driverlib/usb.c **** //! \param ulEndpoint is the endpoint to access.
2755:/home/cuil/workspace/arm/lm3s811/TI_Stellaris/driverlib/usb.c **** //!
2756:/home/cuil/workspace/arm/lm3s811/TI_Stellaris/driverlib/usb.c **** //! This function acknowledges that the data was read from the endpoint's FIFO.
2757:/home/cuil/workspace/arm/lm3s811/TI_Stellaris/driverlib/usb.c **** //! This call is used if processing is required between reading the data and
2758:/home/cuil/workspace/arm/lm3s811/TI_Stellaris/driverlib/usb.c **** //! acknowledging that the data has been read.
2759:/home/cuil/workspace/arm/lm3s811/TI_Stellaris/driverlib/usb.c **** //!
2760:/home/cuil/workspace/arm/lm3s811/TI_Stellaris/driverlib/usb.c **** //! \note This function should only be called in host mode.
2761:/home/cuil/workspace/arm/lm3s811/TI_Stellaris/driverlib/usb.c **** //!
2762:/home/cuil/workspace/arm/lm3s811/TI_Stellaris/driverlib/usb.c **** //! \return None.
2763:/home/cuil/workspace/arm/lm3s811/TI_Stellaris/driverlib/usb.c **** //
2764:/home/cuil/workspace/arm/lm3s811/TI_Stellaris/driverlib/usb.c **** //*****************************************************************************
2765:/home/cuil/workspace/arm/lm3s811/TI_Stellaris/driverlib/usb.c **** void
2766:/home/cuil/workspace/arm/lm3s811/TI_Stellaris/driverlib/usb.c **** USBHostEndpointDataAck(unsigned long ulBase, unsigned long ulEndpoint)
2767:/home/cuil/workspace/arm/lm3s811/TI_Stellaris/driverlib/usb.c **** {
 12782              		.loc 1 2767 0
 12783              		.cfi_startproc
 12784              		@ args = 0, pretend = 0, frame = 8
 12785              		@ frame_needed = 1, uses_anonymous_args = 0
 12786              		@ link register save eliminated.
 12787 0000 80B4     		push	{r7}
 12788              	.LCFI114:
 12789              		.cfi_def_cfa_offset 4
 12790 0002 83B0     		sub	sp, sp, #12
 12791              	.LCFI115:
 12792              		.cfi_def_cfa_offset 16
 12793 0004 00AF     		add	r7, sp, #0
 12794              		.cfi_offset 7, -4
 12795              	.LCFI116:
 12796              		.cfi_def_cfa_register 7
 12797 0006 7860     		str	r0, [r7, #4]
 12798 0008 3960     		str	r1, [r7, #0]
2768:/home/cuil/workspace/arm/lm3s811/TI_Stellaris/driverlib/usb.c ****     //
2769:/home/cuil/workspace/arm/lm3s811/TI_Stellaris/driverlib/usb.c ****     // Check the arguments.
2770:/home/cuil/workspace/arm/lm3s811/TI_Stellaris/driverlib/usb.c ****     //
2771:/home/cuil/workspace/arm/lm3s811/TI_Stellaris/driverlib/usb.c ****     ASSERT(ulBase == USB0_BASE);
2772:/home/cuil/workspace/arm/lm3s811/TI_Stellaris/driverlib/usb.c ****     ASSERT((ulEndpoint == USB_EP_0) || (ulEndpoint == USB_EP_1) ||
2773:/home/cuil/workspace/arm/lm3s811/TI_Stellaris/driverlib/usb.c ****            (ulEndpoint == USB_EP_2) || (ulEndpoint == USB_EP_3) ||
2774:/home/cuil/workspace/arm/lm3s811/TI_Stellaris/driverlib/usb.c ****            (ulEndpoint == USB_EP_4) || (ulEndpoint == USB_EP_5) ||
2775:/home/cuil/workspace/arm/lm3s811/TI_Stellaris/driverlib/usb.c ****            (ulEndpoint == USB_EP_6) || (ulEndpoint == USB_EP_7) ||
2776:/home/cuil/workspace/arm/lm3s811/TI_Stellaris/driverlib/usb.c ****            (ulEndpoint == USB_EP_8) || (ulEndpoint == USB_EP_9) ||
2777:/home/cuil/workspace/arm/lm3s811/TI_Stellaris/driverlib/usb.c ****            (ulEndpoint == USB_EP_10) || (ulEndpoint == USB_EP_11) ||
2778:/home/cuil/workspace/arm/lm3s811/TI_Stellaris/driverlib/usb.c ****            (ulEndpoint == USB_EP_12) || (ulEndpoint == USB_EP_13) ||
2779:/home/cuil/workspace/arm/lm3s811/TI_Stellaris/driverlib/usb.c ****            (ulEndpoint == USB_EP_14) || (ulEndpoint == USB_EP_15));
2780:/home/cuil/workspace/arm/lm3s811/TI_Stellaris/driverlib/usb.c **** 
2781:/home/cuil/workspace/arm/lm3s811/TI_Stellaris/driverlib/usb.c ****     //
2782:/home/cuil/workspace/arm/lm3s811/TI_Stellaris/driverlib/usb.c ****     // Clear RxPktRdy.
2783:/home/cuil/workspace/arm/lm3s811/TI_Stellaris/driverlib/usb.c ****     //
2784:/home/cuil/workspace/arm/lm3s811/TI_Stellaris/driverlib/usb.c ****     if(ulEndpoint == USB_EP_0)
 12799              		.loc 1 2784 0
 12800 000a 3B68     		ldr	r3, [r7, #0]
 12801 000c 002B     		cmp	r3, #0
 12802 000e 0CD1     		bne	.L164
2785:/home/cuil/workspace/arm/lm3s811/TI_Stellaris/driverlib/usb.c ****     {
2786:/home/cuil/workspace/arm/lm3s811/TI_Stellaris/driverlib/usb.c ****         HWREGB(ulBase + USB_O_CSRL0) &= ~USB_CSRL0_RXRDY;
 12803              		.loc 1 2786 0
 12804 0010 7B68     		ldr	r3, [r7, #4]
 12805 0012 03F58173 		add	r3, r3, #258
 12806 0016 7A68     		ldr	r2, [r7, #4]
 12807 0018 02F58172 		add	r2, r2, #258
 12808 001c 1278     		ldrb	r2, [r2, #0]
 12809 001e D2B2     		uxtb	r2, r2
 12810 0020 22F00102 		bic	r2, r2, #1
 12811 0024 D2B2     		uxtb	r2, r2
 12812 0026 1A70     		strb	r2, [r3, #0]
 12813 0028 0FE0     		b	.L163
 12814              	.L164:
2787:/home/cuil/workspace/arm/lm3s811/TI_Stellaris/driverlib/usb.c ****     }
2788:/home/cuil/workspace/arm/lm3s811/TI_Stellaris/driverlib/usb.c ****     else
2789:/home/cuil/workspace/arm/lm3s811/TI_Stellaris/driverlib/usb.c ****     {
2790:/home/cuil/workspace/arm/lm3s811/TI_Stellaris/driverlib/usb.c ****         HWREGB(ulBase + USB_O_RXCSRL1 + EP_OFFSET(ulEndpoint)) &=
 12815              		.loc 1 2790 0
 12816 002a 7A68     		ldr	r2, [r7, #4]
 12817 002c 3B68     		ldr	r3, [r7, #0]
 12818 002e D318     		adds	r3, r2, r3
 12819 0030 03F58373 		add	r3, r3, #262
 12820 0034 7968     		ldr	r1, [r7, #4]
 12821 0036 3A68     		ldr	r2, [r7, #0]
 12822 0038 8A18     		adds	r2, r1, r2
 12823 003a 02F58372 		add	r2, r2, #262
 12824 003e 1278     		ldrb	r2, [r2, #0]
 12825 0040 D2B2     		uxtb	r2, r2
 12826 0042 22F00102 		bic	r2, r2, #1
 12827 0046 D2B2     		uxtb	r2, r2
 12828 0048 1A70     		strb	r2, [r3, #0]
 12829              	.L163:
2791:/home/cuil/workspace/arm/lm3s811/TI_Stellaris/driverlib/usb.c ****             ~(USB_RXCSRL1_RXRDY);
2792:/home/cuil/workspace/arm/lm3s811/TI_Stellaris/driverlib/usb.c ****     }
2793:/home/cuil/workspace/arm/lm3s811/TI_Stellaris/driverlib/usb.c **** }
 12830              		.loc 1 2793 0
 12831 004a 07F10C07 		add	r7, r7, #12
 12832 004e BD46     		mov	sp, r7
 12833 0050 80BC     		pop	{r7}
 12834 0052 7047     		bx	lr
 12835              		.cfi_endproc
 12836              	.LFE38:
 12838              		.section	.text.USBEndpointDataPut,"ax",%progbits
 12839              		.align	2
 12840              		.global	USBEndpointDataPut
 12841              		.thumb
 12842              		.thumb_func
 12844              	USBEndpointDataPut:
 12845              	.LFB39:
2794:/home/cuil/workspace/arm/lm3s811/TI_Stellaris/driverlib/usb.c **** 
2795:/home/cuil/workspace/arm/lm3s811/TI_Stellaris/driverlib/usb.c **** //*****************************************************************************
2796:/home/cuil/workspace/arm/lm3s811/TI_Stellaris/driverlib/usb.c **** //
2797:/home/cuil/workspace/arm/lm3s811/TI_Stellaris/driverlib/usb.c **** //! Puts data into the given endpoint's FIFO.
2798:/home/cuil/workspace/arm/lm3s811/TI_Stellaris/driverlib/usb.c **** //!
2799:/home/cuil/workspace/arm/lm3s811/TI_Stellaris/driverlib/usb.c **** //! \param ulBase specifies the USB module base address.
2800:/home/cuil/workspace/arm/lm3s811/TI_Stellaris/driverlib/usb.c **** //! \param ulEndpoint is the endpoint to access.
2801:/home/cuil/workspace/arm/lm3s811/TI_Stellaris/driverlib/usb.c **** //! \param pucData is a pointer to the data area used as the source for the
2802:/home/cuil/workspace/arm/lm3s811/TI_Stellaris/driverlib/usb.c **** //! data to put into the FIFO.
2803:/home/cuil/workspace/arm/lm3s811/TI_Stellaris/driverlib/usb.c **** //! \param ulSize is the amount of data to put into the FIFO.
2804:/home/cuil/workspace/arm/lm3s811/TI_Stellaris/driverlib/usb.c **** //!
2805:/home/cuil/workspace/arm/lm3s811/TI_Stellaris/driverlib/usb.c **** //! This function puts the data from the \e pucData parameter into the FIFO
2806:/home/cuil/workspace/arm/lm3s811/TI_Stellaris/driverlib/usb.c **** //! for this endpoint.  If a packet is already pending for transmission, then
2807:/home/cuil/workspace/arm/lm3s811/TI_Stellaris/driverlib/usb.c **** //! this call does not put any of the data into the FIFO and returns -1. Care
2808:/home/cuil/workspace/arm/lm3s811/TI_Stellaris/driverlib/usb.c **** //! should be taken to not write more data than can fit into the FIFO
2809:/home/cuil/workspace/arm/lm3s811/TI_Stellaris/driverlib/usb.c **** //! allocated by the call to USBFIFOConfigSet().
2810:/home/cuil/workspace/arm/lm3s811/TI_Stellaris/driverlib/usb.c **** //!
2811:/home/cuil/workspace/arm/lm3s811/TI_Stellaris/driverlib/usb.c **** //! \return This call returns 0 on success, or -1 to indicate that the FIFO
2812:/home/cuil/workspace/arm/lm3s811/TI_Stellaris/driverlib/usb.c **** //! is in use and cannot be written.
2813:/home/cuil/workspace/arm/lm3s811/TI_Stellaris/driverlib/usb.c **** //
2814:/home/cuil/workspace/arm/lm3s811/TI_Stellaris/driverlib/usb.c **** //*****************************************************************************
2815:/home/cuil/workspace/arm/lm3s811/TI_Stellaris/driverlib/usb.c **** long
2816:/home/cuil/workspace/arm/lm3s811/TI_Stellaris/driverlib/usb.c **** USBEndpointDataPut(unsigned long ulBase, unsigned long ulEndpoint,
2817:/home/cuil/workspace/arm/lm3s811/TI_Stellaris/driverlib/usb.c ****                    unsigned char *pucData, unsigned long ulSize)
2818:/home/cuil/workspace/arm/lm3s811/TI_Stellaris/driverlib/usb.c **** {
 12846              		.loc 1 2818 0
 12847              		.cfi_startproc
 12848              		@ args = 0, pretend = 0, frame = 24
 12849              		@ frame_needed = 1, uses_anonymous_args = 0
 12850              		@ link register save eliminated.
 12851 0000 80B4     		push	{r7}
 12852              	.LCFI117:
 12853              		.cfi_def_cfa_offset 4
 12854 0002 87B0     		sub	sp, sp, #28
 12855              	.LCFI118:
 12856              		.cfi_def_cfa_offset 32
 12857 0004 00AF     		add	r7, sp, #0
 12858              		.cfi_offset 7, -4
 12859              	.LCFI119:
 12860              		.cfi_def_cfa_register 7
 12861 0006 F860     		str	r0, [r7, #12]
 12862 0008 B960     		str	r1, [r7, #8]
 12863 000a 7A60     		str	r2, [r7, #4]
 12864 000c 3B60     		str	r3, [r7, #0]
2819:/home/cuil/workspace/arm/lm3s811/TI_Stellaris/driverlib/usb.c ****     unsigned long ulFIFO;
2820:/home/cuil/workspace/arm/lm3s811/TI_Stellaris/driverlib/usb.c ****     unsigned char ucTxPktRdy;
2821:/home/cuil/workspace/arm/lm3s811/TI_Stellaris/driverlib/usb.c **** 
2822:/home/cuil/workspace/arm/lm3s811/TI_Stellaris/driverlib/usb.c ****     //
2823:/home/cuil/workspace/arm/lm3s811/TI_Stellaris/driverlib/usb.c ****     // Check the arguments.
2824:/home/cuil/workspace/arm/lm3s811/TI_Stellaris/driverlib/usb.c ****     //
2825:/home/cuil/workspace/arm/lm3s811/TI_Stellaris/driverlib/usb.c ****     ASSERT(ulBase == USB0_BASE);
2826:/home/cuil/workspace/arm/lm3s811/TI_Stellaris/driverlib/usb.c ****     ASSERT((ulEndpoint == USB_EP_0) || (ulEndpoint == USB_EP_1) ||
2827:/home/cuil/workspace/arm/lm3s811/TI_Stellaris/driverlib/usb.c ****            (ulEndpoint == USB_EP_2) || (ulEndpoint == USB_EP_3) ||
2828:/home/cuil/workspace/arm/lm3s811/TI_Stellaris/driverlib/usb.c ****            (ulEndpoint == USB_EP_4) || (ulEndpoint == USB_EP_5) ||
2829:/home/cuil/workspace/arm/lm3s811/TI_Stellaris/driverlib/usb.c ****            (ulEndpoint == USB_EP_6) || (ulEndpoint == USB_EP_7) ||
2830:/home/cuil/workspace/arm/lm3s811/TI_Stellaris/driverlib/usb.c ****            (ulEndpoint == USB_EP_8) || (ulEndpoint == USB_EP_9) ||
2831:/home/cuil/workspace/arm/lm3s811/TI_Stellaris/driverlib/usb.c ****            (ulEndpoint == USB_EP_10) || (ulEndpoint == USB_EP_11) ||
2832:/home/cuil/workspace/arm/lm3s811/TI_Stellaris/driverlib/usb.c ****            (ulEndpoint == USB_EP_12) || (ulEndpoint == USB_EP_13) ||
2833:/home/cuil/workspace/arm/lm3s811/TI_Stellaris/driverlib/usb.c ****            (ulEndpoint == USB_EP_14) || (ulEndpoint == USB_EP_15));
2834:/home/cuil/workspace/arm/lm3s811/TI_Stellaris/driverlib/usb.c **** 
2835:/home/cuil/workspace/arm/lm3s811/TI_Stellaris/driverlib/usb.c ****     //
2836:/home/cuil/workspace/arm/lm3s811/TI_Stellaris/driverlib/usb.c ****     // Get the bit position of TxPktRdy based on the endpoint.
2837:/home/cuil/workspace/arm/lm3s811/TI_Stellaris/driverlib/usb.c ****     //
2838:/home/cuil/workspace/arm/lm3s811/TI_Stellaris/driverlib/usb.c ****     if(ulEndpoint == USB_EP_0)
 12865              		.loc 1 2838 0
 12866 000e BB68     		ldr	r3, [r7, #8]
 12867 0010 002B     		cmp	r3, #0
 12868 0012 03D1     		bne	.L167
2839:/home/cuil/workspace/arm/lm3s811/TI_Stellaris/driverlib/usb.c ****     {
2840:/home/cuil/workspace/arm/lm3s811/TI_Stellaris/driverlib/usb.c ****         ucTxPktRdy = USB_CSRL0_TXRDY;
 12869              		.loc 1 2840 0
 12870 0014 4FF00203 		mov	r3, #2
 12871 0018 FB75     		strb	r3, [r7, #23]
 12872 001a 02E0     		b	.L168
 12873              	.L167:
2841:/home/cuil/workspace/arm/lm3s811/TI_Stellaris/driverlib/usb.c ****     }
2842:/home/cuil/workspace/arm/lm3s811/TI_Stellaris/driverlib/usb.c ****     else
2843:/home/cuil/workspace/arm/lm3s811/TI_Stellaris/driverlib/usb.c ****     {
2844:/home/cuil/workspace/arm/lm3s811/TI_Stellaris/driverlib/usb.c ****         ucTxPktRdy = USB_TXCSRL1_TXRDY;
 12874              		.loc 1 2844 0
 12875 001c 4FF00103 		mov	r3, #1
 12876 0020 FB75     		strb	r3, [r7, #23]
 12877              	.L168:
2845:/home/cuil/workspace/arm/lm3s811/TI_Stellaris/driverlib/usb.c ****     }
2846:/home/cuil/workspace/arm/lm3s811/TI_Stellaris/driverlib/usb.c **** 
2847:/home/cuil/workspace/arm/lm3s811/TI_Stellaris/driverlib/usb.c ****     //
2848:/home/cuil/workspace/arm/lm3s811/TI_Stellaris/driverlib/usb.c ****     // Don't allow transmit of data if the TxPktRdy bit is already set.
2849:/home/cuil/workspace/arm/lm3s811/TI_Stellaris/driverlib/usb.c ****     //
2850:/home/cuil/workspace/arm/lm3s811/TI_Stellaris/driverlib/usb.c ****     if(HWREGB(ulBase + USB_O_CSRL0 + ulEndpoint) & ucTxPktRdy)
 12878              		.loc 1 2850 0
 12879 0022 FA68     		ldr	r2, [r7, #12]
 12880 0024 BB68     		ldr	r3, [r7, #8]
 12881 0026 D318     		adds	r3, r2, r3
 12882 0028 03F58173 		add	r3, r3, #258
 12883 002c 1B78     		ldrb	r3, [r3, #0]
 12884 002e DAB2     		uxtb	r2, r3
 12885 0030 FB7D     		ldrb	r3, [r7, #23]
 12886 0032 02EA0303 		and	r3, r2, r3
 12887 0036 DBB2     		uxtb	r3, r3
 12888 0038 002B     		cmp	r3, #0
 12889 003a 02D0     		beq	.L169
2851:/home/cuil/workspace/arm/lm3s811/TI_Stellaris/driverlib/usb.c ****     {
2852:/home/cuil/workspace/arm/lm3s811/TI_Stellaris/driverlib/usb.c ****         return(-1);
 12890              		.loc 1 2852 0
 12891 003c 4FF0FF33 		mov	r3, #-1
 12892 0040 19E0     		b	.L170
 12893              	.L169:
2853:/home/cuil/workspace/arm/lm3s811/TI_Stellaris/driverlib/usb.c ****     }
2854:/home/cuil/workspace/arm/lm3s811/TI_Stellaris/driverlib/usb.c **** 
2855:/home/cuil/workspace/arm/lm3s811/TI_Stellaris/driverlib/usb.c ****     //
2856:/home/cuil/workspace/arm/lm3s811/TI_Stellaris/driverlib/usb.c ****     // Calculate the FIFO address.
2857:/home/cuil/workspace/arm/lm3s811/TI_Stellaris/driverlib/usb.c ****     //
2858:/home/cuil/workspace/arm/lm3s811/TI_Stellaris/driverlib/usb.c ****     ulFIFO = ulBase + USB_O_FIFO0 + (ulEndpoint >> 2);
 12894              		.loc 1 2858 0
 12895 0042 BB68     		ldr	r3, [r7, #8]
 12896 0044 4FEA9302 		lsr	r2, r3, #2
 12897 0048 FB68     		ldr	r3, [r7, #12]
 12898 004a D318     		adds	r3, r2, r3
 12899 004c 03F12003 		add	r3, r3, #32
 12900 0050 3B61     		str	r3, [r7, #16]
2859:/home/cuil/workspace/arm/lm3s811/TI_Stellaris/driverlib/usb.c **** 
2860:/home/cuil/workspace/arm/lm3s811/TI_Stellaris/driverlib/usb.c ****     //
2861:/home/cuil/workspace/arm/lm3s811/TI_Stellaris/driverlib/usb.c ****     // Write the data to the FIFO.
2862:/home/cuil/workspace/arm/lm3s811/TI_Stellaris/driverlib/usb.c ****     //
2863:/home/cuil/workspace/arm/lm3s811/TI_Stellaris/driverlib/usb.c ****     for(; ulSize > 0; ulSize--)
 12901              		.loc 1 2863 0
 12902 0052 0BE0     		b	.L171
 12903              	.L172:
2864:/home/cuil/workspace/arm/lm3s811/TI_Stellaris/driverlib/usb.c ****     {
2865:/home/cuil/workspace/arm/lm3s811/TI_Stellaris/driverlib/usb.c ****         HWREGB(ulFIFO) = *pucData++;
 12904              		.loc 1 2865 0 discriminator 2
 12905 0054 3B69     		ldr	r3, [r7, #16]
 12906 0056 7A68     		ldr	r2, [r7, #4]
 12907 0058 1278     		ldrb	r2, [r2, #0]	@ zero_extendqisi2
 12908 005a 1A70     		strb	r2, [r3, #0]
 12909 005c 7B68     		ldr	r3, [r7, #4]
 12910 005e 03F10103 		add	r3, r3, #1
 12911 0062 7B60     		str	r3, [r7, #4]
2863:/home/cuil/workspace/arm/lm3s811/TI_Stellaris/driverlib/usb.c ****     for(; ulSize > 0; ulSize--)
 12912              		.loc 1 2863 0 discriminator 2
 12913 0064 3B68     		ldr	r3, [r7, #0]
 12914 0066 03F1FF33 		add	r3, r3, #-1
 12915 006a 3B60     		str	r3, [r7, #0]
 12916              	.L171:
2863:/home/cuil/workspace/arm/lm3s811/TI_Stellaris/driverlib/usb.c ****     for(; ulSize > 0; ulSize--)
 12917              		.loc 1 2863 0 is_stmt 0 discriminator 1
 12918 006c 3B68     		ldr	r3, [r7, #0]
 12919 006e 002B     		cmp	r3, #0
 12920 0070 F0D1     		bne	.L172
2866:/home/cuil/workspace/arm/lm3s811/TI_Stellaris/driverlib/usb.c ****     }
2867:/home/cuil/workspace/arm/lm3s811/TI_Stellaris/driverlib/usb.c **** 
2868:/home/cuil/workspace/arm/lm3s811/TI_Stellaris/driverlib/usb.c ****     //
2869:/home/cuil/workspace/arm/lm3s811/TI_Stellaris/driverlib/usb.c ****     // Success.
2870:/home/cuil/workspace/arm/lm3s811/TI_Stellaris/driverlib/usb.c ****     //
2871:/home/cuil/workspace/arm/lm3s811/TI_Stellaris/driverlib/usb.c ****     return(0);
 12921              		.loc 1 2871 0 is_stmt 1
 12922 0072 4FF00003 		mov	r3, #0
 12923              	.L170:
2872:/home/cuil/workspace/arm/lm3s811/TI_Stellaris/driverlib/usb.c **** }
 12924              		.loc 1 2872 0
 12925 0076 1846     		mov	r0, r3
 12926 0078 07F11C07 		add	r7, r7, #28
 12927 007c BD46     		mov	sp, r7
 12928 007e 80BC     		pop	{r7}
 12929 0080 7047     		bx	lr
 12930              		.cfi_endproc
 12931              	.LFE39:
 12933 0082 00BF     		.section	.text.USBEndpointDataSend,"ax",%progbits
 12934              		.align	2
 12935              		.global	USBEndpointDataSend
 12936              		.thumb
 12937              		.thumb_func
 12939              	USBEndpointDataSend:
 12940              	.LFB40:
2873:/home/cuil/workspace/arm/lm3s811/TI_Stellaris/driverlib/usb.c **** 
2874:/home/cuil/workspace/arm/lm3s811/TI_Stellaris/driverlib/usb.c **** //*****************************************************************************
2875:/home/cuil/workspace/arm/lm3s811/TI_Stellaris/driverlib/usb.c **** //
2876:/home/cuil/workspace/arm/lm3s811/TI_Stellaris/driverlib/usb.c **** //! Starts the transfer of data from an endpoint's FIFO.
2877:/home/cuil/workspace/arm/lm3s811/TI_Stellaris/driverlib/usb.c **** //!
2878:/home/cuil/workspace/arm/lm3s811/TI_Stellaris/driverlib/usb.c **** //! \param ulBase specifies the USB module base address.
2879:/home/cuil/workspace/arm/lm3s811/TI_Stellaris/driverlib/usb.c **** //! \param ulEndpoint is the endpoint to access.
2880:/home/cuil/workspace/arm/lm3s811/TI_Stellaris/driverlib/usb.c **** //! \param ulTransType is set to indicate what type of data is being sent.
2881:/home/cuil/workspace/arm/lm3s811/TI_Stellaris/driverlib/usb.c **** //!
2882:/home/cuil/workspace/arm/lm3s811/TI_Stellaris/driverlib/usb.c **** //! This function starts the transfer of data from the FIFO for a given
2883:/home/cuil/workspace/arm/lm3s811/TI_Stellaris/driverlib/usb.c **** //! endpoint.  This function should be called if the \b USB_EP_AUTO_SET bit was  
2884:/home/cuil/workspace/arm/lm3s811/TI_Stellaris/driverlib/usb.c **** //! not enabled for the endpoint.  Setting the \e ulTransType parameter allows 
2885:/home/cuil/workspace/arm/lm3s811/TI_Stellaris/driverlib/usb.c **** //! the appropriate signaling on the USB bus for the type of transaction being
2886:/home/cuil/workspace/arm/lm3s811/TI_Stellaris/driverlib/usb.c **** //! requested.  The \e ulTransType parameter should be one of the following:
2887:/home/cuil/workspace/arm/lm3s811/TI_Stellaris/driverlib/usb.c **** //!
2888:/home/cuil/workspace/arm/lm3s811/TI_Stellaris/driverlib/usb.c **** //! - \b USB_TRANS_OUT for OUT transaction on any endpoint in host mode.
2889:/home/cuil/workspace/arm/lm3s811/TI_Stellaris/driverlib/usb.c **** //! - \b USB_TRANS_IN for IN transaction on any endpoint in device mode.
2890:/home/cuil/workspace/arm/lm3s811/TI_Stellaris/driverlib/usb.c **** //! - \b USB_TRANS_IN_LAST for the last IN transaction on endpoint zero in a
2891:/home/cuil/workspace/arm/lm3s811/TI_Stellaris/driverlib/usb.c **** //!   sequence of IN transactions.
2892:/home/cuil/workspace/arm/lm3s811/TI_Stellaris/driverlib/usb.c **** //! - \b USB_TRANS_SETUP for setup transactions on endpoint zero.
2893:/home/cuil/workspace/arm/lm3s811/TI_Stellaris/driverlib/usb.c **** //! - \b USB_TRANS_STATUS for status results on endpoint zero.
2894:/home/cuil/workspace/arm/lm3s811/TI_Stellaris/driverlib/usb.c **** //!
2895:/home/cuil/workspace/arm/lm3s811/TI_Stellaris/driverlib/usb.c **** //! \return This call returns 0 on success, or -1 if a transmission is already
2896:/home/cuil/workspace/arm/lm3s811/TI_Stellaris/driverlib/usb.c **** //! in progress.
2897:/home/cuil/workspace/arm/lm3s811/TI_Stellaris/driverlib/usb.c **** //
2898:/home/cuil/workspace/arm/lm3s811/TI_Stellaris/driverlib/usb.c **** //*****************************************************************************
2899:/home/cuil/workspace/arm/lm3s811/TI_Stellaris/driverlib/usb.c **** long
2900:/home/cuil/workspace/arm/lm3s811/TI_Stellaris/driverlib/usb.c **** USBEndpointDataSend(unsigned long ulBase, unsigned long ulEndpoint,
2901:/home/cuil/workspace/arm/lm3s811/TI_Stellaris/driverlib/usb.c ****                     unsigned long ulTransType)
2902:/home/cuil/workspace/arm/lm3s811/TI_Stellaris/driverlib/usb.c **** {
 12941              		.loc 1 2902 0
 12942              		.cfi_startproc
 12943              		@ args = 0, pretend = 0, frame = 24
 12944              		@ frame_needed = 1, uses_anonymous_args = 0
 12945              		@ link register save eliminated.
 12946 0000 80B4     		push	{r7}
 12947              	.LCFI120:
 12948              		.cfi_def_cfa_offset 4
 12949 0002 87B0     		sub	sp, sp, #28
 12950              	.LCFI121:
 12951              		.cfi_def_cfa_offset 32
 12952 0004 00AF     		add	r7, sp, #0
 12953              		.cfi_offset 7, -4
 12954              	.LCFI122:
 12955              		.cfi_def_cfa_register 7
 12956 0006 F860     		str	r0, [r7, #12]
 12957 0008 B960     		str	r1, [r7, #8]
 12958 000a 7A60     		str	r2, [r7, #4]
2903:/home/cuil/workspace/arm/lm3s811/TI_Stellaris/driverlib/usb.c ****     unsigned long ulTxPktRdy;
2904:/home/cuil/workspace/arm/lm3s811/TI_Stellaris/driverlib/usb.c **** 
2905:/home/cuil/workspace/arm/lm3s811/TI_Stellaris/driverlib/usb.c ****     //
2906:/home/cuil/workspace/arm/lm3s811/TI_Stellaris/driverlib/usb.c ****     // Check the arguments.
2907:/home/cuil/workspace/arm/lm3s811/TI_Stellaris/driverlib/usb.c ****     //
2908:/home/cuil/workspace/arm/lm3s811/TI_Stellaris/driverlib/usb.c ****     ASSERT(ulBase == USB0_BASE);
2909:/home/cuil/workspace/arm/lm3s811/TI_Stellaris/driverlib/usb.c ****     ASSERT((ulEndpoint == USB_EP_0) || (ulEndpoint == USB_EP_1) ||
2910:/home/cuil/workspace/arm/lm3s811/TI_Stellaris/driverlib/usb.c ****            (ulEndpoint == USB_EP_2) || (ulEndpoint == USB_EP_3) ||
2911:/home/cuil/workspace/arm/lm3s811/TI_Stellaris/driverlib/usb.c ****            (ulEndpoint == USB_EP_4) || (ulEndpoint == USB_EP_5) ||
2912:/home/cuil/workspace/arm/lm3s811/TI_Stellaris/driverlib/usb.c ****            (ulEndpoint == USB_EP_6) || (ulEndpoint == USB_EP_7) ||
2913:/home/cuil/workspace/arm/lm3s811/TI_Stellaris/driverlib/usb.c ****            (ulEndpoint == USB_EP_8) || (ulEndpoint == USB_EP_9) ||
2914:/home/cuil/workspace/arm/lm3s811/TI_Stellaris/driverlib/usb.c ****            (ulEndpoint == USB_EP_10) || (ulEndpoint == USB_EP_11) ||
2915:/home/cuil/workspace/arm/lm3s811/TI_Stellaris/driverlib/usb.c ****            (ulEndpoint == USB_EP_12) || (ulEndpoint == USB_EP_13) ||
2916:/home/cuil/workspace/arm/lm3s811/TI_Stellaris/driverlib/usb.c ****            (ulEndpoint == USB_EP_14) || (ulEndpoint == USB_EP_15));
2917:/home/cuil/workspace/arm/lm3s811/TI_Stellaris/driverlib/usb.c **** 
2918:/home/cuil/workspace/arm/lm3s811/TI_Stellaris/driverlib/usb.c ****     //
2919:/home/cuil/workspace/arm/lm3s811/TI_Stellaris/driverlib/usb.c ****     // Get the bit position of TxPktRdy based on the endpoint.
2920:/home/cuil/workspace/arm/lm3s811/TI_Stellaris/driverlib/usb.c ****     //
2921:/home/cuil/workspace/arm/lm3s811/TI_Stellaris/driverlib/usb.c ****     if(ulEndpoint == USB_EP_0)
 12959              		.loc 1 2921 0
 12960 000c BB68     		ldr	r3, [r7, #8]
 12961 000e 002B     		cmp	r3, #0
 12962 0010 04D1     		bne	.L174
2922:/home/cuil/workspace/arm/lm3s811/TI_Stellaris/driverlib/usb.c ****     {
2923:/home/cuil/workspace/arm/lm3s811/TI_Stellaris/driverlib/usb.c ****         ulTxPktRdy = ulTransType & 0xff;
 12963              		.loc 1 2923 0
 12964 0012 7B68     		ldr	r3, [r7, #4]
 12965 0014 03F0FF03 		and	r3, r3, #255
 12966 0018 7B61     		str	r3, [r7, #20]
 12967 001a 05E0     		b	.L175
 12968              	.L174:
2924:/home/cuil/workspace/arm/lm3s811/TI_Stellaris/driverlib/usb.c ****     }
2925:/home/cuil/workspace/arm/lm3s811/TI_Stellaris/driverlib/usb.c ****     else
2926:/home/cuil/workspace/arm/lm3s811/TI_Stellaris/driverlib/usb.c ****     {
2927:/home/cuil/workspace/arm/lm3s811/TI_Stellaris/driverlib/usb.c ****         ulTxPktRdy = (ulTransType >> 8) & 0xff;
 12969              		.loc 1 2927 0
 12970 001c 7B68     		ldr	r3, [r7, #4]
 12971 001e 4FEA1323 		lsr	r3, r3, #8
 12972 0022 03F0FF03 		and	r3, r3, #255
 12973 0026 7B61     		str	r3, [r7, #20]
 12974              	.L175:
2928:/home/cuil/workspace/arm/lm3s811/TI_Stellaris/driverlib/usb.c ****     }
2929:/home/cuil/workspace/arm/lm3s811/TI_Stellaris/driverlib/usb.c **** 
2930:/home/cuil/workspace/arm/lm3s811/TI_Stellaris/driverlib/usb.c ****     //
2931:/home/cuil/workspace/arm/lm3s811/TI_Stellaris/driverlib/usb.c ****     // Don't allow transmit of data if the TxPktRdy bit is already set.
2932:/home/cuil/workspace/arm/lm3s811/TI_Stellaris/driverlib/usb.c ****     //
2933:/home/cuil/workspace/arm/lm3s811/TI_Stellaris/driverlib/usb.c ****     if(HWREGB(ulBase + USB_O_CSRL0 + ulEndpoint) & USB_CSRL0_TXRDY)
 12975              		.loc 1 2933 0
 12976 0028 FA68     		ldr	r2, [r7, #12]
 12977 002a BB68     		ldr	r3, [r7, #8]
 12978 002c D318     		adds	r3, r2, r3
 12979 002e 03F58173 		add	r3, r3, #258
 12980 0032 1B78     		ldrb	r3, [r3, #0]
 12981 0034 DBB2     		uxtb	r3, r3
 12982 0036 03F00203 		and	r3, r3, #2
 12983 003a 002B     		cmp	r3, #0
 12984 003c 02D0     		beq	.L176
2934:/home/cuil/workspace/arm/lm3s811/TI_Stellaris/driverlib/usb.c ****     {
2935:/home/cuil/workspace/arm/lm3s811/TI_Stellaris/driverlib/usb.c ****         return(-1);
 12985              		.loc 1 2935 0
 12986 003e 4FF0FF33 		mov	r3, #-1
 12987 0042 09E0     		b	.L177
 12988              	.L176:
2936:/home/cuil/workspace/arm/lm3s811/TI_Stellaris/driverlib/usb.c ****     }
2937:/home/cuil/workspace/arm/lm3s811/TI_Stellaris/driverlib/usb.c **** 
2938:/home/cuil/workspace/arm/lm3s811/TI_Stellaris/driverlib/usb.c ****     //
2939:/home/cuil/workspace/arm/lm3s811/TI_Stellaris/driverlib/usb.c ****     // Set TxPktRdy in order to send the data.
2940:/home/cuil/workspace/arm/lm3s811/TI_Stellaris/driverlib/usb.c ****     //
2941:/home/cuil/workspace/arm/lm3s811/TI_Stellaris/driverlib/usb.c ****     HWREGB(ulBase + USB_O_CSRL0 + ulEndpoint) = ulTxPktRdy;
 12989              		.loc 1 2941 0
 12990 0044 FA68     		ldr	r2, [r7, #12]
 12991 0046 BB68     		ldr	r3, [r7, #8]
 12992 0048 D318     		adds	r3, r2, r3
 12993 004a 03F58173 		add	r3, r3, #258
 12994 004e 7A69     		ldr	r2, [r7, #20]
 12995 0050 D2B2     		uxtb	r2, r2
 12996 0052 1A70     		strb	r2, [r3, #0]
2942:/home/cuil/workspace/arm/lm3s811/TI_Stellaris/driverlib/usb.c **** 
2943:/home/cuil/workspace/arm/lm3s811/TI_Stellaris/driverlib/usb.c ****     //
2944:/home/cuil/workspace/arm/lm3s811/TI_Stellaris/driverlib/usb.c ****     // Success.
2945:/home/cuil/workspace/arm/lm3s811/TI_Stellaris/driverlib/usb.c ****     //
2946:/home/cuil/workspace/arm/lm3s811/TI_Stellaris/driverlib/usb.c ****     return(0);
 12997              		.loc 1 2946 0
 12998 0054 4FF00003 		mov	r3, #0
 12999              	.L177:
2947:/home/cuil/workspace/arm/lm3s811/TI_Stellaris/driverlib/usb.c **** }
 13000              		.loc 1 2947 0
 13001 0058 1846     		mov	r0, r3
 13002 005a 07F11C07 		add	r7, r7, #28
 13003 005e BD46     		mov	sp, r7
 13004 0060 80BC     		pop	{r7}
 13005 0062 7047     		bx	lr
 13006              		.cfi_endproc
 13007              	.LFE40:
 13009              		.section	.text.USBFIFOFlush,"ax",%progbits
 13010              		.align	2
 13011              		.global	USBFIFOFlush
 13012              		.thumb
 13013              		.thumb_func
 13015              	USBFIFOFlush:
 13016              	.LFB41:
2948:/home/cuil/workspace/arm/lm3s811/TI_Stellaris/driverlib/usb.c **** 
2949:/home/cuil/workspace/arm/lm3s811/TI_Stellaris/driverlib/usb.c **** //*****************************************************************************
2950:/home/cuil/workspace/arm/lm3s811/TI_Stellaris/driverlib/usb.c **** //
2951:/home/cuil/workspace/arm/lm3s811/TI_Stellaris/driverlib/usb.c **** //! Forces a flush of an endpoint's FIFO.
2952:/home/cuil/workspace/arm/lm3s811/TI_Stellaris/driverlib/usb.c **** //!
2953:/home/cuil/workspace/arm/lm3s811/TI_Stellaris/driverlib/usb.c **** //! \param ulBase specifies the USB module base address.
2954:/home/cuil/workspace/arm/lm3s811/TI_Stellaris/driverlib/usb.c **** //! \param ulEndpoint is the endpoint to access.
2955:/home/cuil/workspace/arm/lm3s811/TI_Stellaris/driverlib/usb.c **** //! \param ulFlags specifies if the IN or OUT endpoint should be accessed.
2956:/home/cuil/workspace/arm/lm3s811/TI_Stellaris/driverlib/usb.c **** //!
2957:/home/cuil/workspace/arm/lm3s811/TI_Stellaris/driverlib/usb.c **** //! This function forces the USB controller to flush out the data in the FIFO.
2958:/home/cuil/workspace/arm/lm3s811/TI_Stellaris/driverlib/usb.c **** //! The function can be called with either host or device controllers and
2959:/home/cuil/workspace/arm/lm3s811/TI_Stellaris/driverlib/usb.c **** //! requires the \e ulFlags parameter be one of \b USB_EP_HOST_OUT,
2960:/home/cuil/workspace/arm/lm3s811/TI_Stellaris/driverlib/usb.c **** //! \b USB_EP_HOST_IN, \b USB_EP_DEV_OUT, or \b USB_EP_DEV_IN.
2961:/home/cuil/workspace/arm/lm3s811/TI_Stellaris/driverlib/usb.c **** //!
2962:/home/cuil/workspace/arm/lm3s811/TI_Stellaris/driverlib/usb.c **** //! \return None.
2963:/home/cuil/workspace/arm/lm3s811/TI_Stellaris/driverlib/usb.c **** //
2964:/home/cuil/workspace/arm/lm3s811/TI_Stellaris/driverlib/usb.c **** //*****************************************************************************
2965:/home/cuil/workspace/arm/lm3s811/TI_Stellaris/driverlib/usb.c **** void
2966:/home/cuil/workspace/arm/lm3s811/TI_Stellaris/driverlib/usb.c **** USBFIFOFlush(unsigned long ulBase, unsigned long ulEndpoint,
2967:/home/cuil/workspace/arm/lm3s811/TI_Stellaris/driverlib/usb.c ****              unsigned long ulFlags)
2968:/home/cuil/workspace/arm/lm3s811/TI_Stellaris/driverlib/usb.c **** {
 13017              		.loc 1 2968 0
 13018              		.cfi_startproc
 13019              		@ args = 0, pretend = 0, frame = 16
 13020              		@ frame_needed = 1, uses_anonymous_args = 0
 13021              		@ link register save eliminated.
 13022 0000 80B4     		push	{r7}
 13023              	.LCFI123:
 13024              		.cfi_def_cfa_offset 4
 13025 0002 85B0     		sub	sp, sp, #20
 13026              	.LCFI124:
 13027              		.cfi_def_cfa_offset 24
 13028 0004 00AF     		add	r7, sp, #0
 13029              		.cfi_offset 7, -4
 13030              	.LCFI125:
 13031              		.cfi_def_cfa_register 7
 13032 0006 F860     		str	r0, [r7, #12]
 13033 0008 B960     		str	r1, [r7, #8]
 13034 000a 7A60     		str	r2, [r7, #4]
2969:/home/cuil/workspace/arm/lm3s811/TI_Stellaris/driverlib/usb.c ****     //
2970:/home/cuil/workspace/arm/lm3s811/TI_Stellaris/driverlib/usb.c ****     // Check the arguments.
2971:/home/cuil/workspace/arm/lm3s811/TI_Stellaris/driverlib/usb.c ****     //
2972:/home/cuil/workspace/arm/lm3s811/TI_Stellaris/driverlib/usb.c ****     ASSERT(ulBase == USB0_BASE);
2973:/home/cuil/workspace/arm/lm3s811/TI_Stellaris/driverlib/usb.c ****     ASSERT((ulEndpoint == USB_EP_0) || (ulEndpoint == USB_EP_1) ||
2974:/home/cuil/workspace/arm/lm3s811/TI_Stellaris/driverlib/usb.c ****            (ulEndpoint == USB_EP_2) || (ulEndpoint == USB_EP_3) ||
2975:/home/cuil/workspace/arm/lm3s811/TI_Stellaris/driverlib/usb.c ****            (ulEndpoint == USB_EP_4) || (ulEndpoint == USB_EP_5) ||
2976:/home/cuil/workspace/arm/lm3s811/TI_Stellaris/driverlib/usb.c ****            (ulEndpoint == USB_EP_6) || (ulEndpoint == USB_EP_7) ||
2977:/home/cuil/workspace/arm/lm3s811/TI_Stellaris/driverlib/usb.c ****            (ulEndpoint == USB_EP_8) || (ulEndpoint == USB_EP_9) ||
2978:/home/cuil/workspace/arm/lm3s811/TI_Stellaris/driverlib/usb.c ****            (ulEndpoint == USB_EP_10) || (ulEndpoint == USB_EP_11) ||
2979:/home/cuil/workspace/arm/lm3s811/TI_Stellaris/driverlib/usb.c ****            (ulEndpoint == USB_EP_12) || (ulEndpoint == USB_EP_13) ||
2980:/home/cuil/workspace/arm/lm3s811/TI_Stellaris/driverlib/usb.c ****            (ulEndpoint == USB_EP_14) || (ulEndpoint == USB_EP_15));
2981:/home/cuil/workspace/arm/lm3s811/TI_Stellaris/driverlib/usb.c **** 
2982:/home/cuil/workspace/arm/lm3s811/TI_Stellaris/driverlib/usb.c ****     //
2983:/home/cuil/workspace/arm/lm3s811/TI_Stellaris/driverlib/usb.c ****     // Endpoint zero has a different register set for FIFO flushing.
2984:/home/cuil/workspace/arm/lm3s811/TI_Stellaris/driverlib/usb.c ****     //
2985:/home/cuil/workspace/arm/lm3s811/TI_Stellaris/driverlib/usb.c ****     if(ulEndpoint == USB_EP_0)
 13035              		.loc 1 2985 0
 13036 000c BB68     		ldr	r3, [r7, #8]
 13037 000e 002B     		cmp	r3, #0
 13038 0010 11D1     		bne	.L179
2986:/home/cuil/workspace/arm/lm3s811/TI_Stellaris/driverlib/usb.c ****     {
2987:/home/cuil/workspace/arm/lm3s811/TI_Stellaris/driverlib/usb.c ****         //
2988:/home/cuil/workspace/arm/lm3s811/TI_Stellaris/driverlib/usb.c ****         // Nothing in the FIFO if neither of these bits are set.
2989:/home/cuil/workspace/arm/lm3s811/TI_Stellaris/driverlib/usb.c ****         //
2990:/home/cuil/workspace/arm/lm3s811/TI_Stellaris/driverlib/usb.c ****         if((HWREGB(ulBase + USB_O_CSRL0) &
 13039              		.loc 1 2990 0
 13040 0012 FB68     		ldr	r3, [r7, #12]
 13041 0014 03F58173 		add	r3, r3, #258
 13042 0018 1B78     		ldrb	r3, [r3, #0]
 13043 001a DBB2     		uxtb	r3, r3
 13044 001c 03F00303 		and	r3, r3, #3
 13045 0020 002B     		cmp	r3, #0
 13046 0022 46D0     		beq	.L178
2991:/home/cuil/workspace/arm/lm3s811/TI_Stellaris/driverlib/usb.c ****             (USB_CSRL0_RXRDY | USB_CSRL0_TXRDY)) != 0)
2992:/home/cuil/workspace/arm/lm3s811/TI_Stellaris/driverlib/usb.c ****         {
2993:/home/cuil/workspace/arm/lm3s811/TI_Stellaris/driverlib/usb.c ****             //
2994:/home/cuil/workspace/arm/lm3s811/TI_Stellaris/driverlib/usb.c ****             // Hit the Flush FIFO bit.
2995:/home/cuil/workspace/arm/lm3s811/TI_Stellaris/driverlib/usb.c ****             //
2996:/home/cuil/workspace/arm/lm3s811/TI_Stellaris/driverlib/usb.c ****             HWREGB(ulBase + USB_O_CSRH0) = USB_CSRH0_FLUSH;
 13047              		.loc 1 2996 0
 13048 0024 FB68     		ldr	r3, [r7, #12]
 13049 0026 03F58073 		add	r3, r3, #256
 13050 002a 03F10303 		add	r3, r3, #3
 13051 002e 4FF00102 		mov	r2, #1
 13052 0032 1A70     		strb	r2, [r3, #0]
 13053 0034 3DE0     		b	.L178
 13054              	.L179:
2997:/home/cuil/workspace/arm/lm3s811/TI_Stellaris/driverlib/usb.c ****         }
2998:/home/cuil/workspace/arm/lm3s811/TI_Stellaris/driverlib/usb.c ****     }
2999:/home/cuil/workspace/arm/lm3s811/TI_Stellaris/driverlib/usb.c ****     else
3000:/home/cuil/workspace/arm/lm3s811/TI_Stellaris/driverlib/usb.c ****     {
3001:/home/cuil/workspace/arm/lm3s811/TI_Stellaris/driverlib/usb.c ****         //
3002:/home/cuil/workspace/arm/lm3s811/TI_Stellaris/driverlib/usb.c ****         // Only reset the IN or OUT FIFO.
3003:/home/cuil/workspace/arm/lm3s811/TI_Stellaris/driverlib/usb.c ****         //
3004:/home/cuil/workspace/arm/lm3s811/TI_Stellaris/driverlib/usb.c ****         if(ulFlags & (USB_EP_HOST_OUT | USB_EP_DEV_IN))
 13055              		.loc 1 3004 0
 13056 0036 7B68     		ldr	r3, [r7, #4]
 13057 0038 03F40053 		and	r3, r3, #8192
 13058 003c 002B     		cmp	r3, #0
 13059 003e 1CD0     		beq	.L181
3005:/home/cuil/workspace/arm/lm3s811/TI_Stellaris/driverlib/usb.c ****         {
3006:/home/cuil/workspace/arm/lm3s811/TI_Stellaris/driverlib/usb.c ****             //
3007:/home/cuil/workspace/arm/lm3s811/TI_Stellaris/driverlib/usb.c ****             // Make sure the FIFO is not empty.
3008:/home/cuil/workspace/arm/lm3s811/TI_Stellaris/driverlib/usb.c ****             //
3009:/home/cuil/workspace/arm/lm3s811/TI_Stellaris/driverlib/usb.c ****             if(HWREGB(ulBase + USB_O_TXCSRL1 + EP_OFFSET(ulEndpoint)) &
 13060              		.loc 1 3009 0
 13061 0040 FA68     		ldr	r2, [r7, #12]
 13062 0042 BB68     		ldr	r3, [r7, #8]
 13063 0044 D318     		adds	r3, r2, r3
 13064 0046 03F58173 		add	r3, r3, #258
 13065 004a 1B78     		ldrb	r3, [r3, #0]
 13066 004c DBB2     		uxtb	r3, r3
 13067 004e 03F00103 		and	r3, r3, #1
 13068 0052 DBB2     		uxtb	r3, r3
 13069 0054 002B     		cmp	r3, #0
 13070 0056 2CD0     		beq	.L178
3010:/home/cuil/workspace/arm/lm3s811/TI_Stellaris/driverlib/usb.c ****                USB_TXCSRL1_TXRDY)
3011:/home/cuil/workspace/arm/lm3s811/TI_Stellaris/driverlib/usb.c ****             {
3012:/home/cuil/workspace/arm/lm3s811/TI_Stellaris/driverlib/usb.c ****                 //
3013:/home/cuil/workspace/arm/lm3s811/TI_Stellaris/driverlib/usb.c ****                 // Hit the Flush FIFO bit.
3014:/home/cuil/workspace/arm/lm3s811/TI_Stellaris/driverlib/usb.c ****                 //
3015:/home/cuil/workspace/arm/lm3s811/TI_Stellaris/driverlib/usb.c ****                 HWREGB(ulBase + USB_O_TXCSRL1 + EP_OFFSET(ulEndpoint)) |=
 13071              		.loc 1 3015 0
 13072 0058 FA68     		ldr	r2, [r7, #12]
 13073 005a BB68     		ldr	r3, [r7, #8]
 13074 005c D318     		adds	r3, r2, r3
 13075 005e 03F58173 		add	r3, r3, #258
 13076 0062 F968     		ldr	r1, [r7, #12]
 13077 0064 BA68     		ldr	r2, [r7, #8]
 13078 0066 8A18     		adds	r2, r1, r2
 13079 0068 02F58172 		add	r2, r2, #258
 13080 006c 1278     		ldrb	r2, [r2, #0]
 13081 006e D2B2     		uxtb	r2, r2
 13082 0070 42F00802 		orr	r2, r2, #8
 13083 0074 D2B2     		uxtb	r2, r2
 13084 0076 1A70     		strb	r2, [r3, #0]
 13085 0078 1BE0     		b	.L178
 13086              	.L181:
3016:/home/cuil/workspace/arm/lm3s811/TI_Stellaris/driverlib/usb.c ****                     USB_TXCSRL1_FLUSH;
3017:/home/cuil/workspace/arm/lm3s811/TI_Stellaris/driverlib/usb.c ****             }
3018:/home/cuil/workspace/arm/lm3s811/TI_Stellaris/driverlib/usb.c ****         }
3019:/home/cuil/workspace/arm/lm3s811/TI_Stellaris/driverlib/usb.c ****         else
3020:/home/cuil/workspace/arm/lm3s811/TI_Stellaris/driverlib/usb.c ****         {
3021:/home/cuil/workspace/arm/lm3s811/TI_Stellaris/driverlib/usb.c ****             //
3022:/home/cuil/workspace/arm/lm3s811/TI_Stellaris/driverlib/usb.c ****             // Make sure that the FIFO is not empty.
3023:/home/cuil/workspace/arm/lm3s811/TI_Stellaris/driverlib/usb.c ****             //
3024:/home/cuil/workspace/arm/lm3s811/TI_Stellaris/driverlib/usb.c ****             if(HWREGB(ulBase + USB_O_RXCSRL1 + EP_OFFSET(ulEndpoint)) &
 13087              		.loc 1 3024 0
 13088 007a FA68     		ldr	r2, [r7, #12]
 13089 007c BB68     		ldr	r3, [r7, #8]
 13090 007e D318     		adds	r3, r2, r3
 13091 0080 03F58373 		add	r3, r3, #262
 13092 0084 1B78     		ldrb	r3, [r3, #0]
 13093 0086 DBB2     		uxtb	r3, r3
 13094 0088 03F00103 		and	r3, r3, #1
 13095 008c DBB2     		uxtb	r3, r3
 13096 008e 002B     		cmp	r3, #0
 13097 0090 0FD0     		beq	.L178
3025:/home/cuil/workspace/arm/lm3s811/TI_Stellaris/driverlib/usb.c ****                USB_RXCSRL1_RXRDY)
3026:/home/cuil/workspace/arm/lm3s811/TI_Stellaris/driverlib/usb.c ****             {
3027:/home/cuil/workspace/arm/lm3s811/TI_Stellaris/driverlib/usb.c ****                 //
3028:/home/cuil/workspace/arm/lm3s811/TI_Stellaris/driverlib/usb.c ****                 // Hit the Flush FIFO bit.
3029:/home/cuil/workspace/arm/lm3s811/TI_Stellaris/driverlib/usb.c ****                 //
3030:/home/cuil/workspace/arm/lm3s811/TI_Stellaris/driverlib/usb.c ****                 HWREGB(ulBase + USB_O_RXCSRL1 + EP_OFFSET(ulEndpoint)) |=
 13098              		.loc 1 3030 0
 13099 0092 FA68     		ldr	r2, [r7, #12]
 13100 0094 BB68     		ldr	r3, [r7, #8]
 13101 0096 D318     		adds	r3, r2, r3
 13102 0098 03F58373 		add	r3, r3, #262
 13103 009c F968     		ldr	r1, [r7, #12]
 13104 009e BA68     		ldr	r2, [r7, #8]
 13105 00a0 8A18     		adds	r2, r1, r2
 13106 00a2 02F58372 		add	r2, r2, #262
 13107 00a6 1278     		ldrb	r2, [r2, #0]
 13108 00a8 D2B2     		uxtb	r2, r2
 13109 00aa 42F01002 		orr	r2, r2, #16
 13110 00ae D2B2     		uxtb	r2, r2
 13111 00b0 1A70     		strb	r2, [r3, #0]
 13112              	.L178:
3031:/home/cuil/workspace/arm/lm3s811/TI_Stellaris/driverlib/usb.c ****                     USB_RXCSRL1_FLUSH;
3032:/home/cuil/workspace/arm/lm3s811/TI_Stellaris/driverlib/usb.c ****             }
3033:/home/cuil/workspace/arm/lm3s811/TI_Stellaris/driverlib/usb.c ****         }
3034:/home/cuil/workspace/arm/lm3s811/TI_Stellaris/driverlib/usb.c ****     }
3035:/home/cuil/workspace/arm/lm3s811/TI_Stellaris/driverlib/usb.c **** }
 13113              		.loc 1 3035 0
 13114 00b2 07F11407 		add	r7, r7, #20
 13115 00b6 BD46     		mov	sp, r7
 13116 00b8 80BC     		pop	{r7}
 13117 00ba 7047     		bx	lr
 13118              		.cfi_endproc
 13119              	.LFE41:
 13121              		.section	.text.USBHostRequestIN,"ax",%progbits
 13122              		.align	2
 13123              		.global	USBHostRequestIN
 13124              		.thumb
 13125              		.thumb_func
 13127              	USBHostRequestIN:
 13128              	.LFB42:
3036:/home/cuil/workspace/arm/lm3s811/TI_Stellaris/driverlib/usb.c **** 
3037:/home/cuil/workspace/arm/lm3s811/TI_Stellaris/driverlib/usb.c **** //*****************************************************************************
3038:/home/cuil/workspace/arm/lm3s811/TI_Stellaris/driverlib/usb.c **** //
3039:/home/cuil/workspace/arm/lm3s811/TI_Stellaris/driverlib/usb.c **** //! Schedules a request for an IN transaction on an endpoint in host mode.
3040:/home/cuil/workspace/arm/lm3s811/TI_Stellaris/driverlib/usb.c **** //!
3041:/home/cuil/workspace/arm/lm3s811/TI_Stellaris/driverlib/usb.c **** //! \param ulBase specifies the USB module base address.
3042:/home/cuil/workspace/arm/lm3s811/TI_Stellaris/driverlib/usb.c **** //! \param ulEndpoint is the endpoint to access.
3043:/home/cuil/workspace/arm/lm3s811/TI_Stellaris/driverlib/usb.c **** //!
3044:/home/cuil/workspace/arm/lm3s811/TI_Stellaris/driverlib/usb.c **** //! This function schedules a request for an IN transaction.  When the USB
3045:/home/cuil/workspace/arm/lm3s811/TI_Stellaris/driverlib/usb.c **** //! device being communicated with responds with the data, the data can be 
3046:/home/cuil/workspace/arm/lm3s811/TI_Stellaris/driverlib/usb.c **** //! retrieved by calling USBEndpointDataGet() or via a DMA transfer.
3047:/home/cuil/workspace/arm/lm3s811/TI_Stellaris/driverlib/usb.c **** //!
3048:/home/cuil/workspace/arm/lm3s811/TI_Stellaris/driverlib/usb.c **** //! \note This function should only be called in host mode and only for IN
3049:/home/cuil/workspace/arm/lm3s811/TI_Stellaris/driverlib/usb.c **** //! endpoints.
3050:/home/cuil/workspace/arm/lm3s811/TI_Stellaris/driverlib/usb.c **** //!
3051:/home/cuil/workspace/arm/lm3s811/TI_Stellaris/driverlib/usb.c **** //! \return None.
3052:/home/cuil/workspace/arm/lm3s811/TI_Stellaris/driverlib/usb.c **** //
3053:/home/cuil/workspace/arm/lm3s811/TI_Stellaris/driverlib/usb.c **** //*****************************************************************************
3054:/home/cuil/workspace/arm/lm3s811/TI_Stellaris/driverlib/usb.c **** void
3055:/home/cuil/workspace/arm/lm3s811/TI_Stellaris/driverlib/usb.c **** USBHostRequestIN(unsigned long ulBase, unsigned long ulEndpoint)
3056:/home/cuil/workspace/arm/lm3s811/TI_Stellaris/driverlib/usb.c **** {
 13129              		.loc 1 3056 0
 13130              		.cfi_startproc
 13131              		@ args = 0, pretend = 0, frame = 16
 13132              		@ frame_needed = 1, uses_anonymous_args = 0
 13133              		@ link register save eliminated.
 13134 0000 80B4     		push	{r7}
 13135              	.LCFI126:
 13136              		.cfi_def_cfa_offset 4
 13137 0002 85B0     		sub	sp, sp, #20
 13138              	.LCFI127:
 13139              		.cfi_def_cfa_offset 24
 13140 0004 00AF     		add	r7, sp, #0
 13141              		.cfi_offset 7, -4
 13142              	.LCFI128:
 13143              		.cfi_def_cfa_register 7
 13144 0006 7860     		str	r0, [r7, #4]
 13145 0008 3960     		str	r1, [r7, #0]
3057:/home/cuil/workspace/arm/lm3s811/TI_Stellaris/driverlib/usb.c ****     unsigned long ulRegister;
3058:/home/cuil/workspace/arm/lm3s811/TI_Stellaris/driverlib/usb.c **** 
3059:/home/cuil/workspace/arm/lm3s811/TI_Stellaris/driverlib/usb.c ****     //
3060:/home/cuil/workspace/arm/lm3s811/TI_Stellaris/driverlib/usb.c ****     // Check the arguments.
3061:/home/cuil/workspace/arm/lm3s811/TI_Stellaris/driverlib/usb.c ****     //
3062:/home/cuil/workspace/arm/lm3s811/TI_Stellaris/driverlib/usb.c ****     ASSERT(ulBase == USB0_BASE);
3063:/home/cuil/workspace/arm/lm3s811/TI_Stellaris/driverlib/usb.c ****     ASSERT((ulEndpoint == USB_EP_0) || (ulEndpoint == USB_EP_1) ||
3064:/home/cuil/workspace/arm/lm3s811/TI_Stellaris/driverlib/usb.c ****            (ulEndpoint == USB_EP_2) || (ulEndpoint == USB_EP_3) ||
3065:/home/cuil/workspace/arm/lm3s811/TI_Stellaris/driverlib/usb.c ****            (ulEndpoint == USB_EP_4) || (ulEndpoint == USB_EP_5) ||
3066:/home/cuil/workspace/arm/lm3s811/TI_Stellaris/driverlib/usb.c ****            (ulEndpoint == USB_EP_6) || (ulEndpoint == USB_EP_7) ||
3067:/home/cuil/workspace/arm/lm3s811/TI_Stellaris/driverlib/usb.c ****            (ulEndpoint == USB_EP_8) || (ulEndpoint == USB_EP_9) ||
3068:/home/cuil/workspace/arm/lm3s811/TI_Stellaris/driverlib/usb.c ****            (ulEndpoint == USB_EP_10) || (ulEndpoint == USB_EP_11) ||
3069:/home/cuil/workspace/arm/lm3s811/TI_Stellaris/driverlib/usb.c ****            (ulEndpoint == USB_EP_12) || (ulEndpoint == USB_EP_13) ||
3070:/home/cuil/workspace/arm/lm3s811/TI_Stellaris/driverlib/usb.c ****            (ulEndpoint == USB_EP_14) || (ulEndpoint == USB_EP_15));
3071:/home/cuil/workspace/arm/lm3s811/TI_Stellaris/driverlib/usb.c **** 
3072:/home/cuil/workspace/arm/lm3s811/TI_Stellaris/driverlib/usb.c ****     //
3073:/home/cuil/workspace/arm/lm3s811/TI_Stellaris/driverlib/usb.c ****     // Endpoint zero uses a different offset than the other endpoints.
3074:/home/cuil/workspace/arm/lm3s811/TI_Stellaris/driverlib/usb.c ****     //
3075:/home/cuil/workspace/arm/lm3s811/TI_Stellaris/driverlib/usb.c ****     if(ulEndpoint == USB_EP_0)
 13146              		.loc 1 3075 0
 13147 000a 3B68     		ldr	r3, [r7, #0]
 13148 000c 002B     		cmp	r3, #0
 13149 000e 03D1     		bne	.L183
3076:/home/cuil/workspace/arm/lm3s811/TI_Stellaris/driverlib/usb.c ****     {
3077:/home/cuil/workspace/arm/lm3s811/TI_Stellaris/driverlib/usb.c ****         ulRegister = USB_O_CSRL0;
 13150              		.loc 1 3077 0
 13151 0010 4FF48173 		mov	r3, #258
 13152 0014 FB60     		str	r3, [r7, #12]
 13153 0016 03E0     		b	.L184
 13154              	.L183:
3078:/home/cuil/workspace/arm/lm3s811/TI_Stellaris/driverlib/usb.c ****     }
3079:/home/cuil/workspace/arm/lm3s811/TI_Stellaris/driverlib/usb.c ****     else
3080:/home/cuil/workspace/arm/lm3s811/TI_Stellaris/driverlib/usb.c ****     {
3081:/home/cuil/workspace/arm/lm3s811/TI_Stellaris/driverlib/usb.c ****         ulRegister = USB_O_RXCSRL1 + EP_OFFSET(ulEndpoint);
 13155              		.loc 1 3081 0
 13156 0018 3B68     		ldr	r3, [r7, #0]
 13157 001a 03F58373 		add	r3, r3, #262
 13158 001e FB60     		str	r3, [r7, #12]
 13159              	.L184:
3082:/home/cuil/workspace/arm/lm3s811/TI_Stellaris/driverlib/usb.c ****     }
3083:/home/cuil/workspace/arm/lm3s811/TI_Stellaris/driverlib/usb.c **** 
3084:/home/cuil/workspace/arm/lm3s811/TI_Stellaris/driverlib/usb.c ****     //
3085:/home/cuil/workspace/arm/lm3s811/TI_Stellaris/driverlib/usb.c ****     // Set the request for an IN transaction.
3086:/home/cuil/workspace/arm/lm3s811/TI_Stellaris/driverlib/usb.c ****     //
3087:/home/cuil/workspace/arm/lm3s811/TI_Stellaris/driverlib/usb.c ****     HWREGB(ulBase + ulRegister) = USB_RXCSRL1_REQPKT;
 13160              		.loc 1 3087 0
 13161 0020 7A68     		ldr	r2, [r7, #4]
 13162 0022 FB68     		ldr	r3, [r7, #12]
 13163 0024 D318     		adds	r3, r2, r3
 13164 0026 4FF02002 		mov	r2, #32
 13165 002a 1A70     		strb	r2, [r3, #0]
3088:/home/cuil/workspace/arm/lm3s811/TI_Stellaris/driverlib/usb.c **** }
 13166              		.loc 1 3088 0
 13167 002c 07F11407 		add	r7, r7, #20
 13168 0030 BD46     		mov	sp, r7
 13169 0032 80BC     		pop	{r7}
 13170 0034 7047     		bx	lr
 13171              		.cfi_endproc
 13172              	.LFE42:
 13174 0036 00BF     		.section	.text.USBHostRequestINClear,"ax",%progbits
 13175              		.align	2
 13176              		.global	USBHostRequestINClear
 13177              		.thumb
 13178              		.thumb_func
 13180              	USBHostRequestINClear:
 13181              	.LFB43:
3089:/home/cuil/workspace/arm/lm3s811/TI_Stellaris/driverlib/usb.c **** 
3090:/home/cuil/workspace/arm/lm3s811/TI_Stellaris/driverlib/usb.c **** //*****************************************************************************
3091:/home/cuil/workspace/arm/lm3s811/TI_Stellaris/driverlib/usb.c **** //
3092:/home/cuil/workspace/arm/lm3s811/TI_Stellaris/driverlib/usb.c **** //! Clears a scheduled IN transaction for an endpoint in host mode.
3093:/home/cuil/workspace/arm/lm3s811/TI_Stellaris/driverlib/usb.c **** //!
3094:/home/cuil/workspace/arm/lm3s811/TI_Stellaris/driverlib/usb.c **** //! \param ulBase specifies the USB module base address.
3095:/home/cuil/workspace/arm/lm3s811/TI_Stellaris/driverlib/usb.c **** //! \param ulEndpoint is the endpoint to access.
3096:/home/cuil/workspace/arm/lm3s811/TI_Stellaris/driverlib/usb.c **** //!
3097:/home/cuil/workspace/arm/lm3s811/TI_Stellaris/driverlib/usb.c **** //! This function clears a previously scheduled IN transaction if it is
3098:/home/cuil/workspace/arm/lm3s811/TI_Stellaris/driverlib/usb.c **** //! still pending.  This function should be used to safely disable any
3099:/home/cuil/workspace/arm/lm3s811/TI_Stellaris/driverlib/usb.c **** //! scheduled IN transactions if the endpoint specified by \e ulEndpoint
3100:/home/cuil/workspace/arm/lm3s811/TI_Stellaris/driverlib/usb.c **** //! is reconfigured for communications with other devices.
3101:/home/cuil/workspace/arm/lm3s811/TI_Stellaris/driverlib/usb.c **** //!
3102:/home/cuil/workspace/arm/lm3s811/TI_Stellaris/driverlib/usb.c **** //! \note This function should only be called in host mode and only for IN
3103:/home/cuil/workspace/arm/lm3s811/TI_Stellaris/driverlib/usb.c **** //! endpoints.
3104:/home/cuil/workspace/arm/lm3s811/TI_Stellaris/driverlib/usb.c **** //!
3105:/home/cuil/workspace/arm/lm3s811/TI_Stellaris/driverlib/usb.c **** //! \return None.
3106:/home/cuil/workspace/arm/lm3s811/TI_Stellaris/driverlib/usb.c **** //
3107:/home/cuil/workspace/arm/lm3s811/TI_Stellaris/driverlib/usb.c **** //*****************************************************************************
3108:/home/cuil/workspace/arm/lm3s811/TI_Stellaris/driverlib/usb.c **** void
3109:/home/cuil/workspace/arm/lm3s811/TI_Stellaris/driverlib/usb.c **** USBHostRequestINClear(unsigned long ulBase, unsigned long ulEndpoint)
3110:/home/cuil/workspace/arm/lm3s811/TI_Stellaris/driverlib/usb.c **** {
 13182              		.loc 1 3110 0
 13183              		.cfi_startproc
 13184              		@ args = 0, pretend = 0, frame = 16
 13185              		@ frame_needed = 1, uses_anonymous_args = 0
 13186              		@ link register save eliminated.
 13187 0000 80B4     		push	{r7}
 13188              	.LCFI129:
 13189              		.cfi_def_cfa_offset 4
 13190 0002 85B0     		sub	sp, sp, #20
 13191              	.LCFI130:
 13192              		.cfi_def_cfa_offset 24
 13193 0004 00AF     		add	r7, sp, #0
 13194              		.cfi_offset 7, -4
 13195              	.LCFI131:
 13196              		.cfi_def_cfa_register 7
 13197 0006 7860     		str	r0, [r7, #4]
 13198 0008 3960     		str	r1, [r7, #0]
3111:/home/cuil/workspace/arm/lm3s811/TI_Stellaris/driverlib/usb.c ****     unsigned long ulRegister;
3112:/home/cuil/workspace/arm/lm3s811/TI_Stellaris/driverlib/usb.c **** 
3113:/home/cuil/workspace/arm/lm3s811/TI_Stellaris/driverlib/usb.c ****     //
3114:/home/cuil/workspace/arm/lm3s811/TI_Stellaris/driverlib/usb.c ****     // Check the arguments.
3115:/home/cuil/workspace/arm/lm3s811/TI_Stellaris/driverlib/usb.c ****     //
3116:/home/cuil/workspace/arm/lm3s811/TI_Stellaris/driverlib/usb.c ****     ASSERT(ulBase == USB0_BASE);
3117:/home/cuil/workspace/arm/lm3s811/TI_Stellaris/driverlib/usb.c ****     ASSERT((ulEndpoint == USB_EP_0) || (ulEndpoint == USB_EP_1) ||
3118:/home/cuil/workspace/arm/lm3s811/TI_Stellaris/driverlib/usb.c ****            (ulEndpoint == USB_EP_2) || (ulEndpoint == USB_EP_3) ||
3119:/home/cuil/workspace/arm/lm3s811/TI_Stellaris/driverlib/usb.c ****            (ulEndpoint == USB_EP_4) || (ulEndpoint == USB_EP_5) ||
3120:/home/cuil/workspace/arm/lm3s811/TI_Stellaris/driverlib/usb.c ****            (ulEndpoint == USB_EP_6) || (ulEndpoint == USB_EP_7) ||
3121:/home/cuil/workspace/arm/lm3s811/TI_Stellaris/driverlib/usb.c ****            (ulEndpoint == USB_EP_8) || (ulEndpoint == USB_EP_9) ||
3122:/home/cuil/workspace/arm/lm3s811/TI_Stellaris/driverlib/usb.c ****            (ulEndpoint == USB_EP_10) || (ulEndpoint == USB_EP_11) ||
3123:/home/cuil/workspace/arm/lm3s811/TI_Stellaris/driverlib/usb.c ****            (ulEndpoint == USB_EP_12) || (ulEndpoint == USB_EP_13) ||
3124:/home/cuil/workspace/arm/lm3s811/TI_Stellaris/driverlib/usb.c ****            (ulEndpoint == USB_EP_14) || (ulEndpoint == USB_EP_15));
3125:/home/cuil/workspace/arm/lm3s811/TI_Stellaris/driverlib/usb.c **** 
3126:/home/cuil/workspace/arm/lm3s811/TI_Stellaris/driverlib/usb.c ****     //
3127:/home/cuil/workspace/arm/lm3s811/TI_Stellaris/driverlib/usb.c ****     // Endpoint zero uses a different offset than the other endpoints.
3128:/home/cuil/workspace/arm/lm3s811/TI_Stellaris/driverlib/usb.c ****     //
3129:/home/cuil/workspace/arm/lm3s811/TI_Stellaris/driverlib/usb.c ****     if(ulEndpoint == USB_EP_0)
 13199              		.loc 1 3129 0
 13200 000a 3B68     		ldr	r3, [r7, #0]
 13201 000c 002B     		cmp	r3, #0
 13202 000e 03D1     		bne	.L186
3130:/home/cuil/workspace/arm/lm3s811/TI_Stellaris/driverlib/usb.c ****     {
3131:/home/cuil/workspace/arm/lm3s811/TI_Stellaris/driverlib/usb.c ****         ulRegister = USB_O_CSRL0;
 13203              		.loc 1 3131 0
 13204 0010 4FF48173 		mov	r3, #258
 13205 0014 FB60     		str	r3, [r7, #12]
 13206 0016 03E0     		b	.L187
 13207              	.L186:
3132:/home/cuil/workspace/arm/lm3s811/TI_Stellaris/driverlib/usb.c ****     }
3133:/home/cuil/workspace/arm/lm3s811/TI_Stellaris/driverlib/usb.c ****     else
3134:/home/cuil/workspace/arm/lm3s811/TI_Stellaris/driverlib/usb.c ****     {
3135:/home/cuil/workspace/arm/lm3s811/TI_Stellaris/driverlib/usb.c ****         ulRegister = USB_O_RXCSRL1 + EP_OFFSET(ulEndpoint);
 13208              		.loc 1 3135 0
 13209 0018 3B68     		ldr	r3, [r7, #0]
 13210 001a 03F58373 		add	r3, r3, #262
 13211 001e FB60     		str	r3, [r7, #12]
 13212              	.L187:
3136:/home/cuil/workspace/arm/lm3s811/TI_Stellaris/driverlib/usb.c ****     }
3137:/home/cuil/workspace/arm/lm3s811/TI_Stellaris/driverlib/usb.c **** 
3138:/home/cuil/workspace/arm/lm3s811/TI_Stellaris/driverlib/usb.c ****     //
3139:/home/cuil/workspace/arm/lm3s811/TI_Stellaris/driverlib/usb.c ****     // Clear the request for an IN transaction.
3140:/home/cuil/workspace/arm/lm3s811/TI_Stellaris/driverlib/usb.c ****     //
3141:/home/cuil/workspace/arm/lm3s811/TI_Stellaris/driverlib/usb.c ****     HWREGB(ulBase + ulRegister) &= ~USB_RXCSRL1_REQPKT;
 13213              		.loc 1 3141 0
 13214 0020 7A68     		ldr	r2, [r7, #4]
 13215 0022 FB68     		ldr	r3, [r7, #12]
 13216 0024 D318     		adds	r3, r2, r3
 13217 0026 7968     		ldr	r1, [r7, #4]
 13218 0028 FA68     		ldr	r2, [r7, #12]
 13219 002a 8A18     		adds	r2, r1, r2
 13220 002c 1278     		ldrb	r2, [r2, #0]
 13221 002e D2B2     		uxtb	r2, r2
 13222 0030 22F02002 		bic	r2, r2, #32
 13223 0034 D2B2     		uxtb	r2, r2
 13224 0036 1A70     		strb	r2, [r3, #0]
3142:/home/cuil/workspace/arm/lm3s811/TI_Stellaris/driverlib/usb.c **** }
 13225              		.loc 1 3142 0
 13226 0038 07F11407 		add	r7, r7, #20
 13227 003c BD46     		mov	sp, r7
 13228 003e 80BC     		pop	{r7}
 13229 0040 7047     		bx	lr
 13230              		.cfi_endproc
 13231              	.LFE43:
 13233 0042 00BF     		.section	.text.USBHostRequestStatus,"ax",%progbits
 13234              		.align	2
 13235              		.global	USBHostRequestStatus
 13236              		.thumb
 13237              		.thumb_func
 13239              	USBHostRequestStatus:
 13240              	.LFB44:
3143:/home/cuil/workspace/arm/lm3s811/TI_Stellaris/driverlib/usb.c **** 
3144:/home/cuil/workspace/arm/lm3s811/TI_Stellaris/driverlib/usb.c **** //*****************************************************************************
3145:/home/cuil/workspace/arm/lm3s811/TI_Stellaris/driverlib/usb.c **** //
3146:/home/cuil/workspace/arm/lm3s811/TI_Stellaris/driverlib/usb.c **** //! Issues a request for a status IN transaction on endpoint zero.
3147:/home/cuil/workspace/arm/lm3s811/TI_Stellaris/driverlib/usb.c **** //!
3148:/home/cuil/workspace/arm/lm3s811/TI_Stellaris/driverlib/usb.c **** //! \param ulBase specifies the USB module base address.
3149:/home/cuil/workspace/arm/lm3s811/TI_Stellaris/driverlib/usb.c **** //!
3150:/home/cuil/workspace/arm/lm3s811/TI_Stellaris/driverlib/usb.c **** //! This function is used to cause a request for a status IN transaction from
3151:/home/cuil/workspace/arm/lm3s811/TI_Stellaris/driverlib/usb.c **** //! a device on endpoint zero.  This function can only be used with endpoint
3152:/home/cuil/workspace/arm/lm3s811/TI_Stellaris/driverlib/usb.c **** //! zero as that is the only control endpoint that supports this ability.  This
3153:/home/cuil/workspace/arm/lm3s811/TI_Stellaris/driverlib/usb.c **** //! function is used to complete the last phase of a control transaction to a
3154:/home/cuil/workspace/arm/lm3s811/TI_Stellaris/driverlib/usb.c **** //! device and an interrupt is signaled when the status packet has been 
3155:/home/cuil/workspace/arm/lm3s811/TI_Stellaris/driverlib/usb.c **** //! received.
3156:/home/cuil/workspace/arm/lm3s811/TI_Stellaris/driverlib/usb.c **** //!
3157:/home/cuil/workspace/arm/lm3s811/TI_Stellaris/driverlib/usb.c **** //! \return None.
3158:/home/cuil/workspace/arm/lm3s811/TI_Stellaris/driverlib/usb.c **** //
3159:/home/cuil/workspace/arm/lm3s811/TI_Stellaris/driverlib/usb.c **** //*****************************************************************************
3160:/home/cuil/workspace/arm/lm3s811/TI_Stellaris/driverlib/usb.c **** void
3161:/home/cuil/workspace/arm/lm3s811/TI_Stellaris/driverlib/usb.c **** USBHostRequestStatus(unsigned long ulBase)
3162:/home/cuil/workspace/arm/lm3s811/TI_Stellaris/driverlib/usb.c **** {
 13241              		.loc 1 3162 0
 13242              		.cfi_startproc
 13243              		@ args = 0, pretend = 0, frame = 8
 13244              		@ frame_needed = 1, uses_anonymous_args = 0
 13245              		@ link register save eliminated.
 13246 0000 80B4     		push	{r7}
 13247              	.LCFI132:
 13248              		.cfi_def_cfa_offset 4
 13249 0002 83B0     		sub	sp, sp, #12
 13250              	.LCFI133:
 13251              		.cfi_def_cfa_offset 16
 13252 0004 00AF     		add	r7, sp, #0
 13253              		.cfi_offset 7, -4
 13254              	.LCFI134:
 13255              		.cfi_def_cfa_register 7
 13256 0006 7860     		str	r0, [r7, #4]
3163:/home/cuil/workspace/arm/lm3s811/TI_Stellaris/driverlib/usb.c ****     //
3164:/home/cuil/workspace/arm/lm3s811/TI_Stellaris/driverlib/usb.c ****     // Check the arguments.
3165:/home/cuil/workspace/arm/lm3s811/TI_Stellaris/driverlib/usb.c ****     //
3166:/home/cuil/workspace/arm/lm3s811/TI_Stellaris/driverlib/usb.c ****     ASSERT(ulBase == USB0_BASE);
3167:/home/cuil/workspace/arm/lm3s811/TI_Stellaris/driverlib/usb.c **** 
3168:/home/cuil/workspace/arm/lm3s811/TI_Stellaris/driverlib/usb.c ****     //
3169:/home/cuil/workspace/arm/lm3s811/TI_Stellaris/driverlib/usb.c ****     // Set the request for a status IN transaction.
3170:/home/cuil/workspace/arm/lm3s811/TI_Stellaris/driverlib/usb.c ****     //
3171:/home/cuil/workspace/arm/lm3s811/TI_Stellaris/driverlib/usb.c ****     HWREGB(ulBase + USB_O_CSRL0) = USB_CSRL0_REQPKT | USB_CSRL0_STATUS;
 13257              		.loc 1 3171 0
 13258 0008 7B68     		ldr	r3, [r7, #4]
 13259 000a 03F58173 		add	r3, r3, #258
 13260 000e 4FF06002 		mov	r2, #96
 13261 0012 1A70     		strb	r2, [r3, #0]
3172:/home/cuil/workspace/arm/lm3s811/TI_Stellaris/driverlib/usb.c **** }
 13262              		.loc 1 3172 0
 13263 0014 07F10C07 		add	r7, r7, #12
 13264 0018 BD46     		mov	sp, r7
 13265 001a 80BC     		pop	{r7}
 13266 001c 7047     		bx	lr
 13267              		.cfi_endproc
 13268              	.LFE44:
 13270 001e 00BF     		.section	.text.USBHostAddrSet,"ax",%progbits
 13271              		.align	2
 13272              		.global	USBHostAddrSet
 13273              		.thumb
 13274              		.thumb_func
 13276              	USBHostAddrSet:
 13277              	.LFB45:
3173:/home/cuil/workspace/arm/lm3s811/TI_Stellaris/driverlib/usb.c **** 
3174:/home/cuil/workspace/arm/lm3s811/TI_Stellaris/driverlib/usb.c **** //*****************************************************************************
3175:/home/cuil/workspace/arm/lm3s811/TI_Stellaris/driverlib/usb.c **** //
3176:/home/cuil/workspace/arm/lm3s811/TI_Stellaris/driverlib/usb.c **** //! Sets the functional address for the device that is connected to an
3177:/home/cuil/workspace/arm/lm3s811/TI_Stellaris/driverlib/usb.c **** //! endpoint in host mode.
3178:/home/cuil/workspace/arm/lm3s811/TI_Stellaris/driverlib/usb.c **** //!
3179:/home/cuil/workspace/arm/lm3s811/TI_Stellaris/driverlib/usb.c **** //! \param ulBase specifies the USB module base address.
3180:/home/cuil/workspace/arm/lm3s811/TI_Stellaris/driverlib/usb.c **** //! \param ulEndpoint is the endpoint to access.
3181:/home/cuil/workspace/arm/lm3s811/TI_Stellaris/driverlib/usb.c **** //! \param ulAddr is the functional address for the controller to use for this
3182:/home/cuil/workspace/arm/lm3s811/TI_Stellaris/driverlib/usb.c **** //! endpoint.
3183:/home/cuil/workspace/arm/lm3s811/TI_Stellaris/driverlib/usb.c **** //! \param ulFlags determines if this is an IN or an OUT endpoint.
3184:/home/cuil/workspace/arm/lm3s811/TI_Stellaris/driverlib/usb.c **** //!
3185:/home/cuil/workspace/arm/lm3s811/TI_Stellaris/driverlib/usb.c **** //! This function configures the functional address for a device that is using
3186:/home/cuil/workspace/arm/lm3s811/TI_Stellaris/driverlib/usb.c **** //! this endpoint for communication.  This \e ulAddr parameter is the address
3187:/home/cuil/workspace/arm/lm3s811/TI_Stellaris/driverlib/usb.c **** //! of the target device that this endpoint is communicating with.  The
3188:/home/cuil/workspace/arm/lm3s811/TI_Stellaris/driverlib/usb.c **** //! \e ulFlags parameter indicates if the IN or OUT endpoint should be set.
3189:/home/cuil/workspace/arm/lm3s811/TI_Stellaris/driverlib/usb.c **** //!
3190:/home/cuil/workspace/arm/lm3s811/TI_Stellaris/driverlib/usb.c **** //! \note This function should only be called in host mode.
3191:/home/cuil/workspace/arm/lm3s811/TI_Stellaris/driverlib/usb.c **** //!
3192:/home/cuil/workspace/arm/lm3s811/TI_Stellaris/driverlib/usb.c **** //! \return None.
3193:/home/cuil/workspace/arm/lm3s811/TI_Stellaris/driverlib/usb.c **** //
3194:/home/cuil/workspace/arm/lm3s811/TI_Stellaris/driverlib/usb.c **** //*****************************************************************************
3195:/home/cuil/workspace/arm/lm3s811/TI_Stellaris/driverlib/usb.c **** void
3196:/home/cuil/workspace/arm/lm3s811/TI_Stellaris/driverlib/usb.c **** USBHostAddrSet(unsigned long ulBase, unsigned long ulEndpoint,
3197:/home/cuil/workspace/arm/lm3s811/TI_Stellaris/driverlib/usb.c ****                unsigned long ulAddr, unsigned long ulFlags)
3198:/home/cuil/workspace/arm/lm3s811/TI_Stellaris/driverlib/usb.c **** {
 13278              		.loc 1 3198 0
 13279              		.cfi_startproc
 13280              		@ args = 0, pretend = 0, frame = 16
 13281              		@ frame_needed = 1, uses_anonymous_args = 0
 13282              		@ link register save eliminated.
 13283 0000 80B4     		push	{r7}
 13284              	.LCFI135:
 13285              		.cfi_def_cfa_offset 4
 13286 0002 85B0     		sub	sp, sp, #20
 13287              	.LCFI136:
 13288              		.cfi_def_cfa_offset 24
 13289 0004 00AF     		add	r7, sp, #0
 13290              		.cfi_offset 7, -4
 13291              	.LCFI137:
 13292              		.cfi_def_cfa_register 7
 13293 0006 F860     		str	r0, [r7, #12]
 13294 0008 B960     		str	r1, [r7, #8]
 13295 000a 7A60     		str	r2, [r7, #4]
 13296 000c 3B60     		str	r3, [r7, #0]
3199:/home/cuil/workspace/arm/lm3s811/TI_Stellaris/driverlib/usb.c ****     //
3200:/home/cuil/workspace/arm/lm3s811/TI_Stellaris/driverlib/usb.c ****     // Check the arguments.
3201:/home/cuil/workspace/arm/lm3s811/TI_Stellaris/driverlib/usb.c ****     //
3202:/home/cuil/workspace/arm/lm3s811/TI_Stellaris/driverlib/usb.c ****     ASSERT(ulBase == USB0_BASE);
3203:/home/cuil/workspace/arm/lm3s811/TI_Stellaris/driverlib/usb.c ****     ASSERT((ulEndpoint == USB_EP_0) || (ulEndpoint == USB_EP_1) ||
3204:/home/cuil/workspace/arm/lm3s811/TI_Stellaris/driverlib/usb.c ****            (ulEndpoint == USB_EP_2) || (ulEndpoint == USB_EP_3) ||
3205:/home/cuil/workspace/arm/lm3s811/TI_Stellaris/driverlib/usb.c ****            (ulEndpoint == USB_EP_4) || (ulEndpoint == USB_EP_5) ||
3206:/home/cuil/workspace/arm/lm3s811/TI_Stellaris/driverlib/usb.c ****            (ulEndpoint == USB_EP_6) || (ulEndpoint == USB_EP_7) ||
3207:/home/cuil/workspace/arm/lm3s811/TI_Stellaris/driverlib/usb.c ****            (ulEndpoint == USB_EP_8) || (ulEndpoint == USB_EP_9) ||
3208:/home/cuil/workspace/arm/lm3s811/TI_Stellaris/driverlib/usb.c ****            (ulEndpoint == USB_EP_10) || (ulEndpoint == USB_EP_11) ||
3209:/home/cuil/workspace/arm/lm3s811/TI_Stellaris/driverlib/usb.c ****            (ulEndpoint == USB_EP_12) || (ulEndpoint == USB_EP_13) ||
3210:/home/cuil/workspace/arm/lm3s811/TI_Stellaris/driverlib/usb.c ****            (ulEndpoint == USB_EP_14) || (ulEndpoint == USB_EP_15));
3211:/home/cuil/workspace/arm/lm3s811/TI_Stellaris/driverlib/usb.c **** 
3212:/home/cuil/workspace/arm/lm3s811/TI_Stellaris/driverlib/usb.c ****     //
3213:/home/cuil/workspace/arm/lm3s811/TI_Stellaris/driverlib/usb.c ****     // See if the transmit or receive address should be set.
3214:/home/cuil/workspace/arm/lm3s811/TI_Stellaris/driverlib/usb.c ****     //
3215:/home/cuil/workspace/arm/lm3s811/TI_Stellaris/driverlib/usb.c ****     if(ulFlags & USB_EP_HOST_OUT)
 13297              		.loc 1 3215 0
 13298 000e 3B68     		ldr	r3, [r7, #0]
 13299 0010 03F40053 		and	r3, r3, #8192
 13300 0014 002B     		cmp	r3, #0
 13301 0016 0AD0     		beq	.L190
3216:/home/cuil/workspace/arm/lm3s811/TI_Stellaris/driverlib/usb.c ****     {
3217:/home/cuil/workspace/arm/lm3s811/TI_Stellaris/driverlib/usb.c ****         //
3218:/home/cuil/workspace/arm/lm3s811/TI_Stellaris/driverlib/usb.c ****         // Set the transmit address.
3219:/home/cuil/workspace/arm/lm3s811/TI_Stellaris/driverlib/usb.c ****         //
3220:/home/cuil/workspace/arm/lm3s811/TI_Stellaris/driverlib/usb.c ****         HWREGB(ulBase + USB_O_TXFUNCADDR0 + (ulEndpoint >> 1)) = ulAddr;
 13302              		.loc 1 3220 0
 13303 0018 BB68     		ldr	r3, [r7, #8]
 13304 001a 4FEA5302 		lsr	r2, r3, #1
 13305 001e FB68     		ldr	r3, [r7, #12]
 13306 0020 D318     		adds	r3, r2, r3
 13307 0022 03F18003 		add	r3, r3, #128
 13308 0026 7A68     		ldr	r2, [r7, #4]
 13309 0028 D2B2     		uxtb	r2, r2
 13310 002a 1A70     		strb	r2, [r3, #0]
 13311 002c 09E0     		b	.L189
 13312              	.L190:
3221:/home/cuil/workspace/arm/lm3s811/TI_Stellaris/driverlib/usb.c ****     }
3222:/home/cuil/workspace/arm/lm3s811/TI_Stellaris/driverlib/usb.c ****     else
3223:/home/cuil/workspace/arm/lm3s811/TI_Stellaris/driverlib/usb.c ****     {
3224:/home/cuil/workspace/arm/lm3s811/TI_Stellaris/driverlib/usb.c ****         //
3225:/home/cuil/workspace/arm/lm3s811/TI_Stellaris/driverlib/usb.c ****         // Set the receive address.
3226:/home/cuil/workspace/arm/lm3s811/TI_Stellaris/driverlib/usb.c ****         //
3227:/home/cuil/workspace/arm/lm3s811/TI_Stellaris/driverlib/usb.c ****         HWREGB(ulBase + USB_O_TXFUNCADDR0 + 4 + (ulEndpoint >> 1)) = ulAddr;
 13313              		.loc 1 3227 0
 13314 002e BB68     		ldr	r3, [r7, #8]
 13315 0030 4FEA5302 		lsr	r2, r3, #1
 13316 0034 FB68     		ldr	r3, [r7, #12]
 13317 0036 D318     		adds	r3, r2, r3
 13318 0038 03F18403 		add	r3, r3, #132
 13319 003c 7A68     		ldr	r2, [r7, #4]
 13320 003e D2B2     		uxtb	r2, r2
 13321 0040 1A70     		strb	r2, [r3, #0]
 13322              	.L189:
3228:/home/cuil/workspace/arm/lm3s811/TI_Stellaris/driverlib/usb.c ****     }
3229:/home/cuil/workspace/arm/lm3s811/TI_Stellaris/driverlib/usb.c **** }
 13323              		.loc 1 3229 0
 13324 0042 07F11407 		add	r7, r7, #20
 13325 0046 BD46     		mov	sp, r7
 13326 0048 80BC     		pop	{r7}
 13327 004a 7047     		bx	lr
 13328              		.cfi_endproc
 13329              	.LFE45:
 13331              		.section	.text.USBHostAddrGet,"ax",%progbits
 13332              		.align	2
 13333              		.global	USBHostAddrGet
 13334              		.thumb
 13335              		.thumb_func
 13337              	USBHostAddrGet:
 13338              	.LFB46:
3230:/home/cuil/workspace/arm/lm3s811/TI_Stellaris/driverlib/usb.c **** 
3231:/home/cuil/workspace/arm/lm3s811/TI_Stellaris/driverlib/usb.c **** //*****************************************************************************
3232:/home/cuil/workspace/arm/lm3s811/TI_Stellaris/driverlib/usb.c **** //
3233:/home/cuil/workspace/arm/lm3s811/TI_Stellaris/driverlib/usb.c **** //! Gets the current functional device address for an endpoint.
3234:/home/cuil/workspace/arm/lm3s811/TI_Stellaris/driverlib/usb.c **** //!
3235:/home/cuil/workspace/arm/lm3s811/TI_Stellaris/driverlib/usb.c **** //! \param ulBase specifies the USB module base address.
3236:/home/cuil/workspace/arm/lm3s811/TI_Stellaris/driverlib/usb.c **** //! \param ulEndpoint is the endpoint to access.
3237:/home/cuil/workspace/arm/lm3s811/TI_Stellaris/driverlib/usb.c **** //! \param ulFlags determines if this is an IN or an OUT endpoint.
3238:/home/cuil/workspace/arm/lm3s811/TI_Stellaris/driverlib/usb.c **** //!
3239:/home/cuil/workspace/arm/lm3s811/TI_Stellaris/driverlib/usb.c **** //! This function returns the current functional address that an endpoint is
3240:/home/cuil/workspace/arm/lm3s811/TI_Stellaris/driverlib/usb.c **** //! using to communicate with a device.  The \e ulFlags parameter determines if
3241:/home/cuil/workspace/arm/lm3s811/TI_Stellaris/driverlib/usb.c **** //! the IN or OUT endpoint's device address is returned.
3242:/home/cuil/workspace/arm/lm3s811/TI_Stellaris/driverlib/usb.c **** //!
3243:/home/cuil/workspace/arm/lm3s811/TI_Stellaris/driverlib/usb.c **** //! \note This function should only be called in host mode.
3244:/home/cuil/workspace/arm/lm3s811/TI_Stellaris/driverlib/usb.c **** //!
3245:/home/cuil/workspace/arm/lm3s811/TI_Stellaris/driverlib/usb.c **** //! \return Returns the current function address being used by an endpoint.
3246:/home/cuil/workspace/arm/lm3s811/TI_Stellaris/driverlib/usb.c **** //
3247:/home/cuil/workspace/arm/lm3s811/TI_Stellaris/driverlib/usb.c **** //*****************************************************************************
3248:/home/cuil/workspace/arm/lm3s811/TI_Stellaris/driverlib/usb.c **** unsigned long
3249:/home/cuil/workspace/arm/lm3s811/TI_Stellaris/driverlib/usb.c **** USBHostAddrGet(unsigned long ulBase, unsigned long ulEndpoint,
3250:/home/cuil/workspace/arm/lm3s811/TI_Stellaris/driverlib/usb.c ****                unsigned long ulFlags)
3251:/home/cuil/workspace/arm/lm3s811/TI_Stellaris/driverlib/usb.c **** {
 13339              		.loc 1 3251 0
 13340              		.cfi_startproc
 13341              		@ args = 0, pretend = 0, frame = 16
 13342              		@ frame_needed = 1, uses_anonymous_args = 0
 13343              		@ link register save eliminated.
 13344 0000 80B4     		push	{r7}
 13345              	.LCFI138:
 13346              		.cfi_def_cfa_offset 4
 13347 0002 85B0     		sub	sp, sp, #20
 13348              	.LCFI139:
 13349              		.cfi_def_cfa_offset 24
 13350 0004 00AF     		add	r7, sp, #0
 13351              		.cfi_offset 7, -4
 13352              	.LCFI140:
 13353              		.cfi_def_cfa_register 7
 13354 0006 F860     		str	r0, [r7, #12]
 13355 0008 B960     		str	r1, [r7, #8]
 13356 000a 7A60     		str	r2, [r7, #4]
3252:/home/cuil/workspace/arm/lm3s811/TI_Stellaris/driverlib/usb.c ****     //
3253:/home/cuil/workspace/arm/lm3s811/TI_Stellaris/driverlib/usb.c ****     // Check the arguments.
3254:/home/cuil/workspace/arm/lm3s811/TI_Stellaris/driverlib/usb.c ****     //
3255:/home/cuil/workspace/arm/lm3s811/TI_Stellaris/driverlib/usb.c ****     ASSERT(ulBase == USB0_BASE);
3256:/home/cuil/workspace/arm/lm3s811/TI_Stellaris/driverlib/usb.c ****     ASSERT((ulEndpoint == USB_EP_0) || (ulEndpoint == USB_EP_1) ||
3257:/home/cuil/workspace/arm/lm3s811/TI_Stellaris/driverlib/usb.c ****            (ulEndpoint == USB_EP_2) || (ulEndpoint == USB_EP_3) ||
3258:/home/cuil/workspace/arm/lm3s811/TI_Stellaris/driverlib/usb.c ****            (ulEndpoint == USB_EP_4) || (ulEndpoint == USB_EP_5) ||
3259:/home/cuil/workspace/arm/lm3s811/TI_Stellaris/driverlib/usb.c ****            (ulEndpoint == USB_EP_6) || (ulEndpoint == USB_EP_7) ||
3260:/home/cuil/workspace/arm/lm3s811/TI_Stellaris/driverlib/usb.c ****            (ulEndpoint == USB_EP_8) || (ulEndpoint == USB_EP_9) ||
3261:/home/cuil/workspace/arm/lm3s811/TI_Stellaris/driverlib/usb.c ****            (ulEndpoint == USB_EP_10) || (ulEndpoint == USB_EP_11) ||
3262:/home/cuil/workspace/arm/lm3s811/TI_Stellaris/driverlib/usb.c ****            (ulEndpoint == USB_EP_12) || (ulEndpoint == USB_EP_13) ||
3263:/home/cuil/workspace/arm/lm3s811/TI_Stellaris/driverlib/usb.c ****            (ulEndpoint == USB_EP_14) || (ulEndpoint == USB_EP_15));
3264:/home/cuil/workspace/arm/lm3s811/TI_Stellaris/driverlib/usb.c **** 
3265:/home/cuil/workspace/arm/lm3s811/TI_Stellaris/driverlib/usb.c ****     //
3266:/home/cuil/workspace/arm/lm3s811/TI_Stellaris/driverlib/usb.c ****     // See if the transmit or receive address should be returned.
3267:/home/cuil/workspace/arm/lm3s811/TI_Stellaris/driverlib/usb.c ****     //
3268:/home/cuil/workspace/arm/lm3s811/TI_Stellaris/driverlib/usb.c ****     if(ulFlags & USB_EP_HOST_OUT)
 13357              		.loc 1 3268 0
 13358 000c 7B68     		ldr	r3, [r7, #4]
 13359 000e 03F40053 		and	r3, r3, #8192
 13360 0012 002B     		cmp	r3, #0
 13361 0014 09D0     		beq	.L193
3269:/home/cuil/workspace/arm/lm3s811/TI_Stellaris/driverlib/usb.c ****     {
3270:/home/cuil/workspace/arm/lm3s811/TI_Stellaris/driverlib/usb.c ****         //
3271:/home/cuil/workspace/arm/lm3s811/TI_Stellaris/driverlib/usb.c ****         // Return this endpoint's transmit address.
3272:/home/cuil/workspace/arm/lm3s811/TI_Stellaris/driverlib/usb.c ****         //
3273:/home/cuil/workspace/arm/lm3s811/TI_Stellaris/driverlib/usb.c ****         return(HWREGB(ulBase + USB_O_TXFUNCADDR0 + (ulEndpoint >> 1)));
 13362              		.loc 1 3273 0
 13363 0016 BB68     		ldr	r3, [r7, #8]
 13364 0018 4FEA5302 		lsr	r2, r3, #1
 13365 001c FB68     		ldr	r3, [r7, #12]
 13366 001e D318     		adds	r3, r2, r3
 13367 0020 03F18003 		add	r3, r3, #128
 13368 0024 1B78     		ldrb	r3, [r3, #0]
 13369 0026 DBB2     		uxtb	r3, r3
 13370 0028 08E0     		b	.L194
 13371              	.L193:
3274:/home/cuil/workspace/arm/lm3s811/TI_Stellaris/driverlib/usb.c ****     }
3275:/home/cuil/workspace/arm/lm3s811/TI_Stellaris/driverlib/usb.c ****     else
3276:/home/cuil/workspace/arm/lm3s811/TI_Stellaris/driverlib/usb.c ****     {
3277:/home/cuil/workspace/arm/lm3s811/TI_Stellaris/driverlib/usb.c ****         //
3278:/home/cuil/workspace/arm/lm3s811/TI_Stellaris/driverlib/usb.c ****         // Return this endpoint's receive address.
3279:/home/cuil/workspace/arm/lm3s811/TI_Stellaris/driverlib/usb.c ****         //
3280:/home/cuil/workspace/arm/lm3s811/TI_Stellaris/driverlib/usb.c ****         return(HWREGB(ulBase + USB_O_TXFUNCADDR0 + 4 + (ulEndpoint >> 1)));
 13372              		.loc 1 3280 0
 13373 002a BB68     		ldr	r3, [r7, #8]
 13374 002c 4FEA5302 		lsr	r2, r3, #1
 13375 0030 FB68     		ldr	r3, [r7, #12]
 13376 0032 D318     		adds	r3, r2, r3
 13377 0034 03F18403 		add	r3, r3, #132
 13378 0038 1B78     		ldrb	r3, [r3, #0]
 13379 003a DBB2     		uxtb	r3, r3
 13380              	.L194:
3281:/home/cuil/workspace/arm/lm3s811/TI_Stellaris/driverlib/usb.c ****     }
3282:/home/cuil/workspace/arm/lm3s811/TI_Stellaris/driverlib/usb.c **** }
 13381              		.loc 1 3282 0
 13382 003c 1846     		mov	r0, r3
 13383 003e 07F11407 		add	r7, r7, #20
 13384 0042 BD46     		mov	sp, r7
 13385 0044 80BC     		pop	{r7}
 13386 0046 7047     		bx	lr
 13387              		.cfi_endproc
 13388              	.LFE46:
 13390              		.section	.text.USBHostHubAddrSet,"ax",%progbits
 13391              		.align	2
 13392              		.global	USBHostHubAddrSet
 13393              		.thumb
 13394              		.thumb_func
 13396              	USBHostHubAddrSet:
 13397              	.LFB47:
3283:/home/cuil/workspace/arm/lm3s811/TI_Stellaris/driverlib/usb.c **** 
3284:/home/cuil/workspace/arm/lm3s811/TI_Stellaris/driverlib/usb.c **** //*****************************************************************************
3285:/home/cuil/workspace/arm/lm3s811/TI_Stellaris/driverlib/usb.c **** //
3286:/home/cuil/workspace/arm/lm3s811/TI_Stellaris/driverlib/usb.c **** //! Sets the hub address for the device that is connected to an endpoint.
3287:/home/cuil/workspace/arm/lm3s811/TI_Stellaris/driverlib/usb.c **** //!
3288:/home/cuil/workspace/arm/lm3s811/TI_Stellaris/driverlib/usb.c **** //! \param ulBase specifies the USB module base address.
3289:/home/cuil/workspace/arm/lm3s811/TI_Stellaris/driverlib/usb.c **** //! \param ulEndpoint is the endpoint to access.
3290:/home/cuil/workspace/arm/lm3s811/TI_Stellaris/driverlib/usb.c **** //! \param ulAddr is the hub address and port for the device using this
3291:/home/cuil/workspace/arm/lm3s811/TI_Stellaris/driverlib/usb.c **** //!  endpoint.  The hub address must be defined in bits 8 through 15 with the
3292:/home/cuil/workspace/arm/lm3s811/TI_Stellaris/driverlib/usb.c **** //!  port number in bits 0 through 6.
3293:/home/cuil/workspace/arm/lm3s811/TI_Stellaris/driverlib/usb.c **** //! \param ulFlags determines if this is an IN or an OUT endpoint.
3294:/home/cuil/workspace/arm/lm3s811/TI_Stellaris/driverlib/usb.c **** //!
3295:/home/cuil/workspace/arm/lm3s811/TI_Stellaris/driverlib/usb.c **** //! This function configures the hub address for a device that is using this
3296:/home/cuil/workspace/arm/lm3s811/TI_Stellaris/driverlib/usb.c **** //! endpoint for communication.  The \e ulFlags parameter determines if the
3297:/home/cuil/workspace/arm/lm3s811/TI_Stellaris/driverlib/usb.c **** //! device address for the IN or the OUT endpoint is configured by this call 
3298:/home/cuil/workspace/arm/lm3s811/TI_Stellaris/driverlib/usb.c **** //! and sets the speed of the downstream device.  Valid values are one of \b
3299:/home/cuil/workspace/arm/lm3s811/TI_Stellaris/driverlib/usb.c **** //! USB_EP_HOST_OUT or \b USB_EP_HOST_IN optionally ORed with \b
3300:/home/cuil/workspace/arm/lm3s811/TI_Stellaris/driverlib/usb.c **** //! USB_EP_SPEED_LOW.
3301:/home/cuil/workspace/arm/lm3s811/TI_Stellaris/driverlib/usb.c **** //!
3302:/home/cuil/workspace/arm/lm3s811/TI_Stellaris/driverlib/usb.c **** //! \note This function should only be called in host mode.
3303:/home/cuil/workspace/arm/lm3s811/TI_Stellaris/driverlib/usb.c **** //!
3304:/home/cuil/workspace/arm/lm3s811/TI_Stellaris/driverlib/usb.c **** //! \return None.
3305:/home/cuil/workspace/arm/lm3s811/TI_Stellaris/driverlib/usb.c **** //
3306:/home/cuil/workspace/arm/lm3s811/TI_Stellaris/driverlib/usb.c **** //*****************************************************************************
3307:/home/cuil/workspace/arm/lm3s811/TI_Stellaris/driverlib/usb.c **** void
3308:/home/cuil/workspace/arm/lm3s811/TI_Stellaris/driverlib/usb.c **** USBHostHubAddrSet(unsigned long ulBase, unsigned long ulEndpoint,
3309:/home/cuil/workspace/arm/lm3s811/TI_Stellaris/driverlib/usb.c ****                   unsigned long ulAddr, unsigned long ulFlags)
3310:/home/cuil/workspace/arm/lm3s811/TI_Stellaris/driverlib/usb.c **** {
 13398              		.loc 1 3310 0
 13399              		.cfi_startproc
 13400              		@ args = 0, pretend = 0, frame = 16
 13401              		@ frame_needed = 1, uses_anonymous_args = 0
 13402              		@ link register save eliminated.
 13403 0000 80B4     		push	{r7}
 13404              	.LCFI141:
 13405              		.cfi_def_cfa_offset 4
 13406 0002 85B0     		sub	sp, sp, #20
 13407              	.LCFI142:
 13408              		.cfi_def_cfa_offset 24
 13409 0004 00AF     		add	r7, sp, #0
 13410              		.cfi_offset 7, -4
 13411              	.LCFI143:
 13412              		.cfi_def_cfa_register 7
 13413 0006 F860     		str	r0, [r7, #12]
 13414 0008 B960     		str	r1, [r7, #8]
 13415 000a 7A60     		str	r2, [r7, #4]
 13416 000c 3B60     		str	r3, [r7, #0]
3311:/home/cuil/workspace/arm/lm3s811/TI_Stellaris/driverlib/usb.c ****     //
3312:/home/cuil/workspace/arm/lm3s811/TI_Stellaris/driverlib/usb.c ****     // Check the arguments.
3313:/home/cuil/workspace/arm/lm3s811/TI_Stellaris/driverlib/usb.c ****     //
3314:/home/cuil/workspace/arm/lm3s811/TI_Stellaris/driverlib/usb.c ****     ASSERT(ulBase == USB0_BASE);
3315:/home/cuil/workspace/arm/lm3s811/TI_Stellaris/driverlib/usb.c ****     ASSERT((ulEndpoint == USB_EP_0) || (ulEndpoint == USB_EP_1) ||
3316:/home/cuil/workspace/arm/lm3s811/TI_Stellaris/driverlib/usb.c ****            (ulEndpoint == USB_EP_2) || (ulEndpoint == USB_EP_3) ||
3317:/home/cuil/workspace/arm/lm3s811/TI_Stellaris/driverlib/usb.c ****            (ulEndpoint == USB_EP_4) || (ulEndpoint == USB_EP_5) ||
3318:/home/cuil/workspace/arm/lm3s811/TI_Stellaris/driverlib/usb.c ****            (ulEndpoint == USB_EP_6) || (ulEndpoint == USB_EP_7) ||
3319:/home/cuil/workspace/arm/lm3s811/TI_Stellaris/driverlib/usb.c ****            (ulEndpoint == USB_EP_8) || (ulEndpoint == USB_EP_9) ||
3320:/home/cuil/workspace/arm/lm3s811/TI_Stellaris/driverlib/usb.c ****            (ulEndpoint == USB_EP_10) || (ulEndpoint == USB_EP_11) ||
3321:/home/cuil/workspace/arm/lm3s811/TI_Stellaris/driverlib/usb.c ****            (ulEndpoint == USB_EP_12) || (ulEndpoint == USB_EP_13) ||
3322:/home/cuil/workspace/arm/lm3s811/TI_Stellaris/driverlib/usb.c ****            (ulEndpoint == USB_EP_14) || (ulEndpoint == USB_EP_15));
3323:/home/cuil/workspace/arm/lm3s811/TI_Stellaris/driverlib/usb.c **** 
3324:/home/cuil/workspace/arm/lm3s811/TI_Stellaris/driverlib/usb.c ****     //
3325:/home/cuil/workspace/arm/lm3s811/TI_Stellaris/driverlib/usb.c ****     // See if the hub transmit or receive address is being set.
3326:/home/cuil/workspace/arm/lm3s811/TI_Stellaris/driverlib/usb.c ****     //
3327:/home/cuil/workspace/arm/lm3s811/TI_Stellaris/driverlib/usb.c ****     if(ulFlags & USB_EP_HOST_OUT)
 13417              		.loc 1 3327 0
 13418 000e 3B68     		ldr	r3, [r7, #0]
 13419 0010 03F40053 		and	r3, r3, #8192
 13420 0014 002B     		cmp	r3, #0
 13421 0016 0AD0     		beq	.L196
3328:/home/cuil/workspace/arm/lm3s811/TI_Stellaris/driverlib/usb.c ****     {
3329:/home/cuil/workspace/arm/lm3s811/TI_Stellaris/driverlib/usb.c ****         //
3330:/home/cuil/workspace/arm/lm3s811/TI_Stellaris/driverlib/usb.c ****         // Set the hub transmit address and port number for this endpoint.
3331:/home/cuil/workspace/arm/lm3s811/TI_Stellaris/driverlib/usb.c ****         //
3332:/home/cuil/workspace/arm/lm3s811/TI_Stellaris/driverlib/usb.c ****         HWREGH(ulBase + USB_O_TXHUBADDR0 + (ulEndpoint >> 1)) = ulAddr;
 13422              		.loc 1 3332 0
 13423 0018 BB68     		ldr	r3, [r7, #8]
 13424 001a 4FEA5302 		lsr	r2, r3, #1
 13425 001e FB68     		ldr	r3, [r7, #12]
 13426 0020 D318     		adds	r3, r2, r3
 13427 0022 03F18203 		add	r3, r3, #130
 13428 0026 7A68     		ldr	r2, [r7, #4]
 13429 0028 92B2     		uxth	r2, r2
 13430 002a 1A80     		strh	r2, [r3, #0]	@ movhi
 13431 002c 09E0     		b	.L197
 13432              	.L196:
3333:/home/cuil/workspace/arm/lm3s811/TI_Stellaris/driverlib/usb.c ****     }
3334:/home/cuil/workspace/arm/lm3s811/TI_Stellaris/driverlib/usb.c ****     else
3335:/home/cuil/workspace/arm/lm3s811/TI_Stellaris/driverlib/usb.c ****     {
3336:/home/cuil/workspace/arm/lm3s811/TI_Stellaris/driverlib/usb.c ****         //
3337:/home/cuil/workspace/arm/lm3s811/TI_Stellaris/driverlib/usb.c ****         // Set the hub receive address and port number for this endpoint.
3338:/home/cuil/workspace/arm/lm3s811/TI_Stellaris/driverlib/usb.c ****         //
3339:/home/cuil/workspace/arm/lm3s811/TI_Stellaris/driverlib/usb.c ****         HWREGH(ulBase + USB_O_TXHUBADDR0 + 4 + (ulEndpoint >> 1)) = ulAddr;
 13433              		.loc 1 3339 0
 13434 002e BB68     		ldr	r3, [r7, #8]
 13435 0030 4FEA5302 		lsr	r2, r3, #1
 13436 0034 FB68     		ldr	r3, [r7, #12]
 13437 0036 D318     		adds	r3, r2, r3
 13438 0038 03F18603 		add	r3, r3, #134
 13439 003c 7A68     		ldr	r2, [r7, #4]
 13440 003e 92B2     		uxth	r2, r2
 13441 0040 1A80     		strh	r2, [r3, #0]	@ movhi
 13442              	.L197:
3340:/home/cuil/workspace/arm/lm3s811/TI_Stellaris/driverlib/usb.c ****     }
3341:/home/cuil/workspace/arm/lm3s811/TI_Stellaris/driverlib/usb.c **** 
3342:/home/cuil/workspace/arm/lm3s811/TI_Stellaris/driverlib/usb.c ****     //
3343:/home/cuil/workspace/arm/lm3s811/TI_Stellaris/driverlib/usb.c ****     // Set the speed of communication for endpoint 0.  This configuration is 
3344:/home/cuil/workspace/arm/lm3s811/TI_Stellaris/driverlib/usb.c ****     // done here because it changes on a transaction-by-transaction basis for
3345:/home/cuil/workspace/arm/lm3s811/TI_Stellaris/driverlib/usb.c ****     // EP0.  For other endpoints, this is set in USBHostEndpointConfig().
3346:/home/cuil/workspace/arm/lm3s811/TI_Stellaris/driverlib/usb.c ****     //
3347:/home/cuil/workspace/arm/lm3s811/TI_Stellaris/driverlib/usb.c ****     if(ulEndpoint == USB_EP_0)
 13443              		.loc 1 3347 0
 13444 0042 BB68     		ldr	r3, [r7, #8]
 13445 0044 002B     		cmp	r3, #0
 13446 0046 11D1     		bne	.L195
3348:/home/cuil/workspace/arm/lm3s811/TI_Stellaris/driverlib/usb.c ****     {
3349:/home/cuil/workspace/arm/lm3s811/TI_Stellaris/driverlib/usb.c ****         if(ulFlags & USB_EP_SPEED_FULL)
 13447              		.loc 1 3349 0
 13448 0048 3B68     		ldr	r3, [r7, #0]
 13449 004a 03F48053 		and	r3, r3, #4096
 13450 004e 002B     		cmp	r3, #0
 13451 0050 06D0     		beq	.L199
3350:/home/cuil/workspace/arm/lm3s811/TI_Stellaris/driverlib/usb.c ****         {
3351:/home/cuil/workspace/arm/lm3s811/TI_Stellaris/driverlib/usb.c ****             HWREGB(ulBase + USB_O_TYPE0) = USB_TYPE0_SPEED_FULL;
 13452              		.loc 1 3351 0
 13453 0052 FB68     		ldr	r3, [r7, #12]
 13454 0054 03F58573 		add	r3, r3, #266
 13455 0058 4FF08002 		mov	r2, #128
 13456 005c 1A70     		strb	r2, [r3, #0]
 13457 005e 05E0     		b	.L195
 13458              	.L199:
3352:/home/cuil/workspace/arm/lm3s811/TI_Stellaris/driverlib/usb.c ****         }
3353:/home/cuil/workspace/arm/lm3s811/TI_Stellaris/driverlib/usb.c ****         else
3354:/home/cuil/workspace/arm/lm3s811/TI_Stellaris/driverlib/usb.c ****         {
3355:/home/cuil/workspace/arm/lm3s811/TI_Stellaris/driverlib/usb.c ****             HWREGB(ulBase + USB_O_TYPE0) = USB_TYPE0_SPEED_LOW;
 13459              		.loc 1 3355 0
 13460 0060 FB68     		ldr	r3, [r7, #12]
 13461 0062 03F58573 		add	r3, r3, #266
 13462 0066 4FF0C002 		mov	r2, #192
 13463 006a 1A70     		strb	r2, [r3, #0]
 13464              	.L195:
3356:/home/cuil/workspace/arm/lm3s811/TI_Stellaris/driverlib/usb.c ****         }
3357:/home/cuil/workspace/arm/lm3s811/TI_Stellaris/driverlib/usb.c ****     }
3358:/home/cuil/workspace/arm/lm3s811/TI_Stellaris/driverlib/usb.c **** }
 13465              		.loc 1 3358 0
 13466 006c 07F11407 		add	r7, r7, #20
 13467 0070 BD46     		mov	sp, r7
 13468 0072 80BC     		pop	{r7}
 13469 0074 7047     		bx	lr
 13470              		.cfi_endproc
 13471              	.LFE47:
 13473 0076 00BF     		.section	.text.USBHostHubAddrGet,"ax",%progbits
 13474              		.align	2
 13475              		.global	USBHostHubAddrGet
 13476              		.thumb
 13477              		.thumb_func
 13479              	USBHostHubAddrGet:
 13480              	.LFB48:
3359:/home/cuil/workspace/arm/lm3s811/TI_Stellaris/driverlib/usb.c **** 
3360:/home/cuil/workspace/arm/lm3s811/TI_Stellaris/driverlib/usb.c **** //*****************************************************************************
3361:/home/cuil/workspace/arm/lm3s811/TI_Stellaris/driverlib/usb.c **** //
3362:/home/cuil/workspace/arm/lm3s811/TI_Stellaris/driverlib/usb.c **** //! Gets the current device hub address for this endpoint.
3363:/home/cuil/workspace/arm/lm3s811/TI_Stellaris/driverlib/usb.c **** //!
3364:/home/cuil/workspace/arm/lm3s811/TI_Stellaris/driverlib/usb.c **** //! \param ulBase specifies the USB module base address.
3365:/home/cuil/workspace/arm/lm3s811/TI_Stellaris/driverlib/usb.c **** //! \param ulEndpoint is the endpoint to access.
3366:/home/cuil/workspace/arm/lm3s811/TI_Stellaris/driverlib/usb.c **** //! \param ulFlags determines if this is an IN or an OUT endpoint.
3367:/home/cuil/workspace/arm/lm3s811/TI_Stellaris/driverlib/usb.c **** //!
3368:/home/cuil/workspace/arm/lm3s811/TI_Stellaris/driverlib/usb.c **** //! This function returns the current hub address that an endpoint is using
3369:/home/cuil/workspace/arm/lm3s811/TI_Stellaris/driverlib/usb.c **** //! to communicate with a device.  The \e ulFlags parameter determines if the
3370:/home/cuil/workspace/arm/lm3s811/TI_Stellaris/driverlib/usb.c **** //! device address for the IN or OUT endpoint is returned.
3371:/home/cuil/workspace/arm/lm3s811/TI_Stellaris/driverlib/usb.c **** //!
3372:/home/cuil/workspace/arm/lm3s811/TI_Stellaris/driverlib/usb.c **** //! \note This function should only be called in host mode.
3373:/home/cuil/workspace/arm/lm3s811/TI_Stellaris/driverlib/usb.c **** //!
3374:/home/cuil/workspace/arm/lm3s811/TI_Stellaris/driverlib/usb.c **** //! \return This function returns the current hub address being used by an
3375:/home/cuil/workspace/arm/lm3s811/TI_Stellaris/driverlib/usb.c **** //! endpoint.
3376:/home/cuil/workspace/arm/lm3s811/TI_Stellaris/driverlib/usb.c **** //
3377:/home/cuil/workspace/arm/lm3s811/TI_Stellaris/driverlib/usb.c **** //*****************************************************************************
3378:/home/cuil/workspace/arm/lm3s811/TI_Stellaris/driverlib/usb.c **** unsigned long
3379:/home/cuil/workspace/arm/lm3s811/TI_Stellaris/driverlib/usb.c **** USBHostHubAddrGet(unsigned long ulBase, unsigned long ulEndpoint,
3380:/home/cuil/workspace/arm/lm3s811/TI_Stellaris/driverlib/usb.c ****                   unsigned long ulFlags)
3381:/home/cuil/workspace/arm/lm3s811/TI_Stellaris/driverlib/usb.c **** {
 13481              		.loc 1 3381 0
 13482              		.cfi_startproc
 13483              		@ args = 0, pretend = 0, frame = 16
 13484              		@ frame_needed = 1, uses_anonymous_args = 0
 13485              		@ link register save eliminated.
 13486 0000 80B4     		push	{r7}
 13487              	.LCFI144:
 13488              		.cfi_def_cfa_offset 4
 13489 0002 85B0     		sub	sp, sp, #20
 13490              	.LCFI145:
 13491              		.cfi_def_cfa_offset 24
 13492 0004 00AF     		add	r7, sp, #0
 13493              		.cfi_offset 7, -4
 13494              	.LCFI146:
 13495              		.cfi_def_cfa_register 7
 13496 0006 F860     		str	r0, [r7, #12]
 13497 0008 B960     		str	r1, [r7, #8]
 13498 000a 7A60     		str	r2, [r7, #4]
3382:/home/cuil/workspace/arm/lm3s811/TI_Stellaris/driverlib/usb.c ****     //
3383:/home/cuil/workspace/arm/lm3s811/TI_Stellaris/driverlib/usb.c ****     // Check the arguments.
3384:/home/cuil/workspace/arm/lm3s811/TI_Stellaris/driverlib/usb.c ****     //
3385:/home/cuil/workspace/arm/lm3s811/TI_Stellaris/driverlib/usb.c ****     ASSERT(ulBase == USB0_BASE);
3386:/home/cuil/workspace/arm/lm3s811/TI_Stellaris/driverlib/usb.c ****     ASSERT((ulEndpoint == USB_EP_0) || (ulEndpoint == USB_EP_1) ||
3387:/home/cuil/workspace/arm/lm3s811/TI_Stellaris/driverlib/usb.c ****            (ulEndpoint == USB_EP_2) || (ulEndpoint == USB_EP_3) ||
3388:/home/cuil/workspace/arm/lm3s811/TI_Stellaris/driverlib/usb.c ****            (ulEndpoint == USB_EP_4) || (ulEndpoint == USB_EP_5) ||
3389:/home/cuil/workspace/arm/lm3s811/TI_Stellaris/driverlib/usb.c ****            (ulEndpoint == USB_EP_6) || (ulEndpoint == USB_EP_7) ||
3390:/home/cuil/workspace/arm/lm3s811/TI_Stellaris/driverlib/usb.c ****            (ulEndpoint == USB_EP_8) || (ulEndpoint == USB_EP_9) ||
3391:/home/cuil/workspace/arm/lm3s811/TI_Stellaris/driverlib/usb.c ****            (ulEndpoint == USB_EP_10) || (ulEndpoint == USB_EP_11) ||
3392:/home/cuil/workspace/arm/lm3s811/TI_Stellaris/driverlib/usb.c ****            (ulEndpoint == USB_EP_12) || (ulEndpoint == USB_EP_13) ||
3393:/home/cuil/workspace/arm/lm3s811/TI_Stellaris/driverlib/usb.c ****            (ulEndpoint == USB_EP_14) || (ulEndpoint == USB_EP_15));
3394:/home/cuil/workspace/arm/lm3s811/TI_Stellaris/driverlib/usb.c **** 
3395:/home/cuil/workspace/arm/lm3s811/TI_Stellaris/driverlib/usb.c ****     //
3396:/home/cuil/workspace/arm/lm3s811/TI_Stellaris/driverlib/usb.c ****     // See if the hub transmit or receive address should be returned.
3397:/home/cuil/workspace/arm/lm3s811/TI_Stellaris/driverlib/usb.c ****     //
3398:/home/cuil/workspace/arm/lm3s811/TI_Stellaris/driverlib/usb.c ****     if(ulFlags & USB_EP_HOST_OUT)
 13499              		.loc 1 3398 0
 13500 000c 7B68     		ldr	r3, [r7, #4]
 13501 000e 03F40053 		and	r3, r3, #8192
 13502 0012 002B     		cmp	r3, #0
 13503 0014 09D0     		beq	.L201
3399:/home/cuil/workspace/arm/lm3s811/TI_Stellaris/driverlib/usb.c ****     {
3400:/home/cuil/workspace/arm/lm3s811/TI_Stellaris/driverlib/usb.c ****         //
3401:/home/cuil/workspace/arm/lm3s811/TI_Stellaris/driverlib/usb.c ****         // Return the hub transmit address for this endpoint.
3402:/home/cuil/workspace/arm/lm3s811/TI_Stellaris/driverlib/usb.c ****         //
3403:/home/cuil/workspace/arm/lm3s811/TI_Stellaris/driverlib/usb.c ****         return(HWREGB(ulBase + USB_O_TXHUBADDR0 + (ulEndpoint >> 1)));
 13504              		.loc 1 3403 0
 13505 0016 BB68     		ldr	r3, [r7, #8]
 13506 0018 4FEA5302 		lsr	r2, r3, #1
 13507 001c FB68     		ldr	r3, [r7, #12]
 13508 001e D318     		adds	r3, r2, r3
 13509 0020 03F18203 		add	r3, r3, #130
 13510 0024 1B78     		ldrb	r3, [r3, #0]
 13511 0026 DBB2     		uxtb	r3, r3
 13512 0028 08E0     		b	.L202
 13513              	.L201:
3404:/home/cuil/workspace/arm/lm3s811/TI_Stellaris/driverlib/usb.c ****     }
3405:/home/cuil/workspace/arm/lm3s811/TI_Stellaris/driverlib/usb.c ****     else
3406:/home/cuil/workspace/arm/lm3s811/TI_Stellaris/driverlib/usb.c ****     {
3407:/home/cuil/workspace/arm/lm3s811/TI_Stellaris/driverlib/usb.c ****         //
3408:/home/cuil/workspace/arm/lm3s811/TI_Stellaris/driverlib/usb.c ****         // Return the hub receive address for this endpoint.
3409:/home/cuil/workspace/arm/lm3s811/TI_Stellaris/driverlib/usb.c ****         //
3410:/home/cuil/workspace/arm/lm3s811/TI_Stellaris/driverlib/usb.c ****         return(HWREGB(ulBase + USB_O_TXHUBADDR0 + 4 + (ulEndpoint >> 1)));
 13514              		.loc 1 3410 0
 13515 002a BB68     		ldr	r3, [r7, #8]
 13516 002c 4FEA5302 		lsr	r2, r3, #1
 13517 0030 FB68     		ldr	r3, [r7, #12]
 13518 0032 D318     		adds	r3, r2, r3
 13519 0034 03F18603 		add	r3, r3, #134
 13520 0038 1B78     		ldrb	r3, [r3, #0]
 13521 003a DBB2     		uxtb	r3, r3
 13522              	.L202:
3411:/home/cuil/workspace/arm/lm3s811/TI_Stellaris/driverlib/usb.c ****     }
3412:/home/cuil/workspace/arm/lm3s811/TI_Stellaris/driverlib/usb.c **** }
 13523              		.loc 1 3412 0
 13524 003c 1846     		mov	r0, r3
 13525 003e 07F11407 		add	r7, r7, #20
 13526 0042 BD46     		mov	sp, r7
 13527 0044 80BC     		pop	{r7}
 13528 0046 7047     		bx	lr
 13529              		.cfi_endproc
 13530              	.LFE48:
 13532              		.section	.text.USBHostPwrConfig,"ax",%progbits
 13533              		.align	2
 13534              		.global	USBHostPwrConfig
 13535              		.thumb
 13536              		.thumb_func
 13538              	USBHostPwrConfig:
 13539              	.LFB49:
3413:/home/cuil/workspace/arm/lm3s811/TI_Stellaris/driverlib/usb.c **** 
3414:/home/cuil/workspace/arm/lm3s811/TI_Stellaris/driverlib/usb.c **** //*****************************************************************************
3415:/home/cuil/workspace/arm/lm3s811/TI_Stellaris/driverlib/usb.c **** //
3416:/home/cuil/workspace/arm/lm3s811/TI_Stellaris/driverlib/usb.c **** //! Sets the configuration for USB power fault.
3417:/home/cuil/workspace/arm/lm3s811/TI_Stellaris/driverlib/usb.c **** //!
3418:/home/cuil/workspace/arm/lm3s811/TI_Stellaris/driverlib/usb.c **** //! \param ulBase specifies the USB module base address.
3419:/home/cuil/workspace/arm/lm3s811/TI_Stellaris/driverlib/usb.c **** //! \param ulFlags specifies the configuration of the power fault.
3420:/home/cuil/workspace/arm/lm3s811/TI_Stellaris/driverlib/usb.c **** //!
3421:/home/cuil/workspace/arm/lm3s811/TI_Stellaris/driverlib/usb.c **** //! This function controls how the USB controller uses its external power
3422:/home/cuil/workspace/arm/lm3s811/TI_Stellaris/driverlib/usb.c **** //! control pins (USBnPFLT and USBnEPEN).  The flags specify the power
3423:/home/cuil/workspace/arm/lm3s811/TI_Stellaris/driverlib/usb.c **** //! fault level sensitivity, the power fault action, and the power enable level
3424:/home/cuil/workspace/arm/lm3s811/TI_Stellaris/driverlib/usb.c **** //! and source.
3425:/home/cuil/workspace/arm/lm3s811/TI_Stellaris/driverlib/usb.c **** //!
3426:/home/cuil/workspace/arm/lm3s811/TI_Stellaris/driverlib/usb.c **** //! One of the following can be selected as the power fault level sensitivity:
3427:/home/cuil/workspace/arm/lm3s811/TI_Stellaris/driverlib/usb.c **** //!
3428:/home/cuil/workspace/arm/lm3s811/TI_Stellaris/driverlib/usb.c **** //! - \b USB_HOST_PWRFLT_LOW - An external power fault is indicated by the pin
3429:/home/cuil/workspace/arm/lm3s811/TI_Stellaris/driverlib/usb.c **** //!                            being driven low.
3430:/home/cuil/workspace/arm/lm3s811/TI_Stellaris/driverlib/usb.c **** //! - \b USB_HOST_PWRFLT_HIGH - An external power fault is indicated by the pin
3431:/home/cuil/workspace/arm/lm3s811/TI_Stellaris/driverlib/usb.c **** //!                             being driven high.
3432:/home/cuil/workspace/arm/lm3s811/TI_Stellaris/driverlib/usb.c **** //!
3433:/home/cuil/workspace/arm/lm3s811/TI_Stellaris/driverlib/usb.c **** //! One of the following can be selected as the power fault action:
3434:/home/cuil/workspace/arm/lm3s811/TI_Stellaris/driverlib/usb.c **** //!
3435:/home/cuil/workspace/arm/lm3s811/TI_Stellaris/driverlib/usb.c **** //! - \b USB_HOST_PWRFLT_EP_NONE - No automatic action when power fault
3436:/home/cuil/workspace/arm/lm3s811/TI_Stellaris/driverlib/usb.c **** //!   detected.
3437:/home/cuil/workspace/arm/lm3s811/TI_Stellaris/driverlib/usb.c **** //! - \b USB_HOST_PWRFLT_EP_TRI - Automatically tri-state the USBnEPEN pin on a
3438:/home/cuil/workspace/arm/lm3s811/TI_Stellaris/driverlib/usb.c **** //!                               power fault.
3439:/home/cuil/workspace/arm/lm3s811/TI_Stellaris/driverlib/usb.c **** //! - \b USB_HOST_PWRFLT_EP_LOW - Automatically drive USBnEPEN pin low on a
3440:/home/cuil/workspace/arm/lm3s811/TI_Stellaris/driverlib/usb.c **** //!                               power fault.
3441:/home/cuil/workspace/arm/lm3s811/TI_Stellaris/driverlib/usb.c **** //! - \b USB_HOST_PWRFLT_EP_HIGH - Automatically drive USBnEPEN pin high on a
3442:/home/cuil/workspace/arm/lm3s811/TI_Stellaris/driverlib/usb.c **** //!                                power fault.
3443:/home/cuil/workspace/arm/lm3s811/TI_Stellaris/driverlib/usb.c **** //!
3444:/home/cuil/workspace/arm/lm3s811/TI_Stellaris/driverlib/usb.c **** //! One of the following can be selected as the power enable level and source:
3445:/home/cuil/workspace/arm/lm3s811/TI_Stellaris/driverlib/usb.c **** //!
3446:/home/cuil/workspace/arm/lm3s811/TI_Stellaris/driverlib/usb.c **** //! - \b USB_HOST_PWREN_MAN_LOW - USBnEPEN is driven low by the USB controller
3447:/home/cuil/workspace/arm/lm3s811/TI_Stellaris/driverlib/usb.c **** //!                               when USBHostPwrEnable() is called.
3448:/home/cuil/workspace/arm/lm3s811/TI_Stellaris/driverlib/usb.c **** //! - \b USB_HOST_PWREN_MAN_HIGH - USBnEPEN is driven high by the USB 
3449:/home/cuil/workspace/arm/lm3s811/TI_Stellaris/driverlib/usb.c **** //!                                controller when USBHostPwrEnable() is 
3450:/home/cuil/workspace/arm/lm3s811/TI_Stellaris/driverlib/usb.c **** //!                                called.
3451:/home/cuil/workspace/arm/lm3s811/TI_Stellaris/driverlib/usb.c **** //! - \b USB_HOST_PWREN_AUTOLOW - USBnEPEN is driven low by the USB controller
3452:/home/cuil/workspace/arm/lm3s811/TI_Stellaris/driverlib/usb.c **** //!                               automatically if USBOTGSessionRequest() has
3453:/home/cuil/workspace/arm/lm3s811/TI_Stellaris/driverlib/usb.c **** //!                               enabled a session.
3454:/home/cuil/workspace/arm/lm3s811/TI_Stellaris/driverlib/usb.c **** //! - \b USB_HOST_PWREN_AUTOHIGH - USBnEPEN is driven high by the USB 
3455:/home/cuil/workspace/arm/lm3s811/TI_Stellaris/driverlib/usb.c **** //!                                controller automatically if 
3456:/home/cuil/workspace/arm/lm3s811/TI_Stellaris/driverlib/usb.c **** //!                                USBOTGSessionRequest() has enabled a 
3457:/home/cuil/workspace/arm/lm3s811/TI_Stellaris/driverlib/usb.c **** //!                                session.
3458:/home/cuil/workspace/arm/lm3s811/TI_Stellaris/driverlib/usb.c **** //!
3459:/home/cuil/workspace/arm/lm3s811/TI_Stellaris/driverlib/usb.c **** //! On devices that support the VBUS glitch filter, the
3460:/home/cuil/workspace/arm/lm3s811/TI_Stellaris/driverlib/usb.c **** //! \b USB_HOST_PWREN_FILTER can be added to ignore small, short drops in VBUS
3461:/home/cuil/workspace/arm/lm3s811/TI_Stellaris/driverlib/usb.c **** //! level caused by high power consumption.  This feature is mainly used to 
3462:/home/cuil/workspace/arm/lm3s811/TI_Stellaris/driverlib/usb.c **** //! avoid causing VBUS errors caused by devices with high in-rush current.
3463:/home/cuil/workspace/arm/lm3s811/TI_Stellaris/driverlib/usb.c **** //!
3464:/home/cuil/workspace/arm/lm3s811/TI_Stellaris/driverlib/usb.c **** //! \note The following values have been deprecated and should no longer be
3465:/home/cuil/workspace/arm/lm3s811/TI_Stellaris/driverlib/usb.c **** //!       used.
3466:/home/cuil/workspace/arm/lm3s811/TI_Stellaris/driverlib/usb.c **** //! - \b USB_HOST_PWREN_LOW - Automatically drive USBnEPEN low when power is
3467:/home/cuil/workspace/arm/lm3s811/TI_Stellaris/driverlib/usb.c **** //!                           enabled.
3468:/home/cuil/workspace/arm/lm3s811/TI_Stellaris/driverlib/usb.c **** //! - \b USB_HOST_PWREN_HIGH - Automatically drive USBnEPEN high when power is
3469:/home/cuil/workspace/arm/lm3s811/TI_Stellaris/driverlib/usb.c **** //!                            enabled.
3470:/home/cuil/workspace/arm/lm3s811/TI_Stellaris/driverlib/usb.c **** //! - \b USB_HOST_PWREN_VBLOW - Automatically drive USBnEPEN low when power is
3471:/home/cuil/workspace/arm/lm3s811/TI_Stellaris/driverlib/usb.c **** //!                             enabled.
3472:/home/cuil/workspace/arm/lm3s811/TI_Stellaris/driverlib/usb.c **** //! - \b USB_HOST_PWREN_VBHIGH - Automatically drive USBnEPEN high when power 
3473:/home/cuil/workspace/arm/lm3s811/TI_Stellaris/driverlib/usb.c **** //!                              is enabled.
3474:/home/cuil/workspace/arm/lm3s811/TI_Stellaris/driverlib/usb.c **** //!
3475:/home/cuil/workspace/arm/lm3s811/TI_Stellaris/driverlib/usb.c **** //! \note This function should only be called on microcontrollers that support
3476:/home/cuil/workspace/arm/lm3s811/TI_Stellaris/driverlib/usb.c **** //! host mode or OTG operation.
3477:/home/cuil/workspace/arm/lm3s811/TI_Stellaris/driverlib/usb.c **** //!
3478:/home/cuil/workspace/arm/lm3s811/TI_Stellaris/driverlib/usb.c **** //! \return None.
3479:/home/cuil/workspace/arm/lm3s811/TI_Stellaris/driverlib/usb.c **** //
3480:/home/cuil/workspace/arm/lm3s811/TI_Stellaris/driverlib/usb.c **** //*****************************************************************************
3481:/home/cuil/workspace/arm/lm3s811/TI_Stellaris/driverlib/usb.c **** void
3482:/home/cuil/workspace/arm/lm3s811/TI_Stellaris/driverlib/usb.c **** USBHostPwrConfig(unsigned long ulBase, unsigned long ulFlags)
3483:/home/cuil/workspace/arm/lm3s811/TI_Stellaris/driverlib/usb.c **** {
 13540              		.loc 1 3483 0
 13541              		.cfi_startproc
 13542              		@ args = 0, pretend = 0, frame = 8
 13543              		@ frame_needed = 1, uses_anonymous_args = 0
 13544              		@ link register save eliminated.
 13545 0000 80B4     		push	{r7}
 13546              	.LCFI147:
 13547              		.cfi_def_cfa_offset 4
 13548 0002 83B0     		sub	sp, sp, #12
 13549              	.LCFI148:
 13550              		.cfi_def_cfa_offset 16
 13551 0004 00AF     		add	r7, sp, #0
 13552              		.cfi_offset 7, -4
 13553              	.LCFI149:
 13554              		.cfi_def_cfa_register 7
 13555 0006 7860     		str	r0, [r7, #4]
 13556 0008 3960     		str	r1, [r7, #0]
3484:/home/cuil/workspace/arm/lm3s811/TI_Stellaris/driverlib/usb.c ****     //
3485:/home/cuil/workspace/arm/lm3s811/TI_Stellaris/driverlib/usb.c ****     // Check the arguments.
3486:/home/cuil/workspace/arm/lm3s811/TI_Stellaris/driverlib/usb.c ****     //
3487:/home/cuil/workspace/arm/lm3s811/TI_Stellaris/driverlib/usb.c ****     ASSERT(ulBase == USB0_BASE);
3488:/home/cuil/workspace/arm/lm3s811/TI_Stellaris/driverlib/usb.c ****     ASSERT((ulFlags & ~(USB_HOST_PWREN_FILTER | USB_EPC_PFLTACT_M |
3489:/home/cuil/workspace/arm/lm3s811/TI_Stellaris/driverlib/usb.c ****                         USB_EPC_PFLTAEN | USB_EPC_PFLTSEN_HIGH |
3490:/home/cuil/workspace/arm/lm3s811/TI_Stellaris/driverlib/usb.c ****                         USB_EPC_EPEN_M)) == 0);
3491:/home/cuil/workspace/arm/lm3s811/TI_Stellaris/driverlib/usb.c **** 
3492:/home/cuil/workspace/arm/lm3s811/TI_Stellaris/driverlib/usb.c ****     //
3493:/home/cuil/workspace/arm/lm3s811/TI_Stellaris/driverlib/usb.c ****     // If requested, enable VBUS droop detection on parts that support this
3494:/home/cuil/workspace/arm/lm3s811/TI_Stellaris/driverlib/usb.c ****     // feature.
3495:/home/cuil/workspace/arm/lm3s811/TI_Stellaris/driverlib/usb.c ****     //
3496:/home/cuil/workspace/arm/lm3s811/TI_Stellaris/driverlib/usb.c ****     HWREG(ulBase + USB_O_VDC) = ulFlags >> 16;
 13557              		.loc 1 3496 0
 13558 000a 7B68     		ldr	r3, [r7, #4]
 13559 000c 03F58663 		add	r3, r3, #1072
 13560 0010 3A68     		ldr	r2, [r7, #0]
 13561 0012 4FEA1242 		lsr	r2, r2, #16
 13562 0016 1A60     		str	r2, [r3, #0]
3497:/home/cuil/workspace/arm/lm3s811/TI_Stellaris/driverlib/usb.c **** 
3498:/home/cuil/workspace/arm/lm3s811/TI_Stellaris/driverlib/usb.c ****     //
3499:/home/cuil/workspace/arm/lm3s811/TI_Stellaris/driverlib/usb.c ****     // Set the power fault configuration as specified.  This configuration 
3500:/home/cuil/workspace/arm/lm3s811/TI_Stellaris/driverlib/usb.c ****     // does not change whether fault detection is enabled or not.
3501:/home/cuil/workspace/arm/lm3s811/TI_Stellaris/driverlib/usb.c ****     //
3502:/home/cuil/workspace/arm/lm3s811/TI_Stellaris/driverlib/usb.c ****     HWREGH(ulBase + USB_O_EPC) =
 13563              		.loc 1 3502 0
 13564 0018 7B68     		ldr	r3, [r7, #4]
 13565 001a 03F58063 		add	r3, r3, #1024
 13566 001e 1A46     		mov	r2, r3
3503:/home/cuil/workspace/arm/lm3s811/TI_Stellaris/driverlib/usb.c ****         (ulFlags | (HWREGH(ulBase + USB_O_EPC) &
 13567              		.loc 1 3503 0
 13568 0020 7B68     		ldr	r3, [r7, #4]
 13569 0022 03F58063 		add	r3, r3, #1024
 13570 0026 1B88     		ldrh	r3, [r3, #0]	@ movhi
 13571 0028 9BB2     		uxth	r3, r3
3502:/home/cuil/workspace/arm/lm3s811/TI_Stellaris/driverlib/usb.c ****     HWREGH(ulBase + USB_O_EPC) =
 13572              		.loc 1 3502 0
 13573 002a 23F45873 		bic	r3, r3, #864
 13574 002e 23F00303 		bic	r3, r3, #3
 13575 0032 99B2     		uxth	r1, r3
 13576 0034 3B68     		ldr	r3, [r7, #0]
 13577 0036 9BB2     		uxth	r3, r3
 13578 0038 41EA0303 		orr	r3, r1, r3
 13579 003c 9BB2     		uxth	r3, r3
 13580 003e 1380     		strh	r3, [r2, #0]	@ movhi
3504:/home/cuil/workspace/arm/lm3s811/TI_Stellaris/driverlib/usb.c ****                     ~(USB_EPC_PFLTACT_M | USB_EPC_PFLTAEN |
3505:/home/cuil/workspace/arm/lm3s811/TI_Stellaris/driverlib/usb.c ****                       USB_EPC_PFLTSEN_HIGH | USB_EPC_EPEN_M)));
3506:/home/cuil/workspace/arm/lm3s811/TI_Stellaris/driverlib/usb.c **** }
 13581              		.loc 1 3506 0
 13582 0040 07F10C07 		add	r7, r7, #12
 13583 0044 BD46     		mov	sp, r7
 13584 0046 80BC     		pop	{r7}
 13585 0048 7047     		bx	lr
 13586              		.cfi_endproc
 13587              	.LFE49:
 13589 004a 00BF     		.section	.text.USBHostPwrFaultEnable,"ax",%progbits
 13590              		.align	2
 13591              		.global	USBHostPwrFaultEnable
 13592              		.thumb
 13593              		.thumb_func
 13595              	USBHostPwrFaultEnable:
 13596              	.LFB50:
3507:/home/cuil/workspace/arm/lm3s811/TI_Stellaris/driverlib/usb.c **** 
3508:/home/cuil/workspace/arm/lm3s811/TI_Stellaris/driverlib/usb.c **** //*****************************************************************************
3509:/home/cuil/workspace/arm/lm3s811/TI_Stellaris/driverlib/usb.c **** //
3510:/home/cuil/workspace/arm/lm3s811/TI_Stellaris/driverlib/usb.c **** //! Enables power fault detection.
3511:/home/cuil/workspace/arm/lm3s811/TI_Stellaris/driverlib/usb.c **** //!
3512:/home/cuil/workspace/arm/lm3s811/TI_Stellaris/driverlib/usb.c **** //! \param ulBase specifies the USB module base address.
3513:/home/cuil/workspace/arm/lm3s811/TI_Stellaris/driverlib/usb.c **** //!
3514:/home/cuil/workspace/arm/lm3s811/TI_Stellaris/driverlib/usb.c **** //! This function enables power fault detection in the USB controller.  If the
3515:/home/cuil/workspace/arm/lm3s811/TI_Stellaris/driverlib/usb.c **** //! USBnPFLT pin is not in use, this function should not be used.
3516:/home/cuil/workspace/arm/lm3s811/TI_Stellaris/driverlib/usb.c **** //!
3517:/home/cuil/workspace/arm/lm3s811/TI_Stellaris/driverlib/usb.c **** //! \note This function should only be called in host mode.
3518:/home/cuil/workspace/arm/lm3s811/TI_Stellaris/driverlib/usb.c **** //!
3519:/home/cuil/workspace/arm/lm3s811/TI_Stellaris/driverlib/usb.c **** //! \return None.
3520:/home/cuil/workspace/arm/lm3s811/TI_Stellaris/driverlib/usb.c **** //
3521:/home/cuil/workspace/arm/lm3s811/TI_Stellaris/driverlib/usb.c **** //*****************************************************************************
3522:/home/cuil/workspace/arm/lm3s811/TI_Stellaris/driverlib/usb.c **** void
3523:/home/cuil/workspace/arm/lm3s811/TI_Stellaris/driverlib/usb.c **** USBHostPwrFaultEnable(unsigned long ulBase)
3524:/home/cuil/workspace/arm/lm3s811/TI_Stellaris/driverlib/usb.c **** {
 13597              		.loc 1 3524 0
 13598              		.cfi_startproc
 13599              		@ args = 0, pretend = 0, frame = 8
 13600              		@ frame_needed = 1, uses_anonymous_args = 0
 13601              		@ link register save eliminated.
 13602 0000 80B4     		push	{r7}
 13603              	.LCFI150:
 13604              		.cfi_def_cfa_offset 4
 13605 0002 83B0     		sub	sp, sp, #12
 13606              	.LCFI151:
 13607              		.cfi_def_cfa_offset 16
 13608 0004 00AF     		add	r7, sp, #0
 13609              		.cfi_offset 7, -4
 13610              	.LCFI152:
 13611              		.cfi_def_cfa_register 7
 13612 0006 7860     		str	r0, [r7, #4]
3525:/home/cuil/workspace/arm/lm3s811/TI_Stellaris/driverlib/usb.c ****     //
3526:/home/cuil/workspace/arm/lm3s811/TI_Stellaris/driverlib/usb.c ****     // Check the arguments.
3527:/home/cuil/workspace/arm/lm3s811/TI_Stellaris/driverlib/usb.c ****     //
3528:/home/cuil/workspace/arm/lm3s811/TI_Stellaris/driverlib/usb.c ****     ASSERT(ulBase == USB0_BASE);
3529:/home/cuil/workspace/arm/lm3s811/TI_Stellaris/driverlib/usb.c **** 
3530:/home/cuil/workspace/arm/lm3s811/TI_Stellaris/driverlib/usb.c ****     //
3531:/home/cuil/workspace/arm/lm3s811/TI_Stellaris/driverlib/usb.c ****     // Enable power fault input.
3532:/home/cuil/workspace/arm/lm3s811/TI_Stellaris/driverlib/usb.c ****     //
3533:/home/cuil/workspace/arm/lm3s811/TI_Stellaris/driverlib/usb.c ****     HWREGH(ulBase + USB_O_EPC) |= USB_EPC_PFLTEN;
 13613              		.loc 1 3533 0
 13614 0008 7B68     		ldr	r3, [r7, #4]
 13615 000a 03F58063 		add	r3, r3, #1024
 13616 000e 7A68     		ldr	r2, [r7, #4]
 13617 0010 02F58062 		add	r2, r2, #1024
 13618 0014 1288     		ldrh	r2, [r2, #0]	@ movhi
 13619 0016 92B2     		uxth	r2, r2
 13620 0018 42F01002 		orr	r2, r2, #16
 13621 001c 92B2     		uxth	r2, r2
 13622 001e 1A80     		strh	r2, [r3, #0]	@ movhi
3534:/home/cuil/workspace/arm/lm3s811/TI_Stellaris/driverlib/usb.c **** }
 13623              		.loc 1 3534 0
 13624 0020 07F10C07 		add	r7, r7, #12
 13625 0024 BD46     		mov	sp, r7
 13626 0026 80BC     		pop	{r7}
 13627 0028 7047     		bx	lr
 13628              		.cfi_endproc
 13629              	.LFE50:
 13631 002a 00BF     		.section	.text.USBHostPwrFaultDisable,"ax",%progbits
 13632              		.align	2
 13633              		.global	USBHostPwrFaultDisable
 13634              		.thumb
 13635              		.thumb_func
 13637              	USBHostPwrFaultDisable:
 13638              	.LFB51:
3535:/home/cuil/workspace/arm/lm3s811/TI_Stellaris/driverlib/usb.c **** 
3536:/home/cuil/workspace/arm/lm3s811/TI_Stellaris/driverlib/usb.c **** //*****************************************************************************
3537:/home/cuil/workspace/arm/lm3s811/TI_Stellaris/driverlib/usb.c **** //
3538:/home/cuil/workspace/arm/lm3s811/TI_Stellaris/driverlib/usb.c **** //! Disables power fault detection.
3539:/home/cuil/workspace/arm/lm3s811/TI_Stellaris/driverlib/usb.c **** //!
3540:/home/cuil/workspace/arm/lm3s811/TI_Stellaris/driverlib/usb.c **** //! \param ulBase specifies the USB module base address.
3541:/home/cuil/workspace/arm/lm3s811/TI_Stellaris/driverlib/usb.c **** //!
3542:/home/cuil/workspace/arm/lm3s811/TI_Stellaris/driverlib/usb.c **** //! This function disables power fault detection in the USB controller.
3543:/home/cuil/workspace/arm/lm3s811/TI_Stellaris/driverlib/usb.c **** //!
3544:/home/cuil/workspace/arm/lm3s811/TI_Stellaris/driverlib/usb.c **** //! \note This function should only be called in host mode.
3545:/home/cuil/workspace/arm/lm3s811/TI_Stellaris/driverlib/usb.c **** //!
3546:/home/cuil/workspace/arm/lm3s811/TI_Stellaris/driverlib/usb.c **** //! \return None.
3547:/home/cuil/workspace/arm/lm3s811/TI_Stellaris/driverlib/usb.c **** //
3548:/home/cuil/workspace/arm/lm3s811/TI_Stellaris/driverlib/usb.c **** //*****************************************************************************
3549:/home/cuil/workspace/arm/lm3s811/TI_Stellaris/driverlib/usb.c **** void
3550:/home/cuil/workspace/arm/lm3s811/TI_Stellaris/driverlib/usb.c **** USBHostPwrFaultDisable(unsigned long ulBase)
3551:/home/cuil/workspace/arm/lm3s811/TI_Stellaris/driverlib/usb.c **** {
 13639              		.loc 1 3551 0
 13640              		.cfi_startproc
 13641              		@ args = 0, pretend = 0, frame = 8
 13642              		@ frame_needed = 1, uses_anonymous_args = 0
 13643              		@ link register save eliminated.
 13644 0000 80B4     		push	{r7}
 13645              	.LCFI153:
 13646              		.cfi_def_cfa_offset 4
 13647 0002 83B0     		sub	sp, sp, #12
 13648              	.LCFI154:
 13649              		.cfi_def_cfa_offset 16
 13650 0004 00AF     		add	r7, sp, #0
 13651              		.cfi_offset 7, -4
 13652              	.LCFI155:
 13653              		.cfi_def_cfa_register 7
 13654 0006 7860     		str	r0, [r7, #4]
3552:/home/cuil/workspace/arm/lm3s811/TI_Stellaris/driverlib/usb.c ****     //
3553:/home/cuil/workspace/arm/lm3s811/TI_Stellaris/driverlib/usb.c ****     // Check the arguments.
3554:/home/cuil/workspace/arm/lm3s811/TI_Stellaris/driverlib/usb.c ****     //
3555:/home/cuil/workspace/arm/lm3s811/TI_Stellaris/driverlib/usb.c ****     ASSERT(ulBase == USB0_BASE);
3556:/home/cuil/workspace/arm/lm3s811/TI_Stellaris/driverlib/usb.c **** 
3557:/home/cuil/workspace/arm/lm3s811/TI_Stellaris/driverlib/usb.c ****     //
3558:/home/cuil/workspace/arm/lm3s811/TI_Stellaris/driverlib/usb.c ****     // Enable power fault input.
3559:/home/cuil/workspace/arm/lm3s811/TI_Stellaris/driverlib/usb.c ****     //
3560:/home/cuil/workspace/arm/lm3s811/TI_Stellaris/driverlib/usb.c ****     HWREGH(ulBase + USB_O_EPC) &= ~USB_EPC_PFLTEN;
 13655              		.loc 1 3560 0
 13656 0008 7B68     		ldr	r3, [r7, #4]
 13657 000a 03F58063 		add	r3, r3, #1024
 13658 000e 7A68     		ldr	r2, [r7, #4]
 13659 0010 02F58062 		add	r2, r2, #1024
 13660 0014 1288     		ldrh	r2, [r2, #0]	@ movhi
 13661 0016 92B2     		uxth	r2, r2
 13662 0018 22F01002 		bic	r2, r2, #16
 13663 001c 92B2     		uxth	r2, r2
 13664 001e 1A80     		strh	r2, [r3, #0]	@ movhi
3561:/home/cuil/workspace/arm/lm3s811/TI_Stellaris/driverlib/usb.c **** }
 13665              		.loc 1 3561 0
 13666 0020 07F10C07 		add	r7, r7, #12
 13667 0024 BD46     		mov	sp, r7
 13668 0026 80BC     		pop	{r7}
 13669 0028 7047     		bx	lr
 13670              		.cfi_endproc
 13671              	.LFE51:
 13673 002a 00BF     		.section	.text.USBHostPwrEnable,"ax",%progbits
 13674              		.align	2
 13675              		.global	USBHostPwrEnable
 13676              		.thumb
 13677              		.thumb_func
 13679              	USBHostPwrEnable:
 13680              	.LFB52:
3562:/home/cuil/workspace/arm/lm3s811/TI_Stellaris/driverlib/usb.c **** 
3563:/home/cuil/workspace/arm/lm3s811/TI_Stellaris/driverlib/usb.c **** //*****************************************************************************
3564:/home/cuil/workspace/arm/lm3s811/TI_Stellaris/driverlib/usb.c **** //
3565:/home/cuil/workspace/arm/lm3s811/TI_Stellaris/driverlib/usb.c **** //! Enables the external power pin.
3566:/home/cuil/workspace/arm/lm3s811/TI_Stellaris/driverlib/usb.c **** //!
3567:/home/cuil/workspace/arm/lm3s811/TI_Stellaris/driverlib/usb.c **** //! \param ulBase specifies the USB module base address.
3568:/home/cuil/workspace/arm/lm3s811/TI_Stellaris/driverlib/usb.c **** //!
3569:/home/cuil/workspace/arm/lm3s811/TI_Stellaris/driverlib/usb.c **** //! This function enables the USBnEPEN signal, which enables an external power 
3570:/home/cuil/workspace/arm/lm3s811/TI_Stellaris/driverlib/usb.c **** //! supply in host mode operation.
3571:/home/cuil/workspace/arm/lm3s811/TI_Stellaris/driverlib/usb.c **** //!
3572:/home/cuil/workspace/arm/lm3s811/TI_Stellaris/driverlib/usb.c **** //! \note This function should only be called in host mode.
3573:/home/cuil/workspace/arm/lm3s811/TI_Stellaris/driverlib/usb.c **** //!
3574:/home/cuil/workspace/arm/lm3s811/TI_Stellaris/driverlib/usb.c **** //! \return None.
3575:/home/cuil/workspace/arm/lm3s811/TI_Stellaris/driverlib/usb.c **** //
3576:/home/cuil/workspace/arm/lm3s811/TI_Stellaris/driverlib/usb.c **** //*****************************************************************************
3577:/home/cuil/workspace/arm/lm3s811/TI_Stellaris/driverlib/usb.c **** void
3578:/home/cuil/workspace/arm/lm3s811/TI_Stellaris/driverlib/usb.c **** USBHostPwrEnable(unsigned long ulBase)
3579:/home/cuil/workspace/arm/lm3s811/TI_Stellaris/driverlib/usb.c **** {
 13681              		.loc 1 3579 0
 13682              		.cfi_startproc
 13683              		@ args = 0, pretend = 0, frame = 8
 13684              		@ frame_needed = 1, uses_anonymous_args = 0
 13685              		@ link register save eliminated.
 13686 0000 80B4     		push	{r7}
 13687              	.LCFI156:
 13688              		.cfi_def_cfa_offset 4
 13689 0002 83B0     		sub	sp, sp, #12
 13690              	.LCFI157:
 13691              		.cfi_def_cfa_offset 16
 13692 0004 00AF     		add	r7, sp, #0
 13693              		.cfi_offset 7, -4
 13694              	.LCFI158:
 13695              		.cfi_def_cfa_register 7
 13696 0006 7860     		str	r0, [r7, #4]
3580:/home/cuil/workspace/arm/lm3s811/TI_Stellaris/driverlib/usb.c ****     //
3581:/home/cuil/workspace/arm/lm3s811/TI_Stellaris/driverlib/usb.c ****     // Check the arguments.
3582:/home/cuil/workspace/arm/lm3s811/TI_Stellaris/driverlib/usb.c ****     //
3583:/home/cuil/workspace/arm/lm3s811/TI_Stellaris/driverlib/usb.c ****     ASSERT(ulBase == USB0_BASE);
3584:/home/cuil/workspace/arm/lm3s811/TI_Stellaris/driverlib/usb.c **** 
3585:/home/cuil/workspace/arm/lm3s811/TI_Stellaris/driverlib/usb.c ****     //
3586:/home/cuil/workspace/arm/lm3s811/TI_Stellaris/driverlib/usb.c ****     // Enable the external power supply enable signal.
3587:/home/cuil/workspace/arm/lm3s811/TI_Stellaris/driverlib/usb.c ****     //
3588:/home/cuil/workspace/arm/lm3s811/TI_Stellaris/driverlib/usb.c ****     HWREGH(ulBase + USB_O_EPC) |= USB_EPC_EPENDE;
 13697              		.loc 1 3588 0
 13698 0008 7B68     		ldr	r3, [r7, #4]
 13699 000a 03F58063 		add	r3, r3, #1024
 13700 000e 7A68     		ldr	r2, [r7, #4]
 13701 0010 02F58062 		add	r2, r2, #1024
 13702 0014 1288     		ldrh	r2, [r2, #0]	@ movhi
 13703 0016 92B2     		uxth	r2, r2
 13704 0018 42F00402 		orr	r2, r2, #4
 13705 001c 92B2     		uxth	r2, r2
 13706 001e 1A80     		strh	r2, [r3, #0]	@ movhi
3589:/home/cuil/workspace/arm/lm3s811/TI_Stellaris/driverlib/usb.c **** }
 13707              		.loc 1 3589 0
 13708 0020 07F10C07 		add	r7, r7, #12
 13709 0024 BD46     		mov	sp, r7
 13710 0026 80BC     		pop	{r7}
 13711 0028 7047     		bx	lr
 13712              		.cfi_endproc
 13713              	.LFE52:
 13715 002a 00BF     		.section	.text.USBHostPwrDisable,"ax",%progbits
 13716              		.align	2
 13717              		.global	USBHostPwrDisable
 13718              		.thumb
 13719              		.thumb_func
 13721              	USBHostPwrDisable:
 13722              	.LFB53:
3590:/home/cuil/workspace/arm/lm3s811/TI_Stellaris/driverlib/usb.c **** 
3591:/home/cuil/workspace/arm/lm3s811/TI_Stellaris/driverlib/usb.c **** //*****************************************************************************
3592:/home/cuil/workspace/arm/lm3s811/TI_Stellaris/driverlib/usb.c **** //
3593:/home/cuil/workspace/arm/lm3s811/TI_Stellaris/driverlib/usb.c **** //! Disables the external power pin.
3594:/home/cuil/workspace/arm/lm3s811/TI_Stellaris/driverlib/usb.c **** //!
3595:/home/cuil/workspace/arm/lm3s811/TI_Stellaris/driverlib/usb.c **** //! \param ulBase specifies the USB module base address.
3596:/home/cuil/workspace/arm/lm3s811/TI_Stellaris/driverlib/usb.c **** //!
3597:/home/cuil/workspace/arm/lm3s811/TI_Stellaris/driverlib/usb.c **** //! This function disables the USBnEPEN signal, which disables an external 
3598:/home/cuil/workspace/arm/lm3s811/TI_Stellaris/driverlib/usb.c **** //! power supply in host mode operation.
3599:/home/cuil/workspace/arm/lm3s811/TI_Stellaris/driverlib/usb.c **** //!
3600:/home/cuil/workspace/arm/lm3s811/TI_Stellaris/driverlib/usb.c **** //! \note This function should only be called in host mode.
3601:/home/cuil/workspace/arm/lm3s811/TI_Stellaris/driverlib/usb.c **** //!
3602:/home/cuil/workspace/arm/lm3s811/TI_Stellaris/driverlib/usb.c **** //! \return None.
3603:/home/cuil/workspace/arm/lm3s811/TI_Stellaris/driverlib/usb.c **** //
3604:/home/cuil/workspace/arm/lm3s811/TI_Stellaris/driverlib/usb.c **** //*****************************************************************************
3605:/home/cuil/workspace/arm/lm3s811/TI_Stellaris/driverlib/usb.c **** void
3606:/home/cuil/workspace/arm/lm3s811/TI_Stellaris/driverlib/usb.c **** USBHostPwrDisable(unsigned long ulBase)
3607:/home/cuil/workspace/arm/lm3s811/TI_Stellaris/driverlib/usb.c **** {
 13723              		.loc 1 3607 0
 13724              		.cfi_startproc
 13725              		@ args = 0, pretend = 0, frame = 8
 13726              		@ frame_needed = 1, uses_anonymous_args = 0
 13727              		@ link register save eliminated.
 13728 0000 80B4     		push	{r7}
 13729              	.LCFI159:
 13730              		.cfi_def_cfa_offset 4
 13731 0002 83B0     		sub	sp, sp, #12
 13732              	.LCFI160:
 13733              		.cfi_def_cfa_offset 16
 13734 0004 00AF     		add	r7, sp, #0
 13735              		.cfi_offset 7, -4
 13736              	.LCFI161:
 13737              		.cfi_def_cfa_register 7
 13738 0006 7860     		str	r0, [r7, #4]
3608:/home/cuil/workspace/arm/lm3s811/TI_Stellaris/driverlib/usb.c ****     //
3609:/home/cuil/workspace/arm/lm3s811/TI_Stellaris/driverlib/usb.c ****     // Check the arguments.
3610:/home/cuil/workspace/arm/lm3s811/TI_Stellaris/driverlib/usb.c ****     //
3611:/home/cuil/workspace/arm/lm3s811/TI_Stellaris/driverlib/usb.c ****     ASSERT(ulBase == USB0_BASE);
3612:/home/cuil/workspace/arm/lm3s811/TI_Stellaris/driverlib/usb.c **** 
3613:/home/cuil/workspace/arm/lm3s811/TI_Stellaris/driverlib/usb.c ****     //
3614:/home/cuil/workspace/arm/lm3s811/TI_Stellaris/driverlib/usb.c ****     // Disable the external power supply enable signal.
3615:/home/cuil/workspace/arm/lm3s811/TI_Stellaris/driverlib/usb.c ****     //
3616:/home/cuil/workspace/arm/lm3s811/TI_Stellaris/driverlib/usb.c ****     HWREGH(ulBase + USB_O_EPC) &= ~USB_EPC_EPENDE;
 13739              		.loc 1 3616 0
 13740 0008 7B68     		ldr	r3, [r7, #4]
 13741 000a 03F58063 		add	r3, r3, #1024
 13742 000e 7A68     		ldr	r2, [r7, #4]
 13743 0010 02F58062 		add	r2, r2, #1024
 13744 0014 1288     		ldrh	r2, [r2, #0]	@ movhi
 13745 0016 92B2     		uxth	r2, r2
 13746 0018 22F00402 		bic	r2, r2, #4
 13747 001c 92B2     		uxth	r2, r2
 13748 001e 1A80     		strh	r2, [r3, #0]	@ movhi
3617:/home/cuil/workspace/arm/lm3s811/TI_Stellaris/driverlib/usb.c **** }
 13749              		.loc 1 3617 0
 13750 0020 07F10C07 		add	r7, r7, #12
 13751 0024 BD46     		mov	sp, r7
 13752 0026 80BC     		pop	{r7}
 13753 0028 7047     		bx	lr
 13754              		.cfi_endproc
 13755              	.LFE53:
 13757 002a 00BF     		.section	.text.USBFrameNumberGet,"ax",%progbits
 13758              		.align	2
 13759              		.global	USBFrameNumberGet
 13760              		.thumb
 13761              		.thumb_func
 13763              	USBFrameNumberGet:
 13764              	.LFB54:
3618:/home/cuil/workspace/arm/lm3s811/TI_Stellaris/driverlib/usb.c **** 
3619:/home/cuil/workspace/arm/lm3s811/TI_Stellaris/driverlib/usb.c **** //*****************************************************************************
3620:/home/cuil/workspace/arm/lm3s811/TI_Stellaris/driverlib/usb.c **** //
3621:/home/cuil/workspace/arm/lm3s811/TI_Stellaris/driverlib/usb.c **** //! Get the current frame number.
3622:/home/cuil/workspace/arm/lm3s811/TI_Stellaris/driverlib/usb.c **** //!
3623:/home/cuil/workspace/arm/lm3s811/TI_Stellaris/driverlib/usb.c **** //! \param ulBase specifies the USB module base address.
3624:/home/cuil/workspace/arm/lm3s811/TI_Stellaris/driverlib/usb.c **** //!
3625:/home/cuil/workspace/arm/lm3s811/TI_Stellaris/driverlib/usb.c **** //! This function returns the last frame number received.
3626:/home/cuil/workspace/arm/lm3s811/TI_Stellaris/driverlib/usb.c **** //!
3627:/home/cuil/workspace/arm/lm3s811/TI_Stellaris/driverlib/usb.c **** //! \return The last frame number received.
3628:/home/cuil/workspace/arm/lm3s811/TI_Stellaris/driverlib/usb.c **** //
3629:/home/cuil/workspace/arm/lm3s811/TI_Stellaris/driverlib/usb.c **** //*****************************************************************************
3630:/home/cuil/workspace/arm/lm3s811/TI_Stellaris/driverlib/usb.c **** unsigned long
3631:/home/cuil/workspace/arm/lm3s811/TI_Stellaris/driverlib/usb.c **** USBFrameNumberGet(unsigned long ulBase)
3632:/home/cuil/workspace/arm/lm3s811/TI_Stellaris/driverlib/usb.c **** {
 13765              		.loc 1 3632 0
 13766              		.cfi_startproc
 13767              		@ args = 0, pretend = 0, frame = 8
 13768              		@ frame_needed = 1, uses_anonymous_args = 0
 13769              		@ link register save eliminated.
 13770 0000 80B4     		push	{r7}
 13771              	.LCFI162:
 13772              		.cfi_def_cfa_offset 4
 13773 0002 83B0     		sub	sp, sp, #12
 13774              	.LCFI163:
 13775              		.cfi_def_cfa_offset 16
 13776 0004 00AF     		add	r7, sp, #0
 13777              		.cfi_offset 7, -4
 13778              	.LCFI164:
 13779              		.cfi_def_cfa_register 7
 13780 0006 7860     		str	r0, [r7, #4]
3633:/home/cuil/workspace/arm/lm3s811/TI_Stellaris/driverlib/usb.c ****     //
3634:/home/cuil/workspace/arm/lm3s811/TI_Stellaris/driverlib/usb.c ****     // Check the arguments.
3635:/home/cuil/workspace/arm/lm3s811/TI_Stellaris/driverlib/usb.c ****     //
3636:/home/cuil/workspace/arm/lm3s811/TI_Stellaris/driverlib/usb.c ****     ASSERT(ulBase == USB0_BASE);
3637:/home/cuil/workspace/arm/lm3s811/TI_Stellaris/driverlib/usb.c **** 
3638:/home/cuil/workspace/arm/lm3s811/TI_Stellaris/driverlib/usb.c ****     //
3639:/home/cuil/workspace/arm/lm3s811/TI_Stellaris/driverlib/usb.c ****     // Return the most recent frame number.
3640:/home/cuil/workspace/arm/lm3s811/TI_Stellaris/driverlib/usb.c ****     //
3641:/home/cuil/workspace/arm/lm3s811/TI_Stellaris/driverlib/usb.c ****     return(HWREGH(ulBase + USB_O_FRAME));
 13781              		.loc 1 3641 0
 13782 0008 7B68     		ldr	r3, [r7, #4]
 13783 000a 03F10C03 		add	r3, r3, #12
 13784 000e 1B88     		ldrh	r3, [r3, #0]	@ movhi
 13785 0010 9BB2     		uxth	r3, r3
3642:/home/cuil/workspace/arm/lm3s811/TI_Stellaris/driverlib/usb.c **** }
 13786              		.loc 1 3642 0
 13787 0012 1846     		mov	r0, r3
 13788 0014 07F10C07 		add	r7, r7, #12
 13789 0018 BD46     		mov	sp, r7
 13790 001a 80BC     		pop	{r7}
 13791 001c 7047     		bx	lr
 13792              		.cfi_endproc
 13793              	.LFE54:
 13795 001e 00BF     		.section	.text.USBOTGSessionRequest,"ax",%progbits
 13796              		.align	2
 13797              		.global	USBOTGSessionRequest
 13798              		.thumb
 13799              		.thumb_func
 13801              	USBOTGSessionRequest:
 13802              	.LFB55:
3643:/home/cuil/workspace/arm/lm3s811/TI_Stellaris/driverlib/usb.c **** 
3644:/home/cuil/workspace/arm/lm3s811/TI_Stellaris/driverlib/usb.c **** //*****************************************************************************
3645:/home/cuil/workspace/arm/lm3s811/TI_Stellaris/driverlib/usb.c **** //
3646:/home/cuil/workspace/arm/lm3s811/TI_Stellaris/driverlib/usb.c **** //! Starts or ends a session.
3647:/home/cuil/workspace/arm/lm3s811/TI_Stellaris/driverlib/usb.c **** //!
3648:/home/cuil/workspace/arm/lm3s811/TI_Stellaris/driverlib/usb.c **** //! \param ulBase specifies the USB module base address.
3649:/home/cuil/workspace/arm/lm3s811/TI_Stellaris/driverlib/usb.c **** //! \param bStart specifies if this call starts or ends a session.
3650:/home/cuil/workspace/arm/lm3s811/TI_Stellaris/driverlib/usb.c **** //!
3651:/home/cuil/workspace/arm/lm3s811/TI_Stellaris/driverlib/usb.c **** //! This function is used in OTG mode to start a session request or end a
3652:/home/cuil/workspace/arm/lm3s811/TI_Stellaris/driverlib/usb.c **** //! session.  If the \e bStart parameter is set to \b true, then this function
3653:/home/cuil/workspace/arm/lm3s811/TI_Stellaris/driverlib/usb.c **** //! starts a session and if it is \b false it ends a session.
3654:/home/cuil/workspace/arm/lm3s811/TI_Stellaris/driverlib/usb.c **** //!
3655:/home/cuil/workspace/arm/lm3s811/TI_Stellaris/driverlib/usb.c **** //! \return None.
3656:/home/cuil/workspace/arm/lm3s811/TI_Stellaris/driverlib/usb.c **** //
3657:/home/cuil/workspace/arm/lm3s811/TI_Stellaris/driverlib/usb.c **** //*****************************************************************************
3658:/home/cuil/workspace/arm/lm3s811/TI_Stellaris/driverlib/usb.c **** void
3659:/home/cuil/workspace/arm/lm3s811/TI_Stellaris/driverlib/usb.c **** USBOTGSessionRequest(unsigned long ulBase, tBoolean bStart)
3660:/home/cuil/workspace/arm/lm3s811/TI_Stellaris/driverlib/usb.c **** {
 13803              		.loc 1 3660 0
 13804              		.cfi_startproc
 13805              		@ args = 0, pretend = 0, frame = 8
 13806              		@ frame_needed = 1, uses_anonymous_args = 0
 13807              		@ link register save eliminated.
 13808 0000 80B4     		push	{r7}
 13809              	.LCFI165:
 13810              		.cfi_def_cfa_offset 4
 13811 0002 83B0     		sub	sp, sp, #12
 13812              	.LCFI166:
 13813              		.cfi_def_cfa_offset 16
 13814 0004 00AF     		add	r7, sp, #0
 13815              		.cfi_offset 7, -4
 13816              	.LCFI167:
 13817              		.cfi_def_cfa_register 7
 13818 0006 7860     		str	r0, [r7, #4]
 13819 0008 0B46     		mov	r3, r1
 13820 000a FB70     		strb	r3, [r7, #3]
3661:/home/cuil/workspace/arm/lm3s811/TI_Stellaris/driverlib/usb.c ****     //
3662:/home/cuil/workspace/arm/lm3s811/TI_Stellaris/driverlib/usb.c ****     // Check the arguments.
3663:/home/cuil/workspace/arm/lm3s811/TI_Stellaris/driverlib/usb.c ****     //
3664:/home/cuil/workspace/arm/lm3s811/TI_Stellaris/driverlib/usb.c ****     ASSERT(ulBase == USB0_BASE);
3665:/home/cuil/workspace/arm/lm3s811/TI_Stellaris/driverlib/usb.c **** 
3666:/home/cuil/workspace/arm/lm3s811/TI_Stellaris/driverlib/usb.c ****     //
3667:/home/cuil/workspace/arm/lm3s811/TI_Stellaris/driverlib/usb.c ****     // Start or end the session as directed.
3668:/home/cuil/workspace/arm/lm3s811/TI_Stellaris/driverlib/usb.c ****     //
3669:/home/cuil/workspace/arm/lm3s811/TI_Stellaris/driverlib/usb.c ****     if(bStart)
 13821              		.loc 1 3669 0
 13822 000c FB78     		ldrb	r3, [r7, #3]	@ zero_extendqisi2
 13823 000e 002B     		cmp	r3, #0
 13824 0010 0CD0     		beq	.L210
3670:/home/cuil/workspace/arm/lm3s811/TI_Stellaris/driverlib/usb.c ****     {
3671:/home/cuil/workspace/arm/lm3s811/TI_Stellaris/driverlib/usb.c ****         HWREGB(ulBase + USB_O_DEVCTL) |= USB_DEVCTL_SESSION;
 13825              		.loc 1 3671 0
 13826 0012 7B68     		ldr	r3, [r7, #4]
 13827 0014 03F16003 		add	r3, r3, #96
 13828 0018 7A68     		ldr	r2, [r7, #4]
 13829 001a 02F16002 		add	r2, r2, #96
 13830 001e 1278     		ldrb	r2, [r2, #0]
 13831 0020 D2B2     		uxtb	r2, r2
 13832 0022 42F00102 		orr	r2, r2, #1
 13833 0026 D2B2     		uxtb	r2, r2
 13834 0028 1A70     		strb	r2, [r3, #0]
 13835 002a 0BE0     		b	.L209
 13836              	.L210:
3672:/home/cuil/workspace/arm/lm3s811/TI_Stellaris/driverlib/usb.c ****     }
3673:/home/cuil/workspace/arm/lm3s811/TI_Stellaris/driverlib/usb.c ****     else
3674:/home/cuil/workspace/arm/lm3s811/TI_Stellaris/driverlib/usb.c ****     {
3675:/home/cuil/workspace/arm/lm3s811/TI_Stellaris/driverlib/usb.c ****         HWREGB(ulBase + USB_O_DEVCTL) &= ~USB_DEVCTL_SESSION;
 13837              		.loc 1 3675 0
 13838 002c 7B68     		ldr	r3, [r7, #4]
 13839 002e 03F16003 		add	r3, r3, #96
 13840 0032 7A68     		ldr	r2, [r7, #4]
 13841 0034 02F16002 		add	r2, r2, #96
 13842 0038 1278     		ldrb	r2, [r2, #0]
 13843 003a D2B2     		uxtb	r2, r2
 13844 003c 22F00102 		bic	r2, r2, #1
 13845 0040 D2B2     		uxtb	r2, r2
 13846 0042 1A70     		strb	r2, [r3, #0]
 13847              	.L209:
3676:/home/cuil/workspace/arm/lm3s811/TI_Stellaris/driverlib/usb.c ****     }
3677:/home/cuil/workspace/arm/lm3s811/TI_Stellaris/driverlib/usb.c **** }
 13848              		.loc 1 3677 0
 13849 0044 07F10C07 		add	r7, r7, #12
 13850 0048 BD46     		mov	sp, r7
 13851 004a 80BC     		pop	{r7}
 13852 004c 7047     		bx	lr
 13853              		.cfi_endproc
 13854              	.LFE55:
 13856 004e 00BF     		.section	.text.USBFIFOAddrGet,"ax",%progbits
 13857              		.align	2
 13858              		.global	USBFIFOAddrGet
 13859              		.thumb
 13860              		.thumb_func
 13862              	USBFIFOAddrGet:
 13863              	.LFB56:
3678:/home/cuil/workspace/arm/lm3s811/TI_Stellaris/driverlib/usb.c **** 
3679:/home/cuil/workspace/arm/lm3s811/TI_Stellaris/driverlib/usb.c **** //*****************************************************************************
3680:/home/cuil/workspace/arm/lm3s811/TI_Stellaris/driverlib/usb.c **** //
3681:/home/cuil/workspace/arm/lm3s811/TI_Stellaris/driverlib/usb.c **** //! Returns the absolute FIFO address for a given endpoint.
3682:/home/cuil/workspace/arm/lm3s811/TI_Stellaris/driverlib/usb.c **** //!
3683:/home/cuil/workspace/arm/lm3s811/TI_Stellaris/driverlib/usb.c **** //! \param ulBase specifies the USB module base address.
3684:/home/cuil/workspace/arm/lm3s811/TI_Stellaris/driverlib/usb.c **** //! \param ulEndpoint specifies which endpoint's FIFO address to return.
3685:/home/cuil/workspace/arm/lm3s811/TI_Stellaris/driverlib/usb.c **** //!
3686:/home/cuil/workspace/arm/lm3s811/TI_Stellaris/driverlib/usb.c **** //! This function returns the actual physical address of the FIFO.  This 
3687:/home/cuil/workspace/arm/lm3s811/TI_Stellaris/driverlib/usb.c **** //! address is needed when the USB is going to be used with the uDMA 
3688:/home/cuil/workspace/arm/lm3s811/TI_Stellaris/driverlib/usb.c **** //! controller and the source or destination address must be set to the 
3689:/home/cuil/workspace/arm/lm3s811/TI_Stellaris/driverlib/usb.c **** //! physical FIFO address for a given endpoint.
3690:/home/cuil/workspace/arm/lm3s811/TI_Stellaris/driverlib/usb.c **** //!
3691:/home/cuil/workspace/arm/lm3s811/TI_Stellaris/driverlib/usb.c **** //! \return None.
3692:/home/cuil/workspace/arm/lm3s811/TI_Stellaris/driverlib/usb.c **** //
3693:/home/cuil/workspace/arm/lm3s811/TI_Stellaris/driverlib/usb.c **** //*****************************************************************************
3694:/home/cuil/workspace/arm/lm3s811/TI_Stellaris/driverlib/usb.c **** unsigned long
3695:/home/cuil/workspace/arm/lm3s811/TI_Stellaris/driverlib/usb.c **** USBFIFOAddrGet(unsigned long ulBase, unsigned long ulEndpoint)
3696:/home/cuil/workspace/arm/lm3s811/TI_Stellaris/driverlib/usb.c **** {
 13864              		.loc 1 3696 0
 13865              		.cfi_startproc
 13866              		@ args = 0, pretend = 0, frame = 8
 13867              		@ frame_needed = 1, uses_anonymous_args = 0
 13868              		@ link register save eliminated.
 13869 0000 80B4     		push	{r7}
 13870              	.LCFI168:
 13871              		.cfi_def_cfa_offset 4
 13872 0002 83B0     		sub	sp, sp, #12
 13873              	.LCFI169:
 13874              		.cfi_def_cfa_offset 16
 13875 0004 00AF     		add	r7, sp, #0
 13876              		.cfi_offset 7, -4
 13877              	.LCFI170:
 13878              		.cfi_def_cfa_register 7
 13879 0006 7860     		str	r0, [r7, #4]
 13880 0008 3960     		str	r1, [r7, #0]
3697:/home/cuil/workspace/arm/lm3s811/TI_Stellaris/driverlib/usb.c ****     //
3698:/home/cuil/workspace/arm/lm3s811/TI_Stellaris/driverlib/usb.c ****     // Return the FIFO address for this endpoint.
3699:/home/cuil/workspace/arm/lm3s811/TI_Stellaris/driverlib/usb.c ****     //
3700:/home/cuil/workspace/arm/lm3s811/TI_Stellaris/driverlib/usb.c ****     return(ulBase + USB_O_FIFO0 + (ulEndpoint >> 2));
 13881              		.loc 1 3700 0
 13882 000a 3B68     		ldr	r3, [r7, #0]
 13883 000c 4FEA9302 		lsr	r2, r3, #2
 13884 0010 7B68     		ldr	r3, [r7, #4]
 13885 0012 D318     		adds	r3, r2, r3
 13886 0014 03F12003 		add	r3, r3, #32
3701:/home/cuil/workspace/arm/lm3s811/TI_Stellaris/driverlib/usb.c **** }
 13887              		.loc 1 3701 0
 13888 0018 1846     		mov	r0, r3
 13889 001a 07F10C07 		add	r7, r7, #12
 13890 001e BD46     		mov	sp, r7
 13891 0020 80BC     		pop	{r7}
 13892 0022 7047     		bx	lr
 13893              		.cfi_endproc
 13894              	.LFE56:
 13896              		.section	.text.USBModeGet,"ax",%progbits
 13897              		.align	2
 13898              		.global	USBModeGet
 13899              		.thumb
 13900              		.thumb_func
 13902              	USBModeGet:
 13903              	.LFB57:
3702:/home/cuil/workspace/arm/lm3s811/TI_Stellaris/driverlib/usb.c **** 
3703:/home/cuil/workspace/arm/lm3s811/TI_Stellaris/driverlib/usb.c **** //*****************************************************************************
3704:/home/cuil/workspace/arm/lm3s811/TI_Stellaris/driverlib/usb.c **** //
3705:/home/cuil/workspace/arm/lm3s811/TI_Stellaris/driverlib/usb.c **** //! Returns the current operating mode of the controller.
3706:/home/cuil/workspace/arm/lm3s811/TI_Stellaris/driverlib/usb.c **** //!
3707:/home/cuil/workspace/arm/lm3s811/TI_Stellaris/driverlib/usb.c **** //! \param ulBase specifies the USB module base address.
3708:/home/cuil/workspace/arm/lm3s811/TI_Stellaris/driverlib/usb.c **** //!
3709:/home/cuil/workspace/arm/lm3s811/TI_Stellaris/driverlib/usb.c **** //! This function returns the current operating mode on USB controllers with
3710:/home/cuil/workspace/arm/lm3s811/TI_Stellaris/driverlib/usb.c **** //! OTG or Dual mode functionality.
3711:/home/cuil/workspace/arm/lm3s811/TI_Stellaris/driverlib/usb.c **** //!
3712:/home/cuil/workspace/arm/lm3s811/TI_Stellaris/driverlib/usb.c **** //! For OTG controllers:
3713:/home/cuil/workspace/arm/lm3s811/TI_Stellaris/driverlib/usb.c **** //!
3714:/home/cuil/workspace/arm/lm3s811/TI_Stellaris/driverlib/usb.c **** //! The function returns one of the following values on OTG controllers:
3715:/home/cuil/workspace/arm/lm3s811/TI_Stellaris/driverlib/usb.c **** //! \b USB_OTG_MODE_ASIDE_HOST, \b USB_OTG_MODE_ASIDE_DEV,
3716:/home/cuil/workspace/arm/lm3s811/TI_Stellaris/driverlib/usb.c **** //! \b USB_OTG_MODE_BSIDE_HOST, \b USB_OTG_MODE_BSIDE_DEV,
3717:/home/cuil/workspace/arm/lm3s811/TI_Stellaris/driverlib/usb.c **** //! \b USB_OTG_MODE_NONE.
3718:/home/cuil/workspace/arm/lm3s811/TI_Stellaris/driverlib/usb.c **** //!
3719:/home/cuil/workspace/arm/lm3s811/TI_Stellaris/driverlib/usb.c **** //! \b USB_OTG_MODE_ASIDE_HOST indicates that the controller is in host mode
3720:/home/cuil/workspace/arm/lm3s811/TI_Stellaris/driverlib/usb.c **** //! on the A-side of the cable.
3721:/home/cuil/workspace/arm/lm3s811/TI_Stellaris/driverlib/usb.c **** //!
3722:/home/cuil/workspace/arm/lm3s811/TI_Stellaris/driverlib/usb.c **** //! \b USB_OTG_MODE_ASIDE_DEV indicates that the controller is in device mode
3723:/home/cuil/workspace/arm/lm3s811/TI_Stellaris/driverlib/usb.c **** //! on the A-side of the cable.
3724:/home/cuil/workspace/arm/lm3s811/TI_Stellaris/driverlib/usb.c **** //!
3725:/home/cuil/workspace/arm/lm3s811/TI_Stellaris/driverlib/usb.c **** //! \b USB_OTG_MODE_BSIDE_HOST indicates that the controller is in host mode
3726:/home/cuil/workspace/arm/lm3s811/TI_Stellaris/driverlib/usb.c **** //! on the B-side of the cable.
3727:/home/cuil/workspace/arm/lm3s811/TI_Stellaris/driverlib/usb.c **** //!
3728:/home/cuil/workspace/arm/lm3s811/TI_Stellaris/driverlib/usb.c **** //! \b USB_OTG_MODE_BSIDE_DEV indicates that the controller is in device mode
3729:/home/cuil/workspace/arm/lm3s811/TI_Stellaris/driverlib/usb.c **** //! on the B-side of the cable.  If an OTG session request is started with no
3730:/home/cuil/workspace/arm/lm3s811/TI_Stellaris/driverlib/usb.c **** //! cable in place, this mode is the default.
3731:/home/cuil/workspace/arm/lm3s811/TI_Stellaris/driverlib/usb.c **** //!
3732:/home/cuil/workspace/arm/lm3s811/TI_Stellaris/driverlib/usb.c **** //! \b USB_OTG_MODE_NONE indicates that the controller is not attempting to
3733:/home/cuil/workspace/arm/lm3s811/TI_Stellaris/driverlib/usb.c **** //! determine its role in the system.
3734:/home/cuil/workspace/arm/lm3s811/TI_Stellaris/driverlib/usb.c **** //!
3735:/home/cuil/workspace/arm/lm3s811/TI_Stellaris/driverlib/usb.c **** //! For Dual Mode controllers:
3736:/home/cuil/workspace/arm/lm3s811/TI_Stellaris/driverlib/usb.c **** //!
3737:/home/cuil/workspace/arm/lm3s811/TI_Stellaris/driverlib/usb.c **** //! The function returns one of the following values:
3738:/home/cuil/workspace/arm/lm3s811/TI_Stellaris/driverlib/usb.c **** //! \b USB_DUAL_MODE_HOST, \b USB_DUAL_MODE_DEVICE, or
3739:/home/cuil/workspace/arm/lm3s811/TI_Stellaris/driverlib/usb.c **** //! \b USB_DUAL_MODE_NONE.
3740:/home/cuil/workspace/arm/lm3s811/TI_Stellaris/driverlib/usb.c **** //!
3741:/home/cuil/workspace/arm/lm3s811/TI_Stellaris/driverlib/usb.c **** //! \b USB_DUAL_MODE_HOST indicates that the controller is acting as a host.
3742:/home/cuil/workspace/arm/lm3s811/TI_Stellaris/driverlib/usb.c **** //!
3743:/home/cuil/workspace/arm/lm3s811/TI_Stellaris/driverlib/usb.c **** //! \b USB_DUAL_MODE_DEVICE indicates that the controller acting as a device.
3744:/home/cuil/workspace/arm/lm3s811/TI_Stellaris/driverlib/usb.c **** //!
3745:/home/cuil/workspace/arm/lm3s811/TI_Stellaris/driverlib/usb.c **** //! \b USB_DUAL_MODE_NONE indicates that the controller is not active as
3746:/home/cuil/workspace/arm/lm3s811/TI_Stellaris/driverlib/usb.c **** //! either a host or device.
3747:/home/cuil/workspace/arm/lm3s811/TI_Stellaris/driverlib/usb.c **** //!
3748:/home/cuil/workspace/arm/lm3s811/TI_Stellaris/driverlib/usb.c **** //! \return Returns \b USB_OTG_MODE_ASIDE_HOST, \b USB_OTG_MODE_ASIDE_DEV,
3749:/home/cuil/workspace/arm/lm3s811/TI_Stellaris/driverlib/usb.c **** //! \b USB_OTG_MODE_BSIDE_HOST, \b USB_OTG_MODE_BSIDE_DEV,
3750:/home/cuil/workspace/arm/lm3s811/TI_Stellaris/driverlib/usb.c **** //! \b USB_OTG_MODE_NONE, \b USB_DUAL_MODE_HOST, \b USB_DUAL_MODE_DEVICE, or
3751:/home/cuil/workspace/arm/lm3s811/TI_Stellaris/driverlib/usb.c **** //! \b USB_DUAL_MODE_NONE.
3752:/home/cuil/workspace/arm/lm3s811/TI_Stellaris/driverlib/usb.c **** //
3753:/home/cuil/workspace/arm/lm3s811/TI_Stellaris/driverlib/usb.c **** //*****************************************************************************
3754:/home/cuil/workspace/arm/lm3s811/TI_Stellaris/driverlib/usb.c **** unsigned long
3755:/home/cuil/workspace/arm/lm3s811/TI_Stellaris/driverlib/usb.c **** USBModeGet(unsigned long ulBase)
3756:/home/cuil/workspace/arm/lm3s811/TI_Stellaris/driverlib/usb.c **** {
 13904              		.loc 1 3756 0
 13905              		.cfi_startproc
 13906              		@ args = 0, pretend = 0, frame = 8
 13907              		@ frame_needed = 1, uses_anonymous_args = 0
 13908              		@ link register save eliminated.
 13909 0000 80B4     		push	{r7}
 13910              	.LCFI171:
 13911              		.cfi_def_cfa_offset 4
 13912 0002 83B0     		sub	sp, sp, #12
 13913              	.LCFI172:
 13914              		.cfi_def_cfa_offset 16
 13915 0004 00AF     		add	r7, sp, #0
 13916              		.cfi_offset 7, -4
 13917              	.LCFI173:
 13918              		.cfi_def_cfa_register 7
 13919 0006 7860     		str	r0, [r7, #4]
3757:/home/cuil/workspace/arm/lm3s811/TI_Stellaris/driverlib/usb.c ****     //
3758:/home/cuil/workspace/arm/lm3s811/TI_Stellaris/driverlib/usb.c ****     // Check the arguments.
3759:/home/cuil/workspace/arm/lm3s811/TI_Stellaris/driverlib/usb.c ****     //
3760:/home/cuil/workspace/arm/lm3s811/TI_Stellaris/driverlib/usb.c ****     ASSERT(ulBase == USB0_BASE);
3761:/home/cuil/workspace/arm/lm3s811/TI_Stellaris/driverlib/usb.c **** 
3762:/home/cuil/workspace/arm/lm3s811/TI_Stellaris/driverlib/usb.c ****     //
3763:/home/cuil/workspace/arm/lm3s811/TI_Stellaris/driverlib/usb.c ****     // Checks the current mode in the USB_O_DEVCTL and returns the current
3764:/home/cuil/workspace/arm/lm3s811/TI_Stellaris/driverlib/usb.c ****     // mode.
3765:/home/cuil/workspace/arm/lm3s811/TI_Stellaris/driverlib/usb.c ****     //
3766:/home/cuil/workspace/arm/lm3s811/TI_Stellaris/driverlib/usb.c ****     // USB_OTG_MODE_ASIDE_HOST:  USB_DEVCTL_HOST | USB_DEVCTL_SESSION
3767:/home/cuil/workspace/arm/lm3s811/TI_Stellaris/driverlib/usb.c ****     // USB_OTG_MODE_ASIDE_DEV:   USB_DEVCTL_SESSION
3768:/home/cuil/workspace/arm/lm3s811/TI_Stellaris/driverlib/usb.c ****     // USB_OTG_MODE_BSIDE_HOST:  USB_DEVCTL_DEV | USB_DEVCTL_SESSION |
3769:/home/cuil/workspace/arm/lm3s811/TI_Stellaris/driverlib/usb.c ****     //                           USB_DEVCTL_HOST
3770:/home/cuil/workspace/arm/lm3s811/TI_Stellaris/driverlib/usb.c ****     // USB_OTG_MODE_BSIDE_DEV:   USB_DEVCTL_DEV | USB_DEVCTL_SESSION
3771:/home/cuil/workspace/arm/lm3s811/TI_Stellaris/driverlib/usb.c ****     // USB_OTG_MODE_NONE:        USB_DEVCTL_DEV
3772:/home/cuil/workspace/arm/lm3s811/TI_Stellaris/driverlib/usb.c ****     //
3773:/home/cuil/workspace/arm/lm3s811/TI_Stellaris/driverlib/usb.c ****     return(HWREGB(ulBase + USB_O_DEVCTL) &
 13920              		.loc 1 3773 0
 13921 0008 7B68     		ldr	r3, [r7, #4]
 13922 000a 03F16003 		add	r3, r3, #96
 13923 000e 1B78     		ldrb	r3, [r3, #0]
 13924 0010 DBB2     		uxtb	r3, r3
 13925 0012 03F09D03 		and	r3, r3, #157
3774:/home/cuil/workspace/arm/lm3s811/TI_Stellaris/driverlib/usb.c ****            (USB_DEVCTL_DEV | USB_DEVCTL_HOST | USB_DEVCTL_SESSION |
3775:/home/cuil/workspace/arm/lm3s811/TI_Stellaris/driverlib/usb.c ****             USB_DEVCTL_VBUS_M));
3776:/home/cuil/workspace/arm/lm3s811/TI_Stellaris/driverlib/usb.c **** }
 13926              		.loc 1 3776 0
 13927 0016 1846     		mov	r0, r3
 13928 0018 07F10C07 		add	r7, r7, #12
 13929 001c BD46     		mov	sp, r7
 13930 001e 80BC     		pop	{r7}
 13931 0020 7047     		bx	lr
 13932              		.cfi_endproc
 13933              	.LFE57:
 13935 0022 00BF     		.section	.text.USBEndpointDMAChannel,"ax",%progbits
 13936              		.align	2
 13937              		.global	USBEndpointDMAChannel
 13938              		.thumb
 13939              		.thumb_func
 13941              	USBEndpointDMAChannel:
 13942              	.LFB58:
3777:/home/cuil/workspace/arm/lm3s811/TI_Stellaris/driverlib/usb.c **** 
3778:/home/cuil/workspace/arm/lm3s811/TI_Stellaris/driverlib/usb.c **** //*****************************************************************************
3779:/home/cuil/workspace/arm/lm3s811/TI_Stellaris/driverlib/usb.c **** //
3780:/home/cuil/workspace/arm/lm3s811/TI_Stellaris/driverlib/usb.c **** //! Sets the DMA channel to use for a given endpoint.
3781:/home/cuil/workspace/arm/lm3s811/TI_Stellaris/driverlib/usb.c **** //!
3782:/home/cuil/workspace/arm/lm3s811/TI_Stellaris/driverlib/usb.c **** //! \param ulBase specifies the USB module base address.
3783:/home/cuil/workspace/arm/lm3s811/TI_Stellaris/driverlib/usb.c **** //! \param ulEndpoint specifies which endpoint's FIFO address to return.
3784:/home/cuil/workspace/arm/lm3s811/TI_Stellaris/driverlib/usb.c **** //! \param ulChannel specifies which DMA channel to use for which endpoint.
3785:/home/cuil/workspace/arm/lm3s811/TI_Stellaris/driverlib/usb.c **** //!
3786:/home/cuil/workspace/arm/lm3s811/TI_Stellaris/driverlib/usb.c **** //! This function is used to configure which DMA channel to use with a given
3787:/home/cuil/workspace/arm/lm3s811/TI_Stellaris/driverlib/usb.c **** //! endpoint.  Receive DMA channels can only be used with receive endpoints
3788:/home/cuil/workspace/arm/lm3s811/TI_Stellaris/driverlib/usb.c **** //! and transmit DMA channels can only be used with transmit endpoints.  As a
3789:/home/cuil/workspace/arm/lm3s811/TI_Stellaris/driverlib/usb.c **** //! result, the 3 receive and 3 transmit DMA channels can be mapped to any
3790:/home/cuil/workspace/arm/lm3s811/TI_Stellaris/driverlib/usb.c **** //! endpoint other than 0.  The values that should be passed into the
3791:/home/cuil/workspace/arm/lm3s811/TI_Stellaris/driverlib/usb.c **** //! \e ulChannel value are the UDMA_CHANNEL_USBEP* values defined in udma.h.
3792:/home/cuil/workspace/arm/lm3s811/TI_Stellaris/driverlib/usb.c **** //!
3793:/home/cuil/workspace/arm/lm3s811/TI_Stellaris/driverlib/usb.c **** //! \note This function only has an effect on microcontrollers that have the
3794:/home/cuil/workspace/arm/lm3s811/TI_Stellaris/driverlib/usb.c **** //! ability to change the DMA channel for an endpoint.  Calling this function
3795:/home/cuil/workspace/arm/lm3s811/TI_Stellaris/driverlib/usb.c **** //! on other devices has no effect.
3796:/home/cuil/workspace/arm/lm3s811/TI_Stellaris/driverlib/usb.c **** //!
3797:/home/cuil/workspace/arm/lm3s811/TI_Stellaris/driverlib/usb.c **** //! \return None.
3798:/home/cuil/workspace/arm/lm3s811/TI_Stellaris/driverlib/usb.c **** //!
3799:/home/cuil/workspace/arm/lm3s811/TI_Stellaris/driverlib/usb.c **** //*****************************************************************************
3800:/home/cuil/workspace/arm/lm3s811/TI_Stellaris/driverlib/usb.c **** void
3801:/home/cuil/workspace/arm/lm3s811/TI_Stellaris/driverlib/usb.c **** USBEndpointDMAChannel(unsigned long ulBase, unsigned long ulEndpoint,
3802:/home/cuil/workspace/arm/lm3s811/TI_Stellaris/driverlib/usb.c ****                       unsigned long ulChannel)
3803:/home/cuil/workspace/arm/lm3s811/TI_Stellaris/driverlib/usb.c **** {
 13943              		.loc 1 3803 0
 13944              		.cfi_startproc
 13945              		@ args = 0, pretend = 0, frame = 24
 13946              		@ frame_needed = 1, uses_anonymous_args = 0
 13947              		@ link register save eliminated.
 13948 0000 80B4     		push	{r7}
 13949              	.LCFI174:
 13950              		.cfi_def_cfa_offset 4
 13951 0002 87B0     		sub	sp, sp, #28
 13952              	.LCFI175:
 13953              		.cfi_def_cfa_offset 32
 13954 0004 00AF     		add	r7, sp, #0
 13955              		.cfi_offset 7, -4
 13956              	.LCFI176:
 13957              		.cfi_def_cfa_register 7
 13958 0006 F860     		str	r0, [r7, #12]
 13959 0008 B960     		str	r1, [r7, #8]
 13960 000a 7A60     		str	r2, [r7, #4]
3804:/home/cuil/workspace/arm/lm3s811/TI_Stellaris/driverlib/usb.c ****     unsigned long ulMask;
3805:/home/cuil/workspace/arm/lm3s811/TI_Stellaris/driverlib/usb.c **** 
3806:/home/cuil/workspace/arm/lm3s811/TI_Stellaris/driverlib/usb.c ****     //
3807:/home/cuil/workspace/arm/lm3s811/TI_Stellaris/driverlib/usb.c ****     // Check the arguments.
3808:/home/cuil/workspace/arm/lm3s811/TI_Stellaris/driverlib/usb.c ****     //
3809:/home/cuil/workspace/arm/lm3s811/TI_Stellaris/driverlib/usb.c ****     ASSERT(ulBase == USB0_BASE);
3810:/home/cuil/workspace/arm/lm3s811/TI_Stellaris/driverlib/usb.c ****     ASSERT((ulEndpoint == USB_EP_1) || (ulEndpoint == USB_EP_2) ||
3811:/home/cuil/workspace/arm/lm3s811/TI_Stellaris/driverlib/usb.c ****            (ulEndpoint == USB_EP_3) || (ulEndpoint == USB_EP_4) ||
3812:/home/cuil/workspace/arm/lm3s811/TI_Stellaris/driverlib/usb.c ****            (ulEndpoint == USB_EP_5) || (ulEndpoint == USB_EP_6) ||
3813:/home/cuil/workspace/arm/lm3s811/TI_Stellaris/driverlib/usb.c ****            (ulEndpoint == USB_EP_7) || (ulEndpoint == USB_EP_8) ||
3814:/home/cuil/workspace/arm/lm3s811/TI_Stellaris/driverlib/usb.c ****            (ulEndpoint == USB_EP_9) || (ulEndpoint == USB_EP_10) ||
3815:/home/cuil/workspace/arm/lm3s811/TI_Stellaris/driverlib/usb.c ****            (ulEndpoint == USB_EP_11) || (ulEndpoint == USB_EP_12) ||
3816:/home/cuil/workspace/arm/lm3s811/TI_Stellaris/driverlib/usb.c ****            (ulEndpoint == USB_EP_13) || (ulEndpoint == USB_EP_14) ||
3817:/home/cuil/workspace/arm/lm3s811/TI_Stellaris/driverlib/usb.c ****            (ulEndpoint == USB_EP_15));
3818:/home/cuil/workspace/arm/lm3s811/TI_Stellaris/driverlib/usb.c ****     ASSERT(ulChannel <= UDMA_CHANNEL_USBEP3TX);
3819:/home/cuil/workspace/arm/lm3s811/TI_Stellaris/driverlib/usb.c **** 
3820:/home/cuil/workspace/arm/lm3s811/TI_Stellaris/driverlib/usb.c ****     //
3821:/home/cuil/workspace/arm/lm3s811/TI_Stellaris/driverlib/usb.c ****     // The input select mask must be shifted into the correct position
3822:/home/cuil/workspace/arm/lm3s811/TI_Stellaris/driverlib/usb.c ****     // based on the channel.
3823:/home/cuil/workspace/arm/lm3s811/TI_Stellaris/driverlib/usb.c ****     //
3824:/home/cuil/workspace/arm/lm3s811/TI_Stellaris/driverlib/usb.c ****     ulMask = 0xf << (ulChannel * 4);
 13961              		.loc 1 3824 0
 13962 000c 7B68     		ldr	r3, [r7, #4]
 13963 000e 4FEA8303 		lsl	r3, r3, #2
 13964 0012 4FF00F02 		mov	r2, #15
 13965 0016 02FA03F3 		lsl	r3, r2, r3
 13966 001a 7B61     		str	r3, [r7, #20]
3825:/home/cuil/workspace/arm/lm3s811/TI_Stellaris/driverlib/usb.c **** 
3826:/home/cuil/workspace/arm/lm3s811/TI_Stellaris/driverlib/usb.c ****     //
3827:/home/cuil/workspace/arm/lm3s811/TI_Stellaris/driverlib/usb.c ****     // Clear out the current selection for the channel.
3828:/home/cuil/workspace/arm/lm3s811/TI_Stellaris/driverlib/usb.c ****     //
3829:/home/cuil/workspace/arm/lm3s811/TI_Stellaris/driverlib/usb.c ****     ulMask = HWREG(ulBase + USB_O_DMASEL) & (~ulMask);
 13967              		.loc 1 3829 0
 13968 001c FB68     		ldr	r3, [r7, #12]
 13969 001e 03F58A63 		add	r3, r3, #1104
 13970 0022 1A68     		ldr	r2, [r3, #0]
 13971 0024 7B69     		ldr	r3, [r7, #20]
 13972 0026 6FEA0303 		mvn	r3, r3
 13973 002a 02EA0303 		and	r3, r2, r3
 13974 002e 7B61     		str	r3, [r7, #20]
3830:/home/cuil/workspace/arm/lm3s811/TI_Stellaris/driverlib/usb.c **** 
3831:/home/cuil/workspace/arm/lm3s811/TI_Stellaris/driverlib/usb.c ****     //
3832:/home/cuil/workspace/arm/lm3s811/TI_Stellaris/driverlib/usb.c ****     // The input select is now shifted into the correct position based on the
3833:/home/cuil/workspace/arm/lm3s811/TI_Stellaris/driverlib/usb.c ****     // channel.
3834:/home/cuil/workspace/arm/lm3s811/TI_Stellaris/driverlib/usb.c ****     //
3835:/home/cuil/workspace/arm/lm3s811/TI_Stellaris/driverlib/usb.c ****     ulMask |= (USB_EP_TO_INDEX(ulEndpoint)) << (ulChannel * 4);
 13975              		.loc 1 3835 0
 13976 0030 BB68     		ldr	r3, [r7, #8]
 13977 0032 4FEA1312 		lsr	r2, r3, #4
 13978 0036 7B68     		ldr	r3, [r7, #4]
 13979 0038 4FEA8303 		lsl	r3, r3, #2
 13980 003c 02FA03F3 		lsl	r3, r2, r3
 13981 0040 7A69     		ldr	r2, [r7, #20]
 13982 0042 42EA0303 		orr	r3, r2, r3
 13983 0046 7B61     		str	r3, [r7, #20]
3836:/home/cuil/workspace/arm/lm3s811/TI_Stellaris/driverlib/usb.c **** 
3837:/home/cuil/workspace/arm/lm3s811/TI_Stellaris/driverlib/usb.c ****     //
3838:/home/cuil/workspace/arm/lm3s811/TI_Stellaris/driverlib/usb.c ****     // Write the value out to the register.
3839:/home/cuil/workspace/arm/lm3s811/TI_Stellaris/driverlib/usb.c ****     //
3840:/home/cuil/workspace/arm/lm3s811/TI_Stellaris/driverlib/usb.c ****     HWREG(ulBase + USB_O_DMASEL) = ulMask;
 13984              		.loc 1 3840 0
 13985 0048 FB68     		ldr	r3, [r7, #12]
 13986 004a 03F58A63 		add	r3, r3, #1104
 13987 004e 7A69     		ldr	r2, [r7, #20]
 13988 0050 1A60     		str	r2, [r3, #0]
3841:/home/cuil/workspace/arm/lm3s811/TI_Stellaris/driverlib/usb.c **** }
 13989              		.loc 1 3841 0
 13990 0052 07F11C07 		add	r7, r7, #28
 13991 0056 BD46     		mov	sp, r7
 13992 0058 80BC     		pop	{r7}
 13993 005a 7047     		bx	lr
 13994              		.cfi_endproc
 13995              	.LFE58:
 13997              		.section	.text.USBHostMode,"ax",%progbits
 13998              		.align	2
 13999              		.global	USBHostMode
 14000              		.thumb
 14001              		.thumb_func
 14003              	USBHostMode:
 14004              	.LFB59:
3842:/home/cuil/workspace/arm/lm3s811/TI_Stellaris/driverlib/usb.c **** 
3843:/home/cuil/workspace/arm/lm3s811/TI_Stellaris/driverlib/usb.c **** //*****************************************************************************
3844:/home/cuil/workspace/arm/lm3s811/TI_Stellaris/driverlib/usb.c **** //
3845:/home/cuil/workspace/arm/lm3s811/TI_Stellaris/driverlib/usb.c **** //! Change the mode of the USB controller to host.
3846:/home/cuil/workspace/arm/lm3s811/TI_Stellaris/driverlib/usb.c **** //!
3847:/home/cuil/workspace/arm/lm3s811/TI_Stellaris/driverlib/usb.c **** //! \param ulBase specifies the USB module base address.
3848:/home/cuil/workspace/arm/lm3s811/TI_Stellaris/driverlib/usb.c **** //!
3849:/home/cuil/workspace/arm/lm3s811/TI_Stellaris/driverlib/usb.c **** //! This function changes the mode of the USB controller to host mode.
3850:/home/cuil/workspace/arm/lm3s811/TI_Stellaris/driverlib/usb.c **** //!
3851:/home/cuil/workspace/arm/lm3s811/TI_Stellaris/driverlib/usb.c **** //! \note This function should only be called on microcontrollers that support
3852:/home/cuil/workspace/arm/lm3s811/TI_Stellaris/driverlib/usb.c **** //! OTG operation and have the DEVMODOTG bit in the USBGPCS register.
3853:/home/cuil/workspace/arm/lm3s811/TI_Stellaris/driverlib/usb.c **** //!
3854:/home/cuil/workspace/arm/lm3s811/TI_Stellaris/driverlib/usb.c **** //! \return None.
3855:/home/cuil/workspace/arm/lm3s811/TI_Stellaris/driverlib/usb.c **** //
3856:/home/cuil/workspace/arm/lm3s811/TI_Stellaris/driverlib/usb.c **** //*****************************************************************************
3857:/home/cuil/workspace/arm/lm3s811/TI_Stellaris/driverlib/usb.c **** void
3858:/home/cuil/workspace/arm/lm3s811/TI_Stellaris/driverlib/usb.c **** USBHostMode(unsigned long ulBase)
3859:/home/cuil/workspace/arm/lm3s811/TI_Stellaris/driverlib/usb.c **** {
 14005              		.loc 1 3859 0
 14006              		.cfi_startproc
 14007              		@ args = 0, pretend = 0, frame = 8
 14008              		@ frame_needed = 1, uses_anonymous_args = 0
 14009              		@ link register save eliminated.
 14010 0000 80B4     		push	{r7}
 14011              	.LCFI177:
 14012              		.cfi_def_cfa_offset 4
 14013 0002 83B0     		sub	sp, sp, #12
 14014              	.LCFI178:
 14015              		.cfi_def_cfa_offset 16
 14016 0004 00AF     		add	r7, sp, #0
 14017              		.cfi_offset 7, -4
 14018              	.LCFI179:
 14019              		.cfi_def_cfa_register 7
 14020 0006 7860     		str	r0, [r7, #4]
3860:/home/cuil/workspace/arm/lm3s811/TI_Stellaris/driverlib/usb.c ****     //
3861:/home/cuil/workspace/arm/lm3s811/TI_Stellaris/driverlib/usb.c ****     // Check the arguments.
3862:/home/cuil/workspace/arm/lm3s811/TI_Stellaris/driverlib/usb.c ****     //
3863:/home/cuil/workspace/arm/lm3s811/TI_Stellaris/driverlib/usb.c ****     ASSERT(ulBase == USB0_BASE);
3864:/home/cuil/workspace/arm/lm3s811/TI_Stellaris/driverlib/usb.c **** 
3865:/home/cuil/workspace/arm/lm3s811/TI_Stellaris/driverlib/usb.c ****     //
3866:/home/cuil/workspace/arm/lm3s811/TI_Stellaris/driverlib/usb.c ****     // Force mode in OTG parts that support forcing USB controller mode.
3867:/home/cuil/workspace/arm/lm3s811/TI_Stellaris/driverlib/usb.c ****     // This bit is not writable in USB controllers that do not support
3868:/home/cuil/workspace/arm/lm3s811/TI_Stellaris/driverlib/usb.c ****     // forcing the mode.  Not setting the USB_GPCS_DEVMOD bit makes this a
3869:/home/cuil/workspace/arm/lm3s811/TI_Stellaris/driverlib/usb.c ****     // force of host mode.
3870:/home/cuil/workspace/arm/lm3s811/TI_Stellaris/driverlib/usb.c ****     //
3871:/home/cuil/workspace/arm/lm3s811/TI_Stellaris/driverlib/usb.c ****     HWREGB(ulBase + USB_O_GPCS) = USB_GPCS_DEVMODOTG;
 14021              		.loc 1 3871 0
 14022 0008 7B68     		ldr	r3, [r7, #4]
 14023 000a 03F58263 		add	r3, r3, #1040
 14024 000e 03F10C03 		add	r3, r3, #12
 14025 0012 4FF00202 		mov	r2, #2
 14026 0016 1A70     		strb	r2, [r3, #0]
3872:/home/cuil/workspace/arm/lm3s811/TI_Stellaris/driverlib/usb.c **** }
 14027              		.loc 1 3872 0
 14028 0018 07F10C07 		add	r7, r7, #12
 14029 001c BD46     		mov	sp, r7
 14030 001e 80BC     		pop	{r7}
 14031 0020 7047     		bx	lr
 14032              		.cfi_endproc
 14033              	.LFE59:
 14035 0022 00BF     		.section	.text.USBDevMode,"ax",%progbits
 14036              		.align	2
 14037              		.global	USBDevMode
 14038              		.thumb
 14039              		.thumb_func
 14041              	USBDevMode:
 14042              	.LFB60:
3873:/home/cuil/workspace/arm/lm3s811/TI_Stellaris/driverlib/usb.c **** 
3874:/home/cuil/workspace/arm/lm3s811/TI_Stellaris/driverlib/usb.c **** //*****************************************************************************
3875:/home/cuil/workspace/arm/lm3s811/TI_Stellaris/driverlib/usb.c **** //
3876:/home/cuil/workspace/arm/lm3s811/TI_Stellaris/driverlib/usb.c **** //! Change the mode of the USB controller to device.
3877:/home/cuil/workspace/arm/lm3s811/TI_Stellaris/driverlib/usb.c **** //!
3878:/home/cuil/workspace/arm/lm3s811/TI_Stellaris/driverlib/usb.c **** //! \param ulBase specifies the USB module base address.
3879:/home/cuil/workspace/arm/lm3s811/TI_Stellaris/driverlib/usb.c **** //!
3880:/home/cuil/workspace/arm/lm3s811/TI_Stellaris/driverlib/usb.c **** //! This function changes the mode of the USB controller to device mode.
3881:/home/cuil/workspace/arm/lm3s811/TI_Stellaris/driverlib/usb.c **** //!
3882:/home/cuil/workspace/arm/lm3s811/TI_Stellaris/driverlib/usb.c **** //! \note This function should only be called on microcontrollers that support
3883:/home/cuil/workspace/arm/lm3s811/TI_Stellaris/driverlib/usb.c **** //! OTG operation and have the DEVMODOTG bit in the USBGPCS register.
3884:/home/cuil/workspace/arm/lm3s811/TI_Stellaris/driverlib/usb.c **** //!
3885:/home/cuil/workspace/arm/lm3s811/TI_Stellaris/driverlib/usb.c **** //! \return None.
3886:/home/cuil/workspace/arm/lm3s811/TI_Stellaris/driverlib/usb.c **** //
3887:/home/cuil/workspace/arm/lm3s811/TI_Stellaris/driverlib/usb.c **** //*****************************************************************************
3888:/home/cuil/workspace/arm/lm3s811/TI_Stellaris/driverlib/usb.c **** void
3889:/home/cuil/workspace/arm/lm3s811/TI_Stellaris/driverlib/usb.c **** USBDevMode(unsigned long ulBase)
3890:/home/cuil/workspace/arm/lm3s811/TI_Stellaris/driverlib/usb.c **** {
 14043              		.loc 1 3890 0
 14044              		.cfi_startproc
 14045              		@ args = 0, pretend = 0, frame = 8
 14046              		@ frame_needed = 1, uses_anonymous_args = 0
 14047              		@ link register save eliminated.
 14048 0000 80B4     		push	{r7}
 14049              	.LCFI180:
 14050              		.cfi_def_cfa_offset 4
 14051 0002 83B0     		sub	sp, sp, #12
 14052              	.LCFI181:
 14053              		.cfi_def_cfa_offset 16
 14054 0004 00AF     		add	r7, sp, #0
 14055              		.cfi_offset 7, -4
 14056              	.LCFI182:
 14057              		.cfi_def_cfa_register 7
 14058 0006 7860     		str	r0, [r7, #4]
3891:/home/cuil/workspace/arm/lm3s811/TI_Stellaris/driverlib/usb.c ****     //
3892:/home/cuil/workspace/arm/lm3s811/TI_Stellaris/driverlib/usb.c ****     // Check the arguments.
3893:/home/cuil/workspace/arm/lm3s811/TI_Stellaris/driverlib/usb.c ****     //
3894:/home/cuil/workspace/arm/lm3s811/TI_Stellaris/driverlib/usb.c ****     ASSERT(ulBase == USB0_BASE);
3895:/home/cuil/workspace/arm/lm3s811/TI_Stellaris/driverlib/usb.c **** 
3896:/home/cuil/workspace/arm/lm3s811/TI_Stellaris/driverlib/usb.c ****     //
3897:/home/cuil/workspace/arm/lm3s811/TI_Stellaris/driverlib/usb.c ****     // Set the USB controller mode to device.
3898:/home/cuil/workspace/arm/lm3s811/TI_Stellaris/driverlib/usb.c ****     //
3899:/home/cuil/workspace/arm/lm3s811/TI_Stellaris/driverlib/usb.c ****     HWREGB(ulBase + USB_O_GPCS) = USB_GPCS_DEVMODOTG | USB_GPCS_DEVMOD;
 14059              		.loc 1 3899 0
 14060 0008 7B68     		ldr	r3, [r7, #4]
 14061 000a 03F58263 		add	r3, r3, #1040
 14062 000e 03F10C03 		add	r3, r3, #12
 14063 0012 4FF00302 		mov	r2, #3
 14064 0016 1A70     		strb	r2, [r3, #0]
3900:/home/cuil/workspace/arm/lm3s811/TI_Stellaris/driverlib/usb.c **** }
 14065              		.loc 1 3900 0
 14066 0018 07F10C07 		add	r7, r7, #12
 14067 001c BD46     		mov	sp, r7
 14068 001e 80BC     		pop	{r7}
 14069 0020 7047     		bx	lr
 14070              		.cfi_endproc
 14071              	.LFE60:
 14073 0022 00BF     		.section	.text.USBOTGMode,"ax",%progbits
 14074              		.align	2
 14075              		.global	USBOTGMode
 14076              		.thumb
 14077              		.thumb_func
 14079              	USBOTGMode:
 14080              	.LFB61:
3901:/home/cuil/workspace/arm/lm3s811/TI_Stellaris/driverlib/usb.c **** 
3902:/home/cuil/workspace/arm/lm3s811/TI_Stellaris/driverlib/usb.c **** //*****************************************************************************
3903:/home/cuil/workspace/arm/lm3s811/TI_Stellaris/driverlib/usb.c **** //
3904:/home/cuil/workspace/arm/lm3s811/TI_Stellaris/driverlib/usb.c **** //! Change the mode of the USB controller to OTG.
3905:/home/cuil/workspace/arm/lm3s811/TI_Stellaris/driverlib/usb.c **** //!
3906:/home/cuil/workspace/arm/lm3s811/TI_Stellaris/driverlib/usb.c **** //! \param ulBase specifies the USB module base address.
3907:/home/cuil/workspace/arm/lm3s811/TI_Stellaris/driverlib/usb.c **** //!
3908:/home/cuil/workspace/arm/lm3s811/TI_Stellaris/driverlib/usb.c **** //! This function changes the mode of the USB controller to OTG mode.  This
3909:/home/cuil/workspace/arm/lm3s811/TI_Stellaris/driverlib/usb.c **** //! function is only valid on microcontrollers that have the OTG capabilities.
3910:/home/cuil/workspace/arm/lm3s811/TI_Stellaris/driverlib/usb.c **** //!
3911:/home/cuil/workspace/arm/lm3s811/TI_Stellaris/driverlib/usb.c **** //! \return None.
3912:/home/cuil/workspace/arm/lm3s811/TI_Stellaris/driverlib/usb.c **** //
3913:/home/cuil/workspace/arm/lm3s811/TI_Stellaris/driverlib/usb.c **** //*****************************************************************************
3914:/home/cuil/workspace/arm/lm3s811/TI_Stellaris/driverlib/usb.c **** void
3915:/home/cuil/workspace/arm/lm3s811/TI_Stellaris/driverlib/usb.c **** USBOTGMode(unsigned long ulBase)
3916:/home/cuil/workspace/arm/lm3s811/TI_Stellaris/driverlib/usb.c **** {
 14081              		.loc 1 3916 0
 14082              		.cfi_startproc
 14083              		@ args = 0, pretend = 0, frame = 8
 14084              		@ frame_needed = 1, uses_anonymous_args = 0
 14085              		@ link register save eliminated.
 14086 0000 80B4     		push	{r7}
 14087              	.LCFI183:
 14088              		.cfi_def_cfa_offset 4
 14089 0002 83B0     		sub	sp, sp, #12
 14090              	.LCFI184:
 14091              		.cfi_def_cfa_offset 16
 14092 0004 00AF     		add	r7, sp, #0
 14093              		.cfi_offset 7, -4
 14094              	.LCFI185:
 14095              		.cfi_def_cfa_register 7
 14096 0006 7860     		str	r0, [r7, #4]
3917:/home/cuil/workspace/arm/lm3s811/TI_Stellaris/driverlib/usb.c ****     //
3918:/home/cuil/workspace/arm/lm3s811/TI_Stellaris/driverlib/usb.c ****     // Check the arguments.
3919:/home/cuil/workspace/arm/lm3s811/TI_Stellaris/driverlib/usb.c ****     //
3920:/home/cuil/workspace/arm/lm3s811/TI_Stellaris/driverlib/usb.c ****     ASSERT(ulBase == USB0_BASE);
3921:/home/cuil/workspace/arm/lm3s811/TI_Stellaris/driverlib/usb.c **** 
3922:/home/cuil/workspace/arm/lm3s811/TI_Stellaris/driverlib/usb.c ****     //
3923:/home/cuil/workspace/arm/lm3s811/TI_Stellaris/driverlib/usb.c ****     // Disable the override of the USB controller mode when running on an OTG
3924:/home/cuil/workspace/arm/lm3s811/TI_Stellaris/driverlib/usb.c ****     // device.
3925:/home/cuil/workspace/arm/lm3s811/TI_Stellaris/driverlib/usb.c ****     //
3926:/home/cuil/workspace/arm/lm3s811/TI_Stellaris/driverlib/usb.c ****     HWREGB(ulBase + USB_O_GPCS) = 0;
 14097              		.loc 1 3926 0
 14098 0008 7B68     		ldr	r3, [r7, #4]
 14099 000a 03F58263 		add	r3, r3, #1040
 14100 000e 03F10C03 		add	r3, r3, #12
 14101 0012 4FF00002 		mov	r2, #0
 14102 0016 1A70     		strb	r2, [r3, #0]
3927:/home/cuil/workspace/arm/lm3s811/TI_Stellaris/driverlib/usb.c **** }
 14103              		.loc 1 3927 0
 14104 0018 07F10C07 		add	r7, r7, #12
 14105 001c BD46     		mov	sp, r7
 14106 001e 80BC     		pop	{r7}
 14107 0020 7047     		bx	lr
 14108              		.cfi_endproc
 14109              	.LFE61:
 14111 0022 00BF     		.section	.text.USBPHYPowerOff,"ax",%progbits
 14112              		.align	2
 14113              		.global	USBPHYPowerOff
 14114              		.thumb
 14115              		.thumb_func
 14117              	USBPHYPowerOff:
 14118              	.LFB62:
3928:/home/cuil/workspace/arm/lm3s811/TI_Stellaris/driverlib/usb.c **** 
3929:/home/cuil/workspace/arm/lm3s811/TI_Stellaris/driverlib/usb.c **** //*****************************************************************************
3930:/home/cuil/workspace/arm/lm3s811/TI_Stellaris/driverlib/usb.c **** //
3931:/home/cuil/workspace/arm/lm3s811/TI_Stellaris/driverlib/usb.c **** //! Powers off the USB PHY.
3932:/home/cuil/workspace/arm/lm3s811/TI_Stellaris/driverlib/usb.c **** //!
3933:/home/cuil/workspace/arm/lm3s811/TI_Stellaris/driverlib/usb.c **** //! \param ulBase specifies the USB module base address.
3934:/home/cuil/workspace/arm/lm3s811/TI_Stellaris/driverlib/usb.c **** //!
3935:/home/cuil/workspace/arm/lm3s811/TI_Stellaris/driverlib/usb.c **** //! This function powers off the USB PHY, reducing the current consuption
3936:/home/cuil/workspace/arm/lm3s811/TI_Stellaris/driverlib/usb.c **** //! of the device.  While in the powered-off state, the USB controller is
3937:/home/cuil/workspace/arm/lm3s811/TI_Stellaris/driverlib/usb.c **** //! unable to operate.
3938:/home/cuil/workspace/arm/lm3s811/TI_Stellaris/driverlib/usb.c **** //!
3939:/home/cuil/workspace/arm/lm3s811/TI_Stellaris/driverlib/usb.c **** //! \return None.
3940:/home/cuil/workspace/arm/lm3s811/TI_Stellaris/driverlib/usb.c **** //
3941:/home/cuil/workspace/arm/lm3s811/TI_Stellaris/driverlib/usb.c **** //*****************************************************************************
3942:/home/cuil/workspace/arm/lm3s811/TI_Stellaris/driverlib/usb.c **** void
3943:/home/cuil/workspace/arm/lm3s811/TI_Stellaris/driverlib/usb.c **** USBPHYPowerOff(unsigned long ulBase)
3944:/home/cuil/workspace/arm/lm3s811/TI_Stellaris/driverlib/usb.c **** {
 14119              		.loc 1 3944 0
 14120              		.cfi_startproc
 14121              		@ args = 0, pretend = 0, frame = 8
 14122              		@ frame_needed = 1, uses_anonymous_args = 0
 14123              		@ link register save eliminated.
 14124 0000 80B4     		push	{r7}
 14125              	.LCFI186:
 14126              		.cfi_def_cfa_offset 4
 14127 0002 83B0     		sub	sp, sp, #12
 14128              	.LCFI187:
 14129              		.cfi_def_cfa_offset 16
 14130 0004 00AF     		add	r7, sp, #0
 14131              		.cfi_offset 7, -4
 14132              	.LCFI188:
 14133              		.cfi_def_cfa_register 7
 14134 0006 7860     		str	r0, [r7, #4]
3945:/home/cuil/workspace/arm/lm3s811/TI_Stellaris/driverlib/usb.c ****     //
3946:/home/cuil/workspace/arm/lm3s811/TI_Stellaris/driverlib/usb.c ****     // Set the PWRDNPHY bit in the PHY, putting it into its low power mode.
3947:/home/cuil/workspace/arm/lm3s811/TI_Stellaris/driverlib/usb.c ****     //
3948:/home/cuil/workspace/arm/lm3s811/TI_Stellaris/driverlib/usb.c ****     HWREGB(ulBase + USB_O_POWER) |= USB_POWER_PWRDNPHY;
 14135              		.loc 1 3948 0
 14136 0008 7B68     		ldr	r3, [r7, #4]
 14137 000a 03F10103 		add	r3, r3, #1
 14138 000e 7A68     		ldr	r2, [r7, #4]
 14139 0010 02F10102 		add	r2, r2, #1
 14140 0014 1278     		ldrb	r2, [r2, #0]
 14141 0016 D2B2     		uxtb	r2, r2
 14142 0018 42F00102 		orr	r2, r2, #1
 14143 001c D2B2     		uxtb	r2, r2
 14144 001e 1A70     		strb	r2, [r3, #0]
3949:/home/cuil/workspace/arm/lm3s811/TI_Stellaris/driverlib/usb.c **** }
 14145              		.loc 1 3949 0
 14146 0020 07F10C07 		add	r7, r7, #12
 14147 0024 BD46     		mov	sp, r7
 14148 0026 80BC     		pop	{r7}
 14149 0028 7047     		bx	lr
 14150              		.cfi_endproc
 14151              	.LFE62:
 14153 002a 00BF     		.section	.text.USBPHYPowerOn,"ax",%progbits
 14154              		.align	2
 14155              		.global	USBPHYPowerOn
 14156              		.thumb
 14157              		.thumb_func
 14159              	USBPHYPowerOn:
 14160              	.LFB63:
3950:/home/cuil/workspace/arm/lm3s811/TI_Stellaris/driverlib/usb.c **** 
3951:/home/cuil/workspace/arm/lm3s811/TI_Stellaris/driverlib/usb.c **** //*****************************************************************************
3952:/home/cuil/workspace/arm/lm3s811/TI_Stellaris/driverlib/usb.c **** //
3953:/home/cuil/workspace/arm/lm3s811/TI_Stellaris/driverlib/usb.c **** //! Powers on the USB PHY.
3954:/home/cuil/workspace/arm/lm3s811/TI_Stellaris/driverlib/usb.c **** //!
3955:/home/cuil/workspace/arm/lm3s811/TI_Stellaris/driverlib/usb.c **** //! \param ulBase specifies the USB module base address.
3956:/home/cuil/workspace/arm/lm3s811/TI_Stellaris/driverlib/usb.c **** //!
3957:/home/cuil/workspace/arm/lm3s811/TI_Stellaris/driverlib/usb.c **** //! This function powers on the USB PHY, enabling it return to normal
3958:/home/cuil/workspace/arm/lm3s811/TI_Stellaris/driverlib/usb.c **** //! operation.  By default, the PHY is powered on, so this function should 
3959:/home/cuil/workspace/arm/lm3s811/TI_Stellaris/driverlib/usb.c **** //! only be called if USBPHYPowerOff() has previously been called.
3960:/home/cuil/workspace/arm/lm3s811/TI_Stellaris/driverlib/usb.c **** //!
3961:/home/cuil/workspace/arm/lm3s811/TI_Stellaris/driverlib/usb.c **** //! \return None.
3962:/home/cuil/workspace/arm/lm3s811/TI_Stellaris/driverlib/usb.c **** //
3963:/home/cuil/workspace/arm/lm3s811/TI_Stellaris/driverlib/usb.c **** //*****************************************************************************
3964:/home/cuil/workspace/arm/lm3s811/TI_Stellaris/driverlib/usb.c **** void
3965:/home/cuil/workspace/arm/lm3s811/TI_Stellaris/driverlib/usb.c **** USBPHYPowerOn(unsigned long ulBase)
3966:/home/cuil/workspace/arm/lm3s811/TI_Stellaris/driverlib/usb.c **** {
 14161              		.loc 1 3966 0
 14162              		.cfi_startproc
 14163              		@ args = 0, pretend = 0, frame = 8
 14164              		@ frame_needed = 1, uses_anonymous_args = 0
 14165              		@ link register save eliminated.
 14166 0000 80B4     		push	{r7}
 14167              	.LCFI189:
 14168              		.cfi_def_cfa_offset 4
 14169 0002 83B0     		sub	sp, sp, #12
 14170              	.LCFI190:
 14171              		.cfi_def_cfa_offset 16
 14172 0004 00AF     		add	r7, sp, #0
 14173              		.cfi_offset 7, -4
 14174              	.LCFI191:
 14175              		.cfi_def_cfa_register 7
 14176 0006 7860     		str	r0, [r7, #4]
3967:/home/cuil/workspace/arm/lm3s811/TI_Stellaris/driverlib/usb.c ****     //
3968:/home/cuil/workspace/arm/lm3s811/TI_Stellaris/driverlib/usb.c ****     // Clear the PWRDNPHY bit in the PHY, putting it into normal operating
3969:/home/cuil/workspace/arm/lm3s811/TI_Stellaris/driverlib/usb.c ****     // mode.
3970:/home/cuil/workspace/arm/lm3s811/TI_Stellaris/driverlib/usb.c ****     //
3971:/home/cuil/workspace/arm/lm3s811/TI_Stellaris/driverlib/usb.c ****     HWREGB(ulBase + USB_O_POWER) &= ~USB_POWER_PWRDNPHY;
 14177              		.loc 1 3971 0
 14178 0008 7B68     		ldr	r3, [r7, #4]
 14179 000a 03F10103 		add	r3, r3, #1
 14180 000e 7A68     		ldr	r2, [r7, #4]
 14181 0010 02F10102 		add	r2, r2, #1
 14182 0014 1278     		ldrb	r2, [r2, #0]
 14183 0016 D2B2     		uxtb	r2, r2
 14184 0018 22F00102 		bic	r2, r2, #1
 14185 001c D2B2     		uxtb	r2, r2
 14186 001e 1A70     		strb	r2, [r3, #0]
3972:/home/cuil/workspace/arm/lm3s811/TI_Stellaris/driverlib/usb.c **** }
 14187              		.loc 1 3972 0
 14188 0020 07F10C07 		add	r7, r7, #12
 14189 0024 BD46     		mov	sp, r7
 14190 0026 80BC     		pop	{r7}
 14191 0028 7047     		bx	lr
 14192              		.cfi_endproc
 14193              	.LFE63:
 14195 002a 00BF     		.text
 14196              	.Letext0:
DEFINED SYMBOLS
                            *ABS*:00000000 usb.c
     /tmp/ccRie36b.s:9457   .text.USBIndexWrite:00000000 $t
     /tmp/ccRie36b.s:9461   .text.USBIndexWrite:00000000 USBIndexWrite
     /tmp/ccRie36b.s:9530   .text.USBIndexRead:00000000 $t
     /tmp/ccRie36b.s:9534   .text.USBIndexRead:00000000 USBIndexRead
     /tmp/ccRie36b.s:9603   .text.USBHostSuspend:00000000 $t
     /tmp/ccRie36b.s:9608   .text.USBHostSuspend:00000000 USBHostSuspend
     /tmp/ccRie36b.s:9645   .text.USBHostReset:00000000 $t
     /tmp/ccRie36b.s:9650   .text.USBHostReset:00000000 USBHostReset
     /tmp/ccRie36b.s:9706   .text.USBHostResume:00000000 $t
     /tmp/ccRie36b.s:9711   .text.USBHostResume:00000000 USBHostResume
     /tmp/ccRie36b.s:9767   .text.USBHostSpeedGet:00000000 $t
     /tmp/ccRie36b.s:9772   .text.USBHostSpeedGet:00000000 USBHostSpeedGet
     /tmp/ccRie36b.s:9827   .text.USBIntStatus:00000000 $t
     /tmp/ccRie36b.s:9832   .text.USBIntStatus:00000000 USBIntStatus
     /tmp/ccRie36b.s:9930   .text.USBIntStatus:000000b0 $d
     /tmp/ccRie36b.s:9935   .text.USBIntDisable:00000000 $t
     /tmp/ccRie36b.s:9940   .text.USBIntDisable:00000000 USBIntDisable
     /tmp/ccRie36b.s:10057  .text.USBIntDisable:000000d4 $d
     /tmp/ccRie36b.s:10062  .text.USBIntEnable:00000000 $t
     /tmp/ccRie36b.s:10067  .text.USBIntEnable:00000000 USBIntEnable
     /tmp/ccRie36b.s:10178  .text.USBIntEnable:000000c0 $d
     /tmp/ccRie36b.s:10183  .text.USBIntDisableControl:00000000 $t
     /tmp/ccRie36b.s:10188  .text.USBIntDisableControl:00000000 USBIntDisableControl
     /tmp/ccRie36b.s:10256  .text.USBIntDisableControl:00000068 $d
     /tmp/ccRie36b.s:10261  .text.USBIntEnableControl:00000000 $t
     /tmp/ccRie36b.s:10266  .text.USBIntEnableControl:00000000 USBIntEnableControl
     /tmp/ccRie36b.s:10332  .text.USBIntEnableControl:00000064 $d
     /tmp/ccRie36b.s:10337  .text.USBIntStatusControl:00000000 $t
     /tmp/ccRie36b.s:10342  .text.USBIntStatusControl:00000000 USBIntStatusControl
     /tmp/ccRie36b.s:10422  .text.USBIntStatusControl:00000084 $d
     /tmp/ccRie36b.s:10427  .text.USBIntDisableEndpoint:00000000 $t
     /tmp/ccRie36b.s:10432  .text.USBIntDisableEndpoint:00000000 USBIntDisableEndpoint
     /tmp/ccRie36b.s:10494  .text.USBIntEnableEndpoint:00000000 $t
     /tmp/ccRie36b.s:10499  .text.USBIntEnableEndpoint:00000000 USBIntEnableEndpoint
     /tmp/ccRie36b.s:10557  .text.USBIntStatusEndpoint:00000000 $t
     /tmp/ccRie36b.s:10562  .text.USBIntStatusEndpoint:00000000 USBIntStatusEndpoint
     /tmp/ccRie36b.s:10607  .text.USBIntRegister:00000000 $t
     /tmp/ccRie36b.s:10612  .text.USBIntRegister:00000000 USBIntRegister
     /tmp/ccRie36b.s:10646  .text.USBIntUnregister:00000000 $t
     /tmp/ccRie36b.s:10651  .text.USBIntUnregister:00000000 USBIntUnregister
     /tmp/ccRie36b.s:10683  .text.USBEndpointStatus:00000000 $t
     /tmp/ccRie36b.s:10688  .text.USBEndpointStatus:00000000 USBEndpointStatus
     /tmp/ccRie36b.s:10738  .text.USBHostEndpointStatusClear:00000000 $t
     /tmp/ccRie36b.s:10743  .text.USBHostEndpointStatusClear:00000000 USBHostEndpointStatusClear
     /tmp/ccRie36b.s:10832  .text.USBDevEndpointStatusClear:00000000 $t
     /tmp/ccRie36b.s:10837  .text.USBDevEndpointStatusClear:00000000 USBDevEndpointStatusClear
     /tmp/ccRie36b.s:10964  .text.USBHostEndpointDataToggle:00000000 $t
     /tmp/ccRie36b.s:10969  .text.USBHostEndpointDataToggle:00000000 USBHostEndpointDataToggle
     /tmp/ccRie36b.s:11113  .text.USBEndpointDataToggleClear:00000000 $t
     /tmp/ccRie36b.s:11118  .text.USBEndpointDataToggleClear:00000000 USBEndpointDataToggleClear
     /tmp/ccRie36b.s:11183  .text.USBDevEndpointStall:00000000 $t
     /tmp/ccRie36b.s:11188  .text.USBDevEndpointStall:00000000 USBDevEndpointStall
     /tmp/ccRie36b.s:11268  .text.USBDevEndpointStallClear:00000000 $t
     /tmp/ccRie36b.s:11273  .text.USBDevEndpointStallClear:00000000 USBDevEndpointStallClear
     /tmp/ccRie36b.s:11381  .text.USBDevConnect:00000000 $t
     /tmp/ccRie36b.s:11386  .text.USBDevConnect:00000000 USBDevConnect
     /tmp/ccRie36b.s:11423  .text.USBDevDisconnect:00000000 $t
     /tmp/ccRie36b.s:11428  .text.USBDevDisconnect:00000000 USBDevDisconnect
     /tmp/ccRie36b.s:11465  .text.USBDevAddrSet:00000000 $t
     /tmp/ccRie36b.s:11470  .text.USBDevAddrSet:00000000 USBDevAddrSet
     /tmp/ccRie36b.s:11503  .text.USBDevAddrGet:00000000 $t
     /tmp/ccRie36b.s:11508  .text.USBDevAddrGet:00000000 USBDevAddrGet
     /tmp/ccRie36b.s:11540  .text.USBHostEndpointConfig:00000000 $t
     /tmp/ccRie36b.s:11545  .text.USBHostEndpointConfig:00000000 USBHostEndpointConfig
     /tmp/ccRie36b.s:11805  .text.USBDevEndpointConfigSet:00000000 $t
     /tmp/ccRie36b.s:11810  .text.USBDevEndpointConfigSet:00000000 USBDevEndpointConfigSet
     /tmp/ccRie36b.s:11988  .text.USBDevEndpointConfigGet:00000000 $t
     /tmp/ccRie36b.s:11993  .text.USBDevEndpointConfigGet:00000000 USBDevEndpointConfigGet
     /tmp/ccRie36b.s:12188  .text.USBFIFOConfigSet:00000000 $t
     /tmp/ccRie36b.s:12193  .text.USBFIFOConfigSet:00000000 USBFIFOConfigSet
     /tmp/ccRie36b.s:12272  .text.USBFIFOConfigGet:00000000 $t
     /tmp/ccRie36b.s:12277  .text.USBFIFOConfigGet:00000000 USBFIFOConfigGet
     /tmp/ccRie36b.s:12364  .text.USBEndpointDMAEnable:00000000 $t
     /tmp/ccRie36b.s:12369  .text.USBEndpointDMAEnable:00000000 USBEndpointDMAEnable
     /tmp/ccRie36b.s:12440  .text.USBEndpointDMADisable:00000000 $t
     /tmp/ccRie36b.s:12445  .text.USBEndpointDMADisable:00000000 USBEndpointDMADisable
     /tmp/ccRie36b.s:12516  .text.USBEndpointDataAvail:00000000 $t
     /tmp/ccRie36b.s:12521  .text.USBEndpointDataAvail:00000000 USBEndpointDataAvail
     /tmp/ccRie36b.s:12585  .text.USBEndpointDataGet:00000000 $t
     /tmp/ccRie36b.s:12590  .text.USBEndpointDataGet:00000000 USBEndpointDataGet
     /tmp/ccRie36b.s:12703  .text.USBDevEndpointDataAck:00000000 $t
     /tmp/ccRie36b.s:12708  .text.USBDevEndpointDataAck:00000000 USBDevEndpointDataAck
     /tmp/ccRie36b.s:12775  .text.USBHostEndpointDataAck:00000000 $t
     /tmp/ccRie36b.s:12780  .text.USBHostEndpointDataAck:00000000 USBHostEndpointDataAck
     /tmp/ccRie36b.s:12839  .text.USBEndpointDataPut:00000000 $t
     /tmp/ccRie36b.s:12844  .text.USBEndpointDataPut:00000000 USBEndpointDataPut
     /tmp/ccRie36b.s:12934  .text.USBEndpointDataSend:00000000 $t
     /tmp/ccRie36b.s:12939  .text.USBEndpointDataSend:00000000 USBEndpointDataSend
     /tmp/ccRie36b.s:13010  .text.USBFIFOFlush:00000000 $t
     /tmp/ccRie36b.s:13015  .text.USBFIFOFlush:00000000 USBFIFOFlush
     /tmp/ccRie36b.s:13122  .text.USBHostRequestIN:00000000 $t
     /tmp/ccRie36b.s:13127  .text.USBHostRequestIN:00000000 USBHostRequestIN
     /tmp/ccRie36b.s:13175  .text.USBHostRequestINClear:00000000 $t
     /tmp/ccRie36b.s:13180  .text.USBHostRequestINClear:00000000 USBHostRequestINClear
     /tmp/ccRie36b.s:13234  .text.USBHostRequestStatus:00000000 $t
     /tmp/ccRie36b.s:13239  .text.USBHostRequestStatus:00000000 USBHostRequestStatus
     /tmp/ccRie36b.s:13271  .text.USBHostAddrSet:00000000 $t
     /tmp/ccRie36b.s:13276  .text.USBHostAddrSet:00000000 USBHostAddrSet
     /tmp/ccRie36b.s:13332  .text.USBHostAddrGet:00000000 $t
     /tmp/ccRie36b.s:13337  .text.USBHostAddrGet:00000000 USBHostAddrGet
     /tmp/ccRie36b.s:13391  .text.USBHostHubAddrSet:00000000 $t
     /tmp/ccRie36b.s:13396  .text.USBHostHubAddrSet:00000000 USBHostHubAddrSet
     /tmp/ccRie36b.s:13474  .text.USBHostHubAddrGet:00000000 $t
     /tmp/ccRie36b.s:13479  .text.USBHostHubAddrGet:00000000 USBHostHubAddrGet
     /tmp/ccRie36b.s:13533  .text.USBHostPwrConfig:00000000 $t
     /tmp/ccRie36b.s:13538  .text.USBHostPwrConfig:00000000 USBHostPwrConfig
     /tmp/ccRie36b.s:13590  .text.USBHostPwrFaultEnable:00000000 $t
     /tmp/ccRie36b.s:13595  .text.USBHostPwrFaultEnable:00000000 USBHostPwrFaultEnable
     /tmp/ccRie36b.s:13632  .text.USBHostPwrFaultDisable:00000000 $t
     /tmp/ccRie36b.s:13637  .text.USBHostPwrFaultDisable:00000000 USBHostPwrFaultDisable
     /tmp/ccRie36b.s:13674  .text.USBHostPwrEnable:00000000 $t
     /tmp/ccRie36b.s:13679  .text.USBHostPwrEnable:00000000 USBHostPwrEnable
     /tmp/ccRie36b.s:13716  .text.USBHostPwrDisable:00000000 $t
     /tmp/ccRie36b.s:13721  .text.USBHostPwrDisable:00000000 USBHostPwrDisable
     /tmp/ccRie36b.s:13758  .text.USBFrameNumberGet:00000000 $t
     /tmp/ccRie36b.s:13763  .text.USBFrameNumberGet:00000000 USBFrameNumberGet
     /tmp/ccRie36b.s:13796  .text.USBOTGSessionRequest:00000000 $t
     /tmp/ccRie36b.s:13801  .text.USBOTGSessionRequest:00000000 USBOTGSessionRequest
     /tmp/ccRie36b.s:13857  .text.USBFIFOAddrGet:00000000 $t
     /tmp/ccRie36b.s:13862  .text.USBFIFOAddrGet:00000000 USBFIFOAddrGet
     /tmp/ccRie36b.s:13897  .text.USBModeGet:00000000 $t
     /tmp/ccRie36b.s:13902  .text.USBModeGet:00000000 USBModeGet
     /tmp/ccRie36b.s:13936  .text.USBEndpointDMAChannel:00000000 $t
     /tmp/ccRie36b.s:13941  .text.USBEndpointDMAChannel:00000000 USBEndpointDMAChannel
     /tmp/ccRie36b.s:13998  .text.USBHostMode:00000000 $t
     /tmp/ccRie36b.s:14003  .text.USBHostMode:00000000 USBHostMode
     /tmp/ccRie36b.s:14036  .text.USBDevMode:00000000 $t
     /tmp/ccRie36b.s:14041  .text.USBDevMode:00000000 USBDevMode
     /tmp/ccRie36b.s:14074  .text.USBOTGMode:00000000 $t
     /tmp/ccRie36b.s:14079  .text.USBOTGMode:00000000 USBOTGMode
     /tmp/ccRie36b.s:14112  .text.USBPHYPowerOff:00000000 $t
     /tmp/ccRie36b.s:14117  .text.USBPHYPowerOff:00000000 USBPHYPowerOff
     /tmp/ccRie36b.s:14154  .text.USBPHYPowerOn:00000000 $t
     /tmp/ccRie36b.s:14159  .text.USBPHYPowerOn:00000000 USBPHYPowerOn
                     .debug_frame:00000010 $d

UNDEFINED SYMBOLS
IntRegister
IntEnable
IntDisable
IntUnregister
