   1              		.syntax unified
   2              		.cpu cortex-m3
   3              		.fpu softvfp
   4              		.eabi_attribute 20, 1
   5              		.eabi_attribute 21, 1
   6              		.eabi_attribute 23, 3
   7              		.eabi_attribute 24, 1
   8              		.eabi_attribute 25, 1
   9              		.eabi_attribute 26, 1
  10              		.eabi_attribute 30, 6
  11              		.eabi_attribute 18, 4
  12              		.thumb
  13              		.file	"usb.c"
  23              	.Ltext0:
  24              		.file 1 "/home/cuil/workspace/arm/lm3s811/TI_Stellaris/driverlib/usb.c"
 9457              		.align	2
 9458              		.thumb
 9459              		.thumb_func
 9461              	USBIndexWrite:
 9462              	.LFB0:
   1:/home/cuil/workspace/arm/lm3s811/TI_Stellaris/driverlib/usb.c **** //*****************************************************************************
   2:/home/cuil/workspace/arm/lm3s811/TI_Stellaris/driverlib/usb.c **** //
   3:/home/cuil/workspace/arm/lm3s811/TI_Stellaris/driverlib/usb.c **** // usb.c - Driver for the USB Interface.
   4:/home/cuil/workspace/arm/lm3s811/TI_Stellaris/driverlib/usb.c **** //
   5:/home/cuil/workspace/arm/lm3s811/TI_Stellaris/driverlib/usb.c **** // Copyright (c) 2007-2011 Texas Instruments Incorporated.  All rights reserved.
   6:/home/cuil/workspace/arm/lm3s811/TI_Stellaris/driverlib/usb.c **** // Software License Agreement
   7:/home/cuil/workspace/arm/lm3s811/TI_Stellaris/driverlib/usb.c **** // 
   8:/home/cuil/workspace/arm/lm3s811/TI_Stellaris/driverlib/usb.c **** // Texas Instruments (TI) is supplying this software for use solely and
   9:/home/cuil/workspace/arm/lm3s811/TI_Stellaris/driverlib/usb.c **** // exclusively on TI's microcontroller products. The software is owned by
  10:/home/cuil/workspace/arm/lm3s811/TI_Stellaris/driverlib/usb.c **** // TI and/or its suppliers, and is protected under applicable copyright
  11:/home/cuil/workspace/arm/lm3s811/TI_Stellaris/driverlib/usb.c **** // laws. You may not combine this software with "viral" open-source
  12:/home/cuil/workspace/arm/lm3s811/TI_Stellaris/driverlib/usb.c **** // software in order to form a larger program.
  13:/home/cuil/workspace/arm/lm3s811/TI_Stellaris/driverlib/usb.c **** // 
  14:/home/cuil/workspace/arm/lm3s811/TI_Stellaris/driverlib/usb.c **** // THIS SOFTWARE IS PROVIDED "AS IS" AND WITH ALL FAULTS.
  15:/home/cuil/workspace/arm/lm3s811/TI_Stellaris/driverlib/usb.c **** // NO WARRANTIES, WHETHER EXPRESS, IMPLIED OR STATUTORY, INCLUDING, BUT
  16:/home/cuil/workspace/arm/lm3s811/TI_Stellaris/driverlib/usb.c **** // NOT LIMITED TO, IMPLIED WARRANTIES OF MERCHANTABILITY AND FITNESS FOR
  17:/home/cuil/workspace/arm/lm3s811/TI_Stellaris/driverlib/usb.c **** // A PARTICULAR PURPOSE APPLY TO THIS SOFTWARE. TI SHALL NOT, UNDER ANY
  18:/home/cuil/workspace/arm/lm3s811/TI_Stellaris/driverlib/usb.c **** // CIRCUMSTANCES, BE LIABLE FOR SPECIAL, INCIDENTAL, OR CONSEQUENTIAL
  19:/home/cuil/workspace/arm/lm3s811/TI_Stellaris/driverlib/usb.c **** // DAMAGES, FOR ANY REASON WHATSOEVER.
  20:/home/cuil/workspace/arm/lm3s811/TI_Stellaris/driverlib/usb.c **** // 
  21:/home/cuil/workspace/arm/lm3s811/TI_Stellaris/driverlib/usb.c **** // This is part of revision 8264 of the Stellaris Peripheral Driver Library.
  22:/home/cuil/workspace/arm/lm3s811/TI_Stellaris/driverlib/usb.c **** //
  23:/home/cuil/workspace/arm/lm3s811/TI_Stellaris/driverlib/usb.c **** //*****************************************************************************
  24:/home/cuil/workspace/arm/lm3s811/TI_Stellaris/driverlib/usb.c **** 
  25:/home/cuil/workspace/arm/lm3s811/TI_Stellaris/driverlib/usb.c **** //*****************************************************************************
  26:/home/cuil/workspace/arm/lm3s811/TI_Stellaris/driverlib/usb.c **** //
  27:/home/cuil/workspace/arm/lm3s811/TI_Stellaris/driverlib/usb.c **** //! \addtogroup usb_api
  28:/home/cuil/workspace/arm/lm3s811/TI_Stellaris/driverlib/usb.c **** //! @{
  29:/home/cuil/workspace/arm/lm3s811/TI_Stellaris/driverlib/usb.c **** //
  30:/home/cuil/workspace/arm/lm3s811/TI_Stellaris/driverlib/usb.c **** //*****************************************************************************
  31:/home/cuil/workspace/arm/lm3s811/TI_Stellaris/driverlib/usb.c **** 
  32:/home/cuil/workspace/arm/lm3s811/TI_Stellaris/driverlib/usb.c **** #include "inc/hw_ints.h"
  33:/home/cuil/workspace/arm/lm3s811/TI_Stellaris/driverlib/usb.c **** #include "inc/hw_memmap.h"
  34:/home/cuil/workspace/arm/lm3s811/TI_Stellaris/driverlib/usb.c **** #include "inc/hw_types.h"
  35:/home/cuil/workspace/arm/lm3s811/TI_Stellaris/driverlib/usb.c **** #include "inc/hw_usb.h"
  36:/home/cuil/workspace/arm/lm3s811/TI_Stellaris/driverlib/usb.c **** #include "driverlib/debug.h"
  37:/home/cuil/workspace/arm/lm3s811/TI_Stellaris/driverlib/usb.c **** #include "driverlib/interrupt.h"
  38:/home/cuil/workspace/arm/lm3s811/TI_Stellaris/driverlib/usb.c **** #include "driverlib/udma.h"
  39:/home/cuil/workspace/arm/lm3s811/TI_Stellaris/driverlib/usb.c **** #include "driverlib/usb.h"
  40:/home/cuil/workspace/arm/lm3s811/TI_Stellaris/driverlib/usb.c **** 
  41:/home/cuil/workspace/arm/lm3s811/TI_Stellaris/driverlib/usb.c **** //*****************************************************************************
  42:/home/cuil/workspace/arm/lm3s811/TI_Stellaris/driverlib/usb.c **** //
  43:/home/cuil/workspace/arm/lm3s811/TI_Stellaris/driverlib/usb.c **** // Amount to shift the RX interrupt sources by in the flags used in the
  44:/home/cuil/workspace/arm/lm3s811/TI_Stellaris/driverlib/usb.c **** // interrupt calls.
  45:/home/cuil/workspace/arm/lm3s811/TI_Stellaris/driverlib/usb.c **** //
  46:/home/cuil/workspace/arm/lm3s811/TI_Stellaris/driverlib/usb.c **** //*****************************************************************************
  47:/home/cuil/workspace/arm/lm3s811/TI_Stellaris/driverlib/usb.c **** #ifndef DEPRECATED
  48:/home/cuil/workspace/arm/lm3s811/TI_Stellaris/driverlib/usb.c **** #define USB_INT_RX_SHIFT        8
  49:/home/cuil/workspace/arm/lm3s811/TI_Stellaris/driverlib/usb.c **** #endif
  50:/home/cuil/workspace/arm/lm3s811/TI_Stellaris/driverlib/usb.c **** #define USB_INTEP_RX_SHIFT      16
  51:/home/cuil/workspace/arm/lm3s811/TI_Stellaris/driverlib/usb.c **** 
  52:/home/cuil/workspace/arm/lm3s811/TI_Stellaris/driverlib/usb.c **** //*****************************************************************************
  53:/home/cuil/workspace/arm/lm3s811/TI_Stellaris/driverlib/usb.c **** //
  54:/home/cuil/workspace/arm/lm3s811/TI_Stellaris/driverlib/usb.c **** // Amount to shift the status interrupt sources by in the flags used in the
  55:/home/cuil/workspace/arm/lm3s811/TI_Stellaris/driverlib/usb.c **** // interrupt calls.
  56:/home/cuil/workspace/arm/lm3s811/TI_Stellaris/driverlib/usb.c **** //
  57:/home/cuil/workspace/arm/lm3s811/TI_Stellaris/driverlib/usb.c **** //*****************************************************************************
  58:/home/cuil/workspace/arm/lm3s811/TI_Stellaris/driverlib/usb.c **** #ifndef DEPRECATED
  59:/home/cuil/workspace/arm/lm3s811/TI_Stellaris/driverlib/usb.c **** #define USB_INT_STATUS_SHIFT    24
  60:/home/cuil/workspace/arm/lm3s811/TI_Stellaris/driverlib/usb.c **** #endif
  61:/home/cuil/workspace/arm/lm3s811/TI_Stellaris/driverlib/usb.c **** 
  62:/home/cuil/workspace/arm/lm3s811/TI_Stellaris/driverlib/usb.c **** //*****************************************************************************
  63:/home/cuil/workspace/arm/lm3s811/TI_Stellaris/driverlib/usb.c **** //
  64:/home/cuil/workspace/arm/lm3s811/TI_Stellaris/driverlib/usb.c **** // Amount to shift the RX endpoint status sources by in the flags used in the
  65:/home/cuil/workspace/arm/lm3s811/TI_Stellaris/driverlib/usb.c **** // calls.
  66:/home/cuil/workspace/arm/lm3s811/TI_Stellaris/driverlib/usb.c **** //
  67:/home/cuil/workspace/arm/lm3s811/TI_Stellaris/driverlib/usb.c **** //*****************************************************************************
  68:/home/cuil/workspace/arm/lm3s811/TI_Stellaris/driverlib/usb.c **** #define USB_RX_EPSTATUS_SHIFT   16
  69:/home/cuil/workspace/arm/lm3s811/TI_Stellaris/driverlib/usb.c **** 
  70:/home/cuil/workspace/arm/lm3s811/TI_Stellaris/driverlib/usb.c **** //*****************************************************************************
  71:/home/cuil/workspace/arm/lm3s811/TI_Stellaris/driverlib/usb.c **** //
  72:/home/cuil/workspace/arm/lm3s811/TI_Stellaris/driverlib/usb.c **** // Converts from an endpoint specifier to the offset of the endpoint's
  73:/home/cuil/workspace/arm/lm3s811/TI_Stellaris/driverlib/usb.c **** // control/status registers.
  74:/home/cuil/workspace/arm/lm3s811/TI_Stellaris/driverlib/usb.c **** //
  75:/home/cuil/workspace/arm/lm3s811/TI_Stellaris/driverlib/usb.c **** //*****************************************************************************
  76:/home/cuil/workspace/arm/lm3s811/TI_Stellaris/driverlib/usb.c **** #define EP_OFFSET(Endpoint)     (Endpoint - 0x10)
  77:/home/cuil/workspace/arm/lm3s811/TI_Stellaris/driverlib/usb.c **** 
  78:/home/cuil/workspace/arm/lm3s811/TI_Stellaris/driverlib/usb.c **** //*****************************************************************************
  79:/home/cuil/workspace/arm/lm3s811/TI_Stellaris/driverlib/usb.c **** //
  80:/home/cuil/workspace/arm/lm3s811/TI_Stellaris/driverlib/usb.c **** // Sets one of the indexed registers.
  81:/home/cuil/workspace/arm/lm3s811/TI_Stellaris/driverlib/usb.c **** //
  82:/home/cuil/workspace/arm/lm3s811/TI_Stellaris/driverlib/usb.c **** // \param ulBase specifies the USB module base address.
  83:/home/cuil/workspace/arm/lm3s811/TI_Stellaris/driverlib/usb.c **** // \param ulEndpoint is the endpoint index to target for this write.
  84:/home/cuil/workspace/arm/lm3s811/TI_Stellaris/driverlib/usb.c **** // \param ulIndexedReg is the indexed register to write to.
  85:/home/cuil/workspace/arm/lm3s811/TI_Stellaris/driverlib/usb.c **** // \param ucValue is the value to write to the register.
  86:/home/cuil/workspace/arm/lm3s811/TI_Stellaris/driverlib/usb.c **** //
  87:/home/cuil/workspace/arm/lm3s811/TI_Stellaris/driverlib/usb.c **** // This function is used to access the indexed registers for each endpoint.
  88:/home/cuil/workspace/arm/lm3s811/TI_Stellaris/driverlib/usb.c **** // The only registers that are indexed are the FIFO configuration registers,
  89:/home/cuil/workspace/arm/lm3s811/TI_Stellaris/driverlib/usb.c **** // which are not used after configuration.
  90:/home/cuil/workspace/arm/lm3s811/TI_Stellaris/driverlib/usb.c **** //
  91:/home/cuil/workspace/arm/lm3s811/TI_Stellaris/driverlib/usb.c **** // \return None.
  92:/home/cuil/workspace/arm/lm3s811/TI_Stellaris/driverlib/usb.c **** //
  93:/home/cuil/workspace/arm/lm3s811/TI_Stellaris/driverlib/usb.c **** //*****************************************************************************
  94:/home/cuil/workspace/arm/lm3s811/TI_Stellaris/driverlib/usb.c **** static void
  95:/home/cuil/workspace/arm/lm3s811/TI_Stellaris/driverlib/usb.c **** USBIndexWrite(unsigned long ulBase, unsigned long ulEndpoint,
  96:/home/cuil/workspace/arm/lm3s811/TI_Stellaris/driverlib/usb.c ****               unsigned long ulIndexedReg, unsigned long ulValue,
  97:/home/cuil/workspace/arm/lm3s811/TI_Stellaris/driverlib/usb.c ****               unsigned long ulSize)
  98:/home/cuil/workspace/arm/lm3s811/TI_Stellaris/driverlib/usb.c **** {
 9463              		.loc 1 98 0
 9464              		.cfi_startproc
 9465              		@ args = 4, pretend = 0, frame = 24
 9466              		@ frame_needed = 1, uses_anonymous_args = 0
 9467              		@ link register save eliminated.
 9468 0000 80B4     		push	{r7}
 9469              	.LCFI0:
 9470              		.cfi_def_cfa_offset 4
 9471 0002 87B0     		sub	sp, sp, #28
 9472              	.LCFI1:
 9473              		.cfi_def_cfa_offset 32
 9474 0004 00AF     		add	r7, sp, #0
 9475              		.cfi_offset 7, -4
 9476              	.LCFI2:
 9477              		.cfi_def_cfa_register 7
 9478 0006 F860     		str	r0, [r7, #12]
 9479 0008 B960     		str	r1, [r7, #8]
 9480 000a 7A60     		str	r2, [r7, #4]
 9481 000c 3B60     		str	r3, [r7, #0]
  99:/home/cuil/workspace/arm/lm3s811/TI_Stellaris/driverlib/usb.c ****     unsigned long ulIndex;
 100:/home/cuil/workspace/arm/lm3s811/TI_Stellaris/driverlib/usb.c **** 
 101:/home/cuil/workspace/arm/lm3s811/TI_Stellaris/driverlib/usb.c ****     //
 102:/home/cuil/workspace/arm/lm3s811/TI_Stellaris/driverlib/usb.c ****     // Check the arguments.
 103:/home/cuil/workspace/arm/lm3s811/TI_Stellaris/driverlib/usb.c ****     //
 104:/home/cuil/workspace/arm/lm3s811/TI_Stellaris/driverlib/usb.c ****     ASSERT(ulBase == USB0_BASE);
 105:/home/cuil/workspace/arm/lm3s811/TI_Stellaris/driverlib/usb.c ****     ASSERT((ulEndpoint == 0) || (ulEndpoint == 1) || (ulEndpoint == 2) ||
 106:/home/cuil/workspace/arm/lm3s811/TI_Stellaris/driverlib/usb.c ****            (ulEndpoint == 3));
 107:/home/cuil/workspace/arm/lm3s811/TI_Stellaris/driverlib/usb.c ****     ASSERT((ulSize == 1) || (ulSize == 2));
 108:/home/cuil/workspace/arm/lm3s811/TI_Stellaris/driverlib/usb.c **** 
 109:/home/cuil/workspace/arm/lm3s811/TI_Stellaris/driverlib/usb.c ****     //
 110:/home/cuil/workspace/arm/lm3s811/TI_Stellaris/driverlib/usb.c ****     // Save the old index in case it was in use.
 111:/home/cuil/workspace/arm/lm3s811/TI_Stellaris/driverlib/usb.c ****     //
 112:/home/cuil/workspace/arm/lm3s811/TI_Stellaris/driverlib/usb.c ****     ulIndex = HWREGB(ulBase + USB_O_EPIDX);
 9482              		.loc 1 112 0
 9483 000e FB68     		ldr	r3, [r7, #12]
 9484 0010 03F10E03 		add	r3, r3, #14
 9485 0014 1B78     		ldrb	r3, [r3, #0]
 9486 0016 DBB2     		uxtb	r3, r3
 9487 0018 7B61     		str	r3, [r7, #20]
 113:/home/cuil/workspace/arm/lm3s811/TI_Stellaris/driverlib/usb.c **** 
 114:/home/cuil/workspace/arm/lm3s811/TI_Stellaris/driverlib/usb.c ****     //
 115:/home/cuil/workspace/arm/lm3s811/TI_Stellaris/driverlib/usb.c ****     // Set the index.
 116:/home/cuil/workspace/arm/lm3s811/TI_Stellaris/driverlib/usb.c ****     //
 117:/home/cuil/workspace/arm/lm3s811/TI_Stellaris/driverlib/usb.c ****     HWREGB(ulBase + USB_O_EPIDX) = ulEndpoint;
 9488              		.loc 1 117 0
 9489 001a FB68     		ldr	r3, [r7, #12]
 9490 001c 03F10E03 		add	r3, r3, #14
 9491 0020 BA68     		ldr	r2, [r7, #8]
 9492 0022 D2B2     		uxtb	r2, r2
 9493 0024 1A70     		strb	r2, [r3, #0]
 118:/home/cuil/workspace/arm/lm3s811/TI_Stellaris/driverlib/usb.c **** 
 119:/home/cuil/workspace/arm/lm3s811/TI_Stellaris/driverlib/usb.c ****     //
 120:/home/cuil/workspace/arm/lm3s811/TI_Stellaris/driverlib/usb.c ****     // Determine the size of the register value.
 121:/home/cuil/workspace/arm/lm3s811/TI_Stellaris/driverlib/usb.c ****     //
 122:/home/cuil/workspace/arm/lm3s811/TI_Stellaris/driverlib/usb.c ****     if(ulSize == 1)
 9494              		.loc 1 122 0
 9495 0026 3B6A     		ldr	r3, [r7, #32]
 9496 0028 012B     		cmp	r3, #1
 9497 002a 06D1     		bne	.L2
 123:/home/cuil/workspace/arm/lm3s811/TI_Stellaris/driverlib/usb.c ****     {
 124:/home/cuil/workspace/arm/lm3s811/TI_Stellaris/driverlib/usb.c ****         //
 125:/home/cuil/workspace/arm/lm3s811/TI_Stellaris/driverlib/usb.c ****         // Set the value.
 126:/home/cuil/workspace/arm/lm3s811/TI_Stellaris/driverlib/usb.c ****         //
 127:/home/cuil/workspace/arm/lm3s811/TI_Stellaris/driverlib/usb.c ****         HWREGB(ulBase + ulIndexedReg) = ulValue;
 9498              		.loc 1 127 0
 9499 002c FA68     		ldr	r2, [r7, #12]
 9500 002e 7B68     		ldr	r3, [r7, #4]
 9501 0030 D318     		adds	r3, r2, r3
 9502 0032 3A68     		ldr	r2, [r7, #0]
 9503 0034 D2B2     		uxtb	r2, r2
 9504 0036 1A70     		strb	r2, [r3, #0]
 9505 0038 05E0     		b	.L3
 9506              	.L2:
 128:/home/cuil/workspace/arm/lm3s811/TI_Stellaris/driverlib/usb.c ****     }
 129:/home/cuil/workspace/arm/lm3s811/TI_Stellaris/driverlib/usb.c ****     else
 130:/home/cuil/workspace/arm/lm3s811/TI_Stellaris/driverlib/usb.c ****     {
 131:/home/cuil/workspace/arm/lm3s811/TI_Stellaris/driverlib/usb.c ****         //
 132:/home/cuil/workspace/arm/lm3s811/TI_Stellaris/driverlib/usb.c ****         // Set the value.
 133:/home/cuil/workspace/arm/lm3s811/TI_Stellaris/driverlib/usb.c ****         //
 134:/home/cuil/workspace/arm/lm3s811/TI_Stellaris/driverlib/usb.c ****         HWREGH(ulBase + ulIndexedReg) = ulValue;
 9507              		.loc 1 134 0
 9508 003a FA68     		ldr	r2, [r7, #12]
 9509 003c 7B68     		ldr	r3, [r7, #4]
 9510 003e D318     		adds	r3, r2, r3
 9511 0040 3A68     		ldr	r2, [r7, #0]
 9512 0042 92B2     		uxth	r2, r2
 9513 0044 1A80     		strh	r2, [r3, #0]	@ movhi
 9514              	.L3:
 135:/home/cuil/workspace/arm/lm3s811/TI_Stellaris/driverlib/usb.c ****     }
 136:/home/cuil/workspace/arm/lm3s811/TI_Stellaris/driverlib/usb.c **** 
 137:/home/cuil/workspace/arm/lm3s811/TI_Stellaris/driverlib/usb.c ****     //
 138:/home/cuil/workspace/arm/lm3s811/TI_Stellaris/driverlib/usb.c ****     // Restore the old index in case it was in use.
 139:/home/cuil/workspace/arm/lm3s811/TI_Stellaris/driverlib/usb.c ****     //
 140:/home/cuil/workspace/arm/lm3s811/TI_Stellaris/driverlib/usb.c ****     HWREGB(ulBase + USB_O_EPIDX) = ulIndex;
 9515              		.loc 1 140 0
 9516 0046 FB68     		ldr	r3, [r7, #12]
 9517 0048 03F10E03 		add	r3, r3, #14
 9518 004c 7A69     		ldr	r2, [r7, #20]
 9519 004e D2B2     		uxtb	r2, r2
 9520 0050 1A70     		strb	r2, [r3, #0]
 141:/home/cuil/workspace/arm/lm3s811/TI_Stellaris/driverlib/usb.c **** }
 9521              		.loc 1 141 0
 9522 0052 07F11C07 		add	r7, r7, #28
 9523 0056 BD46     		mov	sp, r7
 9524 0058 80BC     		pop	{r7}
 9525 005a 7047     		bx	lr
 9526              		.cfi_endproc
 9527              	.LFE0:
 9529              		.section	.text.USBIndexRead,"ax",%progbits
 9530              		.align	2
 9531              		.thumb
 9532              		.thumb_func
 9534              	USBIndexRead:
 9535              	.LFB1:
 142:/home/cuil/workspace/arm/lm3s811/TI_Stellaris/driverlib/usb.c **** 
 143:/home/cuil/workspace/arm/lm3s811/TI_Stellaris/driverlib/usb.c **** //*****************************************************************************
 144:/home/cuil/workspace/arm/lm3s811/TI_Stellaris/driverlib/usb.c **** //
 145:/home/cuil/workspace/arm/lm3s811/TI_Stellaris/driverlib/usb.c **** // Reads one of the indexed registers.
 146:/home/cuil/workspace/arm/lm3s811/TI_Stellaris/driverlib/usb.c **** //
 147:/home/cuil/workspace/arm/lm3s811/TI_Stellaris/driverlib/usb.c **** // \param ulBase specifies the USB module base address.
 148:/home/cuil/workspace/arm/lm3s811/TI_Stellaris/driverlib/usb.c **** // \param ulEndpoint is the endpoint index to target for this write.
 149:/home/cuil/workspace/arm/lm3s811/TI_Stellaris/driverlib/usb.c **** // \param ulIndexedReg is the indexed register to write to.
 150:/home/cuil/workspace/arm/lm3s811/TI_Stellaris/driverlib/usb.c **** //
 151:/home/cuil/workspace/arm/lm3s811/TI_Stellaris/driverlib/usb.c **** // This function is used internally to access the indexed registers for each
 152:/home/cuil/workspace/arm/lm3s811/TI_Stellaris/driverlib/usb.c **** // endpoint.  The only registers that are indexed are the FIFO configuration
 153:/home/cuil/workspace/arm/lm3s811/TI_Stellaris/driverlib/usb.c **** // registers, which are not used after configuration.
 154:/home/cuil/workspace/arm/lm3s811/TI_Stellaris/driverlib/usb.c **** //
 155:/home/cuil/workspace/arm/lm3s811/TI_Stellaris/driverlib/usb.c **** // \return The value in the register requested.
 156:/home/cuil/workspace/arm/lm3s811/TI_Stellaris/driverlib/usb.c **** //
 157:/home/cuil/workspace/arm/lm3s811/TI_Stellaris/driverlib/usb.c **** //*****************************************************************************
 158:/home/cuil/workspace/arm/lm3s811/TI_Stellaris/driverlib/usb.c **** static unsigned long
 159:/home/cuil/workspace/arm/lm3s811/TI_Stellaris/driverlib/usb.c **** USBIndexRead(unsigned long ulBase, unsigned long ulEndpoint,
 160:/home/cuil/workspace/arm/lm3s811/TI_Stellaris/driverlib/usb.c ****              unsigned long ulIndexedReg, unsigned long ulSize)
 161:/home/cuil/workspace/arm/lm3s811/TI_Stellaris/driverlib/usb.c **** {
 9536              		.loc 1 161 0
 9537              		.cfi_startproc
 9538              		@ args = 0, pretend = 0, frame = 24
 9539              		@ frame_needed = 1, uses_anonymous_args = 0
 9540              		@ link register save eliminated.
 9541 0000 80B4     		push	{r7}
 9542              	.LCFI3:
 9543              		.cfi_def_cfa_offset 4
 9544 0002 87B0     		sub	sp, sp, #28
 9545              	.LCFI4:
 9546              		.cfi_def_cfa_offset 32
 9547 0004 00AF     		add	r7, sp, #0
 9548              		.cfi_offset 7, -4
 9549              	.LCFI5:
 9550              		.cfi_def_cfa_register 7
 9551 0006 F860     		str	r0, [r7, #12]
 9552 0008 B960     		str	r1, [r7, #8]
 9553 000a 7A60     		str	r2, [r7, #4]
 9554 000c 3B60     		str	r3, [r7, #0]
 162:/home/cuil/workspace/arm/lm3s811/TI_Stellaris/driverlib/usb.c ****     unsigned char ulIndex;
 163:/home/cuil/workspace/arm/lm3s811/TI_Stellaris/driverlib/usb.c ****     unsigned char ulValue;
 164:/home/cuil/workspace/arm/lm3s811/TI_Stellaris/driverlib/usb.c **** 
 165:/home/cuil/workspace/arm/lm3s811/TI_Stellaris/driverlib/usb.c ****     //
 166:/home/cuil/workspace/arm/lm3s811/TI_Stellaris/driverlib/usb.c ****     // Check the arguments.
 167:/home/cuil/workspace/arm/lm3s811/TI_Stellaris/driverlib/usb.c ****     //
 168:/home/cuil/workspace/arm/lm3s811/TI_Stellaris/driverlib/usb.c ****     ASSERT(ulBase == USB0_BASE);
 169:/home/cuil/workspace/arm/lm3s811/TI_Stellaris/driverlib/usb.c ****     ASSERT((ulEndpoint == 0) || (ulEndpoint == 1) || (ulEndpoint == 2) ||
 170:/home/cuil/workspace/arm/lm3s811/TI_Stellaris/driverlib/usb.c ****            (ulEndpoint == 3));
 171:/home/cuil/workspace/arm/lm3s811/TI_Stellaris/driverlib/usb.c ****     ASSERT((ulSize == 1) || (ulSize == 2));
 172:/home/cuil/workspace/arm/lm3s811/TI_Stellaris/driverlib/usb.c **** 
 173:/home/cuil/workspace/arm/lm3s811/TI_Stellaris/driverlib/usb.c ****     //
 174:/home/cuil/workspace/arm/lm3s811/TI_Stellaris/driverlib/usb.c ****     // Save the old index in case it was in use.
 175:/home/cuil/workspace/arm/lm3s811/TI_Stellaris/driverlib/usb.c ****     //
 176:/home/cuil/workspace/arm/lm3s811/TI_Stellaris/driverlib/usb.c ****     ulIndex = HWREGB(ulBase + USB_O_EPIDX);
 9555              		.loc 1 176 0
 9556 000e FB68     		ldr	r3, [r7, #12]
 9557 0010 03F10E03 		add	r3, r3, #14
 9558 0014 1B78     		ldrb	r3, [r3, #0]
 9559 0016 BB75     		strb	r3, [r7, #22]
 177:/home/cuil/workspace/arm/lm3s811/TI_Stellaris/driverlib/usb.c **** 
 178:/home/cuil/workspace/arm/lm3s811/TI_Stellaris/driverlib/usb.c ****     //
 179:/home/cuil/workspace/arm/lm3s811/TI_Stellaris/driverlib/usb.c ****     // Set the index.
 180:/home/cuil/workspace/arm/lm3s811/TI_Stellaris/driverlib/usb.c ****     //
 181:/home/cuil/workspace/arm/lm3s811/TI_Stellaris/driverlib/usb.c ****     HWREGB(ulBase + USB_O_EPIDX) = ulEndpoint;
 9560              		.loc 1 181 0
 9561 0018 FB68     		ldr	r3, [r7, #12]
 9562 001a 03F10E03 		add	r3, r3, #14
 9563 001e BA68     		ldr	r2, [r7, #8]
 9564 0020 D2B2     		uxtb	r2, r2
 9565 0022 1A70     		strb	r2, [r3, #0]
 182:/home/cuil/workspace/arm/lm3s811/TI_Stellaris/driverlib/usb.c **** 
 183:/home/cuil/workspace/arm/lm3s811/TI_Stellaris/driverlib/usb.c ****     //
 184:/home/cuil/workspace/arm/lm3s811/TI_Stellaris/driverlib/usb.c ****     // Determine the size of the register value.
 185:/home/cuil/workspace/arm/lm3s811/TI_Stellaris/driverlib/usb.c ****     //
 186:/home/cuil/workspace/arm/lm3s811/TI_Stellaris/driverlib/usb.c ****     if(ulSize == 1)
 9566              		.loc 1 186 0
 9567 0024 3B68     		ldr	r3, [r7, #0]
 9568 0026 012B     		cmp	r3, #1
 9569 0028 05D1     		bne	.L5
 187:/home/cuil/workspace/arm/lm3s811/TI_Stellaris/driverlib/usb.c ****     {
 188:/home/cuil/workspace/arm/lm3s811/TI_Stellaris/driverlib/usb.c ****         //
 189:/home/cuil/workspace/arm/lm3s811/TI_Stellaris/driverlib/usb.c ****         // Get the value.
 190:/home/cuil/workspace/arm/lm3s811/TI_Stellaris/driverlib/usb.c ****         //
 191:/home/cuil/workspace/arm/lm3s811/TI_Stellaris/driverlib/usb.c ****         ulValue = HWREGB(ulBase + ulIndexedReg);
 9570              		.loc 1 191 0
 9571 002a FA68     		ldr	r2, [r7, #12]
 9572 002c 7B68     		ldr	r3, [r7, #4]
 9573 002e D318     		adds	r3, r2, r3
 9574 0030 1B78     		ldrb	r3, [r3, #0]
 9575 0032 FB75     		strb	r3, [r7, #23]
 9576 0034 05E0     		b	.L6
 9577              	.L5:
 192:/home/cuil/workspace/arm/lm3s811/TI_Stellaris/driverlib/usb.c ****     }
 193:/home/cuil/workspace/arm/lm3s811/TI_Stellaris/driverlib/usb.c ****     else
 194:/home/cuil/workspace/arm/lm3s811/TI_Stellaris/driverlib/usb.c ****     {
 195:/home/cuil/workspace/arm/lm3s811/TI_Stellaris/driverlib/usb.c ****         //
 196:/home/cuil/workspace/arm/lm3s811/TI_Stellaris/driverlib/usb.c ****         // Get the value.
 197:/home/cuil/workspace/arm/lm3s811/TI_Stellaris/driverlib/usb.c ****         //
 198:/home/cuil/workspace/arm/lm3s811/TI_Stellaris/driverlib/usb.c ****         ulValue = HWREGH(ulBase + ulIndexedReg);
 9578              		.loc 1 198 0
 9579 0036 FA68     		ldr	r2, [r7, #12]
 9580 0038 7B68     		ldr	r3, [r7, #4]
 9581 003a D318     		adds	r3, r2, r3
 9582 003c 1B88     		ldrh	r3, [r3, #0]	@ movhi
 9583 003e 9BB2     		uxth	r3, r3
 9584 0040 FB75     		strb	r3, [r7, #23]
 9585              	.L6:
 199:/home/cuil/workspace/arm/lm3s811/TI_Stellaris/driverlib/usb.c ****     }
 200:/home/cuil/workspace/arm/lm3s811/TI_Stellaris/driverlib/usb.c **** 
 201:/home/cuil/workspace/arm/lm3s811/TI_Stellaris/driverlib/usb.c ****     //
 202:/home/cuil/workspace/arm/lm3s811/TI_Stellaris/driverlib/usb.c ****     // Restore the old index in case it was in use.
 203:/home/cuil/workspace/arm/lm3s811/TI_Stellaris/driverlib/usb.c ****     //
 204:/home/cuil/workspace/arm/lm3s811/TI_Stellaris/driverlib/usb.c ****     HWREGB(ulBase + USB_O_EPIDX) = ulIndex;
 9586              		.loc 1 204 0
 9587 0042 FB68     		ldr	r3, [r7, #12]
 9588 0044 03F10E03 		add	r3, r3, #14
 9589 0048 BA7D     		ldrb	r2, [r7, #22]
 9590 004a 1A70     		strb	r2, [r3, #0]
 205:/home/cuil/workspace/arm/lm3s811/TI_Stellaris/driverlib/usb.c **** 
 206:/home/cuil/workspace/arm/lm3s811/TI_Stellaris/driverlib/usb.c ****     //
 207:/home/cuil/workspace/arm/lm3s811/TI_Stellaris/driverlib/usb.c ****     // Return the register's value.
 208:/home/cuil/workspace/arm/lm3s811/TI_Stellaris/driverlib/usb.c ****     //
 209:/home/cuil/workspace/arm/lm3s811/TI_Stellaris/driverlib/usb.c ****     return(ulValue);
 9591              		.loc 1 209 0
 9592 004c FB7D     		ldrb	r3, [r7, #23]	@ zero_extendqisi2
 210:/home/cuil/workspace/arm/lm3s811/TI_Stellaris/driverlib/usb.c **** }
 9593              		.loc 1 210 0
 9594 004e 1846     		mov	r0, r3
 9595 0050 07F11C07 		add	r7, r7, #28
 9596 0054 BD46     		mov	sp, r7
 9597 0056 80BC     		pop	{r7}
 9598 0058 7047     		bx	lr
 9599              		.cfi_endproc
 9600              	.LFE1:
 9602 005a 00BF     		.section	.text.USBHostSuspend,"ax",%progbits
 9603              		.align	2
 9604              		.global	USBHostSuspend
 9605              		.thumb
 9606              		.thumb_func
 9608              	USBHostSuspend:
 9609              	.LFB2:
 211:/home/cuil/workspace/arm/lm3s811/TI_Stellaris/driverlib/usb.c **** 
 212:/home/cuil/workspace/arm/lm3s811/TI_Stellaris/driverlib/usb.c **** //*****************************************************************************
 213:/home/cuil/workspace/arm/lm3s811/TI_Stellaris/driverlib/usb.c **** //
 214:/home/cuil/workspace/arm/lm3s811/TI_Stellaris/driverlib/usb.c **** //! Puts the USB bus in a suspended state.
 215:/home/cuil/workspace/arm/lm3s811/TI_Stellaris/driverlib/usb.c **** //!
 216:/home/cuil/workspace/arm/lm3s811/TI_Stellaris/driverlib/usb.c **** //! \param ulBase specifies the USB module base address.
 217:/home/cuil/workspace/arm/lm3s811/TI_Stellaris/driverlib/usb.c **** //!
 218:/home/cuil/workspace/arm/lm3s811/TI_Stellaris/driverlib/usb.c **** //! When used in host mode, this function puts the USB bus in the suspended
 219:/home/cuil/workspace/arm/lm3s811/TI_Stellaris/driverlib/usb.c **** //! state.
 220:/home/cuil/workspace/arm/lm3s811/TI_Stellaris/driverlib/usb.c **** //!
 221:/home/cuil/workspace/arm/lm3s811/TI_Stellaris/driverlib/usb.c **** //! \note This function should only be called in host mode.
 222:/home/cuil/workspace/arm/lm3s811/TI_Stellaris/driverlib/usb.c **** //!
 223:/home/cuil/workspace/arm/lm3s811/TI_Stellaris/driverlib/usb.c **** //! \return None.
 224:/home/cuil/workspace/arm/lm3s811/TI_Stellaris/driverlib/usb.c **** //
 225:/home/cuil/workspace/arm/lm3s811/TI_Stellaris/driverlib/usb.c **** //*****************************************************************************
 226:/home/cuil/workspace/arm/lm3s811/TI_Stellaris/driverlib/usb.c **** void
 227:/home/cuil/workspace/arm/lm3s811/TI_Stellaris/driverlib/usb.c **** USBHostSuspend(unsigned long ulBase)
 228:/home/cuil/workspace/arm/lm3s811/TI_Stellaris/driverlib/usb.c **** {
 9610              		.loc 1 228 0
 9611              		.cfi_startproc
 9612              		@ args = 0, pretend = 0, frame = 8
 9613              		@ frame_needed = 1, uses_anonymous_args = 0
 9614              		@ link register save eliminated.
 9615 0000 80B4     		push	{r7}
 9616              	.LCFI6:
 9617              		.cfi_def_cfa_offset 4
 9618 0002 83B0     		sub	sp, sp, #12
 9619              	.LCFI7:
 9620              		.cfi_def_cfa_offset 16
 9621 0004 00AF     		add	r7, sp, #0
 9622              		.cfi_offset 7, -4
 9623              	.LCFI8:
 9624              		.cfi_def_cfa_register 7
 9625 0006 7860     		str	r0, [r7, #4]
 229:/home/cuil/workspace/arm/lm3s811/TI_Stellaris/driverlib/usb.c ****     //
 230:/home/cuil/workspace/arm/lm3s811/TI_Stellaris/driverlib/usb.c ****     // Check the arguments.
 231:/home/cuil/workspace/arm/lm3s811/TI_Stellaris/driverlib/usb.c ****     //
 232:/home/cuil/workspace/arm/lm3s811/TI_Stellaris/driverlib/usb.c ****     ASSERT(ulBase == USB0_BASE);
 233:/home/cuil/workspace/arm/lm3s811/TI_Stellaris/driverlib/usb.c **** 
 234:/home/cuil/workspace/arm/lm3s811/TI_Stellaris/driverlib/usb.c ****     //
 235:/home/cuil/workspace/arm/lm3s811/TI_Stellaris/driverlib/usb.c ****     // Send the suspend signaling to the USB bus.
 236:/home/cuil/workspace/arm/lm3s811/TI_Stellaris/driverlib/usb.c ****     //
 237:/home/cuil/workspace/arm/lm3s811/TI_Stellaris/driverlib/usb.c ****     HWREGB(ulBase + USB_O_POWER) |= USB_POWER_SUSPEND;
 9626              		.loc 1 237 0
 9627 0008 7B68     		ldr	r3, [r7, #4]
 9628 000a 03F10103 		add	r3, r3, #1
 9629 000e 7A68     		ldr	r2, [r7, #4]
 9630 0010 02F10102 		add	r2, r2, #1
 9631 0014 1278     		ldrb	r2, [r2, #0]
 9632 0016 D2B2     		uxtb	r2, r2
 9633 0018 42F00202 		orr	r2, r2, #2
 9634 001c D2B2     		uxtb	r2, r2
 9635 001e 1A70     		strb	r2, [r3, #0]
 238:/home/cuil/workspace/arm/lm3s811/TI_Stellaris/driverlib/usb.c **** }
 9636              		.loc 1 238 0
 9637 0020 07F10C07 		add	r7, r7, #12
 9638 0024 BD46     		mov	sp, r7
 9639 0026 80BC     		pop	{r7}
 9640 0028 7047     		bx	lr
 9641              		.cfi_endproc
 9642              	.LFE2:
 9644 002a 00BF     		.section	.text.USBHostReset,"ax",%progbits
 9645              		.align	2
 9646              		.global	USBHostReset
 9647              		.thumb
 9648              		.thumb_func
 9650              	USBHostReset:
 9651              	.LFB3:
 239:/home/cuil/workspace/arm/lm3s811/TI_Stellaris/driverlib/usb.c **** 
 240:/home/cuil/workspace/arm/lm3s811/TI_Stellaris/driverlib/usb.c **** //*****************************************************************************
 241:/home/cuil/workspace/arm/lm3s811/TI_Stellaris/driverlib/usb.c **** //
 242:/home/cuil/workspace/arm/lm3s811/TI_Stellaris/driverlib/usb.c **** //! Handles the USB bus reset condition.
 243:/home/cuil/workspace/arm/lm3s811/TI_Stellaris/driverlib/usb.c **** //!
 244:/home/cuil/workspace/arm/lm3s811/TI_Stellaris/driverlib/usb.c **** //! \param ulBase specifies the USB module base address.
 245:/home/cuil/workspace/arm/lm3s811/TI_Stellaris/driverlib/usb.c **** //! \param bStart specifies whether to start or stop signaling reset on the USB
 246:/home/cuil/workspace/arm/lm3s811/TI_Stellaris/driverlib/usb.c **** //! bus.
 247:/home/cuil/workspace/arm/lm3s811/TI_Stellaris/driverlib/usb.c **** //!
 248:/home/cuil/workspace/arm/lm3s811/TI_Stellaris/driverlib/usb.c **** //! When this function is called with the \e bStart parameter set to \b true,
 249:/home/cuil/workspace/arm/lm3s811/TI_Stellaris/driverlib/usb.c **** //! this function causes the start of a reset condition on the USB bus.
 250:/home/cuil/workspace/arm/lm3s811/TI_Stellaris/driverlib/usb.c **** //! The caller should then delay at least 20ms before calling this function
 251:/home/cuil/workspace/arm/lm3s811/TI_Stellaris/driverlib/usb.c **** //! again with the \e bStart parameter set to \b false.
 252:/home/cuil/workspace/arm/lm3s811/TI_Stellaris/driverlib/usb.c **** //!
 253:/home/cuil/workspace/arm/lm3s811/TI_Stellaris/driverlib/usb.c **** //! \note This function should only be called in host mode.
 254:/home/cuil/workspace/arm/lm3s811/TI_Stellaris/driverlib/usb.c **** //!
 255:/home/cuil/workspace/arm/lm3s811/TI_Stellaris/driverlib/usb.c **** //! \return None.
 256:/home/cuil/workspace/arm/lm3s811/TI_Stellaris/driverlib/usb.c **** //
 257:/home/cuil/workspace/arm/lm3s811/TI_Stellaris/driverlib/usb.c **** //*****************************************************************************
 258:/home/cuil/workspace/arm/lm3s811/TI_Stellaris/driverlib/usb.c **** void
 259:/home/cuil/workspace/arm/lm3s811/TI_Stellaris/driverlib/usb.c **** USBHostReset(unsigned long ulBase, tBoolean bStart)
 260:/home/cuil/workspace/arm/lm3s811/TI_Stellaris/driverlib/usb.c **** {
 9652              		.loc 1 260 0
 9653              		.cfi_startproc
 9654              		@ args = 0, pretend = 0, frame = 8
 9655              		@ frame_needed = 1, uses_anonymous_args = 0
 9656              		@ link register save eliminated.
 9657 0000 80B4     		push	{r7}
 9658              	.LCFI9:
 9659              		.cfi_def_cfa_offset 4
 9660 0002 83B0     		sub	sp, sp, #12
 9661              	.LCFI10:
 9662              		.cfi_def_cfa_offset 16
 9663 0004 00AF     		add	r7, sp, #0
 9664              		.cfi_offset 7, -4
 9665              	.LCFI11:
 9666              		.cfi_def_cfa_register 7
 9667 0006 7860     		str	r0, [r7, #4]
 9668 0008 0B46     		mov	r3, r1
 9669 000a FB70     		strb	r3, [r7, #3]
 261:/home/cuil/workspace/arm/lm3s811/TI_Stellaris/driverlib/usb.c ****     //
 262:/home/cuil/workspace/arm/lm3s811/TI_Stellaris/driverlib/usb.c ****     // Check the arguments.
 263:/home/cuil/workspace/arm/lm3s811/TI_Stellaris/driverlib/usb.c ****     //
 264:/home/cuil/workspace/arm/lm3s811/TI_Stellaris/driverlib/usb.c ****     ASSERT(ulBase == USB0_BASE);
 265:/home/cuil/workspace/arm/lm3s811/TI_Stellaris/driverlib/usb.c **** 
 266:/home/cuil/workspace/arm/lm3s811/TI_Stellaris/driverlib/usb.c ****     //
 267:/home/cuil/workspace/arm/lm3s811/TI_Stellaris/driverlib/usb.c ****     // Send a reset signal to the bus.
 268:/home/cuil/workspace/arm/lm3s811/TI_Stellaris/driverlib/usb.c ****     //
 269:/home/cuil/workspace/arm/lm3s811/TI_Stellaris/driverlib/usb.c ****     if(bStart)
 9670              		.loc 1 269 0
 9671 000c FB78     		ldrb	r3, [r7, #3]	@ zero_extendqisi2
 9672 000e 002B     		cmp	r3, #0
 9673 0010 0CD0     		beq	.L9
 270:/home/cuil/workspace/arm/lm3s811/TI_Stellaris/driverlib/usb.c ****     {
 271:/home/cuil/workspace/arm/lm3s811/TI_Stellaris/driverlib/usb.c ****         HWREGB(ulBase + USB_O_POWER) |= USB_POWER_RESET;
 9674              		.loc 1 271 0
 9675 0012 7B68     		ldr	r3, [r7, #4]
 9676 0014 03F10103 		add	r3, r3, #1
 9677 0018 7A68     		ldr	r2, [r7, #4]
 9678 001a 02F10102 		add	r2, r2, #1
 9679 001e 1278     		ldrb	r2, [r2, #0]
 9680 0020 D2B2     		uxtb	r2, r2
 9681 0022 42F00802 		orr	r2, r2, #8
 9682 0026 D2B2     		uxtb	r2, r2
 9683 0028 1A70     		strb	r2, [r3, #0]
 9684 002a 0BE0     		b	.L8
 9685              	.L9:
 272:/home/cuil/workspace/arm/lm3s811/TI_Stellaris/driverlib/usb.c ****     }
 273:/home/cuil/workspace/arm/lm3s811/TI_Stellaris/driverlib/usb.c ****     else
 274:/home/cuil/workspace/arm/lm3s811/TI_Stellaris/driverlib/usb.c ****     {
 275:/home/cuil/workspace/arm/lm3s811/TI_Stellaris/driverlib/usb.c ****         HWREGB(ulBase + USB_O_POWER) &= ~USB_POWER_RESET;
 9686              		.loc 1 275 0
 9687 002c 7B68     		ldr	r3, [r7, #4]
 9688 002e 03F10103 		add	r3, r3, #1
 9689 0032 7A68     		ldr	r2, [r7, #4]
 9690 0034 02F10102 		add	r2, r2, #1
 9691 0038 1278     		ldrb	r2, [r2, #0]
 9692 003a D2B2     		uxtb	r2, r2
 9693 003c 22F00802 		bic	r2, r2, #8
 9694 0040 D2B2     		uxtb	r2, r2
 9695 0042 1A70     		strb	r2, [r3, #0]
 9696              	.L8:
 276:/home/cuil/workspace/arm/lm3s811/TI_Stellaris/driverlib/usb.c ****     }
 277:/home/cuil/workspace/arm/lm3s811/TI_Stellaris/driverlib/usb.c **** }
 9697              		.loc 1 277 0
 9698 0044 07F10C07 		add	r7, r7, #12
 9699 0048 BD46     		mov	sp, r7
 9700 004a 80BC     		pop	{r7}
 9701 004c 7047     		bx	lr
 9702              		.cfi_endproc
 9703              	.LFE3:
 9705 004e 00BF     		.section	.text.USBHostResume,"ax",%progbits
 9706              		.align	2
 9707              		.global	USBHostResume
 9708              		.thumb
 9709              		.thumb_func
 9711              	USBHostResume:
 9712              	.LFB4:
 278:/home/cuil/workspace/arm/lm3s811/TI_Stellaris/driverlib/usb.c **** 
 279:/home/cuil/workspace/arm/lm3s811/TI_Stellaris/driverlib/usb.c **** //*****************************************************************************
 280:/home/cuil/workspace/arm/lm3s811/TI_Stellaris/driverlib/usb.c **** //
 281:/home/cuil/workspace/arm/lm3s811/TI_Stellaris/driverlib/usb.c **** //! Handles the USB bus resume condition.
 282:/home/cuil/workspace/arm/lm3s811/TI_Stellaris/driverlib/usb.c **** //!
 283:/home/cuil/workspace/arm/lm3s811/TI_Stellaris/driverlib/usb.c **** //! \param ulBase specifies the USB module base address.
 284:/home/cuil/workspace/arm/lm3s811/TI_Stellaris/driverlib/usb.c **** //! \param bStart specifies if the USB controller is entering or leaving the
 285:/home/cuil/workspace/arm/lm3s811/TI_Stellaris/driverlib/usb.c **** //! resume signaling state.
 286:/home/cuil/workspace/arm/lm3s811/TI_Stellaris/driverlib/usb.c **** //!
 287:/home/cuil/workspace/arm/lm3s811/TI_Stellaris/driverlib/usb.c **** //! When in device mode, this function brings the USB controller out of the
 288:/home/cuil/workspace/arm/lm3s811/TI_Stellaris/driverlib/usb.c **** //! suspend state.  This call should first be made with the \e bStart parameter
 289:/home/cuil/workspace/arm/lm3s811/TI_Stellaris/driverlib/usb.c **** //! set to \b true to start resume signaling.  The device application should
 290:/home/cuil/workspace/arm/lm3s811/TI_Stellaris/driverlib/usb.c **** //! then delay at least 10ms but not more than 15ms before calling this
 291:/home/cuil/workspace/arm/lm3s811/TI_Stellaris/driverlib/usb.c **** //! function with the \e bStart parameter set to \b false.
 292:/home/cuil/workspace/arm/lm3s811/TI_Stellaris/driverlib/usb.c **** //!
 293:/home/cuil/workspace/arm/lm3s811/TI_Stellaris/driverlib/usb.c **** //! When in host mode, this function signals devices to leave the suspend
 294:/home/cuil/workspace/arm/lm3s811/TI_Stellaris/driverlib/usb.c **** //! state.  This call should first be made with the \e bStart parameter set to
 295:/home/cuil/workspace/arm/lm3s811/TI_Stellaris/driverlib/usb.c **** //! \b true to start resume signaling.  The host application should then delay
 296:/home/cuil/workspace/arm/lm3s811/TI_Stellaris/driverlib/usb.c **** //! at least 20ms before calling this function with the \e bStart parameter set
 297:/home/cuil/workspace/arm/lm3s811/TI_Stellaris/driverlib/usb.c **** //! to \b false.  This action causes the controller to complete the resume
 298:/home/cuil/workspace/arm/lm3s811/TI_Stellaris/driverlib/usb.c **** //! signaling on the USB bus.
 299:/home/cuil/workspace/arm/lm3s811/TI_Stellaris/driverlib/usb.c **** //!
 300:/home/cuil/workspace/arm/lm3s811/TI_Stellaris/driverlib/usb.c **** //! \return None.
 301:/home/cuil/workspace/arm/lm3s811/TI_Stellaris/driverlib/usb.c **** //
 302:/home/cuil/workspace/arm/lm3s811/TI_Stellaris/driverlib/usb.c **** //*****************************************************************************
 303:/home/cuil/workspace/arm/lm3s811/TI_Stellaris/driverlib/usb.c **** void
 304:/home/cuil/workspace/arm/lm3s811/TI_Stellaris/driverlib/usb.c **** USBHostResume(unsigned long ulBase, tBoolean bStart)
 305:/home/cuil/workspace/arm/lm3s811/TI_Stellaris/driverlib/usb.c **** {
 9713              		.loc 1 305 0
 9714              		.cfi_startproc
 9715              		@ args = 0, pretend = 0, frame = 8
 9716              		@ frame_needed = 1, uses_anonymous_args = 0
 9717              		@ link register save eliminated.
 9718 0000 80B4     		push	{r7}
 9719              	.LCFI12:
 9720              		.cfi_def_cfa_offset 4
 9721 0002 83B0     		sub	sp, sp, #12
 9722              	.LCFI13:
 9723              		.cfi_def_cfa_offset 16
 9724 0004 00AF     		add	r7, sp, #0
 9725              		.cfi_offset 7, -4
 9726              	.LCFI14:
 9727              		.cfi_def_cfa_register 7
 9728 0006 7860     		str	r0, [r7, #4]
 9729 0008 0B46     		mov	r3, r1
 9730 000a FB70     		strb	r3, [r7, #3]
 306:/home/cuil/workspace/arm/lm3s811/TI_Stellaris/driverlib/usb.c ****     //
 307:/home/cuil/workspace/arm/lm3s811/TI_Stellaris/driverlib/usb.c ****     // Check the arguments.
 308:/home/cuil/workspace/arm/lm3s811/TI_Stellaris/driverlib/usb.c ****     //
 309:/home/cuil/workspace/arm/lm3s811/TI_Stellaris/driverlib/usb.c ****     ASSERT(ulBase == USB0_BASE);
 310:/home/cuil/workspace/arm/lm3s811/TI_Stellaris/driverlib/usb.c **** 
 311:/home/cuil/workspace/arm/lm3s811/TI_Stellaris/driverlib/usb.c ****     //
 312:/home/cuil/workspace/arm/lm3s811/TI_Stellaris/driverlib/usb.c ****     // Send a resume signal to the bus.
 313:/home/cuil/workspace/arm/lm3s811/TI_Stellaris/driverlib/usb.c ****     //
 314:/home/cuil/workspace/arm/lm3s811/TI_Stellaris/driverlib/usb.c ****     if(bStart)
 9731              		.loc 1 314 0
 9732 000c FB78     		ldrb	r3, [r7, #3]	@ zero_extendqisi2
 9733 000e 002B     		cmp	r3, #0
 9734 0010 0CD0     		beq	.L12
 315:/home/cuil/workspace/arm/lm3s811/TI_Stellaris/driverlib/usb.c ****     {
 316:/home/cuil/workspace/arm/lm3s811/TI_Stellaris/driverlib/usb.c ****         HWREGB(ulBase + USB_O_POWER) |= USB_POWER_RESUME;
 9735              		.loc 1 316 0
 9736 0012 7B68     		ldr	r3, [r7, #4]
 9737 0014 03F10103 		add	r3, r3, #1
 9738 0018 7A68     		ldr	r2, [r7, #4]
 9739 001a 02F10102 		add	r2, r2, #1
 9740 001e 1278     		ldrb	r2, [r2, #0]
 9741 0020 D2B2     		uxtb	r2, r2
 9742 0022 42F00402 		orr	r2, r2, #4
 9743 0026 D2B2     		uxtb	r2, r2
 9744 0028 1A70     		strb	r2, [r3, #0]
 9745 002a 0BE0     		b	.L11
 9746              	.L12:
 317:/home/cuil/workspace/arm/lm3s811/TI_Stellaris/driverlib/usb.c ****     }
 318:/home/cuil/workspace/arm/lm3s811/TI_Stellaris/driverlib/usb.c ****     else
 319:/home/cuil/workspace/arm/lm3s811/TI_Stellaris/driverlib/usb.c ****     {
 320:/home/cuil/workspace/arm/lm3s811/TI_Stellaris/driverlib/usb.c ****         HWREGB(ulBase + USB_O_POWER) &= ~USB_POWER_RESUME;
 9747              		.loc 1 320 0
 9748 002c 7B68     		ldr	r3, [r7, #4]
 9749 002e 03F10103 		add	r3, r3, #1
 9750 0032 7A68     		ldr	r2, [r7, #4]
 9751 0034 02F10102 		add	r2, r2, #1
 9752 0038 1278     		ldrb	r2, [r2, #0]
 9753 003a D2B2     		uxtb	r2, r2
 9754 003c 22F00402 		bic	r2, r2, #4
 9755 0040 D2B2     		uxtb	r2, r2
 9756 0042 1A70     		strb	r2, [r3, #0]
 9757              	.L11:
 321:/home/cuil/workspace/arm/lm3s811/TI_Stellaris/driverlib/usb.c ****     }
 322:/home/cuil/workspace/arm/lm3s811/TI_Stellaris/driverlib/usb.c **** }
 9758              		.loc 1 322 0
 9759 0044 07F10C07 		add	r7, r7, #12
 9760 0048 BD46     		mov	sp, r7
 9761 004a 80BC     		pop	{r7}
 9762 004c 7047     		bx	lr
 9763              		.cfi_endproc
 9764              	.LFE4:
 9766 004e 00BF     		.section	.text.USBHostSpeedGet,"ax",%progbits
 9767              		.align	2
 9768              		.global	USBHostSpeedGet
 9769              		.thumb
 9770              		.thumb_func
 9772              	USBHostSpeedGet:
 9773              	.LFB5:
 323:/home/cuil/workspace/arm/lm3s811/TI_Stellaris/driverlib/usb.c **** 
 324:/home/cuil/workspace/arm/lm3s811/TI_Stellaris/driverlib/usb.c **** //*****************************************************************************
 325:/home/cuil/workspace/arm/lm3s811/TI_Stellaris/driverlib/usb.c **** //
 326:/home/cuil/workspace/arm/lm3s811/TI_Stellaris/driverlib/usb.c **** //! Returns the current speed of the USB device connected.
 327:/home/cuil/workspace/arm/lm3s811/TI_Stellaris/driverlib/usb.c **** //!
 328:/home/cuil/workspace/arm/lm3s811/TI_Stellaris/driverlib/usb.c **** //! \param ulBase specifies the USB module base address.
 329:/home/cuil/workspace/arm/lm3s811/TI_Stellaris/driverlib/usb.c **** //!
 330:/home/cuil/workspace/arm/lm3s811/TI_Stellaris/driverlib/usb.c **** //! This function returns the current speed of the USB bus.
 331:/home/cuil/workspace/arm/lm3s811/TI_Stellaris/driverlib/usb.c **** //!
 332:/home/cuil/workspace/arm/lm3s811/TI_Stellaris/driverlib/usb.c **** //! \note This function should only be called in host mode.
 333:/home/cuil/workspace/arm/lm3s811/TI_Stellaris/driverlib/usb.c **** //!
 334:/home/cuil/workspace/arm/lm3s811/TI_Stellaris/driverlib/usb.c **** //! \return Returns either \b USB_LOW_SPEED, \b USB_FULL_SPEED, or
 335:/home/cuil/workspace/arm/lm3s811/TI_Stellaris/driverlib/usb.c **** //! \b USB_UNDEF_SPEED.
 336:/home/cuil/workspace/arm/lm3s811/TI_Stellaris/driverlib/usb.c **** //
 337:/home/cuil/workspace/arm/lm3s811/TI_Stellaris/driverlib/usb.c **** //*****************************************************************************
 338:/home/cuil/workspace/arm/lm3s811/TI_Stellaris/driverlib/usb.c **** unsigned long
 339:/home/cuil/workspace/arm/lm3s811/TI_Stellaris/driverlib/usb.c **** USBHostSpeedGet(unsigned long ulBase)
 340:/home/cuil/workspace/arm/lm3s811/TI_Stellaris/driverlib/usb.c **** {
 9774              		.loc 1 340 0
 9775              		.cfi_startproc
 9776              		@ args = 0, pretend = 0, frame = 8
 9777              		@ frame_needed = 1, uses_anonymous_args = 0
 9778              		@ link register save eliminated.
 9779 0000 80B4     		push	{r7}
 9780              	.LCFI15:
 9781              		.cfi_def_cfa_offset 4
 9782 0002 83B0     		sub	sp, sp, #12
 9783              	.LCFI16:
 9784              		.cfi_def_cfa_offset 16
 9785 0004 00AF     		add	r7, sp, #0
 9786              		.cfi_offset 7, -4
 9787              	.LCFI17:
 9788              		.cfi_def_cfa_register 7
 9789 0006 7860     		str	r0, [r7, #4]
 341:/home/cuil/workspace/arm/lm3s811/TI_Stellaris/driverlib/usb.c ****     //
 342:/home/cuil/workspace/arm/lm3s811/TI_Stellaris/driverlib/usb.c ****     // Check the arguments.
 343:/home/cuil/workspace/arm/lm3s811/TI_Stellaris/driverlib/usb.c ****     //
 344:/home/cuil/workspace/arm/lm3s811/TI_Stellaris/driverlib/usb.c ****     ASSERT(ulBase == USB0_BASE);
 345:/home/cuil/workspace/arm/lm3s811/TI_Stellaris/driverlib/usb.c **** 
 346:/home/cuil/workspace/arm/lm3s811/TI_Stellaris/driverlib/usb.c ****     //
 347:/home/cuil/workspace/arm/lm3s811/TI_Stellaris/driverlib/usb.c ****     // If the Full Speed device bit is set, then this is a full speed device.
 348:/home/cuil/workspace/arm/lm3s811/TI_Stellaris/driverlib/usb.c ****     //
 349:/home/cuil/workspace/arm/lm3s811/TI_Stellaris/driverlib/usb.c ****     if(HWREGB(ulBase + USB_O_DEVCTL) & USB_DEVCTL_FSDEV)
 9790              		.loc 1 349 0
 9791 0008 7B68     		ldr	r3, [r7, #4]
 9792 000a 03F16003 		add	r3, r3, #96
 9793 000e 1B78     		ldrb	r3, [r3, #0]
 9794 0010 DBB2     		uxtb	r3, r3
 9795 0012 03F04003 		and	r3, r3, #64
 9796 0016 002B     		cmp	r3, #0
 9797 0018 02D0     		beq	.L15
 350:/home/cuil/workspace/arm/lm3s811/TI_Stellaris/driverlib/usb.c ****     {
 351:/home/cuil/workspace/arm/lm3s811/TI_Stellaris/driverlib/usb.c ****         return(USB_FULL_SPEED);
 9798              		.loc 1 351 0
 9799 001a 4FF00103 		mov	r3, #1
 9800 001e 0DE0     		b	.L16
 9801              	.L15:
 352:/home/cuil/workspace/arm/lm3s811/TI_Stellaris/driverlib/usb.c ****     }
 353:/home/cuil/workspace/arm/lm3s811/TI_Stellaris/driverlib/usb.c **** 
 354:/home/cuil/workspace/arm/lm3s811/TI_Stellaris/driverlib/usb.c ****     //
 355:/home/cuil/workspace/arm/lm3s811/TI_Stellaris/driverlib/usb.c ****     // If the Low Speed device bit is set, then this is a low speed device.
 356:/home/cuil/workspace/arm/lm3s811/TI_Stellaris/driverlib/usb.c ****     //
 357:/home/cuil/workspace/arm/lm3s811/TI_Stellaris/driverlib/usb.c ****     if(HWREGB(ulBase + USB_O_DEVCTL) & USB_DEVCTL_LSDEV)
 9802              		.loc 1 357 0
 9803 0020 7B68     		ldr	r3, [r7, #4]
 9804 0022 03F16003 		add	r3, r3, #96
 9805 0026 1B78     		ldrb	r3, [r3, #0]
 9806 0028 DBB2     		uxtb	r3, r3
 9807 002a 03F02003 		and	r3, r3, #32
 9808 002e 002B     		cmp	r3, #0
 9809 0030 02D0     		beq	.L17
 358:/home/cuil/workspace/arm/lm3s811/TI_Stellaris/driverlib/usb.c ****     {
 359:/home/cuil/workspace/arm/lm3s811/TI_Stellaris/driverlib/usb.c ****         return(USB_LOW_SPEED);
 9810              		.loc 1 359 0
 9811 0032 4FF00003 		mov	r3, #0
 9812 0036 01E0     		b	.L16
 9813              	.L17:
 360:/home/cuil/workspace/arm/lm3s811/TI_Stellaris/driverlib/usb.c ****     }
 361:/home/cuil/workspace/arm/lm3s811/TI_Stellaris/driverlib/usb.c **** 
 362:/home/cuil/workspace/arm/lm3s811/TI_Stellaris/driverlib/usb.c ****     //
 363:/home/cuil/workspace/arm/lm3s811/TI_Stellaris/driverlib/usb.c ****     // The device speed is not known.
 364:/home/cuil/workspace/arm/lm3s811/TI_Stellaris/driverlib/usb.c ****     //
 365:/home/cuil/workspace/arm/lm3s811/TI_Stellaris/driverlib/usb.c ****     return(USB_UNDEF_SPEED);
 9814              		.loc 1 365 0
 9815 0038 4FF00043 		mov	r3, #-2147483648
 9816              	.L16:
 366:/home/cuil/workspace/arm/lm3s811/TI_Stellaris/driverlib/usb.c **** }
 9817              		.loc 1 366 0
 9818 003c 1846     		mov	r0, r3
 9819 003e 07F10C07 		add	r7, r7, #12
 9820 0042 BD46     		mov	sp, r7
 9821 0044 80BC     		pop	{r7}
 9822 0046 7047     		bx	lr
 9823              		.cfi_endproc
 9824              	.LFE5:
 9826              		.section	.text.USBIntStatus,"ax",%progbits
 9827              		.align	2
 9828              		.global	USBIntStatus
 9829              		.thumb
 9830              		.thumb_func
 9832              	USBIntStatus:
 9833              	.LFB6:
 367:/home/cuil/workspace/arm/lm3s811/TI_Stellaris/driverlib/usb.c **** 
 368:/home/cuil/workspace/arm/lm3s811/TI_Stellaris/driverlib/usb.c **** //*****************************************************************************
 369:/home/cuil/workspace/arm/lm3s811/TI_Stellaris/driverlib/usb.c **** //
 370:/home/cuil/workspace/arm/lm3s811/TI_Stellaris/driverlib/usb.c **** //! Returns the status of the USB interrupts.
 371:/home/cuil/workspace/arm/lm3s811/TI_Stellaris/driverlib/usb.c **** //!
 372:/home/cuil/workspace/arm/lm3s811/TI_Stellaris/driverlib/usb.c **** //! \param ulBase specifies the USB module base address.
 373:/home/cuil/workspace/arm/lm3s811/TI_Stellaris/driverlib/usb.c **** //!
 374:/home/cuil/workspace/arm/lm3s811/TI_Stellaris/driverlib/usb.c **** //! This function reads the source of the interrupt for the USB controller.
 375:/home/cuil/workspace/arm/lm3s811/TI_Stellaris/driverlib/usb.c **** //! There are three groups of interrupt sources, IN Endpoints, OUT Endpoints,
 376:/home/cuil/workspace/arm/lm3s811/TI_Stellaris/driverlib/usb.c **** //! and general status changes.  This call returns the current status for
 377:/home/cuil/workspace/arm/lm3s811/TI_Stellaris/driverlib/usb.c **** //! all of these interrupts.  The bit values returned should be compared
 378:/home/cuil/workspace/arm/lm3s811/TI_Stellaris/driverlib/usb.c **** //! against the \b USB_HOST_IN, \b USB_HOST_OUT, \b USB_HOST_EP0,
 379:/home/cuil/workspace/arm/lm3s811/TI_Stellaris/driverlib/usb.c **** //! \b USB_DEV_IN, \b USB_DEV_OUT, and \b USB_DEV_EP0 values.
 380:/home/cuil/workspace/arm/lm3s811/TI_Stellaris/driverlib/usb.c **** //!
 381:/home/cuil/workspace/arm/lm3s811/TI_Stellaris/driverlib/usb.c **** //! \note This call clears the source of all of the general status interrupts.
 382:/home/cuil/workspace/arm/lm3s811/TI_Stellaris/driverlib/usb.c **** //! 
 383:/home/cuil/workspace/arm/lm3s811/TI_Stellaris/driverlib/usb.c **** //! \note WARNING: This API cannot be used on endpoint numbers greater than
 384:/home/cuil/workspace/arm/lm3s811/TI_Stellaris/driverlib/usb.c **** //! endpoint 3 so USBIntStatusControl() or USBIntStatusEndpoint() should be
 385:/home/cuil/workspace/arm/lm3s811/TI_Stellaris/driverlib/usb.c **** //! used instead.
 386:/home/cuil/workspace/arm/lm3s811/TI_Stellaris/driverlib/usb.c **** //!
 387:/home/cuil/workspace/arm/lm3s811/TI_Stellaris/driverlib/usb.c **** //! \return Returns the status of the sources for the USB controller's
 388:/home/cuil/workspace/arm/lm3s811/TI_Stellaris/driverlib/usb.c **** //! interrupt.
 389:/home/cuil/workspace/arm/lm3s811/TI_Stellaris/driverlib/usb.c **** //
 390:/home/cuil/workspace/arm/lm3s811/TI_Stellaris/driverlib/usb.c **** //*****************************************************************************
 391:/home/cuil/workspace/arm/lm3s811/TI_Stellaris/driverlib/usb.c **** #ifndef DEPRECATED
 392:/home/cuil/workspace/arm/lm3s811/TI_Stellaris/driverlib/usb.c **** unsigned long
 393:/home/cuil/workspace/arm/lm3s811/TI_Stellaris/driverlib/usb.c **** USBIntStatus(unsigned long ulBase)
 394:/home/cuil/workspace/arm/lm3s811/TI_Stellaris/driverlib/usb.c **** {
 9834              		.loc 1 394 0
 9835              		.cfi_startproc
 9836              		@ args = 0, pretend = 0, frame = 16
 9837              		@ frame_needed = 1, uses_anonymous_args = 0
 9838              		@ link register save eliminated.
 9839 0000 80B4     		push	{r7}
 9840              	.LCFI18:
 9841              		.cfi_def_cfa_offset 4
 9842 0002 85B0     		sub	sp, sp, #20
 9843              	.LCFI19:
 9844              		.cfi_def_cfa_offset 24
 9845 0004 00AF     		add	r7, sp, #0
 9846              		.cfi_offset 7, -4
 9847              	.LCFI20:
 9848              		.cfi_def_cfa_register 7
 9849 0006 7860     		str	r0, [r7, #4]
 395:/home/cuil/workspace/arm/lm3s811/TI_Stellaris/driverlib/usb.c ****     unsigned long ulStatus;
 396:/home/cuil/workspace/arm/lm3s811/TI_Stellaris/driverlib/usb.c **** 
 397:/home/cuil/workspace/arm/lm3s811/TI_Stellaris/driverlib/usb.c ****     //
 398:/home/cuil/workspace/arm/lm3s811/TI_Stellaris/driverlib/usb.c ****     // Check the arguments.
 399:/home/cuil/workspace/arm/lm3s811/TI_Stellaris/driverlib/usb.c ****     //
 400:/home/cuil/workspace/arm/lm3s811/TI_Stellaris/driverlib/usb.c ****     ASSERT(ulBase == USB0_BASE);
 401:/home/cuil/workspace/arm/lm3s811/TI_Stellaris/driverlib/usb.c **** 
 402:/home/cuil/workspace/arm/lm3s811/TI_Stellaris/driverlib/usb.c ****     //
 403:/home/cuil/workspace/arm/lm3s811/TI_Stellaris/driverlib/usb.c ****     // Get the transmit interrupt status.
 404:/home/cuil/workspace/arm/lm3s811/TI_Stellaris/driverlib/usb.c ****     //
 405:/home/cuil/workspace/arm/lm3s811/TI_Stellaris/driverlib/usb.c ****     ulStatus = (HWREGB(ulBase + USB_O_TXIS));
 9850              		.loc 1 405 0
 9851 0008 7B68     		ldr	r3, [r7, #4]
 9852 000a 03F10203 		add	r3, r3, #2
 9853 000e 1B78     		ldrb	r3, [r3, #0]
 9854 0010 DBB2     		uxtb	r3, r3
 9855 0012 FB60     		str	r3, [r7, #12]
 406:/home/cuil/workspace/arm/lm3s811/TI_Stellaris/driverlib/usb.c **** 
 407:/home/cuil/workspace/arm/lm3s811/TI_Stellaris/driverlib/usb.c ****     //
 408:/home/cuil/workspace/arm/lm3s811/TI_Stellaris/driverlib/usb.c ****     // Get the receive interrupt status, these bits go into the second byte of
 409:/home/cuil/workspace/arm/lm3s811/TI_Stellaris/driverlib/usb.c ****     // the returned value.
 410:/home/cuil/workspace/arm/lm3s811/TI_Stellaris/driverlib/usb.c ****     //
 411:/home/cuil/workspace/arm/lm3s811/TI_Stellaris/driverlib/usb.c ****     ulStatus |= (HWREGB(ulBase + USB_O_RXIS) << USB_INT_RX_SHIFT);
 9856              		.loc 1 411 0
 9857 0014 7B68     		ldr	r3, [r7, #4]
 9858 0016 03F10403 		add	r3, r3, #4
 9859 001a 1B78     		ldrb	r3, [r3, #0]
 9860 001c DBB2     		uxtb	r3, r3
 9861 001e 4FEA0323 		lsl	r3, r3, #8
 9862 0022 FA68     		ldr	r2, [r7, #12]
 9863 0024 42EA0303 		orr	r3, r2, r3
 9864 0028 FB60     		str	r3, [r7, #12]
 412:/home/cuil/workspace/arm/lm3s811/TI_Stellaris/driverlib/usb.c **** 
 413:/home/cuil/workspace/arm/lm3s811/TI_Stellaris/driverlib/usb.c ****     //
 414:/home/cuil/workspace/arm/lm3s811/TI_Stellaris/driverlib/usb.c ****     // Get the general interrupt status, these bits go into the upper 8 bits
 415:/home/cuil/workspace/arm/lm3s811/TI_Stellaris/driverlib/usb.c ****     // of the returned value.
 416:/home/cuil/workspace/arm/lm3s811/TI_Stellaris/driverlib/usb.c ****     //
 417:/home/cuil/workspace/arm/lm3s811/TI_Stellaris/driverlib/usb.c ****     ulStatus |= (HWREGB(ulBase + USB_O_IS) << USB_INT_STATUS_SHIFT);
 9865              		.loc 1 417 0
 9866 002a 7B68     		ldr	r3, [r7, #4]
 9867 002c 03F10A03 		add	r3, r3, #10
 9868 0030 1B78     		ldrb	r3, [r3, #0]
 9869 0032 DBB2     		uxtb	r3, r3
 9870 0034 4FEA0363 		lsl	r3, r3, #24
 9871 0038 FA68     		ldr	r2, [r7, #12]
 9872 003a 42EA0303 		orr	r3, r2, r3
 9873 003e FB60     		str	r3, [r7, #12]
 418:/home/cuil/workspace/arm/lm3s811/TI_Stellaris/driverlib/usb.c **** 
 419:/home/cuil/workspace/arm/lm3s811/TI_Stellaris/driverlib/usb.c ****     //
 420:/home/cuil/workspace/arm/lm3s811/TI_Stellaris/driverlib/usb.c ****     // Add the power fault status.
 421:/home/cuil/workspace/arm/lm3s811/TI_Stellaris/driverlib/usb.c ****     //
 422:/home/cuil/workspace/arm/lm3s811/TI_Stellaris/driverlib/usb.c ****     if(HWREG(ulBase + USB_O_EPCISC) & USB_EPCISC_PF)
 9874              		.loc 1 422 0
 9875 0040 7B68     		ldr	r3, [r7, #4]
 9876 0042 03F58063 		add	r3, r3, #1024
 9877 0046 03F10C03 		add	r3, r3, #12
 9878 004a 1B68     		ldr	r3, [r3, #0]
 9879 004c 03F00103 		and	r3, r3, #1
 9880 0050 DBB2     		uxtb	r3, r3
 9881 0052 002B     		cmp	r3, #0
 9882 0054 14D0     		beq	.L19
 423:/home/cuil/workspace/arm/lm3s811/TI_Stellaris/driverlib/usb.c ****     {
 424:/home/cuil/workspace/arm/lm3s811/TI_Stellaris/driverlib/usb.c ****         //
 425:/home/cuil/workspace/arm/lm3s811/TI_Stellaris/driverlib/usb.c ****         // Indicate a power fault was detected.
 426:/home/cuil/workspace/arm/lm3s811/TI_Stellaris/driverlib/usb.c ****         //
 427:/home/cuil/workspace/arm/lm3s811/TI_Stellaris/driverlib/usb.c ****         ulStatus |= USB_INT_POWER_FAULT;
 9883              		.loc 1 427 0
 9884 0056 FB68     		ldr	r3, [r7, #12]
 9885 0058 43F48033 		orr	r3, r3, #65536
 9886 005c FB60     		str	r3, [r7, #12]
 428:/home/cuil/workspace/arm/lm3s811/TI_Stellaris/driverlib/usb.c **** 
 429:/home/cuil/workspace/arm/lm3s811/TI_Stellaris/driverlib/usb.c ****         //
 430:/home/cuil/workspace/arm/lm3s811/TI_Stellaris/driverlib/usb.c ****         // Clear the power fault interrupt.
 431:/home/cuil/workspace/arm/lm3s811/TI_Stellaris/driverlib/usb.c ****         //
 432:/home/cuil/workspace/arm/lm3s811/TI_Stellaris/driverlib/usb.c ****         HWREGB(ulBase + USB_O_EPCISC) |= USB_EPCISC_PF;
 9887              		.loc 1 432 0
 9888 005e 7B68     		ldr	r3, [r7, #4]
 9889 0060 03F58063 		add	r3, r3, #1024
 9890 0064 03F10C03 		add	r3, r3, #12
 9891 0068 1A46     		mov	r2, r3
 9892 006a 7B68     		ldr	r3, [r7, #4]
 9893 006c 03F58063 		add	r3, r3, #1024
 9894 0070 03F10C03 		add	r3, r3, #12
 9895 0074 1B78     		ldrb	r3, [r3, #0]
 9896 0076 DBB2     		uxtb	r3, r3
 9897 0078 43F00103 		orr	r3, r3, #1
 9898 007c DBB2     		uxtb	r3, r3
 9899 007e 1370     		strb	r3, [r2, #0]
 9900              	.L19:
 433:/home/cuil/workspace/arm/lm3s811/TI_Stellaris/driverlib/usb.c ****     }
 434:/home/cuil/workspace/arm/lm3s811/TI_Stellaris/driverlib/usb.c **** 
 435:/home/cuil/workspace/arm/lm3s811/TI_Stellaris/driverlib/usb.c ****     if(HWREG(USB0_BASE + USB_O_IDVISC) & USB_IDVRIS_ID)
 9901              		.loc 1 435 0
 9902 0080 0B4B     		ldr	r3, .L21
 9903 0082 1B68     		ldr	r3, [r3, #0]
 9904 0084 03F00103 		and	r3, r3, #1
 9905 0088 DBB2     		uxtb	r3, r3
 9906 008a 002B     		cmp	r3, #0
 9907 008c 09D0     		beq	.L20
 436:/home/cuil/workspace/arm/lm3s811/TI_Stellaris/driverlib/usb.c ****     {
 437:/home/cuil/workspace/arm/lm3s811/TI_Stellaris/driverlib/usb.c ****         //
 438:/home/cuil/workspace/arm/lm3s811/TI_Stellaris/driverlib/usb.c ****         // Indicate an id detection was detected.
 439:/home/cuil/workspace/arm/lm3s811/TI_Stellaris/driverlib/usb.c ****         //
 440:/home/cuil/workspace/arm/lm3s811/TI_Stellaris/driverlib/usb.c ****         ulStatus |= USB_INT_MODE_DETECT;
 9908              		.loc 1 440 0
 9909 008e FB68     		ldr	r3, [r7, #12]
 9910 0090 43F40033 		orr	r3, r3, #131072
 9911 0094 FB60     		str	r3, [r7, #12]
 441:/home/cuil/workspace/arm/lm3s811/TI_Stellaris/driverlib/usb.c **** 
 442:/home/cuil/workspace/arm/lm3s811/TI_Stellaris/driverlib/usb.c ****         //
 443:/home/cuil/workspace/arm/lm3s811/TI_Stellaris/driverlib/usb.c ****         // Clear the id detection interrupt.
 444:/home/cuil/workspace/arm/lm3s811/TI_Stellaris/driverlib/usb.c ****         //
 445:/home/cuil/workspace/arm/lm3s811/TI_Stellaris/driverlib/usb.c ****         HWREG(USB0_BASE + USB_O_IDVISC) |= USB_IDVRIS_ID;
 9912              		.loc 1 445 0
 9913 0096 064B     		ldr	r3, .L21
 9914 0098 054A     		ldr	r2, .L21
 9915 009a 1268     		ldr	r2, [r2, #0]
 9916 009c 42F00102 		orr	r2, r2, #1
 9917 00a0 1A60     		str	r2, [r3, #0]
 9918              	.L20:
 446:/home/cuil/workspace/arm/lm3s811/TI_Stellaris/driverlib/usb.c ****     }
 447:/home/cuil/workspace/arm/lm3s811/TI_Stellaris/driverlib/usb.c **** 
 448:/home/cuil/workspace/arm/lm3s811/TI_Stellaris/driverlib/usb.c ****     //
 449:/home/cuil/workspace/arm/lm3s811/TI_Stellaris/driverlib/usb.c ****     // Return the combined interrupt status.
 450:/home/cuil/workspace/arm/lm3s811/TI_Stellaris/driverlib/usb.c ****     //
 451:/home/cuil/workspace/arm/lm3s811/TI_Stellaris/driverlib/usb.c ****     return(ulStatus);
 9919              		.loc 1 451 0
 9920 00a2 FB68     		ldr	r3, [r7, #12]
 452:/home/cuil/workspace/arm/lm3s811/TI_Stellaris/driverlib/usb.c **** }
 9921              		.loc 1 452 0
 9922 00a4 1846     		mov	r0, r3
 9923 00a6 07F11407 		add	r7, r7, #20
 9924 00aa BD46     		mov	sp, r7
 9925 00ac 80BC     		pop	{r7}
 9926 00ae 7047     		bx	lr
 9927              	.L22:
 9928              		.align	2
 9929              	.L21:
 9930 00b0 4C040540 		.word	1074070604
 9931              		.cfi_endproc
 9932              	.LFE6:
 9934              		.section	.text.USBIntDisable,"ax",%progbits
 9935              		.align	2
 9936              		.global	USBIntDisable
 9937              		.thumb
 9938              		.thumb_func
 9940              	USBIntDisable:
 9941              	.LFB7:
 453:/home/cuil/workspace/arm/lm3s811/TI_Stellaris/driverlib/usb.c **** #endif
 454:/home/cuil/workspace/arm/lm3s811/TI_Stellaris/driverlib/usb.c **** 
 455:/home/cuil/workspace/arm/lm3s811/TI_Stellaris/driverlib/usb.c **** //*****************************************************************************
 456:/home/cuil/workspace/arm/lm3s811/TI_Stellaris/driverlib/usb.c **** //
 457:/home/cuil/workspace/arm/lm3s811/TI_Stellaris/driverlib/usb.c **** //! Disables the sources for USB interrupts.
 458:/home/cuil/workspace/arm/lm3s811/TI_Stellaris/driverlib/usb.c **** //!
 459:/home/cuil/workspace/arm/lm3s811/TI_Stellaris/driverlib/usb.c **** //! \param ulBase specifies the USB module base address.
 460:/home/cuil/workspace/arm/lm3s811/TI_Stellaris/driverlib/usb.c **** //! \param ulFlags specifies which interrupts to disable.
 461:/home/cuil/workspace/arm/lm3s811/TI_Stellaris/driverlib/usb.c **** //!
 462:/home/cuil/workspace/arm/lm3s811/TI_Stellaris/driverlib/usb.c **** //! This function disables the USB controller from generating the
 463:/home/cuil/workspace/arm/lm3s811/TI_Stellaris/driverlib/usb.c **** //! interrupts indicated by the \e ulFlags parameter.  There are three groups
 464:/home/cuil/workspace/arm/lm3s811/TI_Stellaris/driverlib/usb.c **** //! of interrupt sources, IN Endpoints, OUT Endpoints, and general status
 465:/home/cuil/workspace/arm/lm3s811/TI_Stellaris/driverlib/usb.c **** //! changes, specified by \b USB_INT_HOST_IN, \b USB_INT_HOST_OUT,
 466:/home/cuil/workspace/arm/lm3s811/TI_Stellaris/driverlib/usb.c **** //! \b USB_INT_DEV_IN, \b USB_INT_DEV_OUT, and \b USB_INT_STATUS.  If
 467:/home/cuil/workspace/arm/lm3s811/TI_Stellaris/driverlib/usb.c **** //! \b USB_INT_ALL is specified, then all interrupts are disabled.
 468:/home/cuil/workspace/arm/lm3s811/TI_Stellaris/driverlib/usb.c **** //!
 469:/home/cuil/workspace/arm/lm3s811/TI_Stellaris/driverlib/usb.c **** //! \note WARNING: This API cannot be used on endpoint numbers greater than
 470:/home/cuil/workspace/arm/lm3s811/TI_Stellaris/driverlib/usb.c **** //! endpoint 3 so USBIntDisableControl() or USBIntDisableEndpoint() should be
 471:/home/cuil/workspace/arm/lm3s811/TI_Stellaris/driverlib/usb.c **** //! used instead.
 472:/home/cuil/workspace/arm/lm3s811/TI_Stellaris/driverlib/usb.c **** //!
 473:/home/cuil/workspace/arm/lm3s811/TI_Stellaris/driverlib/usb.c **** //! \return None.
 474:/home/cuil/workspace/arm/lm3s811/TI_Stellaris/driverlib/usb.c **** //
 475:/home/cuil/workspace/arm/lm3s811/TI_Stellaris/driverlib/usb.c **** //*****************************************************************************
 476:/home/cuil/workspace/arm/lm3s811/TI_Stellaris/driverlib/usb.c **** #ifndef DEPRECATED
 477:/home/cuil/workspace/arm/lm3s811/TI_Stellaris/driverlib/usb.c **** void
 478:/home/cuil/workspace/arm/lm3s811/TI_Stellaris/driverlib/usb.c **** USBIntDisable(unsigned long ulBase, unsigned long ulFlags)
 479:/home/cuil/workspace/arm/lm3s811/TI_Stellaris/driverlib/usb.c **** {
 9942              		.loc 1 479 0
 9943              		.cfi_startproc
 9944              		@ args = 0, pretend = 0, frame = 8
 9945              		@ frame_needed = 1, uses_anonymous_args = 0
 9946              		@ link register save eliminated.
 9947 0000 80B4     		push	{r7}
 9948              	.LCFI21:
 9949              		.cfi_def_cfa_offset 4
 9950 0002 83B0     		sub	sp, sp, #12
 9951              	.LCFI22:
 9952              		.cfi_def_cfa_offset 16
 9953 0004 00AF     		add	r7, sp, #0
 9954              		.cfi_offset 7, -4
 9955              	.LCFI23:
 9956              		.cfi_def_cfa_register 7
 9957 0006 7860     		str	r0, [r7, #4]
 9958 0008 3960     		str	r1, [r7, #0]
 480:/home/cuil/workspace/arm/lm3s811/TI_Stellaris/driverlib/usb.c ****     //
 481:/home/cuil/workspace/arm/lm3s811/TI_Stellaris/driverlib/usb.c ****     // Check the arguments.
 482:/home/cuil/workspace/arm/lm3s811/TI_Stellaris/driverlib/usb.c ****     //
 483:/home/cuil/workspace/arm/lm3s811/TI_Stellaris/driverlib/usb.c ****     ASSERT(ulBase == USB0_BASE);
 484:/home/cuil/workspace/arm/lm3s811/TI_Stellaris/driverlib/usb.c ****     ASSERT((ulFlags & ~(USB_INT_ALL)) == 0);
 485:/home/cuil/workspace/arm/lm3s811/TI_Stellaris/driverlib/usb.c **** 
 486:/home/cuil/workspace/arm/lm3s811/TI_Stellaris/driverlib/usb.c ****     //
 487:/home/cuil/workspace/arm/lm3s811/TI_Stellaris/driverlib/usb.c ****     // If any transmit interrupts were disabled, then write the transmit
 488:/home/cuil/workspace/arm/lm3s811/TI_Stellaris/driverlib/usb.c ****     // interrupt settings out to the hardware.
 489:/home/cuil/workspace/arm/lm3s811/TI_Stellaris/driverlib/usb.c ****     //
 490:/home/cuil/workspace/arm/lm3s811/TI_Stellaris/driverlib/usb.c ****     if(ulFlags & (USB_INT_HOST_OUT | USB_INT_DEV_IN | USB_INT_EP0))
 9959              		.loc 1 490 0
 9960 000a 3B68     		ldr	r3, [r7, #0]
 9961 000c 03F00F03 		and	r3, r3, #15
 9962 0010 002B     		cmp	r3, #0
 9963 0012 13D0     		beq	.L24
 491:/home/cuil/workspace/arm/lm3s811/TI_Stellaris/driverlib/usb.c ****     {
 492:/home/cuil/workspace/arm/lm3s811/TI_Stellaris/driverlib/usb.c ****         HWREGH(ulBase + USB_O_TXIE) &=
 9964              		.loc 1 492 0
 9965 0014 7B68     		ldr	r3, [r7, #4]
 9966 0016 03F10603 		add	r3, r3, #6
 9967 001a 7A68     		ldr	r2, [r7, #4]
 9968 001c 02F10602 		add	r2, r2, #6
 9969 0020 1288     		ldrh	r2, [r2, #0]	@ movhi
 9970 0022 91B2     		uxth	r1, r2
 9971 0024 3A68     		ldr	r2, [r7, #0]
 9972 0026 92B2     		uxth	r2, r2
 9973 0028 02F00F02 		and	r2, r2, #15
 9974 002c 92B2     		uxth	r2, r2
 9975 002e 6FEA0202 		mvn	r2, r2
 9976 0032 92B2     		uxth	r2, r2
 9977 0034 01EA0202 		and	r2, r1, r2
 9978 0038 92B2     		uxth	r2, r2
 9979 003a 1A80     		strh	r2, [r3, #0]	@ movhi
 9980              	.L24:
 493:/home/cuil/workspace/arm/lm3s811/TI_Stellaris/driverlib/usb.c ****             ~(ulFlags & (USB_INT_HOST_OUT | USB_INT_DEV_IN | USB_INT_EP0));
 494:/home/cuil/workspace/arm/lm3s811/TI_Stellaris/driverlib/usb.c ****     }
 495:/home/cuil/workspace/arm/lm3s811/TI_Stellaris/driverlib/usb.c **** 
 496:/home/cuil/workspace/arm/lm3s811/TI_Stellaris/driverlib/usb.c ****     //
 497:/home/cuil/workspace/arm/lm3s811/TI_Stellaris/driverlib/usb.c ****     // If any receive interrupts were disabled, then write the receive 
 498:/home/cuil/workspace/arm/lm3s811/TI_Stellaris/driverlib/usb.c ****     // interrupt settings out to the hardware.
 499:/home/cuil/workspace/arm/lm3s811/TI_Stellaris/driverlib/usb.c ****     //
 500:/home/cuil/workspace/arm/lm3s811/TI_Stellaris/driverlib/usb.c ****     if(ulFlags & (USB_INT_HOST_IN | USB_INT_DEV_OUT))
 9981              		.loc 1 500 0
 9982 003c 3B68     		ldr	r3, [r7, #0]
 9983 003e 03F46063 		and	r3, r3, #3584
 9984 0042 002B     		cmp	r3, #0
 9985 0044 14D0     		beq	.L25
 501:/home/cuil/workspace/arm/lm3s811/TI_Stellaris/driverlib/usb.c ****     {
 502:/home/cuil/workspace/arm/lm3s811/TI_Stellaris/driverlib/usb.c ****         HWREGH(ulBase + USB_O_RXIE) &=
 9986              		.loc 1 502 0
 9987 0046 7B68     		ldr	r3, [r7, #4]
 9988 0048 03F10803 		add	r3, r3, #8
 9989 004c 7A68     		ldr	r2, [r7, #4]
 9990 004e 02F10802 		add	r2, r2, #8
 9991 0052 1288     		ldrh	r2, [r2, #0]	@ movhi
 9992 0054 91B2     		uxth	r1, r2
 503:/home/cuil/workspace/arm/lm3s811/TI_Stellaris/driverlib/usb.c ****             ~((ulFlags & (USB_INT_HOST_IN | USB_INT_DEV_OUT)) >>
 9993              		.loc 1 503 0
 9994 0056 3A68     		ldr	r2, [r7, #0]
 9995 0058 02F46062 		and	r2, r2, #3584
 9996 005c 4FEA1222 		lsr	r2, r2, #8
 502:/home/cuil/workspace/arm/lm3s811/TI_Stellaris/driverlib/usb.c ****         HWREGH(ulBase + USB_O_RXIE) &=
 9997              		.loc 1 502 0
 9998 0060 92B2     		uxth	r2, r2
 9999 0062 6FEA0202 		mvn	r2, r2
 10000 0066 92B2     		uxth	r2, r2
 10001 0068 01EA0202 		and	r2, r1, r2
 10002 006c 92B2     		uxth	r2, r2
 10003 006e 1A80     		strh	r2, [r3, #0]	@ movhi
 10004              	.L25:
 504:/home/cuil/workspace/arm/lm3s811/TI_Stellaris/driverlib/usb.c ****               USB_INT_RX_SHIFT);
 505:/home/cuil/workspace/arm/lm3s811/TI_Stellaris/driverlib/usb.c ****     }
 506:/home/cuil/workspace/arm/lm3s811/TI_Stellaris/driverlib/usb.c **** 
 507:/home/cuil/workspace/arm/lm3s811/TI_Stellaris/driverlib/usb.c ****     //
 508:/home/cuil/workspace/arm/lm3s811/TI_Stellaris/driverlib/usb.c ****     // If any general interrupts were disabled, then write the general 
 509:/home/cuil/workspace/arm/lm3s811/TI_Stellaris/driverlib/usb.c ****     // interrupt settings out to the hardware.
 510:/home/cuil/workspace/arm/lm3s811/TI_Stellaris/driverlib/usb.c ****     //
 511:/home/cuil/workspace/arm/lm3s811/TI_Stellaris/driverlib/usb.c ****     if(ulFlags & USB_INT_STATUS)
 10005              		.loc 1 511 0
 10006 0070 3B68     		ldr	r3, [r7, #0]
 10007 0072 03F07F43 		and	r3, r3, #-16777216
 10008 0076 002B     		cmp	r3, #0
 10009 0078 12D0     		beq	.L26
 512:/home/cuil/workspace/arm/lm3s811/TI_Stellaris/driverlib/usb.c ****     {
 513:/home/cuil/workspace/arm/lm3s811/TI_Stellaris/driverlib/usb.c ****         HWREGB(ulBase + USB_O_IE) &=
 10010              		.loc 1 513 0
 10011 007a 7B68     		ldr	r3, [r7, #4]
 10012 007c 03F10B03 		add	r3, r3, #11
 10013 0080 7A68     		ldr	r2, [r7, #4]
 10014 0082 02F10B02 		add	r2, r2, #11
 10015 0086 1278     		ldrb	r2, [r2, #0]
 10016 0088 D1B2     		uxtb	r1, r2
 514:/home/cuil/workspace/arm/lm3s811/TI_Stellaris/driverlib/usb.c ****             ~((ulFlags & USB_INT_STATUS) >> USB_INT_STATUS_SHIFT);
 10017              		.loc 1 514 0
 10018 008a 3A68     		ldr	r2, [r7, #0]
 10019 008c 4FEA1262 		lsr	r2, r2, #24
 513:/home/cuil/workspace/arm/lm3s811/TI_Stellaris/driverlib/usb.c ****         HWREGB(ulBase + USB_O_IE) &=
 10020              		.loc 1 513 0
 10021 0090 D2B2     		uxtb	r2, r2
 10022 0092 6FEA0202 		mvn	r2, r2
 10023 0096 D2B2     		uxtb	r2, r2
 10024 0098 01EA0202 		and	r2, r1, r2
 10025 009c D2B2     		uxtb	r2, r2
 10026 009e 1A70     		strb	r2, [r3, #0]
 10027              	.L26:
 515:/home/cuil/workspace/arm/lm3s811/TI_Stellaris/driverlib/usb.c ****     }
 516:/home/cuil/workspace/arm/lm3s811/TI_Stellaris/driverlib/usb.c **** 
 517:/home/cuil/workspace/arm/lm3s811/TI_Stellaris/driverlib/usb.c ****     //
 518:/home/cuil/workspace/arm/lm3s811/TI_Stellaris/driverlib/usb.c ****     // Disable the power fault interrupt.
 519:/home/cuil/workspace/arm/lm3s811/TI_Stellaris/driverlib/usb.c ****     //
 520:/home/cuil/workspace/arm/lm3s811/TI_Stellaris/driverlib/usb.c ****     if(ulFlags & USB_INT_POWER_FAULT)
 10028              		.loc 1 520 0
 10029 00a0 3B68     		ldr	r3, [r7, #0]
 10030 00a2 03F48033 		and	r3, r3, #65536
 10031 00a6 002B     		cmp	r3, #0
 10032 00a8 05D0     		beq	.L27
 521:/home/cuil/workspace/arm/lm3s811/TI_Stellaris/driverlib/usb.c ****     {
 522:/home/cuil/workspace/arm/lm3s811/TI_Stellaris/driverlib/usb.c ****         HWREG(ulBase + USB_O_EPCIM) = 0;
 10033              		.loc 1 522 0
 10034 00aa 7B68     		ldr	r3, [r7, #4]
 10035 00ac 03F58163 		add	r3, r3, #1032
 10036 00b0 4FF00002 		mov	r2, #0
 10037 00b4 1A60     		str	r2, [r3, #0]
 10038              	.L27:
 523:/home/cuil/workspace/arm/lm3s811/TI_Stellaris/driverlib/usb.c ****     }
 524:/home/cuil/workspace/arm/lm3s811/TI_Stellaris/driverlib/usb.c **** 
 525:/home/cuil/workspace/arm/lm3s811/TI_Stellaris/driverlib/usb.c ****     //
 526:/home/cuil/workspace/arm/lm3s811/TI_Stellaris/driverlib/usb.c ****     // Disable the ID pin detect interrupt.
 527:/home/cuil/workspace/arm/lm3s811/TI_Stellaris/driverlib/usb.c ****     //
 528:/home/cuil/workspace/arm/lm3s811/TI_Stellaris/driverlib/usb.c ****     if(ulFlags & USB_INT_MODE_DETECT)
 10039              		.loc 1 528 0
 10040 00b6 3B68     		ldr	r3, [r7, #0]
 10041 00b8 03F40033 		and	r3, r3, #131072
 10042 00bc 002B     		cmp	r3, #0
 10043 00be 03D0     		beq	.L23
 529:/home/cuil/workspace/arm/lm3s811/TI_Stellaris/driverlib/usb.c ****     {
 530:/home/cuil/workspace/arm/lm3s811/TI_Stellaris/driverlib/usb.c ****         HWREG(USB0_BASE + USB_O_IDVIM) = 0;
 10044              		.loc 1 530 0
 10045 00c0 044B     		ldr	r3, .L29
 10046 00c2 4FF00002 		mov	r2, #0
 10047 00c6 1A60     		str	r2, [r3, #0]
 10048              	.L23:
 531:/home/cuil/workspace/arm/lm3s811/TI_Stellaris/driverlib/usb.c ****     }
 532:/home/cuil/workspace/arm/lm3s811/TI_Stellaris/driverlib/usb.c **** }
 10049              		.loc 1 532 0
 10050 00c8 07F10C07 		add	r7, r7, #12
 10051 00cc BD46     		mov	sp, r7
 10052 00ce 80BC     		pop	{r7}
 10053 00d0 7047     		bx	lr
 10054              	.L30:
 10055 00d2 00BF     		.align	2
 10056              	.L29:
 10057 00d4 48040540 		.word	1074070600
 10058              		.cfi_endproc
 10059              	.LFE7:
 10061              		.section	.text.USBIntEnable,"ax",%progbits
 10062              		.align	2
 10063              		.global	USBIntEnable
 10064              		.thumb
 10065              		.thumb_func
 10067              	USBIntEnable:
 10068              	.LFB8:
 533:/home/cuil/workspace/arm/lm3s811/TI_Stellaris/driverlib/usb.c **** #endif
 534:/home/cuil/workspace/arm/lm3s811/TI_Stellaris/driverlib/usb.c **** 
 535:/home/cuil/workspace/arm/lm3s811/TI_Stellaris/driverlib/usb.c **** //*****************************************************************************
 536:/home/cuil/workspace/arm/lm3s811/TI_Stellaris/driverlib/usb.c **** //
 537:/home/cuil/workspace/arm/lm3s811/TI_Stellaris/driverlib/usb.c **** //! Enables the sources for USB interrupts.
 538:/home/cuil/workspace/arm/lm3s811/TI_Stellaris/driverlib/usb.c **** //!
 539:/home/cuil/workspace/arm/lm3s811/TI_Stellaris/driverlib/usb.c **** //! \param ulBase specifies the USB module base address.
 540:/home/cuil/workspace/arm/lm3s811/TI_Stellaris/driverlib/usb.c **** //! \param ulFlags specifies which interrupts to enable.
 541:/home/cuil/workspace/arm/lm3s811/TI_Stellaris/driverlib/usb.c **** //!
 542:/home/cuil/workspace/arm/lm3s811/TI_Stellaris/driverlib/usb.c **** //! This function enables the USB controller's ability to generate the
 543:/home/cuil/workspace/arm/lm3s811/TI_Stellaris/driverlib/usb.c **** //! interrupts indicated by the \e ulFlags parameter.  There are three
 544:/home/cuil/workspace/arm/lm3s811/TI_Stellaris/driverlib/usb.c **** //! groups of interrupt sources, IN Endpoints, OUT Endpoints, and
 545:/home/cuil/workspace/arm/lm3s811/TI_Stellaris/driverlib/usb.c **** //! general status changes, specified by \b USB_INT_HOST_IN,
 546:/home/cuil/workspace/arm/lm3s811/TI_Stellaris/driverlib/usb.c **** //! \b USB_INT_HOST_OUT, \b USB_INT_DEV_IN, \b USB_INT_DEV_OUT, and
 547:/home/cuil/workspace/arm/lm3s811/TI_Stellaris/driverlib/usb.c **** //! \b USB_STATUS.  If \b USB_INT_ALL is specified then all interrupts are
 548:/home/cuil/workspace/arm/lm3s811/TI_Stellaris/driverlib/usb.c **** //! enabled.
 549:/home/cuil/workspace/arm/lm3s811/TI_Stellaris/driverlib/usb.c **** //!
 550:/home/cuil/workspace/arm/lm3s811/TI_Stellaris/driverlib/usb.c **** //! \note A call must be made to enable the interrupt in the main interrupt
 551:/home/cuil/workspace/arm/lm3s811/TI_Stellaris/driverlib/usb.c **** //! controller to receive interrupts.  The USBIntRegister() API performs this
 552:/home/cuil/workspace/arm/lm3s811/TI_Stellaris/driverlib/usb.c **** //! controller-level interrupt enable.  However if static interrupt handlers
 553:/home/cuil/workspace/arm/lm3s811/TI_Stellaris/driverlib/usb.c **** //! are used, then then a call to IntEnable() must be made in order to allow 
 554:/home/cuil/workspace/arm/lm3s811/TI_Stellaris/driverlib/usb.c **** //! any USB interrupts to occur.
 555:/home/cuil/workspace/arm/lm3s811/TI_Stellaris/driverlib/usb.c **** //!
 556:/home/cuil/workspace/arm/lm3s811/TI_Stellaris/driverlib/usb.c **** //! \note WARNING: This API cannot be used on endpoint numbers greater than
 557:/home/cuil/workspace/arm/lm3s811/TI_Stellaris/driverlib/usb.c **** //! endpoint 3 so USBIntEnableControl() or USBIntEnableEndpoint() should be
 558:/home/cuil/workspace/arm/lm3s811/TI_Stellaris/driverlib/usb.c **** //! used instead.
 559:/home/cuil/workspace/arm/lm3s811/TI_Stellaris/driverlib/usb.c **** //!
 560:/home/cuil/workspace/arm/lm3s811/TI_Stellaris/driverlib/usb.c **** //! \return None.
 561:/home/cuil/workspace/arm/lm3s811/TI_Stellaris/driverlib/usb.c **** //
 562:/home/cuil/workspace/arm/lm3s811/TI_Stellaris/driverlib/usb.c **** //*****************************************************************************
 563:/home/cuil/workspace/arm/lm3s811/TI_Stellaris/driverlib/usb.c **** #ifndef DEPRECATED
 564:/home/cuil/workspace/arm/lm3s811/TI_Stellaris/driverlib/usb.c **** void
 565:/home/cuil/workspace/arm/lm3s811/TI_Stellaris/driverlib/usb.c **** USBIntEnable(unsigned long ulBase, unsigned long ulFlags)
 566:/home/cuil/workspace/arm/lm3s811/TI_Stellaris/driverlib/usb.c **** {
 10069              		.loc 1 566 0
 10070              		.cfi_startproc
 10071              		@ args = 0, pretend = 0, frame = 8
 10072              		@ frame_needed = 1, uses_anonymous_args = 0
 10073              		@ link register save eliminated.
 10074 0000 80B4     		push	{r7}
 10075              	.LCFI24:
 10076              		.cfi_def_cfa_offset 4
 10077 0002 83B0     		sub	sp, sp, #12
 10078              	.LCFI25:
 10079              		.cfi_def_cfa_offset 16
 10080 0004 00AF     		add	r7, sp, #0
 10081              		.cfi_offset 7, -4
 10082              	.LCFI26:
 10083              		.cfi_def_cfa_register 7
 10084 0006 7860     		str	r0, [r7, #4]
 10085 0008 3960     		str	r1, [r7, #0]
 567:/home/cuil/workspace/arm/lm3s811/TI_Stellaris/driverlib/usb.c ****     //
 568:/home/cuil/workspace/arm/lm3s811/TI_Stellaris/driverlib/usb.c ****     // Check the arguments.
 569:/home/cuil/workspace/arm/lm3s811/TI_Stellaris/driverlib/usb.c ****     //
 570:/home/cuil/workspace/arm/lm3s811/TI_Stellaris/driverlib/usb.c ****     ASSERT(ulBase == USB0_BASE);
 571:/home/cuil/workspace/arm/lm3s811/TI_Stellaris/driverlib/usb.c ****     ASSERT((ulFlags & (~USB_INT_ALL)) == 0);
 572:/home/cuil/workspace/arm/lm3s811/TI_Stellaris/driverlib/usb.c **** 
 573:/home/cuil/workspace/arm/lm3s811/TI_Stellaris/driverlib/usb.c ****     //
 574:/home/cuil/workspace/arm/lm3s811/TI_Stellaris/driverlib/usb.c ****     // If any transmit interrupts were enabled, then write the transmit
 575:/home/cuil/workspace/arm/lm3s811/TI_Stellaris/driverlib/usb.c ****     // interrupt settings out to the hardware.
 576:/home/cuil/workspace/arm/lm3s811/TI_Stellaris/driverlib/usb.c ****     //
 577:/home/cuil/workspace/arm/lm3s811/TI_Stellaris/driverlib/usb.c ****     if(ulFlags & (USB_INT_HOST_OUT | USB_INT_DEV_IN | USB_INT_EP0))
 10086              		.loc 1 577 0
 10087 000a 3B68     		ldr	r3, [r7, #0]
 10088 000c 03F00F03 		and	r3, r3, #15
 10089 0010 002B     		cmp	r3, #0
 10090 0012 10D0     		beq	.L32
 578:/home/cuil/workspace/arm/lm3s811/TI_Stellaris/driverlib/usb.c ****     {
 579:/home/cuil/workspace/arm/lm3s811/TI_Stellaris/driverlib/usb.c ****         HWREGH(ulBase + USB_O_TXIE) |=
 10091              		.loc 1 579 0
 10092 0014 7B68     		ldr	r3, [r7, #4]
 10093 0016 03F10603 		add	r3, r3, #6
 10094 001a 7A68     		ldr	r2, [r7, #4]
 10095 001c 02F10602 		add	r2, r2, #6
 10096 0020 1288     		ldrh	r2, [r2, #0]	@ movhi
 10097 0022 91B2     		uxth	r1, r2
 10098 0024 3A68     		ldr	r2, [r7, #0]
 10099 0026 92B2     		uxth	r2, r2
 10100 0028 02F00F02 		and	r2, r2, #15
 10101 002c 92B2     		uxth	r2, r2
 10102 002e 41EA0202 		orr	r2, r1, r2
 10103 0032 92B2     		uxth	r2, r2
 10104 0034 1A80     		strh	r2, [r3, #0]	@ movhi
 10105              	.L32:
 580:/home/cuil/workspace/arm/lm3s811/TI_Stellaris/driverlib/usb.c ****             ulFlags & (USB_INT_HOST_OUT | USB_INT_DEV_IN | USB_INT_EP0);
 581:/home/cuil/workspace/arm/lm3s811/TI_Stellaris/driverlib/usb.c ****     }
 582:/home/cuil/workspace/arm/lm3s811/TI_Stellaris/driverlib/usb.c **** 
 583:/home/cuil/workspace/arm/lm3s811/TI_Stellaris/driverlib/usb.c ****     //
 584:/home/cuil/workspace/arm/lm3s811/TI_Stellaris/driverlib/usb.c ****     // If any receive interrupts were enabled, then write the receive 
 585:/home/cuil/workspace/arm/lm3s811/TI_Stellaris/driverlib/usb.c ****     // interrupt settings out to the hardware.
 586:/home/cuil/workspace/arm/lm3s811/TI_Stellaris/driverlib/usb.c ****     //
 587:/home/cuil/workspace/arm/lm3s811/TI_Stellaris/driverlib/usb.c ****     if(ulFlags & (USB_INT_HOST_IN | USB_INT_DEV_OUT))
 10106              		.loc 1 587 0
 10107 0036 3B68     		ldr	r3, [r7, #0]
 10108 0038 03F46063 		and	r3, r3, #3584
 10109 003c 002B     		cmp	r3, #0
 10110 003e 11D0     		beq	.L33
 588:/home/cuil/workspace/arm/lm3s811/TI_Stellaris/driverlib/usb.c ****     {
 589:/home/cuil/workspace/arm/lm3s811/TI_Stellaris/driverlib/usb.c ****         HWREGH(ulBase + USB_O_RXIE) |=
 10111              		.loc 1 589 0
 10112 0040 7B68     		ldr	r3, [r7, #4]
 10113 0042 03F10803 		add	r3, r3, #8
 10114 0046 7A68     		ldr	r2, [r7, #4]
 10115 0048 02F10802 		add	r2, r2, #8
 10116 004c 1288     		ldrh	r2, [r2, #0]	@ movhi
 10117 004e 91B2     		uxth	r1, r2
 590:/home/cuil/workspace/arm/lm3s811/TI_Stellaris/driverlib/usb.c ****             ((ulFlags & (USB_INT_HOST_IN | USB_INT_DEV_OUT)) >>
 10118              		.loc 1 590 0
 10119 0050 3A68     		ldr	r2, [r7, #0]
 10120 0052 02F46062 		and	r2, r2, #3584
 10121 0056 4FEA1222 		lsr	r2, r2, #8
 589:/home/cuil/workspace/arm/lm3s811/TI_Stellaris/driverlib/usb.c ****         HWREGH(ulBase + USB_O_RXIE) |=
 10122              		.loc 1 589 0
 10123 005a 92B2     		uxth	r2, r2
 10124 005c 41EA0202 		orr	r2, r1, r2
 10125 0060 92B2     		uxth	r2, r2
 10126 0062 1A80     		strh	r2, [r3, #0]	@ movhi
 10127              	.L33:
 591:/home/cuil/workspace/arm/lm3s811/TI_Stellaris/driverlib/usb.c ****              USB_INT_RX_SHIFT);
 592:/home/cuil/workspace/arm/lm3s811/TI_Stellaris/driverlib/usb.c ****     }
 593:/home/cuil/workspace/arm/lm3s811/TI_Stellaris/driverlib/usb.c **** 
 594:/home/cuil/workspace/arm/lm3s811/TI_Stellaris/driverlib/usb.c ****     //
 595:/home/cuil/workspace/arm/lm3s811/TI_Stellaris/driverlib/usb.c ****     // If any general interrupts were enabled, then write the general 
 596:/home/cuil/workspace/arm/lm3s811/TI_Stellaris/driverlib/usb.c ****     // interrupt settings out to the hardware.
 597:/home/cuil/workspace/arm/lm3s811/TI_Stellaris/driverlib/usb.c ****     //
 598:/home/cuil/workspace/arm/lm3s811/TI_Stellaris/driverlib/usb.c ****     if(ulFlags & USB_INT_STATUS)
 10128              		.loc 1 598 0
 10129 0064 3B68     		ldr	r3, [r7, #0]
 10130 0066 03F07F43 		and	r3, r3, #-16777216
 10131 006a 002B     		cmp	r3, #0
 10132 006c 0FD0     		beq	.L34
 599:/home/cuil/workspace/arm/lm3s811/TI_Stellaris/driverlib/usb.c ****     {
 600:/home/cuil/workspace/arm/lm3s811/TI_Stellaris/driverlib/usb.c ****         HWREGB(ulBase + USB_O_IE) |=
 10133              		.loc 1 600 0
 10134 006e 7B68     		ldr	r3, [r7, #4]
 10135 0070 03F10B03 		add	r3, r3, #11
 10136 0074 7A68     		ldr	r2, [r7, #4]
 10137 0076 02F10B02 		add	r2, r2, #11
 10138 007a 1278     		ldrb	r2, [r2, #0]
 10139 007c D1B2     		uxtb	r1, r2
 601:/home/cuil/workspace/arm/lm3s811/TI_Stellaris/driverlib/usb.c ****             (ulFlags & USB_INT_STATUS) >> USB_INT_STATUS_SHIFT;
 10140              		.loc 1 601 0
 10141 007e 3A68     		ldr	r2, [r7, #0]
 10142 0080 4FEA1262 		lsr	r2, r2, #24
 600:/home/cuil/workspace/arm/lm3s811/TI_Stellaris/driverlib/usb.c ****         HWREGB(ulBase + USB_O_IE) |=
 10143              		.loc 1 600 0
 10144 0084 D2B2     		uxtb	r2, r2
 10145 0086 41EA0202 		orr	r2, r1, r2
 10146 008a D2B2     		uxtb	r2, r2
 10147 008c 1A70     		strb	r2, [r3, #0]
 10148              	.L34:
 602:/home/cuil/workspace/arm/lm3s811/TI_Stellaris/driverlib/usb.c ****     }
 603:/home/cuil/workspace/arm/lm3s811/TI_Stellaris/driverlib/usb.c **** 
 604:/home/cuil/workspace/arm/lm3s811/TI_Stellaris/driverlib/usb.c ****     //
 605:/home/cuil/workspace/arm/lm3s811/TI_Stellaris/driverlib/usb.c ****     // Enable the power fault interrupt.
 606:/home/cuil/workspace/arm/lm3s811/TI_Stellaris/driverlib/usb.c ****     //
 607:/home/cuil/workspace/arm/lm3s811/TI_Stellaris/driverlib/usb.c ****     if(ulFlags & USB_INT_POWER_FAULT)
 10149              		.loc 1 607 0
 10150 008e 3B68     		ldr	r3, [r7, #0]
 10151 0090 03F48033 		and	r3, r3, #65536
 10152 0094 002B     		cmp	r3, #0
 10153 0096 05D0     		beq	.L35
 608:/home/cuil/workspace/arm/lm3s811/TI_Stellaris/driverlib/usb.c ****     {
 609:/home/cuil/workspace/arm/lm3s811/TI_Stellaris/driverlib/usb.c ****         HWREG(ulBase + USB_O_EPCIM) = USB_EPCIM_PF;
 10154              		.loc 1 609 0
 10155 0098 7B68     		ldr	r3, [r7, #4]
 10156 009a 03F58163 		add	r3, r3, #1032
 10157 009e 4FF00102 		mov	r2, #1
 10158 00a2 1A60     		str	r2, [r3, #0]
 10159              	.L35:
 610:/home/cuil/workspace/arm/lm3s811/TI_Stellaris/driverlib/usb.c ****     }
 611:/home/cuil/workspace/arm/lm3s811/TI_Stellaris/driverlib/usb.c **** 
 612:/home/cuil/workspace/arm/lm3s811/TI_Stellaris/driverlib/usb.c ****     //
 613:/home/cuil/workspace/arm/lm3s811/TI_Stellaris/driverlib/usb.c ****     // Enable the ID pin detect interrupt.
 614:/home/cuil/workspace/arm/lm3s811/TI_Stellaris/driverlib/usb.c ****     //
 615:/home/cuil/workspace/arm/lm3s811/TI_Stellaris/driverlib/usb.c ****     if(ulFlags & USB_INT_MODE_DETECT)
 10160              		.loc 1 615 0
 10161 00a4 3B68     		ldr	r3, [r7, #0]
 10162 00a6 03F40033 		and	r3, r3, #131072
 10163 00aa 002B     		cmp	r3, #0
 10164 00ac 03D0     		beq	.L31
 616:/home/cuil/workspace/arm/lm3s811/TI_Stellaris/driverlib/usb.c ****     {
 617:/home/cuil/workspace/arm/lm3s811/TI_Stellaris/driverlib/usb.c ****         HWREG(USB0_BASE + USB_O_IDVIM) = USB_IDVIM_ID;
 10165              		.loc 1 617 0
 10166 00ae 044B     		ldr	r3, .L37
 10167 00b0 4FF00102 		mov	r2, #1
 10168 00b4 1A60     		str	r2, [r3, #0]
 10169              	.L31:
 618:/home/cuil/workspace/arm/lm3s811/TI_Stellaris/driverlib/usb.c ****     }
 619:/home/cuil/workspace/arm/lm3s811/TI_Stellaris/driverlib/usb.c **** }
 10170              		.loc 1 619 0
 10171 00b6 07F10C07 		add	r7, r7, #12
 10172 00ba BD46     		mov	sp, r7
 10173 00bc 80BC     		pop	{r7}
 10174 00be 7047     		bx	lr
 10175              	.L38:
 10176              		.align	2
 10177              	.L37:
 10178 00c0 48040540 		.word	1074070600
 10179              		.cfi_endproc
 10180              	.LFE8:
 10182              		.section	.text.USBIntDisableControl,"ax",%progbits
 10183              		.align	2
 10184              		.global	USBIntDisableControl
 10185              		.thumb
 10186              		.thumb_func
 10188              	USBIntDisableControl:
 10189              	.LFB9:
 620:/home/cuil/workspace/arm/lm3s811/TI_Stellaris/driverlib/usb.c **** #endif
 621:/home/cuil/workspace/arm/lm3s811/TI_Stellaris/driverlib/usb.c **** 
 622:/home/cuil/workspace/arm/lm3s811/TI_Stellaris/driverlib/usb.c **** //*****************************************************************************
 623:/home/cuil/workspace/arm/lm3s811/TI_Stellaris/driverlib/usb.c **** //
 624:/home/cuil/workspace/arm/lm3s811/TI_Stellaris/driverlib/usb.c **** //! Disables control interrupts on a given USB controller.
 625:/home/cuil/workspace/arm/lm3s811/TI_Stellaris/driverlib/usb.c **** //!
 626:/home/cuil/workspace/arm/lm3s811/TI_Stellaris/driverlib/usb.c **** //! \param ulBase specifies the USB module base address.
 627:/home/cuil/workspace/arm/lm3s811/TI_Stellaris/driverlib/usb.c **** //! \param ulFlags specifies which control interrupts to disable.
 628:/home/cuil/workspace/arm/lm3s811/TI_Stellaris/driverlib/usb.c **** //!
 629:/home/cuil/workspace/arm/lm3s811/TI_Stellaris/driverlib/usb.c **** //! This function disables the control interrupts for the USB controller
 630:/home/cuil/workspace/arm/lm3s811/TI_Stellaris/driverlib/usb.c **** //! specified by the \e ulBase parameter.  The \e ulFlags parameter specifies
 631:/home/cuil/workspace/arm/lm3s811/TI_Stellaris/driverlib/usb.c **** //! which control interrupts to disable.  The flags passed in the \e ulFlags
 632:/home/cuil/workspace/arm/lm3s811/TI_Stellaris/driverlib/usb.c **** //! parameters should be the definitions that start with \b USB_INTCTRL_* and
 633:/home/cuil/workspace/arm/lm3s811/TI_Stellaris/driverlib/usb.c **** //! not any other \b USB_INT flags.
 634:/home/cuil/workspace/arm/lm3s811/TI_Stellaris/driverlib/usb.c **** //!
 635:/home/cuil/workspace/arm/lm3s811/TI_Stellaris/driverlib/usb.c **** //! \return None.
 636:/home/cuil/workspace/arm/lm3s811/TI_Stellaris/driverlib/usb.c **** //
 637:/home/cuil/workspace/arm/lm3s811/TI_Stellaris/driverlib/usb.c **** //*****************************************************************************
 638:/home/cuil/workspace/arm/lm3s811/TI_Stellaris/driverlib/usb.c **** void
 639:/home/cuil/workspace/arm/lm3s811/TI_Stellaris/driverlib/usb.c **** USBIntDisableControl(unsigned long ulBase, unsigned long ulFlags)
 640:/home/cuil/workspace/arm/lm3s811/TI_Stellaris/driverlib/usb.c **** {
 10190              		.loc 1 640 0
 10191              		.cfi_startproc
 10192              		@ args = 0, pretend = 0, frame = 8
 10193              		@ frame_needed = 1, uses_anonymous_args = 0
 10194              		@ link register save eliminated.
 10195 0000 80B4     		push	{r7}
 10196              	.LCFI27:
 10197              		.cfi_def_cfa_offset 4
 10198 0002 83B0     		sub	sp, sp, #12
 10199              	.LCFI28:
 10200              		.cfi_def_cfa_offset 16
 10201 0004 00AF     		add	r7, sp, #0
 10202              		.cfi_offset 7, -4
 10203              	.LCFI29:
 10204              		.cfi_def_cfa_register 7
 10205 0006 7860     		str	r0, [r7, #4]
 10206 0008 3960     		str	r1, [r7, #0]
 641:/home/cuil/workspace/arm/lm3s811/TI_Stellaris/driverlib/usb.c ****     //
 642:/home/cuil/workspace/arm/lm3s811/TI_Stellaris/driverlib/usb.c ****     // Check the arguments.
 643:/home/cuil/workspace/arm/lm3s811/TI_Stellaris/driverlib/usb.c ****     //
 644:/home/cuil/workspace/arm/lm3s811/TI_Stellaris/driverlib/usb.c ****     ASSERT(ulBase == USB0_BASE);
 645:/home/cuil/workspace/arm/lm3s811/TI_Stellaris/driverlib/usb.c ****     ASSERT((ulFlags & ~(USB_INTCTRL_ALL)) == 0);
 646:/home/cuil/workspace/arm/lm3s811/TI_Stellaris/driverlib/usb.c **** 
 647:/home/cuil/workspace/arm/lm3s811/TI_Stellaris/driverlib/usb.c ****     //
 648:/home/cuil/workspace/arm/lm3s811/TI_Stellaris/driverlib/usb.c ****     // If any general interrupts were disabled then write the general interrupt
 649:/home/cuil/workspace/arm/lm3s811/TI_Stellaris/driverlib/usb.c ****     // settings out to the hardware.
 650:/home/cuil/workspace/arm/lm3s811/TI_Stellaris/driverlib/usb.c ****     //
 651:/home/cuil/workspace/arm/lm3s811/TI_Stellaris/driverlib/usb.c ****     if(ulFlags & USB_INTCTRL_STATUS)
 10207              		.loc 1 651 0
 10208 000a 3B68     		ldr	r3, [r7, #0]
 10209 000c 03F0FF03 		and	r3, r3, #255
 10210 0010 002B     		cmp	r3, #0
 10211 0012 10D0     		beq	.L40
 652:/home/cuil/workspace/arm/lm3s811/TI_Stellaris/driverlib/usb.c ****     {
 653:/home/cuil/workspace/arm/lm3s811/TI_Stellaris/driverlib/usb.c ****         HWREGB(ulBase + USB_O_IE) &= ~(ulFlags & USB_INTCTRL_STATUS);
 10212              		.loc 1 653 0
 10213 0014 7B68     		ldr	r3, [r7, #4]
 10214 0016 03F10B03 		add	r3, r3, #11
 10215 001a 7A68     		ldr	r2, [r7, #4]
 10216 001c 02F10B02 		add	r2, r2, #11
 10217 0020 1278     		ldrb	r2, [r2, #0]
 10218 0022 D1B2     		uxtb	r1, r2
 10219 0024 3A68     		ldr	r2, [r7, #0]
 10220 0026 D2B2     		uxtb	r2, r2
 10221 0028 6FEA0202 		mvn	r2, r2
 10222 002c D2B2     		uxtb	r2, r2
 10223 002e 01EA0202 		and	r2, r1, r2
 10224 0032 D2B2     		uxtb	r2, r2
 10225 0034 1A70     		strb	r2, [r3, #0]
 10226              	.L40:
 654:/home/cuil/workspace/arm/lm3s811/TI_Stellaris/driverlib/usb.c ****     }
 655:/home/cuil/workspace/arm/lm3s811/TI_Stellaris/driverlib/usb.c **** 
 656:/home/cuil/workspace/arm/lm3s811/TI_Stellaris/driverlib/usb.c ****     //
 657:/home/cuil/workspace/arm/lm3s811/TI_Stellaris/driverlib/usb.c ****     // Disable the power fault interrupt.
 658:/home/cuil/workspace/arm/lm3s811/TI_Stellaris/driverlib/usb.c ****     //
 659:/home/cuil/workspace/arm/lm3s811/TI_Stellaris/driverlib/usb.c ****     if(ulFlags & USB_INTCTRL_POWER_FAULT)
 10227              		.loc 1 659 0
 10228 0036 3B68     		ldr	r3, [r7, #0]
 10229 0038 03F48073 		and	r3, r3, #256
 10230 003c 002B     		cmp	r3, #0
 10231 003e 05D0     		beq	.L41
 660:/home/cuil/workspace/arm/lm3s811/TI_Stellaris/driverlib/usb.c ****     {
 661:/home/cuil/workspace/arm/lm3s811/TI_Stellaris/driverlib/usb.c ****         HWREG(ulBase + USB_O_EPCIM) = 0;
 10232              		.loc 1 661 0
 10233 0040 7B68     		ldr	r3, [r7, #4]
 10234 0042 03F58163 		add	r3, r3, #1032
 10235 0046 4FF00002 		mov	r2, #0
 10236 004a 1A60     		str	r2, [r3, #0]
 10237              	.L41:
 662:/home/cuil/workspace/arm/lm3s811/TI_Stellaris/driverlib/usb.c ****     }
 663:/home/cuil/workspace/arm/lm3s811/TI_Stellaris/driverlib/usb.c **** 
 664:/home/cuil/workspace/arm/lm3s811/TI_Stellaris/driverlib/usb.c ****     //
 665:/home/cuil/workspace/arm/lm3s811/TI_Stellaris/driverlib/usb.c ****     // Disable the ID pin detect interrupt.
 666:/home/cuil/workspace/arm/lm3s811/TI_Stellaris/driverlib/usb.c ****     //
 667:/home/cuil/workspace/arm/lm3s811/TI_Stellaris/driverlib/usb.c ****     if(ulFlags & USB_INTCTRL_MODE_DETECT)
 10238              		.loc 1 667 0
 10239 004c 3B68     		ldr	r3, [r7, #0]
 10240 004e 03F40073 		and	r3, r3, #512
 10241 0052 002B     		cmp	r3, #0
 10242 0054 03D0     		beq	.L39
 668:/home/cuil/workspace/arm/lm3s811/TI_Stellaris/driverlib/usb.c ****     {
 669:/home/cuil/workspace/arm/lm3s811/TI_Stellaris/driverlib/usb.c ****         HWREG(USB0_BASE + USB_O_IDVIM) = 0;
 10243              		.loc 1 669 0
 10244 0056 044B     		ldr	r3, .L43
 10245 0058 4FF00002 		mov	r2, #0
 10246 005c 1A60     		str	r2, [r3, #0]
 10247              	.L39:
 670:/home/cuil/workspace/arm/lm3s811/TI_Stellaris/driverlib/usb.c ****     }
 671:/home/cuil/workspace/arm/lm3s811/TI_Stellaris/driverlib/usb.c **** }
 10248              		.loc 1 671 0
 10249 005e 07F10C07 		add	r7, r7, #12
 10250 0062 BD46     		mov	sp, r7
 10251 0064 80BC     		pop	{r7}
 10252 0066 7047     		bx	lr
 10253              	.L44:
 10254              		.align	2
 10255              	.L43:
 10256 0068 48040540 		.word	1074070600
 10257              		.cfi_endproc
 10258              	.LFE9:
 10260              		.section	.text.USBIntEnableControl,"ax",%progbits
 10261              		.align	2
 10262              		.global	USBIntEnableControl
 10263              		.thumb
 10264              		.thumb_func
 10266              	USBIntEnableControl:
 10267              	.LFB10:
 672:/home/cuil/workspace/arm/lm3s811/TI_Stellaris/driverlib/usb.c **** 
 673:/home/cuil/workspace/arm/lm3s811/TI_Stellaris/driverlib/usb.c **** //*****************************************************************************
 674:/home/cuil/workspace/arm/lm3s811/TI_Stellaris/driverlib/usb.c **** //
 675:/home/cuil/workspace/arm/lm3s811/TI_Stellaris/driverlib/usb.c **** //! Enables control interrupts on a given USB controller.
 676:/home/cuil/workspace/arm/lm3s811/TI_Stellaris/driverlib/usb.c **** //!
 677:/home/cuil/workspace/arm/lm3s811/TI_Stellaris/driverlib/usb.c **** //! \param ulBase specifies the USB module base address.
 678:/home/cuil/workspace/arm/lm3s811/TI_Stellaris/driverlib/usb.c **** //! \param ulFlags specifies which control interrupts to enable.
 679:/home/cuil/workspace/arm/lm3s811/TI_Stellaris/driverlib/usb.c **** //!
 680:/home/cuil/workspace/arm/lm3s811/TI_Stellaris/driverlib/usb.c **** //! This function enables the control interrupts for the USB controller
 681:/home/cuil/workspace/arm/lm3s811/TI_Stellaris/driverlib/usb.c **** //! specified by the \e ulBase parameter.  The \e ulFlags parameter specifies
 682:/home/cuil/workspace/arm/lm3s811/TI_Stellaris/driverlib/usb.c **** //! which control interrupts to enable.  The flags passed in the \e ulFlags
 683:/home/cuil/workspace/arm/lm3s811/TI_Stellaris/driverlib/usb.c **** //! parameters should be the definitions that start with \b USB_INTCTRL_* and
 684:/home/cuil/workspace/arm/lm3s811/TI_Stellaris/driverlib/usb.c **** //! not any other \b USB_INT flags.
 685:/home/cuil/workspace/arm/lm3s811/TI_Stellaris/driverlib/usb.c **** //!
 686:/home/cuil/workspace/arm/lm3s811/TI_Stellaris/driverlib/usb.c **** //! \return None.
 687:/home/cuil/workspace/arm/lm3s811/TI_Stellaris/driverlib/usb.c **** //
 688:/home/cuil/workspace/arm/lm3s811/TI_Stellaris/driverlib/usb.c **** //*****************************************************************************
 689:/home/cuil/workspace/arm/lm3s811/TI_Stellaris/driverlib/usb.c **** void
 690:/home/cuil/workspace/arm/lm3s811/TI_Stellaris/driverlib/usb.c **** USBIntEnableControl(unsigned long ulBase, unsigned long ulFlags)
 691:/home/cuil/workspace/arm/lm3s811/TI_Stellaris/driverlib/usb.c **** {
 10268              		.loc 1 691 0
 10269              		.cfi_startproc
 10270              		@ args = 0, pretend = 0, frame = 8
 10271              		@ frame_needed = 1, uses_anonymous_args = 0
 10272              		@ link register save eliminated.
 10273 0000 80B4     		push	{r7}
 10274              	.LCFI30:
 10275              		.cfi_def_cfa_offset 4
 10276 0002 83B0     		sub	sp, sp, #12
 10277              	.LCFI31:
 10278              		.cfi_def_cfa_offset 16
 10279 0004 00AF     		add	r7, sp, #0
 10280              		.cfi_offset 7, -4
 10281              	.LCFI32:
 10282              		.cfi_def_cfa_register 7
 10283 0006 7860     		str	r0, [r7, #4]
 10284 0008 3960     		str	r1, [r7, #0]
 692:/home/cuil/workspace/arm/lm3s811/TI_Stellaris/driverlib/usb.c ****     //
 693:/home/cuil/workspace/arm/lm3s811/TI_Stellaris/driverlib/usb.c ****     // Check the arguments.
 694:/home/cuil/workspace/arm/lm3s811/TI_Stellaris/driverlib/usb.c ****     //
 695:/home/cuil/workspace/arm/lm3s811/TI_Stellaris/driverlib/usb.c ****     ASSERT(ulBase == USB0_BASE);
 696:/home/cuil/workspace/arm/lm3s811/TI_Stellaris/driverlib/usb.c ****     ASSERT((ulFlags & (~USB_INTCTRL_ALL)) == 0);
 697:/home/cuil/workspace/arm/lm3s811/TI_Stellaris/driverlib/usb.c **** 
 698:/home/cuil/workspace/arm/lm3s811/TI_Stellaris/driverlib/usb.c ****     //
 699:/home/cuil/workspace/arm/lm3s811/TI_Stellaris/driverlib/usb.c ****     // If any general interrupts were enabled, then write the general 
 700:/home/cuil/workspace/arm/lm3s811/TI_Stellaris/driverlib/usb.c ****     // interrupt settings out to the hardware.
 701:/home/cuil/workspace/arm/lm3s811/TI_Stellaris/driverlib/usb.c ****     //
 702:/home/cuil/workspace/arm/lm3s811/TI_Stellaris/driverlib/usb.c ****     if(ulFlags & USB_INTCTRL_STATUS)
 10285              		.loc 1 702 0
 10286 000a 3B68     		ldr	r3, [r7, #0]
 10287 000c 03F0FF03 		and	r3, r3, #255
 10288 0010 002B     		cmp	r3, #0
 10289 0012 0DD0     		beq	.L46
 703:/home/cuil/workspace/arm/lm3s811/TI_Stellaris/driverlib/usb.c ****     {
 704:/home/cuil/workspace/arm/lm3s811/TI_Stellaris/driverlib/usb.c ****         HWREGB(ulBase + USB_O_IE) |= ulFlags;
 10290              		.loc 1 704 0
 10291 0014 7B68     		ldr	r3, [r7, #4]
 10292 0016 03F10B03 		add	r3, r3, #11
 10293 001a 7A68     		ldr	r2, [r7, #4]
 10294 001c 02F10B02 		add	r2, r2, #11
 10295 0020 1278     		ldrb	r2, [r2, #0]
 10296 0022 D1B2     		uxtb	r1, r2
 10297 0024 3A68     		ldr	r2, [r7, #0]
 10298 0026 D2B2     		uxtb	r2, r2
 10299 0028 41EA0202 		orr	r2, r1, r2
 10300 002c D2B2     		uxtb	r2, r2
 10301 002e 1A70     		strb	r2, [r3, #0]
 10302              	.L46:
 705:/home/cuil/workspace/arm/lm3s811/TI_Stellaris/driverlib/usb.c ****     }
 706:/home/cuil/workspace/arm/lm3s811/TI_Stellaris/driverlib/usb.c **** 
 707:/home/cuil/workspace/arm/lm3s811/TI_Stellaris/driverlib/usb.c ****     //
 708:/home/cuil/workspace/arm/lm3s811/TI_Stellaris/driverlib/usb.c ****     // Enable the power fault interrupt.
 709:/home/cuil/workspace/arm/lm3s811/TI_Stellaris/driverlib/usb.c ****     //
 710:/home/cuil/workspace/arm/lm3s811/TI_Stellaris/driverlib/usb.c ****     if(ulFlags & USB_INTCTRL_POWER_FAULT)
 10303              		.loc 1 710 0
 10304 0030 3B68     		ldr	r3, [r7, #0]
 10305 0032 03F48073 		and	r3, r3, #256
 10306 0036 002B     		cmp	r3, #0
 10307 0038 05D0     		beq	.L47
 711:/home/cuil/workspace/arm/lm3s811/TI_Stellaris/driverlib/usb.c ****     {
 712:/home/cuil/workspace/arm/lm3s811/TI_Stellaris/driverlib/usb.c ****         HWREG(ulBase + USB_O_EPCIM) = USB_EPCIM_PF;
 10308              		.loc 1 712 0
 10309 003a 7B68     		ldr	r3, [r7, #4]
 10310 003c 03F58163 		add	r3, r3, #1032
 10311 0040 4FF00102 		mov	r2, #1
 10312 0044 1A60     		str	r2, [r3, #0]
 10313              	.L47:
 713:/home/cuil/workspace/arm/lm3s811/TI_Stellaris/driverlib/usb.c ****     }
 714:/home/cuil/workspace/arm/lm3s811/TI_Stellaris/driverlib/usb.c **** 
 715:/home/cuil/workspace/arm/lm3s811/TI_Stellaris/driverlib/usb.c ****     //
 716:/home/cuil/workspace/arm/lm3s811/TI_Stellaris/driverlib/usb.c ****     // Enable the ID pin detect interrupt.
 717:/home/cuil/workspace/arm/lm3s811/TI_Stellaris/driverlib/usb.c ****     //
 718:/home/cuil/workspace/arm/lm3s811/TI_Stellaris/driverlib/usb.c ****     if(ulFlags & USB_INTCTRL_MODE_DETECT)
 10314              		.loc 1 718 0
 10315 0046 3B68     		ldr	r3, [r7, #0]
 10316 0048 03F40073 		and	r3, r3, #512
 10317 004c 002B     		cmp	r3, #0
 10318 004e 03D0     		beq	.L45
 719:/home/cuil/workspace/arm/lm3s811/TI_Stellaris/driverlib/usb.c ****     {
 720:/home/cuil/workspace/arm/lm3s811/TI_Stellaris/driverlib/usb.c ****         HWREG(USB0_BASE + USB_O_IDVIM) = USB_IDVIM_ID;
 10319              		.loc 1 720 0
 10320 0050 044B     		ldr	r3, .L49
 10321 0052 4FF00102 		mov	r2, #1
 10322 0056 1A60     		str	r2, [r3, #0]
 10323              	.L45:
 721:/home/cuil/workspace/arm/lm3s811/TI_Stellaris/driverlib/usb.c ****     }
 722:/home/cuil/workspace/arm/lm3s811/TI_Stellaris/driverlib/usb.c **** }
 10324              		.loc 1 722 0
 10325 0058 07F10C07 		add	r7, r7, #12
 10326 005c BD46     		mov	sp, r7
 10327 005e 80BC     		pop	{r7}
 10328 0060 7047     		bx	lr
 10329              	.L50:
 10330 0062 00BF     		.align	2
 10331              	.L49:
 10332 0064 48040540 		.word	1074070600
 10333              		.cfi_endproc
 10334              	.LFE10:
 10336              		.section	.text.USBIntStatusControl,"ax",%progbits
 10337              		.align	2
 10338              		.global	USBIntStatusControl
 10339              		.thumb
 10340              		.thumb_func
 10342              	USBIntStatusControl:
 10343              	.LFB11:
 723:/home/cuil/workspace/arm/lm3s811/TI_Stellaris/driverlib/usb.c **** 
 724:/home/cuil/workspace/arm/lm3s811/TI_Stellaris/driverlib/usb.c **** //*****************************************************************************
 725:/home/cuil/workspace/arm/lm3s811/TI_Stellaris/driverlib/usb.c **** //
 726:/home/cuil/workspace/arm/lm3s811/TI_Stellaris/driverlib/usb.c **** //! Returns the control interrupt status on a given USB controller.
 727:/home/cuil/workspace/arm/lm3s811/TI_Stellaris/driverlib/usb.c **** //!
 728:/home/cuil/workspace/arm/lm3s811/TI_Stellaris/driverlib/usb.c **** //! \param ulBase specifies the USB module base address.
 729:/home/cuil/workspace/arm/lm3s811/TI_Stellaris/driverlib/usb.c **** //!
 730:/home/cuil/workspace/arm/lm3s811/TI_Stellaris/driverlib/usb.c **** //! This function reads control interrupt status for a USB controller. This
 731:/home/cuil/workspace/arm/lm3s811/TI_Stellaris/driverlib/usb.c **** //! call returns the current status for control interrupts only, the endpoint
 732:/home/cuil/workspace/arm/lm3s811/TI_Stellaris/driverlib/usb.c **** //! interrupt status is retrieved by calling USBIntStatusEndpoint(). The bit 
 733:/home/cuil/workspace/arm/lm3s811/TI_Stellaris/driverlib/usb.c **** //! values returned should be compared against the \b USB_INTCTRL_*
 734:/home/cuil/workspace/arm/lm3s811/TI_Stellaris/driverlib/usb.c **** //! values.
 735:/home/cuil/workspace/arm/lm3s811/TI_Stellaris/driverlib/usb.c **** //!
 736:/home/cuil/workspace/arm/lm3s811/TI_Stellaris/driverlib/usb.c **** //! The following are the meanings of all \b USB_INCTRL_ flags and the modes
 737:/home/cuil/workspace/arm/lm3s811/TI_Stellaris/driverlib/usb.c **** //! for which they are valid.  These values apply to any calls to
 738:/home/cuil/workspace/arm/lm3s811/TI_Stellaris/driverlib/usb.c **** //! USBIntStatusControl(), USBIntEnableControl(), and USBIntDisableControl().
 739:/home/cuil/workspace/arm/lm3s811/TI_Stellaris/driverlib/usb.c **** //! Some of these flags are only valid in the following modes as indicated in
 740:/home/cuil/workspace/arm/lm3s811/TI_Stellaris/driverlib/usb.c **** //! the parentheses:  Host, Device, and OTG.
 741:/home/cuil/workspace/arm/lm3s811/TI_Stellaris/driverlib/usb.c **** //!
 742:/home/cuil/workspace/arm/lm3s811/TI_Stellaris/driverlib/usb.c **** //! - \b USB_INTCTRL_ALL - A full mask of all control interrupt sources.
 743:/home/cuil/workspace/arm/lm3s811/TI_Stellaris/driverlib/usb.c **** //! - \b USB_INTCTRL_VBUS_ERR - A VBUS error has occurred (Host Only).
 744:/home/cuil/workspace/arm/lm3s811/TI_Stellaris/driverlib/usb.c **** //! - \b USB_INTCTRL_SESSION - Session Start Detected on A-side of cable
 745:/home/cuil/workspace/arm/lm3s811/TI_Stellaris/driverlib/usb.c **** //!                            (OTG Only).
 746:/home/cuil/workspace/arm/lm3s811/TI_Stellaris/driverlib/usb.c **** //! - \b USB_INTCTRL_SESSION_END - Session End Detected (Device Only)
 747:/home/cuil/workspace/arm/lm3s811/TI_Stellaris/driverlib/usb.c **** //! - \b USB_INTCTRL_DISCONNECT - Device Disconnect Detected (Host Only)
 748:/home/cuil/workspace/arm/lm3s811/TI_Stellaris/driverlib/usb.c **** //! - \b USB_INTCTRL_CONNECT - Device Connect Detected (Host Only)
 749:/home/cuil/workspace/arm/lm3s811/TI_Stellaris/driverlib/usb.c **** //! - \b USB_INTCTRL_SOF - Start of Frame Detected.
 750:/home/cuil/workspace/arm/lm3s811/TI_Stellaris/driverlib/usb.c **** //! - \b USB_INTCTRL_BABBLE - USB controller detected a device signaling past
 751:/home/cuil/workspace/arm/lm3s811/TI_Stellaris/driverlib/usb.c **** //!                           the end of a frame. (Host Only)
 752:/home/cuil/workspace/arm/lm3s811/TI_Stellaris/driverlib/usb.c **** //! - \b USB_INTCTRL_RESET - Reset signaling detected by device. (Device Only)
 753:/home/cuil/workspace/arm/lm3s811/TI_Stellaris/driverlib/usb.c **** //! - \b USB_INTCTRL_RESUME - Resume signaling detected.
 754:/home/cuil/workspace/arm/lm3s811/TI_Stellaris/driverlib/usb.c **** //! - \b USB_INTCTRL_SUSPEND - Suspend signaling detected by device (Device
 755:/home/cuil/workspace/arm/lm3s811/TI_Stellaris/driverlib/usb.c **** //!                            Only)
 756:/home/cuil/workspace/arm/lm3s811/TI_Stellaris/driverlib/usb.c **** //! - \b USB_INTCTRL_MODE_DETECT - OTG cable mode detection has completed
 757:/home/cuil/workspace/arm/lm3s811/TI_Stellaris/driverlib/usb.c **** //!                                (OTG Only)
 758:/home/cuil/workspace/arm/lm3s811/TI_Stellaris/driverlib/usb.c **** //! - \b USB_INTCTRL_POWER_FAULT - Power Fault detected. (Host Only)
 759:/home/cuil/workspace/arm/lm3s811/TI_Stellaris/driverlib/usb.c **** //!
 760:/home/cuil/workspace/arm/lm3s811/TI_Stellaris/driverlib/usb.c **** //! \note This call clears the source of all of the control status interrupts.
 761:/home/cuil/workspace/arm/lm3s811/TI_Stellaris/driverlib/usb.c **** //! 
 762:/home/cuil/workspace/arm/lm3s811/TI_Stellaris/driverlib/usb.c **** //! \return Returns the status of the control interrupts for a USB controller.
 763:/home/cuil/workspace/arm/lm3s811/TI_Stellaris/driverlib/usb.c **** //
 764:/home/cuil/workspace/arm/lm3s811/TI_Stellaris/driverlib/usb.c **** //*****************************************************************************
 765:/home/cuil/workspace/arm/lm3s811/TI_Stellaris/driverlib/usb.c **** unsigned long
 766:/home/cuil/workspace/arm/lm3s811/TI_Stellaris/driverlib/usb.c **** USBIntStatusControl(unsigned long ulBase)
 767:/home/cuil/workspace/arm/lm3s811/TI_Stellaris/driverlib/usb.c **** {
 10344              		.loc 1 767 0
 10345              		.cfi_startproc
 10346              		@ args = 0, pretend = 0, frame = 16
 10347              		@ frame_needed = 1, uses_anonymous_args = 0
 10348              		@ link register save eliminated.
 10349 0000 80B4     		push	{r7}
 10350              	.LCFI33:
 10351              		.cfi_def_cfa_offset 4
 10352 0002 85B0     		sub	sp, sp, #20
 10353              	.LCFI34:
 10354              		.cfi_def_cfa_offset 24
 10355 0004 00AF     		add	r7, sp, #0
 10356              		.cfi_offset 7, -4
 10357              	.LCFI35:
 10358              		.cfi_def_cfa_register 7
 10359 0006 7860     		str	r0, [r7, #4]
 768:/home/cuil/workspace/arm/lm3s811/TI_Stellaris/driverlib/usb.c ****     unsigned long ulStatus;
 769:/home/cuil/workspace/arm/lm3s811/TI_Stellaris/driverlib/usb.c **** 
 770:/home/cuil/workspace/arm/lm3s811/TI_Stellaris/driverlib/usb.c ****     //
 771:/home/cuil/workspace/arm/lm3s811/TI_Stellaris/driverlib/usb.c ****     // Check the arguments.
 772:/home/cuil/workspace/arm/lm3s811/TI_Stellaris/driverlib/usb.c ****     //
 773:/home/cuil/workspace/arm/lm3s811/TI_Stellaris/driverlib/usb.c ****     ASSERT(ulBase == USB0_BASE);
 774:/home/cuil/workspace/arm/lm3s811/TI_Stellaris/driverlib/usb.c **** 
 775:/home/cuil/workspace/arm/lm3s811/TI_Stellaris/driverlib/usb.c ****     //
 776:/home/cuil/workspace/arm/lm3s811/TI_Stellaris/driverlib/usb.c ****     // Get the general interrupt status, these bits go into the upper 8 bits
 777:/home/cuil/workspace/arm/lm3s811/TI_Stellaris/driverlib/usb.c ****     // of the returned value.
 778:/home/cuil/workspace/arm/lm3s811/TI_Stellaris/driverlib/usb.c ****     //
 779:/home/cuil/workspace/arm/lm3s811/TI_Stellaris/driverlib/usb.c ****     ulStatus = HWREGB(ulBase + USB_O_IS);
 10360              		.loc 1 779 0
 10361 0008 7B68     		ldr	r3, [r7, #4]
 10362 000a 03F10A03 		add	r3, r3, #10
 10363 000e 1B78     		ldrb	r3, [r3, #0]
 10364 0010 DBB2     		uxtb	r3, r3
 10365 0012 FB60     		str	r3, [r7, #12]
 780:/home/cuil/workspace/arm/lm3s811/TI_Stellaris/driverlib/usb.c **** 
 781:/home/cuil/workspace/arm/lm3s811/TI_Stellaris/driverlib/usb.c ****     //
 782:/home/cuil/workspace/arm/lm3s811/TI_Stellaris/driverlib/usb.c ****     // Add the power fault status.
 783:/home/cuil/workspace/arm/lm3s811/TI_Stellaris/driverlib/usb.c ****     //
 784:/home/cuil/workspace/arm/lm3s811/TI_Stellaris/driverlib/usb.c ****     if(HWREG(ulBase + USB_O_EPCISC) & USB_EPCISC_PF)
 10366              		.loc 1 784 0
 10367 0014 7B68     		ldr	r3, [r7, #4]
 10368 0016 03F58063 		add	r3, r3, #1024
 10369 001a 03F10C03 		add	r3, r3, #12
 10370 001e 1B68     		ldr	r3, [r3, #0]
 10371 0020 03F00103 		and	r3, r3, #1
 10372 0024 DBB2     		uxtb	r3, r3
 10373 0026 002B     		cmp	r3, #0
 10374 0028 14D0     		beq	.L52
 785:/home/cuil/workspace/arm/lm3s811/TI_Stellaris/driverlib/usb.c ****     {
 786:/home/cuil/workspace/arm/lm3s811/TI_Stellaris/driverlib/usb.c ****         //
 787:/home/cuil/workspace/arm/lm3s811/TI_Stellaris/driverlib/usb.c ****         // Indicate a power fault was detected.
 788:/home/cuil/workspace/arm/lm3s811/TI_Stellaris/driverlib/usb.c ****         //
 789:/home/cuil/workspace/arm/lm3s811/TI_Stellaris/driverlib/usb.c ****         ulStatus |= USB_INTCTRL_POWER_FAULT;
 10375              		.loc 1 789 0
 10376 002a FB68     		ldr	r3, [r7, #12]
 10377 002c 43F48073 		orr	r3, r3, #256
 10378 0030 FB60     		str	r3, [r7, #12]
 790:/home/cuil/workspace/arm/lm3s811/TI_Stellaris/driverlib/usb.c **** 
 791:/home/cuil/workspace/arm/lm3s811/TI_Stellaris/driverlib/usb.c ****         //
 792:/home/cuil/workspace/arm/lm3s811/TI_Stellaris/driverlib/usb.c ****         // Clear the power fault interrupt.
 793:/home/cuil/workspace/arm/lm3s811/TI_Stellaris/driverlib/usb.c ****         //
 794:/home/cuil/workspace/arm/lm3s811/TI_Stellaris/driverlib/usb.c ****         HWREGB(ulBase + USB_O_EPCISC) |= USB_EPCISC_PF;
 10379              		.loc 1 794 0
 10380 0032 7B68     		ldr	r3, [r7, #4]
 10381 0034 03F58063 		add	r3, r3, #1024
 10382 0038 03F10C03 		add	r3, r3, #12
 10383 003c 1A46     		mov	r2, r3
 10384 003e 7B68     		ldr	r3, [r7, #4]
 10385 0040 03F58063 		add	r3, r3, #1024
 10386 0044 03F10C03 		add	r3, r3, #12
 10387 0048 1B78     		ldrb	r3, [r3, #0]
 10388 004a DBB2     		uxtb	r3, r3
 10389 004c 43F00103 		orr	r3, r3, #1
 10390 0050 DBB2     		uxtb	r3, r3
 10391 0052 1370     		strb	r3, [r2, #0]
 10392              	.L52:
 795:/home/cuil/workspace/arm/lm3s811/TI_Stellaris/driverlib/usb.c ****     }
 796:/home/cuil/workspace/arm/lm3s811/TI_Stellaris/driverlib/usb.c **** 
 797:/home/cuil/workspace/arm/lm3s811/TI_Stellaris/driverlib/usb.c ****     if(HWREG(USB0_BASE + USB_O_IDVISC) & USB_IDVRIS_ID)
 10393              		.loc 1 797 0
 10394 0054 0B4B     		ldr	r3, .L54
 10395 0056 1B68     		ldr	r3, [r3, #0]
 10396 0058 03F00103 		and	r3, r3, #1
 10397 005c DBB2     		uxtb	r3, r3
 10398 005e 002B     		cmp	r3, #0
 10399 0060 09D0     		beq	.L53
 798:/home/cuil/workspace/arm/lm3s811/TI_Stellaris/driverlib/usb.c ****     {
 799:/home/cuil/workspace/arm/lm3s811/TI_Stellaris/driverlib/usb.c ****         //
 800:/home/cuil/workspace/arm/lm3s811/TI_Stellaris/driverlib/usb.c ****         // Indicate an id detection.
 801:/home/cuil/workspace/arm/lm3s811/TI_Stellaris/driverlib/usb.c ****         //
 802:/home/cuil/workspace/arm/lm3s811/TI_Stellaris/driverlib/usb.c ****         ulStatus |= USB_INTCTRL_MODE_DETECT;
 10400              		.loc 1 802 0
 10401 0062 FB68     		ldr	r3, [r7, #12]
 10402 0064 43F40073 		orr	r3, r3, #512
 10403 0068 FB60     		str	r3, [r7, #12]
 803:/home/cuil/workspace/arm/lm3s811/TI_Stellaris/driverlib/usb.c **** 
 804:/home/cuil/workspace/arm/lm3s811/TI_Stellaris/driverlib/usb.c ****         //
 805:/home/cuil/workspace/arm/lm3s811/TI_Stellaris/driverlib/usb.c ****         // Clear the id detection interrupt.
 806:/home/cuil/workspace/arm/lm3s811/TI_Stellaris/driverlib/usb.c ****         //
 807:/home/cuil/workspace/arm/lm3s811/TI_Stellaris/driverlib/usb.c ****         HWREG(USB0_BASE + USB_O_IDVISC) |= USB_IDVRIS_ID;
 10404              		.loc 1 807 0
 10405 006a 064B     		ldr	r3, .L54
 10406 006c 054A     		ldr	r2, .L54
 10407 006e 1268     		ldr	r2, [r2, #0]
 10408 0070 42F00102 		orr	r2, r2, #1
 10409 0074 1A60     		str	r2, [r3, #0]
 10410              	.L53:
 808:/home/cuil/workspace/arm/lm3s811/TI_Stellaris/driverlib/usb.c ****     }
 809:/home/cuil/workspace/arm/lm3s811/TI_Stellaris/driverlib/usb.c **** 
 810:/home/cuil/workspace/arm/lm3s811/TI_Stellaris/driverlib/usb.c ****     //
 811:/home/cuil/workspace/arm/lm3s811/TI_Stellaris/driverlib/usb.c ****     // Return the combined interrupt status.
 812:/home/cuil/workspace/arm/lm3s811/TI_Stellaris/driverlib/usb.c ****     //
 813:/home/cuil/workspace/arm/lm3s811/TI_Stellaris/driverlib/usb.c ****     return(ulStatus);
 10411              		.loc 1 813 0
 10412 0076 FB68     		ldr	r3, [r7, #12]
 814:/home/cuil/workspace/arm/lm3s811/TI_Stellaris/driverlib/usb.c **** }
 10413              		.loc 1 814 0
 10414 0078 1846     		mov	r0, r3
 10415 007a 07F11407 		add	r7, r7, #20
 10416 007e BD46     		mov	sp, r7
 10417 0080 80BC     		pop	{r7}
 10418 0082 7047     		bx	lr
 10419              	.L55:
 10420              		.align	2
 10421              	.L54:
 10422 0084 4C040540 		.word	1074070604
 10423              		.cfi_endproc
 10424              	.LFE11:
 10426              		.section	.text.USBIntDisableEndpoint,"ax",%progbits
 10427              		.align	2
 10428              		.global	USBIntDisableEndpoint
 10429              		.thumb
 10430              		.thumb_func
 10432              	USBIntDisableEndpoint:
 10433              	.LFB12:
 815:/home/cuil/workspace/arm/lm3s811/TI_Stellaris/driverlib/usb.c **** 
 816:/home/cuil/workspace/arm/lm3s811/TI_Stellaris/driverlib/usb.c **** //*****************************************************************************
 817:/home/cuil/workspace/arm/lm3s811/TI_Stellaris/driverlib/usb.c **** //
 818:/home/cuil/workspace/arm/lm3s811/TI_Stellaris/driverlib/usb.c **** //! Disables endpoint interrupts on a given USB controller.
 819:/home/cuil/workspace/arm/lm3s811/TI_Stellaris/driverlib/usb.c **** //!
 820:/home/cuil/workspace/arm/lm3s811/TI_Stellaris/driverlib/usb.c **** //! \param ulBase specifies the USB module base address.
 821:/home/cuil/workspace/arm/lm3s811/TI_Stellaris/driverlib/usb.c **** //! \param ulFlags specifies which endpoint interrupts to disable.
 822:/home/cuil/workspace/arm/lm3s811/TI_Stellaris/driverlib/usb.c **** //!
 823:/home/cuil/workspace/arm/lm3s811/TI_Stellaris/driverlib/usb.c **** //! This function disables endpoint interrupts for the USB controller specified
 824:/home/cuil/workspace/arm/lm3s811/TI_Stellaris/driverlib/usb.c **** //! by the \e ulBase parameter.  The \e ulFlags parameter specifies which
 825:/home/cuil/workspace/arm/lm3s811/TI_Stellaris/driverlib/usb.c **** //! endpoint interrupts to disable.  The flags passed in the \e ulFlags
 826:/home/cuil/workspace/arm/lm3s811/TI_Stellaris/driverlib/usb.c **** //! parameters should be the definitions that start with \b USB_INTEP_* and not
 827:/home/cuil/workspace/arm/lm3s811/TI_Stellaris/driverlib/usb.c **** //! any other \b USB_INT flags.
 828:/home/cuil/workspace/arm/lm3s811/TI_Stellaris/driverlib/usb.c **** //!
 829:/home/cuil/workspace/arm/lm3s811/TI_Stellaris/driverlib/usb.c **** //! \return None.
 830:/home/cuil/workspace/arm/lm3s811/TI_Stellaris/driverlib/usb.c **** //
 831:/home/cuil/workspace/arm/lm3s811/TI_Stellaris/driverlib/usb.c **** //*****************************************************************************
 832:/home/cuil/workspace/arm/lm3s811/TI_Stellaris/driverlib/usb.c **** void
 833:/home/cuil/workspace/arm/lm3s811/TI_Stellaris/driverlib/usb.c **** USBIntDisableEndpoint(unsigned long ulBase, unsigned long ulFlags)
 834:/home/cuil/workspace/arm/lm3s811/TI_Stellaris/driverlib/usb.c **** {
 10434              		.loc 1 834 0
 10435              		.cfi_startproc
 10436              		@ args = 0, pretend = 0, frame = 8
 10437              		@ frame_needed = 1, uses_anonymous_args = 0
 10438              		@ link register save eliminated.
 10439 0000 80B4     		push	{r7}
 10440              	.LCFI36:
 10441              		.cfi_def_cfa_offset 4
 10442 0002 83B0     		sub	sp, sp, #12
 10443              	.LCFI37:
 10444              		.cfi_def_cfa_offset 16
 10445 0004 00AF     		add	r7, sp, #0
 10446              		.cfi_offset 7, -4
 10447              	.LCFI38:
 10448              		.cfi_def_cfa_register 7
 10449 0006 7860     		str	r0, [r7, #4]
 10450 0008 3960     		str	r1, [r7, #0]
 835:/home/cuil/workspace/arm/lm3s811/TI_Stellaris/driverlib/usb.c ****     //
 836:/home/cuil/workspace/arm/lm3s811/TI_Stellaris/driverlib/usb.c ****     // Check the arguments.
 837:/home/cuil/workspace/arm/lm3s811/TI_Stellaris/driverlib/usb.c ****     //
 838:/home/cuil/workspace/arm/lm3s811/TI_Stellaris/driverlib/usb.c ****     ASSERT(ulBase == USB0_BASE);
 839:/home/cuil/workspace/arm/lm3s811/TI_Stellaris/driverlib/usb.c **** 
 840:/home/cuil/workspace/arm/lm3s811/TI_Stellaris/driverlib/usb.c ****     //
 841:/home/cuil/workspace/arm/lm3s811/TI_Stellaris/driverlib/usb.c ****     // If any transmit interrupts were disabled, then write the transmit
 842:/home/cuil/workspace/arm/lm3s811/TI_Stellaris/driverlib/usb.c ****     // interrupt settings out to the hardware.
 843:/home/cuil/workspace/arm/lm3s811/TI_Stellaris/driverlib/usb.c ****     //
 844:/home/cuil/workspace/arm/lm3s811/TI_Stellaris/driverlib/usb.c ****     HWREGH(ulBase + USB_O_TXIE) &=
 10451              		.loc 1 844 0
 10452 000a 7B68     		ldr	r3, [r7, #4]
 10453 000c 03F10603 		add	r3, r3, #6
 10454 0010 7A68     		ldr	r2, [r7, #4]
 10455 0012 02F10602 		add	r2, r2, #6
 10456 0016 1288     		ldrh	r2, [r2, #0]	@ movhi
 10457 0018 91B2     		uxth	r1, r2
 10458 001a 3A68     		ldr	r2, [r7, #0]
 10459 001c 92B2     		uxth	r2, r2
 10460 001e 6FEA0202 		mvn	r2, r2
 10461 0022 92B2     		uxth	r2, r2
 10462 0024 01EA0202 		and	r2, r1, r2
 10463 0028 92B2     		uxth	r2, r2
 10464 002a 1A80     		strh	r2, [r3, #0]	@ movhi
 845:/home/cuil/workspace/arm/lm3s811/TI_Stellaris/driverlib/usb.c ****         ~(ulFlags & (USB_INTEP_HOST_OUT | USB_INTEP_DEV_IN | USB_INTEP_0));
 846:/home/cuil/workspace/arm/lm3s811/TI_Stellaris/driverlib/usb.c **** 
 847:/home/cuil/workspace/arm/lm3s811/TI_Stellaris/driverlib/usb.c ****     //
 848:/home/cuil/workspace/arm/lm3s811/TI_Stellaris/driverlib/usb.c ****     // If any receive interrupts were disabled, then write the receive interrupt
 849:/home/cuil/workspace/arm/lm3s811/TI_Stellaris/driverlib/usb.c ****     // settings out to the hardware.
 850:/home/cuil/workspace/arm/lm3s811/TI_Stellaris/driverlib/usb.c ****     //
 851:/home/cuil/workspace/arm/lm3s811/TI_Stellaris/driverlib/usb.c ****     HWREGH(ulBase + USB_O_RXIE) &=
 10465              		.loc 1 851 0
 10466 002c 7B68     		ldr	r3, [r7, #4]
 10467 002e 03F10803 		add	r3, r3, #8
 10468 0032 1A46     		mov	r2, r3
 10469 0034 7B68     		ldr	r3, [r7, #4]
 10470 0036 03F10803 		add	r3, r3, #8
 10471 003a 1B88     		ldrh	r3, [r3, #0]	@ movhi
 10472 003c 99B2     		uxth	r1, r3
 852:/home/cuil/workspace/arm/lm3s811/TI_Stellaris/driverlib/usb.c ****         ~((ulFlags & (USB_INTEP_HOST_IN | USB_INTEP_DEV_OUT)) >>
 10473              		.loc 1 852 0
 10474 003e 3B68     		ldr	r3, [r7, #0]
 10475 0040 4FEA5343 		lsr	r3, r3, #17
 10476 0044 4FEA4343 		lsl	r3, r3, #17
 10477 0048 4FEA1343 		lsr	r3, r3, #16
 851:/home/cuil/workspace/arm/lm3s811/TI_Stellaris/driverlib/usb.c ****     HWREGH(ulBase + USB_O_RXIE) &=
 10478              		.loc 1 851 0
 10479 004c 9BB2     		uxth	r3, r3
 10480 004e 6FEA0303 		mvn	r3, r3
 10481 0052 9BB2     		uxth	r3, r3
 10482 0054 01EA0303 		and	r3, r1, r3
 10483 0058 9BB2     		uxth	r3, r3
 10484 005a 1380     		strh	r3, [r2, #0]	@ movhi
 853:/home/cuil/workspace/arm/lm3s811/TI_Stellaris/driverlib/usb.c ****           USB_INTEP_RX_SHIFT);
 854:/home/cuil/workspace/arm/lm3s811/TI_Stellaris/driverlib/usb.c **** }
 10485              		.loc 1 854 0
 10486 005c 07F10C07 		add	r7, r7, #12
 10487 0060 BD46     		mov	sp, r7
 10488 0062 80BC     		pop	{r7}
 10489 0064 7047     		bx	lr
 10490              		.cfi_endproc
 10491              	.LFE12:
 10493 0066 00BF     		.section	.text.USBIntEnableEndpoint,"ax",%progbits
 10494              		.align	2
 10495              		.global	USBIntEnableEndpoint
 10496              		.thumb
 10497              		.thumb_func
 10499              	USBIntEnableEndpoint:
 10500              	.LFB13:
 855:/home/cuil/workspace/arm/lm3s811/TI_Stellaris/driverlib/usb.c **** 
 856:/home/cuil/workspace/arm/lm3s811/TI_Stellaris/driverlib/usb.c **** //*****************************************************************************
 857:/home/cuil/workspace/arm/lm3s811/TI_Stellaris/driverlib/usb.c **** //
 858:/home/cuil/workspace/arm/lm3s811/TI_Stellaris/driverlib/usb.c **** //! Enables endpoint interrupts on a given USB controller.
 859:/home/cuil/workspace/arm/lm3s811/TI_Stellaris/driverlib/usb.c **** //!
 860:/home/cuil/workspace/arm/lm3s811/TI_Stellaris/driverlib/usb.c **** //! \param ulBase specifies the USB module base address.
 861:/home/cuil/workspace/arm/lm3s811/TI_Stellaris/driverlib/usb.c **** //! \param ulFlags specifies which endpoint interrupts to enable.
 862:/home/cuil/workspace/arm/lm3s811/TI_Stellaris/driverlib/usb.c **** //!
 863:/home/cuil/workspace/arm/lm3s811/TI_Stellaris/driverlib/usb.c **** //! This function enables endpoint interrupts for the USB controller specified
 864:/home/cuil/workspace/arm/lm3s811/TI_Stellaris/driverlib/usb.c **** //! by the \e ulBase parameter.  The \e ulFlags parameter specifies which
 865:/home/cuil/workspace/arm/lm3s811/TI_Stellaris/driverlib/usb.c **** //! endpoint interrupts to enable.  The flags passed in the \e ulFlags
 866:/home/cuil/workspace/arm/lm3s811/TI_Stellaris/driverlib/usb.c **** //! parameters should be the definitions that start with \b USB_INTEP_* and not
 867:/home/cuil/workspace/arm/lm3s811/TI_Stellaris/driverlib/usb.c **** //! any other \b USB_INT flags.
 868:/home/cuil/workspace/arm/lm3s811/TI_Stellaris/driverlib/usb.c **** //!
 869:/home/cuil/workspace/arm/lm3s811/TI_Stellaris/driverlib/usb.c **** //! \return None.
 870:/home/cuil/workspace/arm/lm3s811/TI_Stellaris/driverlib/usb.c **** //
 871:/home/cuil/workspace/arm/lm3s811/TI_Stellaris/driverlib/usb.c **** //*****************************************************************************
 872:/home/cuil/workspace/arm/lm3s811/TI_Stellaris/driverlib/usb.c **** void
 873:/home/cuil/workspace/arm/lm3s811/TI_Stellaris/driverlib/usb.c **** USBIntEnableEndpoint(unsigned long ulBase, unsigned long ulFlags)
 874:/home/cuil/workspace/arm/lm3s811/TI_Stellaris/driverlib/usb.c **** {
 10501              		.loc 1 874 0
 10502              		.cfi_startproc
 10503              		@ args = 0, pretend = 0, frame = 8
 10504              		@ frame_needed = 1, uses_anonymous_args = 0
 10505              		@ link register save eliminated.
 10506 0000 80B4     		push	{r7}
 10507              	.LCFI39:
 10508              		.cfi_def_cfa_offset 4
 10509 0002 83B0     		sub	sp, sp, #12
 10510              	.LCFI40:
 10511              		.cfi_def_cfa_offset 16
 10512 0004 00AF     		add	r7, sp, #0
 10513              		.cfi_offset 7, -4
 10514              	.LCFI41:
 10515              		.cfi_def_cfa_register 7
 10516 0006 7860     		str	r0, [r7, #4]
 10517 0008 3960     		str	r1, [r7, #0]
 875:/home/cuil/workspace/arm/lm3s811/TI_Stellaris/driverlib/usb.c ****     //
 876:/home/cuil/workspace/arm/lm3s811/TI_Stellaris/driverlib/usb.c ****     // Check the arguments.
 877:/home/cuil/workspace/arm/lm3s811/TI_Stellaris/driverlib/usb.c ****     //
 878:/home/cuil/workspace/arm/lm3s811/TI_Stellaris/driverlib/usb.c ****     ASSERT(ulBase == USB0_BASE);
 879:/home/cuil/workspace/arm/lm3s811/TI_Stellaris/driverlib/usb.c **** 
 880:/home/cuil/workspace/arm/lm3s811/TI_Stellaris/driverlib/usb.c ****     //
 881:/home/cuil/workspace/arm/lm3s811/TI_Stellaris/driverlib/usb.c ****     // Enable any transmit endpoint interrupts.
 882:/home/cuil/workspace/arm/lm3s811/TI_Stellaris/driverlib/usb.c ****     //
 883:/home/cuil/workspace/arm/lm3s811/TI_Stellaris/driverlib/usb.c ****     HWREGH(ulBase + USB_O_TXIE) |=
 10518              		.loc 1 883 0
 10519 000a 7B68     		ldr	r3, [r7, #4]
 10520 000c 03F10603 		add	r3, r3, #6
 10521 0010 7A68     		ldr	r2, [r7, #4]
 10522 0012 02F10602 		add	r2, r2, #6
 10523 0016 1288     		ldrh	r2, [r2, #0]	@ movhi
 10524 0018 91B2     		uxth	r1, r2
 10525 001a 3A68     		ldr	r2, [r7, #0]
 10526 001c 92B2     		uxth	r2, r2
 10527 001e 41EA0202 		orr	r2, r1, r2
 10528 0022 92B2     		uxth	r2, r2
 10529 0024 1A80     		strh	r2, [r3, #0]	@ movhi
 884:/home/cuil/workspace/arm/lm3s811/TI_Stellaris/driverlib/usb.c ****            ulFlags & (USB_INTEP_HOST_OUT | USB_INTEP_DEV_IN | USB_INTEP_0);
 885:/home/cuil/workspace/arm/lm3s811/TI_Stellaris/driverlib/usb.c **** 
 886:/home/cuil/workspace/arm/lm3s811/TI_Stellaris/driverlib/usb.c ****     //
 887:/home/cuil/workspace/arm/lm3s811/TI_Stellaris/driverlib/usb.c ****     // Enable any receive endpoint interrupts.
 888:/home/cuil/workspace/arm/lm3s811/TI_Stellaris/driverlib/usb.c ****     //
 889:/home/cuil/workspace/arm/lm3s811/TI_Stellaris/driverlib/usb.c ****     HWREGH(ulBase + USB_O_RXIE) |=
 10530              		.loc 1 889 0
 10531 0026 7B68     		ldr	r3, [r7, #4]
 10532 0028 03F10803 		add	r3, r3, #8
 10533 002c 1A46     		mov	r2, r3
 10534 002e 7B68     		ldr	r3, [r7, #4]
 10535 0030 03F10803 		add	r3, r3, #8
 10536 0034 1B88     		ldrh	r3, [r3, #0]	@ movhi
 10537 0036 99B2     		uxth	r1, r3
 890:/home/cuil/workspace/arm/lm3s811/TI_Stellaris/driverlib/usb.c ****         ((ulFlags & (USB_INTEP_HOST_IN | USB_INTEP_DEV_OUT)) >>
 10538              		.loc 1 890 0
 10539 0038 3B68     		ldr	r3, [r7, #0]
 10540 003a 4FEA5343 		lsr	r3, r3, #17
 10541 003e 4FEA4343 		lsl	r3, r3, #17
 10542 0042 4FEA1343 		lsr	r3, r3, #16
 889:/home/cuil/workspace/arm/lm3s811/TI_Stellaris/driverlib/usb.c ****     HWREGH(ulBase + USB_O_RXIE) |=
 10543              		.loc 1 889 0
 10544 0046 9BB2     		uxth	r3, r3
 10545 0048 41EA0303 		orr	r3, r1, r3
 10546 004c 9BB2     		uxth	r3, r3
 10547 004e 1380     		strh	r3, [r2, #0]	@ movhi
 891:/home/cuil/workspace/arm/lm3s811/TI_Stellaris/driverlib/usb.c ****          USB_INTEP_RX_SHIFT);
 892:/home/cuil/workspace/arm/lm3s811/TI_Stellaris/driverlib/usb.c **** }
 10548              		.loc 1 892 0
 10549 0050 07F10C07 		add	r7, r7, #12
 10550 0054 BD46     		mov	sp, r7
 10551 0056 80BC     		pop	{r7}
 10552 0058 7047     		bx	lr
 10553              		.cfi_endproc
 10554              	.LFE13:
 10556 005a 00BF     		.section	.text.USBIntStatusEndpoint,"ax",%progbits
 10557              		.align	2
 10558              		.global	USBIntStatusEndpoint
 10559              		.thumb
 10560              		.thumb_func
 10562              	USBIntStatusEndpoint:
 10563              	.LFB14:
 893:/home/cuil/workspace/arm/lm3s811/TI_Stellaris/driverlib/usb.c **** 
 894:/home/cuil/workspace/arm/lm3s811/TI_Stellaris/driverlib/usb.c **** //*****************************************************************************
 895:/home/cuil/workspace/arm/lm3s811/TI_Stellaris/driverlib/usb.c **** //
 896:/home/cuil/workspace/arm/lm3s811/TI_Stellaris/driverlib/usb.c **** //! Returns the endpoint interrupt status on a given USB controller.
 897:/home/cuil/workspace/arm/lm3s811/TI_Stellaris/driverlib/usb.c **** //!
 898:/home/cuil/workspace/arm/lm3s811/TI_Stellaris/driverlib/usb.c **** //! \param ulBase specifies the USB module base address.
 899:/home/cuil/workspace/arm/lm3s811/TI_Stellaris/driverlib/usb.c **** //!
 900:/home/cuil/workspace/arm/lm3s811/TI_Stellaris/driverlib/usb.c **** //! This function reads endpoint interrupt status for a USB controller. This
 901:/home/cuil/workspace/arm/lm3s811/TI_Stellaris/driverlib/usb.c **** //! call returns the current status for endpoint interrupts only, the control
 902:/home/cuil/workspace/arm/lm3s811/TI_Stellaris/driverlib/usb.c **** //! interrupt status is retrieved by calling USBIntStatusControl(). The bit 
 903:/home/cuil/workspace/arm/lm3s811/TI_Stellaris/driverlib/usb.c **** //! values returned should be compared against the \b USB_INTEP_* values.  
 904:/home/cuil/workspace/arm/lm3s811/TI_Stellaris/driverlib/usb.c **** //! These values are grouped into classes for \b USB_INTEP_HOST_* and
 905:/home/cuil/workspace/arm/lm3s811/TI_Stellaris/driverlib/usb.c **** //! \b USB_INTEP_DEV_* values to handle both host and device modes with all
 906:/home/cuil/workspace/arm/lm3s811/TI_Stellaris/driverlib/usb.c **** //! endpoints.
 907:/home/cuil/workspace/arm/lm3s811/TI_Stellaris/driverlib/usb.c **** //!
 908:/home/cuil/workspace/arm/lm3s811/TI_Stellaris/driverlib/usb.c **** //! \note This call clears the source of all of the endpoint interrupts.
 909:/home/cuil/workspace/arm/lm3s811/TI_Stellaris/driverlib/usb.c **** //!
 910:/home/cuil/workspace/arm/lm3s811/TI_Stellaris/driverlib/usb.c **** //! \return Returns the status of the endpoint interrupts for a USB controller.
 911:/home/cuil/workspace/arm/lm3s811/TI_Stellaris/driverlib/usb.c **** //
 912:/home/cuil/workspace/arm/lm3s811/TI_Stellaris/driverlib/usb.c **** //*****************************************************************************
 913:/home/cuil/workspace/arm/lm3s811/TI_Stellaris/driverlib/usb.c **** unsigned long
 914:/home/cuil/workspace/arm/lm3s811/TI_Stellaris/driverlib/usb.c **** USBIntStatusEndpoint(unsigned long ulBase)
 915:/home/cuil/workspace/arm/lm3s811/TI_Stellaris/driverlib/usb.c **** {
 10564              		.loc 1 915 0
 10565              		.cfi_startproc
 10566              		@ args = 0, pretend = 0, frame = 16
 10567              		@ frame_needed = 1, uses_anonymous_args = 0
 10568              		@ link register save eliminated.
 10569 0000 80B4     		push	{r7}
 10570              	.LCFI42:
 10571              		.cfi_def_cfa_offset 4
 10572 0002 85B0     		sub	sp, sp, #20
 10573              	.LCFI43:
 10574              		.cfi_def_cfa_offset 24
 10575 0004 00AF     		add	r7, sp, #0
 10576              		.cfi_offset 7, -4
 10577              	.LCFI44:
 10578              		.cfi_def_cfa_register 7
 10579 0006 7860     		str	r0, [r7, #4]
 916:/home/cuil/workspace/arm/lm3s811/TI_Stellaris/driverlib/usb.c ****     unsigned long ulStatus;
 917:/home/cuil/workspace/arm/lm3s811/TI_Stellaris/driverlib/usb.c **** 
 918:/home/cuil/workspace/arm/lm3s811/TI_Stellaris/driverlib/usb.c ****     //
 919:/home/cuil/workspace/arm/lm3s811/TI_Stellaris/driverlib/usb.c ****     // Check the arguments.
 920:/home/cuil/workspace/arm/lm3s811/TI_Stellaris/driverlib/usb.c ****     //
 921:/home/cuil/workspace/arm/lm3s811/TI_Stellaris/driverlib/usb.c ****     ASSERT(ulBase == USB0_BASE);
 922:/home/cuil/workspace/arm/lm3s811/TI_Stellaris/driverlib/usb.c **** 
 923:/home/cuil/workspace/arm/lm3s811/TI_Stellaris/driverlib/usb.c ****     //
 924:/home/cuil/workspace/arm/lm3s811/TI_Stellaris/driverlib/usb.c ****     // Get the transmit interrupt status.
 925:/home/cuil/workspace/arm/lm3s811/TI_Stellaris/driverlib/usb.c ****     //
 926:/home/cuil/workspace/arm/lm3s811/TI_Stellaris/driverlib/usb.c ****     ulStatus = HWREGH(ulBase + USB_O_TXIS);
 10580              		.loc 1 926 0
 10581 0008 7B68     		ldr	r3, [r7, #4]
 10582 000a 03F10203 		add	r3, r3, #2
 10583 000e 1B88     		ldrh	r3, [r3, #0]	@ movhi
 10584 0010 9BB2     		uxth	r3, r3
 10585 0012 FB60     		str	r3, [r7, #12]
 927:/home/cuil/workspace/arm/lm3s811/TI_Stellaris/driverlib/usb.c **** 
 928:/home/cuil/workspace/arm/lm3s811/TI_Stellaris/driverlib/usb.c ****     ulStatus |= (HWREGH(ulBase + USB_O_RXIS) << USB_INTEP_RX_SHIFT);
 10586              		.loc 1 928 0
 10587 0014 7B68     		ldr	r3, [r7, #4]
 10588 0016 03F10403 		add	r3, r3, #4
 10589 001a 1B88     		ldrh	r3, [r3, #0]	@ movhi
 10590 001c 9BB2     		uxth	r3, r3
 10591 001e 4FEA0343 		lsl	r3, r3, #16
 10592 0022 FA68     		ldr	r2, [r7, #12]
 10593 0024 42EA0303 		orr	r3, r2, r3
 10594 0028 FB60     		str	r3, [r7, #12]
 929:/home/cuil/workspace/arm/lm3s811/TI_Stellaris/driverlib/usb.c **** 
 930:/home/cuil/workspace/arm/lm3s811/TI_Stellaris/driverlib/usb.c ****     //
 931:/home/cuil/workspace/arm/lm3s811/TI_Stellaris/driverlib/usb.c ****     // Return the combined interrupt status.
 932:/home/cuil/workspace/arm/lm3s811/TI_Stellaris/driverlib/usb.c ****     //
 933:/home/cuil/workspace/arm/lm3s811/TI_Stellaris/driverlib/usb.c ****     return(ulStatus);
 10595              		.loc 1 933 0
 10596 002a FB68     		ldr	r3, [r7, #12]
 934:/home/cuil/workspace/arm/lm3s811/TI_Stellaris/driverlib/usb.c **** }
 10597              		.loc 1 934 0
 10598 002c 1846     		mov	r0, r3
 10599 002e 07F11407 		add	r7, r7, #20
 10600 0032 BD46     		mov	sp, r7
 10601 0034 80BC     		pop	{r7}
 10602 0036 7047     		bx	lr
 10603              		.cfi_endproc
 10604              	.LFE14:
 10606              		.section	.text.USBIntRegister,"ax",%progbits
 10607              		.align	2
 10608              		.global	USBIntRegister
 10609              		.thumb
 10610              		.thumb_func
 10612              	USBIntRegister:
 10613              	.LFB15:
 935:/home/cuil/workspace/arm/lm3s811/TI_Stellaris/driverlib/usb.c **** 
 936:/home/cuil/workspace/arm/lm3s811/TI_Stellaris/driverlib/usb.c **** //*****************************************************************************
 937:/home/cuil/workspace/arm/lm3s811/TI_Stellaris/driverlib/usb.c **** //
 938:/home/cuil/workspace/arm/lm3s811/TI_Stellaris/driverlib/usb.c **** //! Registers an interrupt handler for the USB controller.
 939:/home/cuil/workspace/arm/lm3s811/TI_Stellaris/driverlib/usb.c **** //!
 940:/home/cuil/workspace/arm/lm3s811/TI_Stellaris/driverlib/usb.c **** //! \param ulBase specifies the USB module base address.
 941:/home/cuil/workspace/arm/lm3s811/TI_Stellaris/driverlib/usb.c **** //! \param pfnHandler is a pointer to the function to be called when a USB
 942:/home/cuil/workspace/arm/lm3s811/TI_Stellaris/driverlib/usb.c **** //! interrupt occurs.
 943:/home/cuil/workspace/arm/lm3s811/TI_Stellaris/driverlib/usb.c **** //!
 944:/home/cuil/workspace/arm/lm3s811/TI_Stellaris/driverlib/usb.c **** //! This function registers the handler to be called when a USB interrupt
 945:/home/cuil/workspace/arm/lm3s811/TI_Stellaris/driverlib/usb.c **** //! occurs and enables the global USB interrupt in the interrupt controller.
 946:/home/cuil/workspace/arm/lm3s811/TI_Stellaris/driverlib/usb.c **** //! The specific desired USB interrupts must be enabled via a separate call to
 947:/home/cuil/workspace/arm/lm3s811/TI_Stellaris/driverlib/usb.c **** //! USBIntEnable().  It is the interrupt handler's responsibility to clear the
 948:/home/cuil/workspace/arm/lm3s811/TI_Stellaris/driverlib/usb.c **** //! interrupt sources via calls to USBIntStatusControl() and 
 949:/home/cuil/workspace/arm/lm3s811/TI_Stellaris/driverlib/usb.c **** //! USBIntStatusEndpoint().
 950:/home/cuil/workspace/arm/lm3s811/TI_Stellaris/driverlib/usb.c **** //!
 951:/home/cuil/workspace/arm/lm3s811/TI_Stellaris/driverlib/usb.c **** //! \sa IntRegister() for important information about registering interrupt
 952:/home/cuil/workspace/arm/lm3s811/TI_Stellaris/driverlib/usb.c **** //! handlers.
 953:/home/cuil/workspace/arm/lm3s811/TI_Stellaris/driverlib/usb.c **** //!
 954:/home/cuil/workspace/arm/lm3s811/TI_Stellaris/driverlib/usb.c **** //! \return None.
 955:/home/cuil/workspace/arm/lm3s811/TI_Stellaris/driverlib/usb.c **** //
 956:/home/cuil/workspace/arm/lm3s811/TI_Stellaris/driverlib/usb.c **** //*****************************************************************************
 957:/home/cuil/workspace/arm/lm3s811/TI_Stellaris/driverlib/usb.c **** void
 958:/home/cuil/workspace/arm/lm3s811/TI_Stellaris/driverlib/usb.c **** USBIntRegister(unsigned long ulBase, void(*pfnHandler)(void))
 959:/home/cuil/workspace/arm/lm3s811/TI_Stellaris/driverlib/usb.c **** {
 10614              		.loc 1 959 0
 10615              		.cfi_startproc
 10616              		@ args = 0, pretend = 0, frame = 8
 10617              		@ frame_needed = 1, uses_anonymous_args = 0
 10618 0000 80B5     		push	{r7, lr}
 10619              	.LCFI45:
 10620              		.cfi_def_cfa_offset 8
 10621 0002 82B0     		sub	sp, sp, #8
 10622              	.LCFI46:
 10623              		.cfi_def_cfa_offset 16
 10624 0004 00AF     		add	r7, sp, #0
 10625              		.cfi_offset 14, -4
 10626              		.cfi_offset 7, -8
 10627              	.LCFI47:
 10628              		.cfi_def_cfa_register 7
 10629 0006 7860     		str	r0, [r7, #4]
 10630 0008 3960     		str	r1, [r7, #0]
 960:/home/cuil/workspace/arm/lm3s811/TI_Stellaris/driverlib/usb.c ****     //
 961:/home/cuil/workspace/arm/lm3s811/TI_Stellaris/driverlib/usb.c ****     // Check the arguments.
 962:/home/cuil/workspace/arm/lm3s811/TI_Stellaris/driverlib/usb.c ****     //
 963:/home/cuil/workspace/arm/lm3s811/TI_Stellaris/driverlib/usb.c ****     ASSERT(ulBase == USB0_BASE);
 964:/home/cuil/workspace/arm/lm3s811/TI_Stellaris/driverlib/usb.c **** 
 965:/home/cuil/workspace/arm/lm3s811/TI_Stellaris/driverlib/usb.c ****     //
 966:/home/cuil/workspace/arm/lm3s811/TI_Stellaris/driverlib/usb.c ****     // Register the interrupt handler.
 967:/home/cuil/workspace/arm/lm3s811/TI_Stellaris/driverlib/usb.c ****     //
 968:/home/cuil/workspace/arm/lm3s811/TI_Stellaris/driverlib/usb.c ****     IntRegister(INT_USB0, pfnHandler);
 10631              		.loc 1 968 0
 10632 000a 4FF03C00 		mov	r0, #60
 10633 000e 3968     		ldr	r1, [r7, #0]
 10634 0010 FFF7FEFF 		bl	IntRegister
 969:/home/cuil/workspace/arm/lm3s811/TI_Stellaris/driverlib/usb.c **** 
 970:/home/cuil/workspace/arm/lm3s811/TI_Stellaris/driverlib/usb.c ****     //
 971:/home/cuil/workspace/arm/lm3s811/TI_Stellaris/driverlib/usb.c ****     // Enable the USB interrupt.
 972:/home/cuil/workspace/arm/lm3s811/TI_Stellaris/driverlib/usb.c ****     //
 973:/home/cuil/workspace/arm/lm3s811/TI_Stellaris/driverlib/usb.c ****     IntEnable(INT_USB0);
 10635              		.loc 1 973 0
 10636 0014 4FF03C00 		mov	r0, #60
 10637 0018 FFF7FEFF 		bl	IntEnable
 974:/home/cuil/workspace/arm/lm3s811/TI_Stellaris/driverlib/usb.c **** }
 10638              		.loc 1 974 0
 10639 001c 07F10807 		add	r7, r7, #8
 10640 0020 BD46     		mov	sp, r7
 10641 0022 80BD     		pop	{r7, pc}
 10642              		.cfi_endproc
 10643              	.LFE15:
 10645              		.section	.text.USBIntUnregister,"ax",%progbits
 10646              		.align	2
 10647              		.global	USBIntUnregister
 10648              		.thumb
 10649              		.thumb_func
 10651              	USBIntUnregister:
 10652              	.LFB16:
 975:/home/cuil/workspace/arm/lm3s811/TI_Stellaris/driverlib/usb.c **** 
 976:/home/cuil/workspace/arm/lm3s811/TI_Stellaris/driverlib/usb.c **** //*****************************************************************************
 977:/home/cuil/workspace/arm/lm3s811/TI_Stellaris/driverlib/usb.c **** //
 978:/home/cuil/workspace/arm/lm3s811/TI_Stellaris/driverlib/usb.c **** //! Unregisters an interrupt handler for the USB controller.
 979:/home/cuil/workspace/arm/lm3s811/TI_Stellaris/driverlib/usb.c **** //!
 980:/home/cuil/workspace/arm/lm3s811/TI_Stellaris/driverlib/usb.c **** //! \param ulBase specifies the USB module base address.
 981:/home/cuil/workspace/arm/lm3s811/TI_Stellaris/driverlib/usb.c **** //!
 982:/home/cuil/workspace/arm/lm3s811/TI_Stellaris/driverlib/usb.c **** //! This function unregisters the interrupt handler.  This function also
 983:/home/cuil/workspace/arm/lm3s811/TI_Stellaris/driverlib/usb.c **** //! disables the USB interrupt in the interrupt controller.
 984:/home/cuil/workspace/arm/lm3s811/TI_Stellaris/driverlib/usb.c **** //!
 985:/home/cuil/workspace/arm/lm3s811/TI_Stellaris/driverlib/usb.c **** //! \sa IntRegister() for important information about registering or
 986:/home/cuil/workspace/arm/lm3s811/TI_Stellaris/driverlib/usb.c **** //! unregistering interrupt handlers.
 987:/home/cuil/workspace/arm/lm3s811/TI_Stellaris/driverlib/usb.c **** //!
 988:/home/cuil/workspace/arm/lm3s811/TI_Stellaris/driverlib/usb.c **** //! \return None.
 989:/home/cuil/workspace/arm/lm3s811/TI_Stellaris/driverlib/usb.c **** //
 990:/home/cuil/workspace/arm/lm3s811/TI_Stellaris/driverlib/usb.c **** //*****************************************************************************
 991:/home/cuil/workspace/arm/lm3s811/TI_Stellaris/driverlib/usb.c **** void
 992:/home/cuil/workspace/arm/lm3s811/TI_Stellaris/driverlib/usb.c **** USBIntUnregister(unsigned long ulBase)
 993:/home/cuil/workspace/arm/lm3s811/TI_Stellaris/driverlib/usb.c **** {
 10653              		.loc 1 993 0
 10654              		.cfi_startproc
 10655              		@ args = 0, pretend = 0, frame = 8
 10656              		@ frame_needed = 1, uses_anonymous_args = 0
 10657 0000 80B5     		push	{r7, lr}
 10658              	.LCFI48:
 10659              		.cfi_def_cfa_offset 8
 10660 0002 82B0     		sub	sp, sp, #8
 10661              	.LCFI49:
 10662              		.cfi_def_cfa_offset 16
 10663 0004 00AF     		add	r7, sp, #0
 10664              		.cfi_offset 14, -4
 10665              		.cfi_offset 7, -8
 10666              	.LCFI50:
 10667              		.cfi_def_cfa_register 7
 10668 0006 7860     		str	r0, [r7, #4]
 994:/home/cuil/workspace/arm/lm3s811/TI_Stellaris/driverlib/usb.c ****     //
 995:/home/cuil/workspace/arm/lm3s811/TI_Stellaris/driverlib/usb.c ****     // Check the arguments.
 996:/home/cuil/workspace/arm/lm3s811/TI_Stellaris/driverlib/usb.c ****     //
 997:/home/cuil/workspace/arm/lm3s811/TI_Stellaris/driverlib/usb.c ****     ASSERT(ulBase == USB0_BASE);
 998:/home/cuil/workspace/arm/lm3s811/TI_Stellaris/driverlib/usb.c **** 
 999:/home/cuil/workspace/arm/lm3s811/TI_Stellaris/driverlib/usb.c ****     //
1000:/home/cuil/workspace/arm/lm3s811/TI_Stellaris/driverlib/usb.c ****     // Disable the USB interrupt.
1001:/home/cuil/workspace/arm/lm3s811/TI_Stellaris/driverlib/usb.c ****     //
1002:/home/cuil/workspace/arm/lm3s811/TI_Stellaris/driverlib/usb.c ****     IntDisable(INT_USB0);
 10669              		.loc 1 1002 0
 10670 0008 4FF03C00 		mov	r0, #60
 10671 000c FFF7FEFF 		bl	IntDisable
1003:/home/cuil/workspace/arm/lm3s811/TI_Stellaris/driverlib/usb.c **** 
1004:/home/cuil/workspace/arm/lm3s811/TI_Stellaris/driverlib/usb.c ****     //
1005:/home/cuil/workspace/arm/lm3s811/TI_Stellaris/driverlib/usb.c ****     // Unregister the interrupt handler.
1006:/home/cuil/workspace/arm/lm3s811/TI_Stellaris/driverlib/usb.c ****     //
1007:/home/cuil/workspace/arm/lm3s811/TI_Stellaris/driverlib/usb.c ****     IntUnregister(INT_USB0);
 10672              		.loc 1 1007 0
 10673 0010 4FF03C00 		mov	r0, #60
 10674 0014 FFF7FEFF 		bl	IntUnregister
1008:/home/cuil/workspace/arm/lm3s811/TI_Stellaris/driverlib/usb.c **** }
 10675              		.loc 1 1008 0
 10676 0018 07F10807 		add	r7, r7, #8
 10677 001c BD46     		mov	sp, r7
 10678 001e 80BD     		pop	{r7, pc}
 10679              		.cfi_endproc
 10680              	.LFE16:
 10682              		.section	.text.USBEndpointStatus,"ax",%progbits
 10683              		.align	2
 10684              		.global	USBEndpointStatus
 10685              		.thumb
 10686              		.thumb_func
 10688              	USBEndpointStatus:
 10689              	.LFB17:
1009:/home/cuil/workspace/arm/lm3s811/TI_Stellaris/driverlib/usb.c **** 
1010:/home/cuil/workspace/arm/lm3s811/TI_Stellaris/driverlib/usb.c **** //*****************************************************************************
1011:/home/cuil/workspace/arm/lm3s811/TI_Stellaris/driverlib/usb.c **** //
1012:/home/cuil/workspace/arm/lm3s811/TI_Stellaris/driverlib/usb.c **** //! Returns the current status of an endpoint.
1013:/home/cuil/workspace/arm/lm3s811/TI_Stellaris/driverlib/usb.c **** //!
1014:/home/cuil/workspace/arm/lm3s811/TI_Stellaris/driverlib/usb.c **** //! \param ulBase specifies the USB module base address.
1015:/home/cuil/workspace/arm/lm3s811/TI_Stellaris/driverlib/usb.c **** //! \param ulEndpoint is the endpoint to access.
1016:/home/cuil/workspace/arm/lm3s811/TI_Stellaris/driverlib/usb.c **** //!
1017:/home/cuil/workspace/arm/lm3s811/TI_Stellaris/driverlib/usb.c **** //! This function returns the status of a given endpoint.  If any of these
1018:/home/cuil/workspace/arm/lm3s811/TI_Stellaris/driverlib/usb.c **** //! status bits must be cleared, then the USBDevEndpointStatusClear() or the
1019:/home/cuil/workspace/arm/lm3s811/TI_Stellaris/driverlib/usb.c **** //! USBHostEndpointStatusClear() functions should be called.
1020:/home/cuil/workspace/arm/lm3s811/TI_Stellaris/driverlib/usb.c **** //! 
1021:/home/cuil/workspace/arm/lm3s811/TI_Stellaris/driverlib/usb.c **** //! The following are the status flags for host mode:
1022:/home/cuil/workspace/arm/lm3s811/TI_Stellaris/driverlib/usb.c **** //!
1023:/home/cuil/workspace/arm/lm3s811/TI_Stellaris/driverlib/usb.c **** //! - \b USB_HOST_IN_PID_ERROR - PID error on the given endpoint.
1024:/home/cuil/workspace/arm/lm3s811/TI_Stellaris/driverlib/usb.c **** //! - \b USB_HOST_IN_NOT_COMP - The device failed to respond to an IN request.
1025:/home/cuil/workspace/arm/lm3s811/TI_Stellaris/driverlib/usb.c **** //! - \b USB_HOST_IN_STALL - A stall was received on an IN endpoint.
1026:/home/cuil/workspace/arm/lm3s811/TI_Stellaris/driverlib/usb.c **** //! - \b USB_HOST_IN_DATA_ERROR - There was a CRC or bit-stuff error on an IN
1027:/home/cuil/workspace/arm/lm3s811/TI_Stellaris/driverlib/usb.c **** //!   endpoint in Isochronous mode.
1028:/home/cuil/workspace/arm/lm3s811/TI_Stellaris/driverlib/usb.c **** //! - \b USB_HOST_IN_NAK_TO - NAKs received on this IN endpoint for more than
1029:/home/cuil/workspace/arm/lm3s811/TI_Stellaris/driverlib/usb.c **** //!   the specified timeout period.
1030:/home/cuil/workspace/arm/lm3s811/TI_Stellaris/driverlib/usb.c **** //! - \b USB_HOST_IN_ERROR - Failed to communicate with a device using this IN
1031:/home/cuil/workspace/arm/lm3s811/TI_Stellaris/driverlib/usb.c **** //!   endpoint.
1032:/home/cuil/workspace/arm/lm3s811/TI_Stellaris/driverlib/usb.c **** //! - \b USB_HOST_IN_FIFO_FULL - This IN endpoint's FIFO is full.
1033:/home/cuil/workspace/arm/lm3s811/TI_Stellaris/driverlib/usb.c **** //! - \b USB_HOST_IN_PKTRDY - Data packet ready on this IN endpoint.
1034:/home/cuil/workspace/arm/lm3s811/TI_Stellaris/driverlib/usb.c **** //! - \b USB_HOST_OUT_NAK_TO - NAKs received on this OUT endpoint for more than
1035:/home/cuil/workspace/arm/lm3s811/TI_Stellaris/driverlib/usb.c **** //!   the specified timeout period.
1036:/home/cuil/workspace/arm/lm3s811/TI_Stellaris/driverlib/usb.c **** //! - \b USB_HOST_OUT_NOT_COMP - The device failed to respond to an OUT
1037:/home/cuil/workspace/arm/lm3s811/TI_Stellaris/driverlib/usb.c **** //!   request.
1038:/home/cuil/workspace/arm/lm3s811/TI_Stellaris/driverlib/usb.c **** //! - \b USB_HOST_OUT_STALL - A stall was received on this OUT endpoint.
1039:/home/cuil/workspace/arm/lm3s811/TI_Stellaris/driverlib/usb.c **** //! - \b USB_HOST_OUT_ERROR - Failed to communicate with a device using this
1040:/home/cuil/workspace/arm/lm3s811/TI_Stellaris/driverlib/usb.c **** //!   OUT endpoint.
1041:/home/cuil/workspace/arm/lm3s811/TI_Stellaris/driverlib/usb.c **** //! - \b USB_HOST_OUT_FIFO_NE - This endpoint's OUT FIFO is not empty.
1042:/home/cuil/workspace/arm/lm3s811/TI_Stellaris/driverlib/usb.c **** //! - \b USB_HOST_OUT_PKTPEND - The data transfer on this OUT endpoint has not
1043:/home/cuil/workspace/arm/lm3s811/TI_Stellaris/driverlib/usb.c **** //!   completed.
1044:/home/cuil/workspace/arm/lm3s811/TI_Stellaris/driverlib/usb.c **** //! - \b USB_HOST_EP0_NAK_TO - NAKs received on endpoint zero for more than the
1045:/home/cuil/workspace/arm/lm3s811/TI_Stellaris/driverlib/usb.c **** //!   specified timeout period.
1046:/home/cuil/workspace/arm/lm3s811/TI_Stellaris/driverlib/usb.c **** //! - \b USB_HOST_EP0_ERROR - The device failed to respond to a request on
1047:/home/cuil/workspace/arm/lm3s811/TI_Stellaris/driverlib/usb.c **** //!   endpoint zero.
1048:/home/cuil/workspace/arm/lm3s811/TI_Stellaris/driverlib/usb.c **** //! - \b USB_HOST_EP0_IN_STALL - A stall was received on endpoint zero for an
1049:/home/cuil/workspace/arm/lm3s811/TI_Stellaris/driverlib/usb.c **** //!   IN transaction.
1050:/home/cuil/workspace/arm/lm3s811/TI_Stellaris/driverlib/usb.c **** //! - \b USB_HOST_EP0_IN_PKTRDY - Data packet ready on endpoint zero for an IN
1051:/home/cuil/workspace/arm/lm3s811/TI_Stellaris/driverlib/usb.c **** //!   transaction.
1052:/home/cuil/workspace/arm/lm3s811/TI_Stellaris/driverlib/usb.c **** //!
1053:/home/cuil/workspace/arm/lm3s811/TI_Stellaris/driverlib/usb.c **** //! The following are the status flags for device mode:
1054:/home/cuil/workspace/arm/lm3s811/TI_Stellaris/driverlib/usb.c **** //!
1055:/home/cuil/workspace/arm/lm3s811/TI_Stellaris/driverlib/usb.c **** //! - \b USB_DEV_OUT_SENT_STALL - A stall was sent on this OUT endpoint.
1056:/home/cuil/workspace/arm/lm3s811/TI_Stellaris/driverlib/usb.c **** //! - \b USB_DEV_OUT_DATA_ERROR - There was a CRC or bit-stuff error on an OUT
1057:/home/cuil/workspace/arm/lm3s811/TI_Stellaris/driverlib/usb.c **** //!   endpoint.
1058:/home/cuil/workspace/arm/lm3s811/TI_Stellaris/driverlib/usb.c **** //! - \b USB_DEV_OUT_OVERRUN - An OUT packet was not loaded due to a full FIFO.
1059:/home/cuil/workspace/arm/lm3s811/TI_Stellaris/driverlib/usb.c **** //! - \b USB_DEV_OUT_FIFO_FULL - The OUT endpoint's FIFO is full.
1060:/home/cuil/workspace/arm/lm3s811/TI_Stellaris/driverlib/usb.c **** //! - \b USB_DEV_OUT_PKTRDY - There is a data packet ready in the OUT
1061:/home/cuil/workspace/arm/lm3s811/TI_Stellaris/driverlib/usb.c **** //!   endpoint's FIFO.
1062:/home/cuil/workspace/arm/lm3s811/TI_Stellaris/driverlib/usb.c **** //! - \b USB_DEV_IN_NOT_COMP - A larger packet was split up, more data to come.
1063:/home/cuil/workspace/arm/lm3s811/TI_Stellaris/driverlib/usb.c **** //! - \b USB_DEV_IN_SENT_STALL - A stall was sent on this IN endpoint.
1064:/home/cuil/workspace/arm/lm3s811/TI_Stellaris/driverlib/usb.c **** //! - \b USB_DEV_IN_UNDERRUN - Data was requested on the IN endpoint and no
1065:/home/cuil/workspace/arm/lm3s811/TI_Stellaris/driverlib/usb.c **** //!   data was ready.
1066:/home/cuil/workspace/arm/lm3s811/TI_Stellaris/driverlib/usb.c **** //! - \b USB_DEV_IN_FIFO_NE - The IN endpoint's FIFO is not empty.
1067:/home/cuil/workspace/arm/lm3s811/TI_Stellaris/driverlib/usb.c **** //! - \b USB_DEV_IN_PKTPEND - The data transfer on this IN endpoint has not
1068:/home/cuil/workspace/arm/lm3s811/TI_Stellaris/driverlib/usb.c **** //!   completed.
1069:/home/cuil/workspace/arm/lm3s811/TI_Stellaris/driverlib/usb.c **** //! - \b USB_DEV_EP0_SETUP_END - A control transaction ended before Data End
1070:/home/cuil/workspace/arm/lm3s811/TI_Stellaris/driverlib/usb.c **** //!   condition was sent.
1071:/home/cuil/workspace/arm/lm3s811/TI_Stellaris/driverlib/usb.c **** //! - \b USB_DEV_EP0_SENT_STALL - A stall was sent on endpoint zero.
1072:/home/cuil/workspace/arm/lm3s811/TI_Stellaris/driverlib/usb.c **** //! - \b USB_DEV_EP0_IN_PKTPEND - The data transfer on endpoint zero has not
1073:/home/cuil/workspace/arm/lm3s811/TI_Stellaris/driverlib/usb.c **** //!   completed.
1074:/home/cuil/workspace/arm/lm3s811/TI_Stellaris/driverlib/usb.c **** //! - \b USB_DEV_EP0_OUT_PKTRDY - There is a data packet ready in endpoint
1075:/home/cuil/workspace/arm/lm3s811/TI_Stellaris/driverlib/usb.c **** //!   zero's OUT FIFO.
1076:/home/cuil/workspace/arm/lm3s811/TI_Stellaris/driverlib/usb.c **** //!
1077:/home/cuil/workspace/arm/lm3s811/TI_Stellaris/driverlib/usb.c **** //! \return The current status flags for the endpoint depending on mode.
1078:/home/cuil/workspace/arm/lm3s811/TI_Stellaris/driverlib/usb.c **** //
1079:/home/cuil/workspace/arm/lm3s811/TI_Stellaris/driverlib/usb.c **** //*****************************************************************************
1080:/home/cuil/workspace/arm/lm3s811/TI_Stellaris/driverlib/usb.c **** unsigned long
1081:/home/cuil/workspace/arm/lm3s811/TI_Stellaris/driverlib/usb.c **** USBEndpointStatus(unsigned long ulBase, unsigned long ulEndpoint)
1082:/home/cuil/workspace/arm/lm3s811/TI_Stellaris/driverlib/usb.c **** {
 10690              		.loc 1 1082 0
 10691              		.cfi_startproc
 10692              		@ args = 0, pretend = 0, frame = 16
 10693              		@ frame_needed = 1, uses_anonymous_args = 0
 10694              		@ link register save eliminated.
 10695 0000 80B4     		push	{r7}
 10696              	.LCFI51:
 10697              		.cfi_def_cfa_offset 4
 10698 0002 85B0     		sub	sp, sp, #20
 10699              	.LCFI52:
 10700              		.cfi_def_cfa_offset 24
 10701 0004 00AF     		add	r7, sp, #0
 10702              		.cfi_offset 7, -4
 10703              	.LCFI53:
 10704              		.cfi_def_cfa_register 7
 10705 0006 7860     		str	r0, [r7, #4]
 10706 0008 3960     		str	r1, [r7, #0]
1083:/home/cuil/workspace/arm/lm3s811/TI_Stellaris/driverlib/usb.c ****     unsigned long ulStatus;
1084:/home/cuil/workspace/arm/lm3s811/TI_Stellaris/driverlib/usb.c **** 
1085:/home/cuil/workspace/arm/lm3s811/TI_Stellaris/driverlib/usb.c ****     //
1086:/home/cuil/workspace/arm/lm3s811/TI_Stellaris/driverlib/usb.c ****     // Check the arguments.
1087:/home/cuil/workspace/arm/lm3s811/TI_Stellaris/driverlib/usb.c ****     //
1088:/home/cuil/workspace/arm/lm3s811/TI_Stellaris/driverlib/usb.c ****     ASSERT(ulBase == USB0_BASE);
1089:/home/cuil/workspace/arm/lm3s811/TI_Stellaris/driverlib/usb.c ****     ASSERT((ulEndpoint == USB_EP_0) || (ulEndpoint == USB_EP_1) ||
1090:/home/cuil/workspace/arm/lm3s811/TI_Stellaris/driverlib/usb.c ****            (ulEndpoint == USB_EP_2) || (ulEndpoint == USB_EP_3) ||
1091:/home/cuil/workspace/arm/lm3s811/TI_Stellaris/driverlib/usb.c ****            (ulEndpoint == USB_EP_4) || (ulEndpoint == USB_EP_5) ||
1092:/home/cuil/workspace/arm/lm3s811/TI_Stellaris/driverlib/usb.c ****            (ulEndpoint == USB_EP_6) || (ulEndpoint == USB_EP_7) ||
1093:/home/cuil/workspace/arm/lm3s811/TI_Stellaris/driverlib/usb.c ****            (ulEndpoint == USB_EP_8) || (ulEndpoint == USB_EP_9) ||
1094:/home/cuil/workspace/arm/lm3s811/TI_Stellaris/driverlib/usb.c ****            (ulEndpoint == USB_EP_10) || (ulEndpoint == USB_EP_11) ||
1095:/home/cuil/workspace/arm/lm3s811/TI_Stellaris/driverlib/usb.c ****            (ulEndpoint == USB_EP_12) || (ulEndpoint == USB_EP_13) ||
1096:/home/cuil/workspace/arm/lm3s811/TI_Stellaris/driverlib/usb.c ****            (ulEndpoint == USB_EP_14) || (ulEndpoint == USB_EP_15));
1097:/home/cuil/workspace/arm/lm3s811/TI_Stellaris/driverlib/usb.c **** 
1098:/home/cuil/workspace/arm/lm3s811/TI_Stellaris/driverlib/usb.c ****     //
1099:/home/cuil/workspace/arm/lm3s811/TI_Stellaris/driverlib/usb.c ****     // Get the TX portion of the endpoint status.
1100:/home/cuil/workspace/arm/lm3s811/TI_Stellaris/driverlib/usb.c ****     //
1101:/home/cuil/workspace/arm/lm3s811/TI_Stellaris/driverlib/usb.c ****     ulStatus = HWREGH(ulBase + EP_OFFSET(ulEndpoint) + USB_O_TXCSRL1);
 10707              		.loc 1 1101 0
 10708 000a 3A68     		ldr	r2, [r7, #0]
 10709 000c 7B68     		ldr	r3, [r7, #4]
 10710 000e D318     		adds	r3, r2, r3
 10711 0010 03F58173 		add	r3, r3, #258
 10712 0014 1B88     		ldrh	r3, [r3, #0]	@ movhi
 10713 0016 9BB2     		uxth	r3, r3
 10714 0018 FB60     		str	r3, [r7, #12]
1102:/home/cuil/workspace/arm/lm3s811/TI_Stellaris/driverlib/usb.c **** 
1103:/home/cuil/workspace/arm/lm3s811/TI_Stellaris/driverlib/usb.c ****     //
1104:/home/cuil/workspace/arm/lm3s811/TI_Stellaris/driverlib/usb.c ****     // Get the RX portion of the endpoint status.
1105:/home/cuil/workspace/arm/lm3s811/TI_Stellaris/driverlib/usb.c ****     //
1106:/home/cuil/workspace/arm/lm3s811/TI_Stellaris/driverlib/usb.c ****     ulStatus |= ((HWREGH(ulBase + EP_OFFSET(ulEndpoint) + USB_O_RXCSRL1)) <<
 10715              		.loc 1 1106 0
 10716 001a 3A68     		ldr	r2, [r7, #0]
 10717 001c 7B68     		ldr	r3, [r7, #4]
 10718 001e D318     		adds	r3, r2, r3
 10719 0020 03F58373 		add	r3, r3, #262
 10720 0024 1B88     		ldrh	r3, [r3, #0]	@ movhi
 10721 0026 9BB2     		uxth	r3, r3
 10722 0028 4FEA0343 		lsl	r3, r3, #16
 10723 002c FA68     		ldr	r2, [r7, #12]
 10724 002e 42EA0303 		orr	r3, r2, r3
 10725 0032 FB60     		str	r3, [r7, #12]
1107:/home/cuil/workspace/arm/lm3s811/TI_Stellaris/driverlib/usb.c ****                  USB_RX_EPSTATUS_SHIFT);
1108:/home/cuil/workspace/arm/lm3s811/TI_Stellaris/driverlib/usb.c **** 
1109:/home/cuil/workspace/arm/lm3s811/TI_Stellaris/driverlib/usb.c ****     //
1110:/home/cuil/workspace/arm/lm3s811/TI_Stellaris/driverlib/usb.c ****     // Return the endpoint status.
1111:/home/cuil/workspace/arm/lm3s811/TI_Stellaris/driverlib/usb.c ****     //
1112:/home/cuil/workspace/arm/lm3s811/TI_Stellaris/driverlib/usb.c ****     return(ulStatus);
 10726              		.loc 1 1112 0
 10727 0034 FB68     		ldr	r3, [r7, #12]
1113:/home/cuil/workspace/arm/lm3s811/TI_Stellaris/driverlib/usb.c **** }
 10728              		.loc 1 1113 0
 10729 0036 1846     		mov	r0, r3
 10730 0038 07F11407 		add	r7, r7, #20
 10731 003c BD46     		mov	sp, r7
 10732 003e 80BC     		pop	{r7}
 10733 0040 7047     		bx	lr
 10734              		.cfi_endproc
 10735              	.LFE17:
 10737 0042 00BF     		.section	.text.USBHostEndpointStatusClear,"ax",%progbits
 10738              		.align	2
 10739              		.global	USBHostEndpointStatusClear
 10740              		.thumb
 10741              		.thumb_func
 10743              	USBHostEndpointStatusClear:
 10744              	.LFB18:
1114:/home/cuil/workspace/arm/lm3s811/TI_Stellaris/driverlib/usb.c **** 
1115:/home/cuil/workspace/arm/lm3s811/TI_Stellaris/driverlib/usb.c **** //*****************************************************************************
1116:/home/cuil/workspace/arm/lm3s811/TI_Stellaris/driverlib/usb.c **** //
1117:/home/cuil/workspace/arm/lm3s811/TI_Stellaris/driverlib/usb.c **** //! Clears the status bits in this endpoint in host mode.
1118:/home/cuil/workspace/arm/lm3s811/TI_Stellaris/driverlib/usb.c **** //!
1119:/home/cuil/workspace/arm/lm3s811/TI_Stellaris/driverlib/usb.c **** //! \param ulBase specifies the USB module base address.
1120:/home/cuil/workspace/arm/lm3s811/TI_Stellaris/driverlib/usb.c **** //! \param ulEndpoint is the endpoint to access.
1121:/home/cuil/workspace/arm/lm3s811/TI_Stellaris/driverlib/usb.c **** //! \param ulFlags are the status bits that should be cleared.
1122:/home/cuil/workspace/arm/lm3s811/TI_Stellaris/driverlib/usb.c **** //!
1123:/home/cuil/workspace/arm/lm3s811/TI_Stellaris/driverlib/usb.c **** //! This function clears the status of any bits that are passed in the
1124:/home/cuil/workspace/arm/lm3s811/TI_Stellaris/driverlib/usb.c **** //! \e ulFlags parameter.  The \e ulFlags parameter can take the value returned
1125:/home/cuil/workspace/arm/lm3s811/TI_Stellaris/driverlib/usb.c **** //! from the USBEndpointStatus() call.
1126:/home/cuil/workspace/arm/lm3s811/TI_Stellaris/driverlib/usb.c **** //!
1127:/home/cuil/workspace/arm/lm3s811/TI_Stellaris/driverlib/usb.c **** //! \note This function should only be called in host mode.
1128:/home/cuil/workspace/arm/lm3s811/TI_Stellaris/driverlib/usb.c **** //!
1129:/home/cuil/workspace/arm/lm3s811/TI_Stellaris/driverlib/usb.c **** //! \return None.
1130:/home/cuil/workspace/arm/lm3s811/TI_Stellaris/driverlib/usb.c **** //
1131:/home/cuil/workspace/arm/lm3s811/TI_Stellaris/driverlib/usb.c **** //*****************************************************************************
1132:/home/cuil/workspace/arm/lm3s811/TI_Stellaris/driverlib/usb.c **** void
1133:/home/cuil/workspace/arm/lm3s811/TI_Stellaris/driverlib/usb.c **** USBHostEndpointStatusClear(unsigned long ulBase, unsigned long ulEndpoint,
1134:/home/cuil/workspace/arm/lm3s811/TI_Stellaris/driverlib/usb.c ****                            unsigned long ulFlags)
1135:/home/cuil/workspace/arm/lm3s811/TI_Stellaris/driverlib/usb.c **** {
 10745              		.loc 1 1135 0
 10746              		.cfi_startproc
 10747              		@ args = 0, pretend = 0, frame = 16
 10748              		@ frame_needed = 1, uses_anonymous_args = 0
 10749              		@ link register save eliminated.
 10750 0000 80B4     		push	{r7}
 10751              	.LCFI54:
 10752              		.cfi_def_cfa_offset 4
 10753 0002 85B0     		sub	sp, sp, #20
 10754              	.LCFI55:
 10755              		.cfi_def_cfa_offset 24
 10756 0004 00AF     		add	r7, sp, #0
 10757              		.cfi_offset 7, -4
 10758              	.LCFI56:
 10759              		.cfi_def_cfa_register 7
 10760 0006 F860     		str	r0, [r7, #12]
 10761 0008 B960     		str	r1, [r7, #8]
 10762 000a 7A60     		str	r2, [r7, #4]
1136:/home/cuil/workspace/arm/lm3s811/TI_Stellaris/driverlib/usb.c ****     //
1137:/home/cuil/workspace/arm/lm3s811/TI_Stellaris/driverlib/usb.c ****     // Check the arguments.
1138:/home/cuil/workspace/arm/lm3s811/TI_Stellaris/driverlib/usb.c ****     //
1139:/home/cuil/workspace/arm/lm3s811/TI_Stellaris/driverlib/usb.c ****     ASSERT(ulBase == USB0_BASE);
1140:/home/cuil/workspace/arm/lm3s811/TI_Stellaris/driverlib/usb.c ****     ASSERT((ulEndpoint == USB_EP_0) || (ulEndpoint == USB_EP_1) ||
1141:/home/cuil/workspace/arm/lm3s811/TI_Stellaris/driverlib/usb.c ****            (ulEndpoint == USB_EP_2) || (ulEndpoint == USB_EP_3) ||
1142:/home/cuil/workspace/arm/lm3s811/TI_Stellaris/driverlib/usb.c ****            (ulEndpoint == USB_EP_4) || (ulEndpoint == USB_EP_5) ||
1143:/home/cuil/workspace/arm/lm3s811/TI_Stellaris/driverlib/usb.c ****            (ulEndpoint == USB_EP_6) || (ulEndpoint == USB_EP_7) ||
1144:/home/cuil/workspace/arm/lm3s811/TI_Stellaris/driverlib/usb.c ****            (ulEndpoint == USB_EP_8) || (ulEndpoint == USB_EP_9) ||
1145:/home/cuil/workspace/arm/lm3s811/TI_Stellaris/driverlib/usb.c ****            (ulEndpoint == USB_EP_10) || (ulEndpoint == USB_EP_11) ||
1146:/home/cuil/workspace/arm/lm3s811/TI_Stellaris/driverlib/usb.c ****            (ulEndpoint == USB_EP_12) || (ulEndpoint == USB_EP_13) ||
1147:/home/cuil/workspace/arm/lm3s811/TI_Stellaris/driverlib/usb.c ****            (ulEndpoint == USB_EP_14) || (ulEndpoint == USB_EP_15));
1148:/home/cuil/workspace/arm/lm3s811/TI_Stellaris/driverlib/usb.c **** 
1149:/home/cuil/workspace/arm/lm3s811/TI_Stellaris/driverlib/usb.c ****     //
1150:/home/cuil/workspace/arm/lm3s811/TI_Stellaris/driverlib/usb.c ****     // Clear the specified flags for the endpoint.
1151:/home/cuil/workspace/arm/lm3s811/TI_Stellaris/driverlib/usb.c ****     //
1152:/home/cuil/workspace/arm/lm3s811/TI_Stellaris/driverlib/usb.c ****     if(ulEndpoint == USB_EP_0)
 10763              		.loc 1 1152 0
 10764 000c BB68     		ldr	r3, [r7, #8]
 10765 000e 002B     		cmp	r3, #0
 10766 0010 11D1     		bne	.L63
1153:/home/cuil/workspace/arm/lm3s811/TI_Stellaris/driverlib/usb.c ****     {
1154:/home/cuil/workspace/arm/lm3s811/TI_Stellaris/driverlib/usb.c ****         HWREGB(ulBase + USB_O_CSRL0) &= ~ulFlags;
 10767              		.loc 1 1154 0
 10768 0012 FB68     		ldr	r3, [r7, #12]
 10769 0014 03F58173 		add	r3, r3, #258
 10770 0018 FA68     		ldr	r2, [r7, #12]
 10771 001a 02F58172 		add	r2, r2, #258
 10772 001e 1278     		ldrb	r2, [r2, #0]
 10773 0020 D1B2     		uxtb	r1, r2
 10774 0022 7A68     		ldr	r2, [r7, #4]
 10775 0024 D2B2     		uxtb	r2, r2
 10776 0026 6FEA0202 		mvn	r2, r2
 10777 002a D2B2     		uxtb	r2, r2
 10778 002c 01EA0202 		and	r2, r1, r2
 10779 0030 D2B2     		uxtb	r2, r2
 10780 0032 1A70     		strb	r2, [r3, #0]
 10781 0034 2BE0     		b	.L62
 10782              	.L63:
1155:/home/cuil/workspace/arm/lm3s811/TI_Stellaris/driverlib/usb.c ****     }
1156:/home/cuil/workspace/arm/lm3s811/TI_Stellaris/driverlib/usb.c ****     else
1157:/home/cuil/workspace/arm/lm3s811/TI_Stellaris/driverlib/usb.c ****     {
1158:/home/cuil/workspace/arm/lm3s811/TI_Stellaris/driverlib/usb.c ****         HWREGB(ulBase + USB_O_TXCSRL1 + EP_OFFSET(ulEndpoint)) &= ~ulFlags;
 10783              		.loc 1 1158 0
 10784 0036 FA68     		ldr	r2, [r7, #12]
 10785 0038 BB68     		ldr	r3, [r7, #8]
 10786 003a D318     		adds	r3, r2, r3
 10787 003c 03F58173 		add	r3, r3, #258
 10788 0040 F968     		ldr	r1, [r7, #12]
 10789 0042 BA68     		ldr	r2, [r7, #8]
 10790 0044 8A18     		adds	r2, r1, r2
 10791 0046 02F58172 		add	r2, r2, #258
 10792 004a 1278     		ldrb	r2, [r2, #0]
 10793 004c D1B2     		uxtb	r1, r2
 10794 004e 7A68     		ldr	r2, [r7, #4]
 10795 0050 D2B2     		uxtb	r2, r2
 10796 0052 6FEA0202 		mvn	r2, r2
 10797 0056 D2B2     		uxtb	r2, r2
 10798 0058 01EA0202 		and	r2, r1, r2
 10799 005c D2B2     		uxtb	r2, r2
 10800 005e 1A70     		strb	r2, [r3, #0]
1159:/home/cuil/workspace/arm/lm3s811/TI_Stellaris/driverlib/usb.c ****         HWREGB(ulBase + USB_O_RXCSRL1 + EP_OFFSET(ulEndpoint)) &=
 10801              		.loc 1 1159 0
 10802 0060 FA68     		ldr	r2, [r7, #12]
 10803 0062 BB68     		ldr	r3, [r7, #8]
 10804 0064 D318     		adds	r3, r2, r3
 10805 0066 03F58373 		add	r3, r3, #262
 10806 006a F968     		ldr	r1, [r7, #12]
 10807 006c BA68     		ldr	r2, [r7, #8]
 10808 006e 8A18     		adds	r2, r1, r2
 10809 0070 02F58372 		add	r2, r2, #262
 10810 0074 1278     		ldrb	r2, [r2, #0]
 10811 0076 D1B2     		uxtb	r1, r2
1160:/home/cuil/workspace/arm/lm3s811/TI_Stellaris/driverlib/usb.c ****             ~(ulFlags >> USB_RX_EPSTATUS_SHIFT);
 10812              		.loc 1 1160 0
 10813 0078 7A68     		ldr	r2, [r7, #4]
 10814 007a 4FEA1242 		lsr	r2, r2, #16
1159:/home/cuil/workspace/arm/lm3s811/TI_Stellaris/driverlib/usb.c ****         HWREGB(ulBase + USB_O_RXCSRL1 + EP_OFFSET(ulEndpoint)) &=
 10815              		.loc 1 1159 0
 10816 007e D2B2     		uxtb	r2, r2
 10817 0080 6FEA0202 		mvn	r2, r2
 10818 0084 D2B2     		uxtb	r2, r2
 10819 0086 01EA0202 		and	r2, r1, r2
 10820 008a D2B2     		uxtb	r2, r2
 10821 008c 1A70     		strb	r2, [r3, #0]
 10822              	.L62:
1161:/home/cuil/workspace/arm/lm3s811/TI_Stellaris/driverlib/usb.c ****     }
1162:/home/cuil/workspace/arm/lm3s811/TI_Stellaris/driverlib/usb.c **** }
 10823              		.loc 1 1162 0
 10824 008e 07F11407 		add	r7, r7, #20
 10825 0092 BD46     		mov	sp, r7
 10826 0094 80BC     		pop	{r7}
 10827 0096 7047     		bx	lr
 10828              		.cfi_endproc
 10829              	.LFE18:
 10831              		.section	.text.USBDevEndpointStatusClear,"ax",%progbits
 10832              		.align	2
 10833              		.global	USBDevEndpointStatusClear
 10834              		.thumb
 10835              		.thumb_func
 10837              	USBDevEndpointStatusClear:
 10838              	.LFB19:
1163:/home/cuil/workspace/arm/lm3s811/TI_Stellaris/driverlib/usb.c **** 
1164:/home/cuil/workspace/arm/lm3s811/TI_Stellaris/driverlib/usb.c **** //*****************************************************************************
1165:/home/cuil/workspace/arm/lm3s811/TI_Stellaris/driverlib/usb.c **** //
1166:/home/cuil/workspace/arm/lm3s811/TI_Stellaris/driverlib/usb.c **** //! Clears the status bits in this endpoint in device mode.
1167:/home/cuil/workspace/arm/lm3s811/TI_Stellaris/driverlib/usb.c **** //!
1168:/home/cuil/workspace/arm/lm3s811/TI_Stellaris/driverlib/usb.c **** //! \param ulBase specifies the USB module base address.
1169:/home/cuil/workspace/arm/lm3s811/TI_Stellaris/driverlib/usb.c **** //! \param ulEndpoint is the endpoint to access.
1170:/home/cuil/workspace/arm/lm3s811/TI_Stellaris/driverlib/usb.c **** //! \param ulFlags are the status bits that should be cleared.
1171:/home/cuil/workspace/arm/lm3s811/TI_Stellaris/driverlib/usb.c **** //!
1172:/home/cuil/workspace/arm/lm3s811/TI_Stellaris/driverlib/usb.c **** //! This function clears the status of any bits that are passed in the
1173:/home/cuil/workspace/arm/lm3s811/TI_Stellaris/driverlib/usb.c **** //! \e ulFlags parameter.  The \e ulFlags parameter can take the value returned
1174:/home/cuil/workspace/arm/lm3s811/TI_Stellaris/driverlib/usb.c **** //! from the USBEndpointStatus() call.
1175:/home/cuil/workspace/arm/lm3s811/TI_Stellaris/driverlib/usb.c **** //!
1176:/home/cuil/workspace/arm/lm3s811/TI_Stellaris/driverlib/usb.c **** //! \note This function should only be called in device mode.
1177:/home/cuil/workspace/arm/lm3s811/TI_Stellaris/driverlib/usb.c **** //!
1178:/home/cuil/workspace/arm/lm3s811/TI_Stellaris/driverlib/usb.c **** //! \return None.
1179:/home/cuil/workspace/arm/lm3s811/TI_Stellaris/driverlib/usb.c **** //
1180:/home/cuil/workspace/arm/lm3s811/TI_Stellaris/driverlib/usb.c **** //*****************************************************************************
1181:/home/cuil/workspace/arm/lm3s811/TI_Stellaris/driverlib/usb.c **** void
1182:/home/cuil/workspace/arm/lm3s811/TI_Stellaris/driverlib/usb.c **** USBDevEndpointStatusClear(unsigned long ulBase, unsigned long ulEndpoint,
1183:/home/cuil/workspace/arm/lm3s811/TI_Stellaris/driverlib/usb.c ****                           unsigned long ulFlags)
1184:/home/cuil/workspace/arm/lm3s811/TI_Stellaris/driverlib/usb.c **** {
 10839              		.loc 1 1184 0
 10840              		.cfi_startproc
 10841              		@ args = 0, pretend = 0, frame = 16
 10842              		@ frame_needed = 1, uses_anonymous_args = 0
 10843              		@ link register save eliminated.
 10844 0000 80B4     		push	{r7}
 10845              	.LCFI57:
 10846              		.cfi_def_cfa_offset 4
 10847 0002 85B0     		sub	sp, sp, #20
 10848              	.LCFI58:
 10849              		.cfi_def_cfa_offset 24
 10850 0004 00AF     		add	r7, sp, #0
 10851              		.cfi_offset 7, -4
 10852              	.LCFI59:
 10853              		.cfi_def_cfa_register 7
 10854 0006 F860     		str	r0, [r7, #12]
 10855 0008 B960     		str	r1, [r7, #8]
 10856 000a 7A60     		str	r2, [r7, #4]
1185:/home/cuil/workspace/arm/lm3s811/TI_Stellaris/driverlib/usb.c ****     //
1186:/home/cuil/workspace/arm/lm3s811/TI_Stellaris/driverlib/usb.c ****     // Check the arguments.
1187:/home/cuil/workspace/arm/lm3s811/TI_Stellaris/driverlib/usb.c ****     //
1188:/home/cuil/workspace/arm/lm3s811/TI_Stellaris/driverlib/usb.c ****     ASSERT(ulBase == USB0_BASE);
1189:/home/cuil/workspace/arm/lm3s811/TI_Stellaris/driverlib/usb.c ****     ASSERT((ulEndpoint == USB_EP_0) || (ulEndpoint == USB_EP_1) ||
1190:/home/cuil/workspace/arm/lm3s811/TI_Stellaris/driverlib/usb.c ****            (ulEndpoint == USB_EP_2) || (ulEndpoint == USB_EP_3) ||
1191:/home/cuil/workspace/arm/lm3s811/TI_Stellaris/driverlib/usb.c ****            (ulEndpoint == USB_EP_4) || (ulEndpoint == USB_EP_5) ||
1192:/home/cuil/workspace/arm/lm3s811/TI_Stellaris/driverlib/usb.c ****            (ulEndpoint == USB_EP_6) || (ulEndpoint == USB_EP_7) ||
1193:/home/cuil/workspace/arm/lm3s811/TI_Stellaris/driverlib/usb.c ****            (ulEndpoint == USB_EP_8) || (ulEndpoint == USB_EP_9) ||
1194:/home/cuil/workspace/arm/lm3s811/TI_Stellaris/driverlib/usb.c ****            (ulEndpoint == USB_EP_10) || (ulEndpoint == USB_EP_11) ||
1195:/home/cuil/workspace/arm/lm3s811/TI_Stellaris/driverlib/usb.c ****            (ulEndpoint == USB_EP_12) || (ulEndpoint == USB_EP_13) ||
1196:/home/cuil/workspace/arm/lm3s811/TI_Stellaris/driverlib/usb.c ****            (ulEndpoint == USB_EP_14) || (ulEndpoint == USB_EP_15));
1197:/home/cuil/workspace/arm/lm3s811/TI_Stellaris/driverlib/usb.c **** 
1198:/home/cuil/workspace/arm/lm3s811/TI_Stellaris/driverlib/usb.c ****     //
1199:/home/cuil/workspace/arm/lm3s811/TI_Stellaris/driverlib/usb.c ****     // If this is endpoint 0, then the bits have different meaning and map 
1200:/home/cuil/workspace/arm/lm3s811/TI_Stellaris/driverlib/usb.c ****     // into the TX memory location.
1201:/home/cuil/workspace/arm/lm3s811/TI_Stellaris/driverlib/usb.c ****     //
1202:/home/cuil/workspace/arm/lm3s811/TI_Stellaris/driverlib/usb.c ****     if(ulEndpoint == USB_EP_0)
 10857              		.loc 1 1202 0
 10858 000c BB68     		ldr	r3, [r7, #8]
 10859 000e 002B     		cmp	r3, #0
 10860 0010 34D1     		bne	.L66
1203:/home/cuil/workspace/arm/lm3s811/TI_Stellaris/driverlib/usb.c ****     {
1204:/home/cuil/workspace/arm/lm3s811/TI_Stellaris/driverlib/usb.c ****         //
1205:/home/cuil/workspace/arm/lm3s811/TI_Stellaris/driverlib/usb.c ****         // Set the Serviced RxPktRdy bit to clear the RxPktRdy.
1206:/home/cuil/workspace/arm/lm3s811/TI_Stellaris/driverlib/usb.c ****         //
1207:/home/cuil/workspace/arm/lm3s811/TI_Stellaris/driverlib/usb.c ****         if(ulFlags & USB_DEV_EP0_OUT_PKTRDY)
 10861              		.loc 1 1207 0
 10862 0012 7B68     		ldr	r3, [r7, #4]
 10863 0014 03F00103 		and	r3, r3, #1
 10864 0018 DBB2     		uxtb	r3, r3
 10865 001a 002B     		cmp	r3, #0
 10866 001c 0BD0     		beq	.L67
1208:/home/cuil/workspace/arm/lm3s811/TI_Stellaris/driverlib/usb.c ****         {
1209:/home/cuil/workspace/arm/lm3s811/TI_Stellaris/driverlib/usb.c ****             HWREGB(ulBase + USB_O_CSRL0) |= USB_CSRL0_RXRDYC;
 10867              		.loc 1 1209 0
 10868 001e FB68     		ldr	r3, [r7, #12]
 10869 0020 03F58173 		add	r3, r3, #258
 10870 0024 FA68     		ldr	r2, [r7, #12]
 10871 0026 02F58172 		add	r2, r2, #258
 10872 002a 1278     		ldrb	r2, [r2, #0]
 10873 002c D2B2     		uxtb	r2, r2
 10874 002e 42F04002 		orr	r2, r2, #64
 10875 0032 D2B2     		uxtb	r2, r2
 10876 0034 1A70     		strb	r2, [r3, #0]
 10877              	.L67:
1210:/home/cuil/workspace/arm/lm3s811/TI_Stellaris/driverlib/usb.c ****         }
1211:/home/cuil/workspace/arm/lm3s811/TI_Stellaris/driverlib/usb.c **** 
1212:/home/cuil/workspace/arm/lm3s811/TI_Stellaris/driverlib/usb.c ****         //
1213:/home/cuil/workspace/arm/lm3s811/TI_Stellaris/driverlib/usb.c ****         // Set the serviced Setup End bit to clear the SetupEnd status.
1214:/home/cuil/workspace/arm/lm3s811/TI_Stellaris/driverlib/usb.c ****         //
1215:/home/cuil/workspace/arm/lm3s811/TI_Stellaris/driverlib/usb.c ****         if(ulFlags & USB_DEV_EP0_SETUP_END)
 10878              		.loc 1 1215 0
 10879 0036 7B68     		ldr	r3, [r7, #4]
 10880 0038 03F01003 		and	r3, r3, #16
 10881 003c 002B     		cmp	r3, #0
 10882 003e 0BD0     		beq	.L68
1216:/home/cuil/workspace/arm/lm3s811/TI_Stellaris/driverlib/usb.c ****         {
1217:/home/cuil/workspace/arm/lm3s811/TI_Stellaris/driverlib/usb.c ****             HWREGB(ulBase + USB_O_CSRL0) |= USB_CSRL0_SETENDC;
 10883              		.loc 1 1217 0
 10884 0040 FB68     		ldr	r3, [r7, #12]
 10885 0042 03F58173 		add	r3, r3, #258
 10886 0046 FA68     		ldr	r2, [r7, #12]
 10887 0048 02F58172 		add	r2, r2, #258
 10888 004c 1278     		ldrb	r2, [r2, #0]
 10889 004e D2B2     		uxtb	r2, r2
 10890 0050 62F07F02 		orn	r2, r2, #127
 10891 0054 D2B2     		uxtb	r2, r2
 10892 0056 1A70     		strb	r2, [r3, #0]
 10893              	.L68:
1218:/home/cuil/workspace/arm/lm3s811/TI_Stellaris/driverlib/usb.c ****         }
1219:/home/cuil/workspace/arm/lm3s811/TI_Stellaris/driverlib/usb.c **** 
1220:/home/cuil/workspace/arm/lm3s811/TI_Stellaris/driverlib/usb.c ****         //
1221:/home/cuil/workspace/arm/lm3s811/TI_Stellaris/driverlib/usb.c ****         // Clear the Sent Stall status flag.
1222:/home/cuil/workspace/arm/lm3s811/TI_Stellaris/driverlib/usb.c ****         //
1223:/home/cuil/workspace/arm/lm3s811/TI_Stellaris/driverlib/usb.c ****         if(ulFlags & USB_DEV_EP0_SENT_STALL)
 10894              		.loc 1 1223 0
 10895 0058 7B68     		ldr	r3, [r7, #4]
 10896 005a 03F00403 		and	r3, r3, #4
 10897 005e 002B     		cmp	r3, #0
 10898 0060 3DD0     		beq	.L65
1224:/home/cuil/workspace/arm/lm3s811/TI_Stellaris/driverlib/usb.c ****         {
1225:/home/cuil/workspace/arm/lm3s811/TI_Stellaris/driverlib/usb.c ****             HWREGB(ulBase + USB_O_CSRL0) &= ~(USB_DEV_EP0_SENT_STALL);
 10899              		.loc 1 1225 0
 10900 0062 FB68     		ldr	r3, [r7, #12]
 10901 0064 03F58173 		add	r3, r3, #258
 10902 0068 FA68     		ldr	r2, [r7, #12]
 10903 006a 02F58172 		add	r2, r2, #258
 10904 006e 1278     		ldrb	r2, [r2, #0]
 10905 0070 D2B2     		uxtb	r2, r2
 10906 0072 22F00402 		bic	r2, r2, #4
 10907 0076 D2B2     		uxtb	r2, r2
 10908 0078 1A70     		strb	r2, [r3, #0]
 10909 007a 30E0     		b	.L65
 10910              	.L66:
1226:/home/cuil/workspace/arm/lm3s811/TI_Stellaris/driverlib/usb.c ****         }
1227:/home/cuil/workspace/arm/lm3s811/TI_Stellaris/driverlib/usb.c ****     }
1228:/home/cuil/workspace/arm/lm3s811/TI_Stellaris/driverlib/usb.c ****     else
1229:/home/cuil/workspace/arm/lm3s811/TI_Stellaris/driverlib/usb.c ****     {
1230:/home/cuil/workspace/arm/lm3s811/TI_Stellaris/driverlib/usb.c ****         //
1231:/home/cuil/workspace/arm/lm3s811/TI_Stellaris/driverlib/usb.c ****         // Clear out any TX flags that were passed in.  Only
1232:/home/cuil/workspace/arm/lm3s811/TI_Stellaris/driverlib/usb.c ****         // USB_DEV_TX_SENT_STALL and USB_DEV_TX_UNDERRUN should be cleared.
1233:/home/cuil/workspace/arm/lm3s811/TI_Stellaris/driverlib/usb.c ****         //
1234:/home/cuil/workspace/arm/lm3s811/TI_Stellaris/driverlib/usb.c ****         HWREGB(ulBase + USB_O_TXCSRL1 + EP_OFFSET(ulEndpoint)) &=
 10911              		.loc 1 1234 0
 10912 007c FA68     		ldr	r2, [r7, #12]
 10913 007e BB68     		ldr	r3, [r7, #8]
 10914 0080 D318     		adds	r3, r2, r3
 10915 0082 03F58173 		add	r3, r3, #258
 10916 0086 F968     		ldr	r1, [r7, #12]
 10917 0088 BA68     		ldr	r2, [r7, #8]
 10918 008a 8A18     		adds	r2, r1, r2
 10919 008c 02F58172 		add	r2, r2, #258
 10920 0090 1278     		ldrb	r2, [r2, #0]
 10921 0092 D1B2     		uxtb	r1, r2
 10922 0094 7A68     		ldr	r2, [r7, #4]
 10923 0096 D2B2     		uxtb	r2, r2
 10924 0098 02F02402 		and	r2, r2, #36
 10925 009c D2B2     		uxtb	r2, r2
 10926 009e 6FEA0202 		mvn	r2, r2
 10927 00a2 D2B2     		uxtb	r2, r2
 10928 00a4 01EA0202 		and	r2, r1, r2
 10929 00a8 D2B2     		uxtb	r2, r2
 10930 00aa 1A70     		strb	r2, [r3, #0]
1235:/home/cuil/workspace/arm/lm3s811/TI_Stellaris/driverlib/usb.c ****             ~(ulFlags & (USB_DEV_TX_SENT_STALL | USB_DEV_TX_UNDERRUN));
1236:/home/cuil/workspace/arm/lm3s811/TI_Stellaris/driverlib/usb.c **** 
1237:/home/cuil/workspace/arm/lm3s811/TI_Stellaris/driverlib/usb.c ****         //
1238:/home/cuil/workspace/arm/lm3s811/TI_Stellaris/driverlib/usb.c ****         // Clear out valid RX flags that were passed in.  Only
1239:/home/cuil/workspace/arm/lm3s811/TI_Stellaris/driverlib/usb.c ****         // USB_DEV_RX_SENT_STALL, USB_DEV_RX_DATA_ERROR, and USB_DEV_RX_OVERRUN
1240:/home/cuil/workspace/arm/lm3s811/TI_Stellaris/driverlib/usb.c ****         // should be cleared.
1241:/home/cuil/workspace/arm/lm3s811/TI_Stellaris/driverlib/usb.c ****         //
1242:/home/cuil/workspace/arm/lm3s811/TI_Stellaris/driverlib/usb.c ****         HWREGB(ulBase + USB_O_RXCSRL1 + EP_OFFSET(ulEndpoint)) &=
 10931              		.loc 1 1242 0
 10932 00ac FA68     		ldr	r2, [r7, #12]
 10933 00ae BB68     		ldr	r3, [r7, #8]
 10934 00b0 D318     		adds	r3, r2, r3
 10935 00b2 03F58373 		add	r3, r3, #262
 10936 00b6 F968     		ldr	r1, [r7, #12]
 10937 00b8 BA68     		ldr	r2, [r7, #8]
 10938 00ba 8A18     		adds	r2, r1, r2
 10939 00bc 02F58372 		add	r2, r2, #262
 10940 00c0 1278     		ldrb	r2, [r2, #0]
 10941 00c2 D1B2     		uxtb	r1, r2
1243:/home/cuil/workspace/arm/lm3s811/TI_Stellaris/driverlib/usb.c ****             ~((ulFlags & (USB_DEV_RX_SENT_STALL | USB_DEV_RX_DATA_ERROR |
 10942              		.loc 1 1243 0
 10943 00c4 7A68     		ldr	r2, [r7, #4]
 10944 00c6 02F49802 		and	r2, r2, #4980736
1244:/home/cuil/workspace/arm/lm3s811/TI_Stellaris/driverlib/usb.c ****                           USB_DEV_RX_OVERRUN)) >> USB_RX_EPSTATUS_SHIFT);
 10945              		.loc 1 1244 0
 10946 00ca 4FEA1242 		lsr	r2, r2, #16
1242:/home/cuil/workspace/arm/lm3s811/TI_Stellaris/driverlib/usb.c ****         HWREGB(ulBase + USB_O_RXCSRL1 + EP_OFFSET(ulEndpoint)) &=
 10947              		.loc 1 1242 0
 10948 00ce D2B2     		uxtb	r2, r2
 10949 00d0 6FEA0202 		mvn	r2, r2
 10950 00d4 D2B2     		uxtb	r2, r2
 10951 00d6 01EA0202 		and	r2, r1, r2
 10952 00da D2B2     		uxtb	r2, r2
 10953 00dc 1A70     		strb	r2, [r3, #0]
 10954              	.L65:
1245:/home/cuil/workspace/arm/lm3s811/TI_Stellaris/driverlib/usb.c ****     }
1246:/home/cuil/workspace/arm/lm3s811/TI_Stellaris/driverlib/usb.c **** }
 10955              		.loc 1 1246 0
 10956 00de 07F11407 		add	r7, r7, #20
 10957 00e2 BD46     		mov	sp, r7
 10958 00e4 80BC     		pop	{r7}
 10959 00e6 7047     		bx	lr
 10960              		.cfi_endproc
 10961              	.LFE19:
 10963              		.section	.text.USBHostEndpointDataToggle,"ax",%progbits
 10964              		.align	2
 10965              		.global	USBHostEndpointDataToggle
 10966              		.thumb
 10967              		.thumb_func
 10969              	USBHostEndpointDataToggle:
 10970              	.LFB20:
1247:/home/cuil/workspace/arm/lm3s811/TI_Stellaris/driverlib/usb.c **** 
1248:/home/cuil/workspace/arm/lm3s811/TI_Stellaris/driverlib/usb.c **** //*****************************************************************************
1249:/home/cuil/workspace/arm/lm3s811/TI_Stellaris/driverlib/usb.c **** //
1250:/home/cuil/workspace/arm/lm3s811/TI_Stellaris/driverlib/usb.c **** //! Sets the value data toggle on an endpoint in host mode.
1251:/home/cuil/workspace/arm/lm3s811/TI_Stellaris/driverlib/usb.c **** //!
1252:/home/cuil/workspace/arm/lm3s811/TI_Stellaris/driverlib/usb.c **** //! \param ulBase specifies the USB module base address.
1253:/home/cuil/workspace/arm/lm3s811/TI_Stellaris/driverlib/usb.c **** //! \param ulEndpoint specifies the endpoint to reset the data toggle.
1254:/home/cuil/workspace/arm/lm3s811/TI_Stellaris/driverlib/usb.c **** //! \param bDataToggle specifies whether to set the state to DATA0 or DATA1.
1255:/home/cuil/workspace/arm/lm3s811/TI_Stellaris/driverlib/usb.c **** //! \param ulFlags specifies whether to set the IN or OUT endpoint.
1256:/home/cuil/workspace/arm/lm3s811/TI_Stellaris/driverlib/usb.c **** //!
1257:/home/cuil/workspace/arm/lm3s811/TI_Stellaris/driverlib/usb.c **** //! This function is used to force the state of the data toggle in host mode.
1258:/home/cuil/workspace/arm/lm3s811/TI_Stellaris/driverlib/usb.c **** //! If the value passed in the \e bDataToggle parameter is \b false, then the
1259:/home/cuil/workspace/arm/lm3s811/TI_Stellaris/driverlib/usb.c **** //! data toggle is set to the DATA0 state, and if it is \b true it is set to
1260:/home/cuil/workspace/arm/lm3s811/TI_Stellaris/driverlib/usb.c **** //! the DATA1 state.  The \e ulFlags parameter can be \b USB_EP_HOST_IN or
1261:/home/cuil/workspace/arm/lm3s811/TI_Stellaris/driverlib/usb.c **** //! \b USB_EP_HOST_OUT to access the desired portion of this endpoint.  The
1262:/home/cuil/workspace/arm/lm3s811/TI_Stellaris/driverlib/usb.c **** //! \e ulFlags parameter is ignored for endpoint zero.
1263:/home/cuil/workspace/arm/lm3s811/TI_Stellaris/driverlib/usb.c **** //!
1264:/home/cuil/workspace/arm/lm3s811/TI_Stellaris/driverlib/usb.c **** //! \note This function should only be called in host mode.
1265:/home/cuil/workspace/arm/lm3s811/TI_Stellaris/driverlib/usb.c **** //!
1266:/home/cuil/workspace/arm/lm3s811/TI_Stellaris/driverlib/usb.c **** //! \return None.
1267:/home/cuil/workspace/arm/lm3s811/TI_Stellaris/driverlib/usb.c **** //
1268:/home/cuil/workspace/arm/lm3s811/TI_Stellaris/driverlib/usb.c **** //*****************************************************************************
1269:/home/cuil/workspace/arm/lm3s811/TI_Stellaris/driverlib/usb.c **** void
1270:/home/cuil/workspace/arm/lm3s811/TI_Stellaris/driverlib/usb.c **** USBHostEndpointDataToggle(unsigned long ulBase, unsigned long ulEndpoint,
1271:/home/cuil/workspace/arm/lm3s811/TI_Stellaris/driverlib/usb.c ****                           tBoolean bDataToggle, unsigned long ulFlags)
1272:/home/cuil/workspace/arm/lm3s811/TI_Stellaris/driverlib/usb.c **** {
 10971              		.loc 1 1272 0
 10972              		.cfi_startproc
 10973              		@ args = 0, pretend = 0, frame = 24
 10974              		@ frame_needed = 1, uses_anonymous_args = 0
 10975              		@ link register save eliminated.
 10976 0000 80B4     		push	{r7}
 10977              	.LCFI60:
 10978              		.cfi_def_cfa_offset 4
 10979 0002 87B0     		sub	sp, sp, #28
 10980              	.LCFI61:
 10981              		.cfi_def_cfa_offset 32
 10982 0004 00AF     		add	r7, sp, #0
 10983              		.cfi_offset 7, -4
 10984              	.LCFI62:
 10985              		.cfi_def_cfa_register 7
 10986 0006 F860     		str	r0, [r7, #12]
 10987 0008 B960     		str	r1, [r7, #8]
 10988 000a 3B60     		str	r3, [r7, #0]
 10989 000c 1346     		mov	r3, r2
 10990 000e FB71     		strb	r3, [r7, #7]
1273:/home/cuil/workspace/arm/lm3s811/TI_Stellaris/driverlib/usb.c ****     unsigned long ulDataToggle;
1274:/home/cuil/workspace/arm/lm3s811/TI_Stellaris/driverlib/usb.c **** 
1275:/home/cuil/workspace/arm/lm3s811/TI_Stellaris/driverlib/usb.c ****     //
1276:/home/cuil/workspace/arm/lm3s811/TI_Stellaris/driverlib/usb.c ****     // Check the arguments.
1277:/home/cuil/workspace/arm/lm3s811/TI_Stellaris/driverlib/usb.c ****     //
1278:/home/cuil/workspace/arm/lm3s811/TI_Stellaris/driverlib/usb.c ****     ASSERT(ulBase == USB0_BASE);
1279:/home/cuil/workspace/arm/lm3s811/TI_Stellaris/driverlib/usb.c ****     ASSERT((ulEndpoint == USB_EP_0) || (ulEndpoint == USB_EP_1) ||
1280:/home/cuil/workspace/arm/lm3s811/TI_Stellaris/driverlib/usb.c ****            (ulEndpoint == USB_EP_2) || (ulEndpoint == USB_EP_3) ||
1281:/home/cuil/workspace/arm/lm3s811/TI_Stellaris/driverlib/usb.c ****            (ulEndpoint == USB_EP_4) || (ulEndpoint == USB_EP_5) ||
1282:/home/cuil/workspace/arm/lm3s811/TI_Stellaris/driverlib/usb.c ****            (ulEndpoint == USB_EP_6) || (ulEndpoint == USB_EP_7) ||
1283:/home/cuil/workspace/arm/lm3s811/TI_Stellaris/driverlib/usb.c ****            (ulEndpoint == USB_EP_8) || (ulEndpoint == USB_EP_9) ||
1284:/home/cuil/workspace/arm/lm3s811/TI_Stellaris/driverlib/usb.c ****            (ulEndpoint == USB_EP_10) || (ulEndpoint == USB_EP_11) ||
1285:/home/cuil/workspace/arm/lm3s811/TI_Stellaris/driverlib/usb.c ****            (ulEndpoint == USB_EP_12) || (ulEndpoint == USB_EP_13) ||
1286:/home/cuil/workspace/arm/lm3s811/TI_Stellaris/driverlib/usb.c ****            (ulEndpoint == USB_EP_14) || (ulEndpoint == USB_EP_15));
1287:/home/cuil/workspace/arm/lm3s811/TI_Stellaris/driverlib/usb.c **** 
1288:/home/cuil/workspace/arm/lm3s811/TI_Stellaris/driverlib/usb.c ****     //
1289:/home/cuil/workspace/arm/lm3s811/TI_Stellaris/driverlib/usb.c ****     // The data toggle defaults to DATA0.
1290:/home/cuil/workspace/arm/lm3s811/TI_Stellaris/driverlib/usb.c ****     //
1291:/home/cuil/workspace/arm/lm3s811/TI_Stellaris/driverlib/usb.c ****     ulDataToggle = 0;
 10991              		.loc 1 1291 0
 10992 0010 4FF00003 		mov	r3, #0
 10993 0014 7B61     		str	r3, [r7, #20]
1292:/home/cuil/workspace/arm/lm3s811/TI_Stellaris/driverlib/usb.c **** 
1293:/home/cuil/workspace/arm/lm3s811/TI_Stellaris/driverlib/usb.c ****     //
1294:/home/cuil/workspace/arm/lm3s811/TI_Stellaris/driverlib/usb.c ****     // See if the data toggle should be set to DATA1.
1295:/home/cuil/workspace/arm/lm3s811/TI_Stellaris/driverlib/usb.c ****     //
1296:/home/cuil/workspace/arm/lm3s811/TI_Stellaris/driverlib/usb.c ****     if(bDataToggle)
 10994              		.loc 1 1296 0
 10995 0016 FB79     		ldrb	r3, [r7, #7]	@ zero_extendqisi2
 10996 0018 002B     		cmp	r3, #0
 10997 001a 10D0     		beq	.L71
1297:/home/cuil/workspace/arm/lm3s811/TI_Stellaris/driverlib/usb.c ****     {
1298:/home/cuil/workspace/arm/lm3s811/TI_Stellaris/driverlib/usb.c ****         //
1299:/home/cuil/workspace/arm/lm3s811/TI_Stellaris/driverlib/usb.c ****         // Select the data toggle bit based on the endpoint.
1300:/home/cuil/workspace/arm/lm3s811/TI_Stellaris/driverlib/usb.c ****         //
1301:/home/cuil/workspace/arm/lm3s811/TI_Stellaris/driverlib/usb.c ****         if(ulEndpoint == USB_EP_0)
 10998              		.loc 1 1301 0
 10999 001c BB68     		ldr	r3, [r7, #8]
 11000 001e 002B     		cmp	r3, #0
 11001 0020 03D1     		bne	.L72
1302:/home/cuil/workspace/arm/lm3s811/TI_Stellaris/driverlib/usb.c ****         {
1303:/home/cuil/workspace/arm/lm3s811/TI_Stellaris/driverlib/usb.c ****             ulDataToggle = USB_CSRH0_DT;
 11002              		.loc 1 1303 0
 11003 0022 4FF00203 		mov	r3, #2
 11004 0026 7B61     		str	r3, [r7, #20]
 11005 0028 09E0     		b	.L71
 11006              	.L72:
1304:/home/cuil/workspace/arm/lm3s811/TI_Stellaris/driverlib/usb.c ****         }
1305:/home/cuil/workspace/arm/lm3s811/TI_Stellaris/driverlib/usb.c ****         else if(ulFlags == USB_EP_HOST_IN)
 11007              		.loc 1 1305 0
 11008 002a 3B68     		ldr	r3, [r7, #0]
 11009 002c 002B     		cmp	r3, #0
 11010 002e 03D1     		bne	.L73
1306:/home/cuil/workspace/arm/lm3s811/TI_Stellaris/driverlib/usb.c ****         {
1307:/home/cuil/workspace/arm/lm3s811/TI_Stellaris/driverlib/usb.c ****             ulDataToggle = USB_RXCSRH1_DT;
 11011              		.loc 1 1307 0
 11012 0030 4FF00203 		mov	r3, #2
 11013 0034 7B61     		str	r3, [r7, #20]
 11014 0036 02E0     		b	.L71
 11015              	.L73:
1308:/home/cuil/workspace/arm/lm3s811/TI_Stellaris/driverlib/usb.c ****         }
1309:/home/cuil/workspace/arm/lm3s811/TI_Stellaris/driverlib/usb.c ****         else
1310:/home/cuil/workspace/arm/lm3s811/TI_Stellaris/driverlib/usb.c ****         {
1311:/home/cuil/workspace/arm/lm3s811/TI_Stellaris/driverlib/usb.c ****             ulDataToggle = USB_TXCSRH1_DT;
 11016              		.loc 1 1311 0
 11017 0038 4FF00103 		mov	r3, #1
 11018 003c 7B61     		str	r3, [r7, #20]
 11019              	.L71:
1312:/home/cuil/workspace/arm/lm3s811/TI_Stellaris/driverlib/usb.c ****         }
1313:/home/cuil/workspace/arm/lm3s811/TI_Stellaris/driverlib/usb.c ****     }
1314:/home/cuil/workspace/arm/lm3s811/TI_Stellaris/driverlib/usb.c **** 
1315:/home/cuil/workspace/arm/lm3s811/TI_Stellaris/driverlib/usb.c ****     //
1316:/home/cuil/workspace/arm/lm3s811/TI_Stellaris/driverlib/usb.c ****     // Set the data toggle based on the endpoint.
1317:/home/cuil/workspace/arm/lm3s811/TI_Stellaris/driverlib/usb.c ****     //
1318:/home/cuil/workspace/arm/lm3s811/TI_Stellaris/driverlib/usb.c ****     if(ulEndpoint == USB_EP_0)
 11020              		.loc 1 1318 0
 11021 003e BB68     		ldr	r3, [r7, #8]
 11022 0040 002B     		cmp	r3, #0
 11023 0042 19D1     		bne	.L74
1319:/home/cuil/workspace/arm/lm3s811/TI_Stellaris/driverlib/usb.c ****     {
1320:/home/cuil/workspace/arm/lm3s811/TI_Stellaris/driverlib/usb.c ****         //
1321:/home/cuil/workspace/arm/lm3s811/TI_Stellaris/driverlib/usb.c ****         // Set the write enable and the bit value for endpoint zero.
1322:/home/cuil/workspace/arm/lm3s811/TI_Stellaris/driverlib/usb.c ****         //
1323:/home/cuil/workspace/arm/lm3s811/TI_Stellaris/driverlib/usb.c ****         HWREGB(ulBase + USB_O_CSRH0) =
 11024              		.loc 1 1323 0
 11025 0044 FB68     		ldr	r3, [r7, #12]
 11026 0046 03F58073 		add	r3, r3, #256
 11027 004a 03F10303 		add	r3, r3, #3
 11028 004e 1A46     		mov	r2, r3
1324:/home/cuil/workspace/arm/lm3s811/TI_Stellaris/driverlib/usb.c ****             ((HWREGB(ulBase + USB_O_CSRH0) &
 11029              		.loc 1 1324 0
 11030 0050 FB68     		ldr	r3, [r7, #12]
 11031 0052 03F58073 		add	r3, r3, #256
 11032 0056 03F10303 		add	r3, r3, #3
 11033 005a 1B78     		ldrb	r3, [r3, #0]
 11034 005c DBB2     		uxtb	r3, r3
1323:/home/cuil/workspace/arm/lm3s811/TI_Stellaris/driverlib/usb.c ****         HWREGB(ulBase + USB_O_CSRH0) =
 11035              		.loc 1 1323 0
 11036 005e 23F00603 		bic	r3, r3, #6
 11037 0062 D9B2     		uxtb	r1, r3
 11038 0064 7B69     		ldr	r3, [r7, #20]
 11039 0066 DBB2     		uxtb	r3, r3
 11040 0068 41EA0303 		orr	r3, r1, r3
 11041 006c DBB2     		uxtb	r3, r3
 11042 006e 43F00403 		orr	r3, r3, #4
 11043 0072 DBB2     		uxtb	r3, r3
 11044 0074 1370     		strb	r3, [r2, #0]
 11045 0076 3DE0     		b	.L70
 11046              	.L74:
1325:/home/cuil/workspace/arm/lm3s811/TI_Stellaris/driverlib/usb.c ****               ~(USB_CSRH0_DTWE | USB_CSRH0_DT)) |
1326:/home/cuil/workspace/arm/lm3s811/TI_Stellaris/driverlib/usb.c ****              (ulDataToggle | USB_CSRH0_DTWE));
1327:/home/cuil/workspace/arm/lm3s811/TI_Stellaris/driverlib/usb.c ****     }
1328:/home/cuil/workspace/arm/lm3s811/TI_Stellaris/driverlib/usb.c ****     else if(ulFlags == USB_EP_HOST_IN)
 11047              		.loc 1 1328 0
 11048 0078 3B68     		ldr	r3, [r7, #0]
 11049 007a 002B     		cmp	r3, #0
 11050 007c 1DD1     		bne	.L76
1329:/home/cuil/workspace/arm/lm3s811/TI_Stellaris/driverlib/usb.c ****     {
1330:/home/cuil/workspace/arm/lm3s811/TI_Stellaris/driverlib/usb.c ****         //
1331:/home/cuil/workspace/arm/lm3s811/TI_Stellaris/driverlib/usb.c ****         // Set the Write enable and the bit value for an IN endpoint.
1332:/home/cuil/workspace/arm/lm3s811/TI_Stellaris/driverlib/usb.c ****         //
1333:/home/cuil/workspace/arm/lm3s811/TI_Stellaris/driverlib/usb.c ****         HWREGB(ulBase + USB_O_RXCSRH1 + EP_OFFSET(ulEndpoint)) =
 11051              		.loc 1 1333 0
 11052 007e FA68     		ldr	r2, [r7, #12]
 11053 0080 BB68     		ldr	r3, [r7, #8]
 11054 0082 D318     		adds	r3, r2, r3
 11055 0084 03F58273 		add	r3, r3, #260
 11056 0088 03F10303 		add	r3, r3, #3
 11057 008c 1A46     		mov	r2, r3
1334:/home/cuil/workspace/arm/lm3s811/TI_Stellaris/driverlib/usb.c ****             ((HWREGB(ulBase + USB_O_RXCSRH1 + EP_OFFSET(ulEndpoint)) &
 11058              		.loc 1 1334 0
 11059 008e F968     		ldr	r1, [r7, #12]
 11060 0090 BB68     		ldr	r3, [r7, #8]
 11061 0092 CB18     		adds	r3, r1, r3
 11062 0094 03F58273 		add	r3, r3, #260
 11063 0098 03F10303 		add	r3, r3, #3
 11064 009c 1B78     		ldrb	r3, [r3, #0]
 11065 009e DBB2     		uxtb	r3, r3
1333:/home/cuil/workspace/arm/lm3s811/TI_Stellaris/driverlib/usb.c ****         HWREGB(ulBase + USB_O_RXCSRH1 + EP_OFFSET(ulEndpoint)) =
 11066              		.loc 1 1333 0
 11067 00a0 23F00603 		bic	r3, r3, #6
 11068 00a4 D9B2     		uxtb	r1, r3
 11069 00a6 7B69     		ldr	r3, [r7, #20]
 11070 00a8 DBB2     		uxtb	r3, r3
 11071 00aa 41EA0303 		orr	r3, r1, r3
 11072 00ae DBB2     		uxtb	r3, r3
 11073 00b0 43F00403 		orr	r3, r3, #4
 11074 00b4 DBB2     		uxtb	r3, r3
 11075 00b6 1370     		strb	r3, [r2, #0]
 11076 00b8 1CE0     		b	.L70
 11077              	.L76:
1335:/home/cuil/workspace/arm/lm3s811/TI_Stellaris/driverlib/usb.c ****               ~(USB_RXCSRH1_DTWE | USB_RXCSRH1_DT)) |
1336:/home/cuil/workspace/arm/lm3s811/TI_Stellaris/driverlib/usb.c ****              (ulDataToggle | USB_RXCSRH1_DTWE));
1337:/home/cuil/workspace/arm/lm3s811/TI_Stellaris/driverlib/usb.c ****     }
1338:/home/cuil/workspace/arm/lm3s811/TI_Stellaris/driverlib/usb.c ****     else
1339:/home/cuil/workspace/arm/lm3s811/TI_Stellaris/driverlib/usb.c ****     {
1340:/home/cuil/workspace/arm/lm3s811/TI_Stellaris/driverlib/usb.c ****         //
1341:/home/cuil/workspace/arm/lm3s811/TI_Stellaris/driverlib/usb.c ****         // Set the Write enable and the bit value for an OUT endpoint.
1342:/home/cuil/workspace/arm/lm3s811/TI_Stellaris/driverlib/usb.c ****         //
1343:/home/cuil/workspace/arm/lm3s811/TI_Stellaris/driverlib/usb.c ****         HWREGB(ulBase + USB_O_TXCSRH1 + EP_OFFSET(ulEndpoint)) =
 11078              		.loc 1 1343 0
 11079 00ba FA68     		ldr	r2, [r7, #12]
 11080 00bc BB68     		ldr	r3, [r7, #8]
 11081 00be D318     		adds	r3, r2, r3
 11082 00c0 03F58073 		add	r3, r3, #256
 11083 00c4 03F10303 		add	r3, r3, #3
 11084 00c8 1A46     		mov	r2, r3
1344:/home/cuil/workspace/arm/lm3s811/TI_Stellaris/driverlib/usb.c ****             ((HWREGB(ulBase + USB_O_TXCSRH1 + EP_OFFSET(ulEndpoint)) &
 11085              		.loc 1 1344 0
 11086 00ca F968     		ldr	r1, [r7, #12]
 11087 00cc BB68     		ldr	r3, [r7, #8]
 11088 00ce CB18     		adds	r3, r1, r3
 11089 00d0 03F58073 		add	r3, r3, #256
 11090 00d4 03F10303 		add	r3, r3, #3
 11091 00d8 1B78     		ldrb	r3, [r3, #0]
 11092 00da DBB2     		uxtb	r3, r3
1343:/home/cuil/workspace/arm/lm3s811/TI_Stellaris/driverlib/usb.c ****         HWREGB(ulBase + USB_O_TXCSRH1 + EP_OFFSET(ulEndpoint)) =
 11093              		.loc 1 1343 0
 11094 00dc 23F00303 		bic	r3, r3, #3
 11095 00e0 D9B2     		uxtb	r1, r3
 11096 00e2 7B69     		ldr	r3, [r7, #20]
 11097 00e4 DBB2     		uxtb	r3, r3
 11098 00e6 41EA0303 		orr	r3, r1, r3
 11099 00ea DBB2     		uxtb	r3, r3
 11100 00ec 43F00203 		orr	r3, r3, #2
 11101 00f0 DBB2     		uxtb	r3, r3
 11102 00f2 1370     		strb	r3, [r2, #0]
 11103              	.L70:
1345:/home/cuil/workspace/arm/lm3s811/TI_Stellaris/driverlib/usb.c ****               ~(USB_TXCSRH1_DTWE | USB_TXCSRH1_DT)) |
1346:/home/cuil/workspace/arm/lm3s811/TI_Stellaris/driverlib/usb.c ****              (ulDataToggle | USB_TXCSRH1_DTWE));
1347:/home/cuil/workspace/arm/lm3s811/TI_Stellaris/driverlib/usb.c ****     }
1348:/home/cuil/workspace/arm/lm3s811/TI_Stellaris/driverlib/usb.c **** }
 11104              		.loc 1 1348 0
 11105 00f4 07F11C07 		add	r7, r7, #28
 11106 00f8 BD46     		mov	sp, r7
 11107 00fa 80BC     		pop	{r7}
 11108 00fc 7047     		bx	lr
 11109              		.cfi_endproc
 11110              	.LFE20:
 11112 00fe 00BF     		.section	.text.USBEndpointDataToggleClear,"ax",%progbits
 11113              		.align	2
 11114              		.global	USBEndpointDataToggleClear
 11115              		.thumb
 11116              		.thumb_func
 11118              	USBEndpointDataToggleClear:
 11119              	.LFB21:
1349:/home/cuil/workspace/arm/lm3s811/TI_Stellaris/driverlib/usb.c **** 
1350:/home/cuil/workspace/arm/lm3s811/TI_Stellaris/driverlib/usb.c **** //*****************************************************************************
1351:/home/cuil/workspace/arm/lm3s811/TI_Stellaris/driverlib/usb.c **** //
1352:/home/cuil/workspace/arm/lm3s811/TI_Stellaris/driverlib/usb.c **** //! Sets the data toggle on an endpoint to zero.
1353:/home/cuil/workspace/arm/lm3s811/TI_Stellaris/driverlib/usb.c **** //!
1354:/home/cuil/workspace/arm/lm3s811/TI_Stellaris/driverlib/usb.c **** //! \param ulBase specifies the USB module base address.
1355:/home/cuil/workspace/arm/lm3s811/TI_Stellaris/driverlib/usb.c **** //! \param ulEndpoint specifies the endpoint to reset the data toggle.
1356:/home/cuil/workspace/arm/lm3s811/TI_Stellaris/driverlib/usb.c **** //! \param ulFlags specifies whether to access the IN or OUT endpoint.
1357:/home/cuil/workspace/arm/lm3s811/TI_Stellaris/driverlib/usb.c **** //!
1358:/home/cuil/workspace/arm/lm3s811/TI_Stellaris/driverlib/usb.c **** //! This function causes the USB controller to clear the data toggle for an
1359:/home/cuil/workspace/arm/lm3s811/TI_Stellaris/driverlib/usb.c **** //! endpoint.  This call is not valid for endpoint zero and can be made with
1360:/home/cuil/workspace/arm/lm3s811/TI_Stellaris/driverlib/usb.c **** //! host or device controllers.
1361:/home/cuil/workspace/arm/lm3s811/TI_Stellaris/driverlib/usb.c **** //!
1362:/home/cuil/workspace/arm/lm3s811/TI_Stellaris/driverlib/usb.c **** //! The \e ulFlags parameter should be one of \b USB_EP_HOST_OUT,
1363:/home/cuil/workspace/arm/lm3s811/TI_Stellaris/driverlib/usb.c **** //! \b USB_EP_HOST_IN, \b USB_EP_DEV_OUT, or \b USB_EP_DEV_IN.
1364:/home/cuil/workspace/arm/lm3s811/TI_Stellaris/driverlib/usb.c **** //!
1365:/home/cuil/workspace/arm/lm3s811/TI_Stellaris/driverlib/usb.c **** //! \return None.
1366:/home/cuil/workspace/arm/lm3s811/TI_Stellaris/driverlib/usb.c **** //
1367:/home/cuil/workspace/arm/lm3s811/TI_Stellaris/driverlib/usb.c **** //*****************************************************************************
1368:/home/cuil/workspace/arm/lm3s811/TI_Stellaris/driverlib/usb.c **** void
1369:/home/cuil/workspace/arm/lm3s811/TI_Stellaris/driverlib/usb.c **** USBEndpointDataToggleClear(unsigned long ulBase, unsigned long ulEndpoint,
1370:/home/cuil/workspace/arm/lm3s811/TI_Stellaris/driverlib/usb.c ****                            unsigned long ulFlags)
1371:/home/cuil/workspace/arm/lm3s811/TI_Stellaris/driverlib/usb.c **** {
 11120              		.loc 1 1371 0
 11121              		.cfi_startproc
 11122              		@ args = 0, pretend = 0, frame = 16
 11123              		@ frame_needed = 1, uses_anonymous_args = 0
 11124              		@ link register save eliminated.
 11125 0000 80B4     		push	{r7}
 11126              	.LCFI63:
 11127              		.cfi_def_cfa_offset 4
 11128 0002 85B0     		sub	sp, sp, #20
 11129              	.LCFI64:
 11130              		.cfi_def_cfa_offset 24
 11131 0004 00AF     		add	r7, sp, #0
 11132              		.cfi_offset 7, -4
 11133              	.LCFI65:
 11134              		.cfi_def_cfa_register 7
 11135 0006 F860     		str	r0, [r7, #12]
 11136 0008 B960     		str	r1, [r7, #8]
 11137 000a 7A60     		str	r2, [r7, #4]
1372:/home/cuil/workspace/arm/lm3s811/TI_Stellaris/driverlib/usb.c ****     //
1373:/home/cuil/workspace/arm/lm3s811/TI_Stellaris/driverlib/usb.c ****     // Check the arguments.
1374:/home/cuil/workspace/arm/lm3s811/TI_Stellaris/driverlib/usb.c ****     //
1375:/home/cuil/workspace/arm/lm3s811/TI_Stellaris/driverlib/usb.c ****     ASSERT(ulBase == USB0_BASE);
1376:/home/cuil/workspace/arm/lm3s811/TI_Stellaris/driverlib/usb.c ****     ASSERT((ulEndpoint == USB_EP_1) || (ulEndpoint == USB_EP_2) ||
1377:/home/cuil/workspace/arm/lm3s811/TI_Stellaris/driverlib/usb.c ****            (ulEndpoint == USB_EP_3) || (ulEndpoint == USB_EP_4) ||
1378:/home/cuil/workspace/arm/lm3s811/TI_Stellaris/driverlib/usb.c ****            (ulEndpoint == USB_EP_5) || (ulEndpoint == USB_EP_6) ||
1379:/home/cuil/workspace/arm/lm3s811/TI_Stellaris/driverlib/usb.c ****            (ulEndpoint == USB_EP_7) || (ulEndpoint == USB_EP_8) ||
1380:/home/cuil/workspace/arm/lm3s811/TI_Stellaris/driverlib/usb.c ****            (ulEndpoint == USB_EP_9) || (ulEndpoint == USB_EP_10) ||
1381:/home/cuil/workspace/arm/lm3s811/TI_Stellaris/driverlib/usb.c ****            (ulEndpoint == USB_EP_11) || (ulEndpoint == USB_EP_12) ||
1382:/home/cuil/workspace/arm/lm3s811/TI_Stellaris/driverlib/usb.c ****            (ulEndpoint == USB_EP_13) || (ulEndpoint == USB_EP_14) ||
1383:/home/cuil/workspace/arm/lm3s811/TI_Stellaris/driverlib/usb.c ****            (ulEndpoint == USB_EP_15));
1384:/home/cuil/workspace/arm/lm3s811/TI_Stellaris/driverlib/usb.c **** 
1385:/home/cuil/workspace/arm/lm3s811/TI_Stellaris/driverlib/usb.c ****     //
1386:/home/cuil/workspace/arm/lm3s811/TI_Stellaris/driverlib/usb.c ****     // See if the transmit or receive data toggle should be cleared.
1387:/home/cuil/workspace/arm/lm3s811/TI_Stellaris/driverlib/usb.c ****     //
1388:/home/cuil/workspace/arm/lm3s811/TI_Stellaris/driverlib/usb.c ****     if(ulFlags & (USB_EP_HOST_OUT | USB_EP_DEV_IN))
 11138              		.loc 1 1388 0
 11139 000c 7B68     		ldr	r3, [r7, #4]
 11140 000e 03F40053 		and	r3, r3, #8192
 11141 0012 002B     		cmp	r3, #0
 11142 0014 10D0     		beq	.L78
1389:/home/cuil/workspace/arm/lm3s811/TI_Stellaris/driverlib/usb.c ****     {
1390:/home/cuil/workspace/arm/lm3s811/TI_Stellaris/driverlib/usb.c ****         HWREGB(ulBase + USB_O_TXCSRL1 + EP_OFFSET(ulEndpoint)) |=
 11143              		.loc 1 1390 0
 11144 0016 FA68     		ldr	r2, [r7, #12]
 11145 0018 BB68     		ldr	r3, [r7, #8]
 11146 001a D318     		adds	r3, r2, r3
 11147 001c 03F58173 		add	r3, r3, #258
 11148 0020 F968     		ldr	r1, [r7, #12]
 11149 0022 BA68     		ldr	r2, [r7, #8]
 11150 0024 8A18     		adds	r2, r1, r2
 11151 0026 02F58172 		add	r2, r2, #258
 11152 002a 1278     		ldrb	r2, [r2, #0]
 11153 002c D2B2     		uxtb	r2, r2
 11154 002e 42F04002 		orr	r2, r2, #64
 11155 0032 D2B2     		uxtb	r2, r2
 11156 0034 1A70     		strb	r2, [r3, #0]
 11157 0036 0FE0     		b	.L77
 11158              	.L78:
1391:/home/cuil/workspace/arm/lm3s811/TI_Stellaris/driverlib/usb.c ****             USB_TXCSRL1_CLRDT;
1392:/home/cuil/workspace/arm/lm3s811/TI_Stellaris/driverlib/usb.c ****     }
1393:/home/cuil/workspace/arm/lm3s811/TI_Stellaris/driverlib/usb.c ****     else
1394:/home/cuil/workspace/arm/lm3s811/TI_Stellaris/driverlib/usb.c ****     {
1395:/home/cuil/workspace/arm/lm3s811/TI_Stellaris/driverlib/usb.c ****         HWREGB(ulBase + USB_O_RXCSRL1 + EP_OFFSET(ulEndpoint)) |=
 11159              		.loc 1 1395 0
 11160 0038 FA68     		ldr	r2, [r7, #12]
 11161 003a BB68     		ldr	r3, [r7, #8]
 11162 003c D318     		adds	r3, r2, r3
 11163 003e 03F58373 		add	r3, r3, #262
 11164 0042 F968     		ldr	r1, [r7, #12]
 11165 0044 BA68     		ldr	r2, [r7, #8]
 11166 0046 8A18     		adds	r2, r1, r2
 11167 0048 02F58372 		add	r2, r2, #262
 11168 004c 1278     		ldrb	r2, [r2, #0]
 11169 004e D2B2     		uxtb	r2, r2
 11170 0050 62F07F02 		orn	r2, r2, #127
 11171 0054 D2B2     		uxtb	r2, r2
 11172 0056 1A70     		strb	r2, [r3, #0]
 11173              	.L77:
1396:/home/cuil/workspace/arm/lm3s811/TI_Stellaris/driverlib/usb.c ****             USB_RXCSRL1_CLRDT;
1397:/home/cuil/workspace/arm/lm3s811/TI_Stellaris/driverlib/usb.c ****     }
1398:/home/cuil/workspace/arm/lm3s811/TI_Stellaris/driverlib/usb.c **** }
 11174              		.loc 1 1398 0
 11175 0058 07F11407 		add	r7, r7, #20
 11176 005c BD46     		mov	sp, r7
 11177 005e 80BC     		pop	{r7}
 11178 0060 7047     		bx	lr
 11179              		.cfi_endproc
 11180              	.LFE21:
 11182 0062 00BF     		.section	.text.USBDevEndpointStall,"ax",%progbits
 11183              		.align	2
 11184              		.global	USBDevEndpointStall
 11185              		.thumb
 11186              		.thumb_func
 11188              	USBDevEndpointStall:
 11189              	.LFB22:
1399:/home/cuil/workspace/arm/lm3s811/TI_Stellaris/driverlib/usb.c **** 
1400:/home/cuil/workspace/arm/lm3s811/TI_Stellaris/driverlib/usb.c **** //*****************************************************************************
1401:/home/cuil/workspace/arm/lm3s811/TI_Stellaris/driverlib/usb.c **** //
1402:/home/cuil/workspace/arm/lm3s811/TI_Stellaris/driverlib/usb.c **** //! Stalls the specified endpoint in device mode.
1403:/home/cuil/workspace/arm/lm3s811/TI_Stellaris/driverlib/usb.c **** //!
1404:/home/cuil/workspace/arm/lm3s811/TI_Stellaris/driverlib/usb.c **** //! \param ulBase specifies the USB module base address.
1405:/home/cuil/workspace/arm/lm3s811/TI_Stellaris/driverlib/usb.c **** //! \param ulEndpoint specifies the endpoint to stall.
1406:/home/cuil/workspace/arm/lm3s811/TI_Stellaris/driverlib/usb.c **** //! \param ulFlags specifies whether to stall the IN or OUT endpoint.
1407:/home/cuil/workspace/arm/lm3s811/TI_Stellaris/driverlib/usb.c **** //!
1408:/home/cuil/workspace/arm/lm3s811/TI_Stellaris/driverlib/usb.c **** //! This function causes the endpoint number passed in to go into a stall
1409:/home/cuil/workspace/arm/lm3s811/TI_Stellaris/driverlib/usb.c **** //! condition.  If the \e ulFlags parameter is \b USB_EP_DEV_IN, then the stall
1410:/home/cuil/workspace/arm/lm3s811/TI_Stellaris/driverlib/usb.c **** //! is issued on the IN portion of this endpoint.  If the \e ulFlags parameter
1411:/home/cuil/workspace/arm/lm3s811/TI_Stellaris/driverlib/usb.c **** //! is \b USB_EP_DEV_OUT, then the stall is issued on the OUT portion of this
1412:/home/cuil/workspace/arm/lm3s811/TI_Stellaris/driverlib/usb.c **** //! endpoint.
1413:/home/cuil/workspace/arm/lm3s811/TI_Stellaris/driverlib/usb.c **** //!
1414:/home/cuil/workspace/arm/lm3s811/TI_Stellaris/driverlib/usb.c **** //! \note This function should only be called in device mode.
1415:/home/cuil/workspace/arm/lm3s811/TI_Stellaris/driverlib/usb.c **** //!
1416:/home/cuil/workspace/arm/lm3s811/TI_Stellaris/driverlib/usb.c **** //! \return None.
1417:/home/cuil/workspace/arm/lm3s811/TI_Stellaris/driverlib/usb.c **** //
1418:/home/cuil/workspace/arm/lm3s811/TI_Stellaris/driverlib/usb.c **** //*****************************************************************************
1419:/home/cuil/workspace/arm/lm3s811/TI_Stellaris/driverlib/usb.c **** void
1420:/home/cuil/workspace/arm/lm3s811/TI_Stellaris/driverlib/usb.c **** USBDevEndpointStall(unsigned long ulBase, unsigned long ulEndpoint,
1421:/home/cuil/workspace/arm/lm3s811/TI_Stellaris/driverlib/usb.c ****                     unsigned long ulFlags)
1422:/home/cuil/workspace/arm/lm3s811/TI_Stellaris/driverlib/usb.c **** {
 11190              		.loc 1 1422 0
 11191              		.cfi_startproc
 11192              		@ args = 0, pretend = 0, frame = 16
 11193              		@ frame_needed = 1, uses_anonymous_args = 0
 11194              		@ link register save eliminated.
 11195 0000 80B4     		push	{r7}
 11196              	.LCFI66:
 11197              		.cfi_def_cfa_offset 4
 11198 0002 85B0     		sub	sp, sp, #20
 11199              	.LCFI67:
 11200              		.cfi_def_cfa_offset 24
 11201 0004 00AF     		add	r7, sp, #0
 11202              		.cfi_offset 7, -4
 11203              	.LCFI68:
 11204              		.cfi_def_cfa_register 7
 11205 0006 F860     		str	r0, [r7, #12]
 11206 0008 B960     		str	r1, [r7, #8]
 11207 000a 7A60     		str	r2, [r7, #4]
1423:/home/cuil/workspace/arm/lm3s811/TI_Stellaris/driverlib/usb.c ****     //
1424:/home/cuil/workspace/arm/lm3s811/TI_Stellaris/driverlib/usb.c ****     // Check the arguments.
1425:/home/cuil/workspace/arm/lm3s811/TI_Stellaris/driverlib/usb.c ****     //
1426:/home/cuil/workspace/arm/lm3s811/TI_Stellaris/driverlib/usb.c ****     ASSERT(ulBase == USB0_BASE);
1427:/home/cuil/workspace/arm/lm3s811/TI_Stellaris/driverlib/usb.c ****     ASSERT((ulFlags & ~(USB_EP_DEV_IN | USB_EP_DEV_OUT)) == 0)
1428:/home/cuil/workspace/arm/lm3s811/TI_Stellaris/driverlib/usb.c ****     ASSERT((ulEndpoint == USB_EP_0) || (ulEndpoint == USB_EP_1) ||
1429:/home/cuil/workspace/arm/lm3s811/TI_Stellaris/driverlib/usb.c ****            (ulEndpoint == USB_EP_2) || (ulEndpoint == USB_EP_3) ||
1430:/home/cuil/workspace/arm/lm3s811/TI_Stellaris/driverlib/usb.c ****            (ulEndpoint == USB_EP_4) || (ulEndpoint == USB_EP_5) ||
1431:/home/cuil/workspace/arm/lm3s811/TI_Stellaris/driverlib/usb.c ****            (ulEndpoint == USB_EP_6) || (ulEndpoint == USB_EP_7) ||
1432:/home/cuil/workspace/arm/lm3s811/TI_Stellaris/driverlib/usb.c ****            (ulEndpoint == USB_EP_8) || (ulEndpoint == USB_EP_9) ||
1433:/home/cuil/workspace/arm/lm3s811/TI_Stellaris/driverlib/usb.c ****            (ulEndpoint == USB_EP_10) || (ulEndpoint == USB_EP_11) ||
1434:/home/cuil/workspace/arm/lm3s811/TI_Stellaris/driverlib/usb.c ****            (ulEndpoint == USB_EP_12) || (ulEndpoint == USB_EP_13) ||
1435:/home/cuil/workspace/arm/lm3s811/TI_Stellaris/driverlib/usb.c ****            (ulEndpoint == USB_EP_14) || (ulEndpoint == USB_EP_15));
1436:/home/cuil/workspace/arm/lm3s811/TI_Stellaris/driverlib/usb.c **** 
1437:/home/cuil/workspace/arm/lm3s811/TI_Stellaris/driverlib/usb.c ****     //
1438:/home/cuil/workspace/arm/lm3s811/TI_Stellaris/driverlib/usb.c ****     // Determine how to stall this endpoint.
1439:/home/cuil/workspace/arm/lm3s811/TI_Stellaris/driverlib/usb.c ****     //
1440:/home/cuil/workspace/arm/lm3s811/TI_Stellaris/driverlib/usb.c ****     if(ulEndpoint == USB_EP_0)
 11208              		.loc 1 1440 0
 11209 000c BB68     		ldr	r3, [r7, #8]
 11210 000e 002B     		cmp	r3, #0
 11211 0010 0CD1     		bne	.L81
1441:/home/cuil/workspace/arm/lm3s811/TI_Stellaris/driverlib/usb.c ****     {
1442:/home/cuil/workspace/arm/lm3s811/TI_Stellaris/driverlib/usb.c ****         //
1443:/home/cuil/workspace/arm/lm3s811/TI_Stellaris/driverlib/usb.c ****         // Perform a stall on endpoint zero.
1444:/home/cuil/workspace/arm/lm3s811/TI_Stellaris/driverlib/usb.c ****         //
1445:/home/cuil/workspace/arm/lm3s811/TI_Stellaris/driverlib/usb.c ****         HWREGB(ulBase + USB_O_CSRL0) |=
 11212              		.loc 1 1445 0
 11213 0012 FB68     		ldr	r3, [r7, #12]
 11214 0014 03F58173 		add	r3, r3, #258
 11215 0018 FA68     		ldr	r2, [r7, #12]
 11216 001a 02F58172 		add	r2, r2, #258
 11217 001e 1278     		ldrb	r2, [r2, #0]
 11218 0020 D2B2     		uxtb	r2, r2
 11219 0022 42F06002 		orr	r2, r2, #96
 11220 0026 D2B2     		uxtb	r2, r2
 11221 0028 1A70     		strb	r2, [r3, #0]
 11222 002a 24E0     		b	.L80
 11223              	.L81:
1446:/home/cuil/workspace/arm/lm3s811/TI_Stellaris/driverlib/usb.c ****             (USB_CSRL0_STALL | USB_CSRL0_RXRDYC);
1447:/home/cuil/workspace/arm/lm3s811/TI_Stellaris/driverlib/usb.c ****     }
1448:/home/cuil/workspace/arm/lm3s811/TI_Stellaris/driverlib/usb.c ****     else if(ulFlags == USB_EP_DEV_IN)
 11224              		.loc 1 1448 0
 11225 002c 7B68     		ldr	r3, [r7, #4]
 11226 002e B3F5005F 		cmp	r3, #8192
 11227 0032 10D1     		bne	.L83
1449:/home/cuil/workspace/arm/lm3s811/TI_Stellaris/driverlib/usb.c ****     {
1450:/home/cuil/workspace/arm/lm3s811/TI_Stellaris/driverlib/usb.c ****         //
1451:/home/cuil/workspace/arm/lm3s811/TI_Stellaris/driverlib/usb.c ****         // Perform a stall on an IN endpoint.
1452:/home/cuil/workspace/arm/lm3s811/TI_Stellaris/driverlib/usb.c ****         //
1453:/home/cuil/workspace/arm/lm3s811/TI_Stellaris/driverlib/usb.c ****         HWREGB(ulBase + USB_O_TXCSRL1 + EP_OFFSET(ulEndpoint)) |=
 11228              		.loc 1 1453 0
 11229 0034 FA68     		ldr	r2, [r7, #12]
 11230 0036 BB68     		ldr	r3, [r7, #8]
 11231 0038 D318     		adds	r3, r2, r3
 11232 003a 03F58173 		add	r3, r3, #258
 11233 003e F968     		ldr	r1, [r7, #12]
 11234 0040 BA68     		ldr	r2, [r7, #8]
 11235 0042 8A18     		adds	r2, r1, r2
 11236 0044 02F58172 		add	r2, r2, #258
 11237 0048 1278     		ldrb	r2, [r2, #0]
 11238 004a D2B2     		uxtb	r2, r2
 11239 004c 42F01002 		orr	r2, r2, #16
 11240 0050 D2B2     		uxtb	r2, r2
 11241 0052 1A70     		strb	r2, [r3, #0]
 11242 0054 0FE0     		b	.L80
 11243              	.L83:
1454:/home/cuil/workspace/arm/lm3s811/TI_Stellaris/driverlib/usb.c ****             USB_TXCSRL1_STALL;
1455:/home/cuil/workspace/arm/lm3s811/TI_Stellaris/driverlib/usb.c ****     }
1456:/home/cuil/workspace/arm/lm3s811/TI_Stellaris/driverlib/usb.c ****     else
1457:/home/cuil/workspace/arm/lm3s811/TI_Stellaris/driverlib/usb.c ****     {
1458:/home/cuil/workspace/arm/lm3s811/TI_Stellaris/driverlib/usb.c ****         //
1459:/home/cuil/workspace/arm/lm3s811/TI_Stellaris/driverlib/usb.c ****         // Perform a stall on an OUT endpoint.
1460:/home/cuil/workspace/arm/lm3s811/TI_Stellaris/driverlib/usb.c ****         //
1461:/home/cuil/workspace/arm/lm3s811/TI_Stellaris/driverlib/usb.c ****         HWREGB(ulBase + USB_O_RXCSRL1 + EP_OFFSET(ulEndpoint)) |=
 11244              		.loc 1 1461 0
 11245 0056 FA68     		ldr	r2, [r7, #12]
 11246 0058 BB68     		ldr	r3, [r7, #8]
 11247 005a D318     		adds	r3, r2, r3
 11248 005c 03F58373 		add	r3, r3, #262
 11249 0060 F968     		ldr	r1, [r7, #12]
 11250 0062 BA68     		ldr	r2, [r7, #8]
 11251 0064 8A18     		adds	r2, r1, r2
 11252 0066 02F58372 		add	r2, r2, #262
 11253 006a 1278     		ldrb	r2, [r2, #0]
 11254 006c D2B2     		uxtb	r2, r2
 11255 006e 42F02002 		orr	r2, r2, #32
 11256 0072 D2B2     		uxtb	r2, r2
 11257 0074 1A70     		strb	r2, [r3, #0]
 11258              	.L80:
1462:/home/cuil/workspace/arm/lm3s811/TI_Stellaris/driverlib/usb.c ****             USB_RXCSRL1_STALL;
1463:/home/cuil/workspace/arm/lm3s811/TI_Stellaris/driverlib/usb.c ****     }
1464:/home/cuil/workspace/arm/lm3s811/TI_Stellaris/driverlib/usb.c **** }
 11259              		.loc 1 1464 0
 11260 0076 07F11407 		add	r7, r7, #20
 11261 007a BD46     		mov	sp, r7
 11262 007c 80BC     		pop	{r7}
 11263 007e 7047     		bx	lr
 11264              		.cfi_endproc
 11265              	.LFE22:
 11267              		.section	.text.USBDevEndpointStallClear,"ax",%progbits
 11268              		.align	2
 11269              		.global	USBDevEndpointStallClear
 11270              		.thumb
 11271              		.thumb_func
 11273              	USBDevEndpointStallClear:
 11274              	.LFB23:
1465:/home/cuil/workspace/arm/lm3s811/TI_Stellaris/driverlib/usb.c **** 
1466:/home/cuil/workspace/arm/lm3s811/TI_Stellaris/driverlib/usb.c **** //*****************************************************************************
1467:/home/cuil/workspace/arm/lm3s811/TI_Stellaris/driverlib/usb.c **** //
1468:/home/cuil/workspace/arm/lm3s811/TI_Stellaris/driverlib/usb.c **** //! Clears the stall condition on the specified endpoint in device mode.
1469:/home/cuil/workspace/arm/lm3s811/TI_Stellaris/driverlib/usb.c **** //!
1470:/home/cuil/workspace/arm/lm3s811/TI_Stellaris/driverlib/usb.c **** //! \param ulBase specifies the USB module base address.
1471:/home/cuil/workspace/arm/lm3s811/TI_Stellaris/driverlib/usb.c **** //! \param ulEndpoint specifies which endpoint to remove the stall condition.
1472:/home/cuil/workspace/arm/lm3s811/TI_Stellaris/driverlib/usb.c **** //! \param ulFlags specifies whether to remove the stall condition from the IN
1473:/home/cuil/workspace/arm/lm3s811/TI_Stellaris/driverlib/usb.c **** //! or the OUT portion of this endpoint.
1474:/home/cuil/workspace/arm/lm3s811/TI_Stellaris/driverlib/usb.c **** //!
1475:/home/cuil/workspace/arm/lm3s811/TI_Stellaris/driverlib/usb.c **** //! This function causes the endpoint number passed in to exit the stall
1476:/home/cuil/workspace/arm/lm3s811/TI_Stellaris/driverlib/usb.c **** //! condition.  If the \e ulFlags parameter is \b USB_EP_DEV_IN, then the stall
1477:/home/cuil/workspace/arm/lm3s811/TI_Stellaris/driverlib/usb.c **** //! is cleared on the IN portion of this endpoint.  If the \e ulFlags parameter
1478:/home/cuil/workspace/arm/lm3s811/TI_Stellaris/driverlib/usb.c **** //! is \b USB_EP_DEV_OUT, then the stall is cleared on the OUT portion of this
1479:/home/cuil/workspace/arm/lm3s811/TI_Stellaris/driverlib/usb.c **** //! endpoint.
1480:/home/cuil/workspace/arm/lm3s811/TI_Stellaris/driverlib/usb.c **** //!
1481:/home/cuil/workspace/arm/lm3s811/TI_Stellaris/driverlib/usb.c **** //! \note This function should only be called in device mode.
1482:/home/cuil/workspace/arm/lm3s811/TI_Stellaris/driverlib/usb.c **** //!
1483:/home/cuil/workspace/arm/lm3s811/TI_Stellaris/driverlib/usb.c **** //! \return None.
1484:/home/cuil/workspace/arm/lm3s811/TI_Stellaris/driverlib/usb.c **** //
1485:/home/cuil/workspace/arm/lm3s811/TI_Stellaris/driverlib/usb.c **** //*****************************************************************************
1486:/home/cuil/workspace/arm/lm3s811/TI_Stellaris/driverlib/usb.c **** void
1487:/home/cuil/workspace/arm/lm3s811/TI_Stellaris/driverlib/usb.c **** USBDevEndpointStallClear(unsigned long ulBase, unsigned long ulEndpoint,
1488:/home/cuil/workspace/arm/lm3s811/TI_Stellaris/driverlib/usb.c ****                          unsigned long ulFlags)
1489:/home/cuil/workspace/arm/lm3s811/TI_Stellaris/driverlib/usb.c **** {
 11275              		.loc 1 1489 0
 11276              		.cfi_startproc
 11277              		@ args = 0, pretend = 0, frame = 16
 11278              		@ frame_needed = 1, uses_anonymous_args = 0
 11279              		@ link register save eliminated.
 11280 0000 80B4     		push	{r7}
 11281              	.LCFI69:
 11282              		.cfi_def_cfa_offset 4
 11283 0002 85B0     		sub	sp, sp, #20
 11284              	.LCFI70:
 11285              		.cfi_def_cfa_offset 24
 11286 0004 00AF     		add	r7, sp, #0
 11287              		.cfi_offset 7, -4
 11288              	.LCFI71:
 11289              		.cfi_def_cfa_register 7
 11290 0006 F860     		str	r0, [r7, #12]
 11291 0008 B960     		str	r1, [r7, #8]
 11292 000a 7A60     		str	r2, [r7, #4]
1490:/home/cuil/workspace/arm/lm3s811/TI_Stellaris/driverlib/usb.c ****     //
1491:/home/cuil/workspace/arm/lm3s811/TI_Stellaris/driverlib/usb.c ****     // Check the arguments.
1492:/home/cuil/workspace/arm/lm3s811/TI_Stellaris/driverlib/usb.c ****     //
1493:/home/cuil/workspace/arm/lm3s811/TI_Stellaris/driverlib/usb.c ****     ASSERT(ulBase == USB0_BASE);
1494:/home/cuil/workspace/arm/lm3s811/TI_Stellaris/driverlib/usb.c ****     ASSERT((ulEndpoint == USB_EP_0) || (ulEndpoint == USB_EP_1) ||
1495:/home/cuil/workspace/arm/lm3s811/TI_Stellaris/driverlib/usb.c ****            (ulEndpoint == USB_EP_2) || (ulEndpoint == USB_EP_3) ||
1496:/home/cuil/workspace/arm/lm3s811/TI_Stellaris/driverlib/usb.c ****            (ulEndpoint == USB_EP_4) || (ulEndpoint == USB_EP_5) ||
1497:/home/cuil/workspace/arm/lm3s811/TI_Stellaris/driverlib/usb.c ****            (ulEndpoint == USB_EP_6) || (ulEndpoint == USB_EP_7) ||
1498:/home/cuil/workspace/arm/lm3s811/TI_Stellaris/driverlib/usb.c ****            (ulEndpoint == USB_EP_8) || (ulEndpoint == USB_EP_9) ||
1499:/home/cuil/workspace/arm/lm3s811/TI_Stellaris/driverlib/usb.c ****            (ulEndpoint == USB_EP_10) || (ulEndpoint == USB_EP_11) ||
1500:/home/cuil/workspace/arm/lm3s811/TI_Stellaris/driverlib/usb.c ****            (ulEndpoint == USB_EP_12) || (ulEndpoint == USB_EP_13) ||
1501:/home/cuil/workspace/arm/lm3s811/TI_Stellaris/driverlib/usb.c ****            (ulEndpoint == USB_EP_14) || (ulEndpoint == USB_EP_15));
1502:/home/cuil/workspace/arm/lm3s811/TI_Stellaris/driverlib/usb.c ****     ASSERT((ulFlags & ~(USB_EP_DEV_IN | USB_EP_DEV_OUT)) == 0)
1503:/home/cuil/workspace/arm/lm3s811/TI_Stellaris/driverlib/usb.c **** 
1504:/home/cuil/workspace/arm/lm3s811/TI_Stellaris/driverlib/usb.c ****     //
1505:/home/cuil/workspace/arm/lm3s811/TI_Stellaris/driverlib/usb.c ****     // Determine how to clear the stall on this endpoint.
1506:/home/cuil/workspace/arm/lm3s811/TI_Stellaris/driverlib/usb.c ****     //
1507:/home/cuil/workspace/arm/lm3s811/TI_Stellaris/driverlib/usb.c ****     if(ulEndpoint == USB_EP_0)
 11293              		.loc 1 1507 0
 11294 000c BB68     		ldr	r3, [r7, #8]
 11295 000e 002B     		cmp	r3, #0
 11296 0010 0CD1     		bne	.L85
1508:/home/cuil/workspace/arm/lm3s811/TI_Stellaris/driverlib/usb.c ****     {
1509:/home/cuil/workspace/arm/lm3s811/TI_Stellaris/driverlib/usb.c ****         //
1510:/home/cuil/workspace/arm/lm3s811/TI_Stellaris/driverlib/usb.c ****         // Clear the stall on endpoint zero.
1511:/home/cuil/workspace/arm/lm3s811/TI_Stellaris/driverlib/usb.c ****         //
1512:/home/cuil/workspace/arm/lm3s811/TI_Stellaris/driverlib/usb.c ****         HWREGB(ulBase + USB_O_CSRL0) &= ~USB_CSRL0_STALLED;
 11297              		.loc 1 1512 0
 11298 0012 FB68     		ldr	r3, [r7, #12]
 11299 0014 03F58173 		add	r3, r3, #258
 11300 0018 FA68     		ldr	r2, [r7, #12]
 11301 001a 02F58172 		add	r2, r2, #258
 11302 001e 1278     		ldrb	r2, [r2, #0]
 11303 0020 D2B2     		uxtb	r2, r2
 11304 0022 22F00402 		bic	r2, r2, #4
 11305 0026 D2B2     		uxtb	r2, r2
 11306 0028 1A70     		strb	r2, [r3, #0]
 11307 002a 44E0     		b	.L84
 11308              	.L85:
1513:/home/cuil/workspace/arm/lm3s811/TI_Stellaris/driverlib/usb.c ****     }
1514:/home/cuil/workspace/arm/lm3s811/TI_Stellaris/driverlib/usb.c ****     else if(ulFlags == USB_EP_DEV_IN)
 11309              		.loc 1 1514 0
 11310 002c 7B68     		ldr	r3, [r7, #4]
 11311 002e B3F5005F 		cmp	r3, #8192
 11312 0032 20D1     		bne	.L87
1515:/home/cuil/workspace/arm/lm3s811/TI_Stellaris/driverlib/usb.c ****     {
1516:/home/cuil/workspace/arm/lm3s811/TI_Stellaris/driverlib/usb.c ****         //
1517:/home/cuil/workspace/arm/lm3s811/TI_Stellaris/driverlib/usb.c ****         // Clear the stall on an IN endpoint.
1518:/home/cuil/workspace/arm/lm3s811/TI_Stellaris/driverlib/usb.c ****         //
1519:/home/cuil/workspace/arm/lm3s811/TI_Stellaris/driverlib/usb.c ****         HWREGB(ulBase + USB_O_TXCSRL1 + EP_OFFSET(ulEndpoint)) &=
 11313              		.loc 1 1519 0
 11314 0034 FA68     		ldr	r2, [r7, #12]
 11315 0036 BB68     		ldr	r3, [r7, #8]
 11316 0038 D318     		adds	r3, r2, r3
 11317 003a 03F58173 		add	r3, r3, #258
 11318 003e F968     		ldr	r1, [r7, #12]
 11319 0040 BA68     		ldr	r2, [r7, #8]
 11320 0042 8A18     		adds	r2, r1, r2
 11321 0044 02F58172 		add	r2, r2, #258
 11322 0048 1278     		ldrb	r2, [r2, #0]
 11323 004a D2B2     		uxtb	r2, r2
 11324 004c 22F03002 		bic	r2, r2, #48
 11325 0050 D2B2     		uxtb	r2, r2
 11326 0052 1A70     		strb	r2, [r3, #0]
1520:/home/cuil/workspace/arm/lm3s811/TI_Stellaris/driverlib/usb.c ****             ~(USB_TXCSRL1_STALL | USB_TXCSRL1_STALLED);
1521:/home/cuil/workspace/arm/lm3s811/TI_Stellaris/driverlib/usb.c **** 
1522:/home/cuil/workspace/arm/lm3s811/TI_Stellaris/driverlib/usb.c ****         //
1523:/home/cuil/workspace/arm/lm3s811/TI_Stellaris/driverlib/usb.c ****         // Reset the data toggle.
1524:/home/cuil/workspace/arm/lm3s811/TI_Stellaris/driverlib/usb.c ****         //
1525:/home/cuil/workspace/arm/lm3s811/TI_Stellaris/driverlib/usb.c ****         HWREGB(ulBase + USB_O_TXCSRL1 + EP_OFFSET(ulEndpoint)) |=
 11327              		.loc 1 1525 0
 11328 0054 FA68     		ldr	r2, [r7, #12]
 11329 0056 BB68     		ldr	r3, [r7, #8]
 11330 0058 D318     		adds	r3, r2, r3
 11331 005a 03F58173 		add	r3, r3, #258
 11332 005e F968     		ldr	r1, [r7, #12]
 11333 0060 BA68     		ldr	r2, [r7, #8]
 11334 0062 8A18     		adds	r2, r1, r2
 11335 0064 02F58172 		add	r2, r2, #258
 11336 0068 1278     		ldrb	r2, [r2, #0]
 11337 006a D2B2     		uxtb	r2, r2
 11338 006c 42F04002 		orr	r2, r2, #64
 11339 0070 D2B2     		uxtb	r2, r2
 11340 0072 1A70     		strb	r2, [r3, #0]
 11341 0074 1FE0     		b	.L84
 11342              	.L87:
1526:/home/cuil/workspace/arm/lm3s811/TI_Stellaris/driverlib/usb.c ****             USB_TXCSRL1_CLRDT;
1527:/home/cuil/workspace/arm/lm3s811/TI_Stellaris/driverlib/usb.c ****     }
1528:/home/cuil/workspace/arm/lm3s811/TI_Stellaris/driverlib/usb.c ****     else
1529:/home/cuil/workspace/arm/lm3s811/TI_Stellaris/driverlib/usb.c ****     {
1530:/home/cuil/workspace/arm/lm3s811/TI_Stellaris/driverlib/usb.c ****         //
1531:/home/cuil/workspace/arm/lm3s811/TI_Stellaris/driverlib/usb.c ****         // Clear the stall on an OUT endpoint.
1532:/home/cuil/workspace/arm/lm3s811/TI_Stellaris/driverlib/usb.c ****         //
1533:/home/cuil/workspace/arm/lm3s811/TI_Stellaris/driverlib/usb.c ****         HWREGB(ulBase + USB_O_RXCSRL1 + EP_OFFSET(ulEndpoint)) &=
 11343              		.loc 1 1533 0
 11344 0076 FA68     		ldr	r2, [r7, #12]
 11345 0078 BB68     		ldr	r3, [r7, #8]
 11346 007a D318     		adds	r3, r2, r3
 11347 007c 03F58373 		add	r3, r3, #262
 11348 0080 F968     		ldr	r1, [r7, #12]
 11349 0082 BA68     		ldr	r2, [r7, #8]
 11350 0084 8A18     		adds	r2, r1, r2
 11351 0086 02F58372 		add	r2, r2, #262
 11352 008a 1278     		ldrb	r2, [r2, #0]
 11353 008c D2B2     		uxtb	r2, r2
 11354 008e 22F06002 		bic	r2, r2, #96
 11355 0092 D2B2     		uxtb	r2, r2
 11356 0094 1A70     		strb	r2, [r3, #0]
1534:/home/cuil/workspace/arm/lm3s811/TI_Stellaris/driverlib/usb.c ****             ~(USB_RXCSRL1_STALL | USB_RXCSRL1_STALLED);
1535:/home/cuil/workspace/arm/lm3s811/TI_Stellaris/driverlib/usb.c **** 
1536:/home/cuil/workspace/arm/lm3s811/TI_Stellaris/driverlib/usb.c ****         //
1537:/home/cuil/workspace/arm/lm3s811/TI_Stellaris/driverlib/usb.c ****         // Reset the data toggle.
1538:/home/cuil/workspace/arm/lm3s811/TI_Stellaris/driverlib/usb.c ****         //
1539:/home/cuil/workspace/arm/lm3s811/TI_Stellaris/driverlib/usb.c ****         HWREGB(ulBase + USB_O_RXCSRL1 + EP_OFFSET(ulEndpoint)) |=
 11357              		.loc 1 1539 0
 11358 0096 FA68     		ldr	r2, [r7, #12]
 11359 0098 BB68     		ldr	r3, [r7, #8]
 11360 009a D318     		adds	r3, r2, r3
 11361 009c 03F58373 		add	r3, r3, #262
 11362 00a0 F968     		ldr	r1, [r7, #12]
 11363 00a2 BA68     		ldr	r2, [r7, #8]
 11364 00a4 8A18     		adds	r2, r1, r2
 11365 00a6 02F58372 		add	r2, r2, #262
 11366 00aa 1278     		ldrb	r2, [r2, #0]
 11367 00ac D2B2     		uxtb	r2, r2
 11368 00ae 62F07F02 		orn	r2, r2, #127
 11369 00b2 D2B2     		uxtb	r2, r2
 11370 00b4 1A70     		strb	r2, [r3, #0]
 11371              	.L84:
1540:/home/cuil/workspace/arm/lm3s811/TI_Stellaris/driverlib/usb.c ****             USB_RXCSRL1_CLRDT;
1541:/home/cuil/workspace/arm/lm3s811/TI_Stellaris/driverlib/usb.c ****     }
1542:/home/cuil/workspace/arm/lm3s811/TI_Stellaris/driverlib/usb.c **** }
 11372              		.loc 1 1542 0
 11373 00b6 07F11407 		add	r7, r7, #20
 11374 00ba BD46     		mov	sp, r7
 11375 00bc 80BC     		pop	{r7}
 11376 00be 7047     		bx	lr
 11377              		.cfi_endproc
 11378              	.LFE23:
 11380              		.section	.text.USBDevConnect,"ax",%progbits
 11381              		.align	2
 11382              		.global	USBDevConnect
 11383              		.thumb
 11384              		.thumb_func
 11386              	USBDevConnect:
 11387              	.LFB24:
1543:/home/cuil/workspace/arm/lm3s811/TI_Stellaris/driverlib/usb.c **** 
1544:/home/cuil/workspace/arm/lm3s811/TI_Stellaris/driverlib/usb.c **** //*****************************************************************************
1545:/home/cuil/workspace/arm/lm3s811/TI_Stellaris/driverlib/usb.c **** //
1546:/home/cuil/workspace/arm/lm3s811/TI_Stellaris/driverlib/usb.c **** //! Connects the USB controller to the bus in device mode.
1547:/home/cuil/workspace/arm/lm3s811/TI_Stellaris/driverlib/usb.c **** //!
1548:/home/cuil/workspace/arm/lm3s811/TI_Stellaris/driverlib/usb.c **** //! \param ulBase specifies the USB module base address.
1549:/home/cuil/workspace/arm/lm3s811/TI_Stellaris/driverlib/usb.c **** //!
1550:/home/cuil/workspace/arm/lm3s811/TI_Stellaris/driverlib/usb.c **** //! This function causes the soft connect feature of the USB controller to
1551:/home/cuil/workspace/arm/lm3s811/TI_Stellaris/driverlib/usb.c **** //! be enabled.  Call USBDevDisconnect() to remove the USB device from the bus.
1552:/home/cuil/workspace/arm/lm3s811/TI_Stellaris/driverlib/usb.c **** //!
1553:/home/cuil/workspace/arm/lm3s811/TI_Stellaris/driverlib/usb.c **** //! \note This function should only be called in device mode.
1554:/home/cuil/workspace/arm/lm3s811/TI_Stellaris/driverlib/usb.c **** //!
1555:/home/cuil/workspace/arm/lm3s811/TI_Stellaris/driverlib/usb.c **** //! \return None.
1556:/home/cuil/workspace/arm/lm3s811/TI_Stellaris/driverlib/usb.c **** //
1557:/home/cuil/workspace/arm/lm3s811/TI_Stellaris/driverlib/usb.c **** //*****************************************************************************
1558:/home/cuil/workspace/arm/lm3s811/TI_Stellaris/driverlib/usb.c **** void
1559:/home/cuil/workspace/arm/lm3s811/TI_Stellaris/driverlib/usb.c **** USBDevConnect(unsigned long ulBase)
1560:/home/cuil/workspace/arm/lm3s811/TI_Stellaris/driverlib/usb.c **** {
 11388              		.loc 1 1560 0
 11389              		.cfi_startproc
 11390              		@ args = 0, pretend = 0, frame = 8
 11391              		@ frame_needed = 1, uses_anonymous_args = 0
 11392              		@ link register save eliminated.
 11393 0000 80B4     		push	{r7}
 11394              	.LCFI72:
 11395              		.cfi_def_cfa_offset 4
 11396 0002 83B0     		sub	sp, sp, #12
 11397              	.LCFI73:
 11398              		.cfi_def_cfa_offset 16
 11399 0004 00AF     		add	r7, sp, #0
 11400              		.cfi_offset 7, -4
 11401              	.LCFI74:
 11402              		.cfi_def_cfa_register 7
 11403 0006 7860     		str	r0, [r7, #4]
1561:/home/cuil/workspace/arm/lm3s811/TI_Stellaris/driverlib/usb.c ****     //
1562:/home/cuil/workspace/arm/lm3s811/TI_Stellaris/driverlib/usb.c ****     // Check the arguments.
1563:/home/cuil/workspace/arm/lm3s811/TI_Stellaris/driverlib/usb.c ****     //
1564:/home/cuil/workspace/arm/lm3s811/TI_Stellaris/driverlib/usb.c ****     ASSERT(ulBase == USB0_BASE);
1565:/home/cuil/workspace/arm/lm3s811/TI_Stellaris/driverlib/usb.c **** 
1566:/home/cuil/workspace/arm/lm3s811/TI_Stellaris/driverlib/usb.c ****     //
1567:/home/cuil/workspace/arm/lm3s811/TI_Stellaris/driverlib/usb.c ****     // Enable connection to the USB bus.
1568:/home/cuil/workspace/arm/lm3s811/TI_Stellaris/driverlib/usb.c ****     //
1569:/home/cuil/workspace/arm/lm3s811/TI_Stellaris/driverlib/usb.c ****     HWREGB(ulBase + USB_O_POWER) |= USB_POWER_SOFTCONN;
 11404              		.loc 1 1569 0
 11405 0008 7B68     		ldr	r3, [r7, #4]
 11406 000a 03F10103 		add	r3, r3, #1
 11407 000e 7A68     		ldr	r2, [r7, #4]
 11408 0010 02F10102 		add	r2, r2, #1
 11409 0014 1278     		ldrb	r2, [r2, #0]
 11410 0016 D2B2     		uxtb	r2, r2
 11411 0018 42F04002 		orr	r2, r2, #64
 11412 001c D2B2     		uxtb	r2, r2
 11413 001e 1A70     		strb	r2, [r3, #0]
1570:/home/cuil/workspace/arm/lm3s811/TI_Stellaris/driverlib/usb.c **** }
 11414              		.loc 1 1570 0
 11415 0020 07F10C07 		add	r7, r7, #12
 11416 0024 BD46     		mov	sp, r7
 11417 0026 80BC     		pop	{r7}
 11418 0028 7047     		bx	lr
 11419              		.cfi_endproc
 11420              	.LFE24:
 11422 002a 00BF     		.section	.text.USBDevDisconnect,"ax",%progbits
 11423              		.align	2
 11424              		.global	USBDevDisconnect
 11425              		.thumb
 11426              		.thumb_func
 11428              	USBDevDisconnect:
 11429              	.LFB25:
1571:/home/cuil/workspace/arm/lm3s811/TI_Stellaris/driverlib/usb.c **** 
1572:/home/cuil/workspace/arm/lm3s811/TI_Stellaris/driverlib/usb.c **** //*****************************************************************************
1573:/home/cuil/workspace/arm/lm3s811/TI_Stellaris/driverlib/usb.c **** //
1574:/home/cuil/workspace/arm/lm3s811/TI_Stellaris/driverlib/usb.c **** //! Removes the USB controller from the bus in device mode.
1575:/home/cuil/workspace/arm/lm3s811/TI_Stellaris/driverlib/usb.c **** //!
1576:/home/cuil/workspace/arm/lm3s811/TI_Stellaris/driverlib/usb.c **** //! \param ulBase specifies the USB module base address.
1577:/home/cuil/workspace/arm/lm3s811/TI_Stellaris/driverlib/usb.c **** //!
1578:/home/cuil/workspace/arm/lm3s811/TI_Stellaris/driverlib/usb.c **** //! This function causes the soft connect feature of the USB controller to
1579:/home/cuil/workspace/arm/lm3s811/TI_Stellaris/driverlib/usb.c **** //! remove the device from the USB bus.  A call to USBDevConnect() is needed to
1580:/home/cuil/workspace/arm/lm3s811/TI_Stellaris/driverlib/usb.c **** //! reconnect to the bus.
1581:/home/cuil/workspace/arm/lm3s811/TI_Stellaris/driverlib/usb.c **** //!
1582:/home/cuil/workspace/arm/lm3s811/TI_Stellaris/driverlib/usb.c **** //! \note This function should only be called in device mode.
1583:/home/cuil/workspace/arm/lm3s811/TI_Stellaris/driverlib/usb.c **** //!
1584:/home/cuil/workspace/arm/lm3s811/TI_Stellaris/driverlib/usb.c **** //! \return None.
1585:/home/cuil/workspace/arm/lm3s811/TI_Stellaris/driverlib/usb.c **** //
1586:/home/cuil/workspace/arm/lm3s811/TI_Stellaris/driverlib/usb.c **** //*****************************************************************************
1587:/home/cuil/workspace/arm/lm3s811/TI_Stellaris/driverlib/usb.c **** void
1588:/home/cuil/workspace/arm/lm3s811/TI_Stellaris/driverlib/usb.c **** USBDevDisconnect(unsigned long ulBase)
1589:/home/cuil/workspace/arm/lm3s811/TI_Stellaris/driverlib/usb.c **** {
 11430              		.loc 1 1589 0
 11431              		.cfi_startproc
 11432              		@ args = 0, pretend = 0, frame = 8
 11433              		@ frame_needed = 1, uses_anonymous_args = 0
 11434              		@ link register save eliminated.
 11435 0000 80B4     		push	{r7}
 11436              	.LCFI75:
 11437              		.cfi_def_cfa_offset 4
 11438 0002 83B0     		sub	sp, sp, #12
 11439              	.LCFI76:
 11440              		.cfi_def_cfa_offset 16
 11441 0004 00AF     		add	r7, sp, #0
 11442              		.cfi_offset 7, -4
 11443              	.LCFI77:
 11444              		.cfi_def_cfa_register 7
 11445 0006 7860     		str	r0, [r7, #4]
1590:/home/cuil/workspace/arm/lm3s811/TI_Stellaris/driverlib/usb.c ****     //
1591:/home/cuil/workspace/arm/lm3s811/TI_Stellaris/driverlib/usb.c ****     // Check the arguments.
1592:/home/cuil/workspace/arm/lm3s811/TI_Stellaris/driverlib/usb.c ****     //
1593:/home/cuil/workspace/arm/lm3s811/TI_Stellaris/driverlib/usb.c ****     ASSERT(ulBase == USB0_BASE);
1594:/home/cuil/workspace/arm/lm3s811/TI_Stellaris/driverlib/usb.c **** 
1595:/home/cuil/workspace/arm/lm3s811/TI_Stellaris/driverlib/usb.c ****     //
1596:/home/cuil/workspace/arm/lm3s811/TI_Stellaris/driverlib/usb.c ****     // Disable connection to the USB bus.
1597:/home/cuil/workspace/arm/lm3s811/TI_Stellaris/driverlib/usb.c ****     //
1598:/home/cuil/workspace/arm/lm3s811/TI_Stellaris/driverlib/usb.c ****     HWREGB(ulBase + USB_O_POWER) &= (~USB_POWER_SOFTCONN);
 11446              		.loc 1 1598 0
 11447 0008 7B68     		ldr	r3, [r7, #4]
 11448 000a 03F10103 		add	r3, r3, #1
 11449 000e 7A68     		ldr	r2, [r7, #4]
 11450 0010 02F10102 		add	r2, r2, #1
 11451 0014 1278     		ldrb	r2, [r2, #0]
 11452 0016 D2B2     		uxtb	r2, r2
 11453 0018 22F04002 		bic	r2, r2, #64
 11454 001c D2B2     		uxtb	r2, r2
 11455 001e 1A70     		strb	r2, [r3, #0]
1599:/home/cuil/workspace/arm/lm3s811/TI_Stellaris/driverlib/usb.c **** }
 11456              		.loc 1 1599 0
 11457 0020 07F10C07 		add	r7, r7, #12
 11458 0024 BD46     		mov	sp, r7
 11459 0026 80BC     		pop	{r7}
 11460 0028 7047     		bx	lr
 11461              		.cfi_endproc
 11462              	.LFE25:
 11464 002a 00BF     		.section	.text.USBDevAddrSet,"ax",%progbits
 11465              		.align	2
 11466              		.global	USBDevAddrSet
 11467              		.thumb
 11468              		.thumb_func
 11470              	USBDevAddrSet:
 11471              	.LFB26:
1600:/home/cuil/workspace/arm/lm3s811/TI_Stellaris/driverlib/usb.c **** 
1601:/home/cuil/workspace/arm/lm3s811/TI_Stellaris/driverlib/usb.c **** //*****************************************************************************
1602:/home/cuil/workspace/arm/lm3s811/TI_Stellaris/driverlib/usb.c **** //
1603:/home/cuil/workspace/arm/lm3s811/TI_Stellaris/driverlib/usb.c **** //! Sets the address in device mode.
1604:/home/cuil/workspace/arm/lm3s811/TI_Stellaris/driverlib/usb.c **** //!
1605:/home/cuil/workspace/arm/lm3s811/TI_Stellaris/driverlib/usb.c **** //! \param ulBase specifies the USB module base address.
1606:/home/cuil/workspace/arm/lm3s811/TI_Stellaris/driverlib/usb.c **** //! \param ulAddress is the address to use for a device.
1607:/home/cuil/workspace/arm/lm3s811/TI_Stellaris/driverlib/usb.c **** //!
1608:/home/cuil/workspace/arm/lm3s811/TI_Stellaris/driverlib/usb.c **** //! This function configures the device address on the USB bus.  This address 
1609:/home/cuil/workspace/arm/lm3s811/TI_Stellaris/driverlib/usb.c **** //! was likely received via a SET ADDRESS command from the host controller.
1610:/home/cuil/workspace/arm/lm3s811/TI_Stellaris/driverlib/usb.c **** //!
1611:/home/cuil/workspace/arm/lm3s811/TI_Stellaris/driverlib/usb.c **** //! \note This function should only be called in device mode.
1612:/home/cuil/workspace/arm/lm3s811/TI_Stellaris/driverlib/usb.c **** //!
1613:/home/cuil/workspace/arm/lm3s811/TI_Stellaris/driverlib/usb.c **** //! \return None.
1614:/home/cuil/workspace/arm/lm3s811/TI_Stellaris/driverlib/usb.c **** //
1615:/home/cuil/workspace/arm/lm3s811/TI_Stellaris/driverlib/usb.c **** //*****************************************************************************
1616:/home/cuil/workspace/arm/lm3s811/TI_Stellaris/driverlib/usb.c **** void
1617:/home/cuil/workspace/arm/lm3s811/TI_Stellaris/driverlib/usb.c **** USBDevAddrSet(unsigned long ulBase, unsigned long ulAddress)
1618:/home/cuil/workspace/arm/lm3s811/TI_Stellaris/driverlib/usb.c **** {
 11472              		.loc 1 1618 0
 11473              		.cfi_startproc
 11474              		@ args = 0, pretend = 0, frame = 8
 11475              		@ frame_needed = 1, uses_anonymous_args = 0
 11476              		@ link register save eliminated.
 11477 0000 80B4     		push	{r7}
 11478              	.LCFI78:
 11479              		.cfi_def_cfa_offset 4
 11480 0002 83B0     		sub	sp, sp, #12
 11481              	.LCFI79:
 11482              		.cfi_def_cfa_offset 16
 11483 0004 00AF     		add	r7, sp, #0
 11484              		.cfi_offset 7, -4
 11485              	.LCFI80:
 11486              		.cfi_def_cfa_register 7
 11487 0006 7860     		str	r0, [r7, #4]
 11488 0008 3960     		str	r1, [r7, #0]
1619:/home/cuil/workspace/arm/lm3s811/TI_Stellaris/driverlib/usb.c ****     //
1620:/home/cuil/workspace/arm/lm3s811/TI_Stellaris/driverlib/usb.c ****     // Check the arguments.
1621:/home/cuil/workspace/arm/lm3s811/TI_Stellaris/driverlib/usb.c ****     //
1622:/home/cuil/workspace/arm/lm3s811/TI_Stellaris/driverlib/usb.c ****     ASSERT(ulBase == USB0_BASE);
1623:/home/cuil/workspace/arm/lm3s811/TI_Stellaris/driverlib/usb.c **** 
1624:/home/cuil/workspace/arm/lm3s811/TI_Stellaris/driverlib/usb.c ****     //
1625:/home/cuil/workspace/arm/lm3s811/TI_Stellaris/driverlib/usb.c ****     // Set the function address in the correct location.
1626:/home/cuil/workspace/arm/lm3s811/TI_Stellaris/driverlib/usb.c ****     //
1627:/home/cuil/workspace/arm/lm3s811/TI_Stellaris/driverlib/usb.c ****     HWREGB(ulBase + USB_O_FADDR) = (unsigned char)ulAddress;
 11489              		.loc 1 1627 0
 11490 000a 7B68     		ldr	r3, [r7, #4]
 11491 000c 3A68     		ldr	r2, [r7, #0]
 11492 000e D2B2     		uxtb	r2, r2
 11493 0010 1A70     		strb	r2, [r3, #0]
1628:/home/cuil/workspace/arm/lm3s811/TI_Stellaris/driverlib/usb.c **** }
 11494              		.loc 1 1628 0
 11495 0012 07F10C07 		add	r7, r7, #12
 11496 0016 BD46     		mov	sp, r7
 11497 0018 80BC     		pop	{r7}
 11498 001a 7047     		bx	lr
 11499              		.cfi_endproc
 11500              	.LFE26:
 11502              		.section	.text.USBDevAddrGet,"ax",%progbits
 11503              		.align	2
 11504              		.global	USBDevAddrGet
 11505              		.thumb
 11506              		.thumb_func
 11508              	USBDevAddrGet:
 11509              	.LFB27:
1629:/home/cuil/workspace/arm/lm3s811/TI_Stellaris/driverlib/usb.c **** 
1630:/home/cuil/workspace/arm/lm3s811/TI_Stellaris/driverlib/usb.c **** //*****************************************************************************
1631:/home/cuil/workspace/arm/lm3s811/TI_Stellaris/driverlib/usb.c **** //
1632:/home/cuil/workspace/arm/lm3s811/TI_Stellaris/driverlib/usb.c **** //! Returns the current device address in device mode.
1633:/home/cuil/workspace/arm/lm3s811/TI_Stellaris/driverlib/usb.c **** //!
1634:/home/cuil/workspace/arm/lm3s811/TI_Stellaris/driverlib/usb.c **** //! \param ulBase specifies the USB module base address.
1635:/home/cuil/workspace/arm/lm3s811/TI_Stellaris/driverlib/usb.c **** //!
1636:/home/cuil/workspace/arm/lm3s811/TI_Stellaris/driverlib/usb.c **** //! This function returns the current device address.  This address was set
1637:/home/cuil/workspace/arm/lm3s811/TI_Stellaris/driverlib/usb.c **** //! by a call to USBDevAddrSet().
1638:/home/cuil/workspace/arm/lm3s811/TI_Stellaris/driverlib/usb.c **** //!
1639:/home/cuil/workspace/arm/lm3s811/TI_Stellaris/driverlib/usb.c **** //! \note This function should only be called in device mode.
1640:/home/cuil/workspace/arm/lm3s811/TI_Stellaris/driverlib/usb.c **** //!
1641:/home/cuil/workspace/arm/lm3s811/TI_Stellaris/driverlib/usb.c **** //! \return The current device address.
1642:/home/cuil/workspace/arm/lm3s811/TI_Stellaris/driverlib/usb.c **** //
1643:/home/cuil/workspace/arm/lm3s811/TI_Stellaris/driverlib/usb.c **** //*****************************************************************************
1644:/home/cuil/workspace/arm/lm3s811/TI_Stellaris/driverlib/usb.c **** unsigned long
1645:/home/cuil/workspace/arm/lm3s811/TI_Stellaris/driverlib/usb.c **** USBDevAddrGet(unsigned long ulBase)
1646:/home/cuil/workspace/arm/lm3s811/TI_Stellaris/driverlib/usb.c **** {
 11510              		.loc 1 1646 0
 11511              		.cfi_startproc
 11512              		@ args = 0, pretend = 0, frame = 8
 11513              		@ frame_needed = 1, uses_anonymous_args = 0
 11514              		@ link register save eliminated.
 11515 0000 80B4     		push	{r7}
 11516              	.LCFI81:
 11517              		.cfi_def_cfa_offset 4
 11518 0002 83B0     		sub	sp, sp, #12
 11519              	.LCFI82:
