   1              		.syntax unified
   2              		.cpu cortex-m3
   3              		.fpu softvfp
   4              		.eabi_attribute 20, 1
   5              		.eabi_attribute 21, 1
   6              		.eabi_attribute 23, 3
   7              		.eabi_attribute 24, 1
   8              		.eabi_attribute 25, 1
   9              		.eabi_attribute 26, 1
  10              		.eabi_attribute 30, 6
  11              		.eabi_attribute 18, 4
  12              		.thumb
  13              		.file	"ustdlib.c"
  23              	.Ltext0:
  24              		.file 1 "/home/cuil/workspace/arm/lm3s811/TI_Stellaris/utils/ustdlib.c"
 1669              		.align	2
 1670              	.LC0:
 1671 0000 30313233 		.ascii	"0123456789abcdef\000"
 1671      34353637 
 1671      38396162 
 1671      63646566 
 1671      00
 1672 0011 000000   		.align	2
 1675              	g_pcHex:
 1676 0014 00000000 		.word	.LC0
 1677              		.section	.text.ustrncpy,"ax",%progbits
 1678              		.align	2
 1679              		.global	ustrncpy
 1680              		.thumb
 1681              		.thumb_func
 1683              	ustrncpy:
 1684              	.LFB0:
   1:/home/cuil/workspace/arm/lm3s811/TI_Stellaris/utils/ustdlib.c **** //*****************************************************************************
   2:/home/cuil/workspace/arm/lm3s811/TI_Stellaris/utils/ustdlib.c **** //
   3:/home/cuil/workspace/arm/lm3s811/TI_Stellaris/utils/ustdlib.c **** // ustdlib.c - Simple standard library functions.
   4:/home/cuil/workspace/arm/lm3s811/TI_Stellaris/utils/ustdlib.c **** //
   5:/home/cuil/workspace/arm/lm3s811/TI_Stellaris/utils/ustdlib.c **** // Copyright (c) 2007-2011 Texas Instruments Incorporated.  All rights reserved.
   6:/home/cuil/workspace/arm/lm3s811/TI_Stellaris/utils/ustdlib.c **** // Software License Agreement
   7:/home/cuil/workspace/arm/lm3s811/TI_Stellaris/utils/ustdlib.c **** // 
   8:/home/cuil/workspace/arm/lm3s811/TI_Stellaris/utils/ustdlib.c **** // Texas Instruments (TI) is supplying this software for use solely and
   9:/home/cuil/workspace/arm/lm3s811/TI_Stellaris/utils/ustdlib.c **** // exclusively on TI's microcontroller products. The software is owned by
  10:/home/cuil/workspace/arm/lm3s811/TI_Stellaris/utils/ustdlib.c **** // TI and/or its suppliers, and is protected under applicable copyright
  11:/home/cuil/workspace/arm/lm3s811/TI_Stellaris/utils/ustdlib.c **** // laws. You may not combine this software with "viral" open-source
  12:/home/cuil/workspace/arm/lm3s811/TI_Stellaris/utils/ustdlib.c **** // software in order to form a larger program.
  13:/home/cuil/workspace/arm/lm3s811/TI_Stellaris/utils/ustdlib.c **** // 
  14:/home/cuil/workspace/arm/lm3s811/TI_Stellaris/utils/ustdlib.c **** // THIS SOFTWARE IS PROVIDED "AS IS" AND WITH ALL FAULTS.
  15:/home/cuil/workspace/arm/lm3s811/TI_Stellaris/utils/ustdlib.c **** // NO WARRANTIES, WHETHER EXPRESS, IMPLIED OR STATUTORY, INCLUDING, BUT
  16:/home/cuil/workspace/arm/lm3s811/TI_Stellaris/utils/ustdlib.c **** // NOT LIMITED TO, IMPLIED WARRANTIES OF MERCHANTABILITY AND FITNESS FOR
  17:/home/cuil/workspace/arm/lm3s811/TI_Stellaris/utils/ustdlib.c **** // A PARTICULAR PURPOSE APPLY TO THIS SOFTWARE. TI SHALL NOT, UNDER ANY
  18:/home/cuil/workspace/arm/lm3s811/TI_Stellaris/utils/ustdlib.c **** // CIRCUMSTANCES, BE LIABLE FOR SPECIAL, INCIDENTAL, OR CONSEQUENTIAL
  19:/home/cuil/workspace/arm/lm3s811/TI_Stellaris/utils/ustdlib.c **** // DAMAGES, FOR ANY REASON WHATSOEVER.
  20:/home/cuil/workspace/arm/lm3s811/TI_Stellaris/utils/ustdlib.c **** // 
  21:/home/cuil/workspace/arm/lm3s811/TI_Stellaris/utils/ustdlib.c **** // This is part of revision 8264 of the Stellaris Firmware Development Package.
  22:/home/cuil/workspace/arm/lm3s811/TI_Stellaris/utils/ustdlib.c **** //
  23:/home/cuil/workspace/arm/lm3s811/TI_Stellaris/utils/ustdlib.c **** //*****************************************************************************
  24:/home/cuil/workspace/arm/lm3s811/TI_Stellaris/utils/ustdlib.c **** 
  25:/home/cuil/workspace/arm/lm3s811/TI_Stellaris/utils/ustdlib.c **** #include <string.h>
  26:/home/cuil/workspace/arm/lm3s811/TI_Stellaris/utils/ustdlib.c **** #include "driverlib/debug.h"
  27:/home/cuil/workspace/arm/lm3s811/TI_Stellaris/utils/ustdlib.c **** #include "utils/ustdlib.h"
  28:/home/cuil/workspace/arm/lm3s811/TI_Stellaris/utils/ustdlib.c **** 
  29:/home/cuil/workspace/arm/lm3s811/TI_Stellaris/utils/ustdlib.c **** //*****************************************************************************
  30:/home/cuil/workspace/arm/lm3s811/TI_Stellaris/utils/ustdlib.c **** //
  31:/home/cuil/workspace/arm/lm3s811/TI_Stellaris/utils/ustdlib.c **** //! \addtogroup ustdlib_api
  32:/home/cuil/workspace/arm/lm3s811/TI_Stellaris/utils/ustdlib.c **** //! @{
  33:/home/cuil/workspace/arm/lm3s811/TI_Stellaris/utils/ustdlib.c **** //
  34:/home/cuil/workspace/arm/lm3s811/TI_Stellaris/utils/ustdlib.c **** //*****************************************************************************
  35:/home/cuil/workspace/arm/lm3s811/TI_Stellaris/utils/ustdlib.c **** 
  36:/home/cuil/workspace/arm/lm3s811/TI_Stellaris/utils/ustdlib.c **** //*****************************************************************************
  37:/home/cuil/workspace/arm/lm3s811/TI_Stellaris/utils/ustdlib.c **** //
  38:/home/cuil/workspace/arm/lm3s811/TI_Stellaris/utils/ustdlib.c **** // A mapping from an integer between 0 and 15 to its ASCII character
  39:/home/cuil/workspace/arm/lm3s811/TI_Stellaris/utils/ustdlib.c **** // equivalent.
  40:/home/cuil/workspace/arm/lm3s811/TI_Stellaris/utils/ustdlib.c **** //
  41:/home/cuil/workspace/arm/lm3s811/TI_Stellaris/utils/ustdlib.c **** //*****************************************************************************
  42:/home/cuil/workspace/arm/lm3s811/TI_Stellaris/utils/ustdlib.c **** static const char * const g_pcHex = "0123456789abcdef";
  43:/home/cuil/workspace/arm/lm3s811/TI_Stellaris/utils/ustdlib.c **** 
  44:/home/cuil/workspace/arm/lm3s811/TI_Stellaris/utils/ustdlib.c **** //*****************************************************************************
  45:/home/cuil/workspace/arm/lm3s811/TI_Stellaris/utils/ustdlib.c **** //
  46:/home/cuil/workspace/arm/lm3s811/TI_Stellaris/utils/ustdlib.c **** //! Copies a certain number of characters from one string to another.
  47:/home/cuil/workspace/arm/lm3s811/TI_Stellaris/utils/ustdlib.c **** //!
  48:/home/cuil/workspace/arm/lm3s811/TI_Stellaris/utils/ustdlib.c **** //! \param pcDst is a pointer to the destination buffer into which characters
  49:/home/cuil/workspace/arm/lm3s811/TI_Stellaris/utils/ustdlib.c **** //!   are to be copied.
  50:/home/cuil/workspace/arm/lm3s811/TI_Stellaris/utils/ustdlib.c **** //! \param pcSrc is a pointer to the string from which characters are to be
  51:/home/cuil/workspace/arm/lm3s811/TI_Stellaris/utils/ustdlib.c **** //!   copied.
  52:/home/cuil/workspace/arm/lm3s811/TI_Stellaris/utils/ustdlib.c **** //! \param iNum is the number of characters to copy to the destination buffer.
  53:/home/cuil/workspace/arm/lm3s811/TI_Stellaris/utils/ustdlib.c **** //!
  54:/home/cuil/workspace/arm/lm3s811/TI_Stellaris/utils/ustdlib.c **** //! This function copies at most \e iNum characters from the string pointed to
  55:/home/cuil/workspace/arm/lm3s811/TI_Stellaris/utils/ustdlib.c **** //! by \e pcSrc into the buffer pointed to by \e pcDst.  If the end of \e
  56:/home/cuil/workspace/arm/lm3s811/TI_Stellaris/utils/ustdlib.c **** //! pcSrc is found before \e iNum characters have been copied, remaining
  57:/home/cuil/workspace/arm/lm3s811/TI_Stellaris/utils/ustdlib.c **** //! characters in \e pcDst will be padded with zeroes until \e iNum characters
  58:/home/cuil/workspace/arm/lm3s811/TI_Stellaris/utils/ustdlib.c **** //! have been written.  Note that the destination string will only be NULL
  59:/home/cuil/workspace/arm/lm3s811/TI_Stellaris/utils/ustdlib.c **** //! terminated if the number of characters to be copied is greater than the
  60:/home/cuil/workspace/arm/lm3s811/TI_Stellaris/utils/ustdlib.c **** //! length of \e pcSrc.
  61:/home/cuil/workspace/arm/lm3s811/TI_Stellaris/utils/ustdlib.c **** //!
  62:/home/cuil/workspace/arm/lm3s811/TI_Stellaris/utils/ustdlib.c **** //! \return Returns \e pcDst.
  63:/home/cuil/workspace/arm/lm3s811/TI_Stellaris/utils/ustdlib.c **** //
  64:/home/cuil/workspace/arm/lm3s811/TI_Stellaris/utils/ustdlib.c **** //*****************************************************************************
  65:/home/cuil/workspace/arm/lm3s811/TI_Stellaris/utils/ustdlib.c **** char *
  66:/home/cuil/workspace/arm/lm3s811/TI_Stellaris/utils/ustdlib.c **** ustrncpy (char *pcDst, const char *pcSrc, int iNum)
  67:/home/cuil/workspace/arm/lm3s811/TI_Stellaris/utils/ustdlib.c **** {
 1685              		.loc 1 67 0
 1686              		.cfi_startproc
 1687              		@ args = 0, pretend = 0, frame = 24
 1688              		@ frame_needed = 1, uses_anonymous_args = 0
 1689              		@ link register save eliminated.
 1690 0000 80B4     		push	{r7}
 1691              	.LCFI0:
 1692              		.cfi_def_cfa_offset 4
 1693 0002 87B0     		sub	sp, sp, #28
 1694              	.LCFI1:
 1695              		.cfi_def_cfa_offset 32
 1696 0004 00AF     		add	r7, sp, #0
 1697              		.cfi_offset 7, -4
 1698              	.LCFI2:
 1699              		.cfi_def_cfa_register 7
 1700 0006 F860     		str	r0, [r7, #12]
 1701 0008 B960     		str	r1, [r7, #8]
 1702 000a 7A60     		str	r2, [r7, #4]
  68:/home/cuil/workspace/arm/lm3s811/TI_Stellaris/utils/ustdlib.c ****     int iCount;
  69:/home/cuil/workspace/arm/lm3s811/TI_Stellaris/utils/ustdlib.c **** 
  70:/home/cuil/workspace/arm/lm3s811/TI_Stellaris/utils/ustdlib.c ****     ASSERT(pcSrc);
  71:/home/cuil/workspace/arm/lm3s811/TI_Stellaris/utils/ustdlib.c ****     ASSERT(pcDst);
  72:/home/cuil/workspace/arm/lm3s811/TI_Stellaris/utils/ustdlib.c **** 
  73:/home/cuil/workspace/arm/lm3s811/TI_Stellaris/utils/ustdlib.c ****     //
  74:/home/cuil/workspace/arm/lm3s811/TI_Stellaris/utils/ustdlib.c ****     // Start at the beginning of the source string.
  75:/home/cuil/workspace/arm/lm3s811/TI_Stellaris/utils/ustdlib.c ****     //
  76:/home/cuil/workspace/arm/lm3s811/TI_Stellaris/utils/ustdlib.c ****     iCount = 0;
 1703              		.loc 1 76 0
 1704 000c 4FF00003 		mov	r3, #0
 1705 0010 7B61     		str	r3, [r7, #20]
  77:/home/cuil/workspace/arm/lm3s811/TI_Stellaris/utils/ustdlib.c **** 
  78:/home/cuil/workspace/arm/lm3s811/TI_Stellaris/utils/ustdlib.c ****     //
  79:/home/cuil/workspace/arm/lm3s811/TI_Stellaris/utils/ustdlib.c ****     // Copy the source string until we run out of source characters or
  80:/home/cuil/workspace/arm/lm3s811/TI_Stellaris/utils/ustdlib.c ****     // destination space.
  81:/home/cuil/workspace/arm/lm3s811/TI_Stellaris/utils/ustdlib.c ****     //
  82:/home/cuil/workspace/arm/lm3s811/TI_Stellaris/utils/ustdlib.c ****     while(iNum && pcSrc[iCount])
 1706              		.loc 1 82 0
 1707 0012 0FE0     		b	.L2
 1708              	.L4:
  83:/home/cuil/workspace/arm/lm3s811/TI_Stellaris/utils/ustdlib.c ****     {
  84:/home/cuil/workspace/arm/lm3s811/TI_Stellaris/utils/ustdlib.c ****         pcDst[iCount] = pcSrc[iCount];
 1709              		.loc 1 84 0
 1710 0014 7B69     		ldr	r3, [r7, #20]
 1711 0016 FA68     		ldr	r2, [r7, #12]
 1712 0018 D318     		adds	r3, r2, r3
 1713 001a 7A69     		ldr	r2, [r7, #20]
 1714 001c B968     		ldr	r1, [r7, #8]
 1715 001e 8A18     		adds	r2, r1, r2
 1716 0020 1278     		ldrb	r2, [r2, #0]	@ zero_extendqisi2
 1717 0022 1A70     		strb	r2, [r3, #0]
  85:/home/cuil/workspace/arm/lm3s811/TI_Stellaris/utils/ustdlib.c ****         iCount++;
 1718              		.loc 1 85 0
 1719 0024 7B69     		ldr	r3, [r7, #20]
 1720 0026 03F10103 		add	r3, r3, #1
 1721 002a 7B61     		str	r3, [r7, #20]
  86:/home/cuil/workspace/arm/lm3s811/TI_Stellaris/utils/ustdlib.c ****         iNum--;
 1722              		.loc 1 86 0
 1723 002c 7B68     		ldr	r3, [r7, #4]
 1724 002e 03F1FF33 		add	r3, r3, #-1
 1725 0032 7B60     		str	r3, [r7, #4]
 1726              	.L2:
  82:/home/cuil/workspace/arm/lm3s811/TI_Stellaris/utils/ustdlib.c ****     while(iNum && pcSrc[iCount])
 1727              		.loc 1 82 0 discriminator 1
 1728 0034 7B68     		ldr	r3, [r7, #4]
 1729 0036 002B     		cmp	r3, #0
 1730 0038 14D0     		beq	.L5
  82:/home/cuil/workspace/arm/lm3s811/TI_Stellaris/utils/ustdlib.c ****     while(iNum && pcSrc[iCount])
 1731              		.loc 1 82 0 is_stmt 0 discriminator 2
 1732 003a 7B69     		ldr	r3, [r7, #20]
 1733 003c BA68     		ldr	r2, [r7, #8]
 1734 003e D318     		adds	r3, r2, r3
 1735 0040 1B78     		ldrb	r3, [r3, #0]	@ zero_extendqisi2
 1736 0042 002B     		cmp	r3, #0
 1737 0044 E6D1     		bne	.L4
  87:/home/cuil/workspace/arm/lm3s811/TI_Stellaris/utils/ustdlib.c ****     }
  88:/home/cuil/workspace/arm/lm3s811/TI_Stellaris/utils/ustdlib.c **** 
  89:/home/cuil/workspace/arm/lm3s811/TI_Stellaris/utils/ustdlib.c ****     //
  90:/home/cuil/workspace/arm/lm3s811/TI_Stellaris/utils/ustdlib.c ****     // Pad the destination if we are not yet done.
  91:/home/cuil/workspace/arm/lm3s811/TI_Stellaris/utils/ustdlib.c ****     //
  92:/home/cuil/workspace/arm/lm3s811/TI_Stellaris/utils/ustdlib.c ****     while(iNum)
 1738              		.loc 1 92 0 is_stmt 1
 1739 0046 0DE0     		b	.L5
 1740              	.L6:
  93:/home/cuil/workspace/arm/lm3s811/TI_Stellaris/utils/ustdlib.c ****     {
  94:/home/cuil/workspace/arm/lm3s811/TI_Stellaris/utils/ustdlib.c ****         pcDst[iCount++] = (char)0;
 1741              		.loc 1 94 0
 1742 0048 7B69     		ldr	r3, [r7, #20]
 1743 004a FA68     		ldr	r2, [r7, #12]
 1744 004c D318     		adds	r3, r2, r3
 1745 004e 4FF00002 		mov	r2, #0
 1746 0052 1A70     		strb	r2, [r3, #0]
 1747 0054 7B69     		ldr	r3, [r7, #20]
 1748 0056 03F10103 		add	r3, r3, #1
 1749 005a 7B61     		str	r3, [r7, #20]
  95:/home/cuil/workspace/arm/lm3s811/TI_Stellaris/utils/ustdlib.c ****         iNum--;
 1750              		.loc 1 95 0
 1751 005c 7B68     		ldr	r3, [r7, #4]
 1752 005e 03F1FF33 		add	r3, r3, #-1
 1753 0062 7B60     		str	r3, [r7, #4]
 1754              	.L5:
  92:/home/cuil/workspace/arm/lm3s811/TI_Stellaris/utils/ustdlib.c ****     while(iNum)
 1755              		.loc 1 92 0 discriminator 1
 1756 0064 7B68     		ldr	r3, [r7, #4]
 1757 0066 002B     		cmp	r3, #0
 1758 0068 EED1     		bne	.L6
  96:/home/cuil/workspace/arm/lm3s811/TI_Stellaris/utils/ustdlib.c ****     }
  97:/home/cuil/workspace/arm/lm3s811/TI_Stellaris/utils/ustdlib.c **** 
  98:/home/cuil/workspace/arm/lm3s811/TI_Stellaris/utils/ustdlib.c ****     //
  99:/home/cuil/workspace/arm/lm3s811/TI_Stellaris/utils/ustdlib.c ****     // Pass the destination pointer back to the caller.
 100:/home/cuil/workspace/arm/lm3s811/TI_Stellaris/utils/ustdlib.c ****     //
 101:/home/cuil/workspace/arm/lm3s811/TI_Stellaris/utils/ustdlib.c ****     return(pcDst);
 1759              		.loc 1 101 0
 1760 006a FB68     		ldr	r3, [r7, #12]
 102:/home/cuil/workspace/arm/lm3s811/TI_Stellaris/utils/ustdlib.c **** }
 1761              		.loc 1 102 0
 1762 006c 1846     		mov	r0, r3
 1763 006e 07F11C07 		add	r7, r7, #28
 1764 0072 BD46     		mov	sp, r7
 1765 0074 80BC     		pop	{r7}
 1766 0076 7047     		bx	lr
 1767              		.cfi_endproc
 1768              	.LFE0:
 1770              		.section	.rodata
 1771              		.align	2
 1772              	.LC1:
 1773 0018 4552524F 		.ascii	"ERROR\000"
 1773      5200
 1774              		.section	.text.uvsnprintf,"ax",%progbits
 1775              		.align	2
 1776              		.global	uvsnprintf
 1777              		.thumb
 1778              		.thumb_func
 1780              	uvsnprintf:
 1781              	.LFB1:
 103:/home/cuil/workspace/arm/lm3s811/TI_Stellaris/utils/ustdlib.c **** 
 104:/home/cuil/workspace/arm/lm3s811/TI_Stellaris/utils/ustdlib.c **** //*****************************************************************************
 105:/home/cuil/workspace/arm/lm3s811/TI_Stellaris/utils/ustdlib.c **** //
 106:/home/cuil/workspace/arm/lm3s811/TI_Stellaris/utils/ustdlib.c **** //! A simple vsnprintf function supporting \%c, \%d, \%p, \%s, \%u, \%x, and
 107:/home/cuil/workspace/arm/lm3s811/TI_Stellaris/utils/ustdlib.c **** //! \%X.
 108:/home/cuil/workspace/arm/lm3s811/TI_Stellaris/utils/ustdlib.c **** //!
 109:/home/cuil/workspace/arm/lm3s811/TI_Stellaris/utils/ustdlib.c **** //! \param pcBuf points to the buffer where the converted string is stored.
 110:/home/cuil/workspace/arm/lm3s811/TI_Stellaris/utils/ustdlib.c **** //! \param ulSize is the size of the buffer.
 111:/home/cuil/workspace/arm/lm3s811/TI_Stellaris/utils/ustdlib.c **** //! \param pcString is the format string.
 112:/home/cuil/workspace/arm/lm3s811/TI_Stellaris/utils/ustdlib.c **** //! \param vaArgP is the list of optional arguments, which depend on the
 113:/home/cuil/workspace/arm/lm3s811/TI_Stellaris/utils/ustdlib.c **** //! contents of the format string.
 114:/home/cuil/workspace/arm/lm3s811/TI_Stellaris/utils/ustdlib.c **** //!
 115:/home/cuil/workspace/arm/lm3s811/TI_Stellaris/utils/ustdlib.c **** //! This function is very similar to the C library <tt>vsnprintf()</tt>
 116:/home/cuil/workspace/arm/lm3s811/TI_Stellaris/utils/ustdlib.c **** //! function.  Only the following formatting characters are supported:
 117:/home/cuil/workspace/arm/lm3s811/TI_Stellaris/utils/ustdlib.c **** //!
 118:/home/cuil/workspace/arm/lm3s811/TI_Stellaris/utils/ustdlib.c **** //! - \%c to print a character
 119:/home/cuil/workspace/arm/lm3s811/TI_Stellaris/utils/ustdlib.c **** //! - \%d to print a decimal value
 120:/home/cuil/workspace/arm/lm3s811/TI_Stellaris/utils/ustdlib.c **** //! - \%s to print a string
 121:/home/cuil/workspace/arm/lm3s811/TI_Stellaris/utils/ustdlib.c **** //! - \%u to print an unsigned decimal value
 122:/home/cuil/workspace/arm/lm3s811/TI_Stellaris/utils/ustdlib.c **** //! - \%x to print a hexadecimal value using lower case letters
 123:/home/cuil/workspace/arm/lm3s811/TI_Stellaris/utils/ustdlib.c **** //! - \%X to print a hexadecimal value using lower case letters (not upper case
 124:/home/cuil/workspace/arm/lm3s811/TI_Stellaris/utils/ustdlib.c **** //! letters as would typically be used)
 125:/home/cuil/workspace/arm/lm3s811/TI_Stellaris/utils/ustdlib.c **** //! - \%p to print a pointer as a hexadecimal value
 126:/home/cuil/workspace/arm/lm3s811/TI_Stellaris/utils/ustdlib.c **** //! - \%\% to print out a \% character
 127:/home/cuil/workspace/arm/lm3s811/TI_Stellaris/utils/ustdlib.c **** //!
 128:/home/cuil/workspace/arm/lm3s811/TI_Stellaris/utils/ustdlib.c **** //! For \%d, \%p, \%s, \%u, \%x, and \%X, an optional number may reside between
 129:/home/cuil/workspace/arm/lm3s811/TI_Stellaris/utils/ustdlib.c **** //! the \% and the format character, which specifies the minimum number of
 130:/home/cuil/workspace/arm/lm3s811/TI_Stellaris/utils/ustdlib.c **** //! characters to use for that value; if preceded by a 0 then the extra
 131:/home/cuil/workspace/arm/lm3s811/TI_Stellaris/utils/ustdlib.c **** //! characters will be filled with zeros instead of spaces.  For example,
 132:/home/cuil/workspace/arm/lm3s811/TI_Stellaris/utils/ustdlib.c **** //! ``\%8d'' will use eight characters to print the decimal value with spaces
 133:/home/cuil/workspace/arm/lm3s811/TI_Stellaris/utils/ustdlib.c **** //! added to reach eight; ``\%08d'' will use eight characters as well but will
 134:/home/cuil/workspace/arm/lm3s811/TI_Stellaris/utils/ustdlib.c **** //! add zeroes instead of spaces.
 135:/home/cuil/workspace/arm/lm3s811/TI_Stellaris/utils/ustdlib.c **** //!
 136:/home/cuil/workspace/arm/lm3s811/TI_Stellaris/utils/ustdlib.c **** //! The type of the arguments after \e pcString must match the requirements of
 137:/home/cuil/workspace/arm/lm3s811/TI_Stellaris/utils/ustdlib.c **** //! the format string.  For example, if an integer was passed where a string
 138:/home/cuil/workspace/arm/lm3s811/TI_Stellaris/utils/ustdlib.c **** //! was expected, an error of some kind will most likely occur.
 139:/home/cuil/workspace/arm/lm3s811/TI_Stellaris/utils/ustdlib.c **** //!
 140:/home/cuil/workspace/arm/lm3s811/TI_Stellaris/utils/ustdlib.c **** //! The \e ulSize parameter limits the number of characters that will be stored
 141:/home/cuil/workspace/arm/lm3s811/TI_Stellaris/utils/ustdlib.c **** //! in the buffer pointed to by \e pcBuf to prevent the possibility of a buffer
 142:/home/cuil/workspace/arm/lm3s811/TI_Stellaris/utils/ustdlib.c **** //! overflow.  The buffer size should be large enough to hold the expected
 143:/home/cuil/workspace/arm/lm3s811/TI_Stellaris/utils/ustdlib.c **** //! converted output string, including the null termination character.
 144:/home/cuil/workspace/arm/lm3s811/TI_Stellaris/utils/ustdlib.c **** //!
 145:/home/cuil/workspace/arm/lm3s811/TI_Stellaris/utils/ustdlib.c **** //! The function will return the number of characters that would be converted
 146:/home/cuil/workspace/arm/lm3s811/TI_Stellaris/utils/ustdlib.c **** //! as if there were no limit on the buffer size.  Therefore it is possible for
 147:/home/cuil/workspace/arm/lm3s811/TI_Stellaris/utils/ustdlib.c **** //! the function to return a count that is greater than the specified buffer
 148:/home/cuil/workspace/arm/lm3s811/TI_Stellaris/utils/ustdlib.c **** //! size.  If this happens, it means that the output was truncated.
 149:/home/cuil/workspace/arm/lm3s811/TI_Stellaris/utils/ustdlib.c **** //!
 150:/home/cuil/workspace/arm/lm3s811/TI_Stellaris/utils/ustdlib.c **** //! \return Returns the number of characters that were to be stored, not
 151:/home/cuil/workspace/arm/lm3s811/TI_Stellaris/utils/ustdlib.c **** //! including the NULL termination character, regardless of space in the
 152:/home/cuil/workspace/arm/lm3s811/TI_Stellaris/utils/ustdlib.c **** //! buffer.
 153:/home/cuil/workspace/arm/lm3s811/TI_Stellaris/utils/ustdlib.c **** //
 154:/home/cuil/workspace/arm/lm3s811/TI_Stellaris/utils/ustdlib.c **** //*****************************************************************************
 155:/home/cuil/workspace/arm/lm3s811/TI_Stellaris/utils/ustdlib.c **** int
 156:/home/cuil/workspace/arm/lm3s811/TI_Stellaris/utils/ustdlib.c **** uvsnprintf(char *pcBuf, unsigned long ulSize, const char *pcString,
 157:/home/cuil/workspace/arm/lm3s811/TI_Stellaris/utils/ustdlib.c ****            va_list vaArgP)
 158:/home/cuil/workspace/arm/lm3s811/TI_Stellaris/utils/ustdlib.c **** {
 1782              		.loc 1 158 0
 1783              		.cfi_startproc
 1784              		@ args = 0, pretend = 0, frame = 48
 1785              		@ frame_needed = 1, uses_anonymous_args = 0
 1786 0000 80B5     		push	{r7, lr}
 1787              	.LCFI3:
 1788              		.cfi_def_cfa_offset 8
 1789 0002 8CB0     		sub	sp, sp, #48
 1790              	.LCFI4:
 1791              		.cfi_def_cfa_offset 56
 1792 0004 00AF     		add	r7, sp, #0
 1793              		.cfi_offset 14, -4
 1794              		.cfi_offset 7, -8
 1795              	.LCFI5:
 1796              		.cfi_def_cfa_register 7
 1797 0006 F860     		str	r0, [r7, #12]
 1798 0008 B960     		str	r1, [r7, #8]
 1799 000a 7A60     		str	r2, [r7, #4]
 1800 000c 3B60     		str	r3, [r7, #0]
 159:/home/cuil/workspace/arm/lm3s811/TI_Stellaris/utils/ustdlib.c ****     unsigned long ulIdx, ulValue, ulCount, ulBase, ulNeg;
 160:/home/cuil/workspace/arm/lm3s811/TI_Stellaris/utils/ustdlib.c ****     char *pcStr, cFill;
 161:/home/cuil/workspace/arm/lm3s811/TI_Stellaris/utils/ustdlib.c ****     int iConvertCount = 0;
 1801              		.loc 1 161 0
 1802 000e 4FF00003 		mov	r3, #0
 1803 0012 7B61     		str	r3, [r7, #20]
 162:/home/cuil/workspace/arm/lm3s811/TI_Stellaris/utils/ustdlib.c **** 
 163:/home/cuil/workspace/arm/lm3s811/TI_Stellaris/utils/ustdlib.c ****     //
 164:/home/cuil/workspace/arm/lm3s811/TI_Stellaris/utils/ustdlib.c ****     // Check the arguments.
 165:/home/cuil/workspace/arm/lm3s811/TI_Stellaris/utils/ustdlib.c ****     //
 166:/home/cuil/workspace/arm/lm3s811/TI_Stellaris/utils/ustdlib.c ****     ASSERT(pcString != 0);
 167:/home/cuil/workspace/arm/lm3s811/TI_Stellaris/utils/ustdlib.c ****     ASSERT(pcBuf != 0);
 168:/home/cuil/workspace/arm/lm3s811/TI_Stellaris/utils/ustdlib.c ****     ASSERT(ulSize != 0);
 169:/home/cuil/workspace/arm/lm3s811/TI_Stellaris/utils/ustdlib.c **** 
 170:/home/cuil/workspace/arm/lm3s811/TI_Stellaris/utils/ustdlib.c ****     //
 171:/home/cuil/workspace/arm/lm3s811/TI_Stellaris/utils/ustdlib.c ****     // Adjust buffer size limit to allow one space for null termination.
 172:/home/cuil/workspace/arm/lm3s811/TI_Stellaris/utils/ustdlib.c ****     //
 173:/home/cuil/workspace/arm/lm3s811/TI_Stellaris/utils/ustdlib.c ****     if(ulSize)
 1804              		.loc 1 173 0
 1805 0014 BB68     		ldr	r3, [r7, #8]
 1806 0016 002B     		cmp	r3, #0
 1807 0018 03D0     		beq	.L8
 174:/home/cuil/workspace/arm/lm3s811/TI_Stellaris/utils/ustdlib.c ****     {
 175:/home/cuil/workspace/arm/lm3s811/TI_Stellaris/utils/ustdlib.c ****         ulSize--;
 1808              		.loc 1 175 0
 1809 001a BB68     		ldr	r3, [r7, #8]
 1810 001c 03F1FF33 		add	r3, r3, #-1
 1811 0020 BB60     		str	r3, [r7, #8]
 1812              	.L8:
 176:/home/cuil/workspace/arm/lm3s811/TI_Stellaris/utils/ustdlib.c ****     }
 177:/home/cuil/workspace/arm/lm3s811/TI_Stellaris/utils/ustdlib.c **** 
 178:/home/cuil/workspace/arm/lm3s811/TI_Stellaris/utils/ustdlib.c ****     //
 179:/home/cuil/workspace/arm/lm3s811/TI_Stellaris/utils/ustdlib.c ****     // Initialize the count of characters converted.
 180:/home/cuil/workspace/arm/lm3s811/TI_Stellaris/utils/ustdlib.c ****     //
 181:/home/cuil/workspace/arm/lm3s811/TI_Stellaris/utils/ustdlib.c ****     iConvertCount = 0;
 1813              		.loc 1 181 0
 1814 0022 4FF00003 		mov	r3, #0
 1815 0026 7B61     		str	r3, [r7, #20]
 182:/home/cuil/workspace/arm/lm3s811/TI_Stellaris/utils/ustdlib.c **** 
 183:/home/cuil/workspace/arm/lm3s811/TI_Stellaris/utils/ustdlib.c ****     //
 184:/home/cuil/workspace/arm/lm3s811/TI_Stellaris/utils/ustdlib.c ****     // Loop while there are more characters in the format string.
 185:/home/cuil/workspace/arm/lm3s811/TI_Stellaris/utils/ustdlib.c ****     //
 186:/home/cuil/workspace/arm/lm3s811/TI_Stellaris/utils/ustdlib.c ****     while(*pcString)
 1816              		.loc 1 186 0
 1817 0028 B5E2     		b	.L9
 1818              	.L54:
 187:/home/cuil/workspace/arm/lm3s811/TI_Stellaris/utils/ustdlib.c ****     {
 188:/home/cuil/workspace/arm/lm3s811/TI_Stellaris/utils/ustdlib.c ****         //
 189:/home/cuil/workspace/arm/lm3s811/TI_Stellaris/utils/ustdlib.c ****         // Find the first non-% character, or the end of the string.
 190:/home/cuil/workspace/arm/lm3s811/TI_Stellaris/utils/ustdlib.c ****         //
 191:/home/cuil/workspace/arm/lm3s811/TI_Stellaris/utils/ustdlib.c ****         for(ulIdx = 0; (pcString[ulIdx] != '%') && (pcString[ulIdx] != '\0');
 1819              		.loc 1 191 0
 1820 002a 4FF00003 		mov	r3, #0
 1821 002e FB62     		str	r3, [r7, #44]
 1822 0030 03E0     		b	.L10
 1823              	.L12:
 192:/home/cuil/workspace/arm/lm3s811/TI_Stellaris/utils/ustdlib.c ****             ulIdx++)
 1824              		.loc 1 192 0
 1825 0032 FB6A     		ldr	r3, [r7, #44]
 1826 0034 03F10103 		add	r3, r3, #1
 1827 0038 FB62     		str	r3, [r7, #44]
 1828              	.L10:
 191:/home/cuil/workspace/arm/lm3s811/TI_Stellaris/utils/ustdlib.c ****         for(ulIdx = 0; (pcString[ulIdx] != '%') && (pcString[ulIdx] != '\0');
 1829              		.loc 1 191 0 discriminator 1
 1830 003a 7A68     		ldr	r2, [r7, #4]
 1831 003c FB6A     		ldr	r3, [r7, #44]
 1832 003e D318     		adds	r3, r2, r3
 1833 0040 1B78     		ldrb	r3, [r3, #0]	@ zero_extendqisi2
 1834 0042 252B     		cmp	r3, #37
 1835 0044 05D0     		beq	.L11
 191:/home/cuil/workspace/arm/lm3s811/TI_Stellaris/utils/ustdlib.c ****         for(ulIdx = 0; (pcString[ulIdx] != '%') && (pcString[ulIdx] != '\0');
 1836              		.loc 1 191 0 is_stmt 0 discriminator 2
 1837 0046 7A68     		ldr	r2, [r7, #4]
 1838 0048 FB6A     		ldr	r3, [r7, #44]
 1839 004a D318     		adds	r3, r2, r3
 1840 004c 1B78     		ldrb	r3, [r3, #0]	@ zero_extendqisi2
 1841 004e 002B     		cmp	r3, #0
 1842 0050 EFD1     		bne	.L12
 1843              	.L11:
 193:/home/cuil/workspace/arm/lm3s811/TI_Stellaris/utils/ustdlib.c ****         {
 194:/home/cuil/workspace/arm/lm3s811/TI_Stellaris/utils/ustdlib.c ****         }
 195:/home/cuil/workspace/arm/lm3s811/TI_Stellaris/utils/ustdlib.c **** 
 196:/home/cuil/workspace/arm/lm3s811/TI_Stellaris/utils/ustdlib.c ****         //
 197:/home/cuil/workspace/arm/lm3s811/TI_Stellaris/utils/ustdlib.c ****         // Write this portion of the string to the output buffer.  If there are
 198:/home/cuil/workspace/arm/lm3s811/TI_Stellaris/utils/ustdlib.c ****         // more characters to write than there is space in the buffer, then
 199:/home/cuil/workspace/arm/lm3s811/TI_Stellaris/utils/ustdlib.c ****         // only write as much as will fit in the buffer.
 200:/home/cuil/workspace/arm/lm3s811/TI_Stellaris/utils/ustdlib.c ****         //
 201:/home/cuil/workspace/arm/lm3s811/TI_Stellaris/utils/ustdlib.c ****         if(ulIdx > ulSize)
 1844              		.loc 1 201 0 is_stmt 1
 1845 0052 FA6A     		ldr	r2, [r7, #44]
 1846 0054 BB68     		ldr	r3, [r7, #8]
 1847 0056 9A42     		cmp	r2, r3
 1848 0058 0DD9     		bls	.L13
 202:/home/cuil/workspace/arm/lm3s811/TI_Stellaris/utils/ustdlib.c ****         {
 203:/home/cuil/workspace/arm/lm3s811/TI_Stellaris/utils/ustdlib.c ****             ustrncpy(pcBuf, pcString, ulSize);
 1849              		.loc 1 203 0
 1850 005a BB68     		ldr	r3, [r7, #8]
 1851 005c F868     		ldr	r0, [r7, #12]
 1852 005e 7968     		ldr	r1, [r7, #4]
 1853 0060 1A46     		mov	r2, r3
 1854 0062 FFF7FEFF 		bl	ustrncpy
 204:/home/cuil/workspace/arm/lm3s811/TI_Stellaris/utils/ustdlib.c ****             pcBuf += ulSize;
 1855              		.loc 1 204 0
 1856 0066 FA68     		ldr	r2, [r7, #12]
 1857 0068 BB68     		ldr	r3, [r7, #8]
 1858 006a D318     		adds	r3, r2, r3
 1859 006c FB60     		str	r3, [r7, #12]
 205:/home/cuil/workspace/arm/lm3s811/TI_Stellaris/utils/ustdlib.c ****             ulSize = 0;
 1860              		.loc 1 205 0
 1861 006e 4FF00003 		mov	r3, #0
 1862 0072 BB60     		str	r3, [r7, #8]
 1863 0074 0DE0     		b	.L14
 1864              	.L13:
 206:/home/cuil/workspace/arm/lm3s811/TI_Stellaris/utils/ustdlib.c ****         }
 207:/home/cuil/workspace/arm/lm3s811/TI_Stellaris/utils/ustdlib.c ****         else
 208:/home/cuil/workspace/arm/lm3s811/TI_Stellaris/utils/ustdlib.c ****         {
 209:/home/cuil/workspace/arm/lm3s811/TI_Stellaris/utils/ustdlib.c ****             ustrncpy(pcBuf, pcString, ulIdx);
 1865              		.loc 1 209 0
 1866 0076 FB6A     		ldr	r3, [r7, #44]
 1867 0078 F868     		ldr	r0, [r7, #12]
 1868 007a 7968     		ldr	r1, [r7, #4]
 1869 007c 1A46     		mov	r2, r3
 1870 007e FFF7FEFF 		bl	ustrncpy
 210:/home/cuil/workspace/arm/lm3s811/TI_Stellaris/utils/ustdlib.c ****             pcBuf += ulIdx;
 1871              		.loc 1 210 0
 1872 0082 FA68     		ldr	r2, [r7, #12]
 1873 0084 FB6A     		ldr	r3, [r7, #44]
 1874 0086 D318     		adds	r3, r2, r3
 1875 0088 FB60     		str	r3, [r7, #12]
 211:/home/cuil/workspace/arm/lm3s811/TI_Stellaris/utils/ustdlib.c ****             ulSize -= ulIdx;
 1876              		.loc 1 211 0
 1877 008a BA68     		ldr	r2, [r7, #8]
 1878 008c FB6A     		ldr	r3, [r7, #44]
 1879 008e D31A     		subs	r3, r2, r3
 1880 0090 BB60     		str	r3, [r7, #8]
 1881              	.L14:
 212:/home/cuil/workspace/arm/lm3s811/TI_Stellaris/utils/ustdlib.c ****         }
 213:/home/cuil/workspace/arm/lm3s811/TI_Stellaris/utils/ustdlib.c **** 
 214:/home/cuil/workspace/arm/lm3s811/TI_Stellaris/utils/ustdlib.c ****         //
 215:/home/cuil/workspace/arm/lm3s811/TI_Stellaris/utils/ustdlib.c ****         // Update the conversion count.  This will be the number of characters
 216:/home/cuil/workspace/arm/lm3s811/TI_Stellaris/utils/ustdlib.c ****         // that should have been written, even if there was not room in the
 217:/home/cuil/workspace/arm/lm3s811/TI_Stellaris/utils/ustdlib.c ****         // buffer.
 218:/home/cuil/workspace/arm/lm3s811/TI_Stellaris/utils/ustdlib.c ****         //
 219:/home/cuil/workspace/arm/lm3s811/TI_Stellaris/utils/ustdlib.c ****         iConvertCount += ulIdx;
 1882              		.loc 1 219 0
 1883 0092 7A69     		ldr	r2, [r7, #20]
 1884 0094 FB6A     		ldr	r3, [r7, #44]
 1885 0096 D318     		adds	r3, r2, r3
 1886 0098 7B61     		str	r3, [r7, #20]
 220:/home/cuil/workspace/arm/lm3s811/TI_Stellaris/utils/ustdlib.c **** 
 221:/home/cuil/workspace/arm/lm3s811/TI_Stellaris/utils/ustdlib.c ****         //
 222:/home/cuil/workspace/arm/lm3s811/TI_Stellaris/utils/ustdlib.c ****         // Skip the portion of the format string that was written.
 223:/home/cuil/workspace/arm/lm3s811/TI_Stellaris/utils/ustdlib.c ****         //
 224:/home/cuil/workspace/arm/lm3s811/TI_Stellaris/utils/ustdlib.c ****         pcString += ulIdx;
 1887              		.loc 1 224 0
 1888 009a 7A68     		ldr	r2, [r7, #4]
 1889 009c FB6A     		ldr	r3, [r7, #44]
 1890 009e D318     		adds	r3, r2, r3
 1891 00a0 7B60     		str	r3, [r7, #4]
 225:/home/cuil/workspace/arm/lm3s811/TI_Stellaris/utils/ustdlib.c **** 
 226:/home/cuil/workspace/arm/lm3s811/TI_Stellaris/utils/ustdlib.c ****         //
 227:/home/cuil/workspace/arm/lm3s811/TI_Stellaris/utils/ustdlib.c ****         // See if the next character is a %.
 228:/home/cuil/workspace/arm/lm3s811/TI_Stellaris/utils/ustdlib.c ****         //
 229:/home/cuil/workspace/arm/lm3s811/TI_Stellaris/utils/ustdlib.c ****         if(*pcString == '%')
 1892              		.loc 1 229 0
 1893 00a2 7B68     		ldr	r3, [r7, #4]
 1894 00a4 1B78     		ldrb	r3, [r3, #0]	@ zero_extendqisi2
 1895 00a6 252B     		cmp	r3, #37
 1896 00a8 40F07582 		bne	.L9
 230:/home/cuil/workspace/arm/lm3s811/TI_Stellaris/utils/ustdlib.c ****         {
 231:/home/cuil/workspace/arm/lm3s811/TI_Stellaris/utils/ustdlib.c ****             //
 232:/home/cuil/workspace/arm/lm3s811/TI_Stellaris/utils/ustdlib.c ****             // Skip the %.
 233:/home/cuil/workspace/arm/lm3s811/TI_Stellaris/utils/ustdlib.c ****             //
 234:/home/cuil/workspace/arm/lm3s811/TI_Stellaris/utils/ustdlib.c ****             pcString++;
 1897              		.loc 1 234 0
 1898 00ac 7B68     		ldr	r3, [r7, #4]
 1899 00ae 03F10103 		add	r3, r3, #1
 1900 00b2 7B60     		str	r3, [r7, #4]
 235:/home/cuil/workspace/arm/lm3s811/TI_Stellaris/utils/ustdlib.c **** 
 236:/home/cuil/workspace/arm/lm3s811/TI_Stellaris/utils/ustdlib.c ****             //
 237:/home/cuil/workspace/arm/lm3s811/TI_Stellaris/utils/ustdlib.c ****             // Set the digit count to zero, and the fill character to space
 238:/home/cuil/workspace/arm/lm3s811/TI_Stellaris/utils/ustdlib.c ****             // (that is, to the defaults).
 239:/home/cuil/workspace/arm/lm3s811/TI_Stellaris/utils/ustdlib.c ****             //
 240:/home/cuil/workspace/arm/lm3s811/TI_Stellaris/utils/ustdlib.c ****             ulCount = 0;
 1901              		.loc 1 240 0
 1902 00b4 4FF00003 		mov	r3, #0
 1903 00b8 7B62     		str	r3, [r7, #36]
 241:/home/cuil/workspace/arm/lm3s811/TI_Stellaris/utils/ustdlib.c ****             cFill = ' ';
 1904              		.loc 1 241 0
 1905 00ba 4FF02003 		mov	r3, #32
 1906 00be FB76     		strb	r3, [r7, #27]
 1907              	.L15:
 242:/home/cuil/workspace/arm/lm3s811/TI_Stellaris/utils/ustdlib.c **** 
 243:/home/cuil/workspace/arm/lm3s811/TI_Stellaris/utils/ustdlib.c ****             //
 244:/home/cuil/workspace/arm/lm3s811/TI_Stellaris/utils/ustdlib.c ****             // It may be necessary to get back here to process more characters.
 245:/home/cuil/workspace/arm/lm3s811/TI_Stellaris/utils/ustdlib.c ****             // Goto's aren't pretty, but effective.  I feel extremely dirty for
 246:/home/cuil/workspace/arm/lm3s811/TI_Stellaris/utils/ustdlib.c ****             // using not one but two of the beasts.
 247:/home/cuil/workspace/arm/lm3s811/TI_Stellaris/utils/ustdlib.c ****             //
 248:/home/cuil/workspace/arm/lm3s811/TI_Stellaris/utils/ustdlib.c **** again:
 249:/home/cuil/workspace/arm/lm3s811/TI_Stellaris/utils/ustdlib.c **** 
 250:/home/cuil/workspace/arm/lm3s811/TI_Stellaris/utils/ustdlib.c ****             //
 251:/home/cuil/workspace/arm/lm3s811/TI_Stellaris/utils/ustdlib.c ****             // Determine how to handle the next character.
 252:/home/cuil/workspace/arm/lm3s811/TI_Stellaris/utils/ustdlib.c ****             //
 253:/home/cuil/workspace/arm/lm3s811/TI_Stellaris/utils/ustdlib.c ****             switch(*pcString++)
 1908              		.loc 1 253 0
 1909 00c0 7B68     		ldr	r3, [r7, #4]
 1910 00c2 1B78     		ldrb	r3, [r3, #0]	@ zero_extendqisi2
 1911 00c4 7A68     		ldr	r2, [r7, #4]
 1912 00c6 02F10102 		add	r2, r2, #1
 1913 00ca 7A60     		str	r2, [r7, #4]
 1914 00cc A3F12503 		sub	r3, r3, #37
 1915 00d0 532B     		cmp	r3, #83
 1916 00d2 00F23C82 		bhi	.L16
 1917 00d6 01A2     		adr	r2, .L24
 1918 00d8 52F823F0 		ldr	pc, [r2, r3, lsl #2]
 1919              		.align	2
 1920              	.L24:
 1921 00dc 23050000 		.word	.L17+1
 1922 00e0 4F050000 		.word	.L16+1
 1923 00e4 4F050000 		.word	.L16+1
 1924 00e8 4F050000 		.word	.L16+1
 1925 00ec 4F050000 		.word	.L16+1
 1926 00f0 4F050000 		.word	.L16+1
 1927 00f4 4F050000 		.word	.L16+1
 1928 00f8 4F050000 		.word	.L16+1
 1929 00fc 4F050000 		.word	.L16+1
 1930 0100 4F050000 		.word	.L16+1
 1931 0104 4F050000 		.word	.L16+1
 1932 0108 2D020000 		.word	.L18+1
 1933 010c 2D020000 		.word	.L18+1
 1934 0110 2D020000 		.word	.L18+1
 1935 0114 2D020000 		.word	.L18+1
 1936 0118 2D020000 		.word	.L18+1
 1937 011c 2D020000 		.word	.L18+1
 1938 0120 2D020000 		.word	.L18+1
 1939 0124 2D020000 		.word	.L18+1
 1940 0128 2D020000 		.word	.L18+1
 1941 012c 2D020000 		.word	.L18+1
 1942 0130 4F050000 		.word	.L16+1
 1943 0134 4F050000 		.word	.L16+1
 1944 0138 4F050000 		.word	.L16+1
 1945 013c 4F050000 		.word	.L16+1
 1946 0140 4F050000 		.word	.L16+1
 1947 0144 4F050000 		.word	.L16+1
 1948 0148 4F050000 		.word	.L16+1
 1949 014c 4F050000 		.word	.L16+1
 1950 0150 4F050000 		.word	.L16+1
 1951 0154 4F050000 		.word	.L16+1
 1952 0158 4F050000 		.word	.L16+1
 1953 015c 4F050000 		.word	.L16+1
 1954 0160 4F050000 		.word	.L16+1
 1955 0164 4F050000 		.word	.L16+1
 1956 0168 4F050000 		.word	.L16+1
 1957 016c 4F050000 		.word	.L16+1
 1958 0170 4F050000 		.word	.L16+1
 1959 0174 4F050000 		.word	.L16+1
 1960 0178 4F050000 		.word	.L16+1
 1961 017c 4F050000 		.word	.L16+1
 1962 0180 4F050000 		.word	.L16+1
 1963 0184 4F050000 		.word	.L16+1
 1964 0188 4F050000 		.word	.L16+1
 1965 018c 4F050000 		.word	.L16+1
 1966 0190 4F050000 		.word	.L16+1
 1967 0194 4F050000 		.word	.L16+1
 1968 0198 4F050000 		.word	.L16+1
 1969 019c 4F050000 		.word	.L16+1
 1970 01a0 4F050000 		.word	.L16+1
 1971 01a4 4F050000 		.word	.L16+1
 1972 01a8 BD030000 		.word	.L19+1
 1973 01ac 4F050000 		.word	.L16+1
 1974 01b0 4F050000 		.word	.L16+1
 1975 01b4 4F050000 		.word	.L16+1
 1976 01b8 4F050000 		.word	.L16+1
 1977 01bc 4F050000 		.word	.L16+1
 1978 01c0 4F050000 		.word	.L16+1
 1979 01c4 4F050000 		.word	.L16+1
 1980 01c8 4F050000 		.word	.L16+1
 1981 01cc 4F050000 		.word	.L16+1
 1982 01d0 4F050000 		.word	.L16+1
 1983 01d4 6B020000 		.word	.L20+1
 1984 01d8 9F020000 		.word	.L21+1
 1985 01dc 4F050000 		.word	.L16+1
 1986 01e0 4F050000 		.word	.L16+1
 1987 01e4 4F050000 		.word	.L16+1
 1988 01e8 4F050000 		.word	.L16+1
 1989 01ec 4F050000 		.word	.L16+1
 1990 01f0 4F050000 		.word	.L16+1
 1991 01f4 4F050000 		.word	.L16+1
 1992 01f8 4F050000 		.word	.L16+1
 1993 01fc 4F050000 		.word	.L16+1
 1994 0200 4F050000 		.word	.L16+1
 1995 0204 4F050000 		.word	.L16+1
 1996 0208 BD030000 		.word	.L19+1
 1997 020c 4F050000 		.word	.L16+1
 1998 0210 4F050000 		.word	.L16+1
 1999 0214 CF020000 		.word	.L22+1
 2000 0218 4F050000 		.word	.L16+1
 2001 021c A3030000 		.word	.L23+1
 2002 0220 4F050000 		.word	.L16+1
 2003 0224 4F050000 		.word	.L16+1
 2004 0228 BD030000 		.word	.L19+1
 2005              	.L18:
 254:/home/cuil/workspace/arm/lm3s811/TI_Stellaris/utils/ustdlib.c ****             {
 255:/home/cuil/workspace/arm/lm3s811/TI_Stellaris/utils/ustdlib.c ****                 //
 256:/home/cuil/workspace/arm/lm3s811/TI_Stellaris/utils/ustdlib.c ****                 // Handle the digit characters.
 257:/home/cuil/workspace/arm/lm3s811/TI_Stellaris/utils/ustdlib.c ****                 //
 258:/home/cuil/workspace/arm/lm3s811/TI_Stellaris/utils/ustdlib.c ****                 case '0':
 259:/home/cuil/workspace/arm/lm3s811/TI_Stellaris/utils/ustdlib.c ****                 case '1':
 260:/home/cuil/workspace/arm/lm3s811/TI_Stellaris/utils/ustdlib.c ****                 case '2':
 261:/home/cuil/workspace/arm/lm3s811/TI_Stellaris/utils/ustdlib.c ****                 case '3':
 262:/home/cuil/workspace/arm/lm3s811/TI_Stellaris/utils/ustdlib.c ****                 case '4':
 263:/home/cuil/workspace/arm/lm3s811/TI_Stellaris/utils/ustdlib.c ****                 case '5':
 264:/home/cuil/workspace/arm/lm3s811/TI_Stellaris/utils/ustdlib.c ****                 case '6':
 265:/home/cuil/workspace/arm/lm3s811/TI_Stellaris/utils/ustdlib.c ****                 case '7':
 266:/home/cuil/workspace/arm/lm3s811/TI_Stellaris/utils/ustdlib.c ****                 case '8':
 267:/home/cuil/workspace/arm/lm3s811/TI_Stellaris/utils/ustdlib.c ****                 case '9':
 268:/home/cuil/workspace/arm/lm3s811/TI_Stellaris/utils/ustdlib.c ****                 {
 269:/home/cuil/workspace/arm/lm3s811/TI_Stellaris/utils/ustdlib.c ****                     //
 270:/home/cuil/workspace/arm/lm3s811/TI_Stellaris/utils/ustdlib.c ****                     // If this is a zero, and it is the first digit, then the
 271:/home/cuil/workspace/arm/lm3s811/TI_Stellaris/utils/ustdlib.c ****                     // fill character is a zero instead of a space.
 272:/home/cuil/workspace/arm/lm3s811/TI_Stellaris/utils/ustdlib.c ****                     //
 273:/home/cuil/workspace/arm/lm3s811/TI_Stellaris/utils/ustdlib.c ****                     if((pcString[-1] == '0') && (ulCount == 0))
 2006              		.loc 1 273 0
 2007 022c 7B68     		ldr	r3, [r7, #4]
 2008 022e 03F1FF33 		add	r3, r3, #-1
 2009 0232 1B78     		ldrb	r3, [r3, #0]	@ zero_extendqisi2
 2010 0234 302B     		cmp	r3, #48
 2011 0236 05D1     		bne	.L25
 2012              		.loc 1 273 0 is_stmt 0 discriminator 1
 2013 0238 7B6A     		ldr	r3, [r7, #36]
 2014 023a 002B     		cmp	r3, #0
 2015 023c 02D1     		bne	.L25
 274:/home/cuil/workspace/arm/lm3s811/TI_Stellaris/utils/ustdlib.c ****                     {
 275:/home/cuil/workspace/arm/lm3s811/TI_Stellaris/utils/ustdlib.c ****                         cFill = '0';
 2016              		.loc 1 275 0 is_stmt 1
 2017 023e 4FF03003 		mov	r3, #48
 2018 0242 FB76     		strb	r3, [r7, #27]
 2019              	.L25:
 276:/home/cuil/workspace/arm/lm3s811/TI_Stellaris/utils/ustdlib.c ****                     }
 277:/home/cuil/workspace/arm/lm3s811/TI_Stellaris/utils/ustdlib.c **** 
 278:/home/cuil/workspace/arm/lm3s811/TI_Stellaris/utils/ustdlib.c ****                     //
 279:/home/cuil/workspace/arm/lm3s811/TI_Stellaris/utils/ustdlib.c ****                     // Update the digit count.
 280:/home/cuil/workspace/arm/lm3s811/TI_Stellaris/utils/ustdlib.c ****                     //
 281:/home/cuil/workspace/arm/lm3s811/TI_Stellaris/utils/ustdlib.c ****                     ulCount *= 10;
 2020              		.loc 1 281 0
 2021 0244 7A6A     		ldr	r2, [r7, #36]
 2022 0246 1346     		mov	r3, r2
 2023 0248 4FEA8303 		lsl	r3, r3, #2
 2024 024c 9B18     		adds	r3, r3, r2
 2025 024e 4FEA4303 		lsl	r3, r3, #1
 2026 0252 7B62     		str	r3, [r7, #36]
 282:/home/cuil/workspace/arm/lm3s811/TI_Stellaris/utils/ustdlib.c ****                     ulCount += pcString[-1] - '0';
 2027              		.loc 1 282 0
 2028 0254 7B68     		ldr	r3, [r7, #4]
 2029 0256 03F1FF33 		add	r3, r3, #-1
 2030 025a 1B78     		ldrb	r3, [r3, #0]	@ zero_extendqisi2
 2031 025c 1A46     		mov	r2, r3
 2032 025e 7B6A     		ldr	r3, [r7, #36]
 2033 0260 D318     		adds	r3, r2, r3
 2034 0262 A3F13003 		sub	r3, r3, #48
 2035 0266 7B62     		str	r3, [r7, #36]
 283:/home/cuil/workspace/arm/lm3s811/TI_Stellaris/utils/ustdlib.c **** 
 284:/home/cuil/workspace/arm/lm3s811/TI_Stellaris/utils/ustdlib.c ****                     //
 285:/home/cuil/workspace/arm/lm3s811/TI_Stellaris/utils/ustdlib.c ****                     // Get the next character.
 286:/home/cuil/workspace/arm/lm3s811/TI_Stellaris/utils/ustdlib.c ****                     //
 287:/home/cuil/workspace/arm/lm3s811/TI_Stellaris/utils/ustdlib.c ****                     goto again;
 2036              		.loc 1 287 0
 2037 0268 2AE7     		b	.L15
 2038              	.L20:
 288:/home/cuil/workspace/arm/lm3s811/TI_Stellaris/utils/ustdlib.c ****                 }
 289:/home/cuil/workspace/arm/lm3s811/TI_Stellaris/utils/ustdlib.c **** 
 290:/home/cuil/workspace/arm/lm3s811/TI_Stellaris/utils/ustdlib.c ****                 //
 291:/home/cuil/workspace/arm/lm3s811/TI_Stellaris/utils/ustdlib.c ****                 // Handle the %c command.
 292:/home/cuil/workspace/arm/lm3s811/TI_Stellaris/utils/ustdlib.c ****                 //
 293:/home/cuil/workspace/arm/lm3s811/TI_Stellaris/utils/ustdlib.c ****                 case 'c':
 294:/home/cuil/workspace/arm/lm3s811/TI_Stellaris/utils/ustdlib.c ****                 {
 295:/home/cuil/workspace/arm/lm3s811/TI_Stellaris/utils/ustdlib.c ****                     //
 296:/home/cuil/workspace/arm/lm3s811/TI_Stellaris/utils/ustdlib.c ****                     // Get the value from the varargs.
 297:/home/cuil/workspace/arm/lm3s811/TI_Stellaris/utils/ustdlib.c ****                     //
 298:/home/cuil/workspace/arm/lm3s811/TI_Stellaris/utils/ustdlib.c ****                     ulValue = va_arg(vaArgP, unsigned long);
 2039              		.loc 1 298 0
 2040 026a 3B68     		ldr	r3, [r7, #0]
 2041 026c 03F10402 		add	r2, r3, #4
 2042 0270 3A60     		str	r2, [r7, #0]
 2043 0272 1B68     		ldr	r3, [r3, #0]
 2044 0274 BB62     		str	r3, [r7, #40]
 299:/home/cuil/workspace/arm/lm3s811/TI_Stellaris/utils/ustdlib.c **** 
 300:/home/cuil/workspace/arm/lm3s811/TI_Stellaris/utils/ustdlib.c ****                     //
 301:/home/cuil/workspace/arm/lm3s811/TI_Stellaris/utils/ustdlib.c ****                     // Copy the character to the output buffer, if there is
 302:/home/cuil/workspace/arm/lm3s811/TI_Stellaris/utils/ustdlib.c ****                     // room.  Update the buffer size remaining.
 303:/home/cuil/workspace/arm/lm3s811/TI_Stellaris/utils/ustdlib.c ****                     //
 304:/home/cuil/workspace/arm/lm3s811/TI_Stellaris/utils/ustdlib.c ****                     if(ulSize != 0)
 2045              		.loc 1 304 0
 2046 0276 BB68     		ldr	r3, [r7, #8]
 2047 0278 002B     		cmp	r3, #0
 2048 027a 0BD0     		beq	.L26
 305:/home/cuil/workspace/arm/lm3s811/TI_Stellaris/utils/ustdlib.c ****                     {
 306:/home/cuil/workspace/arm/lm3s811/TI_Stellaris/utils/ustdlib.c ****                         *pcBuf++ = (char)ulValue;
 2049              		.loc 1 306 0
 2050 027c BB6A     		ldr	r3, [r7, #40]
 2051 027e DAB2     		uxtb	r2, r3
 2052 0280 FB68     		ldr	r3, [r7, #12]
 2053 0282 1A70     		strb	r2, [r3, #0]
 2054 0284 FB68     		ldr	r3, [r7, #12]
 2055 0286 03F10103 		add	r3, r3, #1
 2056 028a FB60     		str	r3, [r7, #12]
 307:/home/cuil/workspace/arm/lm3s811/TI_Stellaris/utils/ustdlib.c ****                         ulSize--;
 2057              		.loc 1 307 0
 2058 028c BB68     		ldr	r3, [r7, #8]
 2059 028e 03F1FF33 		add	r3, r3, #-1
 2060 0292 BB60     		str	r3, [r7, #8]
 2061              	.L26:
 308:/home/cuil/workspace/arm/lm3s811/TI_Stellaris/utils/ustdlib.c ****                     }
 309:/home/cuil/workspace/arm/lm3s811/TI_Stellaris/utils/ustdlib.c **** 
 310:/home/cuil/workspace/arm/lm3s811/TI_Stellaris/utils/ustdlib.c ****                     //
 311:/home/cuil/workspace/arm/lm3s811/TI_Stellaris/utils/ustdlib.c ****                     // Update the conversion count.
 312:/home/cuil/workspace/arm/lm3s811/TI_Stellaris/utils/ustdlib.c ****                     //
 313:/home/cuil/workspace/arm/lm3s811/TI_Stellaris/utils/ustdlib.c ****                     iConvertCount++;
 2062              		.loc 1 313 0
 2063 0294 7B69     		ldr	r3, [r7, #20]
 2064 0296 03F10103 		add	r3, r3, #1
 2065 029a 7B61     		str	r3, [r7, #20]
 314:/home/cuil/workspace/arm/lm3s811/TI_Stellaris/utils/ustdlib.c **** 
 315:/home/cuil/workspace/arm/lm3s811/TI_Stellaris/utils/ustdlib.c ****                     //
 316:/home/cuil/workspace/arm/lm3s811/TI_Stellaris/utils/ustdlib.c ****                     // This command has been handled.
 317:/home/cuil/workspace/arm/lm3s811/TI_Stellaris/utils/ustdlib.c ****                     //
 318:/home/cuil/workspace/arm/lm3s811/TI_Stellaris/utils/ustdlib.c ****                     break;
 2066              		.loc 1 318 0
 2067 029c 7BE1     		b	.L9
 2068              	.L21:
 319:/home/cuil/workspace/arm/lm3s811/TI_Stellaris/utils/ustdlib.c ****                 }
 320:/home/cuil/workspace/arm/lm3s811/TI_Stellaris/utils/ustdlib.c **** 
 321:/home/cuil/workspace/arm/lm3s811/TI_Stellaris/utils/ustdlib.c ****                 //
 322:/home/cuil/workspace/arm/lm3s811/TI_Stellaris/utils/ustdlib.c ****                 // Handle the %d command.
 323:/home/cuil/workspace/arm/lm3s811/TI_Stellaris/utils/ustdlib.c ****                 //
 324:/home/cuil/workspace/arm/lm3s811/TI_Stellaris/utils/ustdlib.c ****                 case 'd':
 325:/home/cuil/workspace/arm/lm3s811/TI_Stellaris/utils/ustdlib.c ****                 {
 326:/home/cuil/workspace/arm/lm3s811/TI_Stellaris/utils/ustdlib.c ****                     //
 327:/home/cuil/workspace/arm/lm3s811/TI_Stellaris/utils/ustdlib.c ****                     // Get the value from the varargs.
 328:/home/cuil/workspace/arm/lm3s811/TI_Stellaris/utils/ustdlib.c ****                     //
 329:/home/cuil/workspace/arm/lm3s811/TI_Stellaris/utils/ustdlib.c ****                     ulValue = va_arg(vaArgP, unsigned long);
 2069              		.loc 1 329 0
 2070 029e 3B68     		ldr	r3, [r7, #0]
 2071 02a0 03F10402 		add	r2, r3, #4
 2072 02a4 3A60     		str	r2, [r7, #0]
 2073 02a6 1B68     		ldr	r3, [r3, #0]
 2074 02a8 BB62     		str	r3, [r7, #40]
 330:/home/cuil/workspace/arm/lm3s811/TI_Stellaris/utils/ustdlib.c **** 
 331:/home/cuil/workspace/arm/lm3s811/TI_Stellaris/utils/ustdlib.c ****                     //
 332:/home/cuil/workspace/arm/lm3s811/TI_Stellaris/utils/ustdlib.c ****                     // If the value is negative, make it positive and indicate
 333:/home/cuil/workspace/arm/lm3s811/TI_Stellaris/utils/ustdlib.c ****                     // that a minus sign is needed.
 334:/home/cuil/workspace/arm/lm3s811/TI_Stellaris/utils/ustdlib.c ****                     //
 335:/home/cuil/workspace/arm/lm3s811/TI_Stellaris/utils/ustdlib.c ****                     if((long)ulValue < 0)
 2075              		.loc 1 335 0
 2076 02aa BB6A     		ldr	r3, [r7, #40]
 2077 02ac 002B     		cmp	r3, #0
 2078 02ae 07DA     		bge	.L27
 336:/home/cuil/workspace/arm/lm3s811/TI_Stellaris/utils/ustdlib.c ****                     {
 337:/home/cuil/workspace/arm/lm3s811/TI_Stellaris/utils/ustdlib.c ****                         //
 338:/home/cuil/workspace/arm/lm3s811/TI_Stellaris/utils/ustdlib.c ****                         // Make the value positive.
 339:/home/cuil/workspace/arm/lm3s811/TI_Stellaris/utils/ustdlib.c ****                         //
 340:/home/cuil/workspace/arm/lm3s811/TI_Stellaris/utils/ustdlib.c ****                         ulValue = -(long)ulValue;
 2079              		.loc 1 340 0
 2080 02b0 BB6A     		ldr	r3, [r7, #40]
 2081 02b2 C3F10003 		rsb	r3, r3, #0
 2082 02b6 BB62     		str	r3, [r7, #40]
 341:/home/cuil/workspace/arm/lm3s811/TI_Stellaris/utils/ustdlib.c **** 
 342:/home/cuil/workspace/arm/lm3s811/TI_Stellaris/utils/ustdlib.c ****                         //
 343:/home/cuil/workspace/arm/lm3s811/TI_Stellaris/utils/ustdlib.c ****                         // Indicate that the value is negative.
 344:/home/cuil/workspace/arm/lm3s811/TI_Stellaris/utils/ustdlib.c ****                         //
 345:/home/cuil/workspace/arm/lm3s811/TI_Stellaris/utils/ustdlib.c ****                         ulNeg = 1;
 2083              		.loc 1 345 0
 2084 02b8 4FF00103 		mov	r3, #1
 2085 02bc FB61     		str	r3, [r7, #28]
 2086 02be 02E0     		b	.L28
 2087              	.L27:
 346:/home/cuil/workspace/arm/lm3s811/TI_Stellaris/utils/ustdlib.c ****                     }
 347:/home/cuil/workspace/arm/lm3s811/TI_Stellaris/utils/ustdlib.c ****                     else
 348:/home/cuil/workspace/arm/lm3s811/TI_Stellaris/utils/ustdlib.c ****                     {
 349:/home/cuil/workspace/arm/lm3s811/TI_Stellaris/utils/ustdlib.c ****                         //
 350:/home/cuil/workspace/arm/lm3s811/TI_Stellaris/utils/ustdlib.c ****                         // Indicate that the value is positive so that a
 351:/home/cuil/workspace/arm/lm3s811/TI_Stellaris/utils/ustdlib.c ****                         // negative sign isn't inserted.
 352:/home/cuil/workspace/arm/lm3s811/TI_Stellaris/utils/ustdlib.c ****                         //
 353:/home/cuil/workspace/arm/lm3s811/TI_Stellaris/utils/ustdlib.c ****                         ulNeg = 0;
 2088              		.loc 1 353 0
 2089 02c0 4FF00003 		mov	r3, #0
 2090 02c4 FB61     		str	r3, [r7, #28]
 2091              	.L28:
 354:/home/cuil/workspace/arm/lm3s811/TI_Stellaris/utils/ustdlib.c ****                     }
 355:/home/cuil/workspace/arm/lm3s811/TI_Stellaris/utils/ustdlib.c **** 
 356:/home/cuil/workspace/arm/lm3s811/TI_Stellaris/utils/ustdlib.c ****                     //
 357:/home/cuil/workspace/arm/lm3s811/TI_Stellaris/utils/ustdlib.c ****                     // Set the base to 10.
 358:/home/cuil/workspace/arm/lm3s811/TI_Stellaris/utils/ustdlib.c ****                     //
 359:/home/cuil/workspace/arm/lm3s811/TI_Stellaris/utils/ustdlib.c ****                     ulBase = 10;
 2092              		.loc 1 359 0
 2093 02c6 4FF00A03 		mov	r3, #10
 2094 02ca 3B62     		str	r3, [r7, #32]
 360:/home/cuil/workspace/arm/lm3s811/TI_Stellaris/utils/ustdlib.c **** 
 361:/home/cuil/workspace/arm/lm3s811/TI_Stellaris/utils/ustdlib.c ****                     //
 362:/home/cuil/workspace/arm/lm3s811/TI_Stellaris/utils/ustdlib.c ****                     // Convert the value to ASCII.
 363:/home/cuil/workspace/arm/lm3s811/TI_Stellaris/utils/ustdlib.c ****                     //
 364:/home/cuil/workspace/arm/lm3s811/TI_Stellaris/utils/ustdlib.c ****                     goto convert;
 2095              		.loc 1 364 0
 2096 02cc 82E0     		b	.L29
 2097              	.L22:
 365:/home/cuil/workspace/arm/lm3s811/TI_Stellaris/utils/ustdlib.c ****                 }
 366:/home/cuil/workspace/arm/lm3s811/TI_Stellaris/utils/ustdlib.c **** 
 367:/home/cuil/workspace/arm/lm3s811/TI_Stellaris/utils/ustdlib.c ****                 //
 368:/home/cuil/workspace/arm/lm3s811/TI_Stellaris/utils/ustdlib.c ****                 // Handle the %s command.
 369:/home/cuil/workspace/arm/lm3s811/TI_Stellaris/utils/ustdlib.c ****                 //
 370:/home/cuil/workspace/arm/lm3s811/TI_Stellaris/utils/ustdlib.c ****                 case 's':
 371:/home/cuil/workspace/arm/lm3s811/TI_Stellaris/utils/ustdlib.c ****                 {
 372:/home/cuil/workspace/arm/lm3s811/TI_Stellaris/utils/ustdlib.c ****                     //
 373:/home/cuil/workspace/arm/lm3s811/TI_Stellaris/utils/ustdlib.c ****                     // Get the string pointer from the varargs.
 374:/home/cuil/workspace/arm/lm3s811/TI_Stellaris/utils/ustdlib.c ****                     //
 375:/home/cuil/workspace/arm/lm3s811/TI_Stellaris/utils/ustdlib.c ****                     pcStr = va_arg(vaArgP, char *);
 2098              		.loc 1 375 0
 2099 02ce 3B68     		ldr	r3, [r7, #0]
 2100 02d0 03F10402 		add	r2, r3, #4
 2101 02d4 3A60     		str	r2, [r7, #0]
 2102 02d6 1B68     		ldr	r3, [r3, #0]
 2103 02d8 3B61     		str	r3, [r7, #16]
 376:/home/cuil/workspace/arm/lm3s811/TI_Stellaris/utils/ustdlib.c **** 
 377:/home/cuil/workspace/arm/lm3s811/TI_Stellaris/utils/ustdlib.c ****                     //
 378:/home/cuil/workspace/arm/lm3s811/TI_Stellaris/utils/ustdlib.c ****                     // Determine the length of the string.
 379:/home/cuil/workspace/arm/lm3s811/TI_Stellaris/utils/ustdlib.c ****                     //
 380:/home/cuil/workspace/arm/lm3s811/TI_Stellaris/utils/ustdlib.c ****                     for(ulIdx = 0; pcStr[ulIdx] != '\0'; ulIdx++)
 2104              		.loc 1 380 0
 2105 02da 4FF00003 		mov	r3, #0
 2106 02de FB62     		str	r3, [r7, #44]
 2107 02e0 03E0     		b	.L30
 2108              	.L31:
 2109              		.loc 1 380 0 is_stmt 0 discriminator 2
 2110 02e2 FB6A     		ldr	r3, [r7, #44]
 2111 02e4 03F10103 		add	r3, r3, #1
 2112 02e8 FB62     		str	r3, [r7, #44]
 2113              	.L30:
 2114              		.loc 1 380 0 discriminator 1
 2115 02ea 3A69     		ldr	r2, [r7, #16]
 2116 02ec FB6A     		ldr	r3, [r7, #44]
 2117 02ee D318     		adds	r3, r2, r3
 2118 02f0 1B78     		ldrb	r3, [r3, #0]	@ zero_extendqisi2
 2119 02f2 002B     		cmp	r3, #0
 2120 02f4 F5D1     		bne	.L31
 381:/home/cuil/workspace/arm/lm3s811/TI_Stellaris/utils/ustdlib.c ****                     {
 382:/home/cuil/workspace/arm/lm3s811/TI_Stellaris/utils/ustdlib.c ****                     }
 383:/home/cuil/workspace/arm/lm3s811/TI_Stellaris/utils/ustdlib.c **** 
 384:/home/cuil/workspace/arm/lm3s811/TI_Stellaris/utils/ustdlib.c ****                     //
 385:/home/cuil/workspace/arm/lm3s811/TI_Stellaris/utils/ustdlib.c ****                     // Update the convert count to include any padding that
 386:/home/cuil/workspace/arm/lm3s811/TI_Stellaris/utils/ustdlib.c ****                     // should be necessary (regardless of whether we have space
 387:/home/cuil/workspace/arm/lm3s811/TI_Stellaris/utils/ustdlib.c ****                     // to write it or not).
 388:/home/cuil/workspace/arm/lm3s811/TI_Stellaris/utils/ustdlib.c ****                     //
 389:/home/cuil/workspace/arm/lm3s811/TI_Stellaris/utils/ustdlib.c ****                     if(ulCount > ulIdx)
 2121              		.loc 1 389 0 is_stmt 1
 2122 02f6 7A6A     		ldr	r2, [r7, #36]
 2123 02f8 FB6A     		ldr	r3, [r7, #44]
 2124 02fa 9A42     		cmp	r2, r3
 2125 02fc 05D9     		bls	.L32
 390:/home/cuil/workspace/arm/lm3s811/TI_Stellaris/utils/ustdlib.c ****                     {
 391:/home/cuil/workspace/arm/lm3s811/TI_Stellaris/utils/ustdlib.c ****                         iConvertCount += (ulCount - ulIdx);
 2126              		.loc 1 391 0
 2127 02fe 7A6A     		ldr	r2, [r7, #36]
 2128 0300 FB6A     		ldr	r3, [r7, #44]
 2129 0302 D21A     		subs	r2, r2, r3
 2130 0304 7B69     		ldr	r3, [r7, #20]
 2131 0306 D318     		adds	r3, r2, r3
 2132 0308 7B61     		str	r3, [r7, #20]
 2133              	.L32:
 392:/home/cuil/workspace/arm/lm3s811/TI_Stellaris/utils/ustdlib.c ****                     }
 393:/home/cuil/workspace/arm/lm3s811/TI_Stellaris/utils/ustdlib.c **** 
 394:/home/cuil/workspace/arm/lm3s811/TI_Stellaris/utils/ustdlib.c ****                     //
 395:/home/cuil/workspace/arm/lm3s811/TI_Stellaris/utils/ustdlib.c ****                     // Copy the string to the output buffer.  Only copy as much
 396:/home/cuil/workspace/arm/lm3s811/TI_Stellaris/utils/ustdlib.c ****                     // as will fit in the buffer.  Update the output buffer
 397:/home/cuil/workspace/arm/lm3s811/TI_Stellaris/utils/ustdlib.c ****                     // pointer and the space remaining.
 398:/home/cuil/workspace/arm/lm3s811/TI_Stellaris/utils/ustdlib.c ****                     //
 399:/home/cuil/workspace/arm/lm3s811/TI_Stellaris/utils/ustdlib.c ****                     if(ulIdx > ulSize)
 2134              		.loc 1 399 0
 2135 030a FA6A     		ldr	r2, [r7, #44]
 2136 030c BB68     		ldr	r3, [r7, #8]
 2137 030e 9A42     		cmp	r2, r3
 2138 0310 0DD9     		bls	.L33
 400:/home/cuil/workspace/arm/lm3s811/TI_Stellaris/utils/ustdlib.c ****                     {
 401:/home/cuil/workspace/arm/lm3s811/TI_Stellaris/utils/ustdlib.c ****                         ustrncpy(pcBuf, pcStr, ulSize);
 2139              		.loc 1 401 0
 2140 0312 BB68     		ldr	r3, [r7, #8]
 2141 0314 F868     		ldr	r0, [r7, #12]
 2142 0316 3969     		ldr	r1, [r7, #16]
 2143 0318 1A46     		mov	r2, r3
 2144 031a FFF7FEFF 		bl	ustrncpy
 402:/home/cuil/workspace/arm/lm3s811/TI_Stellaris/utils/ustdlib.c ****                         pcBuf += ulSize;
 2145              		.loc 1 402 0
 2146 031e FA68     		ldr	r2, [r7, #12]
 2147 0320 BB68     		ldr	r3, [r7, #8]
 2148 0322 D318     		adds	r3, r2, r3
 2149 0324 FB60     		str	r3, [r7, #12]
 403:/home/cuil/workspace/arm/lm3s811/TI_Stellaris/utils/ustdlib.c ****                         ulSize = 0;
 2150              		.loc 1 403 0
 2151 0326 4FF00003 		mov	r3, #0
 2152 032a BB60     		str	r3, [r7, #8]
 2153 032c 34E0     		b	.L34
 2154              	.L33:
 404:/home/cuil/workspace/arm/lm3s811/TI_Stellaris/utils/ustdlib.c ****                     }
 405:/home/cuil/workspace/arm/lm3s811/TI_Stellaris/utils/ustdlib.c ****                     else
 406:/home/cuil/workspace/arm/lm3s811/TI_Stellaris/utils/ustdlib.c ****                     {
 407:/home/cuil/workspace/arm/lm3s811/TI_Stellaris/utils/ustdlib.c ****                         ustrncpy(pcBuf, pcStr, ulIdx);
 2155              		.loc 1 407 0
 2156 032e FB6A     		ldr	r3, [r7, #44]
 2157 0330 F868     		ldr	r0, [r7, #12]
 2158 0332 3969     		ldr	r1, [r7, #16]
 2159 0334 1A46     		mov	r2, r3
 2160 0336 FFF7FEFF 		bl	ustrncpy
 408:/home/cuil/workspace/arm/lm3s811/TI_Stellaris/utils/ustdlib.c ****                         pcBuf += ulIdx;
 2161              		.loc 1 408 0
 2162 033a FA68     		ldr	r2, [r7, #12]
 2163 033c FB6A     		ldr	r3, [r7, #44]
 2164 033e D318     		adds	r3, r2, r3
 2165 0340 FB60     		str	r3, [r7, #12]
 409:/home/cuil/workspace/arm/lm3s811/TI_Stellaris/utils/ustdlib.c ****                         ulSize -= ulIdx;
 2166              		.loc 1 409 0
 2167 0342 BA68     		ldr	r2, [r7, #8]
 2168 0344 FB6A     		ldr	r3, [r7, #44]
 2169 0346 D31A     		subs	r3, r2, r3
 2170 0348 BB60     		str	r3, [r7, #8]
 410:/home/cuil/workspace/arm/lm3s811/TI_Stellaris/utils/ustdlib.c **** 
 411:/home/cuil/workspace/arm/lm3s811/TI_Stellaris/utils/ustdlib.c ****                         //
 412:/home/cuil/workspace/arm/lm3s811/TI_Stellaris/utils/ustdlib.c ****                         // Write any required padding spaces assuming there is
 413:/home/cuil/workspace/arm/lm3s811/TI_Stellaris/utils/ustdlib.c ****                         // still space in the buffer.
 414:/home/cuil/workspace/arm/lm3s811/TI_Stellaris/utils/ustdlib.c ****                         //
 415:/home/cuil/workspace/arm/lm3s811/TI_Stellaris/utils/ustdlib.c ****                         if(ulCount > ulIdx)
 2171              		.loc 1 415 0
 2172 034a 7A6A     		ldr	r2, [r7, #36]
 2173 034c FB6A     		ldr	r3, [r7, #44]
 2174 034e 9A42     		cmp	r2, r3
 2175 0350 22D9     		bls	.L34
 416:/home/cuil/workspace/arm/lm3s811/TI_Stellaris/utils/ustdlib.c ****                         {
 417:/home/cuil/workspace/arm/lm3s811/TI_Stellaris/utils/ustdlib.c ****                             ulCount -= ulIdx;
 2176              		.loc 1 417 0
 2177 0352 7A6A     		ldr	r2, [r7, #36]
 2178 0354 FB6A     		ldr	r3, [r7, #44]
 2179 0356 D31A     		subs	r3, r2, r3
 2180 0358 7B62     		str	r3, [r7, #36]
 418:/home/cuil/workspace/arm/lm3s811/TI_Stellaris/utils/ustdlib.c ****                             if(ulCount > ulSize)
 2181              		.loc 1 418 0
 2182 035a 7A6A     		ldr	r2, [r7, #36]
 2183 035c BB68     		ldr	r3, [r7, #8]
 2184 035e 9A42     		cmp	r2, r3
 2185 0360 01D9     		bls	.L35
 419:/home/cuil/workspace/arm/lm3s811/TI_Stellaris/utils/ustdlib.c ****                             {
 420:/home/cuil/workspace/arm/lm3s811/TI_Stellaris/utils/ustdlib.c ****                                 ulCount = ulSize;
 2186              		.loc 1 420 0
 2187 0362 BB68     		ldr	r3, [r7, #8]
 2188 0364 7B62     		str	r3, [r7, #36]
 2189              	.L35:
 421:/home/cuil/workspace/arm/lm3s811/TI_Stellaris/utils/ustdlib.c ****                             }
 422:/home/cuil/workspace/arm/lm3s811/TI_Stellaris/utils/ustdlib.c ****                             ulSize =- ulCount;
 2190              		.loc 1 422 0
 2191 0366 7B6A     		ldr	r3, [r7, #36]
 2192 0368 C3F10003 		rsb	r3, r3, #0
 2193 036c BB60     		str	r3, [r7, #8]
 423:/home/cuil/workspace/arm/lm3s811/TI_Stellaris/utils/ustdlib.c **** 
 424:/home/cuil/workspace/arm/lm3s811/TI_Stellaris/utils/ustdlib.c ****                             while(ulCount--)
 2194              		.loc 1 424 0
 2195 036e 07E0     		b	.L36
 2196              	.L37:
 425:/home/cuil/workspace/arm/lm3s811/TI_Stellaris/utils/ustdlib.c ****                             {
 426:/home/cuil/workspace/arm/lm3s811/TI_Stellaris/utils/ustdlib.c ****                                 *pcBuf++ = ' ';
 2197              		.loc 1 426 0
 2198 0370 FB68     		ldr	r3, [r7, #12]
 2199 0372 4FF02002 		mov	r2, #32
 2200 0376 1A70     		strb	r2, [r3, #0]
 2201 0378 FB68     		ldr	r3, [r7, #12]
 2202 037a 03F10103 		add	r3, r3, #1
 2203 037e FB60     		str	r3, [r7, #12]
 2204              	.L36:
 424:/home/cuil/workspace/arm/lm3s811/TI_Stellaris/utils/ustdlib.c ****                             while(ulCount--)
 2205              		.loc 1 424 0 discriminator 1
 2206 0380 7B6A     		ldr	r3, [r7, #36]
 2207 0382 002B     		cmp	r3, #0
 2208 0384 0CBF     		ite	eq
 2209 0386 0023     		moveq	r3, #0
 2210 0388 0123     		movne	r3, #1
 2211 038a DBB2     		uxtb	r3, r3
 2212 038c 7A6A     		ldr	r2, [r7, #36]
 2213 038e 02F1FF32 		add	r2, r2, #-1
 2214 0392 7A62     		str	r2, [r7, #36]
 2215 0394 002B     		cmp	r3, #0
 2216 0396 EBD1     		bne	.L37
 2217              	.L34:
 427:/home/cuil/workspace/arm/lm3s811/TI_Stellaris/utils/ustdlib.c ****                             }
 428:/home/cuil/workspace/arm/lm3s811/TI_Stellaris/utils/ustdlib.c ****                         }
 429:/home/cuil/workspace/arm/lm3s811/TI_Stellaris/utils/ustdlib.c ****                     }
 430:/home/cuil/workspace/arm/lm3s811/TI_Stellaris/utils/ustdlib.c **** 
 431:/home/cuil/workspace/arm/lm3s811/TI_Stellaris/utils/ustdlib.c ****                     //
 432:/home/cuil/workspace/arm/lm3s811/TI_Stellaris/utils/ustdlib.c ****                     // Update the conversion count.  This will be the number of
 433:/home/cuil/workspace/arm/lm3s811/TI_Stellaris/utils/ustdlib.c ****                     // characters that should have been written, even if there
 434:/home/cuil/workspace/arm/lm3s811/TI_Stellaris/utils/ustdlib.c ****                     // was not room in the buffer.
 435:/home/cuil/workspace/arm/lm3s811/TI_Stellaris/utils/ustdlib.c ****                     //
 436:/home/cuil/workspace/arm/lm3s811/TI_Stellaris/utils/ustdlib.c ****                     iConvertCount += ulIdx;
 2218              		.loc 1 436 0
 2219 0398 7A69     		ldr	r2, [r7, #20]
 2220 039a FB6A     		ldr	r3, [r7, #44]
 2221 039c D318     		adds	r3, r2, r3
 2222 039e 7B61     		str	r3, [r7, #20]
 437:/home/cuil/workspace/arm/lm3s811/TI_Stellaris/utils/ustdlib.c **** 
 438:/home/cuil/workspace/arm/lm3s811/TI_Stellaris/utils/ustdlib.c ****                     //
 439:/home/cuil/workspace/arm/lm3s811/TI_Stellaris/utils/ustdlib.c ****                     // This command has been handled.
 440:/home/cuil/workspace/arm/lm3s811/TI_Stellaris/utils/ustdlib.c ****                     //
 441:/home/cuil/workspace/arm/lm3s811/TI_Stellaris/utils/ustdlib.c ****                     break;
 2223              		.loc 1 441 0
 2224 03a0 F9E0     		b	.L9
 2225              	.L23:
 442:/home/cuil/workspace/arm/lm3s811/TI_Stellaris/utils/ustdlib.c ****                 }
 443:/home/cuil/workspace/arm/lm3s811/TI_Stellaris/utils/ustdlib.c **** 
 444:/home/cuil/workspace/arm/lm3s811/TI_Stellaris/utils/ustdlib.c ****                 //
 445:/home/cuil/workspace/arm/lm3s811/TI_Stellaris/utils/ustdlib.c ****                 // Handle the %u command.
 446:/home/cuil/workspace/arm/lm3s811/TI_Stellaris/utils/ustdlib.c ****                 //
 447:/home/cuil/workspace/arm/lm3s811/TI_Stellaris/utils/ustdlib.c ****                 case 'u':
 448:/home/cuil/workspace/arm/lm3s811/TI_Stellaris/utils/ustdlib.c ****                 {
 449:/home/cuil/workspace/arm/lm3s811/TI_Stellaris/utils/ustdlib.c ****                     //
 450:/home/cuil/workspace/arm/lm3s811/TI_Stellaris/utils/ustdlib.c ****                     // Get the value from the varargs.
 451:/home/cuil/workspace/arm/lm3s811/TI_Stellaris/utils/ustdlib.c ****                     //
 452:/home/cuil/workspace/arm/lm3s811/TI_Stellaris/utils/ustdlib.c ****                     ulValue = va_arg(vaArgP, unsigned long);
 2226              		.loc 1 452 0
 2227 03a2 3B68     		ldr	r3, [r7, #0]
 2228 03a4 03F10402 		add	r2, r3, #4
 2229 03a8 3A60     		str	r2, [r7, #0]
 2230 03aa 1B68     		ldr	r3, [r3, #0]
 2231 03ac BB62     		str	r3, [r7, #40]
 453:/home/cuil/workspace/arm/lm3s811/TI_Stellaris/utils/ustdlib.c **** 
 454:/home/cuil/workspace/arm/lm3s811/TI_Stellaris/utils/ustdlib.c ****                     //
 455:/home/cuil/workspace/arm/lm3s811/TI_Stellaris/utils/ustdlib.c ****                     // Set the base to 10.
 456:/home/cuil/workspace/arm/lm3s811/TI_Stellaris/utils/ustdlib.c ****                     //
 457:/home/cuil/workspace/arm/lm3s811/TI_Stellaris/utils/ustdlib.c ****                     ulBase = 10;
 2232              		.loc 1 457 0
 2233 03ae 4FF00A03 		mov	r3, #10
 2234 03b2 3B62     		str	r3, [r7, #32]
 458:/home/cuil/workspace/arm/lm3s811/TI_Stellaris/utils/ustdlib.c **** 
 459:/home/cuil/workspace/arm/lm3s811/TI_Stellaris/utils/ustdlib.c ****                     //
 460:/home/cuil/workspace/arm/lm3s811/TI_Stellaris/utils/ustdlib.c ****                     // Indicate that the value is positive so that a minus sign
 461:/home/cuil/workspace/arm/lm3s811/TI_Stellaris/utils/ustdlib.c ****                     // isn't inserted.
 462:/home/cuil/workspace/arm/lm3s811/TI_Stellaris/utils/ustdlib.c ****                     //
 463:/home/cuil/workspace/arm/lm3s811/TI_Stellaris/utils/ustdlib.c ****                     ulNeg = 0;
 2235              		.loc 1 463 0
 2236 03b4 4FF00003 		mov	r3, #0
 2237 03b8 FB61     		str	r3, [r7, #28]
 464:/home/cuil/workspace/arm/lm3s811/TI_Stellaris/utils/ustdlib.c **** 
 465:/home/cuil/workspace/arm/lm3s811/TI_Stellaris/utils/ustdlib.c ****                     //
 466:/home/cuil/workspace/arm/lm3s811/TI_Stellaris/utils/ustdlib.c ****                     // Convert the value to ASCII.
 467:/home/cuil/workspace/arm/lm3s811/TI_Stellaris/utils/ustdlib.c ****                     //
 468:/home/cuil/workspace/arm/lm3s811/TI_Stellaris/utils/ustdlib.c ****                     goto convert;
 2238              		.loc 1 468 0
 2239 03ba 0BE0     		b	.L29
 2240              	.L19:
 469:/home/cuil/workspace/arm/lm3s811/TI_Stellaris/utils/ustdlib.c ****                 }
 470:/home/cuil/workspace/arm/lm3s811/TI_Stellaris/utils/ustdlib.c **** 
 471:/home/cuil/workspace/arm/lm3s811/TI_Stellaris/utils/ustdlib.c ****                 //
 472:/home/cuil/workspace/arm/lm3s811/TI_Stellaris/utils/ustdlib.c ****                 // Handle the %x and %X commands.  Note that they are treated
 473:/home/cuil/workspace/arm/lm3s811/TI_Stellaris/utils/ustdlib.c ****                 // identically; that is, %X will use lower case letters for a-f
 474:/home/cuil/workspace/arm/lm3s811/TI_Stellaris/utils/ustdlib.c ****                 // instead of the upper case letters is should use.  We also
 475:/home/cuil/workspace/arm/lm3s811/TI_Stellaris/utils/ustdlib.c ****                 // alias %p to %x.
 476:/home/cuil/workspace/arm/lm3s811/TI_Stellaris/utils/ustdlib.c ****                 //
 477:/home/cuil/workspace/arm/lm3s811/TI_Stellaris/utils/ustdlib.c ****                 case 'x':
 478:/home/cuil/workspace/arm/lm3s811/TI_Stellaris/utils/ustdlib.c ****                 case 'X':
 479:/home/cuil/workspace/arm/lm3s811/TI_Stellaris/utils/ustdlib.c ****                 case 'p':
 480:/home/cuil/workspace/arm/lm3s811/TI_Stellaris/utils/ustdlib.c ****                 {
 481:/home/cuil/workspace/arm/lm3s811/TI_Stellaris/utils/ustdlib.c ****                     //
 482:/home/cuil/workspace/arm/lm3s811/TI_Stellaris/utils/ustdlib.c ****                     // Get the value from the varargs.
 483:/home/cuil/workspace/arm/lm3s811/TI_Stellaris/utils/ustdlib.c ****                     //
 484:/home/cuil/workspace/arm/lm3s811/TI_Stellaris/utils/ustdlib.c ****                     ulValue = va_arg(vaArgP, unsigned long);
 2241              		.loc 1 484 0
 2242 03bc 3B68     		ldr	r3, [r7, #0]
 2243 03be 03F10402 		add	r2, r3, #4
 2244 03c2 3A60     		str	r2, [r7, #0]
 2245 03c4 1B68     		ldr	r3, [r3, #0]
 2246 03c6 BB62     		str	r3, [r7, #40]
 485:/home/cuil/workspace/arm/lm3s811/TI_Stellaris/utils/ustdlib.c **** 
 486:/home/cuil/workspace/arm/lm3s811/TI_Stellaris/utils/ustdlib.c ****                     //
 487:/home/cuil/workspace/arm/lm3s811/TI_Stellaris/utils/ustdlib.c ****                     // Set the base to 16.
 488:/home/cuil/workspace/arm/lm3s811/TI_Stellaris/utils/ustdlib.c ****                     //
 489:/home/cuil/workspace/arm/lm3s811/TI_Stellaris/utils/ustdlib.c ****                     ulBase = 16;
 2247              		.loc 1 489 0
 2248 03c8 4FF01003 		mov	r3, #16
 2249 03cc 3B62     		str	r3, [r7, #32]
 490:/home/cuil/workspace/arm/lm3s811/TI_Stellaris/utils/ustdlib.c **** 
 491:/home/cuil/workspace/arm/lm3s811/TI_Stellaris/utils/ustdlib.c ****                     //
 492:/home/cuil/workspace/arm/lm3s811/TI_Stellaris/utils/ustdlib.c ****                     // Indicate that the value is positive so that a minus sign
 493:/home/cuil/workspace/arm/lm3s811/TI_Stellaris/utils/ustdlib.c ****                     // isn't inserted.
 494:/home/cuil/workspace/arm/lm3s811/TI_Stellaris/utils/ustdlib.c ****                     //
 495:/home/cuil/workspace/arm/lm3s811/TI_Stellaris/utils/ustdlib.c ****                     ulNeg = 0;
 2250              		.loc 1 495 0
 2251 03ce 4FF00003 		mov	r3, #0
 2252 03d2 FB61     		str	r3, [r7, #28]
 2253              	.L29:
 496:/home/cuil/workspace/arm/lm3s811/TI_Stellaris/utils/ustdlib.c **** 
 497:/home/cuil/workspace/arm/lm3s811/TI_Stellaris/utils/ustdlib.c ****                     //
 498:/home/cuil/workspace/arm/lm3s811/TI_Stellaris/utils/ustdlib.c ****                     // Determine the number of digits in the string version of
 499:/home/cuil/workspace/arm/lm3s811/TI_Stellaris/utils/ustdlib.c ****                     // the value.
 500:/home/cuil/workspace/arm/lm3s811/TI_Stellaris/utils/ustdlib.c ****                     //
 501:/home/cuil/workspace/arm/lm3s811/TI_Stellaris/utils/ustdlib.c **** convert:
 502:/home/cuil/workspace/arm/lm3s811/TI_Stellaris/utils/ustdlib.c ****                     for(ulIdx = 1;
 2254              		.loc 1 502 0
 2255 03d4 4FF00103 		mov	r3, #1
 2256 03d8 FB62     		str	r3, [r7, #44]
 2257 03da 08E0     		b	.L38
 2258              	.L40:
 503:/home/cuil/workspace/arm/lm3s811/TI_Stellaris/utils/ustdlib.c ****                         (((ulIdx * ulBase) <= ulValue) &&
 504:/home/cuil/workspace/arm/lm3s811/TI_Stellaris/utils/ustdlib.c ****                          (((ulIdx * ulBase) / ulBase) == ulIdx));
 505:/home/cuil/workspace/arm/lm3s811/TI_Stellaris/utils/ustdlib.c ****                         ulIdx *= ulBase, ulCount--)
 2259              		.loc 1 505 0
 2260 03dc FB6A     		ldr	r3, [r7, #44]
 2261 03de 3A6A     		ldr	r2, [r7, #32]
 2262 03e0 02FB03F3 		mul	r3, r2, r3
 2263 03e4 FB62     		str	r3, [r7, #44]
 2264 03e6 7B6A     		ldr	r3, [r7, #36]
 2265 03e8 03F1FF33 		add	r3, r3, #-1
 2266 03ec 7B62     		str	r3, [r7, #36]
 2267              	.L38:
 503:/home/cuil/workspace/arm/lm3s811/TI_Stellaris/utils/ustdlib.c ****                         (((ulIdx * ulBase) <= ulValue) &&
 2268              		.loc 1 503 0 discriminator 1
 2269 03ee FB6A     		ldr	r3, [r7, #44]
 2270 03f0 3A6A     		ldr	r2, [r7, #32]
 2271 03f2 02FB03F2 		mul	r2, r2, r3
 502:/home/cuil/workspace/arm/lm3s811/TI_Stellaris/utils/ustdlib.c ****                     for(ulIdx = 1;
 2272              		.loc 1 502 0 discriminator 1
 2273 03f6 BB6A     		ldr	r3, [r7, #40]
 2274 03f8 9A42     		cmp	r2, r3
 2275 03fa 09D8     		bhi	.L39
 504:/home/cuil/workspace/arm/lm3s811/TI_Stellaris/utils/ustdlib.c ****                          (((ulIdx * ulBase) / ulBase) == ulIdx));
 2276              		.loc 1 504 0
 2277 03fc FB6A     		ldr	r3, [r7, #44]
 2278 03fe 3A6A     		ldr	r2, [r7, #32]
 2279 0400 02FB03F2 		mul	r2, r2, r3
 2280 0404 3B6A     		ldr	r3, [r7, #32]
 2281 0406 B2FBF3F2 		udiv	r2, r2, r3
 503:/home/cuil/workspace/arm/lm3s811/TI_Stellaris/utils/ustdlib.c ****                         (((ulIdx * ulBase) <= ulValue) &&
 2282              		.loc 1 503 0
 2283 040a FB6A     		ldr	r3, [r7, #44]
 2284 040c 9A42     		cmp	r2, r3
 2285 040e E5D0     		beq	.L40
 2286              	.L39:
 506:/home/cuil/workspace/arm/lm3s811/TI_Stellaris/utils/ustdlib.c ****                     {
 507:/home/cuil/workspace/arm/lm3s811/TI_Stellaris/utils/ustdlib.c ****                     }
 508:/home/cuil/workspace/arm/lm3s811/TI_Stellaris/utils/ustdlib.c **** 
 509:/home/cuil/workspace/arm/lm3s811/TI_Stellaris/utils/ustdlib.c ****                     //
 510:/home/cuil/workspace/arm/lm3s811/TI_Stellaris/utils/ustdlib.c ****                     // If the value is negative, reduce the count of padding
 511:/home/cuil/workspace/arm/lm3s811/TI_Stellaris/utils/ustdlib.c ****                     // characters needed.
 512:/home/cuil/workspace/arm/lm3s811/TI_Stellaris/utils/ustdlib.c ****                     //
 513:/home/cuil/workspace/arm/lm3s811/TI_Stellaris/utils/ustdlib.c ****                     if(ulNeg)
 2287              		.loc 1 513 0
 2288 0410 FB69     		ldr	r3, [r7, #28]
 2289 0412 002B     		cmp	r3, #0
 2290 0414 03D0     		beq	.L41
 514:/home/cuil/workspace/arm/lm3s811/TI_Stellaris/utils/ustdlib.c ****                     {
 515:/home/cuil/workspace/arm/lm3s811/TI_Stellaris/utils/ustdlib.c ****                         ulCount--;
 2291              		.loc 1 515 0
 2292 0416 7B6A     		ldr	r3, [r7, #36]
 2293 0418 03F1FF33 		add	r3, r3, #-1
 2294 041c 7B62     		str	r3, [r7, #36]
 2295              	.L41:
 516:/home/cuil/workspace/arm/lm3s811/TI_Stellaris/utils/ustdlib.c ****                     }
 517:/home/cuil/workspace/arm/lm3s811/TI_Stellaris/utils/ustdlib.c **** 
 518:/home/cuil/workspace/arm/lm3s811/TI_Stellaris/utils/ustdlib.c ****                     //
 519:/home/cuil/workspace/arm/lm3s811/TI_Stellaris/utils/ustdlib.c ****                     // If the value is negative and the value is padded with
 520:/home/cuil/workspace/arm/lm3s811/TI_Stellaris/utils/ustdlib.c ****                     // zeros, then place the minus sign before the padding.
 521:/home/cuil/workspace/arm/lm3s811/TI_Stellaris/utils/ustdlib.c ****                     //
 522:/home/cuil/workspace/arm/lm3s811/TI_Stellaris/utils/ustdlib.c ****                     if(ulNeg && (ulSize != 0) && (cFill == '0'))
 2296              		.loc 1 522 0
 2297 041e FB69     		ldr	r3, [r7, #28]
 2298 0420 002B     		cmp	r3, #0
 2299 0422 18D0     		beq	.L42
 2300              		.loc 1 522 0 is_stmt 0 discriminator 1
 2301 0424 BB68     		ldr	r3, [r7, #8]
 2302 0426 002B     		cmp	r3, #0
 2303 0428 15D0     		beq	.L42
 2304 042a FB7E     		ldrb	r3, [r7, #27]	@ zero_extendqisi2
 2305 042c 302B     		cmp	r3, #48
 2306 042e 12D1     		bne	.L42
 523:/home/cuil/workspace/arm/lm3s811/TI_Stellaris/utils/ustdlib.c ****                     {
 524:/home/cuil/workspace/arm/lm3s811/TI_Stellaris/utils/ustdlib.c ****                         //
 525:/home/cuil/workspace/arm/lm3s811/TI_Stellaris/utils/ustdlib.c ****                         // Place the minus sign in the output buffer.
 526:/home/cuil/workspace/arm/lm3s811/TI_Stellaris/utils/ustdlib.c ****                         //
 527:/home/cuil/workspace/arm/lm3s811/TI_Stellaris/utils/ustdlib.c ****                         *pcBuf++ = '-';
 2307              		.loc 1 527 0 is_stmt 1
 2308 0430 FB68     		ldr	r3, [r7, #12]
 2309 0432 4FF02D02 		mov	r2, #45
 2310 0436 1A70     		strb	r2, [r3, #0]
 2311 0438 FB68     		ldr	r3, [r7, #12]
 2312 043a 03F10103 		add	r3, r3, #1
 2313 043e FB60     		str	r3, [r7, #12]
 528:/home/cuil/workspace/arm/lm3s811/TI_Stellaris/utils/ustdlib.c ****                         ulSize--;
 2314              		.loc 1 528 0
 2315 0440 BB68     		ldr	r3, [r7, #8]
 2316 0442 03F1FF33 		add	r3, r3, #-1
 2317 0446 BB60     		str	r3, [r7, #8]
 529:/home/cuil/workspace/arm/lm3s811/TI_Stellaris/utils/ustdlib.c **** 
 530:/home/cuil/workspace/arm/lm3s811/TI_Stellaris/utils/ustdlib.c ****                         //
 531:/home/cuil/workspace/arm/lm3s811/TI_Stellaris/utils/ustdlib.c ****                         // Update the conversion count.
 532:/home/cuil/workspace/arm/lm3s811/TI_Stellaris/utils/ustdlib.c ****                         //
 533:/home/cuil/workspace/arm/lm3s811/TI_Stellaris/utils/ustdlib.c ****                         iConvertCount++;
 2318              		.loc 1 533 0
 2319 0448 7B69     		ldr	r3, [r7, #20]
 2320 044a 03F10103 		add	r3, r3, #1
 2321 044e 7B61     		str	r3, [r7, #20]
 534:/home/cuil/workspace/arm/lm3s811/TI_Stellaris/utils/ustdlib.c **** 
 535:/home/cuil/workspace/arm/lm3s811/TI_Stellaris/utils/ustdlib.c ****                         //
 536:/home/cuil/workspace/arm/lm3s811/TI_Stellaris/utils/ustdlib.c ****                         // The minus sign has been placed, so turn off the
 537:/home/cuil/workspace/arm/lm3s811/TI_Stellaris/utils/ustdlib.c ****                         // negative flag.
 538:/home/cuil/workspace/arm/lm3s811/TI_Stellaris/utils/ustdlib.c ****                         //
 539:/home/cuil/workspace/arm/lm3s811/TI_Stellaris/utils/ustdlib.c ****                         ulNeg = 0;
 2322              		.loc 1 539 0
 2323 0450 4FF00003 		mov	r3, #0
 2324 0454 FB61     		str	r3, [r7, #28]
 2325              	.L42:
 540:/home/cuil/workspace/arm/lm3s811/TI_Stellaris/utils/ustdlib.c ****                     }
 541:/home/cuil/workspace/arm/lm3s811/TI_Stellaris/utils/ustdlib.c **** 
 542:/home/cuil/workspace/arm/lm3s811/TI_Stellaris/utils/ustdlib.c ****                     //
 543:/home/cuil/workspace/arm/lm3s811/TI_Stellaris/utils/ustdlib.c ****                     // See if there are more characters in the specified field
 544:/home/cuil/workspace/arm/lm3s811/TI_Stellaris/utils/ustdlib.c ****                     // width than there are in the conversion of this value.
 545:/home/cuil/workspace/arm/lm3s811/TI_Stellaris/utils/ustdlib.c ****                     //
 546:/home/cuil/workspace/arm/lm3s811/TI_Stellaris/utils/ustdlib.c ****                     if((ulCount > 1) && (ulCount < 65536))
 2326              		.loc 1 546 0
 2327 0456 7B6A     		ldr	r3, [r7, #36]
 2328 0458 012B     		cmp	r3, #1
 2329 045a 22D9     		bls	.L43
 2330              		.loc 1 546 0 is_stmt 0 discriminator 1
 2331 045c 7A6A     		ldr	r2, [r7, #36]
 2332 045e 4FF6FF73 		movw	r3, #65535
 2333 0462 9A42     		cmp	r2, r3
 2334 0464 1DD8     		bhi	.L43
 547:/home/cuil/workspace/arm/lm3s811/TI_Stellaris/utils/ustdlib.c ****                     {
 548:/home/cuil/workspace/arm/lm3s811/TI_Stellaris/utils/ustdlib.c ****                         //
 549:/home/cuil/workspace/arm/lm3s811/TI_Stellaris/utils/ustdlib.c ****                         // Loop through the required padding characters.
 550:/home/cuil/workspace/arm/lm3s811/TI_Stellaris/utils/ustdlib.c ****                         //
 551:/home/cuil/workspace/arm/lm3s811/TI_Stellaris/utils/ustdlib.c ****                         for(ulCount--; ulCount; ulCount--)
 2335              		.loc 1 551 0 is_stmt 1
 2336 0466 7B6A     		ldr	r3, [r7, #36]
 2337 0468 03F1FF33 		add	r3, r3, #-1
 2338 046c 7B62     		str	r3, [r7, #36]
 2339 046e 15E0     		b	.L44
 2340              	.L46:
 552:/home/cuil/workspace/arm/lm3s811/TI_Stellaris/utils/ustdlib.c ****                         {
 553:/home/cuil/workspace/arm/lm3s811/TI_Stellaris/utils/ustdlib.c ****                             //
 554:/home/cuil/workspace/arm/lm3s811/TI_Stellaris/utils/ustdlib.c ****                             // Copy the character to the output buffer if there
 555:/home/cuil/workspace/arm/lm3s811/TI_Stellaris/utils/ustdlib.c ****                             // is room.
 556:/home/cuil/workspace/arm/lm3s811/TI_Stellaris/utils/ustdlib.c ****                             //
 557:/home/cuil/workspace/arm/lm3s811/TI_Stellaris/utils/ustdlib.c ****                             if(ulSize != 0)
 2341              		.loc 1 557 0
 2342 0470 BB68     		ldr	r3, [r7, #8]
 2343 0472 002B     		cmp	r3, #0
 2344 0474 0AD0     		beq	.L45
 558:/home/cuil/workspace/arm/lm3s811/TI_Stellaris/utils/ustdlib.c ****                             {
 559:/home/cuil/workspace/arm/lm3s811/TI_Stellaris/utils/ustdlib.c ****                                 *pcBuf++ = cFill;
 2345              		.loc 1 559 0
 2346 0476 FB68     		ldr	r3, [r7, #12]
 2347 0478 FA7E     		ldrb	r2, [r7, #27]
 2348 047a 1A70     		strb	r2, [r3, #0]
 2349 047c FB68     		ldr	r3, [r7, #12]
 2350 047e 03F10103 		add	r3, r3, #1
 2351 0482 FB60     		str	r3, [r7, #12]
 560:/home/cuil/workspace/arm/lm3s811/TI_Stellaris/utils/ustdlib.c ****                                 ulSize--;
 2352              		.loc 1 560 0
 2353 0484 BB68     		ldr	r3, [r7, #8]
 2354 0486 03F1FF33 		add	r3, r3, #-1
 2355 048a BB60     		str	r3, [r7, #8]
 2356              	.L45:
 561:/home/cuil/workspace/arm/lm3s811/TI_Stellaris/utils/ustdlib.c ****                             }
 562:/home/cuil/workspace/arm/lm3s811/TI_Stellaris/utils/ustdlib.c **** 
 563:/home/cuil/workspace/arm/lm3s811/TI_Stellaris/utils/ustdlib.c ****                             //
 564:/home/cuil/workspace/arm/lm3s811/TI_Stellaris/utils/ustdlib.c ****                             // Update the conversion count.
 565:/home/cuil/workspace/arm/lm3s811/TI_Stellaris/utils/ustdlib.c ****                             //
 566:/home/cuil/workspace/arm/lm3s811/TI_Stellaris/utils/ustdlib.c ****                             iConvertCount++;
 2357              		.loc 1 566 0
 2358 048c 7B69     		ldr	r3, [r7, #20]
 2359 048e 03F10103 		add	r3, r3, #1
 2360 0492 7B61     		str	r3, [r7, #20]
 551:/home/cuil/workspace/arm/lm3s811/TI_Stellaris/utils/ustdlib.c ****                         for(ulCount--; ulCount; ulCount--)
 2361              		.loc 1 551 0
 2362 0494 7B6A     		ldr	r3, [r7, #36]
 2363 0496 03F1FF33 		add	r3, r3, #-1
 2364 049a 7B62     		str	r3, [r7, #36]
 2365              	.L44:
 551:/home/cuil/workspace/arm/lm3s811/TI_Stellaris/utils/ustdlib.c ****                         for(ulCount--; ulCount; ulCount--)
 2366              		.loc 1 551 0 is_stmt 0 discriminator 1
 2367 049c 7B6A     		ldr	r3, [r7, #36]
 2368 049e 002B     		cmp	r3, #0
 2369 04a0 E6D1     		bne	.L46
 2370              	.L43:
 567:/home/cuil/workspace/arm/lm3s811/TI_Stellaris/utils/ustdlib.c ****                         }
 568:/home/cuil/workspace/arm/lm3s811/TI_Stellaris/utils/ustdlib.c ****                     }
 569:/home/cuil/workspace/arm/lm3s811/TI_Stellaris/utils/ustdlib.c **** 
 570:/home/cuil/workspace/arm/lm3s811/TI_Stellaris/utils/ustdlib.c ****                     //
 571:/home/cuil/workspace/arm/lm3s811/TI_Stellaris/utils/ustdlib.c ****                     // If the value is negative, then place the minus sign
 572:/home/cuil/workspace/arm/lm3s811/TI_Stellaris/utils/ustdlib.c ****                     // before the number.
 573:/home/cuil/workspace/arm/lm3s811/TI_Stellaris/utils/ustdlib.c ****                     //
 574:/home/cuil/workspace/arm/lm3s811/TI_Stellaris/utils/ustdlib.c ****                     if(ulNeg && (ulSize != 0))
 2371              		.loc 1 574 0 is_stmt 1
 2372 04a2 FB69     		ldr	r3, [r7, #28]
 2373 04a4 002B     		cmp	r3, #0
 2374 04a6 38D0     		beq	.L48
 2375              		.loc 1 574 0 is_stmt 0 discriminator 1
 2376 04a8 BB68     		ldr	r3, [r7, #8]
 2377 04aa 002B     		cmp	r3, #0
 2378 04ac 35D0     		beq	.L48
 575:/home/cuil/workspace/arm/lm3s811/TI_Stellaris/utils/ustdlib.c ****                     {
 576:/home/cuil/workspace/arm/lm3s811/TI_Stellaris/utils/ustdlib.c ****                         //
 577:/home/cuil/workspace/arm/lm3s811/TI_Stellaris/utils/ustdlib.c ****                         // Place the minus sign in the output buffer.
 578:/home/cuil/workspace/arm/lm3s811/TI_Stellaris/utils/ustdlib.c ****                         //
 579:/home/cuil/workspace/arm/lm3s811/TI_Stellaris/utils/ustdlib.c ****                         *pcBuf++ = '-';
 2379              		.loc 1 579 0 is_stmt 1
 2380 04ae FB68     		ldr	r3, [r7, #12]
 2381 04b0 4FF02D02 		mov	r2, #45
 2382 04b4 1A70     		strb	r2, [r3, #0]
 2383 04b6 FB68     		ldr	r3, [r7, #12]
 2384 04b8 03F10103 		add	r3, r3, #1
 2385 04bc FB60     		str	r3, [r7, #12]
 580:/home/cuil/workspace/arm/lm3s811/TI_Stellaris/utils/ustdlib.c ****                         ulSize--;
 2386              		.loc 1 580 0
 2387 04be BB68     		ldr	r3, [r7, #8]
 2388 04c0 03F1FF33 		add	r3, r3, #-1
 2389 04c4 BB60     		str	r3, [r7, #8]
 581:/home/cuil/workspace/arm/lm3s811/TI_Stellaris/utils/ustdlib.c **** 
 582:/home/cuil/workspace/arm/lm3s811/TI_Stellaris/utils/ustdlib.c ****                         //
 583:/home/cuil/workspace/arm/lm3s811/TI_Stellaris/utils/ustdlib.c ****                         // Update the conversion count.
 584:/home/cuil/workspace/arm/lm3s811/TI_Stellaris/utils/ustdlib.c ****                         //
 585:/home/cuil/workspace/arm/lm3s811/TI_Stellaris/utils/ustdlib.c ****                         iConvertCount++;
 2390              		.loc 1 585 0
 2391 04c6 7B69     		ldr	r3, [r7, #20]
 2392 04c8 03F10103 		add	r3, r3, #1
 2393 04cc 7B61     		str	r3, [r7, #20]
 586:/home/cuil/workspace/arm/lm3s811/TI_Stellaris/utils/ustdlib.c ****                     }
 587:/home/cuil/workspace/arm/lm3s811/TI_Stellaris/utils/ustdlib.c **** 
 588:/home/cuil/workspace/arm/lm3s811/TI_Stellaris/utils/ustdlib.c ****                     //
 589:/home/cuil/workspace/arm/lm3s811/TI_Stellaris/utils/ustdlib.c ****                     // Convert the value into a string.
 590:/home/cuil/workspace/arm/lm3s811/TI_Stellaris/utils/ustdlib.c ****                     //
 591:/home/cuil/workspace/arm/lm3s811/TI_Stellaris/utils/ustdlib.c ****                     for(; ulIdx; ulIdx /= ulBase)
 2394              		.loc 1 591 0
 2395 04ce 24E0     		b	.L48
 2396              	.L50:
 592:/home/cuil/workspace/arm/lm3s811/TI_Stellaris/utils/ustdlib.c ****                     {
 593:/home/cuil/workspace/arm/lm3s811/TI_Stellaris/utils/ustdlib.c ****                         //
 594:/home/cuil/workspace/arm/lm3s811/TI_Stellaris/utils/ustdlib.c ****                         // Copy the character to the output buffer if there is
 595:/home/cuil/workspace/arm/lm3s811/TI_Stellaris/utils/ustdlib.c ****                         // room.
 596:/home/cuil/workspace/arm/lm3s811/TI_Stellaris/utils/ustdlib.c ****                         //
 597:/home/cuil/workspace/arm/lm3s811/TI_Stellaris/utils/ustdlib.c ****                         if(ulSize != 0)
 2397              		.loc 1 597 0
 2398 04d0 BB68     		ldr	r3, [r7, #8]
 2399 04d2 002B     		cmp	r3, #0
 2400 04d4 18D0     		beq	.L49
 598:/home/cuil/workspace/arm/lm3s811/TI_Stellaris/utils/ustdlib.c ****                         {
 599:/home/cuil/workspace/arm/lm3s811/TI_Stellaris/utils/ustdlib.c ****                             *pcBuf++ = g_pcHex[(ulValue / ulIdx) % ulBase];
 2401              		.loc 1 599 0
 2402 04d6 374B     		ldr	r3, .L55
 2403 04d8 1A68     		ldr	r2, [r3, #0]
 2404 04da B96A     		ldr	r1, [r7, #40]
 2405 04dc FB6A     		ldr	r3, [r7, #44]
 2406 04de B1FBF3F3 		udiv	r3, r1, r3
 2407 04e2 396A     		ldr	r1, [r7, #32]
 2408 04e4 B3FBF1F1 		udiv	r1, r3, r1
 2409 04e8 386A     		ldr	r0, [r7, #32]
 2410 04ea 00FB01F1 		mul	r1, r0, r1
 2411 04ee 5B1A     		subs	r3, r3, r1
 2412 04f0 D318     		adds	r3, r2, r3
 2413 04f2 1A78     		ldrb	r2, [r3, #0]	@ zero_extendqisi2
 2414 04f4 FB68     		ldr	r3, [r7, #12]
 2415 04f6 1A70     		strb	r2, [r3, #0]
 2416 04f8 FB68     		ldr	r3, [r7, #12]
 2417 04fa 03F10103 		add	r3, r3, #1
 2418 04fe FB60     		str	r3, [r7, #12]
 600:/home/cuil/workspace/arm/lm3s811/TI_Stellaris/utils/ustdlib.c ****                             ulSize--;
 2419              		.loc 1 600 0
 2420 0500 BB68     		ldr	r3, [r7, #8]
 2421 0502 03F1FF33 		add	r3, r3, #-1
 2422 0506 BB60     		str	r3, [r7, #8]
 2423              	.L49:
 601:/home/cuil/workspace/arm/lm3s811/TI_Stellaris/utils/ustdlib.c ****                         }
 602:/home/cuil/workspace/arm/lm3s811/TI_Stellaris/utils/ustdlib.c **** 
 603:/home/cuil/workspace/arm/lm3s811/TI_Stellaris/utils/ustdlib.c ****                         //
 604:/home/cuil/workspace/arm/lm3s811/TI_Stellaris/utils/ustdlib.c ****                         // Update the conversion count.
 605:/home/cuil/workspace/arm/lm3s811/TI_Stellaris/utils/ustdlib.c ****                         //
 606:/home/cuil/workspace/arm/lm3s811/TI_Stellaris/utils/ustdlib.c ****                         iConvertCount++;
 2424              		.loc 1 606 0
 2425 0508 7B69     		ldr	r3, [r7, #20]
 2426 050a 03F10103 		add	r3, r3, #1
 2427 050e 7B61     		str	r3, [r7, #20]
 591:/home/cuil/workspace/arm/lm3s811/TI_Stellaris/utils/ustdlib.c ****                     for(; ulIdx; ulIdx /= ulBase)
 2428              		.loc 1 591 0
 2429 0510 FA6A     		ldr	r2, [r7, #44]
 2430 0512 3B6A     		ldr	r3, [r7, #32]
 2431 0514 B2FBF3F3 		udiv	r3, r2, r3
 2432 0518 FB62     		str	r3, [r7, #44]
 2433              	.L48:
 591:/home/cuil/workspace/arm/lm3s811/TI_Stellaris/utils/ustdlib.c ****                     for(; ulIdx; ulIdx /= ulBase)
 2434              		.loc 1 591 0 is_stmt 0 discriminator 1
 2435 051a FB6A     		ldr	r3, [r7, #44]
 2436 051c 002B     		cmp	r3, #0
 2437 051e D7D1     		bne	.L50
 607:/home/cuil/workspace/arm/lm3s811/TI_Stellaris/utils/ustdlib.c ****                     }
 608:/home/cuil/workspace/arm/lm3s811/TI_Stellaris/utils/ustdlib.c **** 
 609:/home/cuil/workspace/arm/lm3s811/TI_Stellaris/utils/ustdlib.c ****                     //
 610:/home/cuil/workspace/arm/lm3s811/TI_Stellaris/utils/ustdlib.c ****                     // This command has been handled.
 611:/home/cuil/workspace/arm/lm3s811/TI_Stellaris/utils/ustdlib.c ****                     //
 612:/home/cuil/workspace/arm/lm3s811/TI_Stellaris/utils/ustdlib.c ****                     break;
 2438              		.loc 1 612 0 is_stmt 1
 2439 0520 39E0     		b	.L9
 2440              	.L17:
 613:/home/cuil/workspace/arm/lm3s811/TI_Stellaris/utils/ustdlib.c ****                 }
 614:/home/cuil/workspace/arm/lm3s811/TI_Stellaris/utils/ustdlib.c **** 
 615:/home/cuil/workspace/arm/lm3s811/TI_Stellaris/utils/ustdlib.c ****                 //
 616:/home/cuil/workspace/arm/lm3s811/TI_Stellaris/utils/ustdlib.c ****                 // Handle the %% command.
 617:/home/cuil/workspace/arm/lm3s811/TI_Stellaris/utils/ustdlib.c ****                 //
 618:/home/cuil/workspace/arm/lm3s811/TI_Stellaris/utils/ustdlib.c ****                 case '%':
 619:/home/cuil/workspace/arm/lm3s811/TI_Stellaris/utils/ustdlib.c ****                 {
 620:/home/cuil/workspace/arm/lm3s811/TI_Stellaris/utils/ustdlib.c ****                     //
 621:/home/cuil/workspace/arm/lm3s811/TI_Stellaris/utils/ustdlib.c ****                     // Simply write a single %.
 622:/home/cuil/workspace/arm/lm3s811/TI_Stellaris/utils/ustdlib.c ****                     //
 623:/home/cuil/workspace/arm/lm3s811/TI_Stellaris/utils/ustdlib.c ****                     if(ulSize != 0)
 2441              		.loc 1 623 0
 2442 0522 BB68     		ldr	r3, [r7, #8]
 2443 0524 002B     		cmp	r3, #0
 2444 0526 0DD0     		beq	.L51
 624:/home/cuil/workspace/arm/lm3s811/TI_Stellaris/utils/ustdlib.c ****                     {
 625:/home/cuil/workspace/arm/lm3s811/TI_Stellaris/utils/ustdlib.c ****                         *pcBuf++ = pcString[-1];
 2445              		.loc 1 625 0
 2446 0528 7B68     		ldr	r3, [r7, #4]
 2447 052a 03F1FF33 		add	r3, r3, #-1
 2448 052e 1A78     		ldrb	r2, [r3, #0]	@ zero_extendqisi2
 2449 0530 FB68     		ldr	r3, [r7, #12]
 2450 0532 1A70     		strb	r2, [r3, #0]
 2451 0534 FB68     		ldr	r3, [r7, #12]
 2452 0536 03F10103 		add	r3, r3, #1
 2453 053a FB60     		str	r3, [r7, #12]
 626:/home/cuil/workspace/arm/lm3s811/TI_Stellaris/utils/ustdlib.c ****                         ulSize--;
 2454              		.loc 1 626 0
 2455 053c BB68     		ldr	r3, [r7, #8]
 2456 053e 03F1FF33 		add	r3, r3, #-1
 2457 0542 BB60     		str	r3, [r7, #8]
 2458              	.L51:
 627:/home/cuil/workspace/arm/lm3s811/TI_Stellaris/utils/ustdlib.c ****                     }
 628:/home/cuil/workspace/arm/lm3s811/TI_Stellaris/utils/ustdlib.c **** 
 629:/home/cuil/workspace/arm/lm3s811/TI_Stellaris/utils/ustdlib.c ****                     //
 630:/home/cuil/workspace/arm/lm3s811/TI_Stellaris/utils/ustdlib.c ****                     // Update the conversion count.
 631:/home/cuil/workspace/arm/lm3s811/TI_Stellaris/utils/ustdlib.c ****                     //
 632:/home/cuil/workspace/arm/lm3s811/TI_Stellaris/utils/ustdlib.c ****                     iConvertCount++;
 2459              		.loc 1 632 0
 2460 0544 7B69     		ldr	r3, [r7, #20]
 2461 0546 03F10103 		add	r3, r3, #1
 2462 054a 7B61     		str	r3, [r7, #20]
 633:/home/cuil/workspace/arm/lm3s811/TI_Stellaris/utils/ustdlib.c **** 
 634:/home/cuil/workspace/arm/lm3s811/TI_Stellaris/utils/ustdlib.c ****                     //
 635:/home/cuil/workspace/arm/lm3s811/TI_Stellaris/utils/ustdlib.c ****                     // This command has been handled.
 636:/home/cuil/workspace/arm/lm3s811/TI_Stellaris/utils/ustdlib.c ****                     //
 637:/home/cuil/workspace/arm/lm3s811/TI_Stellaris/utils/ustdlib.c ****                     break;
 2463              		.loc 1 637 0
 2464 054c 23E0     		b	.L9
 2465              	.L16:
 638:/home/cuil/workspace/arm/lm3s811/TI_Stellaris/utils/ustdlib.c ****                 }
 639:/home/cuil/workspace/arm/lm3s811/TI_Stellaris/utils/ustdlib.c **** 
 640:/home/cuil/workspace/arm/lm3s811/TI_Stellaris/utils/ustdlib.c ****                 //
 641:/home/cuil/workspace/arm/lm3s811/TI_Stellaris/utils/ustdlib.c ****                 // Handle all other commands.
 642:/home/cuil/workspace/arm/lm3s811/TI_Stellaris/utils/ustdlib.c ****                 //
 643:/home/cuil/workspace/arm/lm3s811/TI_Stellaris/utils/ustdlib.c ****                 default:
 644:/home/cuil/workspace/arm/lm3s811/TI_Stellaris/utils/ustdlib.c ****                 {
 645:/home/cuil/workspace/arm/lm3s811/TI_Stellaris/utils/ustdlib.c ****                     //
 646:/home/cuil/workspace/arm/lm3s811/TI_Stellaris/utils/ustdlib.c ****                     // Indicate an error.
 647:/home/cuil/workspace/arm/lm3s811/TI_Stellaris/utils/ustdlib.c ****                     //
 648:/home/cuil/workspace/arm/lm3s811/TI_Stellaris/utils/ustdlib.c ****                     if(ulSize >= 5)
 2466              		.loc 1 648 0
 2467 054e BB68     		ldr	r3, [r7, #8]
 2468 0550 042B     		cmp	r3, #4
 2469 0552 0ED9     		bls	.L52
 649:/home/cuil/workspace/arm/lm3s811/TI_Stellaris/utils/ustdlib.c ****                     {
 650:/home/cuil/workspace/arm/lm3s811/TI_Stellaris/utils/ustdlib.c ****                         ustrncpy(pcBuf, "ERROR", 5);
 2470              		.loc 1 650 0
 2471 0554 F868     		ldr	r0, [r7, #12]
 2472 0556 1849     		ldr	r1, .L55+4
 2473 0558 4FF00502 		mov	r2, #5
 2474 055c FFF7FEFF 		bl	ustrncpy
 651:/home/cuil/workspace/arm/lm3s811/TI_Stellaris/utils/ustdlib.c ****                         pcBuf += 5;
 2475              		.loc 1 651 0
 2476 0560 FB68     		ldr	r3, [r7, #12]
 2477 0562 03F10503 		add	r3, r3, #5
 2478 0566 FB60     		str	r3, [r7, #12]
 652:/home/cuil/workspace/arm/lm3s811/TI_Stellaris/utils/ustdlib.c ****                         ulSize -= 5;
 2479              		.loc 1 652 0
 2480 0568 BB68     		ldr	r3, [r7, #8]
 2481 056a A3F10503 		sub	r3, r3, #5
 2482 056e BB60     		str	r3, [r7, #8]
 2483 0570 0CE0     		b	.L53
 2484              	.L52:
 653:/home/cuil/workspace/arm/lm3s811/TI_Stellaris/utils/ustdlib.c ****                     }
 654:/home/cuil/workspace/arm/lm3s811/TI_Stellaris/utils/ustdlib.c ****                     else
 655:/home/cuil/workspace/arm/lm3s811/TI_Stellaris/utils/ustdlib.c ****                     {
 656:/home/cuil/workspace/arm/lm3s811/TI_Stellaris/utils/ustdlib.c ****                         ustrncpy(pcBuf, "ERROR", ulSize);
 2485              		.loc 1 656 0
 2486 0572 BB68     		ldr	r3, [r7, #8]
 2487 0574 F868     		ldr	r0, [r7, #12]
 2488 0576 1049     		ldr	r1, .L55+4
 2489 0578 1A46     		mov	r2, r3
 2490 057a FFF7FEFF 		bl	ustrncpy
 657:/home/cuil/workspace/arm/lm3s811/TI_Stellaris/utils/ustdlib.c ****                         pcBuf += ulSize;
 2491              		.loc 1 657 0
 2492 057e FA68     		ldr	r2, [r7, #12]
 2493 0580 BB68     		ldr	r3, [r7, #8]
 2494 0582 D318     		adds	r3, r2, r3
 2495 0584 FB60     		str	r3, [r7, #12]
 658:/home/cuil/workspace/arm/lm3s811/TI_Stellaris/utils/ustdlib.c ****                         ulSize = 0;
 2496              		.loc 1 658 0
 2497 0586 4FF00003 		mov	r3, #0
 2498 058a BB60     		str	r3, [r7, #8]
 2499              	.L53:
 659:/home/cuil/workspace/arm/lm3s811/TI_Stellaris/utils/ustdlib.c ****                     }
 660:/home/cuil/workspace/arm/lm3s811/TI_Stellaris/utils/ustdlib.c **** 
 661:/home/cuil/workspace/arm/lm3s811/TI_Stellaris/utils/ustdlib.c ****                     //
 662:/home/cuil/workspace/arm/lm3s811/TI_Stellaris/utils/ustdlib.c ****                     // Update the conversion count.
 663:/home/cuil/workspace/arm/lm3s811/TI_Stellaris/utils/ustdlib.c ****                     //
 664:/home/cuil/workspace/arm/lm3s811/TI_Stellaris/utils/ustdlib.c ****                     iConvertCount += 5;
 2500              		.loc 1 664 0
 2501 058c 7B69     		ldr	r3, [r7, #20]
 2502 058e 03F10503 		add	r3, r3, #5
 2503 0592 7B61     		str	r3, [r7, #20]
 665:/home/cuil/workspace/arm/lm3s811/TI_Stellaris/utils/ustdlib.c **** 
 666:/home/cuil/workspace/arm/lm3s811/TI_Stellaris/utils/ustdlib.c ****                     //
 667:/home/cuil/workspace/arm/lm3s811/TI_Stellaris/utils/ustdlib.c ****                     // This command has been handled.
 668:/home/cuil/workspace/arm/lm3s811/TI_Stellaris/utils/ustdlib.c ****                     //
 669:/home/cuil/workspace/arm/lm3s811/TI_Stellaris/utils/ustdlib.c ****                     break;
 2504              		.loc 1 669 0
 2505 0594 00BF     		nop
 2506              	.L9:
 186:/home/cuil/workspace/arm/lm3s811/TI_Stellaris/utils/ustdlib.c ****     while(*pcString)
 2507              		.loc 1 186 0 discriminator 1
 2508 0596 7B68     		ldr	r3, [r7, #4]
 2509 0598 1B78     		ldrb	r3, [r3, #0]	@ zero_extendqisi2
 2510 059a 002B     		cmp	r3, #0
 2511 059c 7FF445AD 		bne	.L54
 670:/home/cuil/workspace/arm/lm3s811/TI_Stellaris/utils/ustdlib.c ****                 }
 671:/home/cuil/workspace/arm/lm3s811/TI_Stellaris/utils/ustdlib.c ****             }
 672:/home/cuil/workspace/arm/lm3s811/TI_Stellaris/utils/ustdlib.c ****         }
 673:/home/cuil/workspace/arm/lm3s811/TI_Stellaris/utils/ustdlib.c ****     }
 674:/home/cuil/workspace/arm/lm3s811/TI_Stellaris/utils/ustdlib.c **** 
 675:/home/cuil/workspace/arm/lm3s811/TI_Stellaris/utils/ustdlib.c ****     //
 676:/home/cuil/workspace/arm/lm3s811/TI_Stellaris/utils/ustdlib.c ****     // Null terminate the string in the buffer.
 677:/home/cuil/workspace/arm/lm3s811/TI_Stellaris/utils/ustdlib.c ****     //
 678:/home/cuil/workspace/arm/lm3s811/TI_Stellaris/utils/ustdlib.c ****     *pcBuf = 0;
 2512              		.loc 1 678 0
 2513 05a0 FB68     		ldr	r3, [r7, #12]
 2514 05a2 4FF00002 		mov	r2, #0
 2515 05a6 1A70     		strb	r2, [r3, #0]
 679:/home/cuil/workspace/arm/lm3s811/TI_Stellaris/utils/ustdlib.c **** 
 680:/home/cuil/workspace/arm/lm3s811/TI_Stellaris/utils/ustdlib.c ****     //
 681:/home/cuil/workspace/arm/lm3s811/TI_Stellaris/utils/ustdlib.c ****     // Return the number of characters in the full converted string.
 682:/home/cuil/workspace/arm/lm3s811/TI_Stellaris/utils/ustdlib.c ****     //
 683:/home/cuil/workspace/arm/lm3s811/TI_Stellaris/utils/ustdlib.c ****     return(iConvertCount);
 2516              		.loc 1 683 0
 2517 05a8 7B69     		ldr	r3, [r7, #20]
 684:/home/cuil/workspace/arm/lm3s811/TI_Stellaris/utils/ustdlib.c **** }
 2518              		.loc 1 684 0
 2519 05aa 1846     		mov	r0, r3
 2520 05ac 07F13007 		add	r7, r7, #48
 2521 05b0 BD46     		mov	sp, r7
 2522 05b2 80BD     		pop	{r7, pc}
 2523              	.L56:
 2524              		.align	2
 2525              	.L55:
 2526 05b4 14000000 		.word	g_pcHex
 2527 05b8 18000000 		.word	.LC1
 2528              		.cfi_endproc
 2529              	.LFE1:
 2531              		.section	.text.usprintf,"ax",%progbits
 2532              		.align	2
 2533              		.global	usprintf
 2534              		.thumb
 2535              		.thumb_func
 2537              	usprintf:
 2538              	.LFB2:
 685:/home/cuil/workspace/arm/lm3s811/TI_Stellaris/utils/ustdlib.c **** 
 686:/home/cuil/workspace/arm/lm3s811/TI_Stellaris/utils/ustdlib.c **** //*****************************************************************************
 687:/home/cuil/workspace/arm/lm3s811/TI_Stellaris/utils/ustdlib.c **** //
 688:/home/cuil/workspace/arm/lm3s811/TI_Stellaris/utils/ustdlib.c **** //! A simple sprintf function supporting \%c, \%d, \%p, \%s, \%u, \%x, and \%X.
 689:/home/cuil/workspace/arm/lm3s811/TI_Stellaris/utils/ustdlib.c **** //!
 690:/home/cuil/workspace/arm/lm3s811/TI_Stellaris/utils/ustdlib.c **** //! \param pcBuf is the buffer where the converted string is stored.
 691:/home/cuil/workspace/arm/lm3s811/TI_Stellaris/utils/ustdlib.c **** //! \param pcString is the format string.
 692:/home/cuil/workspace/arm/lm3s811/TI_Stellaris/utils/ustdlib.c **** //! \param ... are the optional arguments, which depend on the contents of the
 693:/home/cuil/workspace/arm/lm3s811/TI_Stellaris/utils/ustdlib.c **** //! format string.
 694:/home/cuil/workspace/arm/lm3s811/TI_Stellaris/utils/ustdlib.c **** //!
 695:/home/cuil/workspace/arm/lm3s811/TI_Stellaris/utils/ustdlib.c **** //! This function is very similar to the C library <tt>sprintf()</tt> function.
 696:/home/cuil/workspace/arm/lm3s811/TI_Stellaris/utils/ustdlib.c **** //! Only the following formatting characters are supported:
 697:/home/cuil/workspace/arm/lm3s811/TI_Stellaris/utils/ustdlib.c **** //!
 698:/home/cuil/workspace/arm/lm3s811/TI_Stellaris/utils/ustdlib.c **** //! - \%c to print a character
 699:/home/cuil/workspace/arm/lm3s811/TI_Stellaris/utils/ustdlib.c **** //! - \%d to print a decimal value
 700:/home/cuil/workspace/arm/lm3s811/TI_Stellaris/utils/ustdlib.c **** //! - \%s to print a string
 701:/home/cuil/workspace/arm/lm3s811/TI_Stellaris/utils/ustdlib.c **** //! - \%u to print an unsigned decimal value
 702:/home/cuil/workspace/arm/lm3s811/TI_Stellaris/utils/ustdlib.c **** //! - \%x to print a hexadecimal value using lower case letters
 703:/home/cuil/workspace/arm/lm3s811/TI_Stellaris/utils/ustdlib.c **** //! - \%X to print a hexadecimal value using lower case letters (not upper case
 704:/home/cuil/workspace/arm/lm3s811/TI_Stellaris/utils/ustdlib.c **** //! letters as would typically be used)
 705:/home/cuil/workspace/arm/lm3s811/TI_Stellaris/utils/ustdlib.c **** //! - \%p to print a pointer as a hexadecimal value
 706:/home/cuil/workspace/arm/lm3s811/TI_Stellaris/utils/ustdlib.c **** //! - \%\% to print out a \% character
 707:/home/cuil/workspace/arm/lm3s811/TI_Stellaris/utils/ustdlib.c **** //!
 708:/home/cuil/workspace/arm/lm3s811/TI_Stellaris/utils/ustdlib.c **** //! For \%d, \%p, \%s, \%u, \%x, and \%X, an optional number may reside between
 709:/home/cuil/workspace/arm/lm3s811/TI_Stellaris/utils/ustdlib.c **** //! the \% and the format character, which specifies the minimum number of
 710:/home/cuil/workspace/arm/lm3s811/TI_Stellaris/utils/ustdlib.c **** //! characters to use for that value; if preceded by a 0 then the extra
 711:/home/cuil/workspace/arm/lm3s811/TI_Stellaris/utils/ustdlib.c **** //! characters will be filled with zeros instead of spaces.  For example,
 712:/home/cuil/workspace/arm/lm3s811/TI_Stellaris/utils/ustdlib.c **** //! ``\%8d'' will use eight characters to print the decimal value with spaces
 713:/home/cuil/workspace/arm/lm3s811/TI_Stellaris/utils/ustdlib.c **** //! added to reach eight; ``\%08d'' will use eight characters as well but will
 714:/home/cuil/workspace/arm/lm3s811/TI_Stellaris/utils/ustdlib.c **** //! add zeros instead of spaces.
 715:/home/cuil/workspace/arm/lm3s811/TI_Stellaris/utils/ustdlib.c **** //!
 716:/home/cuil/workspace/arm/lm3s811/TI_Stellaris/utils/ustdlib.c **** //! The type of the arguments after \e pcString must match the requirements of
 717:/home/cuil/workspace/arm/lm3s811/TI_Stellaris/utils/ustdlib.c **** //! the format string.  For example, if an integer was passed where a string
 718:/home/cuil/workspace/arm/lm3s811/TI_Stellaris/utils/ustdlib.c **** //! was expected, an error of some kind will most likely occur.
 719:/home/cuil/workspace/arm/lm3s811/TI_Stellaris/utils/ustdlib.c **** //!
 720:/home/cuil/workspace/arm/lm3s811/TI_Stellaris/utils/ustdlib.c **** //! The caller must ensure that the buffer \e pcBuf is large enough to hold the
 721:/home/cuil/workspace/arm/lm3s811/TI_Stellaris/utils/ustdlib.c **** //! entire converted string, including the null termination character.
 722:/home/cuil/workspace/arm/lm3s811/TI_Stellaris/utils/ustdlib.c **** //!
 723:/home/cuil/workspace/arm/lm3s811/TI_Stellaris/utils/ustdlib.c **** //! \return Returns the count of characters that were written to the output
 724:/home/cuil/workspace/arm/lm3s811/TI_Stellaris/utils/ustdlib.c **** //! buffer, not including the NULL termination character.
 725:/home/cuil/workspace/arm/lm3s811/TI_Stellaris/utils/ustdlib.c **** //
 726:/home/cuil/workspace/arm/lm3s811/TI_Stellaris/utils/ustdlib.c **** //*****************************************************************************
 727:/home/cuil/workspace/arm/lm3s811/TI_Stellaris/utils/ustdlib.c **** int
 728:/home/cuil/workspace/arm/lm3s811/TI_Stellaris/utils/ustdlib.c **** usprintf(char *pcBuf, const char *pcString, ...)
 729:/home/cuil/workspace/arm/lm3s811/TI_Stellaris/utils/ustdlib.c **** {
 2539              		.loc 1 729 0
 2540              		.cfi_startproc
 2541              		@ args = 4, pretend = 12, frame = 16
 2542              		@ frame_needed = 1, uses_anonymous_args = 1
 2543 0000 0EB4     		push	{r1, r2, r3}
 2544              	.LCFI6:
 2545              		.cfi_def_cfa_offset 12
 2546 0002 80B5     		push	{r7, lr}
 2547              	.LCFI7:
 2548              		.cfi_def_cfa_offset 20
 2549 0004 85B0     		sub	sp, sp, #20
 2550              	.LCFI8:
 2551              		.cfi_def_cfa_offset 40
 2552 0006 00AF     		add	r7, sp, #0
 2553              		.cfi_offset 14, -16
 2554              		.cfi_offset 7, -20
 2555              		.cfi_offset 3, -4
 2556              		.cfi_offset 2, -8
 2557              		.cfi_offset 1, -12
 2558              	.LCFI9:
 2559              		.cfi_def_cfa_register 7
 2560 0008 7860     		str	r0, [r7, #4]
 730:/home/cuil/workspace/arm/lm3s811/TI_Stellaris/utils/ustdlib.c ****     va_list vaArgP;
 731:/home/cuil/workspace/arm/lm3s811/TI_Stellaris/utils/ustdlib.c ****     int iRet;
 732:/home/cuil/workspace/arm/lm3s811/TI_Stellaris/utils/ustdlib.c **** 
 733:/home/cuil/workspace/arm/lm3s811/TI_Stellaris/utils/ustdlib.c ****     //
 734:/home/cuil/workspace/arm/lm3s811/TI_Stellaris/utils/ustdlib.c ****     // Start the varargs processing.
 735:/home/cuil/workspace/arm/lm3s811/TI_Stellaris/utils/ustdlib.c ****     //
 736:/home/cuil/workspace/arm/lm3s811/TI_Stellaris/utils/ustdlib.c ****     va_start(vaArgP, pcString);
 2561              		.loc 1 736 0
 2562 000a 07F12003 		add	r3, r7, #32
 2563 000e BB60     		str	r3, [r7, #8]
 737:/home/cuil/workspace/arm/lm3s811/TI_Stellaris/utils/ustdlib.c **** 
 738:/home/cuil/workspace/arm/lm3s811/TI_Stellaris/utils/ustdlib.c ****     //
 739:/home/cuil/workspace/arm/lm3s811/TI_Stellaris/utils/ustdlib.c ****     // Call vsnprintf to perform the conversion.  Use a large number for the
 740:/home/cuil/workspace/arm/lm3s811/TI_Stellaris/utils/ustdlib.c ****     // buffer size.
 741:/home/cuil/workspace/arm/lm3s811/TI_Stellaris/utils/ustdlib.c ****     //
 742:/home/cuil/workspace/arm/lm3s811/TI_Stellaris/utils/ustdlib.c ****     iRet = uvsnprintf(pcBuf, 0xffff, pcString, vaArgP);
 2564              		.loc 1 742 0
 2565 0010 7868     		ldr	r0, [r7, #4]
 2566 0012 4FF6FF71 		movw	r1, #65535
 2567 0016 FA69     		ldr	r2, [r7, #28]
 2568 0018 BB68     		ldr	r3, [r7, #8]
 2569 001a FFF7FEFF 		bl	uvsnprintf
 2570 001e F860     		str	r0, [r7, #12]
 743:/home/cuil/workspace/arm/lm3s811/TI_Stellaris/utils/ustdlib.c **** 
 744:/home/cuil/workspace/arm/lm3s811/TI_Stellaris/utils/ustdlib.c ****     //
 745:/home/cuil/workspace/arm/lm3s811/TI_Stellaris/utils/ustdlib.c ****     // End the varargs processing.
 746:/home/cuil/workspace/arm/lm3s811/TI_Stellaris/utils/ustdlib.c ****     //
 747:/home/cuil/workspace/arm/lm3s811/TI_Stellaris/utils/ustdlib.c ****     va_end(vaArgP);
 748:/home/cuil/workspace/arm/lm3s811/TI_Stellaris/utils/ustdlib.c **** 
 749:/home/cuil/workspace/arm/lm3s811/TI_Stellaris/utils/ustdlib.c ****     //
 750:/home/cuil/workspace/arm/lm3s811/TI_Stellaris/utils/ustdlib.c ****     // Return the conversion count.
 751:/home/cuil/workspace/arm/lm3s811/TI_Stellaris/utils/ustdlib.c ****     //
 752:/home/cuil/workspace/arm/lm3s811/TI_Stellaris/utils/ustdlib.c ****     return(iRet);
 2571              		.loc 1 752 0
 2572 0020 FB68     		ldr	r3, [r7, #12]
 753:/home/cuil/workspace/arm/lm3s811/TI_Stellaris/utils/ustdlib.c **** }
 2573              		.loc 1 753 0
 2574 0022 1846     		mov	r0, r3
 2575 0024 07F11407 		add	r7, r7, #20
 2576 0028 BD46     		mov	sp, r7
 2577 002a BDE88040 		pop	{r7, lr}
 2578 002e 03B0     		add	sp, sp, #12
 2579 0030 7047     		bx	lr
 2580              		.cfi_endproc
 2581              	.LFE2:
 2583 0032 00BF     		.section	.text.usnprintf,"ax",%progbits
 2584              		.align	2
 2585              		.global	usnprintf
 2586              		.thumb
 2587              		.thumb_func
 2589              	usnprintf:
 2590              	.LFB3:
 754:/home/cuil/workspace/arm/lm3s811/TI_Stellaris/utils/ustdlib.c **** 
 755:/home/cuil/workspace/arm/lm3s811/TI_Stellaris/utils/ustdlib.c **** //*****************************************************************************
 756:/home/cuil/workspace/arm/lm3s811/TI_Stellaris/utils/ustdlib.c **** //
 757:/home/cuil/workspace/arm/lm3s811/TI_Stellaris/utils/ustdlib.c **** //! A simple snprintf function supporting \%c, \%d, \%p, \%s, \%u, \%x, and
 758:/home/cuil/workspace/arm/lm3s811/TI_Stellaris/utils/ustdlib.c **** //! \%X.
 759:/home/cuil/workspace/arm/lm3s811/TI_Stellaris/utils/ustdlib.c **** //!
 760:/home/cuil/workspace/arm/lm3s811/TI_Stellaris/utils/ustdlib.c **** //! \param pcBuf is the buffer where the converted string is stored.
 761:/home/cuil/workspace/arm/lm3s811/TI_Stellaris/utils/ustdlib.c **** //! \param ulSize is the size of the buffer.
 762:/home/cuil/workspace/arm/lm3s811/TI_Stellaris/utils/ustdlib.c **** //! \param pcString is the format string.
 763:/home/cuil/workspace/arm/lm3s811/TI_Stellaris/utils/ustdlib.c **** //! \param ... are the optional arguments, which depend on the contents of the
 764:/home/cuil/workspace/arm/lm3s811/TI_Stellaris/utils/ustdlib.c **** //! format string.
 765:/home/cuil/workspace/arm/lm3s811/TI_Stellaris/utils/ustdlib.c **** //!
 766:/home/cuil/workspace/arm/lm3s811/TI_Stellaris/utils/ustdlib.c **** //! This function is very similar to the C library <tt>sprintf()</tt> function.
 767:/home/cuil/workspace/arm/lm3s811/TI_Stellaris/utils/ustdlib.c **** //! Only the following formatting characters are supported:
 768:/home/cuil/workspace/arm/lm3s811/TI_Stellaris/utils/ustdlib.c **** //!
 769:/home/cuil/workspace/arm/lm3s811/TI_Stellaris/utils/ustdlib.c **** //! - \%c to print a character
 770:/home/cuil/workspace/arm/lm3s811/TI_Stellaris/utils/ustdlib.c **** //! - \%d to print a decimal value
 771:/home/cuil/workspace/arm/lm3s811/TI_Stellaris/utils/ustdlib.c **** //! - \%s to print a string
 772:/home/cuil/workspace/arm/lm3s811/TI_Stellaris/utils/ustdlib.c **** //! - \%u to print an unsigned decimal value
 773:/home/cuil/workspace/arm/lm3s811/TI_Stellaris/utils/ustdlib.c **** //! - \%x to print a hexadecimal value using lower case letters
 774:/home/cuil/workspace/arm/lm3s811/TI_Stellaris/utils/ustdlib.c **** //! - \%X to print a hexadecimal value using lower case letters (not upper case
 775:/home/cuil/workspace/arm/lm3s811/TI_Stellaris/utils/ustdlib.c **** //! letters as would typically be used)
 776:/home/cuil/workspace/arm/lm3s811/TI_Stellaris/utils/ustdlib.c **** //! - \%p to print a pointer as a hexadecimal value
 777:/home/cuil/workspace/arm/lm3s811/TI_Stellaris/utils/ustdlib.c **** //! - \%\% to print out a \% character
 778:/home/cuil/workspace/arm/lm3s811/TI_Stellaris/utils/ustdlib.c **** //!
 779:/home/cuil/workspace/arm/lm3s811/TI_Stellaris/utils/ustdlib.c **** //! For \%d, \%p, \%s, \%u, \%x, and \%X, an optional number may reside between
 780:/home/cuil/workspace/arm/lm3s811/TI_Stellaris/utils/ustdlib.c **** //! the \% and the format character, which specifies the minimum number of
 781:/home/cuil/workspace/arm/lm3s811/TI_Stellaris/utils/ustdlib.c **** //! characters to use for that value; if preceded by a 0 then the extra
 782:/home/cuil/workspace/arm/lm3s811/TI_Stellaris/utils/ustdlib.c **** //! characters will be filled with zeros instead of spaces.  For example,
 783:/home/cuil/workspace/arm/lm3s811/TI_Stellaris/utils/ustdlib.c **** //! ``\%8d'' will use eight characters to print the decimal value with spaces
 784:/home/cuil/workspace/arm/lm3s811/TI_Stellaris/utils/ustdlib.c **** //! added to reach eight; ``\%08d'' will use eight characters as well but will
 785:/home/cuil/workspace/arm/lm3s811/TI_Stellaris/utils/ustdlib.c **** //! add zeros instead of spaces.
 786:/home/cuil/workspace/arm/lm3s811/TI_Stellaris/utils/ustdlib.c **** //!
 787:/home/cuil/workspace/arm/lm3s811/TI_Stellaris/utils/ustdlib.c **** //! The type of the arguments after \e pcString must match the requirements of
 788:/home/cuil/workspace/arm/lm3s811/TI_Stellaris/utils/ustdlib.c **** //! the format string.  For example, if an integer was passed where a string
 789:/home/cuil/workspace/arm/lm3s811/TI_Stellaris/utils/ustdlib.c **** //! was expected, an error of some kind will most likely occur.
 790:/home/cuil/workspace/arm/lm3s811/TI_Stellaris/utils/ustdlib.c **** //!
 791:/home/cuil/workspace/arm/lm3s811/TI_Stellaris/utils/ustdlib.c **** //! The function will copy at most \e ulSize - 1 characters into the buffer
 792:/home/cuil/workspace/arm/lm3s811/TI_Stellaris/utils/ustdlib.c **** //! \e pcBuf.  One space is reserved in the buffer for the null termination
 793:/home/cuil/workspace/arm/lm3s811/TI_Stellaris/utils/ustdlib.c **** //! character.
 794:/home/cuil/workspace/arm/lm3s811/TI_Stellaris/utils/ustdlib.c **** //!
 795:/home/cuil/workspace/arm/lm3s811/TI_Stellaris/utils/ustdlib.c **** //! The function will return the number of characters that would be converted
 796:/home/cuil/workspace/arm/lm3s811/TI_Stellaris/utils/ustdlib.c **** //! as if there were no limit on the buffer size.  Therefore it is possible for
 797:/home/cuil/workspace/arm/lm3s811/TI_Stellaris/utils/ustdlib.c **** //! the function to return a count that is greater than the specified buffer
 798:/home/cuil/workspace/arm/lm3s811/TI_Stellaris/utils/ustdlib.c **** //! size.  If this happens, it means that the output was truncated.
 799:/home/cuil/workspace/arm/lm3s811/TI_Stellaris/utils/ustdlib.c **** //!
 800:/home/cuil/workspace/arm/lm3s811/TI_Stellaris/utils/ustdlib.c **** //! \return Returns the number of characters that were to be stored, not
 801:/home/cuil/workspace/arm/lm3s811/TI_Stellaris/utils/ustdlib.c **** //! including the NULL termination character, regardless of space in the
 802:/home/cuil/workspace/arm/lm3s811/TI_Stellaris/utils/ustdlib.c **** //! buffer.
 803:/home/cuil/workspace/arm/lm3s811/TI_Stellaris/utils/ustdlib.c **** //
 804:/home/cuil/workspace/arm/lm3s811/TI_Stellaris/utils/ustdlib.c **** //*****************************************************************************
 805:/home/cuil/workspace/arm/lm3s811/TI_Stellaris/utils/ustdlib.c **** int
 806:/home/cuil/workspace/arm/lm3s811/TI_Stellaris/utils/ustdlib.c **** usnprintf(char *pcBuf, unsigned long ulSize, const char *pcString, ...)
 807:/home/cuil/workspace/arm/lm3s811/TI_Stellaris/utils/ustdlib.c **** {
 2591              		.loc 1 807 0
 2592              		.cfi_startproc
 2593              		@ args = 4, pretend = 8, frame = 16
 2594              		@ frame_needed = 1, uses_anonymous_args = 1
 2595 0000 0CB4     		push	{r2, r3}
 2596              	.LCFI10:
 2597              		.cfi_def_cfa_offset 8
 2598 0002 80B5     		push	{r7, lr}
 2599              	.LCFI11:
 2600              		.cfi_def_cfa_offset 16
 2601 0004 84B0     		sub	sp, sp, #16
 2602              	.LCFI12:
 2603              		.cfi_def_cfa_offset 32
 2604 0006 00AF     		add	r7, sp, #0
 2605              		.cfi_offset 14, -12
 2606              		.cfi_offset 7, -16
 2607              		.cfi_offset 3, -4
 2608              		.cfi_offset 2, -8
 2609              	.LCFI13:
 2610              		.cfi_def_cfa_register 7
 2611 0008 7860     		str	r0, [r7, #4]
 2612 000a 3960     		str	r1, [r7, #0]
 808:/home/cuil/workspace/arm/lm3s811/TI_Stellaris/utils/ustdlib.c ****     int iRet;
 809:/home/cuil/workspace/arm/lm3s811/TI_Stellaris/utils/ustdlib.c ****     va_list vaArgP;
 810:/home/cuil/workspace/arm/lm3s811/TI_Stellaris/utils/ustdlib.c **** 
 811:/home/cuil/workspace/arm/lm3s811/TI_Stellaris/utils/ustdlib.c ****     //
 812:/home/cuil/workspace/arm/lm3s811/TI_Stellaris/utils/ustdlib.c ****     // Start the varargs processing.
 813:/home/cuil/workspace/arm/lm3s811/TI_Stellaris/utils/ustdlib.c ****     //
 814:/home/cuil/workspace/arm/lm3s811/TI_Stellaris/utils/ustdlib.c ****     va_start(vaArgP, pcString);
 2613              		.loc 1 814 0
 2614 000c 07F11C03 		add	r3, r7, #28
 2615 0010 BB60     		str	r3, [r7, #8]
 815:/home/cuil/workspace/arm/lm3s811/TI_Stellaris/utils/ustdlib.c **** 
 816:/home/cuil/workspace/arm/lm3s811/TI_Stellaris/utils/ustdlib.c ****     //
 817:/home/cuil/workspace/arm/lm3s811/TI_Stellaris/utils/ustdlib.c ****     // Call vsnprintf to perform the conversion.
 818:/home/cuil/workspace/arm/lm3s811/TI_Stellaris/utils/ustdlib.c ****     //
 819:/home/cuil/workspace/arm/lm3s811/TI_Stellaris/utils/ustdlib.c ****     iRet = uvsnprintf(pcBuf, ulSize, pcString, vaArgP);
 2616              		.loc 1 819 0
 2617 0012 7868     		ldr	r0, [r7, #4]
 2618 0014 3968     		ldr	r1, [r7, #0]
 2619 0016 BA69     		ldr	r2, [r7, #24]
 2620 0018 BB68     		ldr	r3, [r7, #8]
 2621 001a FFF7FEFF 		bl	uvsnprintf
 2622 001e F860     		str	r0, [r7, #12]
 820:/home/cuil/workspace/arm/lm3s811/TI_Stellaris/utils/ustdlib.c **** 
 821:/home/cuil/workspace/arm/lm3s811/TI_Stellaris/utils/ustdlib.c ****     //
 822:/home/cuil/workspace/arm/lm3s811/TI_Stellaris/utils/ustdlib.c ****     // End the varargs processing.
 823:/home/cuil/workspace/arm/lm3s811/TI_Stellaris/utils/ustdlib.c ****     //
 824:/home/cuil/workspace/arm/lm3s811/TI_Stellaris/utils/ustdlib.c ****     va_end(vaArgP);
 825:/home/cuil/workspace/arm/lm3s811/TI_Stellaris/utils/ustdlib.c **** 
 826:/home/cuil/workspace/arm/lm3s811/TI_Stellaris/utils/ustdlib.c ****     //
 827:/home/cuil/workspace/arm/lm3s811/TI_Stellaris/utils/ustdlib.c ****     // Return the conversion count.
 828:/home/cuil/workspace/arm/lm3s811/TI_Stellaris/utils/ustdlib.c ****     //
 829:/home/cuil/workspace/arm/lm3s811/TI_Stellaris/utils/ustdlib.c ****     return(iRet);
 2623              		.loc 1 829 0
 2624 0020 FB68     		ldr	r3, [r7, #12]
 830:/home/cuil/workspace/arm/lm3s811/TI_Stellaris/utils/ustdlib.c **** }
 2625              		.loc 1 830 0
 2626 0022 1846     		mov	r0, r3
 2627 0024 07F11007 		add	r7, r7, #16
 2628 0028 BD46     		mov	sp, r7
 2629 002a BDE88040 		pop	{r7, lr}
 2630 002e 02B0     		add	sp, sp, #8
 2631 0030 7047     		bx	lr
 2632              		.cfi_endproc
 2633              	.LFE3:
 2635 0032 00BF     		.section	.rodata
 2636 001e 0000     		.align	2
 2639              	g_psDaysToMonth:
 2640 0020 0000     		.short	0
 2641 0022 1F00     		.short	31
 2642 0024 3B00     		.short	59
 2643 0026 5A00     		.short	90
 2644 0028 7800     		.short	120
 2645 002a 9700     		.short	151
 2646 002c B500     		.short	181
 2647 002e D400     		.short	212
 2648 0030 F300     		.short	243
 2649 0032 1101     		.short	273
 2650 0034 3001     		.short	304
 2651 0036 4E01     		.short	334
 2652              		.section	.text.ulocaltime,"ax",%progbits
 2653              		.align	2
 2654              		.global	ulocaltime
 2655              		.thumb
 2656              		.thumb_func
 2658              	ulocaltime:
 2659              	.LFB4:
 831:/home/cuil/workspace/arm/lm3s811/TI_Stellaris/utils/ustdlib.c **** 
 832:/home/cuil/workspace/arm/lm3s811/TI_Stellaris/utils/ustdlib.c **** //*****************************************************************************
 833:/home/cuil/workspace/arm/lm3s811/TI_Stellaris/utils/ustdlib.c **** //
 834:/home/cuil/workspace/arm/lm3s811/TI_Stellaris/utils/ustdlib.c **** // This array contains the number of days in a year at the beginning of each
 835:/home/cuil/workspace/arm/lm3s811/TI_Stellaris/utils/ustdlib.c **** // month of the year, in a non-leap year.
 836:/home/cuil/workspace/arm/lm3s811/TI_Stellaris/utils/ustdlib.c **** //
 837:/home/cuil/workspace/arm/lm3s811/TI_Stellaris/utils/ustdlib.c **** //*****************************************************************************
 838:/home/cuil/workspace/arm/lm3s811/TI_Stellaris/utils/ustdlib.c **** static const short g_psDaysToMonth[12] =
 839:/home/cuil/workspace/arm/lm3s811/TI_Stellaris/utils/ustdlib.c **** {
 840:/home/cuil/workspace/arm/lm3s811/TI_Stellaris/utils/ustdlib.c ****     0, 31, 59, 90, 120, 151, 181, 212, 243, 273, 304, 334
 841:/home/cuil/workspace/arm/lm3s811/TI_Stellaris/utils/ustdlib.c **** };
 842:/home/cuil/workspace/arm/lm3s811/TI_Stellaris/utils/ustdlib.c **** 
 843:/home/cuil/workspace/arm/lm3s811/TI_Stellaris/utils/ustdlib.c **** //*****************************************************************************
 844:/home/cuil/workspace/arm/lm3s811/TI_Stellaris/utils/ustdlib.c **** //
 845:/home/cuil/workspace/arm/lm3s811/TI_Stellaris/utils/ustdlib.c **** //! Converts from seconds to calendar date and time.
 846:/home/cuil/workspace/arm/lm3s811/TI_Stellaris/utils/ustdlib.c **** //!
 847:/home/cuil/workspace/arm/lm3s811/TI_Stellaris/utils/ustdlib.c **** //! \param ulTime is the number of seconds.
 848:/home/cuil/workspace/arm/lm3s811/TI_Stellaris/utils/ustdlib.c **** //! \param psTime is a pointer to the time structure that is filled in with the
 849:/home/cuil/workspace/arm/lm3s811/TI_Stellaris/utils/ustdlib.c **** //! broken down date and time.
 850:/home/cuil/workspace/arm/lm3s811/TI_Stellaris/utils/ustdlib.c **** //!
 851:/home/cuil/workspace/arm/lm3s811/TI_Stellaris/utils/ustdlib.c **** //! This function converts a number of seconds since midnight GMT on January 1,
 852:/home/cuil/workspace/arm/lm3s811/TI_Stellaris/utils/ustdlib.c **** //! 1970 (traditional Unix epoch) into the equivalent month, day, year, hours,
 853:/home/cuil/workspace/arm/lm3s811/TI_Stellaris/utils/ustdlib.c **** //! minutes, and seconds representation.
 854:/home/cuil/workspace/arm/lm3s811/TI_Stellaris/utils/ustdlib.c **** //!
 855:/home/cuil/workspace/arm/lm3s811/TI_Stellaris/utils/ustdlib.c **** //! \return None.
 856:/home/cuil/workspace/arm/lm3s811/TI_Stellaris/utils/ustdlib.c **** //
 857:/home/cuil/workspace/arm/lm3s811/TI_Stellaris/utils/ustdlib.c **** //*****************************************************************************
 858:/home/cuil/workspace/arm/lm3s811/TI_Stellaris/utils/ustdlib.c **** void
 859:/home/cuil/workspace/arm/lm3s811/TI_Stellaris/utils/ustdlib.c **** ulocaltime(unsigned long ulTime, tTime *psTime)
 860:/home/cuil/workspace/arm/lm3s811/TI_Stellaris/utils/ustdlib.c **** {
 2660              		.loc 1 860 0
 2661              		.cfi_startproc
 2662              		@ args = 0, pretend = 0, frame = 16
 2663              		@ frame_needed = 1, uses_anonymous_args = 0
 2664              		@ link register save eliminated.
 2665 0000 80B4     		push	{r7}
 2666              	.LCFI14:
 2667              		.cfi_def_cfa_offset 4
 2668 0002 85B0     		sub	sp, sp, #20
 2669              	.LCFI15:
 2670              		.cfi_def_cfa_offset 24
 2671 0004 00AF     		add	r7, sp, #0
 2672              		.cfi_offset 7, -4
 2673              	.LCFI16:
 2674              		.cfi_def_cfa_register 7
 2675 0006 7860     		str	r0, [r7, #4]
 2676 0008 3960     		str	r1, [r7, #0]
 861:/home/cuil/workspace/arm/lm3s811/TI_Stellaris/utils/ustdlib.c ****     unsigned long ulTemp, ulMonths;
 862:/home/cuil/workspace/arm/lm3s811/TI_Stellaris/utils/ustdlib.c **** 
 863:/home/cuil/workspace/arm/lm3s811/TI_Stellaris/utils/ustdlib.c ****     //
 864:/home/cuil/workspace/arm/lm3s811/TI_Stellaris/utils/ustdlib.c ****     // Extract the number of seconds, converting time to the number of minutes.
 865:/home/cuil/workspace/arm/lm3s811/TI_Stellaris/utils/ustdlib.c ****     //
 866:/home/cuil/workspace/arm/lm3s811/TI_Stellaris/utils/ustdlib.c ****     ulTemp = ulTime / 60;
 2677              		.loc 1 866 0
 2678 000a 7A68     		ldr	r2, [r7, #4]
 2679 000c 664B     		ldr	r3, .L67
 2680 000e A3FB0213 		umull	r1, r3, r3, r2
 2681 0012 4FEA5313 		lsr	r3, r3, #5
 2682 0016 FB60     		str	r3, [r7, #12]
 867:/home/cuil/workspace/arm/lm3s811/TI_Stellaris/utils/ustdlib.c ****     psTime->ucSec = ulTime - (ulTemp * 60);
 2683              		.loc 1 867 0
 2684 0018 7B68     		ldr	r3, [r7, #4]
 2685 001a DAB2     		uxtb	r2, r3
 2686 001c FB68     		ldr	r3, [r7, #12]
 2687 001e DBB2     		uxtb	r3, r3
 2688 0020 1946     		mov	r1, r3
 2689 0022 4FEA0111 		lsl	r1, r1, #4
 2690 0026 CB1A     		subs	r3, r1, r3
 2691 0028 4FEA8303 		lsl	r3, r3, #2
 2692 002c DBB2     		uxtb	r3, r3
 2693 002e D31A     		subs	r3, r2, r3
 2694 0030 DAB2     		uxtb	r2, r3
 2695 0032 3B68     		ldr	r3, [r7, #0]
 2696 0034 DA71     		strb	r2, [r3, #7]
 868:/home/cuil/workspace/arm/lm3s811/TI_Stellaris/utils/ustdlib.c ****     ulTime = ulTemp;
 2697              		.loc 1 868 0
 2698 0036 FB68     		ldr	r3, [r7, #12]
 2699 0038 7B60     		str	r3, [r7, #4]
 869:/home/cuil/workspace/arm/lm3s811/TI_Stellaris/utils/ustdlib.c **** 
 870:/home/cuil/workspace/arm/lm3s811/TI_Stellaris/utils/ustdlib.c ****     //
 871:/home/cuil/workspace/arm/lm3s811/TI_Stellaris/utils/ustdlib.c ****     // Extract the number of minutes, converting time to the number of hours.
 872:/home/cuil/workspace/arm/lm3s811/TI_Stellaris/utils/ustdlib.c ****     //
 873:/home/cuil/workspace/arm/lm3s811/TI_Stellaris/utils/ustdlib.c ****     ulTemp = ulTime / 60;
 2700              		.loc 1 873 0
 2701 003a 7A68     		ldr	r2, [r7, #4]
 2702 003c 5A4B     		ldr	r3, .L67
 2703 003e A3FB0213 		umull	r1, r3, r3, r2
 2704 0042 4FEA5313 		lsr	r3, r3, #5
 2705 0046 FB60     		str	r3, [r7, #12]
 874:/home/cuil/workspace/arm/lm3s811/TI_Stellaris/utils/ustdlib.c ****     psTime->ucMin = ulTime - (ulTemp * 60);
 2706              		.loc 1 874 0
 2707 0048 7B68     		ldr	r3, [r7, #4]
 2708 004a DAB2     		uxtb	r2, r3
 2709 004c FB68     		ldr	r3, [r7, #12]
 2710 004e DBB2     		uxtb	r3, r3
 2711 0050 1946     		mov	r1, r3
 2712 0052 4FEA0111 		lsl	r1, r1, #4
 2713 0056 CB1A     		subs	r3, r1, r3
 2714 0058 4FEA8303 		lsl	r3, r3, #2
 2715 005c DBB2     		uxtb	r3, r3
 2716 005e D31A     		subs	r3, r2, r3
 2717 0060 DAB2     		uxtb	r2, r3
 2718 0062 3B68     		ldr	r3, [r7, #0]
 2719 0064 9A71     		strb	r2, [r3, #6]
 875:/home/cuil/workspace/arm/lm3s811/TI_Stellaris/utils/ustdlib.c ****     ulTime = ulTemp;
 2720              		.loc 1 875 0
 2721 0066 FB68     		ldr	r3, [r7, #12]
 2722 0068 7B60     		str	r3, [r7, #4]
 876:/home/cuil/workspace/arm/lm3s811/TI_Stellaris/utils/ustdlib.c **** 
 877:/home/cuil/workspace/arm/lm3s811/TI_Stellaris/utils/ustdlib.c ****     //
 878:/home/cuil/workspace/arm/lm3s811/TI_Stellaris/utils/ustdlib.c ****     // Extract the number of hours, converting time to the number of days.
 879:/home/cuil/workspace/arm/lm3s811/TI_Stellaris/utils/ustdlib.c ****     //
 880:/home/cuil/workspace/arm/lm3s811/TI_Stellaris/utils/ustdlib.c ****     ulTemp = ulTime / 24;
 2723              		.loc 1 880 0
 2724 006a 7A68     		ldr	r2, [r7, #4]
 2725 006c 4F4B     		ldr	r3, .L67+4
 2726 006e A3FB0213 		umull	r1, r3, r3, r2
 2727 0072 4FEA1313 		lsr	r3, r3, #4
 2728 0076 FB60     		str	r3, [r7, #12]
 881:/home/cuil/workspace/arm/lm3s811/TI_Stellaris/utils/ustdlib.c ****     psTime->ucHour = ulTime - (ulTemp * 24);
 2729              		.loc 1 881 0
 2730 0078 7B68     		ldr	r3, [r7, #4]
 2731 007a DAB2     		uxtb	r2, r3
 2732 007c FB68     		ldr	r3, [r7, #12]
 2733 007e DBB2     		uxtb	r3, r3
 2734 0080 1946     		mov	r1, r3
 2735 0082 4FEA4101 		lsl	r1, r1, #1
 2736 0086 CB18     		adds	r3, r1, r3
 2737 0088 4FEAC303 		lsl	r3, r3, #3
 2738 008c DBB2     		uxtb	r3, r3
 2739 008e D31A     		subs	r3, r2, r3
 2740 0090 DAB2     		uxtb	r2, r3
 2741 0092 3B68     		ldr	r3, [r7, #0]
 2742 0094 5A71     		strb	r2, [r3, #5]
 882:/home/cuil/workspace/arm/lm3s811/TI_Stellaris/utils/ustdlib.c ****     ulTime = ulTemp;
 2743              		.loc 1 882 0
 2744 0096 FB68     		ldr	r3, [r7, #12]
 2745 0098 7B60     		str	r3, [r7, #4]
 883:/home/cuil/workspace/arm/lm3s811/TI_Stellaris/utils/ustdlib.c **** 
 884:/home/cuil/workspace/arm/lm3s811/TI_Stellaris/utils/ustdlib.c ****     //
 885:/home/cuil/workspace/arm/lm3s811/TI_Stellaris/utils/ustdlib.c ****     // Compute the day of the week.
 886:/home/cuil/workspace/arm/lm3s811/TI_Stellaris/utils/ustdlib.c ****     //
 887:/home/cuil/workspace/arm/lm3s811/TI_Stellaris/utils/ustdlib.c ****     psTime->ucWday = (ulTime + 4) % 7;
 2746              		.loc 1 887 0
 2747 009a 7B68     		ldr	r3, [r7, #4]
 2748 009c 03F10401 		add	r1, r3, #4
 2749 00a0 434B     		ldr	r3, .L67+8
 2750 00a2 A3FB0123 		umull	r2, r3, r3, r1
 2751 00a6 CA1A     		subs	r2, r1, r3
 2752 00a8 4FEA5202 		lsr	r2, r2, #1
 2753 00ac 9B18     		adds	r3, r3, r2
 2754 00ae 4FEA9302 		lsr	r2, r3, #2
 2755 00b2 1346     		mov	r3, r2
 2756 00b4 4FEAC303 		lsl	r3, r3, #3
 2757 00b8 9B1A     		subs	r3, r3, r2
 2758 00ba CA1A     		subs	r2, r1, r3
 2759 00bc D2B2     		uxtb	r2, r2
 2760 00be 3B68     		ldr	r3, [r7, #0]
 2761 00c0 1A71     		strb	r2, [r3, #4]
 888:/home/cuil/workspace/arm/lm3s811/TI_Stellaris/utils/ustdlib.c **** 
 889:/home/cuil/workspace/arm/lm3s811/TI_Stellaris/utils/ustdlib.c ****     //
 890:/home/cuil/workspace/arm/lm3s811/TI_Stellaris/utils/ustdlib.c ****     // Compute the number of leap years that have occurred since 1968, the
 891:/home/cuil/workspace/arm/lm3s811/TI_Stellaris/utils/ustdlib.c ****     // first leap year before 1970.  For the beginning of a leap year, cut the
 892:/home/cuil/workspace/arm/lm3s811/TI_Stellaris/utils/ustdlib.c ****     // month loop below at March so that the leap day is classified as February
 893:/home/cuil/workspace/arm/lm3s811/TI_Stellaris/utils/ustdlib.c ****     // 29 followed by March 1, instead of March 1 followed by another March 1.
 894:/home/cuil/workspace/arm/lm3s811/TI_Stellaris/utils/ustdlib.c ****     //
 895:/home/cuil/workspace/arm/lm3s811/TI_Stellaris/utils/ustdlib.c ****     ulTime += 366 + 365;
 2762              		.loc 1 895 0
 2763 00c2 7B68     		ldr	r3, [r7, #4]
 2764 00c4 03F53673 		add	r3, r3, #728
 2765 00c8 03F10303 		add	r3, r3, #3
 2766 00cc 7B60     		str	r3, [r7, #4]
 896:/home/cuil/workspace/arm/lm3s811/TI_Stellaris/utils/ustdlib.c ****     ulTemp = ulTime / ((4 * 365) + 1);
 2767              		.loc 1 896 0
 2768 00ce 7A68     		ldr	r2, [r7, #4]
 2769 00d0 384B     		ldr	r3, .L67+12
 2770 00d2 A3FB0213 		umull	r1, r3, r3, r2
 2771 00d6 4FEAD313 		lsr	r3, r3, #7
 2772 00da FB60     		str	r3, [r7, #12]
 897:/home/cuil/workspace/arm/lm3s811/TI_Stellaris/utils/ustdlib.c ****     if((ulTime - (ulTemp * ((4 * 365) + 1))) > (31 + 28))
 2773              		.loc 1 897 0
 2774 00dc FB68     		ldr	r3, [r7, #12]
 2775 00de 40F2B552 		movw	r2, #1461
 2776 00e2 02FB03F3 		mul	r3, r2, r3
 2777 00e6 7A68     		ldr	r2, [r7, #4]
 2778 00e8 D31A     		subs	r3, r2, r3
 2779 00ea 3B2B     		cmp	r3, #59
 2780 00ec 07D9     		bls	.L60
 898:/home/cuil/workspace/arm/lm3s811/TI_Stellaris/utils/ustdlib.c ****     {
 899:/home/cuil/workspace/arm/lm3s811/TI_Stellaris/utils/ustdlib.c ****         ulTemp++;
 2781              		.loc 1 899 0
 2782 00ee FB68     		ldr	r3, [r7, #12]
 2783 00f0 03F10103 		add	r3, r3, #1
 2784 00f4 FB60     		str	r3, [r7, #12]
 900:/home/cuil/workspace/arm/lm3s811/TI_Stellaris/utils/ustdlib.c ****         ulMonths = 12;
 2785              		.loc 1 900 0
 2786 00f6 4FF00C03 		mov	r3, #12
 2787 00fa BB60     		str	r3, [r7, #8]
 2788 00fc 02E0     		b	.L61
 2789              	.L60:
 901:/home/cuil/workspace/arm/lm3s811/TI_Stellaris/utils/ustdlib.c ****     }
 902:/home/cuil/workspace/arm/lm3s811/TI_Stellaris/utils/ustdlib.c ****     else
 903:/home/cuil/workspace/arm/lm3s811/TI_Stellaris/utils/ustdlib.c ****     {
 904:/home/cuil/workspace/arm/lm3s811/TI_Stellaris/utils/ustdlib.c ****         ulMonths = 2;
 2790              		.loc 1 904 0
 2791 00fe 4FF00203 		mov	r3, #2
 2792 0102 BB60     		str	r3, [r7, #8]
 2793              	.L61:
 905:/home/cuil/workspace/arm/lm3s811/TI_Stellaris/utils/ustdlib.c ****     }
 906:/home/cuil/workspace/arm/lm3s811/TI_Stellaris/utils/ustdlib.c **** 
 907:/home/cuil/workspace/arm/lm3s811/TI_Stellaris/utils/ustdlib.c ****     //
 908:/home/cuil/workspace/arm/lm3s811/TI_Stellaris/utils/ustdlib.c ****     // Extract the year.
 909:/home/cuil/workspace/arm/lm3s811/TI_Stellaris/utils/ustdlib.c ****     //
 910:/home/cuil/workspace/arm/lm3s811/TI_Stellaris/utils/ustdlib.c ****     psTime->usYear = ((ulTime - ulTemp) / 365) + 1968;
 2794              		.loc 1 910 0
 2795 0104 7A68     		ldr	r2, [r7, #4]
 2796 0106 FB68     		ldr	r3, [r7, #12]
 2797 0108 D21A     		subs	r2, r2, r3
 2798 010a 2B4B     		ldr	r3, .L67+16
 2799 010c A3FB0213 		umull	r1, r3, r3, r2
 2800 0110 D21A     		subs	r2, r2, r3
 2801 0112 4FEA5202 		lsr	r2, r2, #1
 2802 0116 9B18     		adds	r3, r3, r2
 2803 0118 4FEA1323 		lsr	r3, r3, #8
 2804 011c 9BB2     		uxth	r3, r3
 2805 011e 03F5F663 		add	r3, r3, #1968
 2806 0122 9AB2     		uxth	r2, r3
 2807 0124 3B68     		ldr	r3, [r7, #0]
 2808 0126 1A80     		strh	r2, [r3, #0]	@ movhi
 911:/home/cuil/workspace/arm/lm3s811/TI_Stellaris/utils/ustdlib.c ****     ulTime -= ((psTime->usYear - 1968) * 365) + ulTemp;
 2809              		.loc 1 911 0
 2810 0128 3B68     		ldr	r3, [r7, #0]
 2811 012a 1B88     		ldrh	r3, [r3, #0]
 2812 012c 40F26D12 		movw	r2, #365
 2813 0130 02FB03F3 		mul	r3, r2, r3
 2814 0134 1A46     		mov	r2, r3
 2815 0136 FB68     		ldr	r3, [r7, #12]
 2816 0138 D318     		adds	r3, r2, r3
 2817 013a 7A68     		ldr	r2, [r7, #4]
 2818 013c D21A     		subs	r2, r2, r3
 2819 013e 1F4B     		ldr	r3, .L67+20
 2820 0140 D318     		adds	r3, r2, r3
 2821 0142 7B60     		str	r3, [r7, #4]
 912:/home/cuil/workspace/arm/lm3s811/TI_Stellaris/utils/ustdlib.c **** 
 913:/home/cuil/workspace/arm/lm3s811/TI_Stellaris/utils/ustdlib.c ****     //
 914:/home/cuil/workspace/arm/lm3s811/TI_Stellaris/utils/ustdlib.c ****     // Extract the month.
 915:/home/cuil/workspace/arm/lm3s811/TI_Stellaris/utils/ustdlib.c ****     //
 916:/home/cuil/workspace/arm/lm3s811/TI_Stellaris/utils/ustdlib.c ****     for(ulTemp = 0; ulTemp < ulMonths; ulTemp++)
 2822              		.loc 1 916 0
 2823 0144 4FF00003 		mov	r3, #0
 2824 0148 FB60     		str	r3, [r7, #12]
 2825 014a 0BE0     		b	.L62
 2826              	.L65:
 917:/home/cuil/workspace/arm/lm3s811/TI_Stellaris/utils/ustdlib.c ****     {
 918:/home/cuil/workspace/arm/lm3s811/TI_Stellaris/utils/ustdlib.c ****         if(g_psDaysToMonth[ulTemp] > ulTime)
 2827              		.loc 1 918 0
 2828 014c 1C4B     		ldr	r3, .L67+24
 2829 014e FA68     		ldr	r2, [r7, #12]
 2830 0150 33F81230 		ldrh	r3, [r3, r2, lsl #1]
 2831 0154 1AB2     		sxth	r2, r3
 2832 0156 7B68     		ldr	r3, [r7, #4]
 2833 0158 9A42     		cmp	r2, r3
 2834 015a 08D8     		bhi	.L66
 2835              	.L63:
 916:/home/cuil/workspace/arm/lm3s811/TI_Stellaris/utils/ustdlib.c ****     for(ulTemp = 0; ulTemp < ulMonths; ulTemp++)
 2836              		.loc 1 916 0
 2837 015c FB68     		ldr	r3, [r7, #12]
 2838 015e 03F10103 		add	r3, r3, #1
 2839 0162 FB60     		str	r3, [r7, #12]
 2840              	.L62:
 916:/home/cuil/workspace/arm/lm3s811/TI_Stellaris/utils/ustdlib.c ****     for(ulTemp = 0; ulTemp < ulMonths; ulTemp++)
 2841              		.loc 1 916 0 is_stmt 0 discriminator 1
 2842 0164 FA68     		ldr	r2, [r7, #12]
 2843 0166 BB68     		ldr	r3, [r7, #8]
 2844 0168 9A42     		cmp	r2, r3
 2845 016a EFD3     		bcc	.L65
 2846 016c 00E0     		b	.L64
 2847              	.L66:
 919:/home/cuil/workspace/arm/lm3s811/TI_Stellaris/utils/ustdlib.c ****         {
 920:/home/cuil/workspace/arm/lm3s811/TI_Stellaris/utils/ustdlib.c ****             break;
 2848              		.loc 1 920 0 is_stmt 1
 2849 016e 00BF     		nop
 2850              	.L64:
 921:/home/cuil/workspace/arm/lm3s811/TI_Stellaris/utils/ustdlib.c ****         }
 922:/home/cuil/workspace/arm/lm3s811/TI_Stellaris/utils/ustdlib.c ****     }
 923:/home/cuil/workspace/arm/lm3s811/TI_Stellaris/utils/ustdlib.c ****     psTime->ucMon = ulTemp - 1;
 2851              		.loc 1 923 0
 2852 0170 FB68     		ldr	r3, [r7, #12]
 2853 0172 DBB2     		uxtb	r3, r3
 2854 0174 03F1FF33 		add	r3, r3, #-1
 2855 0178 DAB2     		uxtb	r2, r3
 2856 017a 3B68     		ldr	r3, [r7, #0]
 2857 017c 9A70     		strb	r2, [r3, #2]
 924:/home/cuil/workspace/arm/lm3s811/TI_Stellaris/utils/ustdlib.c **** 
 925:/home/cuil/workspace/arm/lm3s811/TI_Stellaris/utils/ustdlib.c ****     //
 926:/home/cuil/workspace/arm/lm3s811/TI_Stellaris/utils/ustdlib.c ****     // Extract the day of the month.
 927:/home/cuil/workspace/arm/lm3s811/TI_Stellaris/utils/ustdlib.c ****     //
 928:/home/cuil/workspace/arm/lm3s811/TI_Stellaris/utils/ustdlib.c ****     psTime->ucMday = ulTime - g_psDaysToMonth[ulTemp - 1] + 1;
 2858              		.loc 1 928 0
 2859 017e 7B68     		ldr	r3, [r7, #4]
 2860 0180 DAB2     		uxtb	r2, r3
 2861 0182 FB68     		ldr	r3, [r7, #12]
 2862 0184 03F1FF31 		add	r1, r3, #-1
 2863 0188 0D4B     		ldr	r3, .L67+24
 2864 018a 33F81130 		ldrh	r3, [r3, r1, lsl #1]
 2865 018e DBB2     		uxtb	r3, r3
 2866 0190 D31A     		subs	r3, r2, r3
 2867 0192 DBB2     		uxtb	r3, r3
 2868 0194 03F10103 		add	r3, r3, #1
 2869 0198 DAB2     		uxtb	r2, r3
 2870 019a 3B68     		ldr	r3, [r7, #0]
 2871 019c DA70     		strb	r2, [r3, #3]
 929:/home/cuil/workspace/arm/lm3s811/TI_Stellaris/utils/ustdlib.c **** }
 2872              		.loc 1 929 0
 2873 019e 07F11407 		add	r7, r7, #20
 2874 01a2 BD46     		mov	sp, r7
 2875 01a4 80BC     		pop	{r7}
 2876 01a6 7047     		bx	lr
 2877              	.L68:
 2878              		.align	2
 2879              	.L67:
 2880 01a8 89888888 		.word	-2004318071
 2881 01ac ABAAAAAA 		.word	-1431655765
 2882 01b0 25499224 		.word	613566757
 2883 01b4 73B06D16 		.word	376287347
 2884 01b8 61F31967 		.word	1729753953
 2885 01bc F0F50A00 		.word	718320
 2886 01c0 20000000 		.word	g_psDaysToMonth
 2887              		.cfi_endproc
 2888              	.LFE4:
 2890              		.section	.text.ucmptime,"ax",%progbits
 2891              		.align	2
 2892              		.thumb
 2893              		.thumb_func
 2895              	ucmptime:
 2896              	.LFB5:
 930:/home/cuil/workspace/arm/lm3s811/TI_Stellaris/utils/ustdlib.c **** 
 931:/home/cuil/workspace/arm/lm3s811/TI_Stellaris/utils/ustdlib.c **** //*****************************************************************************
 932:/home/cuil/workspace/arm/lm3s811/TI_Stellaris/utils/ustdlib.c **** //
 933:/home/cuil/workspace/arm/lm3s811/TI_Stellaris/utils/ustdlib.c **** //! Compares two time structures and determines if one is greater than,
 934:/home/cuil/workspace/arm/lm3s811/TI_Stellaris/utils/ustdlib.c **** //! less than, or equal to the other.
 935:/home/cuil/workspace/arm/lm3s811/TI_Stellaris/utils/ustdlib.c **** //!
 936:/home/cuil/workspace/arm/lm3s811/TI_Stellaris/utils/ustdlib.c **** //! \param pTime1 is the first time structure to compare.
 937:/home/cuil/workspace/arm/lm3s811/TI_Stellaris/utils/ustdlib.c **** //! \param pTime2 is the second time structure to compare.
 938:/home/cuil/workspace/arm/lm3s811/TI_Stellaris/utils/ustdlib.c **** //!
 939:/home/cuil/workspace/arm/lm3s811/TI_Stellaris/utils/ustdlib.c **** //! This function compares two time structures and returns a signed number
 940:/home/cuil/workspace/arm/lm3s811/TI_Stellaris/utils/ustdlib.c **** //! to indicate the result of the comparison.  If the time represented by
 941:/home/cuil/workspace/arm/lm3s811/TI_Stellaris/utils/ustdlib.c **** //! \e pTime1 is greater than the time represented by \e pTime2 then a positive
 942:/home/cuil/workspace/arm/lm3s811/TI_Stellaris/utils/ustdlib.c **** //! number is returned.  Likewise if \e pTime1 is less than \e pTime2 then a
 943:/home/cuil/workspace/arm/lm3s811/TI_Stellaris/utils/ustdlib.c **** //! negative number is returned.  If the two times are equal then the function
 944:/home/cuil/workspace/arm/lm3s811/TI_Stellaris/utils/ustdlib.c **** //! returns 0.
 945:/home/cuil/workspace/arm/lm3s811/TI_Stellaris/utils/ustdlib.c **** //!
 946:/home/cuil/workspace/arm/lm3s811/TI_Stellaris/utils/ustdlib.c **** //! \return Returns 0 if the two times are equal, +1 if \e pTime1 is greater
 947:/home/cuil/workspace/arm/lm3s811/TI_Stellaris/utils/ustdlib.c **** //! than \e pTime2, and -1 if \e pTime1 is less than \e pTime2.
 948:/home/cuil/workspace/arm/lm3s811/TI_Stellaris/utils/ustdlib.c **** //
 949:/home/cuil/workspace/arm/lm3s811/TI_Stellaris/utils/ustdlib.c **** //*****************************************************************************
 950:/home/cuil/workspace/arm/lm3s811/TI_Stellaris/utils/ustdlib.c **** static int
 951:/home/cuil/workspace/arm/lm3s811/TI_Stellaris/utils/ustdlib.c **** ucmptime(tTime *pTime1, tTime *pTime2)
 952:/home/cuil/workspace/arm/lm3s811/TI_Stellaris/utils/ustdlib.c **** {
 2897              		.loc 1 952 0
 2898              		.cfi_startproc
 2899              		@ args = 0, pretend = 0, frame = 8
 2900              		@ frame_needed = 1, uses_anonymous_args = 0
 2901              		@ link register save eliminated.
 2902 0000 80B4     		push	{r7}
 2903              	.LCFI17:
 2904              		.cfi_def_cfa_offset 4
 2905 0002 83B0     		sub	sp, sp, #12
 2906              	.LCFI18:
 2907              		.cfi_def_cfa_offset 16
 2908 0004 00AF     		add	r7, sp, #0
 2909              		.cfi_offset 7, -4
 2910              	.LCFI19:
 2911              		.cfi_def_cfa_register 7
 2912 0006 7860     		str	r0, [r7, #4]
 2913 0008 3960     		str	r1, [r7, #0]
 953:/home/cuil/workspace/arm/lm3s811/TI_Stellaris/utils/ustdlib.c ****     //
 954:/home/cuil/workspace/arm/lm3s811/TI_Stellaris/utils/ustdlib.c ****     // Compare each field in descending signficance to determine if
 955:/home/cuil/workspace/arm/lm3s811/TI_Stellaris/utils/ustdlib.c ****     // greater than, less than, or equal.
 956:/home/cuil/workspace/arm/lm3s811/TI_Stellaris/utils/ustdlib.c ****     //
 957:/home/cuil/workspace/arm/lm3s811/TI_Stellaris/utils/ustdlib.c ****     if(pTime1->usYear > pTime2->usYear)
 2914              		.loc 1 957 0
 2915 000a 7B68     		ldr	r3, [r7, #4]
 2916 000c 1A88     		ldrh	r2, [r3, #0]
 2917 000e 3B68     		ldr	r3, [r7, #0]
 2918 0010 1B88     		ldrh	r3, [r3, #0]
 2919 0012 9A42     		cmp	r2, r3
 2920 0014 02D9     		bls	.L70
 958:/home/cuil/workspace/arm/lm3s811/TI_Stellaris/utils/ustdlib.c ****     {
 959:/home/cuil/workspace/arm/lm3s811/TI_Stellaris/utils/ustdlib.c ****         return(1);
 2921              		.loc 1 959 0
 2922 0016 4FF00103 		mov	r3, #1
 2923 001a 64E0     		b	.L71
 2924              	.L70:
 960:/home/cuil/workspace/arm/lm3s811/TI_Stellaris/utils/ustdlib.c ****     }
 961:/home/cuil/workspace/arm/lm3s811/TI_Stellaris/utils/ustdlib.c ****     else if(pTime1->usYear < pTime2->usYear)
 2925              		.loc 1 961 0
 2926 001c 7B68     		ldr	r3, [r7, #4]
 2927 001e 1A88     		ldrh	r2, [r3, #0]
 2928 0020 3B68     		ldr	r3, [r7, #0]
 2929 0022 1B88     		ldrh	r3, [r3, #0]
 2930 0024 9A42     		cmp	r2, r3
 2931 0026 02D2     		bcs	.L72
 962:/home/cuil/workspace/arm/lm3s811/TI_Stellaris/utils/ustdlib.c ****     {
 963:/home/cuil/workspace/arm/lm3s811/TI_Stellaris/utils/ustdlib.c ****         return(-1);
 2932              		.loc 1 963 0
 2933 0028 4FF0FF33 		mov	r3, #-1
 2934 002c 5BE0     		b	.L71
 2935              	.L72:
 964:/home/cuil/workspace/arm/lm3s811/TI_Stellaris/utils/ustdlib.c ****     }
 965:/home/cuil/workspace/arm/lm3s811/TI_Stellaris/utils/ustdlib.c ****     else if(pTime1->ucMon > pTime2->ucMon)
 2936              		.loc 1 965 0
 2937 002e 7B68     		ldr	r3, [r7, #4]
 2938 0030 9A78     		ldrb	r2, [r3, #2]	@ zero_extendqisi2
 2939 0032 3B68     		ldr	r3, [r7, #0]
 2940 0034 9B78     		ldrb	r3, [r3, #2]	@ zero_extendqisi2
 2941 0036 9A42     		cmp	r2, r3
 2942 0038 02D9     		bls	.L73
 966:/home/cuil/workspace/arm/lm3s811/TI_Stellaris/utils/ustdlib.c ****     {
 967:/home/cuil/workspace/arm/lm3s811/TI_Stellaris/utils/ustdlib.c ****         return(1);
 2943              		.loc 1 967 0
 2944 003a 4FF00103 		mov	r3, #1
 2945 003e 52E0     		b	.L71
 2946              	.L73:
 968:/home/cuil/workspace/arm/lm3s811/TI_Stellaris/utils/ustdlib.c ****     }
 969:/home/cuil/workspace/arm/lm3s811/TI_Stellaris/utils/ustdlib.c ****     else if(pTime1->ucMon < pTime2->ucMon)
 2947              		.loc 1 969 0
 2948 0040 7B68     		ldr	r3, [r7, #4]
 2949 0042 9A78     		ldrb	r2, [r3, #2]	@ zero_extendqisi2
 2950 0044 3B68     		ldr	r3, [r7, #0]
 2951 0046 9B78     		ldrb	r3, [r3, #2]	@ zero_extendqisi2
 2952 0048 9A42     		cmp	r2, r3
 2953 004a 02D2     		bcs	.L74
 970:/home/cuil/workspace/arm/lm3s811/TI_Stellaris/utils/ustdlib.c ****     {
 971:/home/cuil/workspace/arm/lm3s811/TI_Stellaris/utils/ustdlib.c ****         return(-1);
 2954              		.loc 1 971 0
 2955 004c 4FF0FF33 		mov	r3, #-1
 2956 0050 49E0     		b	.L71
 2957              	.L74:
 972:/home/cuil/workspace/arm/lm3s811/TI_Stellaris/utils/ustdlib.c ****     }
 973:/home/cuil/workspace/arm/lm3s811/TI_Stellaris/utils/ustdlib.c ****     else if(pTime1->ucMday > pTime2->ucMday)
 2958              		.loc 1 973 0
 2959 0052 7B68     		ldr	r3, [r7, #4]
 2960 0054 DA78     		ldrb	r2, [r3, #3]	@ zero_extendqisi2
 2961 0056 3B68     		ldr	r3, [r7, #0]
 2962 0058 DB78     		ldrb	r3, [r3, #3]	@ zero_extendqisi2
 2963 005a 9A42     		cmp	r2, r3
 2964 005c 02D9     		bls	.L75
 974:/home/cuil/workspace/arm/lm3s811/TI_Stellaris/utils/ustdlib.c ****     {
 975:/home/cuil/workspace/arm/lm3s811/TI_Stellaris/utils/ustdlib.c ****         return(1);
 2965              		.loc 1 975 0
 2966 005e 4FF00103 		mov	r3, #1
 2967 0062 40E0     		b	.L71
 2968              	.L75:
 976:/home/cuil/workspace/arm/lm3s811/TI_Stellaris/utils/ustdlib.c ****     }
 977:/home/cuil/workspace/arm/lm3s811/TI_Stellaris/utils/ustdlib.c ****     else if(pTime1->ucMday < pTime2->ucMday)
 2969              		.loc 1 977 0
 2970 0064 7B68     		ldr	r3, [r7, #4]
 2971 0066 DA78     		ldrb	r2, [r3, #3]	@ zero_extendqisi2
 2972 0068 3B68     		ldr	r3, [r7, #0]
 2973 006a DB78     		ldrb	r3, [r3, #3]	@ zero_extendqisi2
 2974 006c 9A42     		cmp	r2, r3
 2975 006e 02D2     		bcs	.L76
 978:/home/cuil/workspace/arm/lm3s811/TI_Stellaris/utils/ustdlib.c ****     {
 979:/home/cuil/workspace/arm/lm3s811/TI_Stellaris/utils/ustdlib.c ****         return(-1);
 2976              		.loc 1 979 0
 2977 0070 4FF0FF33 		mov	r3, #-1
 2978 0074 37E0     		b	.L71
 2979              	.L76:
 980:/home/cuil/workspace/arm/lm3s811/TI_Stellaris/utils/ustdlib.c ****     }
 981:/home/cuil/workspace/arm/lm3s811/TI_Stellaris/utils/ustdlib.c ****     else if(pTime1->ucHour > pTime2->ucHour)
 2980              		.loc 1 981 0
 2981 0076 7B68     		ldr	r3, [r7, #4]
 2982 0078 5A79     		ldrb	r2, [r3, #5]	@ zero_extendqisi2
 2983 007a 3B68     		ldr	r3, [r7, #0]
 2984 007c 5B79     		ldrb	r3, [r3, #5]	@ zero_extendqisi2
 2985 007e 9A42     		cmp	r2, r3
 2986 0080 02D9     		bls	.L77
 982:/home/cuil/workspace/arm/lm3s811/TI_Stellaris/utils/ustdlib.c ****     {
 983:/home/cuil/workspace/arm/lm3s811/TI_Stellaris/utils/ustdlib.c ****         return(1);
 2987              		.loc 1 983 0
 2988 0082 4FF00103 		mov	r3, #1
 2989 0086 2EE0     		b	.L71
 2990              	.L77:
 984:/home/cuil/workspace/arm/lm3s811/TI_Stellaris/utils/ustdlib.c ****     }
 985:/home/cuil/workspace/arm/lm3s811/TI_Stellaris/utils/ustdlib.c ****     else if(pTime1->ucHour < pTime2->ucHour)
 2991              		.loc 1 985 0
 2992 0088 7B68     		ldr	r3, [r7, #4]
 2993 008a 5A79     		ldrb	r2, [r3, #5]	@ zero_extendqisi2
 2994 008c 3B68     		ldr	r3, [r7, #0]
 2995 008e 5B79     		ldrb	r3, [r3, #5]	@ zero_extendqisi2
 2996 0090 9A42     		cmp	r2, r3
 2997 0092 02D2     		bcs	.L78
 986:/home/cuil/workspace/arm/lm3s811/TI_Stellaris/utils/ustdlib.c ****     {
 987:/home/cuil/workspace/arm/lm3s811/TI_Stellaris/utils/ustdlib.c ****         return(-1);
 2998              		.loc 1 987 0
 2999 0094 4FF0FF33 		mov	r3, #-1
 3000 0098 25E0     		b	.L71
 3001              	.L78:
 988:/home/cuil/workspace/arm/lm3s811/TI_Stellaris/utils/ustdlib.c ****     }
 989:/home/cuil/workspace/arm/lm3s811/TI_Stellaris/utils/ustdlib.c ****     else if(pTime1->ucMin > pTime2->ucMin)
 3002              		.loc 1 989 0
 3003 009a 7B68     		ldr	r3, [r7, #4]
 3004 009c 9A79     		ldrb	r2, [r3, #6]	@ zero_extendqisi2
 3005 009e 3B68     		ldr	r3, [r7, #0]
 3006 00a0 9B79     		ldrb	r3, [r3, #6]	@ zero_extendqisi2
 3007 00a2 9A42     		cmp	r2, r3
 3008 00a4 02D9     		bls	.L79
 990:/home/cuil/workspace/arm/lm3s811/TI_Stellaris/utils/ustdlib.c ****     {
 991:/home/cuil/workspace/arm/lm3s811/TI_Stellaris/utils/ustdlib.c ****         return(1);
 3009              		.loc 1 991 0
 3010 00a6 4FF00103 		mov	r3, #1
 3011 00aa 1CE0     		b	.L71
 3012              	.L79:
 992:/home/cuil/workspace/arm/lm3s811/TI_Stellaris/utils/ustdlib.c ****     }
 993:/home/cuil/workspace/arm/lm3s811/TI_Stellaris/utils/ustdlib.c ****     else if(pTime1->ucMin < pTime2->ucMin)
 3013              		.loc 1 993 0
 3014 00ac 7B68     		ldr	r3, [r7, #4]
 3015 00ae 9A79     		ldrb	r2, [r3, #6]	@ zero_extendqisi2
 3016 00b0 3B68     		ldr	r3, [r7, #0]
 3017 00b2 9B79     		ldrb	r3, [r3, #6]	@ zero_extendqisi2
 3018 00b4 9A42     		cmp	r2, r3
 3019 00b6 02D2     		bcs	.L80
 994:/home/cuil/workspace/arm/lm3s811/TI_Stellaris/utils/ustdlib.c ****     {
 995:/home/cuil/workspace/arm/lm3s811/TI_Stellaris/utils/ustdlib.c ****         return(-1);
 3020              		.loc 1 995 0
 3021 00b8 4FF0FF33 		mov	r3, #-1
 3022 00bc 13E0     		b	.L71
 3023              	.L80:
 996:/home/cuil/workspace/arm/lm3s811/TI_Stellaris/utils/ustdlib.c ****     }
 997:/home/cuil/workspace/arm/lm3s811/TI_Stellaris/utils/ustdlib.c ****     else if(pTime1->ucSec > pTime2->ucSec)
 3024              		.loc 1 997 0
 3025 00be 7B68     		ldr	r3, [r7, #4]
 3026 00c0 DA79     		ldrb	r2, [r3, #7]	@ zero_extendqisi2
 3027 00c2 3B68     		ldr	r3, [r7, #0]
 3028 00c4 DB79     		ldrb	r3, [r3, #7]	@ zero_extendqisi2
 3029 00c6 9A42     		cmp	r2, r3
 3030 00c8 02D9     		bls	.L81
 998:/home/cuil/workspace/arm/lm3s811/TI_Stellaris/utils/ustdlib.c ****     {
 999:/home/cuil/workspace/arm/lm3s811/TI_Stellaris/utils/ustdlib.c ****         return(1);
 3031              		.loc 1 999 0
 3032 00ca 4FF00103 		mov	r3, #1
 3033 00ce 0AE0     		b	.L71
 3034              	.L81:
1000:/home/cuil/workspace/arm/lm3s811/TI_Stellaris/utils/ustdlib.c ****     }
1001:/home/cuil/workspace/arm/lm3s811/TI_Stellaris/utils/ustdlib.c ****     else if(pTime1->ucSec < pTime2->ucSec)
 3035              		.loc 1 1001 0
 3036 00d0 7B68     		ldr	r3, [r7, #4]
 3037 00d2 DA79     		ldrb	r2, [r3, #7]	@ zero_extendqisi2
 3038 00d4 3B68     		ldr	r3, [r7, #0]
 3039 00d6 DB79     		ldrb	r3, [r3, #7]	@ zero_extendqisi2
 3040 00d8 9A42     		cmp	r2, r3
 3041 00da 02D2     		bcs	.L82
1002:/home/cuil/workspace/arm/lm3s811/TI_Stellaris/utils/ustdlib.c ****     {
1003:/home/cuil/workspace/arm/lm3s811/TI_Stellaris/utils/ustdlib.c ****         return(-1);
 3042              		.loc 1 1003 0
 3043 00dc 4FF0FF33 		mov	r3, #-1
 3044 00e0 01E0     		b	.L71
 3045              	.L82:
1004:/home/cuil/workspace/arm/lm3s811/TI_Stellaris/utils/ustdlib.c ****     }
1005:/home/cuil/workspace/arm/lm3s811/TI_Stellaris/utils/ustdlib.c ****     else
1006:/home/cuil/workspace/arm/lm3s811/TI_Stellaris/utils/ustdlib.c ****     {
1007:/home/cuil/workspace/arm/lm3s811/TI_Stellaris/utils/ustdlib.c ****         //
1008:/home/cuil/workspace/arm/lm3s811/TI_Stellaris/utils/ustdlib.c ****         // Reaching this branch of the conditional means that all of the
1009:/home/cuil/workspace/arm/lm3s811/TI_Stellaris/utils/ustdlib.c ****         // fields are equal, and thus the two times are equal.
1010:/home/cuil/workspace/arm/lm3s811/TI_Stellaris/utils/ustdlib.c ****         //
1011:/home/cuil/workspace/arm/lm3s811/TI_Stellaris/utils/ustdlib.c ****         return(0);
 3046              		.loc 1 1011 0
 3047 00e2 4FF00003 		mov	r3, #0
 3048              	.L71:
1012:/home/cuil/workspace/arm/lm3s811/TI_Stellaris/utils/ustdlib.c ****     }
1013:/home/cuil/workspace/arm/lm3s811/TI_Stellaris/utils/ustdlib.c **** }
 3049              		.loc 1 1013 0
 3050 00e6 1846     		mov	r0, r3
 3051 00e8 07F10C07 		add	r7, r7, #12
 3052 00ec BD46     		mov	sp, r7
 3053 00ee 80BC     		pop	{r7}
 3054 00f0 7047     		bx	lr
 3055              		.cfi_endproc
 3056              	.LFE5:
 3058 00f2 00BF     		.section	.text.umktime,"ax",%progbits
 3059              		.align	2
 3060              		.global	umktime
 3061              		.thumb
 3062              		.thumb_func
 3064              	umktime:
 3065              	.LFB6:
1014:/home/cuil/workspace/arm/lm3s811/TI_Stellaris/utils/ustdlib.c **** 
1015:/home/cuil/workspace/arm/lm3s811/TI_Stellaris/utils/ustdlib.c **** //*****************************************************************************
1016:/home/cuil/workspace/arm/lm3s811/TI_Stellaris/utils/ustdlib.c **** //
1017:/home/cuil/workspace/arm/lm3s811/TI_Stellaris/utils/ustdlib.c **** //! Converts calendar date and time to seconds.
1018:/home/cuil/workspace/arm/lm3s811/TI_Stellaris/utils/ustdlib.c **** //!
1019:/home/cuil/workspace/arm/lm3s811/TI_Stellaris/utils/ustdlib.c **** //! \param psTime is a pointer to the time structure that is filled in with the
1020:/home/cuil/workspace/arm/lm3s811/TI_Stellaris/utils/ustdlib.c **** //! broken down date and time.
1021:/home/cuil/workspace/arm/lm3s811/TI_Stellaris/utils/ustdlib.c **** //!
1022:/home/cuil/workspace/arm/lm3s811/TI_Stellaris/utils/ustdlib.c **** //! This function converts the date and time represented by the \e psTime
1023:/home/cuil/workspace/arm/lm3s811/TI_Stellaris/utils/ustdlib.c **** //! structure pointer to the number of seconds since midnight GMT on January 1,
1024:/home/cuil/workspace/arm/lm3s811/TI_Stellaris/utils/ustdlib.c **** //! 1970 (traditional Unix epoch).
1025:/home/cuil/workspace/arm/lm3s811/TI_Stellaris/utils/ustdlib.c **** //!
1026:/home/cuil/workspace/arm/lm3s811/TI_Stellaris/utils/ustdlib.c **** //! \return Returns the calendar time and date as seconds.  If the conversion
1027:/home/cuil/workspace/arm/lm3s811/TI_Stellaris/utils/ustdlib.c **** //! was not possible then the function returns (unsigned long)(-1).
1028:/home/cuil/workspace/arm/lm3s811/TI_Stellaris/utils/ustdlib.c **** //
1029:/home/cuil/workspace/arm/lm3s811/TI_Stellaris/utils/ustdlib.c **** //*****************************************************************************
1030:/home/cuil/workspace/arm/lm3s811/TI_Stellaris/utils/ustdlib.c **** unsigned long
1031:/home/cuil/workspace/arm/lm3s811/TI_Stellaris/utils/ustdlib.c **** umktime(tTime *psTime)
1032:/home/cuil/workspace/arm/lm3s811/TI_Stellaris/utils/ustdlib.c **** {
 3066              		.loc 1 1032 0
 3067              		.cfi_startproc
 3068              		@ args = 0, pretend = 0, frame = 32
 3069              		@ frame_needed = 1, uses_anonymous_args = 0
 3070 0000 80B5     		push	{r7, lr}
 3071              	.LCFI20:
 3072              		.cfi_def_cfa_offset 8
 3073 0002 88B0     		sub	sp, sp, #32
 3074              	.LCFI21:
 3075              		.cfi_def_cfa_offset 40
 3076 0004 00AF     		add	r7, sp, #0
 3077              		.cfi_offset 14, -4
 3078              		.cfi_offset 7, -8
 3079              	.LCFI22:
 3080              		.cfi_def_cfa_register 7
 3081 0006 7860     		str	r0, [r7, #4]
1033:/home/cuil/workspace/arm/lm3s811/TI_Stellaris/utils/ustdlib.c ****     tTime sTimeGuess;
1034:/home/cuil/workspace/arm/lm3s811/TI_Stellaris/utils/ustdlib.c ****     unsigned long ulTimeGuess = 0x80000000;
 3082              		.loc 1 1034 0
 3083 0008 4FF00043 		mov	r3, #-2147483648
 3084 000c FB61     		str	r3, [r7, #28]
1035:/home/cuil/workspace/arm/lm3s811/TI_Stellaris/utils/ustdlib.c ****     unsigned long ulAdjust = 0x40000000;
 3085              		.loc 1 1035 0
 3086 000e 4FF08043 		mov	r3, #1073741824
 3087 0012 BB61     		str	r3, [r7, #24]
1036:/home/cuil/workspace/arm/lm3s811/TI_Stellaris/utils/ustdlib.c ****     int iSign;
1037:/home/cuil/workspace/arm/lm3s811/TI_Stellaris/utils/ustdlib.c **** 
1038:/home/cuil/workspace/arm/lm3s811/TI_Stellaris/utils/ustdlib.c ****     //
1039:/home/cuil/workspace/arm/lm3s811/TI_Stellaris/utils/ustdlib.c ****     // Seed the binary search with the first guess.
1040:/home/cuil/workspace/arm/lm3s811/TI_Stellaris/utils/ustdlib.c ****     //
1041:/home/cuil/workspace/arm/lm3s811/TI_Stellaris/utils/ustdlib.c ****     ulocaltime(ulTimeGuess, &sTimeGuess);
 3088              		.loc 1 1041 0
 3089 0014 07F10C03 		add	r3, r7, #12
 3090 0018 F869     		ldr	r0, [r7, #28]
 3091 001a 1946     		mov	r1, r3
 3092 001c FFF7FEFF 		bl	ulocaltime
1042:/home/cuil/workspace/arm/lm3s811/TI_Stellaris/utils/ustdlib.c ****     iSign = ucmptime(psTime, &sTimeGuess);
 3093              		.loc 1 1042 0
 3094 0020 07F10C03 		add	r3, r7, #12
 3095 0024 7868     		ldr	r0, [r7, #4]
 3096 0026 1946     		mov	r1, r3
 3097 0028 FFF7FEFF 		bl	ucmptime
 3098 002c 7861     		str	r0, [r7, #20]
1043:/home/cuil/workspace/arm/lm3s811/TI_Stellaris/utils/ustdlib.c **** 
1044:/home/cuil/workspace/arm/lm3s811/TI_Stellaris/utils/ustdlib.c ****     //
1045:/home/cuil/workspace/arm/lm3s811/TI_Stellaris/utils/ustdlib.c ****     // While the time is not yet found, execute a binary search.
1046:/home/cuil/workspace/arm/lm3s811/TI_Stellaris/utils/ustdlib.c ****     //
1047:/home/cuil/workspace/arm/lm3s811/TI_Stellaris/utils/ustdlib.c ****     while(iSign && ulAdjust)
 3099              		.loc 1 1047 0
 3100 002e 1BE0     		b	.L84
 3101              	.L88:
1048:/home/cuil/workspace/arm/lm3s811/TI_Stellaris/utils/ustdlib.c ****     {
1049:/home/cuil/workspace/arm/lm3s811/TI_Stellaris/utils/ustdlib.c ****         //
1050:/home/cuil/workspace/arm/lm3s811/TI_Stellaris/utils/ustdlib.c ****         // Adjust the time guess up or down depending on the result of the
1051:/home/cuil/workspace/arm/lm3s811/TI_Stellaris/utils/ustdlib.c ****         // last compare.
1052:/home/cuil/workspace/arm/lm3s811/TI_Stellaris/utils/ustdlib.c ****         //
1053:/home/cuil/workspace/arm/lm3s811/TI_Stellaris/utils/ustdlib.c ****         ulTimeGuess = (iSign > 0) ? (ulTimeGuess + ulAdjust) :
 3102              		.loc 1 1053 0
 3103 0030 7B69     		ldr	r3, [r7, #20]
 3104 0032 002B     		cmp	r3, #0
 3105 0034 03DD     		ble	.L85
 3106              		.loc 1 1053 0 is_stmt 0 discriminator 1
 3107 0036 FA69     		ldr	r2, [r7, #28]
 3108 0038 BB69     		ldr	r3, [r7, #24]
 3109 003a D318     		adds	r3, r2, r3
 3110 003c 02E0     		b	.L86
 3111              	.L85:
 3112              		.loc 1 1053 0 discriminator 2
 3113 003e FA69     		ldr	r2, [r7, #28]
 3114 0040 BB69     		ldr	r3, [r7, #24]
 3115 0042 D31A     		subs	r3, r2, r3
 3116              	.L86:
 3117              		.loc 1 1053 0 discriminator 3
 3118 0044 FB61     		str	r3, [r7, #28]
1054:/home/cuil/workspace/arm/lm3s811/TI_Stellaris/utils/ustdlib.c ****                                     (ulTimeGuess - ulAdjust);
1055:/home/cuil/workspace/arm/lm3s811/TI_Stellaris/utils/ustdlib.c ****         ulAdjust /= 2;
 3119              		.loc 1 1055 0 is_stmt 1 discriminator 3
 3120 0046 BB69     		ldr	r3, [r7, #24]
 3121 0048 4FEA5303 		lsr	r3, r3, #1
 3122 004c BB61     		str	r3, [r7, #24]
1056:/home/cuil/workspace/arm/lm3s811/TI_Stellaris/utils/ustdlib.c **** 
1057:/home/cuil/workspace/arm/lm3s811/TI_Stellaris/utils/ustdlib.c ****         //
1058:/home/cuil/workspace/arm/lm3s811/TI_Stellaris/utils/ustdlib.c ****         // Compare the new time guess against the time pointed at by the
1059:/home/cuil/workspace/arm/lm3s811/TI_Stellaris/utils/ustdlib.c ****         // function parameters.
1060:/home/cuil/workspace/arm/lm3s811/TI_Stellaris/utils/ustdlib.c ****         //
1061:/home/cuil/workspace/arm/lm3s811/TI_Stellaris/utils/ustdlib.c ****         ulocaltime(ulTimeGuess, &sTimeGuess);
 3123              		.loc 1 1061 0 discriminator 3
 3124 004e 07F10C03 		add	r3, r7, #12
 3125 0052 F869     		ldr	r0, [r7, #28]
 3126 0054 1946     		mov	r1, r3
 3127 0056 FFF7FEFF 		bl	ulocaltime
1062:/home/cuil/workspace/arm/lm3s811/TI_Stellaris/utils/ustdlib.c ****         iSign = ucmptime(psTime, &sTimeGuess);
 3128              		.loc 1 1062 0 discriminator 3
 3129 005a 07F10C03 		add	r3, r7, #12
 3130 005e 7868     		ldr	r0, [r7, #4]
 3131 0060 1946     		mov	r1, r3
 3132 0062 FFF7FEFF 		bl	ucmptime
 3133 0066 7861     		str	r0, [r7, #20]
 3134              	.L84:
1047:/home/cuil/workspace/arm/lm3s811/TI_Stellaris/utils/ustdlib.c ****     while(iSign && ulAdjust)
 3135              		.loc 1 1047 0 discriminator 1
 3136 0068 7B69     		ldr	r3, [r7, #20]
 3137 006a 002B     		cmp	r3, #0
 3138 006c 02D0     		beq	.L87
1047:/home/cuil/workspace/arm/lm3s811/TI_Stellaris/utils/ustdlib.c ****     while(iSign && ulAdjust)
 3139              		.loc 1 1047 0 is_stmt 0 discriminator 2
 3140 006e BB69     		ldr	r3, [r7, #24]
 3141 0070 002B     		cmp	r3, #0
 3142 0072 DDD1     		bne	.L88
 3143              	.L87:
1063:/home/cuil/workspace/arm/lm3s811/TI_Stellaris/utils/ustdlib.c ****     };
1064:/home/cuil/workspace/arm/lm3s811/TI_Stellaris/utils/ustdlib.c **** 
1065:/home/cuil/workspace/arm/lm3s811/TI_Stellaris/utils/ustdlib.c ****     //
1066:/home/cuil/workspace/arm/lm3s811/TI_Stellaris/utils/ustdlib.c ****     // If the above loop was exited with iSign == 0, that means that the
1067:/home/cuil/workspace/arm/lm3s811/TI_Stellaris/utils/ustdlib.c ****     // time in seconds was found, so return that value to the caller.
1068:/home/cuil/workspace/arm/lm3s811/TI_Stellaris/utils/ustdlib.c ****     //
1069:/home/cuil/workspace/arm/lm3s811/TI_Stellaris/utils/ustdlib.c ****     if(iSign == 0)
 3144              		.loc 1 1069 0 is_stmt 1
 3145 0074 7B69     		ldr	r3, [r7, #20]
 3146 0076 002B     		cmp	r3, #0
 3147 0078 01D1     		bne	.L89
1070:/home/cuil/workspace/arm/lm3s811/TI_Stellaris/utils/ustdlib.c ****     {
1071:/home/cuil/workspace/arm/lm3s811/TI_Stellaris/utils/ustdlib.c ****         return(ulTimeGuess);
 3148              		.loc 1 1071 0
 3149 007a FB69     		ldr	r3, [r7, #28]
 3150 007c 01E0     		b	.L90
 3151              	.L89:
1072:/home/cuil/workspace/arm/lm3s811/TI_Stellaris/utils/ustdlib.c ****     }
1073:/home/cuil/workspace/arm/lm3s811/TI_Stellaris/utils/ustdlib.c **** 
1074:/home/cuil/workspace/arm/lm3s811/TI_Stellaris/utils/ustdlib.c ****     //
1075:/home/cuil/workspace/arm/lm3s811/TI_Stellaris/utils/ustdlib.c ****     // Otherwise the time could not be converted so return an error.
1076:/home/cuil/workspace/arm/lm3s811/TI_Stellaris/utils/ustdlib.c ****     //
1077:/home/cuil/workspace/arm/lm3s811/TI_Stellaris/utils/ustdlib.c ****     else
1078:/home/cuil/workspace/arm/lm3s811/TI_Stellaris/utils/ustdlib.c ****     {
1079:/home/cuil/workspace/arm/lm3s811/TI_Stellaris/utils/ustdlib.c ****         return((unsigned long)-1);
 3152              		.loc 1 1079 0
 3153 007e 4FF0FF33 		mov	r3, #-1
 3154              	.L90:
1080:/home/cuil/workspace/arm/lm3s811/TI_Stellaris/utils/ustdlib.c ****     }
1081:/home/cuil/workspace/arm/lm3s811/TI_Stellaris/utils/ustdlib.c **** }
 3155              		.loc 1 1081 0
 3156 0082 1846     		mov	r0, r3
 3157 0084 07F12007 		add	r7, r7, #32
 3158 0088 BD46     		mov	sp, r7
 3159 008a 80BD     		pop	{r7, pc}
 3160              		.cfi_endproc
 3161              	.LFE6:
 3163              		.section	.text.ustrtoul,"ax",%progbits
 3164              		.align	2
 3165              		.global	ustrtoul
 3166              		.thumb
 3167              		.thumb_func
 3169              	ustrtoul:
 3170              	.LFB7:
1082:/home/cuil/workspace/arm/lm3s811/TI_Stellaris/utils/ustdlib.c **** 
1083:/home/cuil/workspace/arm/lm3s811/TI_Stellaris/utils/ustdlib.c **** //*****************************************************************************
1084:/home/cuil/workspace/arm/lm3s811/TI_Stellaris/utils/ustdlib.c **** //
1085:/home/cuil/workspace/arm/lm3s811/TI_Stellaris/utils/ustdlib.c **** //! Converts a string into its numeric equivalent.
1086:/home/cuil/workspace/arm/lm3s811/TI_Stellaris/utils/ustdlib.c **** //!
1087:/home/cuil/workspace/arm/lm3s811/TI_Stellaris/utils/ustdlib.c **** //! \param pcStr is a pointer to the string containing the integer.
1088:/home/cuil/workspace/arm/lm3s811/TI_Stellaris/utils/ustdlib.c **** //! \param ppcStrRet is a pointer that will be set to the first character past
1089:/home/cuil/workspace/arm/lm3s811/TI_Stellaris/utils/ustdlib.c **** //! the integer in the string.
1090:/home/cuil/workspace/arm/lm3s811/TI_Stellaris/utils/ustdlib.c **** //! \param iBase is the radix to use for the conversion; can be zero to
1091:/home/cuil/workspace/arm/lm3s811/TI_Stellaris/utils/ustdlib.c **** //! auto-select the radix or between 2 and 16 to explicitly specify the radix.
1092:/home/cuil/workspace/arm/lm3s811/TI_Stellaris/utils/ustdlib.c **** //!
1093:/home/cuil/workspace/arm/lm3s811/TI_Stellaris/utils/ustdlib.c **** //! This function is very similar to the C library <tt>strtoul()</tt> function.
1094:/home/cuil/workspace/arm/lm3s811/TI_Stellaris/utils/ustdlib.c **** //! It scans a string for the first token (that is, non-white space) and
1095:/home/cuil/workspace/arm/lm3s811/TI_Stellaris/utils/ustdlib.c **** //! converts the value at that location in the string into an integer value.
1096:/home/cuil/workspace/arm/lm3s811/TI_Stellaris/utils/ustdlib.c **** //!
1097:/home/cuil/workspace/arm/lm3s811/TI_Stellaris/utils/ustdlib.c **** //! \return Returns the result of the conversion.
1098:/home/cuil/workspace/arm/lm3s811/TI_Stellaris/utils/ustdlib.c **** //
1099:/home/cuil/workspace/arm/lm3s811/TI_Stellaris/utils/ustdlib.c **** //*****************************************************************************
1100:/home/cuil/workspace/arm/lm3s811/TI_Stellaris/utils/ustdlib.c **** unsigned long
1101:/home/cuil/workspace/arm/lm3s811/TI_Stellaris/utils/ustdlib.c **** ustrtoul(const char *pcStr, const char **ppcStrRet, int iBase)
1102:/home/cuil/workspace/arm/lm3s811/TI_Stellaris/utils/ustdlib.c **** {
 3171              		.loc 1 1102 0
 3172              		.cfi_startproc
 3173              		@ args = 0, pretend = 0, frame = 40
 3174              		@ frame_needed = 1, uses_anonymous_args = 0
 3175              		@ link register save eliminated.
 3176 0000 80B4     		push	{r7}
 3177              	.LCFI23:
 3178              		.cfi_def_cfa_offset 4
 3179 0002 8BB0     		sub	sp, sp, #44
 3180              	.LCFI24:
 3181              		.cfi_def_cfa_offset 48
 3182 0004 00AF     		add	r7, sp, #0
 3183              		.cfi_offset 7, -4
 3184              	.LCFI25:
 3185              		.cfi_def_cfa_register 7
 3186 0006 F860     		str	r0, [r7, #12]
 3187 0008 B960     		str	r1, [r7, #8]
 3188 000a 7A60     		str	r2, [r7, #4]
1103:/home/cuil/workspace/arm/lm3s811/TI_Stellaris/utils/ustdlib.c ****     unsigned long ulRet, ulDigit, ulNeg, ulValid;
1104:/home/cuil/workspace/arm/lm3s811/TI_Stellaris/utils/ustdlib.c ****     const char *pcPtr;
1105:/home/cuil/workspace/arm/lm3s811/TI_Stellaris/utils/ustdlib.c **** 
1106:/home/cuil/workspace/arm/lm3s811/TI_Stellaris/utils/ustdlib.c ****     //
1107:/home/cuil/workspace/arm/lm3s811/TI_Stellaris/utils/ustdlib.c ****     // Check the arguments.
1108:/home/cuil/workspace/arm/lm3s811/TI_Stellaris/utils/ustdlib.c ****     //
1109:/home/cuil/workspace/arm/lm3s811/TI_Stellaris/utils/ustdlib.c ****     ASSERT(pcStr);
1110:/home/cuil/workspace/arm/lm3s811/TI_Stellaris/utils/ustdlib.c ****     ASSERT((iBase == 0) || ((iBase > 1) && (iBase <= 16)));
1111:/home/cuil/workspace/arm/lm3s811/TI_Stellaris/utils/ustdlib.c **** 
1112:/home/cuil/workspace/arm/lm3s811/TI_Stellaris/utils/ustdlib.c ****     //
1113:/home/cuil/workspace/arm/lm3s811/TI_Stellaris/utils/ustdlib.c ****     // Initially, the result is zero.
1114:/home/cuil/workspace/arm/lm3s811/TI_Stellaris/utils/ustdlib.c ****     //
1115:/home/cuil/workspace/arm/lm3s811/TI_Stellaris/utils/ustdlib.c ****     ulRet = 0;
 3189              		.loc 1 1115 0
 3190 000c 4FF00003 		mov	r3, #0
 3191 0010 7B62     		str	r3, [r7, #36]
1116:/home/cuil/workspace/arm/lm3s811/TI_Stellaris/utils/ustdlib.c ****     ulNeg = 0;
 3192              		.loc 1 1116 0
 3193 0012 4FF00003 		mov	r3, #0
 3194 0016 FB61     		str	r3, [r7, #28]
1117:/home/cuil/workspace/arm/lm3s811/TI_Stellaris/utils/ustdlib.c ****     ulValid = 0;
 3195              		.loc 1 1117 0
 3196 0018 4FF00003 		mov	r3, #0
 3197 001c BB61     		str	r3, [r7, #24]
1118:/home/cuil/workspace/arm/lm3s811/TI_Stellaris/utils/ustdlib.c **** 
1119:/home/cuil/workspace/arm/lm3s811/TI_Stellaris/utils/ustdlib.c ****     //
1120:/home/cuil/workspace/arm/lm3s811/TI_Stellaris/utils/ustdlib.c ****     // Skip past any leading white space.
1121:/home/cuil/workspace/arm/lm3s811/TI_Stellaris/utils/ustdlib.c ****     //
1122:/home/cuil/workspace/arm/lm3s811/TI_Stellaris/utils/ustdlib.c ****     pcPtr = pcStr;
 3198              		.loc 1 1122 0
 3199 001e FB68     		ldr	r3, [r7, #12]
 3200 0020 7B61     		str	r3, [r7, #20]
1123:/home/cuil/workspace/arm/lm3s811/TI_Stellaris/utils/ustdlib.c ****     while((*pcPtr == ' ') || (*pcPtr == '\t'))
 3201              		.loc 1 1123 0
 3202 0022 03E0     		b	.L92
 3203              	.L93:
1124:/home/cuil/workspace/arm/lm3s811/TI_Stellaris/utils/ustdlib.c ****     {
1125:/home/cuil/workspace/arm/lm3s811/TI_Stellaris/utils/ustdlib.c ****         pcPtr++;
 3204              		.loc 1 1125 0
 3205 0024 7B69     		ldr	r3, [r7, #20]
 3206 0026 03F10103 		add	r3, r3, #1
 3207 002a 7B61     		str	r3, [r7, #20]
 3208              	.L92:
1123:/home/cuil/workspace/arm/lm3s811/TI_Stellaris/utils/ustdlib.c ****     while((*pcPtr == ' ') || (*pcPtr == '\t'))
 3209              		.loc 1 1123 0 discriminator 1
 3210 002c 7B69     		ldr	r3, [r7, #20]
 3211 002e 1B78     		ldrb	r3, [r3, #0]	@ zero_extendqisi2
 3212 0030 202B     		cmp	r3, #32
 3213 0032 F7D0     		beq	.L93
1123:/home/cuil/workspace/arm/lm3s811/TI_Stellaris/utils/ustdlib.c ****     while((*pcPtr == ' ') || (*pcPtr == '\t'))
 3214              		.loc 1 1123 0 is_stmt 0 discriminator 2
 3215 0034 7B69     		ldr	r3, [r7, #20]
 3216 0036 1B78     		ldrb	r3, [r3, #0]	@ zero_extendqisi2
 3217 0038 092B     		cmp	r3, #9
 3218 003a F3D0     		beq	.L93
1126:/home/cuil/workspace/arm/lm3s811/TI_Stellaris/utils/ustdlib.c ****     }
1127:/home/cuil/workspace/arm/lm3s811/TI_Stellaris/utils/ustdlib.c **** 
1128:/home/cuil/workspace/arm/lm3s811/TI_Stellaris/utils/ustdlib.c ****     //
1129:/home/cuil/workspace/arm/lm3s811/TI_Stellaris/utils/ustdlib.c ****     // Take a leading + or - from the value.
1130:/home/cuil/workspace/arm/lm3s811/TI_Stellaris/utils/ustdlib.c ****     //
1131:/home/cuil/workspace/arm/lm3s811/TI_Stellaris/utils/ustdlib.c ****     if(*pcPtr == '-')
 3219              		.loc 1 1131 0 is_stmt 1
 3220 003c 7B69     		ldr	r3, [r7, #20]
 3221 003e 1B78     		ldrb	r3, [r3, #0]	@ zero_extendqisi2
 3222 0040 2D2B     		cmp	r3, #45
 3223 0042 07D1     		bne	.L94
1132:/home/cuil/workspace/arm/lm3s811/TI_Stellaris/utils/ustdlib.c ****     {
1133:/home/cuil/workspace/arm/lm3s811/TI_Stellaris/utils/ustdlib.c ****         ulNeg = 1;
 3224              		.loc 1 1133 0
 3225 0044 4FF00103 		mov	r3, #1
 3226 0048 FB61     		str	r3, [r7, #28]
1134:/home/cuil/workspace/arm/lm3s811/TI_Stellaris/utils/ustdlib.c ****         pcPtr++;
 3227              		.loc 1 1134 0
 3228 004a 7B69     		ldr	r3, [r7, #20]
 3229 004c 03F10103 		add	r3, r3, #1
 3230 0050 7B61     		str	r3, [r7, #20]
 3231 0052 07E0     		b	.L95
 3232              	.L94:
1135:/home/cuil/workspace/arm/lm3s811/TI_Stellaris/utils/ustdlib.c ****     }
1136:/home/cuil/workspace/arm/lm3s811/TI_Stellaris/utils/ustdlib.c ****     else if(*pcPtr == '+')
 3233              		.loc 1 1136 0
 3234 0054 7B69     		ldr	r3, [r7, #20]
 3235 0056 1B78     		ldrb	r3, [r3, #0]	@ zero_extendqisi2
 3236 0058 2B2B     		cmp	r3, #43
 3237 005a 03D1     		bne	.L95
1137:/home/cuil/workspace/arm/lm3s811/TI_Stellaris/utils/ustdlib.c ****     {
1138:/home/cuil/workspace/arm/lm3s811/TI_Stellaris/utils/ustdlib.c ****         pcPtr++;
 3238              		.loc 1 1138 0
 3239 005c 7B69     		ldr	r3, [r7, #20]
 3240 005e 03F10103 		add	r3, r3, #1
 3241 0062 7B61     		str	r3, [r7, #20]
 3242              	.L95:
1139:/home/cuil/workspace/arm/lm3s811/TI_Stellaris/utils/ustdlib.c ****     }
1140:/home/cuil/workspace/arm/lm3s811/TI_Stellaris/utils/ustdlib.c **** 
1141:/home/cuil/workspace/arm/lm3s811/TI_Stellaris/utils/ustdlib.c ****     //
1142:/home/cuil/workspace/arm/lm3s811/TI_Stellaris/utils/ustdlib.c ****     // See if the radix was not specified, or is 16, and the value starts with
1143:/home/cuil/workspace/arm/lm3s811/TI_Stellaris/utils/ustdlib.c ****     // "0x" or "0X" (to indicate a hex value).
1144:/home/cuil/workspace/arm/lm3s811/TI_Stellaris/utils/ustdlib.c ****     //
1145:/home/cuil/workspace/arm/lm3s811/TI_Stellaris/utils/ustdlib.c ****     if(((iBase == 0) || (iBase == 16)) && (*pcPtr == '0') &&
 3243              		.loc 1 1145 0
 3244 0064 7B68     		ldr	r3, [r7, #4]
 3245 0066 002B     		cmp	r3, #0
 3246 0068 02D0     		beq	.L96
 3247              		.loc 1 1145 0 is_stmt 0 discriminator 2
 3248 006a 7B68     		ldr	r3, [r7, #4]
 3249 006c 102B     		cmp	r3, #16
 3250 006e 16D1     		bne	.L97
 3251              	.L96:
 3252              		.loc 1 1145 0 discriminator 1
 3253 0070 7B69     		ldr	r3, [r7, #20]
 3254 0072 1B78     		ldrb	r3, [r3, #0]	@ zero_extendqisi2
 3255 0074 302B     		cmp	r3, #48
 3256 0076 12D1     		bne	.L97
1146:/home/cuil/workspace/arm/lm3s811/TI_Stellaris/utils/ustdlib.c ****        ((pcPtr[1] == 'x') || (pcPtr[1] == 'X')))
 3257              		.loc 1 1146 0 is_stmt 1 discriminator 1
 3258 0078 7B69     		ldr	r3, [r7, #20]
 3259 007a 03F10103 		add	r3, r3, #1
 3260 007e 1B78     		ldrb	r3, [r3, #0]	@ zero_extendqisi2
1145:/home/cuil/workspace/arm/lm3s811/TI_Stellaris/utils/ustdlib.c ****     if(((iBase == 0) || (iBase == 16)) && (*pcPtr == '0') &&
 3261              		.loc 1 1145 0 discriminator 1
 3262 0080 782B     		cmp	r3, #120
 3263 0082 05D0     		beq	.L98
 3264              		.loc 1 1146 0
 3265 0084 7B69     		ldr	r3, [r7, #20]
 3266 0086 03F10103 		add	r3, r3, #1
 3267 008a 1B78     		ldrb	r3, [r3, #0]	@ zero_extendqisi2
 3268 008c 582B     		cmp	r3, #88
 3269 008e 06D1     		bne	.L97
 3270              	.L98:
1147:/home/cuil/workspace/arm/lm3s811/TI_Stellaris/utils/ustdlib.c ****     {
1148:/home/cuil/workspace/arm/lm3s811/TI_Stellaris/utils/ustdlib.c ****         //
1149:/home/cuil/workspace/arm/lm3s811/TI_Stellaris/utils/ustdlib.c ****         // Skip the leading "0x".
1150:/home/cuil/workspace/arm/lm3s811/TI_Stellaris/utils/ustdlib.c ****         //
1151:/home/cuil/workspace/arm/lm3s811/TI_Stellaris/utils/ustdlib.c ****         pcPtr += 2;
 3271              		.loc 1 1151 0
 3272 0090 7B69     		ldr	r3, [r7, #20]
 3273 0092 03F10203 		add	r3, r3, #2
 3274 0096 7B61     		str	r3, [r7, #20]
1152:/home/cuil/workspace/arm/lm3s811/TI_Stellaris/utils/ustdlib.c **** 
1153:/home/cuil/workspace/arm/lm3s811/TI_Stellaris/utils/ustdlib.c ****         //
1154:/home/cuil/workspace/arm/lm3s811/TI_Stellaris/utils/ustdlib.c ****         // Set the radix to 16.
1155:/home/cuil/workspace/arm/lm3s811/TI_Stellaris/utils/ustdlib.c ****         //
1156:/home/cuil/workspace/arm/lm3s811/TI_Stellaris/utils/ustdlib.c ****         iBase = 16;
 3275              		.loc 1 1156 0
 3276 0098 4FF01003 		mov	r3, #16
 3277 009c 7B60     		str	r3, [r7, #4]
 3278              	.L97:
1157:/home/cuil/workspace/arm/lm3s811/TI_Stellaris/utils/ustdlib.c ****     }
1158:/home/cuil/workspace/arm/lm3s811/TI_Stellaris/utils/ustdlib.c **** 
1159:/home/cuil/workspace/arm/lm3s811/TI_Stellaris/utils/ustdlib.c ****     //
1160:/home/cuil/workspace/arm/lm3s811/TI_Stellaris/utils/ustdlib.c ****     // See if the radix was not specified.
1161:/home/cuil/workspace/arm/lm3s811/TI_Stellaris/utils/ustdlib.c ****     //
1162:/home/cuil/workspace/arm/lm3s811/TI_Stellaris/utils/ustdlib.c ****     if(iBase == 0)
 3279              		.loc 1 1162 0
 3280 009e 7B68     		ldr	r3, [r7, #4]
 3281 00a0 002B     		cmp	r3, #0
 3282 00a2 0AD1     		bne	.L99
1163:/home/cuil/workspace/arm/lm3s811/TI_Stellaris/utils/ustdlib.c ****     {
1164:/home/cuil/workspace/arm/lm3s811/TI_Stellaris/utils/ustdlib.c ****         //
1165:/home/cuil/workspace/arm/lm3s811/TI_Stellaris/utils/ustdlib.c ****         // See if the value starts with "0".
1166:/home/cuil/workspace/arm/lm3s811/TI_Stellaris/utils/ustdlib.c ****         //
1167:/home/cuil/workspace/arm/lm3s811/TI_Stellaris/utils/ustdlib.c ****         if(*pcPtr == '0')
 3283              		.loc 1 1167 0
 3284 00a4 7B69     		ldr	r3, [r7, #20]
 3285 00a6 1B78     		ldrb	r3, [r3, #0]	@ zero_extendqisi2
 3286 00a8 302B     		cmp	r3, #48
 3287 00aa 03D1     		bne	.L100
1168:/home/cuil/workspace/arm/lm3s811/TI_Stellaris/utils/ustdlib.c ****         {
1169:/home/cuil/workspace/arm/lm3s811/TI_Stellaris/utils/ustdlib.c ****             //
1170:/home/cuil/workspace/arm/lm3s811/TI_Stellaris/utils/ustdlib.c ****             // Values that start with "0" are assumed to be radix 8.
1171:/home/cuil/workspace/arm/lm3s811/TI_Stellaris/utils/ustdlib.c ****             //
1172:/home/cuil/workspace/arm/lm3s811/TI_Stellaris/utils/ustdlib.c ****             iBase = 8;
 3288              		.loc 1 1172 0
 3289 00ac 4FF00803 		mov	r3, #8
 3290 00b0 7B60     		str	r3, [r7, #4]
 3291 00b2 02E0     		b	.L99
 3292              	.L100:
1173:/home/cuil/workspace/arm/lm3s811/TI_Stellaris/utils/ustdlib.c ****         }
1174:/home/cuil/workspace/arm/lm3s811/TI_Stellaris/utils/ustdlib.c ****         else
1175:/home/cuil/workspace/arm/lm3s811/TI_Stellaris/utils/ustdlib.c ****         {
1176:/home/cuil/workspace/arm/lm3s811/TI_Stellaris/utils/ustdlib.c ****             //
1177:/home/cuil/workspace/arm/lm3s811/TI_Stellaris/utils/ustdlib.c ****             // Otherwise, the values are assumed to be radix 10.
1178:/home/cuil/workspace/arm/lm3s811/TI_Stellaris/utils/ustdlib.c ****             //
1179:/home/cuil/workspace/arm/lm3s811/TI_Stellaris/utils/ustdlib.c ****             iBase = 10;
 3293              		.loc 1 1179 0
 3294 00b4 4FF00A03 		mov	r3, #10
 3295 00b8 7B60     		str	r3, [r7, #4]
 3296              	.L99:
1180:/home/cuil/workspace/arm/lm3s811/TI_Stellaris/utils/ustdlib.c ****         }
1181:/home/cuil/workspace/arm/lm3s811/TI_Stellaris/utils/ustdlib.c ****     }
1182:/home/cuil/workspace/arm/lm3s811/TI_Stellaris/utils/ustdlib.c **** 
1183:/home/cuil/workspace/arm/lm3s811/TI_Stellaris/utils/ustdlib.c ****     //
1184:/home/cuil/workspace/arm/lm3s811/TI_Stellaris/utils/ustdlib.c ****     // Loop while there are more valid digits to consume.
1185:/home/cuil/workspace/arm/lm3s811/TI_Stellaris/utils/ustdlib.c ****     //
1186:/home/cuil/workspace/arm/lm3s811/TI_Stellaris/utils/ustdlib.c ****     while(1)
1187:/home/cuil/workspace/arm/lm3s811/TI_Stellaris/utils/ustdlib.c ****     {
1188:/home/cuil/workspace/arm/lm3s811/TI_Stellaris/utils/ustdlib.c ****         //
1189:/home/cuil/workspace/arm/lm3s811/TI_Stellaris/utils/ustdlib.c ****         // See if this character is a number.
1190:/home/cuil/workspace/arm/lm3s811/TI_Stellaris/utils/ustdlib.c ****         //
1191:/home/cuil/workspace/arm/lm3s811/TI_Stellaris/utils/ustdlib.c ****         if((*pcPtr >= '0') && (*pcPtr <= '9'))
 3297              		.loc 1 1191 0
 3298 00ba 7B69     		ldr	r3, [r7, #20]
 3299 00bc 1B78     		ldrb	r3, [r3, #0]	@ zero_extendqisi2
 3300 00be 2F2B     		cmp	r3, #47
 3301 00c0 0DD9     		bls	.L101
 3302              		.loc 1 1191 0 is_stmt 0 discriminator 1
 3303 00c2 7B69     		ldr	r3, [r7, #20]
 3304 00c4 1B78     		ldrb	r3, [r3, #0]	@ zero_extendqisi2
 3305 00c6 392B     		cmp	r3, #57
 3306 00c8 09D8     		bhi	.L101
1192:/home/cuil/workspace/arm/lm3s811/TI_Stellaris/utils/ustdlib.c ****         {
1193:/home/cuil/workspace/arm/lm3s811/TI_Stellaris/utils/ustdlib.c ****             //
1194:/home/cuil/workspace/arm/lm3s811/TI_Stellaris/utils/ustdlib.c ****             // Convert the character to its integer equivalent.
1195:/home/cuil/workspace/arm/lm3s811/TI_Stellaris/utils/ustdlib.c ****             //
1196:/home/cuil/workspace/arm/lm3s811/TI_Stellaris/utils/ustdlib.c ****             ulDigit = *pcPtr++ - '0';
 3307              		.loc 1 1196 0 is_stmt 1
 3308 00ca 7B69     		ldr	r3, [r7, #20]
 3309 00cc 1B78     		ldrb	r3, [r3, #0]	@ zero_extendqisi2
 3310 00ce A3F13003 		sub	r3, r3, #48
 3311 00d2 3B62     		str	r3, [r7, #32]
 3312 00d4 7B69     		ldr	r3, [r7, #20]
 3313 00d6 03F10103 		add	r3, r3, #1
 3314 00da 7B61     		str	r3, [r7, #20]
 3315 00dc 22E0     		b	.L102
 3316              	.L101:
1197:/home/cuil/workspace/arm/lm3s811/TI_Stellaris/utils/ustdlib.c ****         }
1198:/home/cuil/workspace/arm/lm3s811/TI_Stellaris/utils/ustdlib.c **** 
1199:/home/cuil/workspace/arm/lm3s811/TI_Stellaris/utils/ustdlib.c ****         //
1200:/home/cuil/workspace/arm/lm3s811/TI_Stellaris/utils/ustdlib.c ****         // Otherwise, see if this character is an upper case letter.
1201:/home/cuil/workspace/arm/lm3s811/TI_Stellaris/utils/ustdlib.c ****         //
1202:/home/cuil/workspace/arm/lm3s811/TI_Stellaris/utils/ustdlib.c ****         else if((*pcPtr >= 'A') && (*pcPtr <= 'Z'))
 3317              		.loc 1 1202 0
 3318 00de 7B69     		ldr	r3, [r7, #20]
 3319 00e0 1B78     		ldrb	r3, [r3, #0]	@ zero_extendqisi2
 3320 00e2 402B     		cmp	r3, #64
 3321 00e4 0DD9     		bls	.L103
 3322              		.loc 1 1202 0 is_stmt 0 discriminator 1
 3323 00e6 7B69     		ldr	r3, [r7, #20]
 3324 00e8 1B78     		ldrb	r3, [r3, #0]	@ zero_extendqisi2
 3325 00ea 5A2B     		cmp	r3, #90
 3326 00ec 09D8     		bhi	.L103
1203:/home/cuil/workspace/arm/lm3s811/TI_Stellaris/utils/ustdlib.c ****         {
1204:/home/cuil/workspace/arm/lm3s811/TI_Stellaris/utils/ustdlib.c ****             //
1205:/home/cuil/workspace/arm/lm3s811/TI_Stellaris/utils/ustdlib.c ****             // Convert the character to its integer equivalent.
1206:/home/cuil/workspace/arm/lm3s811/TI_Stellaris/utils/ustdlib.c ****             //
1207:/home/cuil/workspace/arm/lm3s811/TI_Stellaris/utils/ustdlib.c ****             ulDigit = *pcPtr++ - 'A' + 10;
 3327              		.loc 1 1207 0 is_stmt 1
 3328 00ee 7B69     		ldr	r3, [r7, #20]
 3329 00f0 1B78     		ldrb	r3, [r3, #0]	@ zero_extendqisi2
 3330 00f2 A3F13703 		sub	r3, r3, #55
 3331 00f6 3B62     		str	r3, [r7, #32]
 3332 00f8 7B69     		ldr	r3, [r7, #20]
 3333 00fa 03F10103 		add	r3, r3, #1
 3334 00fe 7B61     		str	r3, [r7, #20]
 3335 0100 10E0     		b	.L102
 3336              	.L103:
1208:/home/cuil/workspace/arm/lm3s811/TI_Stellaris/utils/ustdlib.c ****         }
1209:/home/cuil/workspace/arm/lm3s811/TI_Stellaris/utils/ustdlib.c **** 
1210:/home/cuil/workspace/arm/lm3s811/TI_Stellaris/utils/ustdlib.c ****         //
1211:/home/cuil/workspace/arm/lm3s811/TI_Stellaris/utils/ustdlib.c ****         // Otherwise, see if this character is a lower case letter.
1212:/home/cuil/workspace/arm/lm3s811/TI_Stellaris/utils/ustdlib.c ****         //
1213:/home/cuil/workspace/arm/lm3s811/TI_Stellaris/utils/ustdlib.c ****         else if((*pcPtr >= 'a') && (*pcPtr <= 'z'))
 3337              		.loc 1 1213 0
 3338 0102 7B69     		ldr	r3, [r7, #20]
 3339 0104 1B78     		ldrb	r3, [r3, #0]	@ zero_extendqisi2
 3340 0106 602B     		cmp	r3, #96
 3341 0108 22D9     		bls	.L104
 3342              		.loc 1 1213 0 is_stmt 0 discriminator 1
 3343 010a 7B69     		ldr	r3, [r7, #20]
 3344 010c 1B78     		ldrb	r3, [r3, #0]	@ zero_extendqisi2
 3345 010e 7A2B     		cmp	r3, #122
 3346 0110 1ED8     		bhi	.L104
1214:/home/cuil/workspace/arm/lm3s811/TI_Stellaris/utils/ustdlib.c ****         {
1215:/home/cuil/workspace/arm/lm3s811/TI_Stellaris/utils/ustdlib.c ****             //
1216:/home/cuil/workspace/arm/lm3s811/TI_Stellaris/utils/ustdlib.c ****             // Convert the character to its integer equivalent.
1217:/home/cuil/workspace/arm/lm3s811/TI_Stellaris/utils/ustdlib.c ****             //
1218:/home/cuil/workspace/arm/lm3s811/TI_Stellaris/utils/ustdlib.c ****             ulDigit = *pcPtr++ - 'a' + 10;
 3347              		.loc 1 1218 0 is_stmt 1
 3348 0112 7B69     		ldr	r3, [r7, #20]
 3349 0114 1B78     		ldrb	r3, [r3, #0]	@ zero_extendqisi2
 3350 0116 A3F15703 		sub	r3, r3, #87
 3351 011a 3B62     		str	r3, [r7, #32]
 3352 011c 7B69     		ldr	r3, [r7, #20]
 3353 011e 03F10103 		add	r3, r3, #1
 3354 0122 7B61     		str	r3, [r7, #20]
 3355              	.L102:
1219:/home/cuil/workspace/arm/lm3s811/TI_Stellaris/utils/ustdlib.c ****         }
1220:/home/cuil/workspace/arm/lm3s811/TI_Stellaris/utils/ustdlib.c **** 
1221:/home/cuil/workspace/arm/lm3s811/TI_Stellaris/utils/ustdlib.c ****         //
1222:/home/cuil/workspace/arm/lm3s811/TI_Stellaris/utils/ustdlib.c ****         // Otherwise, this is not a valid character.
1223:/home/cuil/workspace/arm/lm3s811/TI_Stellaris/utils/ustdlib.c ****         //
1224:/home/cuil/workspace/arm/lm3s811/TI_Stellaris/utils/ustdlib.c ****         else
1225:/home/cuil/workspace/arm/lm3s811/TI_Stellaris/utils/ustdlib.c ****         {
1226:/home/cuil/workspace/arm/lm3s811/TI_Stellaris/utils/ustdlib.c ****             //
1227:/home/cuil/workspace/arm/lm3s811/TI_Stellaris/utils/ustdlib.c ****             // Stop converting this value.
1228:/home/cuil/workspace/arm/lm3s811/TI_Stellaris/utils/ustdlib.c ****             //
1229:/home/cuil/workspace/arm/lm3s811/TI_Stellaris/utils/ustdlib.c ****             break;
1230:/home/cuil/workspace/arm/lm3s811/TI_Stellaris/utils/ustdlib.c ****         }
1231:/home/cuil/workspace/arm/lm3s811/TI_Stellaris/utils/ustdlib.c **** 
1232:/home/cuil/workspace/arm/lm3s811/TI_Stellaris/utils/ustdlib.c ****         //
1233:/home/cuil/workspace/arm/lm3s811/TI_Stellaris/utils/ustdlib.c ****         // See if this digit is valid for the chosen radix.
1234:/home/cuil/workspace/arm/lm3s811/TI_Stellaris/utils/ustdlib.c ****         //
1235:/home/cuil/workspace/arm/lm3s811/TI_Stellaris/utils/ustdlib.c ****         if(ulDigit >= iBase)
 3356              		.loc 1 1235 0
 3357 0124 7A68     		ldr	r2, [r7, #4]
 3358 0126 3B6A     		ldr	r3, [r7, #32]
 3359 0128 9A42     		cmp	r2, r3
 3360 012a 04D8     		bhi	.L105
1236:/home/cuil/workspace/arm/lm3s811/TI_Stellaris/utils/ustdlib.c ****         {
1237:/home/cuil/workspace/arm/lm3s811/TI_Stellaris/utils/ustdlib.c ****             //
1238:/home/cuil/workspace/arm/lm3s811/TI_Stellaris/utils/ustdlib.c ****             // Since this was not a valid digit, move the pointer back to the
1239:/home/cuil/workspace/arm/lm3s811/TI_Stellaris/utils/ustdlib.c ****             // character that therefore should not have been consumed.
1240:/home/cuil/workspace/arm/lm3s811/TI_Stellaris/utils/ustdlib.c ****             //
1241:/home/cuil/workspace/arm/lm3s811/TI_Stellaris/utils/ustdlib.c ****             pcPtr--;
 3361              		.loc 1 1241 0
 3362 012c 7B69     		ldr	r3, [r7, #20]
 3363 012e 03F1FF33 		add	r3, r3, #-1
 3364 0132 7B61     		str	r3, [r7, #20]
1242:/home/cuil/workspace/arm/lm3s811/TI_Stellaris/utils/ustdlib.c **** 
1243:/home/cuil/workspace/arm/lm3s811/TI_Stellaris/utils/ustdlib.c ****             //
1244:/home/cuil/workspace/arm/lm3s811/TI_Stellaris/utils/ustdlib.c ****             // Stop converting this value.
1245:/home/cuil/workspace/arm/lm3s811/TI_Stellaris/utils/ustdlib.c ****             //
1246:/home/cuil/workspace/arm/lm3s811/TI_Stellaris/utils/ustdlib.c ****             break;
 3365              		.loc 1 1246 0
 3366 0134 0CE0     		b	.L104
 3367              	.L105:
1247:/home/cuil/workspace/arm/lm3s811/TI_Stellaris/utils/ustdlib.c ****         }
1248:/home/cuil/workspace/arm/lm3s811/TI_Stellaris/utils/ustdlib.c **** 
1249:/home/cuil/workspace/arm/lm3s811/TI_Stellaris/utils/ustdlib.c ****         //
1250:/home/cuil/workspace/arm/lm3s811/TI_Stellaris/utils/ustdlib.c ****         // Add this digit to the converted value.
1251:/home/cuil/workspace/arm/lm3s811/TI_Stellaris/utils/ustdlib.c ****         //
1252:/home/cuil/workspace/arm/lm3s811/TI_Stellaris/utils/ustdlib.c ****         ulRet *= iBase;
 3368              		.loc 1 1252 0
 3369 0136 7A68     		ldr	r2, [r7, #4]
 3370 0138 7B6A     		ldr	r3, [r7, #36]
 3371 013a 02FB03F3 		mul	r3, r2, r3
 3372 013e 7B62     		str	r3, [r7, #36]
1253:/home/cuil/workspace/arm/lm3s811/TI_Stellaris/utils/ustdlib.c ****         ulRet += ulDigit;
 3373              		.loc 1 1253 0
 3374 0140 7A6A     		ldr	r2, [r7, #36]
 3375 0142 3B6A     		ldr	r3, [r7, #32]
 3376 0144 D318     		adds	r3, r2, r3
 3377 0146 7B62     		str	r3, [r7, #36]
1254:/home/cuil/workspace/arm/lm3s811/TI_Stellaris/utils/ustdlib.c **** 
1255:/home/cuil/workspace/arm/lm3s811/TI_Stellaris/utils/ustdlib.c ****         //
1256:/home/cuil/workspace/arm/lm3s811/TI_Stellaris/utils/ustdlib.c ****         // Since a digit has been added, this is now a valid result.
1257:/home/cuil/workspace/arm/lm3s811/TI_Stellaris/utils/ustdlib.c ****         //
1258:/home/cuil/workspace/arm/lm3s811/TI_Stellaris/utils/ustdlib.c ****         ulValid = 1;
 3378              		.loc 1 1258 0
 3379 0148 4FF00103 		mov	r3, #1
 3380 014c BB61     		str	r3, [r7, #24]
1259:/home/cuil/workspace/arm/lm3s811/TI_Stellaris/utils/ustdlib.c ****     }
 3381              		.loc 1 1259 0
 3382 014e B4E7     		b	.L99
 3383              	.L104:
1260:/home/cuil/workspace/arm/lm3s811/TI_Stellaris/utils/ustdlib.c **** 
1261:/home/cuil/workspace/arm/lm3s811/TI_Stellaris/utils/ustdlib.c ****     //
1262:/home/cuil/workspace/arm/lm3s811/TI_Stellaris/utils/ustdlib.c ****     // Set the return string pointer to the first character not consumed.
1263:/home/cuil/workspace/arm/lm3s811/TI_Stellaris/utils/ustdlib.c ****     //
1264:/home/cuil/workspace/arm/lm3s811/TI_Stellaris/utils/ustdlib.c ****     if(ppcStrRet)
 3384              		.loc 1 1264 0
 3385 0150 BB68     		ldr	r3, [r7, #8]
 3386 0152 002B     		cmp	r3, #0
 3387 0154 07D0     		beq	.L106
1265:/home/cuil/workspace/arm/lm3s811/TI_Stellaris/utils/ustdlib.c ****     {
1266:/home/cuil/workspace/arm/lm3s811/TI_Stellaris/utils/ustdlib.c ****         *ppcStrRet = ulValid ? pcPtr : pcStr;
 3388              		.loc 1 1266 0
 3389 0156 BB69     		ldr	r3, [r7, #24]
 3390 0158 002B     		cmp	r3, #0
 3391 015a 01D0     		beq	.L107
 3392              		.loc 1 1266 0 is_stmt 0 discriminator 1
 3393 015c 7B69     		ldr	r3, [r7, #20]
 3394 015e 00E0     		b	.L108
 3395              	.L107:
 3396              		.loc 1 1266 0 discriminator 2
 3397 0160 FB68     		ldr	r3, [r7, #12]
 3398              	.L108:
 3399              		.loc 1 1266 0 discriminator 3
 3400 0162 BA68     		ldr	r2, [r7, #8]
 3401 0164 1360     		str	r3, [r2, #0]
 3402              	.L106:
1267:/home/cuil/workspace/arm/lm3s811/TI_Stellaris/utils/ustdlib.c ****     }
1268:/home/cuil/workspace/arm/lm3s811/TI_Stellaris/utils/ustdlib.c **** 
1269:/home/cuil/workspace/arm/lm3s811/TI_Stellaris/utils/ustdlib.c ****     //
1270:/home/cuil/workspace/arm/lm3s811/TI_Stellaris/utils/ustdlib.c ****     // Return the converted value.
1271:/home/cuil/workspace/arm/lm3s811/TI_Stellaris/utils/ustdlib.c ****     //
1272:/home/cuil/workspace/arm/lm3s811/TI_Stellaris/utils/ustdlib.c ****     return(ulNeg ? (0 - ulRet) : ulRet);
 3403              		.loc 1 1272 0 is_stmt 1
 3404 0166 FB69     		ldr	r3, [r7, #28]
 3405 0168 002B     		cmp	r3, #0
 3406 016a 03D0     		beq	.L109
 3407              		.loc 1 1272 0 is_stmt 0 discriminator 1
 3408 016c 7B6A     		ldr	r3, [r7, #36]
 3409 016e C3F10003 		rsb	r3, r3, #0
 3410 0172 00E0     		b	.L110
 3411              	.L109:
 3412              		.loc 1 1272 0 discriminator 2
 3413 0174 7B6A     		ldr	r3, [r7, #36]
 3414              	.L110:
1273:/home/cuil/workspace/arm/lm3s811/TI_Stellaris/utils/ustdlib.c **** }
 3415              		.loc 1 1273 0 is_stmt 1 discriminator 3
 3416 0176 1846     		mov	r0, r3
 3417 0178 07F12C07 		add	r7, r7, #44
 3418 017c BD46     		mov	sp, r7
 3419 017e 80BC     		pop	{r7}
 3420 0180 7047     		bx	lr
 3421              		.cfi_endproc
 3422              	.LFE7:
 3424 0182 00BF     		.section	.text.ustrlen,"ax",%progbits
 3425              		.align	2
 3426              		.global	ustrlen
 3427              		.thumb
 3428              		.thumb_func
 3430              	ustrlen:
 3431              	.LFB8:
1274:/home/cuil/workspace/arm/lm3s811/TI_Stellaris/utils/ustdlib.c **** 
1275:/home/cuil/workspace/arm/lm3s811/TI_Stellaris/utils/ustdlib.c **** //*****************************************************************************
1276:/home/cuil/workspace/arm/lm3s811/TI_Stellaris/utils/ustdlib.c **** //
1277:/home/cuil/workspace/arm/lm3s811/TI_Stellaris/utils/ustdlib.c **** //! Retruns the length of a null-terminated string.
1278:/home/cuil/workspace/arm/lm3s811/TI_Stellaris/utils/ustdlib.c **** //!
1279:/home/cuil/workspace/arm/lm3s811/TI_Stellaris/utils/ustdlib.c **** //! \param pcStr is a pointer to the string whose length is to be found.
1280:/home/cuil/workspace/arm/lm3s811/TI_Stellaris/utils/ustdlib.c **** //!
1281:/home/cuil/workspace/arm/lm3s811/TI_Stellaris/utils/ustdlib.c **** //! This function is very similar to the C library <tt>strlen()</tt> function.
1282:/home/cuil/workspace/arm/lm3s811/TI_Stellaris/utils/ustdlib.c **** //! It determines the length of the null-terminated string passed and returns
1283:/home/cuil/workspace/arm/lm3s811/TI_Stellaris/utils/ustdlib.c **** //! this to the caller.
1284:/home/cuil/workspace/arm/lm3s811/TI_Stellaris/utils/ustdlib.c **** //!
1285:/home/cuil/workspace/arm/lm3s811/TI_Stellaris/utils/ustdlib.c **** //! This implementation assumes that single byte character strings are passed
1286:/home/cuil/workspace/arm/lm3s811/TI_Stellaris/utils/ustdlib.c **** //! and will return incorrect values if passed some UTF-8 strings.
1287:/home/cuil/workspace/arm/lm3s811/TI_Stellaris/utils/ustdlib.c **** //!
1288:/home/cuil/workspace/arm/lm3s811/TI_Stellaris/utils/ustdlib.c **** //! \return Returns the length of the string pointed to by \e pcStr.
1289:/home/cuil/workspace/arm/lm3s811/TI_Stellaris/utils/ustdlib.c **** //
1290:/home/cuil/workspace/arm/lm3s811/TI_Stellaris/utils/ustdlib.c **** //*****************************************************************************
1291:/home/cuil/workspace/arm/lm3s811/TI_Stellaris/utils/ustdlib.c **** int
1292:/home/cuil/workspace/arm/lm3s811/TI_Stellaris/utils/ustdlib.c **** ustrlen(const char * pcStr)
1293:/home/cuil/workspace/arm/lm3s811/TI_Stellaris/utils/ustdlib.c **** {
 3432              		.loc 1 1293 0
 3433              		.cfi_startproc
 3434              		@ args = 0, pretend = 0, frame = 16
 3435              		@ frame_needed = 1, uses_anonymous_args = 0
 3436              		@ link register save eliminated.
 3437 0000 80B4     		push	{r7}
 3438              	.LCFI26:
 3439              		.cfi_def_cfa_offset 4
 3440 0002 85B0     		sub	sp, sp, #20
 3441              	.LCFI27:
 3442              		.cfi_def_cfa_offset 24
 3443 0004 00AF     		add	r7, sp, #0
 3444              		.cfi_offset 7, -4
 3445              	.LCFI28:
 3446              		.cfi_def_cfa_register 7
 3447 0006 7860     		str	r0, [r7, #4]
1294:/home/cuil/workspace/arm/lm3s811/TI_Stellaris/utils/ustdlib.c ****     int iLen;
1295:/home/cuil/workspace/arm/lm3s811/TI_Stellaris/utils/ustdlib.c **** 
1296:/home/cuil/workspace/arm/lm3s811/TI_Stellaris/utils/ustdlib.c ****     ASSERT(pcStr);
1297:/home/cuil/workspace/arm/lm3s811/TI_Stellaris/utils/ustdlib.c **** 
1298:/home/cuil/workspace/arm/lm3s811/TI_Stellaris/utils/ustdlib.c ****     //
1299:/home/cuil/workspace/arm/lm3s811/TI_Stellaris/utils/ustdlib.c ****     // Initialize the length.
1300:/home/cuil/workspace/arm/lm3s811/TI_Stellaris/utils/ustdlib.c ****     //
1301:/home/cuil/workspace/arm/lm3s811/TI_Stellaris/utils/ustdlib.c ****     iLen = 0;
 3448              		.loc 1 1301 0
 3449 0008 4FF00003 		mov	r3, #0
 3450 000c FB60     		str	r3, [r7, #12]
1302:/home/cuil/workspace/arm/lm3s811/TI_Stellaris/utils/ustdlib.c **** 
1303:/home/cuil/workspace/arm/lm3s811/TI_Stellaris/utils/ustdlib.c ****     //
1304:/home/cuil/workspace/arm/lm3s811/TI_Stellaris/utils/ustdlib.c ****     // Step throug the string looking for a zero character (marking its end).
1305:/home/cuil/workspace/arm/lm3s811/TI_Stellaris/utils/ustdlib.c ****     //
1306:/home/cuil/workspace/arm/lm3s811/TI_Stellaris/utils/ustdlib.c ****     while(pcStr[iLen])
 3451              		.loc 1 1306 0
 3452 000e 03E0     		b	.L112
 3453              	.L113:
1307:/home/cuil/workspace/arm/lm3s811/TI_Stellaris/utils/ustdlib.c ****     {
1308:/home/cuil/workspace/arm/lm3s811/TI_Stellaris/utils/ustdlib.c ****         //
1309:/home/cuil/workspace/arm/lm3s811/TI_Stellaris/utils/ustdlib.c ****         // Zero not found so move on to the next character.
1310:/home/cuil/workspace/arm/lm3s811/TI_Stellaris/utils/ustdlib.c ****         //
1311:/home/cuil/workspace/arm/lm3s811/TI_Stellaris/utils/ustdlib.c ****         iLen++;
 3454              		.loc 1 1311 0
 3455 0010 FB68     		ldr	r3, [r7, #12]
 3456 0012 03F10103 		add	r3, r3, #1
 3457 0016 FB60     		str	r3, [r7, #12]
 3458              	.L112:
1306:/home/cuil/workspace/arm/lm3s811/TI_Stellaris/utils/ustdlib.c ****     while(pcStr[iLen])
 3459              		.loc 1 1306 0 discriminator 1
 3460 0018 FB68     		ldr	r3, [r7, #12]
 3461 001a 7A68     		ldr	r2, [r7, #4]
 3462 001c D318     		adds	r3, r2, r3
 3463 001e 1B78     		ldrb	r3, [r3, #0]	@ zero_extendqisi2
 3464 0020 002B     		cmp	r3, #0
 3465 0022 F5D1     		bne	.L113
1312:/home/cuil/workspace/arm/lm3s811/TI_Stellaris/utils/ustdlib.c ****     }
1313:/home/cuil/workspace/arm/lm3s811/TI_Stellaris/utils/ustdlib.c **** 
1314:/home/cuil/workspace/arm/lm3s811/TI_Stellaris/utils/ustdlib.c ****     return(iLen);
 3466              		.loc 1 1314 0
 3467 0024 FB68     		ldr	r3, [r7, #12]
1315:/home/cuil/workspace/arm/lm3s811/TI_Stellaris/utils/ustdlib.c **** }
 3468              		.loc 1 1315 0
 3469 0026 1846     		mov	r0, r3
 3470 0028 07F11407 		add	r7, r7, #20
 3471 002c BD46     		mov	sp, r7
 3472 002e 80BC     		pop	{r7}
 3473 0030 7047     		bx	lr
 3474              		.cfi_endproc
 3475              	.LFE8:
 3477 0032 00BF     		.section	.text.ustrstr,"ax",%progbits
 3478              		.align	2
 3479              		.global	ustrstr
 3480              		.thumb
 3481              		.thumb_func
 3483              	ustrstr:
 3484              	.LFB9:
1316:/home/cuil/workspace/arm/lm3s811/TI_Stellaris/utils/ustdlib.c **** 
1317:/home/cuil/workspace/arm/lm3s811/TI_Stellaris/utils/ustdlib.c **** //*****************************************************************************
1318:/home/cuil/workspace/arm/lm3s811/TI_Stellaris/utils/ustdlib.c **** //
1319:/home/cuil/workspace/arm/lm3s811/TI_Stellaris/utils/ustdlib.c **** //! Finds a substring within a string.
1320:/home/cuil/workspace/arm/lm3s811/TI_Stellaris/utils/ustdlib.c **** //!
1321:/home/cuil/workspace/arm/lm3s811/TI_Stellaris/utils/ustdlib.c **** //! \param pcHaystack is a pointer to the string that will be searched.
1322:/home/cuil/workspace/arm/lm3s811/TI_Stellaris/utils/ustdlib.c **** //! \param pcNeedle is a pointer to the substring that is to be found within
1323:/home/cuil/workspace/arm/lm3s811/TI_Stellaris/utils/ustdlib.c **** //! \e pcHaystack.
1324:/home/cuil/workspace/arm/lm3s811/TI_Stellaris/utils/ustdlib.c **** //!
1325:/home/cuil/workspace/arm/lm3s811/TI_Stellaris/utils/ustdlib.c **** //! This function is very similar to the C library <tt>strstr()</tt> function.
1326:/home/cuil/workspace/arm/lm3s811/TI_Stellaris/utils/ustdlib.c **** //! It scans a string for the first instance of a given substring and returns
1327:/home/cuil/workspace/arm/lm3s811/TI_Stellaris/utils/ustdlib.c **** //! a pointer to that substring.  If the substring cannot be found, a NULL
1328:/home/cuil/workspace/arm/lm3s811/TI_Stellaris/utils/ustdlib.c **** //! pointer is returned.
1329:/home/cuil/workspace/arm/lm3s811/TI_Stellaris/utils/ustdlib.c **** //!
1330:/home/cuil/workspace/arm/lm3s811/TI_Stellaris/utils/ustdlib.c **** //! \return Returns a pointer to the first occurrence of \e pcNeedle within
1331:/home/cuil/workspace/arm/lm3s811/TI_Stellaris/utils/ustdlib.c **** //! \e pcHaystack or NULL if no match is found.
1332:/home/cuil/workspace/arm/lm3s811/TI_Stellaris/utils/ustdlib.c **** //
1333:/home/cuil/workspace/arm/lm3s811/TI_Stellaris/utils/ustdlib.c **** //*****************************************************************************
1334:/home/cuil/workspace/arm/lm3s811/TI_Stellaris/utils/ustdlib.c **** char *
1335:/home/cuil/workspace/arm/lm3s811/TI_Stellaris/utils/ustdlib.c **** ustrstr(const char *pcHaystack, const char *pcNeedle)
1336:/home/cuil/workspace/arm/lm3s811/TI_Stellaris/utils/ustdlib.c **** {
 3485              		.loc 1 1336 0
 3486              		.cfi_startproc
 3487              		@ args = 0, pretend = 0, frame = 16
 3488              		@ frame_needed = 1, uses_anonymous_args = 0
 3489 0000 80B5     		push	{r7, lr}
 3490              	.LCFI29:
 3491              		.cfi_def_cfa_offset 8
 3492 0002 84B0     		sub	sp, sp, #16
 3493              	.LCFI30:
 3494              		.cfi_def_cfa_offset 24
 3495 0004 00AF     		add	r7, sp, #0
 3496              		.cfi_offset 14, -4
 3497              		.cfi_offset 7, -8
 3498              	.LCFI31:
 3499              		.cfi_def_cfa_register 7
 3500 0006 7860     		str	r0, [r7, #4]
 3501 0008 3960     		str	r1, [r7, #0]
1337:/home/cuil/workspace/arm/lm3s811/TI_Stellaris/utils/ustdlib.c ****     unsigned long ulLength;
1338:/home/cuil/workspace/arm/lm3s811/TI_Stellaris/utils/ustdlib.c **** 
1339:/home/cuil/workspace/arm/lm3s811/TI_Stellaris/utils/ustdlib.c ****     //
1340:/home/cuil/workspace/arm/lm3s811/TI_Stellaris/utils/ustdlib.c ****     // Get the length of the string to be found.
1341:/home/cuil/workspace/arm/lm3s811/TI_Stellaris/utils/ustdlib.c ****     //
1342:/home/cuil/workspace/arm/lm3s811/TI_Stellaris/utils/ustdlib.c ****     ulLength = ustrlen(pcNeedle);
 3502              		.loc 1 1342 0
 3503 000a 3868     		ldr	r0, [r7, #0]
 3504 000c FFF7FEFF 		bl	ustrlen
 3505 0010 0346     		mov	r3, r0
 3506 0012 FB60     		str	r3, [r7, #12]
1343:/home/cuil/workspace/arm/lm3s811/TI_Stellaris/utils/ustdlib.c **** 
1344:/home/cuil/workspace/arm/lm3s811/TI_Stellaris/utils/ustdlib.c ****     //
1345:/home/cuil/workspace/arm/lm3s811/TI_Stellaris/utils/ustdlib.c ****     // Loop while we have not reached the end of the string.
1346:/home/cuil/workspace/arm/lm3s811/TI_Stellaris/utils/ustdlib.c ****     //
1347:/home/cuil/workspace/arm/lm3s811/TI_Stellaris/utils/ustdlib.c ****     while(*pcHaystack)
 3507              		.loc 1 1347 0
 3508 0014 0EE0     		b	.L115
 3509              	.L118:
1348:/home/cuil/workspace/arm/lm3s811/TI_Stellaris/utils/ustdlib.c ****     {
1349:/home/cuil/workspace/arm/lm3s811/TI_Stellaris/utils/ustdlib.c ****         //
1350:/home/cuil/workspace/arm/lm3s811/TI_Stellaris/utils/ustdlib.c ****         // Check to see if the substring appears at this position.
1351:/home/cuil/workspace/arm/lm3s811/TI_Stellaris/utils/ustdlib.c ****         //
1352:/home/cuil/workspace/arm/lm3s811/TI_Stellaris/utils/ustdlib.c ****         if(ustrncmp(pcNeedle, pcHaystack, ulLength) == 0)
 3510              		.loc 1 1352 0
 3511 0016 FB68     		ldr	r3, [r7, #12]
 3512 0018 3868     		ldr	r0, [r7, #0]
 3513 001a 7968     		ldr	r1, [r7, #4]
 3514 001c 1A46     		mov	r2, r3
 3515 001e FFF7FEFF 		bl	ustrncmp
 3516 0022 0346     		mov	r3, r0
 3517 0024 002B     		cmp	r3, #0
 3518 0026 01D1     		bne	.L116
1353:/home/cuil/workspace/arm/lm3s811/TI_Stellaris/utils/ustdlib.c ****         {
1354:/home/cuil/workspace/arm/lm3s811/TI_Stellaris/utils/ustdlib.c ****             //
1355:/home/cuil/workspace/arm/lm3s811/TI_Stellaris/utils/ustdlib.c ****             // It does so return the pointer.
1356:/home/cuil/workspace/arm/lm3s811/TI_Stellaris/utils/ustdlib.c ****             //
1357:/home/cuil/workspace/arm/lm3s811/TI_Stellaris/utils/ustdlib.c ****             return((char *)pcHaystack);
 3519              		.loc 1 1357 0
 3520 0028 7B68     		ldr	r3, [r7, #4]
 3521 002a 09E0     		b	.L117
 3522              	.L116:
1358:/home/cuil/workspace/arm/lm3s811/TI_Stellaris/utils/ustdlib.c ****         }
1359:/home/cuil/workspace/arm/lm3s811/TI_Stellaris/utils/ustdlib.c **** 
1360:/home/cuil/workspace/arm/lm3s811/TI_Stellaris/utils/ustdlib.c ****         //
1361:/home/cuil/workspace/arm/lm3s811/TI_Stellaris/utils/ustdlib.c ****         // Move to the next position in the string being searched.
1362:/home/cuil/workspace/arm/lm3s811/TI_Stellaris/utils/ustdlib.c ****         //
1363:/home/cuil/workspace/arm/lm3s811/TI_Stellaris/utils/ustdlib.c ****         pcHaystack++;
 3523              		.loc 1 1363 0
 3524 002c 7B68     		ldr	r3, [r7, #4]
 3525 002e 03F10103 		add	r3, r3, #1
 3526 0032 7B60     		str	r3, [r7, #4]
 3527              	.L115:
1347:/home/cuil/workspace/arm/lm3s811/TI_Stellaris/utils/ustdlib.c ****     while(*pcHaystack)
 3528              		.loc 1 1347 0 discriminator 1
 3529 0034 7B68     		ldr	r3, [r7, #4]
 3530 0036 1B78     		ldrb	r3, [r3, #0]	@ zero_extendqisi2
 3531 0038 002B     		cmp	r3, #0
 3532 003a ECD1     		bne	.L118
1364:/home/cuil/workspace/arm/lm3s811/TI_Stellaris/utils/ustdlib.c ****     }
1365:/home/cuil/workspace/arm/lm3s811/TI_Stellaris/utils/ustdlib.c **** 
1366:/home/cuil/workspace/arm/lm3s811/TI_Stellaris/utils/ustdlib.c ****     //
1367:/home/cuil/workspace/arm/lm3s811/TI_Stellaris/utils/ustdlib.c ****     // We reached the end of the string without finding the substring so
1368:/home/cuil/workspace/arm/lm3s811/TI_Stellaris/utils/ustdlib.c ****     // return NULL.
1369:/home/cuil/workspace/arm/lm3s811/TI_Stellaris/utils/ustdlib.c ****     //
1370:/home/cuil/workspace/arm/lm3s811/TI_Stellaris/utils/ustdlib.c ****     return((char *)0);
 3533              		.loc 1 1370 0
 3534 003c 4FF00003 		mov	r3, #0
 3535              	.L117:
1371:/home/cuil/workspace/arm/lm3s811/TI_Stellaris/utils/ustdlib.c **** }
 3536              		.loc 1 1371 0
 3537 0040 1846     		mov	r0, r3
 3538 0042 07F11007 		add	r7, r7, #16
 3539 0046 BD46     		mov	sp, r7
 3540 0048 80BD     		pop	{r7, pc}
 3541              		.cfi_endproc
 3542              	.LFE9:
 3544 004a 00BF     		.section	.text.ustrnicmp,"ax",%progbits
 3545              		.align	2
 3546              		.global	ustrnicmp
 3547              		.thumb
 3548              		.thumb_func
 3550              	ustrnicmp:
 3551              	.LFB10:
1372:/home/cuil/workspace/arm/lm3s811/TI_Stellaris/utils/ustdlib.c **** 
1373:/home/cuil/workspace/arm/lm3s811/TI_Stellaris/utils/ustdlib.c **** //*****************************************************************************
1374:/home/cuil/workspace/arm/lm3s811/TI_Stellaris/utils/ustdlib.c **** //
1375:/home/cuil/workspace/arm/lm3s811/TI_Stellaris/utils/ustdlib.c **** //! Compares two strings without regard to case.
1376:/home/cuil/workspace/arm/lm3s811/TI_Stellaris/utils/ustdlib.c **** //!
1377:/home/cuil/workspace/arm/lm3s811/TI_Stellaris/utils/ustdlib.c **** //! \param pcStr1 points to the first string to be compared.
1378:/home/cuil/workspace/arm/lm3s811/TI_Stellaris/utils/ustdlib.c **** //! \param pcStr2 points to the second string to be compared.
1379:/home/cuil/workspace/arm/lm3s811/TI_Stellaris/utils/ustdlib.c **** //! \param iCount is the maximum number of characters to compare.
1380:/home/cuil/workspace/arm/lm3s811/TI_Stellaris/utils/ustdlib.c **** //!
1381:/home/cuil/workspace/arm/lm3s811/TI_Stellaris/utils/ustdlib.c **** //! This function is very similar to the C library <tt>strnicmp()</tt> function.
1382:/home/cuil/workspace/arm/lm3s811/TI_Stellaris/utils/ustdlib.c **** //! It compares at most \e iCount characters of two strings without regard to
1383:/home/cuil/workspace/arm/lm3s811/TI_Stellaris/utils/ustdlib.c **** //! case.  The comparison ends if a terminating NULL character is found in
1384:/home/cuil/workspace/arm/lm3s811/TI_Stellaris/utils/ustdlib.c **** //! either string before \e iCount characters are compared.  In this case, the
1385:/home/cuil/workspace/arm/lm3s811/TI_Stellaris/utils/ustdlib.c **** //! shorter string is deemed the lesser.
1386:/home/cuil/workspace/arm/lm3s811/TI_Stellaris/utils/ustdlib.c **** //!
1387:/home/cuil/workspace/arm/lm3s811/TI_Stellaris/utils/ustdlib.c **** //! \return Returns 0 if the two strings are equal, -1 if \e pcStr1 is less
1388:/home/cuil/workspace/arm/lm3s811/TI_Stellaris/utils/ustdlib.c **** //! than \e pcStr2 and 1 if \e pcStr1 is greater than \e pcStr2.
1389:/home/cuil/workspace/arm/lm3s811/TI_Stellaris/utils/ustdlib.c **** //
1390:/home/cuil/workspace/arm/lm3s811/TI_Stellaris/utils/ustdlib.c **** //*****************************************************************************
1391:/home/cuil/workspace/arm/lm3s811/TI_Stellaris/utils/ustdlib.c **** int
1392:/home/cuil/workspace/arm/lm3s811/TI_Stellaris/utils/ustdlib.c **** ustrnicmp(const char *pcStr1, const char *pcStr2, int iCount)
1393:/home/cuil/workspace/arm/lm3s811/TI_Stellaris/utils/ustdlib.c **** {
 3552              		.loc 1 1393 0
 3553              		.cfi_startproc
 3554              		@ args = 0, pretend = 0, frame = 24
 3555              		@ frame_needed = 1, uses_anonymous_args = 0
 3556              		@ link register save eliminated.
 3557 0000 80B4     		push	{r7}
 3558              	.LCFI32:
 3559              		.cfi_def_cfa_offset 4
 3560 0002 87B0     		sub	sp, sp, #28
 3561              	.LCFI33:
 3562              		.cfi_def_cfa_offset 32
 3563 0004 00AF     		add	r7, sp, #0
 3564              		.cfi_offset 7, -4
 3565              	.LCFI34:
 3566              		.cfi_def_cfa_register 7
 3567 0006 F860     		str	r0, [r7, #12]
 3568 0008 B960     		str	r1, [r7, #8]
 3569 000a 7A60     		str	r2, [r7, #4]
1394:/home/cuil/workspace/arm/lm3s811/TI_Stellaris/utils/ustdlib.c ****     char cL1, cL2;
1395:/home/cuil/workspace/arm/lm3s811/TI_Stellaris/utils/ustdlib.c **** 
1396:/home/cuil/workspace/arm/lm3s811/TI_Stellaris/utils/ustdlib.c ****     while(iCount)
 3570              		.loc 1 1396 0
 3571 000c 46E0     		b	.L120
 3572              	.L129:
1397:/home/cuil/workspace/arm/lm3s811/TI_Stellaris/utils/ustdlib.c ****     {
1398:/home/cuil/workspace/arm/lm3s811/TI_Stellaris/utils/ustdlib.c ****         //
1399:/home/cuil/workspace/arm/lm3s811/TI_Stellaris/utils/ustdlib.c ****         // If we reached a NULL in both strings, they must be equal so
1400:/home/cuil/workspace/arm/lm3s811/TI_Stellaris/utils/ustdlib.c ****         // we end the comparison and return 0
1401:/home/cuil/workspace/arm/lm3s811/TI_Stellaris/utils/ustdlib.c ****         //
1402:/home/cuil/workspace/arm/lm3s811/TI_Stellaris/utils/ustdlib.c ****         if(!*pcStr1 && !*pcStr2)
 3573              		.loc 1 1402 0
 3574 000e FB68     		ldr	r3, [r7, #12]
 3575 0010 1B78     		ldrb	r3, [r3, #0]	@ zero_extendqisi2
 3576 0012 002B     		cmp	r3, #0
 3577 0014 06D1     		bne	.L121
 3578              		.loc 1 1402 0 is_stmt 0 discriminator 1
 3579 0016 BB68     		ldr	r3, [r7, #8]
 3580 0018 1B78     		ldrb	r3, [r3, #0]	@ zero_extendqisi2
 3581 001a 002B     		cmp	r3, #0
 3582 001c 02D1     		bne	.L121
1403:/home/cuil/workspace/arm/lm3s811/TI_Stellaris/utils/ustdlib.c ****         {
1404:/home/cuil/workspace/arm/lm3s811/TI_Stellaris/utils/ustdlib.c ****             return(0);
 3583              		.loc 1 1404 0 is_stmt 1
 3584 001e 4FF00003 		mov	r3, #0
 3585 0022 40E0     		b	.L122
 3586              	.L121:
1405:/home/cuil/workspace/arm/lm3s811/TI_Stellaris/utils/ustdlib.c ****         }
1406:/home/cuil/workspace/arm/lm3s811/TI_Stellaris/utils/ustdlib.c **** 
1407:/home/cuil/workspace/arm/lm3s811/TI_Stellaris/utils/ustdlib.c ****         //
1408:/home/cuil/workspace/arm/lm3s811/TI_Stellaris/utils/ustdlib.c ****         // Lower case the characters at the current position before we compare.
1409:/home/cuil/workspace/arm/lm3s811/TI_Stellaris/utils/ustdlib.c ****         //
1410:/home/cuil/workspace/arm/lm3s811/TI_Stellaris/utils/ustdlib.c ****         cL1 = (((*pcStr1 >= 'A') && (*pcStr1 <= 'Z')) ?
 3587              		.loc 1 1410 0
 3588 0024 FB68     		ldr	r3, [r7, #12]
 3589 0026 1B78     		ldrb	r3, [r3, #0]	@ zero_extendqisi2
 3590 0028 402B     		cmp	r3, #64
 3591 002a 09D9     		bls	.L123
 3592              		.loc 1 1410 0 is_stmt 0 discriminator 1
 3593 002c FB68     		ldr	r3, [r7, #12]
 3594 002e 1B78     		ldrb	r3, [r3, #0]	@ zero_extendqisi2
 3595 0030 5A2B     		cmp	r3, #90
 3596 0032 05D8     		bhi	.L123
1411:/home/cuil/workspace/arm/lm3s811/TI_Stellaris/utils/ustdlib.c ****                             (*pcStr1 + ('a' - 'A')) : *pcStr1);
 3597              		.loc 1 1411 0 is_stmt 1 discriminator 1
 3598 0034 FB68     		ldr	r3, [r7, #12]
 3599 0036 1B78     		ldrb	r3, [r3, #0]	@ zero_extendqisi2
1410:/home/cuil/workspace/arm/lm3s811/TI_Stellaris/utils/ustdlib.c ****         cL1 = (((*pcStr1 >= 'A') && (*pcStr1 <= 'Z')) ?
 3600              		.loc 1 1410 0 discriminator 1
 3601 0038 03F12003 		add	r3, r3, #32
 3602 003c DBB2     		uxtb	r3, r3
 3603 003e 01E0     		b	.L124
 3604              	.L123:
1410:/home/cuil/workspace/arm/lm3s811/TI_Stellaris/utils/ustdlib.c ****         cL1 = (((*pcStr1 >= 'A') && (*pcStr1 <= 'Z')) ?
 3605              		.loc 1 1410 0 is_stmt 0 discriminator 2
 3606 0040 FB68     		ldr	r3, [r7, #12]
 3607 0042 1B78     		ldrb	r3, [r3, #0]	@ zero_extendqisi2
 3608              	.L124:
1410:/home/cuil/workspace/arm/lm3s811/TI_Stellaris/utils/ustdlib.c ****         cL1 = (((*pcStr1 >= 'A') && (*pcStr1 <= 'Z')) ?
 3609              		.loc 1 1410 0 discriminator 3
 3610 0044 FB75     		strb	r3, [r7, #23]
1412:/home/cuil/workspace/arm/lm3s811/TI_Stellaris/utils/ustdlib.c ****         cL2 = (((*pcStr2 >= 'A') && (*pcStr2 <= 'Z')) ?
 3611              		.loc 1 1412 0 is_stmt 1 discriminator 3
 3612 0046 BB68     		ldr	r3, [r7, #8]
 3613 0048 1B78     		ldrb	r3, [r3, #0]	@ zero_extendqisi2
 3614 004a 402B     		cmp	r3, #64
 3615 004c 09D9     		bls	.L125
 3616              		.loc 1 1412 0 is_stmt 0 discriminator 1
 3617 004e BB68     		ldr	r3, [r7, #8]
 3618 0050 1B78     		ldrb	r3, [r3, #0]	@ zero_extendqisi2
 3619 0052 5A2B     		cmp	r3, #90
 3620 0054 05D8     		bhi	.L125
1413:/home/cuil/workspace/arm/lm3s811/TI_Stellaris/utils/ustdlib.c ****                             (*pcStr2  + ('a' - 'A')) : *pcStr2);
 3621              		.loc 1 1413 0 is_stmt 1 discriminator 1
 3622 0056 BB68     		ldr	r3, [r7, #8]
 3623 0058 1B78     		ldrb	r3, [r3, #0]	@ zero_extendqisi2
1412:/home/cuil/workspace/arm/lm3s811/TI_Stellaris/utils/ustdlib.c ****         cL2 = (((*pcStr2 >= 'A') && (*pcStr2 <= 'Z')) ?
 3624              		.loc 1 1412 0 discriminator 1
 3625 005a 03F12003 		add	r3, r3, #32
 3626 005e DBB2     		uxtb	r3, r3
 3627 0060 01E0     		b	.L126
 3628              	.L125:
1412:/home/cuil/workspace/arm/lm3s811/TI_Stellaris/utils/ustdlib.c ****         cL2 = (((*pcStr2 >= 'A') && (*pcStr2 <= 'Z')) ?
 3629              		.loc 1 1412 0 is_stmt 0 discriminator 2
 3630 0062 BB68     		ldr	r3, [r7, #8]
 3631 0064 1B78     		ldrb	r3, [r3, #0]	@ zero_extendqisi2
 3632              	.L126:
1412:/home/cuil/workspace/arm/lm3s811/TI_Stellaris/utils/ustdlib.c ****         cL2 = (((*pcStr2 >= 'A') && (*pcStr2 <= 'Z')) ?
 3633              		.loc 1 1412 0 discriminator 3
 3634 0066 BB75     		strb	r3, [r7, #22]
1414:/home/cuil/workspace/arm/lm3s811/TI_Stellaris/utils/ustdlib.c ****         //
1415:/home/cuil/workspace/arm/lm3s811/TI_Stellaris/utils/ustdlib.c ****         // Compare the two characters and, if different, return the relevant
1416:/home/cuil/workspace/arm/lm3s811/TI_Stellaris/utils/ustdlib.c ****         // return code.
1417:/home/cuil/workspace/arm/lm3s811/TI_Stellaris/utils/ustdlib.c ****         //
1418:/home/cuil/workspace/arm/lm3s811/TI_Stellaris/utils/ustdlib.c ****         if(cL2 < cL1)
 3635              		.loc 1 1418 0 is_stmt 1 discriminator 3
 3636 0068 BA7D     		ldrb	r2, [r7, #22]	@ zero_extendqisi2
 3637 006a FB7D     		ldrb	r3, [r7, #23]	@ zero_extendqisi2
 3638 006c 9A42     		cmp	r2, r3
 3639 006e 02D2     		bcs	.L127
1419:/home/cuil/workspace/arm/lm3s811/TI_Stellaris/utils/ustdlib.c ****         {
1420:/home/cuil/workspace/arm/lm3s811/TI_Stellaris/utils/ustdlib.c ****             return(1);
 3640              		.loc 1 1420 0
 3641 0070 4FF00103 		mov	r3, #1
 3642 0074 17E0     		b	.L122
 3643              	.L127:
1421:/home/cuil/workspace/arm/lm3s811/TI_Stellaris/utils/ustdlib.c ****         }
1422:/home/cuil/workspace/arm/lm3s811/TI_Stellaris/utils/ustdlib.c ****         if(cL1 < cL2)
 3644              		.loc 1 1422 0
 3645 0076 FA7D     		ldrb	r2, [r7, #23]	@ zero_extendqisi2
 3646 0078 BB7D     		ldrb	r3, [r7, #22]	@ zero_extendqisi2
 3647 007a 9A42     		cmp	r2, r3
 3648 007c 02D2     		bcs	.L128
1423:/home/cuil/workspace/arm/lm3s811/TI_Stellaris/utils/ustdlib.c ****         {
1424:/home/cuil/workspace/arm/lm3s811/TI_Stellaris/utils/ustdlib.c ****             return(-1);
 3649              		.loc 1 1424 0
 3650 007e 4FF0FF33 		mov	r3, #-1
 3651 0082 10E0     		b	.L122
 3652              	.L128:
1425:/home/cuil/workspace/arm/lm3s811/TI_Stellaris/utils/ustdlib.c ****         }
1426:/home/cuil/workspace/arm/lm3s811/TI_Stellaris/utils/ustdlib.c **** 
1427:/home/cuil/workspace/arm/lm3s811/TI_Stellaris/utils/ustdlib.c ****         //
1428:/home/cuil/workspace/arm/lm3s811/TI_Stellaris/utils/ustdlib.c ****         // Move on to the next character.
1429:/home/cuil/workspace/arm/lm3s811/TI_Stellaris/utils/ustdlib.c ****         //
1430:/home/cuil/workspace/arm/lm3s811/TI_Stellaris/utils/ustdlib.c ****         pcStr1++;
 3653              		.loc 1 1430 0
 3654 0084 FB68     		ldr	r3, [r7, #12]
 3655 0086 03F10103 		add	r3, r3, #1
 3656 008a FB60     		str	r3, [r7, #12]
1431:/home/cuil/workspace/arm/lm3s811/TI_Stellaris/utils/ustdlib.c ****         pcStr2++;
 3657              		.loc 1 1431 0
 3658 008c BB68     		ldr	r3, [r7, #8]
 3659 008e 03F10103 		add	r3, r3, #1
 3660 0092 BB60     		str	r3, [r7, #8]
1432:/home/cuil/workspace/arm/lm3s811/TI_Stellaris/utils/ustdlib.c ****         iCount--;
 3661              		.loc 1 1432 0
 3662 0094 7B68     		ldr	r3, [r7, #4]
 3663 0096 03F1FF33 		add	r3, r3, #-1
 3664 009a 7B60     		str	r3, [r7, #4]
 3665              	.L120:
1396:/home/cuil/workspace/arm/lm3s811/TI_Stellaris/utils/ustdlib.c ****     while(iCount)
 3666              		.loc 1 1396 0 discriminator 1
 3667 009c 7B68     		ldr	r3, [r7, #4]
 3668 009e 002B     		cmp	r3, #0
 3669 00a0 B5D1     		bne	.L129
1433:/home/cuil/workspace/arm/lm3s811/TI_Stellaris/utils/ustdlib.c ****     }
1434:/home/cuil/workspace/arm/lm3s811/TI_Stellaris/utils/ustdlib.c **** 
1435:/home/cuil/workspace/arm/lm3s811/TI_Stellaris/utils/ustdlib.c ****     //
1436:/home/cuil/workspace/arm/lm3s811/TI_Stellaris/utils/ustdlib.c ****     // If we fall out, the strings must be equal for at least the first iCount
1437:/home/cuil/workspace/arm/lm3s811/TI_Stellaris/utils/ustdlib.c ****     // characters so return 0 to indicate this.
1438:/home/cuil/workspace/arm/lm3s811/TI_Stellaris/utils/ustdlib.c ****     //
1439:/home/cuil/workspace/arm/lm3s811/TI_Stellaris/utils/ustdlib.c ****     return(0);
 3670              		.loc 1 1439 0
 3671 00a2 4FF00003 		mov	r3, #0
 3672              	.L122:
1440:/home/cuil/workspace/arm/lm3s811/TI_Stellaris/utils/ustdlib.c **** }
 3673              		.loc 1 1440 0
 3674 00a6 1846     		mov	r0, r3
 3675 00a8 07F11C07 		add	r7, r7, #28
 3676 00ac BD46     		mov	sp, r7
 3677 00ae 80BC     		pop	{r7}
 3678 00b0 7047     		bx	lr
 3679              		.cfi_endproc
 3680              	.LFE10:
 3682 00b2 00BF     		.section	.text.ustrcasecmp,"ax",%progbits
 3683              		.align	2
 3684              		.global	ustrcasecmp
 3685              		.thumb
 3686              		.thumb_func
 3688              	ustrcasecmp:
 3689              	.LFB11:
1441:/home/cuil/workspace/arm/lm3s811/TI_Stellaris/utils/ustdlib.c **** 
1442:/home/cuil/workspace/arm/lm3s811/TI_Stellaris/utils/ustdlib.c **** //*****************************************************************************
1443:/home/cuil/workspace/arm/lm3s811/TI_Stellaris/utils/ustdlib.c **** //
1444:/home/cuil/workspace/arm/lm3s811/TI_Stellaris/utils/ustdlib.c **** //! Compares two strings without regard to case.
1445:/home/cuil/workspace/arm/lm3s811/TI_Stellaris/utils/ustdlib.c **** //!
1446:/home/cuil/workspace/arm/lm3s811/TI_Stellaris/utils/ustdlib.c **** //! \param pcStr1 points to the first string to be compared.
1447:/home/cuil/workspace/arm/lm3s811/TI_Stellaris/utils/ustdlib.c **** //! \param pcStr2 points to the second string to be compared.
1448:/home/cuil/workspace/arm/lm3s811/TI_Stellaris/utils/ustdlib.c **** //!
1449:/home/cuil/workspace/arm/lm3s811/TI_Stellaris/utils/ustdlib.c **** //! This function is very similar to the C library <tt>strcasecmp()</tt>
1450:/home/cuil/workspace/arm/lm3s811/TI_Stellaris/utils/ustdlib.c **** //! function.  It compares two strings without regard to case.  The comparison
1451:/home/cuil/workspace/arm/lm3s811/TI_Stellaris/utils/ustdlib.c **** //! ends if a terminating NULL character is found in either string.  In this
1452:/home/cuil/workspace/arm/lm3s811/TI_Stellaris/utils/ustdlib.c **** //! case, the shorter string is deemed the lesser.
1453:/home/cuil/workspace/arm/lm3s811/TI_Stellaris/utils/ustdlib.c **** //!
1454:/home/cuil/workspace/arm/lm3s811/TI_Stellaris/utils/ustdlib.c **** //! \return Returns 0 if the two strings are equal, -1 if \e pcStr1 is less
1455:/home/cuil/workspace/arm/lm3s811/TI_Stellaris/utils/ustdlib.c **** //! than \e pcStr2 and 1 if \e pcStr1 is greater than \e pcStr2.
1456:/home/cuil/workspace/arm/lm3s811/TI_Stellaris/utils/ustdlib.c **** //
1457:/home/cuil/workspace/arm/lm3s811/TI_Stellaris/utils/ustdlib.c **** //*****************************************************************************
1458:/home/cuil/workspace/arm/lm3s811/TI_Stellaris/utils/ustdlib.c **** int
1459:/home/cuil/workspace/arm/lm3s811/TI_Stellaris/utils/ustdlib.c **** ustrcasecmp(const char *pcStr1, const char *pcStr2)
1460:/home/cuil/workspace/arm/lm3s811/TI_Stellaris/utils/ustdlib.c **** {
 3690              		.loc 1 1460 0
 3691              		.cfi_startproc
 3692              		@ args = 0, pretend = 0, frame = 8
 3693              		@ frame_needed = 1, uses_anonymous_args = 0
 3694 0000 80B5     		push	{r7, lr}
 3695              	.LCFI35:
 3696              		.cfi_def_cfa_offset 8
 3697 0002 82B0     		sub	sp, sp, #8
 3698              	.LCFI36:
 3699              		.cfi_def_cfa_offset 16
 3700 0004 00AF     		add	r7, sp, #0
 3701              		.cfi_offset 14, -4
 3702              		.cfi_offset 7, -8
 3703              	.LCFI37:
 3704              		.cfi_def_cfa_register 7
 3705 0006 7860     		str	r0, [r7, #4]
 3706 0008 3960     		str	r1, [r7, #0]
1461:/home/cuil/workspace/arm/lm3s811/TI_Stellaris/utils/ustdlib.c ****     //
1462:/home/cuil/workspace/arm/lm3s811/TI_Stellaris/utils/ustdlib.c ****     // Just let ustrnicmp() handle this.
1463:/home/cuil/workspace/arm/lm3s811/TI_Stellaris/utils/ustdlib.c ****     //
1464:/home/cuil/workspace/arm/lm3s811/TI_Stellaris/utils/ustdlib.c ****     return(ustrnicmp(pcStr1, pcStr2, -1));
 3707              		.loc 1 1464 0
 3708 000a 7868     		ldr	r0, [r7, #4]
 3709 000c 3968     		ldr	r1, [r7, #0]
 3710 000e 4FF0FF32 		mov	r2, #-1
 3711 0012 FFF7FEFF 		bl	ustrnicmp
 3712 0016 0346     		mov	r3, r0
1465:/home/cuil/workspace/arm/lm3s811/TI_Stellaris/utils/ustdlib.c **** }
 3713              		.loc 1 1465 0
 3714 0018 1846     		mov	r0, r3
 3715 001a 07F10807 		add	r7, r7, #8
 3716 001e BD46     		mov	sp, r7
 3717 0020 80BD     		pop	{r7, pc}
 3718              		.cfi_endproc
 3719              	.LFE11:
 3721 0022 00BF     		.section	.text.ustrncmp,"ax",%progbits
 3722              		.align	2
 3723              		.global	ustrncmp
 3724              		.thumb
 3725              		.thumb_func
 3727              	ustrncmp:
 3728              	.LFB12:
1466:/home/cuil/workspace/arm/lm3s811/TI_Stellaris/utils/ustdlib.c **** 
1467:/home/cuil/workspace/arm/lm3s811/TI_Stellaris/utils/ustdlib.c **** //*****************************************************************************
1468:/home/cuil/workspace/arm/lm3s811/TI_Stellaris/utils/ustdlib.c **** //
1469:/home/cuil/workspace/arm/lm3s811/TI_Stellaris/utils/ustdlib.c **** //! Compares two strings.
1470:/home/cuil/workspace/arm/lm3s811/TI_Stellaris/utils/ustdlib.c **** //!
1471:/home/cuil/workspace/arm/lm3s811/TI_Stellaris/utils/ustdlib.c **** //! \param pcStr1 points to the first string to be compared.
1472:/home/cuil/workspace/arm/lm3s811/TI_Stellaris/utils/ustdlib.c **** //! \param pcStr2 points to the second string to be compared.
1473:/home/cuil/workspace/arm/lm3s811/TI_Stellaris/utils/ustdlib.c **** //! \param iCount is the maximum number of characters to compare.
1474:/home/cuil/workspace/arm/lm3s811/TI_Stellaris/utils/ustdlib.c **** //!
1475:/home/cuil/workspace/arm/lm3s811/TI_Stellaris/utils/ustdlib.c **** //! This function is very similar to the C library <tt>strncmp()</tt> function.
1476:/home/cuil/workspace/arm/lm3s811/TI_Stellaris/utils/ustdlib.c **** //! It compares at most \e iCount characters of two strings taking case into
1477:/home/cuil/workspace/arm/lm3s811/TI_Stellaris/utils/ustdlib.c **** //! account.  The comparison ends if a terminating NULL character is found in
1478:/home/cuil/workspace/arm/lm3s811/TI_Stellaris/utils/ustdlib.c **** //! either string before \e iCount characters are compared.  In this case, the
1479:/home/cuil/workspace/arm/lm3s811/TI_Stellaris/utils/ustdlib.c **** //! shorter string is deemed the lesser.
1480:/home/cuil/workspace/arm/lm3s811/TI_Stellaris/utils/ustdlib.c **** //!
1481:/home/cuil/workspace/arm/lm3s811/TI_Stellaris/utils/ustdlib.c **** //! \return Returns 0 if the two strings are equal, -1 if \e pcStr1 is less
1482:/home/cuil/workspace/arm/lm3s811/TI_Stellaris/utils/ustdlib.c **** //! than \e pcStr2 and 1 if \e pcStr1 is greater than \e pcStr2.
1483:/home/cuil/workspace/arm/lm3s811/TI_Stellaris/utils/ustdlib.c **** //
1484:/home/cuil/workspace/arm/lm3s811/TI_Stellaris/utils/ustdlib.c **** //*****************************************************************************
1485:/home/cuil/workspace/arm/lm3s811/TI_Stellaris/utils/ustdlib.c **** int
1486:/home/cuil/workspace/arm/lm3s811/TI_Stellaris/utils/ustdlib.c **** ustrncmp(const char *pcStr1, const char *pcStr2, int iCount)
1487:/home/cuil/workspace/arm/lm3s811/TI_Stellaris/utils/ustdlib.c **** {
 3729              		.loc 1 1487 0
 3730              		.cfi_startproc
 3731              		@ args = 0, pretend = 0, frame = 16
 3732              		@ frame_needed = 1, uses_anonymous_args = 0
 3733              		@ link register save eliminated.
 3734 0000 80B4     		push	{r7}
 3735              	.LCFI38:
 3736              		.cfi_def_cfa_offset 4
 3737 0002 85B0     		sub	sp, sp, #20
 3738              	.LCFI39:
 3739              		.cfi_def_cfa_offset 24
 3740 0004 00AF     		add	r7, sp, #0
 3741              		.cfi_offset 7, -4
 3742              	.LCFI40:
 3743              		.cfi_def_cfa_register 7
 3744 0006 F860     		str	r0, [r7, #12]
 3745 0008 B960     		str	r1, [r7, #8]
 3746 000a 7A60     		str	r2, [r7, #4]
1488:/home/cuil/workspace/arm/lm3s811/TI_Stellaris/utils/ustdlib.c ****     while(iCount)
 3747              		.loc 1 1488 0
 3748 000c 28E0     		b	.L132
 3749              	.L137:
1489:/home/cuil/workspace/arm/lm3s811/TI_Stellaris/utils/ustdlib.c ****     {
1490:/home/cuil/workspace/arm/lm3s811/TI_Stellaris/utils/ustdlib.c ****         //
1491:/home/cuil/workspace/arm/lm3s811/TI_Stellaris/utils/ustdlib.c ****         // If we reached a NULL in both strings, they must be equal so
1492:/home/cuil/workspace/arm/lm3s811/TI_Stellaris/utils/ustdlib.c ****         // we end the comparison and return 0
1493:/home/cuil/workspace/arm/lm3s811/TI_Stellaris/utils/ustdlib.c ****         //
1494:/home/cuil/workspace/arm/lm3s811/TI_Stellaris/utils/ustdlib.c ****         if(!*pcStr1 && !*pcStr2)
 3750              		.loc 1 1494 0
 3751 000e FB68     		ldr	r3, [r7, #12]
 3752 0010 1B78     		ldrb	r3, [r3, #0]	@ zero_extendqisi2
 3753 0012 002B     		cmp	r3, #0
 3754 0014 06D1     		bne	.L133
 3755              		.loc 1 1494 0 is_stmt 0 discriminator 1
 3756 0016 BB68     		ldr	r3, [r7, #8]
 3757 0018 1B78     		ldrb	r3, [r3, #0]	@ zero_extendqisi2
 3758 001a 002B     		cmp	r3, #0
 3759 001c 02D1     		bne	.L133
1495:/home/cuil/workspace/arm/lm3s811/TI_Stellaris/utils/ustdlib.c ****         {
1496:/home/cuil/workspace/arm/lm3s811/TI_Stellaris/utils/ustdlib.c ****             return(0);
 3760              		.loc 1 1496 0 is_stmt 1
 3761 001e 4FF00003 		mov	r3, #0
 3762 0022 22E0     		b	.L134
 3763              	.L133:
1497:/home/cuil/workspace/arm/lm3s811/TI_Stellaris/utils/ustdlib.c ****         }
1498:/home/cuil/workspace/arm/lm3s811/TI_Stellaris/utils/ustdlib.c **** 
1499:/home/cuil/workspace/arm/lm3s811/TI_Stellaris/utils/ustdlib.c ****         //
1500:/home/cuil/workspace/arm/lm3s811/TI_Stellaris/utils/ustdlib.c ****         // Compare the two characters and, if different, return the relevant
1501:/home/cuil/workspace/arm/lm3s811/TI_Stellaris/utils/ustdlib.c ****         // return code.
1502:/home/cuil/workspace/arm/lm3s811/TI_Stellaris/utils/ustdlib.c ****         //
1503:/home/cuil/workspace/arm/lm3s811/TI_Stellaris/utils/ustdlib.c ****         if(*pcStr2 < *pcStr1)
 3764              		.loc 1 1503 0
 3765 0024 BB68     		ldr	r3, [r7, #8]
 3766 0026 1A78     		ldrb	r2, [r3, #0]	@ zero_extendqisi2
 3767 0028 FB68     		ldr	r3, [r7, #12]
 3768 002a 1B78     		ldrb	r3, [r3, #0]	@ zero_extendqisi2
 3769 002c 9A42     		cmp	r2, r3
 3770 002e 02D2     		bcs	.L135
1504:/home/cuil/workspace/arm/lm3s811/TI_Stellaris/utils/ustdlib.c ****         {
1505:/home/cuil/workspace/arm/lm3s811/TI_Stellaris/utils/ustdlib.c ****             return(1);
 3771              		.loc 1 1505 0
 3772 0030 4FF00103 		mov	r3, #1
 3773 0034 19E0     		b	.L134
 3774              	.L135:
1506:/home/cuil/workspace/arm/lm3s811/TI_Stellaris/utils/ustdlib.c ****         }
1507:/home/cuil/workspace/arm/lm3s811/TI_Stellaris/utils/ustdlib.c ****         if(*pcStr1 < *pcStr2)
 3775              		.loc 1 1507 0
 3776 0036 FB68     		ldr	r3, [r7, #12]
 3777 0038 1A78     		ldrb	r2, [r3, #0]	@ zero_extendqisi2
 3778 003a BB68     		ldr	r3, [r7, #8]
 3779 003c 1B78     		ldrb	r3, [r3, #0]	@ zero_extendqisi2
 3780 003e 9A42     		cmp	r2, r3
 3781 0040 02D2     		bcs	.L136
1508:/home/cuil/workspace/arm/lm3s811/TI_Stellaris/utils/ustdlib.c ****         {
1509:/home/cuil/workspace/arm/lm3s811/TI_Stellaris/utils/ustdlib.c ****             return(-1);
 3782              		.loc 1 1509 0
 3783 0042 4FF0FF33 		mov	r3, #-1
 3784 0046 10E0     		b	.L134
 3785              	.L136:
1510:/home/cuil/workspace/arm/lm3s811/TI_Stellaris/utils/ustdlib.c ****         }
1511:/home/cuil/workspace/arm/lm3s811/TI_Stellaris/utils/ustdlib.c **** 
1512:/home/cuil/workspace/arm/lm3s811/TI_Stellaris/utils/ustdlib.c ****         //
1513:/home/cuil/workspace/arm/lm3s811/TI_Stellaris/utils/ustdlib.c ****         // Move on to the next character.
1514:/home/cuil/workspace/arm/lm3s811/TI_Stellaris/utils/ustdlib.c ****         //
1515:/home/cuil/workspace/arm/lm3s811/TI_Stellaris/utils/ustdlib.c ****         pcStr1++;
 3786              		.loc 1 1515 0
 3787 0048 FB68     		ldr	r3, [r7, #12]
 3788 004a 03F10103 		add	r3, r3, #1
 3789 004e FB60     		str	r3, [r7, #12]
1516:/home/cuil/workspace/arm/lm3s811/TI_Stellaris/utils/ustdlib.c ****         pcStr2++;
 3790              		.loc 1 1516 0
 3791 0050 BB68     		ldr	r3, [r7, #8]
 3792 0052 03F10103 		add	r3, r3, #1
 3793 0056 BB60     		str	r3, [r7, #8]
1517:/home/cuil/workspace/arm/lm3s811/TI_Stellaris/utils/ustdlib.c ****         iCount--;
 3794              		.loc 1 1517 0
 3795 0058 7B68     		ldr	r3, [r7, #4]
 3796 005a 03F1FF33 		add	r3, r3, #-1
 3797 005e 7B60     		str	r3, [r7, #4]
 3798              	.L132:
1488:/home/cuil/workspace/arm/lm3s811/TI_Stellaris/utils/ustdlib.c ****     while(iCount)
 3799              		.loc 1 1488 0 discriminator 1
 3800 0060 7B68     		ldr	r3, [r7, #4]
 3801 0062 002B     		cmp	r3, #0
 3802 0064 D3D1     		bne	.L137
1518:/home/cuil/workspace/arm/lm3s811/TI_Stellaris/utils/ustdlib.c ****     }
1519:/home/cuil/workspace/arm/lm3s811/TI_Stellaris/utils/ustdlib.c **** 
1520:/home/cuil/workspace/arm/lm3s811/TI_Stellaris/utils/ustdlib.c ****     //
1521:/home/cuil/workspace/arm/lm3s811/TI_Stellaris/utils/ustdlib.c ****     // If we fall out, the strings must be equal for at least the first iCount
1522:/home/cuil/workspace/arm/lm3s811/TI_Stellaris/utils/ustdlib.c ****     // characters so return 0 to indicate this.
1523:/home/cuil/workspace/arm/lm3s811/TI_Stellaris/utils/ustdlib.c ****     //
1524:/home/cuil/workspace/arm/lm3s811/TI_Stellaris/utils/ustdlib.c ****     return(0);
 3803              		.loc 1 1524 0
 3804 0066 4FF00003 		mov	r3, #0
 3805              	.L134:
1525:/home/cuil/workspace/arm/lm3s811/TI_Stellaris/utils/ustdlib.c **** 
1526:/home/cuil/workspace/arm/lm3s811/TI_Stellaris/utils/ustdlib.c **** }
 3806              		.loc 1 1526 0
 3807 006a 1846     		mov	r0, r3
 3808 006c 07F11407 		add	r7, r7, #20
 3809 0070 BD46     		mov	sp, r7
 3810 0072 80BC     		pop	{r7}
 3811 0074 7047     		bx	lr
 3812              		.cfi_endproc
 3813              	.LFE12:
 3815 0076 00BF     		.section	.text.ustrcmp,"ax",%progbits
 3816              		.align	2
 3817              		.global	ustrcmp
 3818              		.thumb
 3819              		.thumb_func
 3821              	ustrcmp:
 3822              	.LFB13:
1527:/home/cuil/workspace/arm/lm3s811/TI_Stellaris/utils/ustdlib.c **** 
1528:/home/cuil/workspace/arm/lm3s811/TI_Stellaris/utils/ustdlib.c **** //*****************************************************************************
1529:/home/cuil/workspace/arm/lm3s811/TI_Stellaris/utils/ustdlib.c **** //
1530:/home/cuil/workspace/arm/lm3s811/TI_Stellaris/utils/ustdlib.c **** //! Compares two strings.
1531:/home/cuil/workspace/arm/lm3s811/TI_Stellaris/utils/ustdlib.c **** //!
1532:/home/cuil/workspace/arm/lm3s811/TI_Stellaris/utils/ustdlib.c **** //! \param pcStr1 points to the first string to be compared.
1533:/home/cuil/workspace/arm/lm3s811/TI_Stellaris/utils/ustdlib.c **** //! \param pcStr2 points to the second string to be compared.
1534:/home/cuil/workspace/arm/lm3s811/TI_Stellaris/utils/ustdlib.c **** //!
1535:/home/cuil/workspace/arm/lm3s811/TI_Stellaris/utils/ustdlib.c **** //! This function is very similar to the C library <tt>strcmp()</tt>
1536:/home/cuil/workspace/arm/lm3s811/TI_Stellaris/utils/ustdlib.c **** //! function.  It compares two strings, taking case into account.  The
1537:/home/cuil/workspace/arm/lm3s811/TI_Stellaris/utils/ustdlib.c **** //! comparison ends if a terminating NULL character is found in either string.
1538:/home/cuil/workspace/arm/lm3s811/TI_Stellaris/utils/ustdlib.c **** //! In this case, the shorter string is deemed the lesser.
1539:/home/cuil/workspace/arm/lm3s811/TI_Stellaris/utils/ustdlib.c **** //!
1540:/home/cuil/workspace/arm/lm3s811/TI_Stellaris/utils/ustdlib.c **** //! \return Returns 0 if the two strings are equal, -1 if \e pcStr1 is less
1541:/home/cuil/workspace/arm/lm3s811/TI_Stellaris/utils/ustdlib.c **** //! than \e pcStr2 and 1 if \e pcStr1 is greater than \e pcStr2.
1542:/home/cuil/workspace/arm/lm3s811/TI_Stellaris/utils/ustdlib.c **** //
1543:/home/cuil/workspace/arm/lm3s811/TI_Stellaris/utils/ustdlib.c **** //*****************************************************************************
1544:/home/cuil/workspace/arm/lm3s811/TI_Stellaris/utils/ustdlib.c **** int
1545:/home/cuil/workspace/arm/lm3s811/TI_Stellaris/utils/ustdlib.c **** ustrcmp(const char *pcStr1, const char *pcStr2)
1546:/home/cuil/workspace/arm/lm3s811/TI_Stellaris/utils/ustdlib.c **** {
 3823              		.loc 1 1546 0
 3824              		.cfi_startproc
 3825              		@ args = 0, pretend = 0, frame = 8
 3826              		@ frame_needed = 1, uses_anonymous_args = 0
 3827 0000 80B5     		push	{r7, lr}
 3828              	.LCFI41:
 3829              		.cfi_def_cfa_offset 8
 3830 0002 82B0     		sub	sp, sp, #8
 3831              	.LCFI42:
 3832              		.cfi_def_cfa_offset 16
 3833 0004 00AF     		add	r7, sp, #0
 3834              		.cfi_offset 14, -4
 3835              		.cfi_offset 7, -8
 3836              	.LCFI43:
 3837              		.cfi_def_cfa_register 7
 3838 0006 7860     		str	r0, [r7, #4]
 3839 0008 3960     		str	r1, [r7, #0]
1547:/home/cuil/workspace/arm/lm3s811/TI_Stellaris/utils/ustdlib.c ****     //
1548:/home/cuil/workspace/arm/lm3s811/TI_Stellaris/utils/ustdlib.c ****     // Pass this on to ustrncmp.
1549:/home/cuil/workspace/arm/lm3s811/TI_Stellaris/utils/ustdlib.c ****     //
1550:/home/cuil/workspace/arm/lm3s811/TI_Stellaris/utils/ustdlib.c ****     return(ustrncmp(pcStr1, pcStr2, -1));
 3840              		.loc 1 1550 0
 3841 000a 7868     		ldr	r0, [r7, #4]
 3842 000c 3968     		ldr	r1, [r7, #0]
 3843 000e 4FF0FF32 		mov	r2, #-1
 3844 0012 FFF7FEFF 		bl	ustrncmp
 3845 0016 0346     		mov	r3, r0
1551:/home/cuil/workspace/arm/lm3s811/TI_Stellaris/utils/ustdlib.c **** }
 3846              		.loc 1 1551 0
 3847 0018 1846     		mov	r0, r3
 3848 001a 07F10807 		add	r7, r7, #8
 3849 001e BD46     		mov	sp, r7
 3850 0020 80BD     		pop	{r7, pc}
 3851              		.cfi_endproc
 3852              	.LFE13:
 3854 0022 00BF     		.data
 3855              		.align	2
 3858              	g_ulRandomSeed:
 3859 0000 01000000 		.word	1
 3860              		.section	.text.usrand,"ax",%progbits
 3861              		.align	2
 3862              		.global	usrand
 3863              		.thumb
 3864              		.thumb_func
 3866              	usrand:
 3867              	.LFB14:
1552:/home/cuil/workspace/arm/lm3s811/TI_Stellaris/utils/ustdlib.c **** 
1553:/home/cuil/workspace/arm/lm3s811/TI_Stellaris/utils/ustdlib.c **** //*****************************************************************************
1554:/home/cuil/workspace/arm/lm3s811/TI_Stellaris/utils/ustdlib.c **** //
1555:/home/cuil/workspace/arm/lm3s811/TI_Stellaris/utils/ustdlib.c **** // Random Number Generator Seed Value
1556:/home/cuil/workspace/arm/lm3s811/TI_Stellaris/utils/ustdlib.c **** //
1557:/home/cuil/workspace/arm/lm3s811/TI_Stellaris/utils/ustdlib.c **** //*****************************************************************************
1558:/home/cuil/workspace/arm/lm3s811/TI_Stellaris/utils/ustdlib.c **** static unsigned long g_ulRandomSeed = 1;
1559:/home/cuil/workspace/arm/lm3s811/TI_Stellaris/utils/ustdlib.c **** 
1560:/home/cuil/workspace/arm/lm3s811/TI_Stellaris/utils/ustdlib.c **** //*****************************************************************************
1561:/home/cuil/workspace/arm/lm3s811/TI_Stellaris/utils/ustdlib.c **** //
1562:/home/cuil/workspace/arm/lm3s811/TI_Stellaris/utils/ustdlib.c **** //! Set the random number generator seed.
1563:/home/cuil/workspace/arm/lm3s811/TI_Stellaris/utils/ustdlib.c **** //!
1564:/home/cuil/workspace/arm/lm3s811/TI_Stellaris/utils/ustdlib.c **** //! \param ulSeed is the new seed value to use for the random number generator.
1565:/home/cuil/workspace/arm/lm3s811/TI_Stellaris/utils/ustdlib.c **** //!
1566:/home/cuil/workspace/arm/lm3s811/TI_Stellaris/utils/ustdlib.c **** //! This function is very similar to the C library <tt>srand()</tt> function.
1567:/home/cuil/workspace/arm/lm3s811/TI_Stellaris/utils/ustdlib.c **** //! It will set the seed value used in the <tt>urand()</tt> function.
1568:/home/cuil/workspace/arm/lm3s811/TI_Stellaris/utils/ustdlib.c **** //!
1569:/home/cuil/workspace/arm/lm3s811/TI_Stellaris/utils/ustdlib.c **** //! \return None
1570:/home/cuil/workspace/arm/lm3s811/TI_Stellaris/utils/ustdlib.c **** //
1571:/home/cuil/workspace/arm/lm3s811/TI_Stellaris/utils/ustdlib.c **** //*****************************************************************************
1572:/home/cuil/workspace/arm/lm3s811/TI_Stellaris/utils/ustdlib.c **** void
1573:/home/cuil/workspace/arm/lm3s811/TI_Stellaris/utils/ustdlib.c **** usrand(unsigned long ulSeed)
1574:/home/cuil/workspace/arm/lm3s811/TI_Stellaris/utils/ustdlib.c **** {
 3868              		.loc 1 1574 0
 3869              		.cfi_startproc
 3870              		@ args = 0, pretend = 0, frame = 8
 3871              		@ frame_needed = 1, uses_anonymous_args = 0
 3872              		@ link register save eliminated.
 3873 0000 80B4     		push	{r7}
 3874              	.LCFI44:
 3875              		.cfi_def_cfa_offset 4
 3876 0002 83B0     		sub	sp, sp, #12
 3877              	.LCFI45:
 3878              		.cfi_def_cfa_offset 16
 3879 0004 00AF     		add	r7, sp, #0
 3880              		.cfi_offset 7, -4
 3881              	.LCFI46:
 3882              		.cfi_def_cfa_register 7
 3883 0006 7860     		str	r0, [r7, #4]
1575:/home/cuil/workspace/arm/lm3s811/TI_Stellaris/utils/ustdlib.c ****     g_ulRandomSeed = ulSeed;
 3884              		.loc 1 1575 0
 3885 0008 034B     		ldr	r3, .L140
 3886 000a 7A68     		ldr	r2, [r7, #4]
 3887 000c 1A60     		str	r2, [r3, #0]
1576:/home/cuil/workspace/arm/lm3s811/TI_Stellaris/utils/ustdlib.c **** }
 3888              		.loc 1 1576 0
 3889 000e 07F10C07 		add	r7, r7, #12
 3890 0012 BD46     		mov	sp, r7
 3891 0014 80BC     		pop	{r7}
 3892 0016 7047     		bx	lr
 3893              	.L141:
 3894              		.align	2
 3895              	.L140:
 3896 0018 00000000 		.word	g_ulRandomSeed
 3897              		.cfi_endproc
 3898              	.LFE14:
 3900              		.section	.text.urand,"ax",%progbits
 3901              		.align	2
 3902              		.global	urand
 3903              		.thumb
 3904              		.thumb_func
 3906              	urand:
 3907              	.LFB15:
1577:/home/cuil/workspace/arm/lm3s811/TI_Stellaris/utils/ustdlib.c **** 
1578:/home/cuil/workspace/arm/lm3s811/TI_Stellaris/utils/ustdlib.c **** //*****************************************************************************
1579:/home/cuil/workspace/arm/lm3s811/TI_Stellaris/utils/ustdlib.c **** //
1580:/home/cuil/workspace/arm/lm3s811/TI_Stellaris/utils/ustdlib.c **** //! Generate a new (pseudo) random number
1581:/home/cuil/workspace/arm/lm3s811/TI_Stellaris/utils/ustdlib.c **** //!
1582:/home/cuil/workspace/arm/lm3s811/TI_Stellaris/utils/ustdlib.c **** //! This function is very similar to the C library <tt>rand()</tt> function.
1583:/home/cuil/workspace/arm/lm3s811/TI_Stellaris/utils/ustdlib.c **** //! It will generate a pseudo-random number sequence based on the seed value.
1584:/home/cuil/workspace/arm/lm3s811/TI_Stellaris/utils/ustdlib.c **** //!
1585:/home/cuil/workspace/arm/lm3s811/TI_Stellaris/utils/ustdlib.c **** //! \return A pseudo-random number will be returned.
1586:/home/cuil/workspace/arm/lm3s811/TI_Stellaris/utils/ustdlib.c **** //
1587:/home/cuil/workspace/arm/lm3s811/TI_Stellaris/utils/ustdlib.c **** //*****************************************************************************
1588:/home/cuil/workspace/arm/lm3s811/TI_Stellaris/utils/ustdlib.c **** int
1589:/home/cuil/workspace/arm/lm3s811/TI_Stellaris/utils/ustdlib.c **** urand(void)
1590:/home/cuil/workspace/arm/lm3s811/TI_Stellaris/utils/ustdlib.c **** {
 3908              		.loc 1 1590 0
 3909              		.cfi_startproc
 3910              		@ args = 0, pretend = 0, frame = 0
 3911              		@ frame_needed = 1, uses_anonymous_args = 0
 3912              		@ link register save eliminated.
 3913 0000 80B4     		push	{r7}
 3914              	.LCFI47:
 3915              		.cfi_def_cfa_offset 4
 3916 0002 00AF     		add	r7, sp, #0
 3917              		.cfi_offset 7, -4
 3918              	.LCFI48:
